 recfile

 Timestamp is 60aeb6dc (Wed May 26 23:00:12 2021)

 Preferred load address is 0000000140000000

 Start         Length     Name                   Class
 0001:00000000 0002a5c0H .text$mn                CODE
 0001:0002a5c0 00000036H .text$mn$00             CODE
 0001:0002a5f6 00000036H .text$x                 CODE
 0002:00000000 000004c0H .idata$5                DATA
 0002:000004c0 00000028H .00cfg                  DATA
 0002:000004e8 00000008H .CRT$XCA                DATA
 0002:000004f0 00000008H .CRT$XCAA               DATA
 0002:000004f8 00000008H .CRT$XCZ                DATA
 0002:00000500 00000008H .CRT$XIA                DATA
 0002:00000508 00000008H .CRT$XIAA               DATA
 0002:00000510 00000008H .CRT$XIAC               DATA
 0002:00000518 00000008H .CRT$XIZ                DATA
 0002:00000520 00000008H .CRT$XPA                DATA
 0002:00000528 00000008H .CRT$XPZ                DATA
 0002:00000530 00000008H .CRT$XTA                DATA
 0002:00000538 00000008H .CRT$XTZ                DATA
 0002:00000540 00000000H .gehcont$y              DATA
 0002:00000540 00000000H .gfids$y                DATA
 0002:00000540 00010e40H .rdata                  DATA
 0002:00011380 00000000H .rdata$CastGuardVftablesA DATA
 0002:00011380 00000000H .rdata$CastGuardVftablesC DATA
 0002:00011380 0000007cH .rdata$voltmd           DATA
 0002:000113fc 0000025cH .rdata$zzzdbg           DATA
 0002:00011658 00000008H .rtc$IAA                DATA
 0002:00011660 00000008H .rtc$IZZ                DATA
 0002:00011668 00000008H .rtc$TAA                DATA
 0002:00011670 00000008H .rtc$TZZ                DATA
 0002:00011678 00003024H .xdata                  DATA
 0002:0001469c 00000000H .edata                  DATA
 0002:0001469c 000000f0H .idata$2                DATA
 0002:0001478c 00000014H .idata$3                DATA
 0002:000147a0 000004c0H .idata$4                DATA
 0002:00014c60 000009a6H .idata$6                DATA
 0003:00000000 00000d40H .data                   DATA
 0003:00000d40 000020f8H .bss                    DATA
 0004:00000000 0000267cH .pdata                  DATA

  Address         Publics by Value              Rva+Base               Lib:Object

 0000:00000000       __guard_iat_table          0000000000000000     <absolute>
 0000:00000000       __guard_iat_count          0000000000000000     <absolute>
 0000:00000000       __guard_longjmp_count      0000000000000000     <absolute>
 0000:00000000       __guard_longjmp_table      0000000000000000     <absolute>
 0000:00000000       __x64_code_ranges_to_entry_points 0000000000000000     <absolute>
 0000:00000000       __dynamic_value_reloc_table 0000000000000000     <absolute>
 0000:00000000       __arm64x_redirection_metadata 0000000000000000     <absolute>
 0000:00000000       __hybrid_auxiliary_iat     0000000000000000     <absolute>
 0000:00000000       __guard_fids_count         0000000000000000     <absolute>
 0000:00000000       __hybrid_auxiliary_iat_copy 0000000000000000     <absolute>
 0000:00000000       __arm64x_extra_rfe_table   0000000000000000     <absolute>
 0000:00000000       __hybrid_code_map          0000000000000000     <absolute>
 0000:00000000       __arm64x_extra_rfe_table_size 0000000000000000     <absolute>
 0000:00000000       ___safe_se_handler_table   0000000000000000     <absolute>
 0000:00000000       __AbsoluteZero             0000000000000000     <absolute>
 0000:00000000       ___safe_se_handler_count   0000000000000000     <absolute>
 0000:00000000       __x64_code_ranges_to_entry_points_count 0000000000000000     <absolute>
 0000:00000000       __guard_check_icall_a64n_fptr 0000000000000000     <absolute>
 0000:00000000       __guard_fids_table         0000000000000000     <absolute>
 0000:00000000       __guard_eh_cont_count      0000000000000000     <absolute>
 0000:00000000       __arm64x_redirection_metadata_count 0000000000000000     <absolute>
 0000:00000000       __enclave_config           0000000000000000     <absolute>
 0000:00000000       __guard_eh_cont_table      0000000000000000     <absolute>
 0000:00000000       __arm64x_native_entrypoint 0000000000000000     <absolute>
 0000:00000000       __hybrid_code_map_count    0000000000000000     <absolute>
 0000:00000100       __guard_flags              0000000000000100     <absolute>
 0000:00000000       __ImageBase                0000000140000000     <linker-defined>
 0001:000001d0       main                       00000001400011d0 f   recfile.obj
 0001:000004c0       __local_stdio_printf_options 00000001400014c0 f i recfile.obj
 0001:000004d0       printf                     00000001400014d0 f i recfile.obj
 0001:00000530       pjmedia_aud_subsys_init    0000000140001530 f   pjmedia-audiodev-x86_64-x64-vc14-release:audiodev.obj
 0001:000005e0       pjmedia_aud_subsys_shutdown 00000001400015e0 f   pjmedia-audiodev-x86_64-x64-vc14-release:audiodev.obj
 0001:00000630       _snprintf                  0000000140001630 f i pjmedia-audiodev-x86_64-x64-vc14-release:errno.obj
 0001:00000690       pjmedia_audiodev_strerror  0000000140001690 f   pjmedia-audiodev-x86_64-x64-vc14-release:errno.obj
 0001:00001f60       pjmedia_wmme_factory       0000000140002f60 f   pjmedia-audiodev-x86_64-x64-vc14-release:wmme_dev.obj
 0001:00002630       pjmedia_port_destroy       0000000140003630 f   pjmedia-x86_64-x64-vc14-release:port.obj
 0001:00002650       pjmedia_port_get_frame     0000000140003650 f   pjmedia-x86_64-x64-vc14-release:port.obj
 0001:00002680       pjmedia_port_info_init     0000000140003680 f   pjmedia-x86_64-x64-vc14-release:port.obj
 0001:00002720       pjmedia_port_put_frame     0000000140003720 f   pjmedia-x86_64-x64-vc14-release:port.obj
 0001:00002750       pjmedia_endpt_create2      0000000140003750 f   pjmedia-x86_64-x64-vc14-release:endpoint.obj
 0001:00002970       pjmedia_endpt_destroy2     0000000140003970 f   pjmedia-x86_64-x64-vc14-release:endpoint.obj
 0001:00002a60       sprintf                    0000000140003a60 f i pjmedia-x86_64-x64-vc14-release:endpoint.obj
 0001:00002b20       pjmedia_snd_port_connect   0000000140003b20 f   pjmedia-x86_64-x64-vc14-release:sound_port.obj
 0001:00002c00       pjmedia_snd_port_create2   0000000140003c00 f   pjmedia-x86_64-x64-vc14-release:sound_port.obj
 0001:00002de0       pjmedia_snd_port_create_rec 0000000140003de0 f   pjmedia-x86_64-x64-vc14-release:sound_port.obj
 0001:00002ed0       pjmedia_snd_port_destroy   0000000140003ed0 f   pjmedia-x86_64-x64-vc14-release:sound_port.obj
 0001:00002f40       pjmedia_snd_port_set_ec    0000000140003f40 f   pjmedia-x86_64-x64-vc14-release:sound_port.obj
 0001:00003a50       pjmedia_wav_writer_port_create 0000000140004a50 f   pjmedia-x86_64-x64-vc14-release:wav_writer.obj
 0001:00003ea0       pjmedia_aud_dev_default_param 0000000140004ea0 f   pjmedia-x86_64-x64-vc14-release:audiodev.obj
 0001:00003f30       pjmedia_aud_dev_get_info   0000000140004f30 f   pjmedia-x86_64-x64-vc14-release:audiodev.obj
 0001:00003f90       pjmedia_aud_driver_deinit  0000000140004f90 f   pjmedia-x86_64-x64-vc14-release:audiodev.obj
 0001:00004000       pjmedia_aud_driver_init    0000000140005000 f   pjmedia-x86_64-x64-vc14-release:audiodev.obj
 0001:00004280       pjmedia_aud_stream_create  0000000140005280 f   pjmedia-x86_64-x64-vc14-release:audiodev.obj
 0001:00004440       pjmedia_aud_stream_destroy 0000000140005440 f   pjmedia-x86_64-x64-vc14-release:audiodev.obj
 0001:00004450       pjmedia_aud_stream_get_cap 0000000140005450 f   pjmedia-x86_64-x64-vc14-release:audiodev.obj
 0001:00004460       pjmedia_aud_stream_get_param 0000000140005460 f   pjmedia-x86_64-x64-vc14-release:audiodev.obj
 0001:00004520       pjmedia_aud_stream_set_cap 0000000140005520 f   pjmedia-x86_64-x64-vc14-release:audiodev.obj
 0001:00004530       pjmedia_aud_stream_start   0000000140005530 f   pjmedia-x86_64-x64-vc14-release:audiodev.obj
 0001:00004540       pjmedia_aud_stream_stop    0000000140005540 f   pjmedia-x86_64-x64-vc14-release:audiodev.obj
 0001:00004550       pjmedia_get_aud_subsys     0000000140005550 f   pjmedia-x86_64-x64-vc14-release:audiodev.obj
 0001:00004680       pjmedia_event_init         0000000140005680 f   pjmedia-x86_64-x64-vc14-release:event.obj
 0001:000046c0       pjmedia_event_publish      00000001400056c0 f   pjmedia-x86_64-x64-vc14-release:event.obj
 0001:000048a0       pjmedia_event_subscribe    00000001400058a0 f   pjmedia-x86_64-x64-vc14-release:event.obj
 0001:000049b0       pjmedia_event_unsubscribe  00000001400059b0 f   pjmedia-x86_64-x64-vc14-release:event.obj
 0001:00004ac0       pjmedia_format_get_audio_format_detail 0000000140005ac0 f   pjmedia-x86_64-x64-vc14-release:format.obj
 0001:00004ad0       pjmedia_sdp_attr_create    0000000140005ad0 f   pjmedia-x86_64-x64-vc14-release:sdp.obj
 0001:00004b80       pjmedia_sdp_media_deactivate 0000000140005b80 f   pjmedia-x86_64-x64-vc14-release:sdp.obj
 0001:00004ba0       pjmedia_sdp_media_find_attr 0000000140005ba0 f   pjmedia-x86_64-x64-vc14-release:sdp.obj
 0001:00004c90       pjmedia_sdp_transport_get_proto 0000000140005c90 f   pjmedia-x86_64-x64-vc14-release:sdp.obj
 0001:00004df0       pjmedia_codec_mgr_destroy  0000000140005df0 f   pjmedia-x86_64-x64-vc14-release:codec.obj
 0001:00004ea0       pjmedia_codec_mgr_init     0000000140005ea0 f   pjmedia-x86_64-x64-vc14-release:codec.obj
 0001:00004f30       pjmedia_strerror           0000000140005f30 f   pjmedia-x86_64-x64-vc14-release:errno.obj
 0001:00005090       pjmedia_clock_src_init     0000000140006090 f   pjmedia-x86_64-x64-vc14-release:clock_thread.obj
 0001:000050d0       pjmedia_clock_src_update   00000001400060d0 f   pjmedia-x86_64-x64-vc14-release:clock_thread.obj
 0001:00005100       pjmedia_echo_capture       0000000140006100 f   pjmedia-x86_64-x64-vc14-release:echo_common.obj
 0001:00005200       pjmedia_echo_create2       0000000140006200 f   pjmedia-x86_64-x64-vc14-release:echo_common.obj
 0001:00005460       pjmedia_echo_destroy       0000000140006460 f   pjmedia-x86_64-x64-vc14-release:echo_common.obj
 0001:000054a0       pjmedia_echo_playback      00000001400064a0 f   pjmedia-x86_64-x64-vc14-release:echo_common.obj
 0001:00005570       pjmedia_echo_stat_default  0000000140006570 f   pjmedia-x86_64-x64-vc14-release:echo_common.obj
 0001:000055c0       _guard_check_icall_nop     00000001400065c0 f   MSVCRT:guard_support.obj
 0001:000055c0       pjmedia_wave_hdr_host_to_file 00000001400065c0 f   pjmedia-x86_64-x64-vc14-release:wave.obj
 0001:000055c0       _initialize_denormal_control 00000001400065c0 f   MSVCRT:denormal_control.obj
 0001:000055c0       _initialize_invalid_parameter_handler 00000001400065c0 f   MSVCRT:invalid_parameter_handler.obj
 0001:00006f10       _matherr                   0000000140007f10 f   MSVCRT:matherr.obj
 0001:00006f10       _get_startup_new_mode      0000000140007f10 f   MSVCRT:new_mode.obj
 0001:00006f10       _get_startup_commit_mode   0000000140007f10 f   MSVCRT:commit_mode.obj
 0001:00006f10       _get_startup_thread_locale_mode 0000000140007f10 f   MSVCRT:thread_locale.obj
 0001:00006f10       __scrt_initialize_winrt    0000000140007f10 f   MSVCRT:utility_desktop.obj
 0001:00006f10       pjmedia_wsola_destroy      0000000140007f10 f   pjmedia-x86_64-x64-vc14-release:wsola.obj
 0001:00006f10       srtp_ekt_stream_init_from_policy 0000000140007f10 f   libsrtp-x86_64-x64-vc14-release:ekt.obj
 0001:00006f10       echo_supp_destroy          0000000140007f10 f   pjmedia-x86_64-x64-vc14-release:echo_suppress.obj
 0001:00006f10       __scrt_stub_for_initialize_mta 0000000140007f10 f   MSVCRT:utility_desktop.obj
 0001:00006f10       __scrt_exe_initialize_mta  0000000140007f10 f   MSVCRT:utility_desktop.obj
 0001:00007620       get_libsrtp_errstr         0000000140008620 f   pjmedia-x86_64-x64-vc14-release:transport_srtp.obj
 0001:00007940       pjmedia_transport_srtp_start 0000000140008940 f   pjmedia-x86_64-x64-vc14-release:transport_srtp.obj
 0001:00007ee0       pjmedia_transport_srtp_stop 0000000140008ee0 f   pjmedia-x86_64-x64-vc14-release:transport_srtp.obj
 0001:000084f0       echo_supp_cancel_echo      00000001400094f0 f   pjmedia-x86_64-x64-vc14-release:echo_suppress.obj
 0001:00008900       echo_supp_create           0000000140009900 f   pjmedia-x86_64-x64-vc14-release:echo_suppress.obj
 0001:00008af0       echo_supp_get_stat         0000000140009af0 f   pjmedia-x86_64-x64-vc14-release:echo_suppress.obj
 0001:00008c80       echo_supp_reset            0000000140009c80 f   pjmedia-x86_64-x64-vc14-release:echo_suppress.obj
 0001:000093e0       speex_aec_cancel_echo      000000014000a3e0 f   pjmedia-x86_64-x64-vc14-release:echo_speex.obj
 0001:00009510       speex_aec_capture          000000014000a510 f   pjmedia-x86_64-x64-vc14-release:echo_speex.obj
 0001:00009620       speex_aec_create           000000014000a620 f   pjmedia-x86_64-x64-vc14-release:echo_speex.obj
 0001:00009810       speex_aec_destroy          000000014000a810 f   pjmedia-x86_64-x64-vc14-release:echo_speex.obj
 0001:000098d0       speex_aec_playback         000000014000a8d0 f   pjmedia-x86_64-x64-vc14-release:echo_speex.obj
 0001:00009940       speex_aec_reset            000000014000a940 f   pjmedia-x86_64-x64-vc14-release:echo_speex.obj
 0001:00009b80       pjmedia_delay_buf_create   000000014000ab80 f   pjmedia-x86_64-x64-vc14-release:delaybuf.obj
 0001:00009d40       pjmedia_delay_buf_destroy  000000014000ad40 f   pjmedia-x86_64-x64-vc14-release:delaybuf.obj
 0001:00009db0       pjmedia_delay_buf_get      000000014000adb0 f   pjmedia-x86_64-x64-vc14-release:delaybuf.obj
 0001:00009f20       pjmedia_delay_buf_put      000000014000af20 f   pjmedia-x86_64-x64-vc14-release:delaybuf.obj
 0001:0000a1f0       pjmedia_calc_avg_signal    000000014000b1f0 f   pjmedia-x86_64-x64-vc14-release:silencedet.obj
 0001:0000ae00       pjmedia_wsola_create       000000014000be00 f   pjmedia-x86_64-x64-vc14-release:wsola.obj
 0001:0000b0c0       pjmedia_wsola_discard      000000014000c0c0 f   pjmedia-x86_64-x64-vc14-release:wsola.obj
 0001:0000b310       pjmedia_wsola_generate     000000014000c310 f   pjmedia-x86_64-x64-vc14-release:wsola.obj
 0001:0000b3f0       pjmedia_wsola_save         000000014000c3f0 f   pjmedia-x86_64-x64-vc14-release:wsola.obj
 0001:0000b8d0       pj_base64_decode           000000014000c8d0 f   pjlib-util-x86_64-x64-vc14-release:base64.obj
 0001:0000bab0       pj_base64_encode           000000014000cab0 f   pjlib-util-x86_64-x64-vc14-release:base64.obj
 0001:0000bd00       pj_atexit                  000000014000cd00 f   pjlib-x86_64-x64-vc14-release:os_core_win32.obj
 0001:0000bd30       pj_atomic_dec_and_get      000000014000cd30 f   pjlib-x86_64-x64-vc14-release:os_core_win32.obj
 0001:0000bda0       pj_atomic_destroy          000000014000cda0 f   pjlib-x86_64-x64-vc14-release:os_core_win32.obj
 0001:0000bdb0       pj_atomic_inc              000000014000cdb0 f   pjlib-x86_64-x64-vc14-release:os_core_win32.obj
 0001:0000be10       pj_enter_critical_section  000000014000ce10 f   pjlib-x86_64-x64-vc14-release:os_core_win32.obj
 0001:0000be80       pj_init                    000000014000ce80 f   pjlib-x86_64-x64-vc14-release:os_core_win32.obj
 0001:0000c1b0       pj_leave_critical_section  000000014000d1b0 f   pjlib-x86_64-x64-vc14-release:os_core_win32.obj
 0001:0000c220       pj_mutex_create            000000014000d220 f   pjlib-x86_64-x64-vc14-release:os_core_win32.obj
 0001:0000c2a0       pj_mutex_create_simple     000000014000d2a0 f   pjlib-x86_64-x64-vc14-release:os_core_win32.obj
 0001:0000c2a0       pj_mutex_create_recursive  000000014000d2a0 f   pjlib-x86_64-x64-vc14-release:os_core_win32.obj
 0001:0000c320       pj_mutex_destroy           000000014000d320 f   pjlib-x86_64-x64-vc14-release:os_core_win32.obj
 0001:0000c3a0       pj_mutex_lock              000000014000d3a0 f   pjlib-x86_64-x64-vc14-release:os_core_win32.obj
 0001:0000c420       pj_mutex_trylock           000000014000d420 f   pjlib-x86_64-x64-vc14-release:os_core_win32.obj
 0001:0000c4b0       pj_mutex_unlock            000000014000d4b0 f   pjlib-x86_64-x64-vc14-release:os_core_win32.obj
 0001:0000c530       pj_sem_destroy             000000014000d530 f   pjlib-x86_64-x64-vc14-release:os_core_win32.obj
 0001:0000c5e0       pj_sem_post                000000014000d5e0 f   pjlib-x86_64-x64-vc14-release:os_core_win32.obj
 0001:0000c6a0       pj_sem_trywait             000000014000d6a0 f   pjlib-x86_64-x64-vc14-release:os_core_win32.obj
 0001:0000c720       pj_sem_wait                000000014000d720 f   pjlib-x86_64-x64-vc14-release:os_core_win32.obj
 0001:0000c890       pj_shutdown                000000014000d890 f   pjlib-x86_64-x64-vc14-release:os_core_win32.obj
 0001:0000ca10       pj_term_set_color          000000014000da10 f   pjlib-x86_64-x64-vc14-release:os_core_win32.obj
 0001:0000cb00       pj_thread_check_stack      000000014000db00 f   pjlib-x86_64-x64-vc14-release:os_core_win32.obj
 0001:0000cb60       pj_thread_create           000000014000db60 f   pjlib-x86_64-x64-vc14-release:os_core_win32.obj
 0001:0000cd20       pj_thread_destroy          000000014000dd20 f   pjlib-x86_64-x64-vc14-release:os_core_win32.obj
 0001:0000cdd0       pj_thread_get_name         000000014000ddd0 f   pjlib-x86_64-x64-vc14-release:os_core_win32.obj
 0001:0000ce40       pj_thread_join             000000014000de40 f   pjlib-x86_64-x64-vc14-release:os_core_win32.obj
 0001:0000cf40       pj_thread_local_alloc      000000014000df40 f   pjlib-x86_64-x64-vc14-release:os_core_win32.obj
 0001:0000cfb0       pj_thread_local_free       000000014000dfb0 f   pjlib-x86_64-x64-vc14-release:os_core_win32.obj
 0001:0000d010       pj_thread_local_get        000000014000e010 f   pjlib-x86_64-x64-vc14-release:os_core_win32.obj
 0001:0000d020       pj_thread_local_set        000000014000e020 f   pjlib-x86_64-x64-vc14-release:os_core_win32.obj
 0001:0000d070       pj_thread_sleep            000000014000e070 f   pjlib-x86_64-x64-vc14-release:os_core_win32.obj
 0001:0000d0e0       pj_thread_this             000000014000e0e0 f   pjlib-x86_64-x64-vc14-release:os_core_win32.obj
 0001:0000d180       pj_pool_alloc              000000014000e180 f   pjlib-x86_64-x64-vc14-release:pool.obj
 0001:0000d340       pj_pool_calloc             000000014000e340 f   pjlib-x86_64-x64-vc14-release:pool.obj
 0001:0000d380       pj_pool_create             000000014000e380 f   pjlib-x86_64-x64-vc14-release:pool.obj
 0001:0000d390       pj_pool_create_int         000000014000e390 f   pjlib-x86_64-x64-vc14-release:pool.obj
 0001:0000d4f0       pj_pool_destroy_int        000000014000e4f0 f   pjlib-x86_64-x64-vc14-release:pool.obj
 0001:0000d530       pj_pool_get_capacity       000000014000e530 f   pjlib-x86_64-x64-vc14-release:pool.obj
 0001:0000d540       pj_pool_get_used_size      000000014000e540 f   pjlib-x86_64-x64-vc14-release:pool.obj
 0001:0000d580       pj_pool_getobjname         000000014000e580 f   pjlib-x86_64-x64-vc14-release:pool.obj
 0001:0000d590       pj_pool_init_int           000000014000e590 f   pjlib-x86_64-x64-vc14-release:pool.obj
 0001:0000d630       pj_pool_release            000000014000e630 f   pjlib-x86_64-x64-vc14-release:pool.obj
 0001:0000d650       pj_pool_reset              000000014000e650 f   pjlib-x86_64-x64-vc14-release:pool.obj
 0001:0000db60       pj_caching_pool_destroy    000000014000eb60 f   pjlib-x86_64-x64-vc14-release:pool_caching.obj
 0001:0000dc70       pj_caching_pool_init       000000014000ec70 f   pjlib-x86_64-x64-vc14-release:pool_caching.obj
 0001:0000de50       pj_errno_clear_handlers    000000014000ee50 f   pjlib-x86_64-x64-vc14-release:errno.obj
 0001:0000de70       pj_perror_3                000000014000ee70 f   pjlib-x86_64-x64-vc14-release:errno.obj
 0001:0000dea0       pj_perror_4                000000014000eea0 f   pjlib-x86_64-x64-vc14-release:errno.obj
 0001:0000ded0       pj_perror_5                000000014000eed0 f   pjlib-x86_64-x64-vc14-release:errno.obj
 0001:0000dff0       pj_register_strerror       000000014000eff0 f   pjlib-x86_64-x64-vc14-release:errno.obj
 0001:0000e0e0       pj_strerror                000000014000f0e0 f   pjlib-x86_64-x64-vc14-release:errno.obj
 0001:0000e380       pj_str                     000000014000f380 f   pjlib-x86_64-x64-vc14-release:string.obj
 0001:0000e3b0       pj_strcmp                  000000014000f3b0 f   pjlib-x86_64-x64-vc14-release:string.obj
 0001:0000e430       pj_strdup                  000000014000f430 f   pjlib-x86_64-x64-vc14-release:string.obj
 0001:0000e480       pj_strdup2                 000000014000f480 f   pjlib-x86_64-x64-vc14-release:string.obj
 0001:0000e4f0       pj_strdup_with_null        000000014000f4f0 f   pjlib-x86_64-x64-vc14-release:string.obj
 0001:0000e550       pj_stricmp                 000000014000f550 f   pjlib-x86_64-x64-vc14-release:string.obj
 0001:0000e5e0       pj_stricmp2                000000014000f5e0 f   pjlib-x86_64-x64-vc14-release:string.obj
 0001:0000e690       pj_strncpy_with_null       000000014000f690 f   pjlib-x86_64-x64-vc14-release:string.obj
 0001:0000e6e0       pj_strtok                  000000014000f6e0 f   pjlib-x86_64-x64-vc14-release:string.obj
 0001:0000e7f0       pj_strtok2                 000000014000f7f0 f   pjlib-x86_64-x64-vc14-release:string.obj
 0001:0000e900       pj_strtoul                 000000014000f900 f   pjlib-x86_64-x64-vc14-release:string.obj
 0001:0000e9a0       pj_strtoul2                000000014000f9a0 f   pjlib-x86_64-x64-vc14-release:string.obj
 0001:0000ea90       pj_utoa                    000000014000fa90 f   pjlib-x86_64-x64-vc14-release:string.obj
 0001:0000eb30       pj_utoa_pad                000000014000fb30 f   pjlib-x86_64-x64-vc14-release:string.obj
 0001:0000ec00       pj_get_netos_error         000000014000fc00 f   pjlib-x86_64-x64-vc14-release:os_error_win32.obj
 0001:0000ec30       pj_get_os_error            000000014000fc30 f   pjlib-x86_64-x64-vc14-release:os_error_win32.obj
 0001:0000ec60       platform_strerror          000000014000fc60 f   pjlib-x86_64-x64-vc14-release:os_error_win32.obj
 0001:0000ede0       pj_log                     000000014000fde0 f   pjlib-x86_64-x64-vc14-release:log.obj
 0001:0000f420       pj_log_1                   0000000140010420 f   pjlib-x86_64-x64-vc14-release:log.obj
 0001:0000f450       pj_log_3                   0000000140010450 f   pjlib-x86_64-x64-vc14-release:log.obj
 0001:0000f480       pj_log_4                   0000000140010480 f   pjlib-x86_64-x64-vc14-release:log.obj
 0001:0000f4b0       pj_log_5                   00000001400104b0 f   pjlib-x86_64-x64-vc14-release:log.obj
 0001:0000f4e0       pj_log_get_color           00000001400104e0 f   pjlib-x86_64-x64-vc14-release:log.obj
 0001:0000f550       pj_log_get_decor           0000000140010550 f   pjlib-x86_64-x64-vc14-release:log.obj
 0001:0000f560       pj_log_get_level           0000000140010560 f   pjlib-x86_64-x64-vc14-release:log.obj
 0001:0000f570       pj_log_init                0000000140010570 f   pjlib-x86_64-x64-vc14-release:log.obj
 0001:0000f5e0       pj_sockaddr_cmp            00000001400105e0 f   pjlib-x86_64-x64-vc14-release:sock_common.obj
 0001:0000f700       pj_sockaddr_has_addr       0000000140010700 f   pjlib-x86_64-x64-vc14-release:sock_common.obj
 0001:0000f7a0       pj_list_erase              00000001400107a0 f   pjlib-x86_64-x64-vc14-release:list.obj
 0001:0000f7c0       pj_list_insert_after       00000001400107c0 f   pjlib-x86_64-x64-vc14-release:list.obj
 0001:0000f7e0       pj_list_insert_before      00000001400107e0 f   pjlib-x86_64-x64-vc14-release:list.obj
 0001:0000f800       pj_gettimeofday            0000000140010800 f   pjlib-x86_64-x64-vc14-release:os_time_win32.obj
 0001:0000f910       pj_time_decode             0000000140010910 f   pjlib-x86_64-x64-vc14-release:os_time_win32.obj
 0001:0000fa70       ioqueue_dispatch_exception_event 0000000140010a70 f   pjlib-x86_64-x64-vc14-release:ioqueue_select.obj
 0001:0000fbd0       ioqueue_dispatch_read_event 0000000140010bd0 f   pjlib-x86_64-x64-vc14-release:ioqueue_select.obj
 0001:0000fe40       ioqueue_dispatch_write_event 0000000140010e40 f   pjlib-x86_64-x64-vc14-release:ioqueue_select.obj
 0001:00010140       pj_ioqueue_create          0000000140011140 f   pjlib-x86_64-x64-vc14-release:ioqueue_select.obj
 0001:00010320       pj_ioqueue_destroy         0000000140011320 f   pjlib-x86_64-x64-vc14-release:ioqueue_select.obj
 0001:00010400       pj_ioqueue_poll            0000000140011400 f   pjlib-x86_64-x64-vc14-release:ioqueue_select.obj
 0001:000109c0       pj_ntohl                   00000001400119c0 f   pjlib-x86_64-x64-vc14-release:sock_bsd.obj
 0001:000109d0       pj_ntohs                   00000001400119d0 f   pjlib-x86_64-x64-vc14-release:sock_bsd.obj
 0001:000109e0       pj_sock_accept             00000001400119e0 f   pjlib-x86_64-x64-vc14-release:sock_bsd.obj
 0001:00010a80       pj_sock_getsockname        0000000140011a80 f   pjlib-x86_64-x64-vc14-release:sock_bsd.obj
 0001:00010b20       pj_sock_getsockopt         0000000140011b20 f   pjlib-x86_64-x64-vc14-release:sock_bsd.obj
 0001:00010bd0       pj_sock_recv               0000000140011bd0 f   pjlib-x86_64-x64-vc14-release:sock_bsd.obj
 0001:00010c70       pj_sock_recvfrom           0000000140011c70 f   pjlib-x86_64-x64-vc14-release:sock_bsd.obj
 0001:00010d30       pj_sock_send               0000000140011d30 f   pjlib-x86_64-x64-vc14-release:sock_bsd.obj
 0001:00010dd0       pj_sock_sendto             0000000140011dd0 f   pjlib-x86_64-x64-vc14-release:sock_bsd.obj
 0001:00010e80       pj_file_close              0000000140011e80 f   pjlib-x86_64-x64-vc14-release:file_io_win32.obj
 0001:00010ed0       pj_file_getpos             0000000140011ed0 f   pjlib-x86_64-x64-vc14-release:file_io_win32.obj
 0001:00010f80       pj_file_open               0000000140011f80 f   pjlib-x86_64-x64-vc14-release:file_io_win32.obj
 0001:00011130       pj_file_setpos             0000000140012130 f   pjlib-x86_64-x64-vc14-release:file_io_win32.obj
 0001:000111e0       pj_file_write              00000001400121e0 f   pjlib-x86_64-x64-vc14-release:file_io_win32.obj
 0001:00011260       pj_array_erase             0000000140012260 f   pjlib-x86_64-x64-vc14-release:array.obj
 0001:000112a0       pj_exception_id_alloc      00000001400122a0 f   pjlib-x86_64-x64-vc14-release:except.obj
 0001:00011310       pj_exception_id_free       0000000140012310 f   pjlib-x86_64-x64-vc14-release:except.obj
 0001:00011350       pj_exception_id_name       0000000140012350 f   pjlib-x86_64-x64-vc14-release:except.obj
 0001:000113a0       pj_pop_exception_handler_  00000001400123a0 f   pjlib-x86_64-x64-vc14-release:except.obj
 0001:000113e0       pj_throw_exception_        00000001400123e0 f   pjlib-x86_64-x64-vc14-release:except.obj
 0001:00011670       pj_grp_lock_add_ref        0000000140012670 f   pjlib-x86_64-x64-vc14-release:lock.obj
 0001:00011690       pj_grp_lock_dec_ref        0000000140012690 f   pjlib-x86_64-x64-vc14-release:lock.obj
 0001:000116d0       pj_grp_lock_release        00000001400126d0 f   pjlib-x86_64-x64-vc14-release:lock.obj
 0001:000116e0       pj_grp_lock_tryacquire     00000001400126e0 f   pjlib-x86_64-x64-vc14-release:lock.obj
 0001:000116f0       pj_lock_acquire            00000001400126f0 f   pjlib-x86_64-x64-vc14-release:lock.obj
 0001:00011710       pj_lock_create_null_mutex  0000000140012710 f   pjlib-x86_64-x64-vc14-release:lock.obj
 0001:00011730       pj_lock_create_recursive_mutex 0000000140012730 f   pjlib-x86_64-x64-vc14-release:lock.obj
 0001:000117f0       pj_lock_create_simple_mutex 00000001400127f0 f   pjlib-x86_64-x64-vc14-release:lock.obj
 0001:000118b0       pj_lock_destroy            00000001400128b0 f   pjlib-x86_64-x64-vc14-release:lock.obj
 0001:000118d0       pj_lock_release            00000001400128d0 f   pjlib-x86_64-x64-vc14-release:lock.obj
 0001:000118f0       pj_lock_tryacquire         00000001400128f0 f   pjlib-x86_64-x64-vc14-release:lock.obj
 0001:00011910       pj_get_timestamp           0000000140012910 f   pjlib-x86_64-x64-vc14-release:os_timestamp_win32.obj
 0001:00011970       pj_get_timestamp_freq      0000000140012970 f   pjlib-x86_64-x64-vc14-release:os_timestamp_win32.obj
 0001:000119d0       pj_gettickcount            00000001400129d0 f   pjlib-x86_64-x64-vc14-release:os_timestamp_common.obj
 0001:00011a90       pj_rand                    0000000140012a90 f   pjlib-x86_64-x64-vc14-release:rand.obj
 0001:00011ce0       pj_generate_unique_string  0000000140012ce0 f   pjlib-x86_64-x64-vc14-release:guid_win32.obj
 0001:00011d40       pj_pool_create_on_buf      0000000140012d40 f   pjlib-x86_64-x64-vc14-release:pool_buf.obj
 0001:00011eb0       pj_log_write               0000000140012eb0 f   pjlib-x86_64-x64-vc14-release:log_writer_stdout.obj
 0001:00011f30       pj_time_val_normalize      0000000140012f30 f   pjlib-x86_64-x64-vc14-release:types.obj
 0001:00011fe0       PJ_FD_CLR                  0000000140012fe0 f   pjlib-x86_64-x64-vc14-release:sock_select.obj
 0001:000120a0       srtp_rdbx_get_packet_index 00000001400130a0 f   libsrtp-x86_64-x64-vc14-release:rdbx.obj
 0001:000120a0       PJ_FD_COUNT                00000001400130a0 f   pjlib-x86_64-x64-vc14-release:sock_select.obj
 0001:000120b0       PJ_FD_ISSET                00000001400130b0 f   pjlib-x86_64-x64-vc14-release:sock_select.obj
 0001:000120f0       PJ_FD_ZERO                 00000001400130f0 f   pjlib-x86_64-x64-vc14-release:sock_select.obj
 0001:00012120       pj_sock_select             0000000140013120 f   pjlib-x86_64-x64-vc14-release:sock_select.obj
 0001:00012810       speex_echo_cancellation    0000000140013810 f   libspeex-x86_64-x64-vc14-release:mdf.obj
 0001:00014b00       speex_echo_capture         0000000140015b00 f   libspeex-x86_64-x64-vc14-release:mdf.obj
 0001:00014c20       speex_echo_ctl             0000000140015c20 f   libspeex-x86_64-x64-vc14-release:mdf.obj
 0001:00014ef0       speex_echo_get_residual    0000000140015ef0 f   libspeex-x86_64-x64-vc14-release:mdf.obj
 0001:00015200       speex_echo_playback        0000000140016200 f   libspeex-x86_64-x64-vc14-release:mdf.obj
 0001:00015340       speex_echo_state_destroy   0000000140016340 f   libspeex-x86_64-x64-vc14-release:mdf.obj
 0001:000154a0       speex_echo_state_init_mc   00000001400164a0 f   libspeex-x86_64-x64-vc14-release:mdf.obj
 0001:00015c40       speex_echo_state_reset     0000000140016c40 f   libspeex-x86_64-x64-vc14-release:mdf.obj
 0001:00016510       speex_decorrelate          0000000140017510 f   libspeex-x86_64-x64-vc14-release:scal.obj
 0001:00016b90       speex_decorrelate_destroy  0000000140017b90 f   libspeex-x86_64-x64-vc14-release:scal.obj
 0001:00016bf0       speex_decorrelate_new      0000000140017bf0 f   libspeex-x86_64-x64-vc14-release:scal.obj
 0001:00017d30       speex_preprocess_ctl       0000000140018d30 f   libspeex-x86_64-x64-vc14-release:preprocess.obj
 0001:00018410       speex_preprocess_run       0000000140019410 f   libspeex-x86_64-x64-vc14-release:preprocess.obj
 0001:0001a3f0       speex_preprocess_state_destroy 000000014001b3f0 f   libspeex-x86_64-x64-vc14-release:preprocess.obj
 0001:0001a530       speex_preprocess_state_init 000000014001b530 f   libspeex-x86_64-x64-vc14-release:preprocess.obj
 0001:0001be30       spx_fft                    000000014001ce30 f   libspeex-x86_64-x64-vc14-release:fftwrap.obj
 0001:0001bf10       spx_fft_destroy            000000014001cf10 f   libspeex-x86_64-x64-vc14-release:fftwrap.obj
 0001:0001bf30       spx_fft_init               000000014001cf30 f   libspeex-x86_64-x64-vc14-release:fftwrap.obj
 0001:0001bf70       spx_ifft                   000000014001cf70 f   libspeex-x86_64-x64-vc14-release:fftwrap.obj
 0001:0001bff0       filterbank_compute_bank32  000000014001cff0 f   libspeex-x86_64-x64-vc14-release:filterbank.obj
 0001:0001c090       filterbank_compute_psd16   000000014001d090 f   libspeex-x86_64-x64-vc14-release:filterbank.obj
 0001:0001c0f0       filterbank_destroy         000000014001d0f0 f   libspeex-x86_64-x64-vc14-release:filterbank.obj
 0001:0001c140       filterbank_new             000000014001d140 f   libspeex-x86_64-x64-vc14-release:filterbank.obj
 0001:00021f90       spx_drft_backward          0000000140022f90 f   libspeex-x86_64-x64-vc14-release:smallft.obj
 0001:00021fc0       spx_drft_clear             0000000140022fc0 f   libspeex-x86_64-x64-vc14-release:smallft.obj
 0001:00022000       spx_drft_forward           0000000140023000 f   libspeex-x86_64-x64-vc14-release:smallft.obj
 0001:00022030       spx_drft_init              0000000140023030 f   libspeex-x86_64-x64-vc14-release:smallft.obj
 0001:00022090       srtp_event_reporter        0000000140023090 f   libsrtp-x86_64-x64-vc14-release:srtp.obj
 0001:00022140       __local_stdio_scanf_options 0000000140023140 f i libsrtp-x86_64-x64-vc14-release:srtp.obj
 0001:000223d0       srtp_create                00000001400233d0 f   libsrtp-x86_64-x64-vc14-release:srtp.obj
 0001:00022580       srtp_crypto_policy_set_aes_cm_256_hmac_sha1_32 0000000140023580 f   libsrtp-x86_64-x64-vc14-release:srtp.obj
 0001:000225b0       srtp_crypto_policy_set_aes_cm_256_hmac_sha1_80 00000001400235b0 f   libsrtp-x86_64-x64-vc14-release:srtp.obj
 0001:000225e0       srtp_dealloc               00000001400235e0 f   libsrtp-x86_64-x64-vc14-release:srtp.obj
 0001:000228c0       srtp_get_session_keys      00000001400238c0 f   libsrtp-x86_64-x64-vc14-release:srtp.obj
 0001:00022990       srtp_inject_mki            0000000140023990 f   libsrtp-x86_64-x64-vc14-release:srtp.obj
 0001:00022d20       srtp_protect               0000000140023d20 f   libsrtp-x86_64-x64-vc14-release:srtp.obj
 0001:00023040       srtp_protect_mki           0000000140024040 f   libsrtp-x86_64-x64-vc14-release:srtp.obj
 0001:000235a0       srtp_protect_rtcp          00000001400245a0 f   libsrtp-x86_64-x64-vc14-release:srtp.obj
 0001:000237e0       srtp_protect_rtcp_mki      00000001400247e0 f   libsrtp-x86_64-x64-vc14-release:srtp.obj
 0001:00023b80       srtp_stream_alloc          0000000140024b80 f   libsrtp-x86_64-x64-vc14-release:srtp.obj
 0001:00023e10       srtp_stream_clone          0000000140024e10 f   libsrtp-x86_64-x64-vc14-release:srtp.obj
 0001:00024050       srtp_stream_dealloc        0000000140025050 f   libsrtp-x86_64-x64-vc14-release:srtp.obj
 0001:000242e0       srtp_stream_init           00000001400252e0 f   libsrtp-x86_64-x64-vc14-release:srtp.obj
 0001:00024470       srtp_stream_init_keys      0000000140025470 f   libsrtp-x86_64-x64-vc14-release:srtp.obj
 0001:00024dc0       srtp_unprotect             0000000140025dc0 f   libsrtp-x86_64-x64-vc14-release:srtp.obj
 0001:000250d0       srtp_unprotect_mki         00000001400260d0 f   libsrtp-x86_64-x64-vc14-release:srtp.obj
 0001:000256e0       srtp_unprotect_rtcp        00000001400266e0 f   libsrtp-x86_64-x64-vc14-release:srtp.obj
 0001:00025950       srtp_unprotect_rtcp_mki    0000000140026950 f   libsrtp-x86_64-x64-vc14-release:srtp.obj
 0001:00025e70       srtp_crypto_alloc          0000000140026e70 f   libsrtp-x86_64-x64-vc14-release:alloc.obj
 0001:00025ee0       srtp_crypto_free           0000000140026ee0 f   libsrtp-x86_64-x64-vc14-release:alloc.obj
 0001:00025f20       bitvector_alloc            0000000140026f20 f   libsrtp-x86_64-x64-vc14-release:datatypes.obj
 0001:00025f90       bitvector_dealloc          0000000140026f90 f   libsrtp-x86_64-x64-vc14-release:datatypes.obj
 0001:00025fc0       bitvector_left_shift       0000000140026fc0 f   libsrtp-x86_64-x64-vc14-release:datatypes.obj
 0001:00026190       bitvector_set_to_zero      0000000140027190 f   libsrtp-x86_64-x64-vc14-release:datatypes.obj
 0001:000261b0       octet_string_is_eq         00000001400271b0 f   libsrtp-x86_64-x64-vc14-release:datatypes.obj
 0001:00026280       octet_string_set_to_zero   0000000140027280 f   libsrtp-x86_64-x64-vc14-release:datatypes.obj
 0001:000262a0       srtp_octet_string_hex_string 00000001400272a0 f   libsrtp-x86_64-x64-vc14-release:datatypes.obj
 0001:00026360       v128_copy_octet_string     0000000140027360 f   libsrtp-x86_64-x64-vc14-release:datatypes.obj
 0001:000263d0       v128_hex_string            00000001400273d0 f   libsrtp-x86_64-x64-vc14-release:datatypes.obj
 0001:000265b0       v128_left_shift            00000001400275b0 f   libsrtp-x86_64-x64-vc14-release:datatypes.obj
 0001:000266d0       srtp_err_report            00000001400276d0 f   libsrtp-x86_64-x64-vc14-release:srtp_err.obj
 0001:00026710       srtp_rdbx_add_index        0000000140027710 f   libsrtp-x86_64-x64-vc14-release:rdbx.obj
 0001:000267a0       srtp_rdbx_check            00000001400277a0 f   libsrtp-x86_64-x64-vc14-release:rdbx.obj
 0001:000267e0       srtp_rdbx_dealloc          00000001400277e0 f   libsrtp-x86_64-x64-vc14-release:rdbx.obj
 0001:00026800       srtp_rdbx_estimate_index   0000000140027800 f   libsrtp-x86_64-x64-vc14-release:rdbx.obj
 0001:000268a0       srtp_rdbx_get_window_size  00000001400278a0 f   libsrtp-x86_64-x64-vc14-release:rdbx.obj
 0001:000268b0       srtp_rdbx_init             00000001400278b0 f   libsrtp-x86_64-x64-vc14-release:rdbx.obj
 0001:000268f0       srtp_rdbx_set_roc          00000001400278f0 f   libsrtp-x86_64-x64-vc14-release:rdbx.obj
 0001:00026950       srtp_rdbx_set_roc_seq      0000000140027950 f   libsrtp-x86_64-x64-vc14-release:rdbx.obj
 0001:00026990       srtp_rdb_add_index         0000000140027990 f   libsrtp-x86_64-x64-vc14-release:rdb.obj
 0001:00026a00       srtp_rdb_check             0000000140027a00 f   libsrtp-x86_64-x64-vc14-release:rdb.obj
 0001:00026a50       srtp_rdb_get_value         0000000140027a50 f   libsrtp-x86_64-x64-vc14-release:rdb.obj
 0001:00026a60       srtp_rdb_increment         0000000140027a60 f   libsrtp-x86_64-x64-vc14-release:rdb.obj
 0001:00026a80       srtp_rdb_init              0000000140027a80 f   libsrtp-x86_64-x64-vc14-release:rdb.obj
 0001:00026a90       srtp_cipher_dealloc        0000000140027a90 f   libsrtp-x86_64-x64-vc14-release:cipher.obj
 0001:00026ab0       srtp_cipher_decrypt        0000000140027ab0 f   libsrtp-x86_64-x64-vc14-release:cipher.obj
 0001:00026ad0       srtp_cipher_encrypt        0000000140027ad0 f   libsrtp-x86_64-x64-vc14-release:cipher.obj
 0001:00026af0       srtp_auth_get_tag_length   0000000140027af0 f   libsrtp-x86_64-x64-vc14-release:auth.obj
 0001:00026af0       srtp_cipher_get_key_length 0000000140027af0 f   libsrtp-x86_64-x64-vc14-release:cipher.obj
 0001:00026b00       srtp_cipher_get_tag        0000000140027b00 f   libsrtp-x86_64-x64-vc14-release:cipher.obj
 0001:00026b30       srtp_cipher_init           0000000140027b30 f   libsrtp-x86_64-x64-vc14-release:cipher.obj
 0001:00026b50       srtp_cipher_output         0000000140027b50 f   libsrtp-x86_64-x64-vc14-release:cipher.obj
 0001:00026ba0       srtp_cipher_set_aad        0000000140027ba0 f   libsrtp-x86_64-x64-vc14-release:cipher.obj
 0001:00026bd0       srtp_cipher_set_iv         0000000140027bd0 f   libsrtp-x86_64-x64-vc14-release:cipher.obj
 0001:00026bf0       srtp_auth_get_key_length   0000000140027bf0 f   libsrtp-x86_64-x64-vc14-release:auth.obj
 0001:00026c00       srtp_auth_get_prefix_length 0000000140027c00 f   libsrtp-x86_64-x64-vc14-release:auth.obj
 0001:00026c10       srtp_key_limit_clone       0000000140027c10 f   libsrtp-x86_64-x64-vc14-release:key.obj
 0001:00026c30       srtp_key_limit_set         0000000140027c30 f   libsrtp-x86_64-x64-vc14-release:key.obj
 0001:00026c50       srtp_key_limit_update      0000000140027c50 f   libsrtp-x86_64-x64-vc14-release:key.obj
 0001:00026c90       srtp_crypto_kernel_alloc_auth 0000000140027c90 f   libsrtp-x86_64-x64-vc14-release:crypto_kernel.obj
 0001:00026cf0       srtp_crypto_kernel_alloc_cipher 0000000140027cf0 f   libsrtp-x86_64-x64-vc14-release:crypto_kernel.obj
 0001:00026d50       srtp_ekt_alloc             0000000140027d50 f   libsrtp-x86_64-x64-vc14-release:ekt.obj
 0001:00026d60       srtp_ekt_octets_after_base_tag 0000000140027d60 f   libsrtp-x86_64-x64-vc14-release:ekt.obj
 0001:00026d80       srtp_ekt_write_data        0000000140027d80 f   libsrtp-x86_64-x64-vc14-release:ekt.obj
 0001:00026f30       srtp_stream_init_from_ekt  0000000140027f30 f   libsrtp-x86_64-x64-vc14-release:ekt.obj
 0001:000282c0       srtp_aes_decrypt           00000001400292c0 f   libsrtp-x86_64-x64-vc14-release:aes.obj
 0001:00028410       srtp_aes_encrypt           0000000140029410 f   libsrtp-x86_64-x64-vc14-release:aes.obj
 0001:00028560       srtp_aes_expand_decryption_key 0000000140029560 f   libsrtp-x86_64-x64-vc14-release:aes.obj
 0001:00028790       srtp_aes_expand_encryption_key 0000000140029790 f   libsrtp-x86_64-x64-vc14-release:aes.obj
 0001:000289a0       srtp_sha1_core             00000001400299a0 f   libsrtp-x86_64-x64-vc14-release:sha1.obj
 0001:00028f00       srtp_sha1_final            0000000140029f00 f   libsrtp-x86_64-x64-vc14-release:sha1.obj
 0001:000295b0       srtp_sha1_init             000000014002a5b0 f   libsrtp-x86_64-x64-vc14-release:sha1.obj
 0001:000295e0       srtp_sha1_update           000000014002a5e0 f   libsrtp-x86_64-x64-vc14-release:sha1.obj
 0001:000296fe       __WSAFDIsSet               000000014002a6fe f   ws2_32:WS2_32.dll
 0001:00029704       __GSHandlerCheck           000000014002a704 f   MSVCRT:gshandler.obj
 0001:00029724       __GSHandlerCheckCommon     000000014002a724 f   MSVCRT:gshandler.obj
 0001:00029790       __security_check_cookie    000000014002a790 f   MSVCRT:amdsecgs.obj
 0001:00029a10       mainCRTStartup             000000014002aa10 f   MSVCRT:exe_main.obj
 0001:00029a24       __raise_securityfailure    000000014002aa24 f   MSVCRT:gs_report.obj
 0001:00029a58       __report_gsfailure         000000014002aa58 f   MSVCRT:gs_report.obj
 0001:00029b2c       __report_rangecheckfailure 000000014002ab2c f   MSVCRT:gs_report.obj
 0001:00029b40       __report_securityfailure   000000014002ab40 f   MSVCRT:gs_report.obj
 0001:00029cd0       _alloca_probe              000000014002acd0 f   MSVCRT:chkstk.obj
 0001:00029cd0       __chkstk                   000000014002acd0 f   MSVCRT:chkstk.obj
 0001:00029d20       __scrt_acquire_startup_lock 000000014002ad20 f   MSVCRT:utility.obj
 0001:00029d5c       __scrt_initialize_crt      000000014002ad5c f   MSVCRT:utility.obj
 0001:00029da8       __scrt_initialize_onexit_tables 000000014002ada8 f   MSVCRT:utility.obj
 0001:00029e34       __scrt_is_nonwritable_in_current_image 000000014002ae34 f   MSVCRT:utility.obj
 0001:00029ecc       __scrt_release_startup_lock 000000014002aecc f   MSVCRT:utility.obj
 0001:00029ef0       __scrt_uninitialize_crt    000000014002aef0 f   MSVCRT:utility.obj
 0001:00029f1c       _onexit                    000000014002af1c f   MSVCRT:utility.obj
 0001:00029f58       atexit                     000000014002af58 f   MSVCRT:utility.obj
 0001:00029f70       __security_init_cookie     000000014002af70 f   MSVCRT:gs_support.obj
 0001:0002a01c       _get_startup_argv_mode     000000014002b01c f   MSVCRT:argv_mode.obj
 0001:0002a024       _get_startup_file_mode     000000014002b024 f   MSVCRT:file_mode.obj
 0001:0002a02c       ?__scrt_initialize_type_info@@YAXXZ 000000014002b02c f   MSVCRT:tncleanup.obj
 0001:0002a03c       __acrt_initialize          000000014002b03c f   MSVCRT:ucrt_stubs.obj
 0001:0002a03c       __acrt_uninitialize        000000014002b03c f   MSVCRT:ucrt_stubs.obj
 0001:0002a03c       __vcrt_initialize          000000014002b03c f   MSVCRT:ucrt_stubs.obj
 0001:0002a03c       __scrt_stub_for_acrt_uninitialize 000000014002b03c f   MSVCRT:ucrt_stubs.obj
 0001:0002a03c       __scrt_stub_for_acrt_initialize 000000014002b03c f   MSVCRT:ucrt_stubs.obj
 0001:0002a03c       __vcrt_uninitialize        000000014002b03c f   MSVCRT:ucrt_stubs.obj
 0001:0002a03c       _should_initialize_environment 000000014002b03c f   MSVCRT:env_mode.obj
 0001:0002a040       __scrt_initialize_default_local_stdio_options 000000014002b040 f   MSVCRT:default_local_stdio_options.obj
 0001:0002a05c       __scrt_is_user_matherr_present 000000014002b05c f   MSVCRT:matherr_detection.obj
 0001:0002a068       __scrt_get_dyn_tls_init_callback 000000014002b068 f   MSVCRT:dyn_tls_init.obj
 0001:0002a070       __scrt_get_dyn_tls_dtor_callback 000000014002b070 f   MSVCRT:dyn_tls_dtor.obj
 0001:0002a078       __crt_debugger_hook        000000014002b078 f   MSVCRT:utility_desktop.obj
 0001:0002a080       __scrt_fastfail            000000014002b080 f   MSVCRT:utility_desktop.obj
 0001:0002a1cc       __scrt_initialize_mta      000000014002b1cc f   MSVCRT:utility_desktop.obj
 0001:0002a1d4       __scrt_is_managed_app      000000014002b1d4 f   MSVCRT:utility_desktop.obj
 0001:0002a228       __scrt_set_unhandled_exception_filter 000000014002b228 f   MSVCRT:utility_desktop.obj
 0001:0002a238       __scrt_unhandled_exception_filter 000000014002b238 f   MSVCRT:utility_desktop.obj
 0001:0002a294       _RTC_Initialize            000000014002b294 f   MSVCRT:initsect.obj
 0001:0002a2d0       _RTC_Terminate             000000014002b2d0 f   MSVCRT:initsect.obj
 0001:0002a30c       __isa_available_init       000000014002b30c f   MSVCRT:cpu_disp.obj
 0001:0002a4b0       __scrt_is_ucrt_dll_in_use  000000014002b4b0 f   MSVCRT:ucrt_detection.obj
 0001:0002a4c0       memcpy                     000000014002b4c0 f   vcruntime:VCRUNTIME140.dll
 0001:0002a4c6       memset                     000000014002b4c6 f   vcruntime:VCRUNTIME140.dll
 0001:0002a4cc       memmove                    000000014002b4cc f   vcruntime:VCRUNTIME140.dll
 0001:0002a4d2       strchr                     000000014002b4d2 f   vcruntime:VCRUNTIME140.dll
 0001:0002a4d8       memcmp                     000000014002b4d8 f   vcruntime:VCRUNTIME140.dll
 0001:0002a4de       longjmp                    000000014002b4de f   vcruntime:VCRUNTIME140.dll
 0001:0002a4e4       __C_specific_handler       000000014002b4e4 f   vcruntime:VCRUNTIME140.dll
 0001:0002a4ea       __current_exception        000000014002b4ea f   vcruntime:VCRUNTIME140.dll
 0001:0002a4f0       __current_exception_context 000000014002b4f0 f   vcruntime:VCRUNTIME140.dll
 0001:0002a4f6       cos                        000000014002b4f6 f   ucrt:api-ms-win-crt-math-l1-1-0.dll
 0001:0002a4fc       fmod                       000000014002b4fc f   ucrt:api-ms-win-crt-math-l1-1-0.dll
 0001:0002a502       exp                        000000014002b502 f   ucrt:api-ms-win-crt-math-l1-1-0.dll
 0001:0002a508       floor                      000000014002b508 f   ucrt:api-ms-win-crt-math-l1-1-0.dll
 0001:0002a50e       sqrt                       000000014002b50e f   ucrt:api-ms-win-crt-math-l1-1-0.dll
 0001:0002a514       pow                        000000014002b514 f   ucrt:api-ms-win-crt-math-l1-1-0.dll
 0001:0002a51a       sin                        000000014002b51a f   ucrt:api-ms-win-crt-math-l1-1-0.dll
 0001:0002a520       log                        000000014002b520 f   ucrt:api-ms-win-crt-math-l1-1-0.dll
 0001:0002a526       atan                       000000014002b526 f   ucrt:api-ms-win-crt-math-l1-1-0.dll
 0001:0002a52c       exit                       000000014002b52c f   ucrt:api-ms-win-crt-runtime-l1-1-0.dll
 0001:0002a532       _seh_filter_exe            000000014002b532 f   ucrt:api-ms-win-crt-runtime-l1-1-0.dll
 0001:0002a538       _set_app_type              000000014002b538 f   ucrt:api-ms-win-crt-runtime-l1-1-0.dll
 0001:0002a53e       __setusermatherr           000000014002b53e f   ucrt:api-ms-win-crt-math-l1-1-0.dll
 0001:0002a544       _configure_narrow_argv     000000014002b544 f   ucrt:api-ms-win-crt-runtime-l1-1-0.dll
 0001:0002a54a       _initialize_narrow_environment 000000014002b54a f   ucrt:api-ms-win-crt-runtime-l1-1-0.dll
 0001:0002a550       _get_initial_narrow_environment 000000014002b550 f   ucrt:api-ms-win-crt-runtime-l1-1-0.dll
 0001:0002a556       _initterm                  000000014002b556 f   ucrt:api-ms-win-crt-runtime-l1-1-0.dll
 0001:0002a55c       _initterm_e                000000014002b55c f   ucrt:api-ms-win-crt-runtime-l1-1-0.dll
 0001:0002a562       _exit                      000000014002b562 f   ucrt:api-ms-win-crt-runtime-l1-1-0.dll
 0001:0002a568       _set_fmode                 000000014002b568 f   ucrt:api-ms-win-crt-stdio-l1-1-0.dll
 0001:0002a56e       __p___argc                 000000014002b56e f   ucrt:api-ms-win-crt-runtime-l1-1-0.dll
 0001:0002a574       __p___argv                 000000014002b574 f   ucrt:api-ms-win-crt-runtime-l1-1-0.dll
 0001:0002a57a       _cexit                     000000014002b57a f   ucrt:api-ms-win-crt-runtime-l1-1-0.dll
 0001:0002a580       _c_exit                    000000014002b580 f   ucrt:api-ms-win-crt-runtime-l1-1-0.dll
 0001:0002a586       _register_thread_local_exe_atexit_callback 000000014002b586 f   ucrt:api-ms-win-crt-runtime-l1-1-0.dll
 0001:0002a58c       _configthreadlocale        000000014002b58c f   ucrt:api-ms-win-crt-locale-l1-1-0.dll
 0001:0002a592       _set_new_mode              000000014002b592 f   ucrt:api-ms-win-crt-heap-l1-1-0.dll
 0001:0002a598       __p__commode               000000014002b598 f   ucrt:api-ms-win-crt-stdio-l1-1-0.dll
 0001:0002a59e       _initialize_onexit_table   000000014002b59e f   ucrt:api-ms-win-crt-runtime-l1-1-0.dll
 0001:0002a5a4       _register_onexit_function  000000014002b5a4 f   ucrt:api-ms-win-crt-runtime-l1-1-0.dll
 0001:0002a5aa       _crt_atexit                000000014002b5aa f   ucrt:api-ms-win-crt-runtime-l1-1-0.dll
 0001:0002a5b0       terminate                  000000014002b5b0 f   ucrt:api-ms-win-crt-runtime-l1-1-0.dll
 0001:0002a5d0       _guard_dispatch_icall_nop  000000014002b5d0 f   MSVCRT:guard_dispatch.obj
 0001:0002a5f0       _guard_xfg_dispatch_icall_nop 000000014002b5f0 f   MSVCRT:guard_xfg_dispatch.obj
 0002:00000000       __imp_GetModuleHandleW     000000014002c000     kernel32:KERNEL32.dll
 0002:00000008       __imp_IsDebuggerPresent    000000014002c008     kernel32:KERNEL32.dll
 0002:00000010       __imp_InitializeSListHead  000000014002c010     kernel32:KERNEL32.dll
 0002:00000018       __imp_GetSystemTimeAsFileTime 000000014002c018     kernel32:KERNEL32.dll
 0002:00000020       __imp_IsProcessorFeaturePresent 000000014002c020     kernel32:KERNEL32.dll
 0002:00000028       __imp_TerminateProcess     000000014002c028     kernel32:KERNEL32.dll
 0002:00000030       __imp_GetCurrentProcess    000000014002c030     kernel32:KERNEL32.dll
 0002:00000038       __imp_SetUnhandledExceptionFilter 000000014002c038     kernel32:KERNEL32.dll
 0002:00000040       __imp_UnhandledExceptionFilter 000000014002c040     kernel32:KERNEL32.dll
 0002:00000048       __imp_RtlVirtualUnwind     000000014002c048     kernel32:KERNEL32.dll
 0002:00000050       __imp_RtlLookupFunctionEntry 000000014002c050     kernel32:KERNEL32.dll
 0002:00000058       __imp_RtlCaptureContext    000000014002c058     kernel32:KERNEL32.dll
 0002:00000060       __imp_QueryPerformanceFrequency 000000014002c060     kernel32:KERNEL32.dll
 0002:00000068       __imp_QueryPerformanceCounter 000000014002c068     kernel32:KERNEL32.dll
 0002:00000070       __imp_WriteFile            000000014002c070     kernel32:KERNEL32.dll
 0002:00000078       __imp_SetFilePointer       000000014002c078     kernel32:KERNEL32.dll
 0002:00000080       __imp_CreateFileA          000000014002c080     kernel32:KERNEL32.dll
 0002:00000088       __imp_SystemTimeToFileTime 000000014002c088     kernel32:KERNEL32.dll
 0002:00000090       __imp_FileTimeToSystemTime 000000014002c090     kernel32:KERNEL32.dll
 0002:00000098       __imp_GetLocalTime         000000014002c098     kernel32:KERNEL32.dll
 0002:000000a0       __imp_FormatMessageA       000000014002c0a0     kernel32:KERNEL32.dll
 0002:000000a8       __imp_SetConsoleTextAttribute 000000014002c0a8     kernel32:KERNEL32.dll
 0002:000000b0       __imp_TlsFree              000000014002c0b0     kernel32:KERNEL32.dll
 0002:000000b8       __imp_TlsSetValue          000000014002c0b8     kernel32:KERNEL32.dll
 0002:000000c0       __imp_TlsGetValue          000000014002c0c0     kernel32:KERNEL32.dll
 0002:000000c8       __imp_TlsAlloc             000000014002c0c8     kernel32:KERNEL32.dll
 0002:000000d0       __imp_GetCurrentThreadId   000000014002c0d0     kernel32:KERNEL32.dll
 0002:000000d8       __imp_CreateThread         000000014002c0d8     kernel32:KERNEL32.dll
 0002:000000e0       __imp_GetCurrentProcessId  000000014002c0e0     kernel32:KERNEL32.dll
 0002:000000e8       __imp_Sleep                000000014002c0e8     kernel32:KERNEL32.dll
 0002:000000f0       __imp_WaitForSingleObject  000000014002c0f0     kernel32:KERNEL32.dll
 0002:000000f8       __imp_ReleaseSemaphore     000000014002c0f8     kernel32:KERNEL32.dll
 0002:00000100       __imp_DeleteCriticalSection 000000014002c100     kernel32:KERNEL32.dll
 0002:00000108       __imp_TryEnterCriticalSection 000000014002c108     kernel32:KERNEL32.dll
 0002:00000110       __imp_LeaveCriticalSection 000000014002c110     kernel32:KERNEL32.dll
 0002:00000118       __imp_EnterCriticalSection 000000014002c118     kernel32:KERNEL32.dll
 0002:00000120       __imp_InitializeCriticalSection 000000014002c120     kernel32:KERNEL32.dll
 0002:00000128       __imp_GetLastError         000000014002c128     kernel32:KERNEL32.dll
 0002:00000130       __imp_GetStdHandle         000000014002c130     kernel32:KERNEL32.dll
 0002:00000138       __imp_SetThreadPriority    000000014002c138     kernel32:KERNEL32.dll
 0002:00000140       __imp_GetCurrentThread     000000014002c140     kernel32:KERNEL32.dll
 0002:00000148       __imp_WaitForMultipleObjects 000000014002c148     kernel32:KERNEL32.dll
 0002:00000150       __imp_CreateEventA         000000014002c150     kernel32:KERNEL32.dll
 0002:00000158       __imp_SetEvent             000000014002c158     kernel32:KERNEL32.dll
 0002:00000160       __imp_CloseHandle          000000014002c160     kernel32:KERNEL32.dll
 0002:00000168       \177KERNEL32_NULL_THUNK_DATA 000000014002c168     kernel32:KERNEL32.dll
 0002:00000170       __imp___current_exception  000000014002c170     vcruntime:VCRUNTIME140.dll
 0002:00000178       __imp_memcpy               000000014002c178     vcruntime:VCRUNTIME140.dll
 0002:00000180       __imp_memset               000000014002c180     vcruntime:VCRUNTIME140.dll
 0002:00000188       __imp_memmove              000000014002c188     vcruntime:VCRUNTIME140.dll
 0002:00000190       __imp_strchr               000000014002c190     vcruntime:VCRUNTIME140.dll
 0002:00000198       __imp_memcmp               000000014002c198     vcruntime:VCRUNTIME140.dll
 0002:000001a0       __imp_longjmp              000000014002c1a0     vcruntime:VCRUNTIME140.dll
 0002:000001a8       __imp___C_specific_handler 000000014002c1a8     vcruntime:VCRUNTIME140.dll
 0002:000001b0       __imp___current_exception_context 000000014002c1b0     vcruntime:VCRUNTIME140.dll
 0002:000001b8       \177VCRUNTIME140_NULL_THUNK_DATA 000000014002c1b8     vcruntime:VCRUNTIME140.dll
 0002:000001c0       __imp_waveOutWrite         000000014002c1c0     winmm:WINMM.dll
 0002:000001c8       __imp_waveOutUnprepareHeader 000000014002c1c8     winmm:WINMM.dll
 0002:000001d0       __imp_waveOutPrepareHeader 000000014002c1d0     winmm:WINMM.dll
 0002:000001d8       __imp_waveOutClose         000000014002c1d8     winmm:WINMM.dll
 0002:000001e0       __imp_waveOutOpen          000000014002c1e0     winmm:WINMM.dll
 0002:000001e8       __imp_waveOutRestart       000000014002c1e8     winmm:WINMM.dll
 0002:000001f0       __imp_waveOutGetVolume     000000014002c1f0     winmm:WINMM.dll
 0002:000001f8       __imp_waveOutGetDevCapsA   000000014002c1f8     winmm:WINMM.dll
 0002:00000200       __imp_waveOutGetNumDevs    000000014002c200     winmm:WINMM.dll
 0002:00000208       __imp_waveInGetErrorTextA  000000014002c208     winmm:WINMM.dll
 0002:00000210       __imp_waveOutGetErrorTextA 000000014002c210     winmm:WINMM.dll
 0002:00000218       __imp_waveOutPause         000000014002c218     winmm:WINMM.dll
 0002:00000220       __imp_waveOutReset         000000014002c220     winmm:WINMM.dll
 0002:00000228       __imp_waveInGetNumDevs     000000014002c228     winmm:WINMM.dll
 0002:00000230       __imp_waveInGetDevCapsA    000000014002c230     winmm:WINMM.dll
 0002:00000238       __imp_waveInOpen           000000014002c238     winmm:WINMM.dll
 0002:00000240       __imp_waveInClose          000000014002c240     winmm:WINMM.dll
 0002:00000248       __imp_waveInPrepareHeader  000000014002c248     winmm:WINMM.dll
 0002:00000250       __imp_waveInUnprepareHeader 000000014002c250     winmm:WINMM.dll
 0002:00000258       __imp_waveInAddBuffer      000000014002c258     winmm:WINMM.dll
 0002:00000260       __imp_waveInStart          000000014002c260     winmm:WINMM.dll
 0002:00000268       __imp_waveInReset          000000014002c268     winmm:WINMM.dll
 0002:00000270       __imp_waveInStop           000000014002c270     winmm:WINMM.dll
 0002:00000278       __imp_waveOutSetVolume     000000014002c278     winmm:WINMM.dll
 0002:00000280       \177WINMM_NULL_THUNK_DATA  000000014002c280     winmm:WINMM.dll
 0002:00000288       __imp_send                 000000014002c288     ws2_32:WS2_32.dll
 0002:00000290       __imp_recv                 000000014002c290     ws2_32:WS2_32.dll
 0002:00000298       __imp_ntohs                000000014002c298     ws2_32:WS2_32.dll
 0002:000002a0       __imp_ntohl                000000014002c2a0     ws2_32:WS2_32.dll
 0002:000002a8       __imp_htons                000000014002c2a8     ws2_32:WS2_32.dll
 0002:000002b0       __imp_htonl                000000014002c2b0     ws2_32:WS2_32.dll
 0002:000002b8       __imp_getsockopt           000000014002c2b8     ws2_32:WS2_32.dll
 0002:000002c0       __imp_getsockname          000000014002c2c0     ws2_32:WS2_32.dll
 0002:000002c8       __imp_accept               000000014002c2c8     ws2_32:WS2_32.dll
 0002:000002d0       __imp_WSAGetLastError      000000014002c2d0     ws2_32:WS2_32.dll
 0002:000002d8       __imp_WSACleanup           000000014002c2d8     ws2_32:WS2_32.dll
 0002:000002e0       __imp_WSAStartup           000000014002c2e0     ws2_32:WS2_32.dll
 0002:000002e8       __imp___WSAFDIsSet         000000014002c2e8     ws2_32:WS2_32.dll
 0002:000002f0       __imp_select               000000014002c2f0     ws2_32:WS2_32.dll
 0002:000002f8       __imp_recvfrom             000000014002c2f8     ws2_32:WS2_32.dll
 0002:00000300       __imp_sendto               000000014002c300     ws2_32:WS2_32.dll
 0002:00000308       \177WS2_32_NULL_THUNK_DATA 000000014002c308     ws2_32:WS2_32.dll
 0002:00000310       __imp_free                 000000014002c310     ucrt:api-ms-win-crt-heap-l1-1-0.dll
 0002:00000318       __imp__set_new_mode        000000014002c318     ucrt:api-ms-win-crt-heap-l1-1-0.dll
 0002:00000320       __imp_malloc               000000014002c320     ucrt:api-ms-win-crt-heap-l1-1-0.dll
 0002:00000328       __imp_calloc               000000014002c328     ucrt:api-ms-win-crt-heap-l1-1-0.dll
 0002:00000330       \177api-ms-win-crt-heap-l1-1-0_NULL_THUNK_DATA 000000014002c330     ucrt:api-ms-win-crt-heap-l1-1-0.dll
 0002:00000338       __imp__configthreadlocale  000000014002c338     ucrt:api-ms-win-crt-locale-l1-1-0.dll
 0002:00000340       \177api-ms-win-crt-locale-l1-1-0_NULL_THUNK_DATA 000000014002c340     ucrt:api-ms-win-crt-locale-l1-1-0.dll
 0002:00000348       __imp___setusermatherr     000000014002c348     ucrt:api-ms-win-crt-math-l1-1-0.dll
 0002:00000350       __imp_log                  000000014002c350     ucrt:api-ms-win-crt-math-l1-1-0.dll
 0002:00000358       __imp_sin                  000000014002c358     ucrt:api-ms-win-crt-math-l1-1-0.dll
 0002:00000360       __imp_cos                  000000014002c360     ucrt:api-ms-win-crt-math-l1-1-0.dll
 0002:00000368       __imp_pow                  000000014002c368     ucrt:api-ms-win-crt-math-l1-1-0.dll
 0002:00000370       __imp_sqrt                 000000014002c370     ucrt:api-ms-win-crt-math-l1-1-0.dll
 0002:00000378       __imp_floor                000000014002c378     ucrt:api-ms-win-crt-math-l1-1-0.dll
 0002:00000380       __imp_exp                  000000014002c380     ucrt:api-ms-win-crt-math-l1-1-0.dll
 0002:00000388       __imp_fmod                 000000014002c388     ucrt:api-ms-win-crt-math-l1-1-0.dll
 0002:00000390       __imp_atan                 000000014002c390     ucrt:api-ms-win-crt-math-l1-1-0.dll
 0002:00000398       \177api-ms-win-crt-math-l1-1-0_NULL_THUNK_DATA 000000014002c398     ucrt:api-ms-win-crt-math-l1-1-0.dll
 0002:000003a0       __imp__cexit               000000014002c3a0     ucrt:api-ms-win-crt-runtime-l1-1-0.dll
 0002:000003a8       __imp__register_thread_local_exe_atexit_callback 000000014002c3a8     ucrt:api-ms-win-crt-runtime-l1-1-0.dll
 0002:000003b0       __imp___p___argv           000000014002c3b0     ucrt:api-ms-win-crt-runtime-l1-1-0.dll
 0002:000003b8       __imp__initialize_onexit_table 000000014002c3b8     ucrt:api-ms-win-crt-runtime-l1-1-0.dll
 0002:000003c0       __imp__register_onexit_function 000000014002c3c0     ucrt:api-ms-win-crt-runtime-l1-1-0.dll
 0002:000003c8       __imp__crt_atexit          000000014002c3c8     ucrt:api-ms-win-crt-runtime-l1-1-0.dll
 0002:000003d0       __imp__c_exit              000000014002c3d0     ucrt:api-ms-win-crt-runtime-l1-1-0.dll
 0002:000003d8       __imp___p___argc           000000014002c3d8     ucrt:api-ms-win-crt-runtime-l1-1-0.dll
 0002:000003e0       __imp__exit                000000014002c3e0     ucrt:api-ms-win-crt-runtime-l1-1-0.dll
 0002:000003e8       __imp_exit                 000000014002c3e8     ucrt:api-ms-win-crt-runtime-l1-1-0.dll
 0002:000003f0       __imp__seh_filter_exe      000000014002c3f0     ucrt:api-ms-win-crt-runtime-l1-1-0.dll
 0002:000003f8       __imp__set_app_type        000000014002c3f8     ucrt:api-ms-win-crt-runtime-l1-1-0.dll
 0002:00000400       __imp__initialize_narrow_environment 000000014002c400     ucrt:api-ms-win-crt-runtime-l1-1-0.dll
 0002:00000408       __imp__configure_narrow_argv 000000014002c408     ucrt:api-ms-win-crt-runtime-l1-1-0.dll
 0002:00000410       __imp__initterm_e          000000014002c410     ucrt:api-ms-win-crt-runtime-l1-1-0.dll
 0002:00000418       __imp__get_initial_narrow_environment 000000014002c418     ucrt:api-ms-win-crt-runtime-l1-1-0.dll
 0002:00000420       __imp__initterm            000000014002c420     ucrt:api-ms-win-crt-runtime-l1-1-0.dll
 0002:00000428       __imp_terminate            000000014002c428     ucrt:api-ms-win-crt-runtime-l1-1-0.dll
 0002:00000430       \177api-ms-win-crt-runtime-l1-1-0_NULL_THUNK_DATA 000000014002c430     ucrt:api-ms-win-crt-runtime-l1-1-0.dll
 0002:00000438       __imp_puts                 000000014002c438     ucrt:api-ms-win-crt-stdio-l1-1-0.dll
 0002:00000440       __imp__set_fmode           000000014002c440     ucrt:api-ms-win-crt-stdio-l1-1-0.dll
 0002:00000448       __imp___stdio_common_vsprintf 000000014002c448     ucrt:api-ms-win-crt-stdio-l1-1-0.dll
 0002:00000450       __imp___p__commode         000000014002c450     ucrt:api-ms-win-crt-stdio-l1-1-0.dll
 0002:00000458       __imp___stdio_common_vfprintf 000000014002c458     ucrt:api-ms-win-crt-stdio-l1-1-0.dll
 0002:00000460       __imp_fgets                000000014002c460     ucrt:api-ms-win-crt-stdio-l1-1-0.dll
 0002:00000468       __imp___acrt_iob_func      000000014002c468     ucrt:api-ms-win-crt-stdio-l1-1-0.dll
 0002:00000470       \177api-ms-win-crt-stdio-l1-1-0_NULL_THUNK_DATA 000000014002c470     ucrt:api-ms-win-crt-stdio-l1-1-0.dll
 0002:00000478       __imp__strnicmp            000000014002c478     ucrt:api-ms-win-crt-string-l1-1-0.dll
 0002:00000480       __imp_isxdigit             000000014002c480     ucrt:api-ms-win-crt-string-l1-1-0.dll
 0002:00000488       __imp_isdigit              000000014002c488     ucrt:api-ms-win-crt-string-l1-1-0.dll
 0002:00000490       __imp_strncpy              000000014002c490     ucrt:api-ms-win-crt-string-l1-1-0.dll
 0002:00000498       \177api-ms-win-crt-string-l1-1-0_NULL_THUNK_DATA 000000014002c498     ucrt:api-ms-win-crt-string-l1-1-0.dll
 0002:000004a0       __imp_rand                 000000014002c4a0     ucrt:api-ms-win-crt-utility-l1-1-0.dll
 0002:000004a8       \177api-ms-win-crt-utility-l1-1-0_NULL_THUNK_DATA 000000014002c4a8     ucrt:api-ms-win-crt-utility-l1-1-0.dll
 0002:000004b0       __imp_CoCreateGuid         000000014002c4b0     ole32:ole32.dll
 0002:000004b8       \177ole32_NULL_THUNK_DATA  000000014002c4b8     ole32:ole32.dll
 0002:000004c0       __guard_check_icall_fptr   000000014002c4c0     MSVCRT:guard_support.obj
 0002:000004c8       __guard_xfg_check_icall_fptr 000000014002c4c8     MSVCRT:guard_support.obj
 0002:000004d0       __guard_dispatch_icall_fptr 000000014002c4d0     MSVCRT:guard_support.obj
 0002:000004d8       __guard_xfg_dispatch_icall_fptr 000000014002c4d8     MSVCRT:guard_support.obj
 0002:000004e0       __guard_xfg_table_dispatch_icall_fptr 000000014002c4e0     MSVCRT:guard_support.obj
 0002:000004e8       __xc_a                     000000014002c4e8     MSVCRT:initializers.obj
 0002:000004f8       __xc_z                     000000014002c4f8     MSVCRT:initializers.obj
 0002:00000500       __xi_a                     000000014002c500     MSVCRT:initializers.obj
 0002:00000518       __xi_z                     000000014002c518     MSVCRT:initializers.obj
 0002:00000520       __xp_a                     000000014002c520     MSVCRT:initializers.obj
 0002:00000528       __xp_z                     000000014002c528     MSVCRT:initializers.obj
 0002:00000530       __xt_a                     000000014002c530     MSVCRT:initializers.obj
 0002:00000538       __xt_z                     000000014002c538     MSVCRT:initializers.obj
 0002:00000600       ??_C@_0DC@MHBBCDGM@Unspecified?5audio?5device?5error?5@ 000000014002c600     pjmedia-audiodev-x86_64-x64-vc14-release:errno.obj
 0002:00000638       ??_C@_0DG@FEDKLOFB@Unknown?5error?5from?5audio?5driver@ 000000014002c638     pjmedia-audiodev-x86_64-x64-vc14-release:errno.obj
 0002:00000670       ??_C@_0DE@DOHCBKFK@Audio?5subsystem?5not?5initialized@ 000000014002c670     pjmedia-audiodev-x86_64-x64-vc14-release:errno.obj
 0002:000006a8       ??_C@_0CL@NCBJPCNF@Invalid?5audio?5device?5?$CIPJMEDIA_E@ 000000014002c6a8     pjmedia-audiodev-x86_64-x64-vc14-release:errno.obj
 0002:000006d8       ??_C@_0CM@LOPLLMHO@Found?5no?5audio?5devices?5?$CIPJMEDIA@ 000000014002c6d8     pjmedia-audiodev-x86_64-x64-vc14-release:errno.obj
 0002:00000708       ??_C@_0DM@DPDKGMIE@Unable?5to?5find?5default?5audio?5de@ 000000014002c708     pjmedia-audiodev-x86_64-x64-vc14-release:errno.obj
 0002:00000748       ??_C@_0CP@JIPJOIMB@Audio?5device?5not?5ready?5?$CIPJMEDIA@ 000000014002c748     pjmedia-audiodev-x86_64-x64-vc14-release:errno.obj
 0002:00000778       ??_C@_0DO@NMIGLFFA@Invalid?5or?5unsupported?5audio?5ca@ 000000014002c778     pjmedia-audiodev-x86_64-x64-vc14-release:errno.obj
 0002:000007c0       ??_C@_0ED@PLJALPOA@Invalid?5or?5unsupported?5audio?5de@ 000000014002c7c0     pjmedia-audiodev-x86_64-x64-vc14-release:errno.obj
 0002:00000808       ??_C@_0DM@JKDJGBNG@Bad?5or?5invalid?5audio?5device?5for@ 000000014002c808     pjmedia-audiodev-x86_64-x64-vc14-release:errno.obj
 0002:00000848       ??_C@_0DN@BLAJILEA@Invalid?5audio?5device?5sample?5for@ 000000014002c848     pjmedia-audiodev-x86_64-x64-vc14-release:errno.obj
 0002:00000888       ??_C@_0DE@LJJGJIEF@Bad?5audio?5latency?5setting?5?$CIPJME@ 000000014002c888     pjmedia-audiodev-x86_64-x64-vc14-release:errno.obj
 0002:000008c0       ??_C@_0BJ@GMHLEOAL@MMSYSTEM?5native?5error?5?$CFd@ 000000014002c8c0     pjmedia-audiodev-x86_64-x64-vc14-release:errno.obj
 0002:000008e0       ??_C@_0CC@MFOJNIAN@Unknown?5pjmedia?9audiodev?5error?5@ 000000014002c8e0     pjmedia-audiodev-x86_64-x64-vc14-release:errno.obj
 0002:00000908       ??_C@_0M@KBHHDDLP@Wave?5mapper@ 000000014002c908     pjmedia-audiodev-x86_64-x64-vc14-release:wmme_dev.obj
 0002:00000914       ??_C@_04CPNMDOAK@WMME@     000000014002c914     pjmedia-audiodev-x86_64-x64-vc14-release:wmme_dev.obj
 0002:00000920       ??_C@_0BB@EOKKHGLD@WMME?5initialized@ 000000014002c920     pjmedia-audiodev-x86_64-x64-vc14-release:wmme_dev.obj
 0002:00000938       ??_C@_0L@HHCCMOGO@wmme_dev?4c@ 000000014002c938     pjmedia-audiodev-x86_64-x64-vc14-release:wmme_dev.obj
 0002:00000948       ??_C@_0BM@OMJMEAMB@WMME?5found?5no?5sound?5devices@ 000000014002c948     pjmedia-audiodev-x86_64-x64-vc14-release:wmme_dev.obj
 0002:00000964       ??_C@_11LOCGONAA@@         000000014002c964     pjmedia-audiodev-x86_64-x64-vc14-release:wmme_dev.obj
 0002:00000968       ??_C@_0BH@GEMAAOCL@WMME?5found?5?$CFd?5devices?3@ 000000014002c968     pjmedia-audiodev-x86_64-x64-vc14-release:wmme_dev.obj
 0002:00000980       ??_C@_0CA@NLJGEGOG@?5dev_id?5?$CFd?3?5?$CFs?5?5?$CIin?$DN?$CFd?0?5out?$DN?$CFd?$CJ@ 000000014002c980     pjmedia-audiodev-x86_64-x64-vc14-release:wmme_dev.obj
 0002:000009a0       ??_C@_03CCLNCNJA@PCM@      000000014002c9a0     pjmedia-audiodev-x86_64-x64-vc14-release:wmme_dev.obj
 0002:000009b0       ??_C@_0HB@MKIBCFPJ@?5WaveAPI?5Sound?5player?5?$CC?$CFs?$CC?5init@ 000000014002c9b0     pjmedia-audiodev-x86_64-x64-vc14-release:wmme_dev.obj
 0002:00000a30       ??_C@_0HD@PIICIPL@?5WaveAPI?5Sound?5recorder?5?$CC?$CFs?$CC?5in@ 000000014002ca30     pjmedia-audiodev-x86_64-x64-vc14-release:wmme_dev.obj
 0002:00000aa8       ??_C@_0CJ@BMOAEONK@Failed?5to?5write?5audio?5frame?5for@ 000000014002caa8     pjmedia-audiodev-x86_64-x64-vc14-release:wmme_dev.obj
 0002:00000ad8       ??_C@_0BP@EAOBDJJO@Failed?5to?5add?5recording?5buffer@ 000000014002cad8     pjmedia-audiodev-x86_64-x64-vc14-release:wmme_dev.obj
 0002:00000af8       ??_C@_0BI@BEJPJEBJ@WMME?3?5thread?5stopping?4?4@ 000000014002caf8     pjmedia-audiodev-x86_64-x64-vc14-release:wmme_dev.obj
 0002:00000b10       ??_C@_0CB@JKFANBEJ@WMME?5thread?5stopped?5due?5to?5erro@ 000000014002cb10     pjmedia-audiodev-x86_64-x64-vc14-release:wmme_dev.obj
 0002:00000b38       ??_C@_08MOOOBPLB@wmme?9dev@ 000000014002cb38     pjmedia-audiodev-x86_64-x64-vc14-release:wmme_dev.obj
 0002:00000b44       ??_C@_04ODOGNMHC@wmme@     000000014002cb44     pjmedia-audiodev-x86_64-x64-vc14-release:wmme_dev.obj
 0002:00000b50       ??_C@_0BN@MNACKNIN@WMME?5playback?5stream?5started@ 000000014002cb50     pjmedia-audiodev-x86_64-x64-vc14-release:wmme_dev.obj
 0002:00000b70       ??_C@_0BM@NKDLICNM@WMME?5capture?5stream?5started@ 000000014002cb70     pjmedia-audiodev-x86_64-x64-vc14-release:wmme_dev.obj
 0002:00000b90       ??_C@_0BN@FMJNHCPG@Stopped?5WMME?5playback?5stream@ 000000014002cb90     pjmedia-audiodev-x86_64-x64-vc14-release:wmme_dev.obj
 0002:00000bb0       ??_C@_0BM@KCHDOGNE@Stopped?5WMME?5capture?5stream@ 000000014002cbb0     pjmedia-audiodev-x86_64-x64-vc14-release:wmme_dev.obj
 0002:00000bd0       ??_C@_09OFDCJLJM@WMME?5base@ 000000014002cbd0     pjmedia-audiodev-x86_64-x64-vc14-release:wmme_dev.obj
 0002:00000c40       ??_C@_07OEHJJJKF@RTP?1AVP@ 000000014002cc40     pjmedia-x86_64-x64-vc14-release:endpoint.obj
 0002:00000c48       ??_C@_02BBAPPCCJ@IN@       000000014002cc48     pjmedia-x86_64-x64-vc14-release:endpoint.obj
 0002:00000c4c       ??_C@_03OPDBOKBD@IP4@      000000014002cc4c     pjmedia-x86_64-x64-vc14-release:endpoint.obj
 0002:00000c50       ??_C@_03NNAHIIJB@IP6@      000000014002cc50     pjmedia-x86_64-x64-vc14-release:endpoint.obj
 0002:00000c58       ??_C@_07HDFHIMAJ@pjmedia@  000000014002cc58     pjmedia-x86_64-x64-vc14-release:endpoint.obj
 0002:00000c60       ??_C@_08LMCBNPPN@sendrecv@ 000000014002cc60     pjmedia-x86_64-x64-vc14-release:endpoint.obj
 0002:00000c70       ??_C@_07LBNDIDNE@med?9ept@ 000000014002cc70     pjmedia-x86_64-x64-vc14-release:endpoint.obj
 0002:00000c80       ??_C@_0EL@BIFHLACC@Warning?3?5no?5worker?5thread?5is?5cr@ 000000014002cc80     pjmedia-x86_64-x64-vc14-release:endpoint.obj
 0002:00000cd0       ??_C@_0L@DLFDMOGF@endpoint?4c@ 000000014002ccd0     pjmedia-x86_64-x64-vc14-release:endpoint.obj
 0002:00000cdc       ??_C@_05CECBHAPI@media@    000000014002ccdc     pjmedia-x86_64-x64-vc14-release:endpoint.obj
 0002:00000ce2       ??_C@_00CNPNBAHC@@         000000014002cce2     pjmedia-x86_64-x64-vc14-release:endpoint.obj
 0002:00000ce4       ??_C@_01CLKCMJKC@?5@       000000014002cce4     pjmedia-x86_64-x64-vc14-release:endpoint.obj
 0002:00000ce8       ??_C@_0N@COEOBFOD@EC?5activated@ 000000014002cce8     pjmedia-x86_64-x64-vc14-release:sound_port.obj
 0002:00000cf8       ??_C@_0N@GOCHBLLA@sound_port?4c@ 000000014002ccf8     pjmedia-x86_64-x64-vc14-release:sound_port.obj
 0002:00000d08       ??_C@_0CD@IGHBIGGN@EC?5suspended?5because?5of?5inactiv@ 000000014002cd08     pjmedia-x86_64-x64-vc14-release:sound_port.obj
 0002:00000d30       ??_C@_0CB@KICGINBD@AEC?5tail?5is?5set?5to?5default?5?$CFu?5m@ 000000014002cd30     pjmedia-x86_64-x64-vc14-release:sound_port.obj
 0002:00000d58       ??_C@_0DJ@PNINHBGM@pjmedia_snd_port_set_ec?$CI?$CJ?5ignor@ 000000014002cd58     pjmedia-x86_64-x64-vc14-release:sound_port.obj
 0002:00000d98       ??_C@_0DB@KDEIEFDK@Echo?5canceller?5is?5now?5disabled?5@ 000000014002cd98     pjmedia-x86_64-x64-vc14-release:sound_port.obj
 0002:00000dd0       ??_C@_0DH@EDIEAILI@File?5writer?5?8?$CF?4?$CKs?8?5created?3?5sam@ 000000014002cdd0     pjmedia-x86_64-x64-vc14-release:wav_writer.obj
 0002:00000e08       ??_C@_0N@MCLOBLAH@wav_writer?4c@ 000000014002ce08     pjmedia-x86_64-x64-vc14-release:wav_writer.obj
 0002:00000e18       ??_C@_07GBKCPIDJ@ext?9fmt@ 000000014002ce18     pjmedia-x86_64-x64-vc14-release:audiodev.obj
 0002:00000e20       ??_C@_0BI@GGHCECPI@Extended?1non?9PCM?5format@ 000000014002ce20     pjmedia-x86_64-x64-vc14-release:audiodev.obj
 0002:00000e38       ??_C@_0L@IKNMBADD@latency?9in@ 000000014002ce38     pjmedia-x86_64-x64-vc14-release:audiodev.obj
 0002:00000e48       ??_C@_0CC@LIGOHOJN@Input?5latency?1buffer?5size?5setti@ 000000014002ce48     pjmedia-x86_64-x64-vc14-release:audiodev.obj
 0002:00000e70       ??_C@_0M@MBBBBCLJ@latency?9out@ 000000014002ce70     pjmedia-x86_64-x64-vc14-release:audiodev.obj
 0002:00000e80       ??_C@_0CD@GAINMBC@Output?5latency?1buffer?5size?5sett@ 000000014002ce80     pjmedia-x86_64-x64-vc14-release:audiodev.obj
 0002:00000ea4       ??_C@_06KGGLCDDG@vol?9in@  000000014002cea4     pjmedia-x86_64-x64-vc14-release:audiodev.obj
 0002:00000eb0       ??_C@_0BF@CCEKOJAN@Input?5volume?5setting@ 000000014002ceb0     pjmedia-x86_64-x64-vc14-release:audiodev.obj
 0002:00000ec8       ??_C@_07LBFHFBAF@vol?9out@ 000000014002cec8     pjmedia-x86_64-x64-vc14-release:audiodev.obj
 0002:00000ed0       ??_C@_0BG@IBEHJHAD@Output?5volume?5setting@ 000000014002ced0     pjmedia-x86_64-x64-vc14-release:audiodev.obj
 0002:00000ee8       ??_C@_08BPNDLGG@meter?9in@ 000000014002cee8     pjmedia-x86_64-x64-vc14-release:audiodev.obj
 0002:00000ef8       ??_C@_0M@NCGIGNPG@Input?5meter@ 000000014002cef8     pjmedia-x86_64-x64-vc14-release:audiodev.obj
 0002:00000f08       ??_C@_09NKJLJGOJ@meter?9out@ 000000014002cf08     pjmedia-x86_64-x64-vc14-release:audiodev.obj
 0002:00000f18       ??_C@_0N@GBEOEOEP@Output?5meter@ 000000014002cf18     pjmedia-x86_64-x64-vc14-release:audiodev.obj
 0002:00000f28       ??_C@_08FPHJDLBG@route?9in@ 000000014002cf28     pjmedia-x86_64-x64-vc14-release:audiodev.obj
 0002:00000f38       ??_C@_0O@JDPFDDM@Input?5routing@ 000000014002cf38     pjmedia-x86_64-x64-vc14-release:audiodev.obj
 0002:00000f48       ??_C@_09IKMAGDNF@route?9out@ 000000014002cf48     pjmedia-x86_64-x64-vc14-release:audiodev.obj
 0002:00000f58       ??_C@_0P@JOFPIEJJ@Output?5routing@ 000000014002cf58     pjmedia-x86_64-x64-vc14-release:audiodev.obj
 0002:00000f68       ??_C@_03FNONIBCK@aec@      000000014002cf68     pjmedia-x86_64-x64-vc14-release:audiodev.obj
 0002:00000f70       ??_C@_0BM@HPDLGLFJ@Accoustic?5echo?5cancellation@ 000000014002cf70     pjmedia-x86_64-x64-vc14-release:audiodev.obj
 0002:00000f90       ??_C@_08MKAPJCJE@aec?9tail@ 000000014002cf90     pjmedia-x86_64-x64-vc14-release:audiodev.obj
 0002:00000fa0       ??_C@_0BM@PBLLADJD@Tail?5length?5setting?5for?5AEC@ 000000014002cfa0     pjmedia-x86_64-x64-vc14-release:audiodev.obj
 0002:00000fbc       ??_C@_03NIGLNABH@vad@      000000014002cfbc     pjmedia-x86_64-x64-vc14-release:audiodev.obj
 0002:00000fc0       ??_C@_0BJ@PEELNNPF@Voice?5activity?5detection@ 000000014002cfc0     pjmedia-x86_64-x64-vc14-release:audiodev.obj
 0002:00000fdc       ??_C@_03JPNNGDEE@cng@      000000014002cfdc     pjmedia-x86_64-x64-vc14-release:audiodev.obj
 0002:00000fe0       ??_C@_0BJ@MNDOFJGN@Comfort?5noise?5generation@ 000000014002cfe0     pjmedia-x86_64-x64-vc14-release:audiodev.obj
 0002:00000ffc       ??_C@_03NOPFEPFL@plg@      000000014002cffc     pjmedia-x86_64-x64-vc14-release:audiodev.obj
 0002:00001000       ??_C@_0BI@OMEMKBHH@Packet?5loss?5concealment@ 000000014002d000     pjmedia-x86_64-x64-vc14-release:audiodev.obj
 0002:00001020       ??_C@_0EF@NLCNMHAD@?$CFd?5device?$CIs?$CJ?5cannot?5be?5register@ 000000014002d020     pjmedia-x86_64-x64-vc14-release:audiodev.obj
 0002:00001068       ??_C@_0L@FGHHAHLM@audiodev?4c@ 000000014002d068     pjmedia-x86_64-x64-vc14-release:audiodev.obj
 0002:00001078       ??_C@_0DH@LLDEKPNG@Lost?5event?5?$CFs?5from?5publisher?5?$FL0@ 000000014002d078     pjmedia-x86_64-x64-vc14-release:event.obj
 0002:000010b0       ??_C@_07GLALFINI@event?4c@ 000000014002d0b0     pjmedia-x86_64-x64-vc14-release:event.obj
 0002:000010b8       ??_C@_01KMDKNFGN@?1@       000000014002d0b8     pjmedia-x86_64-x64-vc14-release:sdp.obj
 0002:000010bc       ??_C@_03GOLBDMPC@RTP@      000000014002d0bc     pjmedia-x86_64-x64-vc14-release:sdp.obj
 0002:000010c0       ??_C@_03CPJJBAON@AVP@      000000014002d0c0     pjmedia-x86_64-x64-vc14-release:sdp.obj
 0002:000010c4       ??_C@_04LHEMINPH@SAVP@     000000014002d0c4     pjmedia-x86_64-x64-vc14-release:sdp.obj
 0002:000010cc       ??_C@_04HILHOPFG@AVPF@     000000014002d0cc     pjmedia-x86_64-x64-vc14-release:sdp.obj
 0002:000010d4       ??_C@_05IFENMDLB@SAVPF@    000000014002d0d4     pjmedia-x86_64-x64-vc14-release:sdp.obj
 0002:000010dc       ??_C@_03OPEAKHDL@UDP@      000000014002d0dc     pjmedia-x86_64-x64-vc14-release:sdp.obj
 0002:000010e0       ??_C@_0N@IFKNLCBO@TLS?1RTP?1SAVP@ 000000014002d0e0     pjmedia-x86_64-x64-vc14-release:sdp.obj
 0002:000010f0       ??_C@_0O@FMKJHIFC@TLS?1RTP?1SAVPF@ 000000014002d0f0     pjmedia-x86_64-x64-vc14-release:sdp.obj
 0002:00001100       ??_C@_09GLMNEMC@codec?9mgr@ 000000014002d100     pjmedia-x86_64-x64-vc14-release:codec.obj
 0002:000017b0       ??_C@_0CK@HBHLALIF@Unspecified?5PJMEDIA?5error?5?$CIPJME@ 000000014002d7b0     pjmedia-x86_64-x64-vc14-release:errno.obj
 0002:000017e0       ??_C@_0CM@KFAONKNJ@Invalid?5SDP?5descriptor?5?$CIPJMEDIA@ 000000014002d7e0     pjmedia-x86_64-x64-vc14-release:errno.obj
 0002:00001810       ??_C@_0CO@ONPCFICA@Invalid?5SDP?5version?5line?5?$CIPJMED@ 000000014002d810     pjmedia-x86_64-x64-vc14-release:errno.obj
 0002:00001840       ??_C@_0DA@DIKNJOEJ@Invalid?5SDP?5origin?5line?5?$CIPJMEDI@ 000000014002d840     pjmedia-x86_64-x64-vc14-release:errno.obj
 0002:00001870       ??_C@_0CM@DLEAGODI@Invalid?5SDP?5time?5line?5?$CIPJMEDIA_@ 000000014002d870     pjmedia-x86_64-x64-vc14-release:errno.obj
 0002:000018a0       ??_C@_0DF@HNDCDPJF@SDP?5name?1subject?5line?5is?5empty?5@ 000000014002d8a0     pjmedia-x86_64-x64-vc14-release:errno.obj
 0002:000018d8       ??_C@_0DC@KNNPDHKA@Invalid?5SDP?5connection?5line?5?$CIPJ@ 000000014002d8d8     pjmedia-x86_64-x64-vc14-release:errno.obj
 0002:00001910       ??_C@_0DM@NEDHCJGL@Missing?5SDP?5connection?5info?5lin@ 000000014002d910     pjmedia-x86_64-x64-vc14-release:errno.obj
 0002:00001950       ??_C@_0CN@JHLMEODJ@Invalid?5SDP?5attributes?5?$CIPJMEDIA@ 000000014002d950     pjmedia-x86_64-x64-vc14-release:errno.obj
 0002:00001980       ??_C@_0DF@BJAALDOM@Invalid?5SDP?5rtpmap?5attribute?5?$CIP@ 000000014002d980     pjmedia-x86_64-x64-vc14-release:errno.obj
 0002:000019b8       ??_C@_0DL@HCOGNPAF@SDP?5rtpmap?5attribute?5too?5long?5?$CI@ 000000014002d9b8     pjmedia-x86_64-x64-vc14-release:errno.obj
 0002:00001a00       ??_C@_0EJ@IDNJACOO@Missing?5SDP?5rtpmap?5for?5dynamic?5@ 000000014002da00     pjmedia-x86_64-x64-vc14-release:errno.obj
 0002:00001a50       ??_C@_0CO@DIKFNJOF@Invalid?5SDP?5media?5line?5?$CIPJMEDIA@ 000000014002da50     pjmedia-x86_64-x64-vc14-release:errno.obj
 0002:00001a80       ??_C@_0DN@GADAENKO@No?5SDP?5payload?5format?5in?5the?5me@ 000000014002da80     pjmedia-x86_64-x64-vc14-release:errno.obj
 0002:00001ac0       ??_C@_0DL@KAILPDC@Invalid?5SDP?5payload?5type?5in?5med@ 000000014002dac0     pjmedia-x86_64-x64-vc14-release:errno.obj
 0002:00001b00       ??_C@_0DB@BJCACDID@Invalid?5SDP?5fmtp?5attribute?5?$CIPJM@ 000000014002db00     pjmedia-x86_64-x64-vc14-release:errno.obj
 0002:00001b38       ??_C@_0DB@GFBENNMO@Invalid?5SDP?5rtcp?5attribute?5?$CIPJM@ 000000014002db38     pjmedia-x86_64-x64-vc14-release:errno.obj
 0002:00001b70       ??_C@_0DM@JFGCNJLM@Invalid?5SDP?5media?5transport?5pro@ 000000014002db70     pjmedia-x86_64-x64-vc14-release:errno.obj
 0002:00001bb0       ??_C@_0DH@PCNCDMKM@Invalid?5SDP?5bandwidth?5info?5line@ 000000014002dbb0     pjmedia-x86_64-x64-vc14-release:errno.obj
 0002:00001be8       ??_C@_0DB@POLJHCKE@Invalid?5SDP?5ssrc?5attribute?5?$CIPJM@ 000000014002dbe8     pjmedia-x86_64-x64-vc14-release:errno.obj
 0002:00001c20       ??_C@_0EF@CJNFLCEL@Invalid?5SDP?5negotiator?5state?5fo@ 000000014002dc20     pjmedia-x86_64-x64-vc14-release:errno.obj
 0002:00001c70       ??_C@_0ED@IFOJJHNO@No?5initial?5local?5SDP?5in?5SDP?5neg@ 000000014002dc70     pjmedia-x86_64-x64-vc14-release:errno.obj
 0002:00001cb8       ??_C@_0DL@MFMHOMBE@No?5active?5SDP?5in?5SDP?5negotiator@ 000000014002dcb8     pjmedia-x86_64-x64-vc14-release:errno.obj
 0002:00001cf8       ??_C@_0DN@JGPGLEOH@No?5current?5local?1remote?5offer?1a@ 000000014002dcf8     pjmedia-x86_64-x64-vc14-release:errno.obj
 0002:00001d40       ??_C@_0EE@BLNHOMNC@SDP?5media?5count?5mismatch?5in?5off@ 000000014002dd40     pjmedia-x86_64-x64-vc14-release:errno.obj
 0002:00001d90       ??_C@_0EG@MJOIPNIH@SDP?5media?5type?5mismatch?5in?5offe@ 000000014002dd90     pjmedia-x86_64-x64-vc14-release:errno.obj
 0002:00001de0       ??_C@_0EN@OPFCIOMP@SDP?5media?5transport?5type?5mismat@ 000000014002dde0     pjmedia-x86_64-x64-vc14-release:errno.obj
 0002:00001e30       ??_C@_0ED@NGHPALDD@No?5common?5SDP?5media?5payload?5in?5@ 000000014002de30     pjmedia-x86_64-x64-vc14-release:errno.obj
 0002:00001e80       ??_C@_0ED@HELGJJGO@No?5active?5media?5stream?5after?5ne@ 000000014002de80     pjmedia-x86_64-x64-vc14-release:errno.obj
 0002:00001ec8       ??_C@_0DP@KIMEPBPF@No?5suitable?5codec?5for?5remote?5of@ 000000014002dec8     pjmedia-x86_64-x64-vc14-release:errno.obj
 0002:00001f10       ??_C@_0EM@LLMPLGCO@No?5suitable?5telephone?9event?5for@ 000000014002df10     pjmedia-x86_64-x64-vc14-release:errno.obj
 0002:00001f60       ??_C@_0EK@LPNBCGHG@No?5suitable?5answer?5for?5unknown?5@ 000000014002df60     pjmedia-x86_64-x64-vc14-release:errno.obj
 0002:00001fb0       ??_C@_0DM@JMBBJEKO@SDP?5media?5descriptor?5not?5equal?5@ 000000014002dfb0     pjmedia-x86_64-x64-vc14-release:errno.obj
 0002:00001ff0       ??_C@_0ED@KAALGBMF@Port?5in?5SDP?5media?5descriptor?5no@ 000000014002dff0     pjmedia-x86_64-x64-vc14-release:errno.obj
 0002:00002040       ??_C@_0EJ@FJOJLJDF@Transport?5in?5SDP?5media?5descript@ 000000014002e040     pjmedia-x86_64-x64-vc14-release:errno.obj
 0002:00002090       ??_C@_0EH@FMIFCFBA@Format?5in?5SDP?5media?5descriptor?5@ 000000014002e090     pjmedia-x86_64-x64-vc14-release:errno.obj
 0002:000020d8       ??_C@_0DK@MAHAOAHF@SDP?5connection?5line?5not?5equal?5?$CI@ 000000014002e0d8     pjmedia-x86_64-x64-vc14-release:errno.obj
 0002:00002118       ??_C@_0DF@HHCJAGLJ@SDP?5attributes?5not?5equal?5?$CIPJMED@ 000000014002e118     pjmedia-x86_64-x64-vc14-release:errno.obj
 0002:00002150       ??_C@_0DJ@GGABIHGL@SDP?5media?5direction?5not?5equal?5?$CI@ 000000014002e150     pjmedia-x86_64-x64-vc14-release:errno.obj
 0002:00002190       ??_C@_0DJ@FFGHKCEG@SDP?5fmtp?5attribute?5not?5equal?5?$CIP@ 000000014002e190     pjmedia-x86_64-x64-vc14-release:errno.obj
 0002:000021d0       ??_C@_0DN@HLKACHFN@SDP?5rtpmap?5attribute?5not?5equal?5@ 000000014002e1d0     pjmedia-x86_64-x64-vc14-release:errno.obj
 0002:00002210       ??_C@_0DN@EALGPLFN@SDP?5session?5descriptor?5not?5equa@ 000000014002e210     pjmedia-x86_64-x64-vc14-release:errno.obj
 0002:00002250       ??_C@_0DI@BLKBMMGO@SDP?5origin?5line?5not?5equal?5?$CIPJME@ 000000014002e250     pjmedia-x86_64-x64-vc14-release:errno.obj
 0002:00002288       ??_C@_0DM@HCOBINN@SDP?5name?1subject?5line?5not?5equal@ 000000014002e288     pjmedia-x86_64-x64-vc14-release:errno.obj
 0002:000022c8       ??_C@_0DE@PFJJJNGL@SDP?5time?5line?5not?5equal?5?$CIPJMEDI@ 000000014002e2c8     pjmedia-x86_64-x64-vc14-release:errno.obj
 0002:00002300       ??_C@_0CP@ODMIIAEN@Unsupported?5media?5codec?5?$CIPJMEDI@ 000000014002e300     pjmedia-x86_64-x64-vc14-release:errno.obj
 0002:00002330       ??_C@_0DG@KJBEJCIE@Codec?5internal?5creation?5error?5?$CI@ 000000014002e330     pjmedia-x86_64-x64-vc14-release:errno.obj
 0002:00002368       ??_C@_0DG@FOGENKNL@Codec?5frame?5is?5too?5short?5?$CIPJMED@ 000000014002e368     pjmedia-x86_64-x64-vc14-release:errno.obj
 0002:000023a0       ??_C@_0DE@OLKJHMCL@PCM?5frame?5is?5too?5short?5?$CIPJMEDIA@ 000000014002e3a0     pjmedia-x86_64-x64-vc14-release:errno.obj
 0002:000023d8       ??_C@_0DF@JDAOLAOM@Invalid?5codec?5frame?5length?5?$CIPJM@ 000000014002e3d8     pjmedia-x86_64-x64-vc14-release:errno.obj
 0002:00002410       ??_C@_0DG@LLBBCNCG@Invalid?5PCM?5frame?5length?5?$CIPJMED@ 000000014002e410     pjmedia-x86_64-x64-vc14-release:errno.obj
 0002:00002448       ??_C@_0DG@EKMGLMFL@Invalid?5codec?5mode?5?$CIno?5fmtp?$DP?$CJ?5?$CI@ 000000014002e448     pjmedia-x86_64-x64-vc14-release:errno.obj
 0002:00002480       ??_C@_0DJ@NJFBGAOC@Bad?5or?5corrupted?5bitstream?5?$CIPJM@ 000000014002e480     pjmedia-x86_64-x64-vc14-release:errno.obj
 0002:000024c0       ??_C@_0DH@KOBKDDJI@Invalid?5remote?5media?5?$CIIP?$CJ?5addre@ 000000014002e4c0     pjmedia-x86_64-x64-vc14-release:errno.obj
 0002:000024f8       ??_C@_0DM@GBJMMNCF@Asymetric?5media?5codec?5is?5not?5su@ 000000014002e4f8     pjmedia-x86_64-x64-vc14-release:errno.obj
 0002:00002538       ??_C@_0DA@DKJJFGPE@Invalid?5media?5payload?5type?5?$CIPJM@ 000000014002e538     pjmedia-x86_64-x64-vc14-release:errno.obj
 0002:00002568       ??_C@_0DN@IGGOEBDI@Missing?5rtpmap?5in?5media?5descrip@ 000000014002e568     pjmedia-x86_64-x64-vc14-release:errno.obj
 0002:000025a8       ??_C@_0CO@MJBLNMMI@Invalid?5media?5type?5?$CIPJMEDIA_EIN@ 000000014002e5a8     pjmedia-x86_64-x64-vc14-release:errno.obj
 0002:000025d8       ??_C@_0DF@NNKPPHHC@Remote?5does?5not?5support?5DTMF?5?$CIP@ 000000014002e5d8     pjmedia-x86_64-x64-vc14-release:errno.obj
 0002:00002610       ??_C@_0CJ@ECIKMCPH@Invalid?5DTMF?5digit?5?$CIPJMEDIA_RTP@ 000000014002e610     pjmedia-x86_64-x64-vc14-release:errno.obj
 0002:00002640       ??_C@_0DN@EHCPFJJN@Remote?5does?5not?5support?5RFC?5283@ 000000014002e640     pjmedia-x86_64-x64-vc14-release:errno.obj
 0002:00002680       ??_C@_0BN@LMCOIKH@Bad?5format?5?$CIPJMEDIA_EBADFMT?$CJ@ 000000014002e680     pjmedia-x86_64-x64-vc14-release:errno.obj
 0002:000026a0       ??_C@_0DB@GBKLBGPK@Unsupported?5media?5type?5?$CIPJMEDIA@ 000000014002e6a0     pjmedia-x86_64-x64-vc14-release:errno.obj
 0002:000026d8       ??_C@_0CI@KDAMKHEL@Invalid?5RTP?5packet?5?$CIPJMEDIA_RTP@ 000000014002e6d8     pjmedia-x86_64-x64-vc14-release:errno.obj
 0002:00002700       ??_C@_0DL@KLDJIJLI@Invalid?5RTP?5packing?5?$CIinternal?5e@ 000000014002e700     pjmedia-x86_64-x64-vc14-release:errno.obj
 0002:00002740       ??_C@_0CJ@NGKNCMFA@Invalid?5RTP?5version?5?$CIPJMEDIA_RT@ 000000014002e740     pjmedia-x86_64-x64-vc14-release:errno.obj
 0002:00002770       ??_C@_0DC@PFPAEINL@RTP?5packet?5SSRC?5id?5mismatch?5?$CIPJ@ 000000014002e770     pjmedia-x86_64-x64-vc14-release:errno.obj
 0002:000027a8       ??_C@_0DF@KDOADJLK@RTP?5packet?5payload?5type?5mismatc@ 000000014002e7a8     pjmedia-x86_64-x64-vc14-release:errno.obj
 0002:000027e0       ??_C@_0CP@OBFABIAL@Invalid?5RTP?5packet?5length?5?$CIPJME@ 000000014002e7e0     pjmedia-x86_64-x64-vc14-release:errno.obj
 0002:00002810       ??_C@_0DB@HLHLKEBJ@RTP?5session?5restarted?5?$CIPJMEDIA_@ 000000014002e810     pjmedia-x86_64-x64-vc14-release:errno.obj
 0002:00002848       ??_C@_0DG@OPPFJBGL@RTP?5session?5in?5probation?5?$CIPJMED@ 000000014002e848     pjmedia-x86_64-x64-vc14-release:errno.obj
 0002:00002880       ??_C@_0DI@LFLLIJCB@Bad?5sequence?5number?5in?5RTP?5pack@ 000000014002e880     pjmedia-x86_64-x64-vc14-release:errno.obj
 0002:000028c0       ??_C@_0EE@PHAAOPAG@RTP?5media?5port?5destination?5is?5n@ 000000014002e8c0     pjmedia-x86_64-x64-vc14-release:errno.obj
 0002:00002908       ??_C@_0CO@BFKJOFNE@RTP?5is?5not?5configured?5?$CIPJMEDIA_@ 000000014002e908     pjmedia-x86_64-x64-vc14-release:errno.obj
 0002:00002938       ??_C@_0DI@MEKDIPIO@Media?5ports?5are?5not?5compatible?5@ 000000014002e938     pjmedia-x86_64-x64-vc14-release:errno.obj
 0002:00002970       ??_C@_0EA@EJPEOGMK@Media?5ports?5have?5incompatible?5c@ 000000014002e970     pjmedia-x86_64-x64-vc14-release:errno.obj
 0002:000029b0       ??_C@_0EL@KOIIKBFP@Media?5ports?5have?5incompatible?5s@ 000000014002e9b0     pjmedia-x86_64-x64-vc14-release:errno.obj
 0002:00002a00       ??_C@_0DL@FLCJCEPI@Media?5ports?5have?5incompatible?5m@ 000000014002ea00     pjmedia-x86_64-x64-vc14-release:errno.obj
 0002:00002a40       ??_C@_0EA@CDICINEI@Media?5ports?5have?5incompatible?5b@ 000000014002ea40     pjmedia-x86_64-x64-vc14-release:errno.obj
 0002:00002a80       ??_C@_0EB@DHIDGGBD@Media?5ports?5have?5incompatible?5b@ 000000014002ea80     pjmedia-x86_64-x64-vc14-release:errno.obj
 0002:00002ad0       ??_C@_0EG@FBPNENMF@Media?5ports?5have?5incompatible?5n@ 000000014002ead0     pjmedia-x86_64-x64-vc14-release:errno.obj
 0002:00002b18       ??_C@_0CO@CKCFJDML@Not?5a?5valid?5WAVE?5file?5?$CIPJMEDIA_@ 000000014002eb18     pjmedia-x86_64-x64-vc14-release:errno.obj
 0002:00002b48       ??_C@_0DD@FKNCKLNB@Unsupported?5WAVE?5file?5format?5?$CIP@ 000000014002eb48     pjmedia-x86_64-x64-vc14-release:errno.obj
 0002:00002b80       ??_C@_0CM@HKHLDPDN@WAVE?5file?5too?5short?5?$CIPJMEDIA_EW@ 000000014002eb80     pjmedia-x86_64-x64-vc14-release:errno.obj
 0002:00002bb0       ??_C@_0DP@HHAKLPGE@Sound?5frame?5too?5large?5for?5file?5@ 000000014002ebb0     pjmedia-x86_64-x64-vc14-release:errno.obj
 0002:00002bf0       ??_C@_0CK@EMOCNCPF@Unsupported?5AVI?5file?5?$CIPJMEDIA_E@ 000000014002ebf0     pjmedia-x86_64-x64-vc14-release:errno.obj
 0002:00002c20       ??_C@_0DF@PKIKHNPA@No?5suitable?5sound?5capture?5devic@ 000000014002ec20     pjmedia-x86_64-x64-vc14-release:errno.obj
 0002:00002c58       ??_C@_0DH@NACBPKOD@No?5suitable?5sound?5playback?5devi@ 000000014002ec58     pjmedia-x86_64-x64-vc14-release:errno.obj
 0002:00002c90       ??_C@_0CO@FCJGKBG@Invalid?5sound?5device?5ID?5?$CIPJMEDI@ 000000014002ec90     pjmedia-x86_64-x64-vc14-release:errno.obj
 0002:00002cc0       ??_C@_0EB@GAMOPGD@Invalid?5sample?5format?5for?5sound@ 000000014002ecc0     pjmedia-x86_64-x64-vc14-release:errno.obj
 0002:00002d10       ??_C@_0FA@HAKEALMK@SRTP?5crypto?9suite?5name?5not?5matc@ 000000014002ed10     pjmedia-x86_64-x64-vc14-release:errno.obj
 0002:00002d60       ??_C@_0EF@DCMAHBDI@Invalid?5SRTP?5key?5length?5for?5spe@ 000000014002ed60     pjmedia-x86_64-x64-vc14-release:errno.obj
 0002:00002da8       ??_C@_0DL@BINEGGLM@Unsupported?5SRTP?5crypto?9suite?5?$CI@ 000000014002eda8     pjmedia-x86_64-x64-vc14-release:errno.obj
 0002:00002de8       ??_C@_0DP@DNDEFJI@SRTP?5SDP?5contains?5ambigue?5answe@ 000000014002ede8     pjmedia-x86_64-x64-vc14-release:errno.obj
 0002:00002e28       ??_C@_0DL@PPDCJAFI@Duplicated?5SRTP?5crypto?5tag?5?$CIPJM@ 000000014002ee28     pjmedia-x86_64-x64-vc14-release:errno.obj
 0002:00002e68       ??_C@_0DK@EIEPDNB@Invalid?5SRTP?5crypto?5attribute?5?$CI@ 000000014002ee68     pjmedia-x86_64-x64-vc14-release:errno.obj
 0002:00002ea8       ??_C@_0DH@JABOECDK@Invalid?5SRTP?5crypto?5tag?5?$CIPJMEDI@ 000000014002eea8     pjmedia-x86_64-x64-vc14-release:errno.obj
 0002:00002ee0       ??_C@_0EE@HKDIFKLN@Invalid?5SDP?5media?5transport?5for@ 000000014002eee0     pjmedia-x86_64-x64-vc14-release:errno.obj
 0002:00002f28       ??_C@_0DM@OPHJDJCK@SRTP?5crypto?5attribute?5required?5@ 000000014002ef28     pjmedia-x86_64-x64-vc14-release:errno.obj
 0002:00002f70       ??_C@_0EO@MOMMHEEA@Secure?5transport?5required?5in?5SD@ 000000014002ef70     pjmedia-x86_64-x64-vc14-release:errno.obj
 0002:00002fc0       ??_C@_0EK@HIIDIBOJ@SRTP?5parameters?5negotiation?5sti@ 000000014002efc0     pjmedia-x86_64-x64-vc14-release:errno.obj
 0002:00003010       ??_C@_0EM@HBHPHIDH@No?5matching?5SRTP?5crypto?9suite?5a@ 000000014002f010     pjmedia-x86_64-x64-vc14-release:errno.obj
 0002:00003060       ??_C@_0EN@OKMMPCBN@No?5certificate?5supplied?5by?5peer@ 000000014002f060     pjmedia-x86_64-x64-vc14-release:errno.obj
 0002:000030b0       ??_C@_0FM@DHHDFBCG@Fingerprint?5from?5signalling?5not@ 000000014002f0b0     pjmedia-x86_64-x64-vc14-release:errno.obj
 0002:00003110       ??_C@_0DE@BIABFNHJ@Fingerprint?5not?5found?5?$CIPJMEDIA_@ 000000014002f110     pjmedia-x86_64-x64-vc14-release:errno.obj
 0002:00003150       ??_C@_0EG@NFPDPACI@No?5valid?5SRTP?5protection?5profil@ 000000014002f150     pjmedia-x86_64-x64-vc14-release:errno.obj
 0002:00003198       ??_C@_0BJ@JGEGOKIK@Unknown?5pjmedia?5error?5?$CFd@ 000000014002f198     pjmedia-x86_64-x64-vc14-release:errno.obj
 0002:000031b8       ??_C@_0BA@LPBIANE@Echo?5suppressor@ 000000014002f1b8     pjmedia-x86_64-x64-vc14-release:echo_common.obj
 0002:000031c8       ??_C@_09FHGNGIJH@Speex?5AEC@ 000000014002f1c8     pjmedia-x86_64-x64-vc14-release:echo_common.obj
 0002:000031d4       ??_C@_04FACFFFMP@ec?$CFp@  000000014002f1d4     pjmedia-x86_64-x64-vc14-release:echo_common.obj
 0002:000031e0       ??_C@_0M@KMDBLPFK@Creating?5?$CFs@ 000000014002f1e0     pjmedia-x86_64-x64-vc14-release:echo_common.obj
 0002:000031f0       ??_C@_0FO@FCNNBEFH@?$CFs?5created?0?5clock_rate?$DN?$CFd?0?5chan@ 000000014002f1f0     pjmedia-x86_64-x64-vc14-release:echo_common.obj
 0002:00003250       ??_C@_0BM@HOHFIKPJ@Latency?5bufferring?5complete@ 000000014002f250     pjmedia-x86_64-x64-vc14-release:echo_common.obj
 0002:00003270       ??_C@_0O@DBBHABPM@Prefetching?4?4@ 000000014002f270     pjmedia-x86_64-x64-vc14-release:echo_common.obj
 0002:00003280       ??_C@_0DG@GACEANMB@No?5frame?5from?5delay?5buffer?5?$CIthi@ 000000014002f280     pjmedia-x86_64-x64-vc14-release:echo_common.obj
 0002:000032c0       pjmedia_linear2ulaw_tab    000000014002f2c0     pjmedia-x86_64-x64-vc14-release:alaw_ulaw_table.obj
 0002:000072c0       pjmedia_linear2alaw_tab    00000001400332c0     pjmedia-x86_64-x64-vc14-release:alaw_ulaw_table.obj
 0002:0000b2c0       pjmedia_ulaw2linear_tab    00000001400372c0     pjmedia-x86_64-x64-vc14-release:alaw_ulaw_table.obj
 0002:0000b4c0       pjmedia_alaw2linear_tab    00000001400374c0     pjmedia-x86_64-x64-vc14-release:alaw_ulaw_table.obj
 0002:0000b6f0       ??_C@_08MPIAKENM@RTP?1SAVP@ 00000001400376f0     pjmedia-x86_64-x64-vc14-release:transport_srtp.obj
 0002:0000b6fc       ??_C@_06LAEHEPPF@crypto@   00000001400376fc     pjmedia-x86_64-x64-vc14-release:transport_srtp.obj
 0002:0000b704       ??_C@_04HIBGFPH@NULL@      0000000140037704     pjmedia-x86_64-x64-vc14-release:transport_srtp.obj
 0002:0000b710       ??_C@_0BI@FCCBBIDC@AES_256_CM_HMAC_SHA1_80@ 0000000140037710     pjmedia-x86_64-x64-vc14-release:transport_srtp.obj
 0002:0000b728       ??_C@_0BI@GMECJFFB@AES_256_CM_HMAC_SHA1_32@ 0000000140037728     pjmedia-x86_64-x64-vc14-release:transport_srtp.obj
 0002:0000b740       ??_C@_0BI@OADHPNHF@AES_CM_128_HMAC_SHA1_80@ 0000000140037740     pjmedia-x86_64-x64-vc14-release:transport_srtp.obj
 0002:0000b758       ??_C@_0BI@NOFEHABG@AES_CM_128_HMAC_SHA1_32@ 0000000140037758     pjmedia-x86_64-x64-vc14-release:transport_srtp.obj
 0002:0000b770       ??_C@_02MFDMBIJM@ok@       0000000140037770     pjmedia-x86_64-x64-vc14-release:transport_srtp.obj
 0002:0000b778       ??_C@_0BE@KFOIPNMM@unspecified?5failure@ 0000000140037778     pjmedia-x86_64-x64-vc14-release:transport_srtp.obj
 0002:0000b790       ??_C@_0BG@LENPEKHL@unsupported?5parameter@ 0000000140037790     pjmedia-x86_64-x64-vc14-release:transport_srtp.obj
 0002:0000b7a8       ??_C@_0BJ@DGLNBGGB@couldn?8t?5allocate?5memory@ 00000001400377a8     pjmedia-x86_64-x64-vc14-release:transport_srtp.obj
 0002:0000b7c8       ??_C@_0BN@LJIJFBAJ@couldn?8t?5deallocate?5properly@ 00000001400377c8     pjmedia-x86_64-x64-vc14-release:transport_srtp.obj
 0002:0000b7e8       ??_C@_0BE@KBPICNEA@couldn?8t?5initialize@ 00000001400377e8     pjmedia-x86_64-x64-vc14-release:transport_srtp.obj
 0002:0000b800       ??_C@_0CI@FEPPFOBO@can?8t?5process?5as?5much?5data?5as?5r@ 0000000140037800     pjmedia-x86_64-x64-vc14-release:transport_srtp.obj
 0002:0000b828       ??_C@_0BH@DJJHFLDI@authentication?5failure@ 0000000140037828     pjmedia-x86_64-x64-vc14-release:transport_srtp.obj
 0002:0000b840       ??_C@_0P@MHOCHBCE@cipher?5failure@ 0000000140037840     pjmedia-x86_64-x64-vc14-release:transport_srtp.obj
 0002:0000b850       ??_C@_0CA@LIFPFHJ@replay?5check?5failed?5?$CIbad?5index?$CJ@ 0000000140037850     pjmedia-x86_64-x64-vc14-release:transport_srtp.obj
 0002:0000b870       ??_C@_0CE@GCMJOMFK@replay?5check?5failed?5?$CIindex?5too?5@ 0000000140037870     pjmedia-x86_64-x64-vc14-release:transport_srtp.obj
 0002:0000b898       ??_C@_0BO@KLFALCF@algorithm?5failed?5test?5routine@ 0000000140037898     pjmedia-x86_64-x64-vc14-release:transport_srtp.obj
 0002:0000b8b8       ??_C@_0BG@JKFIFBMN@unsupported?5operation@ 00000001400378b8     pjmedia-x86_64-x64-vc14-release:transport_srtp.obj
 0002:0000b8d0       ??_C@_0BN@PDJKDLOF@no?5appropriate?5context?5found@ 00000001400378d0     pjmedia-x86_64-x64-vc14-release:transport_srtp.obj
 0002:0000b8f0       ??_C@_0CF@DOHHPHGD@unable?5to?5perform?5desired?5valid@ 00000001400378f0     pjmedia-x86_64-x64-vc14-release:transport_srtp.obj
 0002:0000b918       ??_C@_0BH@NKHPNDDN@can?8t?5use?5key?5any?5more@ 0000000140037918     pjmedia-x86_64-x64-vc14-release:transport_srtp.obj
 0002:0000b930       ??_C@_0BH@CDHGOGDE@error?5in?5use?5of?5socket@ 0000000140037930     pjmedia-x86_64-x64-vc14-release:transport_srtp.obj
 0002:0000b948       ??_C@_0BL@DJFHEKEC@error?5in?5use?5POSIX?5signals@ 0000000140037948     pjmedia-x86_64-x64-vc14-release:transport_srtp.obj
 0002:0000b968       ??_C@_0BD@HFMCMINA@nonce?5check?5failed@ 0000000140037968     pjmedia-x86_64-x64-vc14-release:transport_srtp.obj
 0002:0000b980       ??_C@_0BD@FCFDDPHP@couldn?8t?5read?5data@ 0000000140037980     pjmedia-x86_64-x64-vc14-release:transport_srtp.obj
 0002:0000b998       ??_C@_0BE@PIHIJLHG@couldn?8t?5write?5data@ 0000000140037998     pjmedia-x86_64-x64-vc14-release:transport_srtp.obj
 0002:0000b9b0       ??_C@_0BD@PIIFGNCP@error?5pasring?5data@ 00000001400379b0     pjmedia-x86_64-x64-vc14-release:transport_srtp.obj
 0002:0000b9c8       ??_C@_0BE@FFKLLGEP@error?5encoding?5data@ 00000001400379c8     pjmedia-x86_64-x64-vc14-release:transport_srtp.obj
 0002:0000b9e0       ??_C@_0BN@OEPMNKMP@error?5while?5using?5semaphores@ 00000001400379e0     pjmedia-x86_64-x64-vc14-release:transport_srtp.obj
 0002:0000ba00       ??_C@_0BI@JNCDFEKK@error?5while?5using?5pfkey@ 0000000140037a00     pjmedia-x86_64-x64-vc14-release:transport_srtp.obj
 0002:0000ba20       ??_C@_0EB@EJGHAKCH@Warning?3?5simple?5random?5generato@ 0000000140037a20     pjmedia-x86_64-x64-vc14-release:transport_srtp.obj
 0002:0000ba68       ??_C@_0BB@HGEADDBB@transport_srtp?4c@ 0000000140037a68     pjmedia-x86_64-x64-vc14-release:transport_srtp.obj
 0002:0000ba80       ??_C@_0CE@BAIPFCEP@Failed?5encoding?5plain?5key?5to?5ba@ 0000000140037a80     pjmedia-x86_64-x64-vc14-release:transport_srtp.obj
 0002:0000baa8       ??_C@_0BA@OGAKIHAO@?$CFd?5?$CFs?5inline?3?$CFs@ 0000000140037aa8     pjmedia-x86_64-x64-vc14-release:transport_srtp.obj
 0002:0000bab8       ??_C@_0BP@IBJNGPHO@Attribute?5crypto?5expecting?5tag@ 0000000140037ab8     pjmedia-x86_64-x64-vc14-release:transport_srtp.obj
 0002:0000bad8       ??_C@_0CI@IIDGBGP@Attribute?5crypto?5expecting?5cryp@ 0000000140037ad8     pjmedia-x86_64-x64-vc14-release:transport_srtp.obj
 0002:0000bb00       ??_C@_02LMMGGCAJ@?3?5@     0000000140037b00     pjmedia-x86_64-x64-vc14-release:transport_srtp.obj
 0002:0000bb08       ??_C@_0CG@JCJFEHFF@Attribute?5crypto?5expecting?5key?5@ 0000000140037b08     pjmedia-x86_64-x64-vc14-release:transport_srtp.obj
 0002:0000bb30       ??_C@_06OGMBMJA@inline@    0000000140037b30     pjmedia-x86_64-x64-vc14-release:transport_srtp.obj
 0002:0000bb38       ??_C@_0DC@FIGAPMKM@Attribute?5crypto?5key?5method?5?8?$CF?4@ 0000000140037b38     pjmedia-x86_64-x64-vc14-release:transport_srtp.obj
 0002:0000bb6c       ??_C@_02MINBJDHL@?$HM?5@   0000000140037b6c     pjmedia-x86_64-x64-vc14-release:transport_srtp.obj
 0002:0000bb70       ??_C@_0BP@FKKPLPLE@Attribute?5crypto?5expecting?5key@ 0000000140037b70     pjmedia-x86_64-x64-vc14-release:transport_srtp.obj
 0002:0000bb90       ??_C@_0N@FJKIJMGM@Key?5too?5long@ 0000000140037b90     pjmedia-x86_64-x64-vc14-release:transport_srtp.obj
 0002:0000bba0       ??_C@_0CH@PPONEAL@Failed?5decoding?5crypto?5key?5from@ 0000000140037ba0     pjmedia-x86_64-x64-vc14-release:transport_srtp.obj
 0002:0000bbc8       ??_C@_0BA@CMIKGIPP@SRTP?5not?5active@ 0000000140037bc8     pjmedia-x86_64-x64-vc14-release:transport_srtp.obj
 0002:0000bbd8       ??_C@_04LFNPDDCP@SDES@     0000000140037bd8     pjmedia-x86_64-x64-vc14-release:transport_srtp.obj
 0002:0000bbe0       ??_C@_09LMBOLLED@DTLS?9SRTP@ 0000000140037be0     pjmedia-x86_64-x64-vc14-release:transport_srtp.obj
 0002:0000bbf0       ??_C@_0CD@NFEKFFAL@SRTP?5started?0?5keying?$DN?$CFs?0?5crypto@ 0000000140037bf0     pjmedia-x86_64-x64-vc14-release:transport_srtp.obj
 0002:0000bc18       ??_C@_0BP@CAGNCNCA@Failed?5to?5restart?5SRTP?0?5err?$DN?$CFs@ 0000000140037c18     pjmedia-x86_64-x64-vc14-release:transport_srtp.obj
 0002:0000bc38       ??_C@_0CO@EDHKLEPP@Failed?5to?5unprotect?5SRTP?0?5pkt?5s@ 0000000140037c38     pjmedia-x86_64-x64-vc14-release:transport_srtp.obj
 0002:0000bc68       ??_C@_0CP@OAIPELPD@Failed?5to?5unprotect?5SRTCP?0?5pkt?5@ 0000000140037c68     pjmedia-x86_64-x64-vc14-release:transport_srtp.obj
 0002:0000bc98       ??_C@_0BL@LHHEAKNJ@SRTP?5uses?5keying?5method?5?$CFs@ 0000000140037c98     pjmedia-x86_64-x64-vc14-release:transport_srtp.obj
 0002:0000bcb8       ??_C@_0CN@IMPBKLBH@SRTP?5failed?5stop?5underlying?5med@ 0000000140037cb8     pjmedia-x86_64-x64-vc14-release:transport_srtp.obj
 0002:0000bce8       ??_C@_0BJ@BOBCJFAN@Unknown?5libsrtp?5error?5?$CFd@ 0000000140037ce8     pjmedia-x86_64-x64-vc14-release:transport_srtp.obj
 0002:0000bd08       ??_C@_0BB@JENPEJDI@?9?9key?5too?5long?9?9@ 0000000140037d08     pjmedia-x86_64-x64-vc14-release:transport_srtp.obj
 0002:0000bd20       ??_C@_0O@LPFLKIMI@TX?3?5?$CFs?5key?$DN?$CFs@ 0000000140037d20     pjmedia-x86_64-x64-vc14-release:transport_srtp.obj
 0002:0000bd30       ??_C@_05EPPOHEBK@?5auth@   0000000140037d30     pjmedia-x86_64-x64-vc14-release:transport_srtp.obj
 0002:0000bd38       ??_C@_04PIHNPOJJ@?5enc@    0000000140037d38     pjmedia-x86_64-x64-vc14-release:transport_srtp.obj
 0002:0000bd40       ??_C@_0BA@BONGIHBG@TX?3?5disable?$CFs?$CFs@ 0000000140037d40     pjmedia-x86_64-x64-vc14-release:transport_srtp.obj
 0002:0000bd50       ??_C@_0O@EHJJODHO@RX?3?5?$CFs?5key?$DN?$CFs@ 0000000140037d50     pjmedia-x86_64-x64-vc14-release:transport_srtp.obj
 0002:0000bd60       ??_C@_0BA@ENEHOOPC@RX?3?5disable?$CFs?$CFs@ 0000000140037d60     pjmedia-x86_64-x64-vc14-release:transport_srtp.obj
 0002:0000bd70       ??_C@_0CG@KDAPJFOB@Failed?5to?5dealloc?5RX?5SRTP?5conte@ 0000000140037d70     pjmedia-x86_64-x64-vc14-release:transport_srtp.obj
 0002:0000bd98       ??_C@_0CG@CHCMAIDE@Failed?5to?5dealloc?5TX?5SRTP?5conte@ 0000000140037d98     pjmedia-x86_64-x64-vc14-release:transport_srtp.obj
 0002:0000bdc0       ??_C@_0CK@GILFEPIK@Echo?5suppressor?5soft?5reset?4?5Re?9@ 0000000140037dc0     pjmedia-x86_64-x64-vc14-release:echo_suppress.obj
 0002:0000bdf0       ??_C@_0BA@GIJBCBML@echo_suppress?4c@ 0000000140037df0     pjmedia-x86_64-x64-vc14-release:echo_suppress.obj
 0002:0000be00       ??_C@_0FL@JMGHEEIK@Echo?5suppressor?5updated?5at?5t?$DN?$CF0@ 0000000140037e00     pjmedia-x86_64-x64-vc14-release:echo_suppress.obj
 0002:0000be60       ??_C@_0FK@NODMKGEL@Echo?5suppressor?5learning?5done?5a@ 0000000140037e60     pjmedia-x86_64-x64-vc14-release:echo_suppress.obj
 0002:0000bec0       ??_C@_0CC@OBLDMFND@Echo?5suppressor?5residue?5?$DN?5?$CFd?4?$CF0@ 0000000140037ec0     pjmedia-x86_64-x64-vc14-release:echo_suppress.obj
 0002:0000bee8       ??_C@_0M@NHLIMPJD@in?5progress@ 0000000140037ee8     pjmedia-x86_64-x64-vc14-release:echo_suppress.obj
 0002:0000bef4       ??_C@_04GMOJEHPC@done@     0000000140037ef4     pjmedia-x86_64-x64-vc14-release:echo_suppress.obj
 0002:0000bf00       ??_C@_0GC@GDBJBODO@Echo?5suppressor?5learning?5?$CFs?5at?5@ 0000000140037f00     pjmedia-x86_64-x64-vc14-release:echo_suppress.obj
 0002:0000bf64       __real@3f000000            0000000140037f64     pjmedia-x86_64-x64-vc14-release:echo_suppress.obj
 0002:0000bf68       __real@3f800000            0000000140037f68     pjmedia-x86_64-x64-vc14-release:echo_suppress.obj
 0002:0000bf6c       __real@40200000            0000000140037f6c     pjmedia-x86_64-x64-vc14-release:echo_suppress.obj
 0002:0000bf70       __real@40400000            0000000140037f70     pjmedia-x86_64-x64-vc14-release:echo_suppress.obj
 0002:0000bf74       __real@41980000            0000000140037f74     pjmedia-x86_64-x64-vc14-release:echo_suppress.obj
 0002:0000bf78       __real@41a00000            0000000140037f78     pjmedia-x86_64-x64-vc14-release:echo_suppress.obj
 0002:0000bf7c       __real@447a0000            0000000140037f7c     pjmedia-x86_64-x64-vc14-release:echo_suppress.obj
 0002:0000bf80       __xmm@80000000800000008000000080000000 0000000140037f80     pjmedia-x86_64-x64-vc14-release:echo_suppress.obj
 0002:0000bf90       ??_C@_08LLMLEOE@delaybuf@  0000000140037f90     pjmedia-x86_64-x64-vc14-release:delaybuf.obj
 0002:0000bfa0       ??_C@_0BP@CKANIKAH@Using?5delay?5buffer?5with?5WSOLA?4@ 0000000140037fa0     pjmedia-x86_64-x64-vc14-release:delaybuf.obj
 0002:0000bfc0       ??_C@_0CA@BKBNPCON@Using?5simple?5FIFO?5delay?5buffer?4@ 0000000140037fc0     pjmedia-x86_64-x64-vc14-release:delaybuf.obj
 0002:0000bfe0       ??_C@_0BP@JJBHJNOO@?$CFd?5samples?5reduced?0?5buf_cnt?$DN?$CFd@ 0000000140037fe0     pjmedia-x86_64-x64-vc14-release:delaybuf.obj
 0002:0000c000       ??_C@_0DA@FPCBOFHC@Buffer?5size?5adjusted?5from?5?$CFd?5to@ 0000000140038000     pjmedia-x86_64-x64-vc14-release:delaybuf.obj
 0002:0000c030       ??_C@_0CD@DJOCKALK@Shrinking?5failed?5or?5insufficien@ 0000000140038030     pjmedia-x86_64-x64-vc14-release:delaybuf.obj
 0002:0000c058       ??_C@_0CJ@KJHKGIAO@?$CFsDropping?5?$CFd?5eldest?5samples?0?5b@ 0000000140038058     pjmedia-x86_64-x64-vc14-release:delaybuf.obj
 0002:0000c088       ??_C@_0CN@FEOJBHHF@Underflow?0?5buf_cnt?$DN?$CFd?0?5will?5gen@ 0000000140038088     pjmedia-x86_64-x64-vc14-release:delaybuf.obj
 0002:0000c0b8       ??_C@_0BH@KCPKLNAI@Error?5generating?5frame@ 00000001400380b8     pjmedia-x86_64-x64-vc14-release:delaybuf.obj
 0002:0000c0d0       __real@3fe0000000000000    00000001400380d0     pjmedia-x86_64-x64-vc14-release:wsola.obj
 0002:0000c0d8       __real@3ff0000000000000    00000001400380d8     pjmedia-x86_64-x64-vc14-release:wsola.obj
 0002:0000c0e0       __real@3ff8000000000000    00000001400380e0     pjmedia-x86_64-x64-vc14-release:wsola.obj
 0002:0000c0e8       __real@401921fb54442d18    00000001400380e8     pjmedia-x86_64-x64-vc14-release:wsola.obj
 0002:0000c0f0       __real@bf800000            00000001400380f0     pjmedia-x86_64-x64-vc14-release:wsola.obj
 0002:0000c100       __xmm@ffffffffffffffffffffffffffffffff 0000000140038100     pjlib-util-x86_64-x64-vc14-release:scanner.obj
 0002:0000c150       ??_C@_04IFCNACLH@pj?$CFp@  0000000140038150     pjlib-x86_64-x64-vc14-release:os_core_win32.obj
 0002:0000c158       ??_C@_0BA@NGJFHJA@PJLIB?1No?5memory@ 0000000140038158     pjlib-x86_64-x64-vc14-release:os_core_win32.obj
 0002:0000c168       ??_C@_0BP@NGEKBPIB@pjlib?5?$CFs?5for?5win32?5initialized@ 0000000140038168     pjlib-x86_64-x64-vc14-release:os_core_win32.obj
 0002:0000c188       ??_C@_0BA@FNCACAIG@os_core_win32?4c@ 0000000140038188     pjlib-x86_64-x64-vc14-release:os_core_win32.obj
 0002:0000c198       ??_C@_0CI@EAKIIBBA@Main?5thread?5stack?5max?5usage?$DN?$CFu?5@ 0000000140038198     pjlib-x86_64-x64-vc14-release:os_core_win32.obj
 0002:0000c1c0       ??_C@_0HO@NIBMBENE@C?3?2Users?2WerBinIch?2Documents?2gi@ 00000001400381c0     pjlib-x86_64-x64-vc14-release:os_core_win32.obj
 0002:0000c240       ??_C@_05KHEDLION@thr?$CFp@ 0000000140038240     pjlib-x86_64-x64-vc14-release:os_core_win32.obj
 0002:0000c248       ??_C@_0CD@GPHECFNA@Thread?5stack?5max?5usage?$DN?$CFu?5by?5?$CFs@ 0000000140038248     pjlib-x86_64-x64-vc14-release:os_core_win32.obj
 0002:0000c26c       ??_C@_05EJDHHBFJ@mtx?$CFp@ 000000014003826c     pjlib-x86_64-x64-vc14-release:os_core_win32.obj
 0002:0000c280       ??_C@_0HF@IEAAJLHC@C?3?2Users?2WerBinIch?2Documents?2gi@ 0000000140038280     pjlib-x86_64-x64-vc14-release:pool.obj
 0002:0000c300       ??_C@_0HN@GFOBEPN@C?3?2Users?2WerBinIch?2Documents?2gi@ 0000000140038300     pjlib-x86_64-x64-vc14-release:pool_caching.obj
 0002:0000c380       ??_C@_0M@IGFPEOLJ@cachingpool@ 0000000140038380     pjlib-x86_64-x64-vc14-release:pool_caching.obj
 0002:0000c390       ??_C@_0DD@ECGDPCBA@Pool?5is?5not?5released?5by?5applica@ 0000000140038390     pjlib-x86_64-x64-vc14-release:pool_caching.obj
 0002:0000c3c8       ??_C@_0BH@BBPHJKOA@?5Dumping?5caching?5pool?3@ 00000001400383c8     pjlib-x86_64-x64-vc14-release:pool_caching.obj
 0002:0000c3e0       ??_C@_08COPEICHG@cachpool@ 00000001400383e0     pjlib-x86_64-x64-vc14-release:pool_caching.obj
 0002:0000c3f0       ??_C@_0CN@DOKPIIOH@?5?5?5Capacity?$DN?$CFu?0?5max_capacity?$DN?$CFu@ 00000001400383f0     pjlib-x86_64-x64-vc14-release:pool_caching.obj
 0002:0000c420       ??_C@_0BM@IDLDGCC@?5?5Dumping?5all?5active?5pools?3@ 0000000140038420     pjlib-x86_64-x64-vc14-release:pool_caching.obj
 0002:0000c440       ??_C@_0CA@MMLIKIEG@?5?5?5?$CF16s?3?5?$CF8d?5of?5?$CF8d?5?$CI?$CFd?$CF?$CF?$CJ?5used@ 0000000140038440     pjlib-x86_64-x64-vc14-release:pool_caching.obj
 0002:0000c460       ??_C@_0CB@GKBJPDKG@?5?5Total?5?$CF9d?5of?5?$CF9d?5?$CI?$CFd?5?$CF?$CF?$CJ?5used@ 0000000140038460     pjlib-x86_64-x64-vc14-release:pool_caching.obj
 0002:0000c610       ??_C@_0BM@FLPPOGAG@Unknown?5Error?5?$CIPJ_EUNKNOWN?$CJ@ 0000000140038610     pjlib-x86_64-x64-vc14-release:errno.obj
 0002:0000c630       ??_C@_0CA@DCLOOJGD@Pending?5operation?5?$CIPJ_EPENDING?$CJ@ 0000000140038630     pjlib-x86_64-x64-vc14-release:errno.obj
 0002:0000c650       ??_C@_0CO@GABEOAFF@Too?5many?5connecting?5sockets?5?$CIPJ@ 0000000140038650     pjlib-x86_64-x64-vc14-release:errno.obj
 0002:0000c680       ??_C@_0CG@CBCJBJGD@Invalid?5value?5or?5argument?5?$CIPJ_E@ 0000000140038680     pjlib-x86_64-x64-vc14-release:errno.obj
 0002:0000c6a8       ??_C@_0CA@GJABNEKD@Name?5too?5long?5?$CIPJ_ENAMETOOLONG?$CJ@ 00000001400386a8     pjlib-x86_64-x64-vc14-release:errno.obj
 0002:0000c6c8       ??_C@_0BJ@JNKLPII@Not?5found?5?$CIPJ_ENOTFOUND?$CJ@ 00000001400386c8     pjlib-x86_64-x64-vc14-release:errno.obj
 0002:0000c6e8       ??_C@_0BO@GOLCMJKK@Not?5enough?5memory?5?$CIPJ_ENOMEM?$CJ@ 00000001400386e8     pjlib-x86_64-x64-vc14-release:errno.obj
 0002:0000c708       ??_C@_0BI@HHGDCAID@BUG?5DETECTED?$CB?5?$CIPJ_EBUG?$CJ@ 0000000140038708     pjlib-x86_64-x64-vc14-release:errno.obj
 0002:0000c720       ??_C@_0CD@JOGIDHPJ@Operation?5timed?5out?5?$CIPJ_ETIMEDO@ 0000000140038720     pjlib-x86_64-x64-vc14-release:errno.obj
 0002:0000c748       ??_C@_0DF@MIFNAIHL@Too?5many?5objects?5of?5the?5specifi@ 0000000140038748     pjlib-x86_64-x64-vc14-release:errno.obj
 0002:0000c780       ??_C@_0BK@OMPILOH@Object?5is?5busy?5?$CIPJ_EBUSY?$CJ@ 0000000140038780     pjlib-x86_64-x64-vc14-release:errno.obj
 0002:0000c7a0       ??_C@_0CP@BAIBJOJE@Option?1operation?5is?5not?5support@ 00000001400387a0     pjlib-x86_64-x64-vc14-release:errno.obj
 0002:0000c7d0       ??_C@_0CC@OEEEEEML@Invalid?5operation?5?$CIPJ_EINVALIDO@ 00000001400387d0     pjlib-x86_64-x64-vc14-release:errno.obj
 0002:0000c7f8       ??_C@_0CE@KDDMJLGF@Operation?5cancelled?5?$CIPJ_ECANCEL@ 00000001400387f8     pjlib-x86_64-x64-vc14-release:errno.obj
 0002:0000c820       ??_C@_0CD@LODOFNLC@Object?5already?5exists?5?$CIPJ_EEXIS@ 0000000140038820     pjlib-x86_64-x64-vc14-release:errno.obj
 0002:0000c848       ??_C@_0BG@GMBDFNLN@End?5of?5file?5?$CIPJ_EEOF?$CJ@ 0000000140038848     pjlib-x86_64-x64-vc14-release:errno.obj
 0002:0000c860       ??_C@_0BN@PCCNBFLN@Size?5is?5too?5big?5?$CIPJ_ETOOBIG?$CJ@ 0000000140038860     pjlib-x86_64-x64-vc14-release:errno.obj
 0002:0000c880       ??_C@_0DB@FDCHLEID@gethostbyname?$CI?$CJ?5has?5returned?5er@ 0000000140038880     pjlib-x86_64-x64-vc14-release:errno.obj
 0002:0000c8b8       ??_C@_0CB@MGGLJMNO@Size?5is?5too?5short?5?$CIPJ_ETOOSMALL@ 00000001400388b8     pjlib-x86_64-x64-vc14-release:errno.obj
 0002:0000c8e0       ??_C@_0BG@NBDJGAFI@Ignored?5?$CIPJ_EIGNORED?$CJ@ 00000001400388e0     pjlib-x86_64-x64-vc14-release:errno.obj
 0002:0000c8f8       ??_C@_0CH@OGOOBJBE@IPv6?5is?5not?5supported?5?$CIPJ_EIPV6@ 00000001400388f8     pjlib-x86_64-x64-vc14-release:errno.obj
 0002:0000c920       ??_C@_0CK@DJAHHNOI@Unsupported?5address?5family?5?$CIPJ_@ 0000000140038920     pjlib-x86_64-x64-vc14-release:errno.obj
 0002:0000c950       ??_C@_0CD@PDGCJOJH@Object?5no?5longer?5exists?5?$CIPJ_EGO@ 0000000140038950     pjlib-x86_64-x64-vc14-release:errno.obj
 0002:0000c978       ??_C@_0CI@LBHALONI@Socket?5is?5in?5bad?5state?5?$CIPJ_ESOC@ 0000000140038978     pjlib-x86_64-x64-vc14-release:errno.obj
 0002:0000c9a0       ??_C@_0BH@ONDLFCEA@Unknown?5pjlib?5error?5?$CFd@ 00000001400389a0     pjlib-x86_64-x64-vc14-release:errno.obj
 0002:0000c9b8       ??_C@_07PBILKAFL@Success@  00000001400389b8     pjlib-x86_64-x64-vc14-release:errno.obj
 0002:0000c9c0       ??_C@_0BB@BIKLJNJD@Unknown?5error?5?$CFd@ 00000001400389c0     pjlib-x86_64-x64-vc14-release:errno.obj
 0002:0000c9d4       ??_C@_05NAOIJFC@Error@     00000001400389d4     pjlib-x86_64-x64-vc14-release:errno.obj
 0002:0000c9dc       ??_C@_06DJHOIPC@?$CFs?3?5?$CFs@ 00000001400389dc     pjlib-x86_64-x64-vc14-release:errno.obj
 0002:0000c9f0       ??_C@_0ID@HEJLABNJ@C?3?2Users?2WerBinIch?2Documents?2gi@ 00000001400389f0     pjlib-x86_64-x64-vc14-release:pool_policy_malloc.obj
 0002:0000ca80       ??_C@_0HH@JPNODECN@C?3?2Users?2WerBinIch?2Documents?2gi@ 0000000140038a80     pjlib-x86_64-x64-vc14-release:string.obj
 0002:0000caf8       __real@41200000            0000000140038af8     pjlib-x86_64-x64-vc14-release:string.obj
 0002:0000ce20       ??_C@_0CD@FNMHLHMI@Interrupted?5system?5call?5?$CIWSAEIN@ 0000000140038e20     pjlib-x86_64-x64-vc14-release:os_error_win32.obj
 0002:0000ce48       ??_C@_0BL@OKPDNKLH@Bad?5file?5number?5?$CIWSAEBADF?$CJ@ 0000000140038e48     pjlib-x86_64-x64-vc14-release:os_error_win32.obj
 0002:0000ce68       ??_C@_0BO@BMBEEPBP@Permission?5denied?5?$CIWSAEACCES?$CJ@ 0000000140038e68     pjlib-x86_64-x64-vc14-release:os_error_win32.obj
 0002:0000ce88       ??_C@_0BI@LAKHPJJ@Bad?5address?5?$CIWSAEFAULT?$CJ@ 0000000140038e88     pjlib-x86_64-x64-vc14-release:os_error_win32.obj
 0002:0000cea0       ??_C@_0BN@FEIDINKH@Invalid?5argument?5?$CIWSAEINVAL?$CJ@ 0000000140038ea0     pjlib-x86_64-x64-vc14-release:os_error_win32.obj
 0002:0000cec0       ??_C@_0CC@HMKKNDGL@Too?5many?5open?5sockets?5?$CIWSAEMFIL@ 0000000140038ec0     pjlib-x86_64-x64-vc14-release:os_error_win32.obj
 0002:0000cee8       ??_C@_0CH@GCPPFMGM@Operation?5would?5block?5?$CIWSAEWOUL@ 0000000140038ee8     pjlib-x86_64-x64-vc14-release:os_error_win32.obj
 0002:0000cf10       ??_C@_0CL@DKGHEPCD@Operation?5now?5in?5progress?5?$CIWSAE@ 0000000140038f10     pjlib-x86_64-x64-vc14-release:os_error_win32.obj
 0002:0000cf40       ??_C@_0CM@BEMCBKDH@Operation?5already?5in?5progress?5?$CI@ 0000000140038f40     pjlib-x86_64-x64-vc14-release:os_error_win32.obj
 0002:0000cf70       ??_C@_0CN@PAFKDEBN@Socket?5operation?5on?5non?9socket?5@ 0000000140038f70     pjlib-x86_64-x64-vc14-release:os_error_win32.obj
 0002:0000cfa0       ??_C@_0CP@HCDICECK@Destination?5address?5required?5?$CIW@ 0000000140038fa0     pjlib-x86_64-x64-vc14-release:os_error_win32.obj
 0002:0000cfd0       ??_C@_0BP@LNFPBFEK@Message?5too?5long?5?$CIWSAEMSGSIZE?$CJ@ 0000000140038fd0     pjlib-x86_64-x64-vc14-release:os_error_win32.obj
 0002:0000cff0       ??_C@_0CP@MMIMIEMF@Protocol?5wrong?5type?5for?5socket?5@ 0000000140038ff0     pjlib-x86_64-x64-vc14-release:os_error_win32.obj
 0002:0000d020       ??_C@_0CF@HNFLHOHA@Bad?5protocol?5option?5?$CIWSAENOPROT@ 0000000140039020     pjlib-x86_64-x64-vc14-release:os_error_win32.obj
 0002:0000d048       ??_C@_0CM@HPGHEHCE@Protocol?5not?5supported?5?$CIWSAEPRO@ 0000000140039048     pjlib-x86_64-x64-vc14-release:os_error_win32.obj
 0002:0000d078       ??_C@_0CP@JLBNHCOL@Socket?5type?5not?5supported?5?$CIWSAE@ 0000000140039078     pjlib-x86_64-x64-vc14-release:os_error_win32.obj
 0002:0000d0a8       ??_C@_0DC@GJMFANID@Operation?5not?5supported?5on?5sock@ 00000001400390a8     pjlib-x86_64-x64-vc14-release:os_error_win32.obj
 0002:0000d0e0       ??_C@_0DA@GFNBENIG@Protocol?5family?5not?5supported?5?$CI@ 00000001400390e0     pjlib-x86_64-x64-vc14-release:os_error_win32.obj
 0002:0000d110       ??_C@_0CP@MMKHGIFC@Address?5family?5not?5supported?5?$CIW@ 0000000140039110     pjlib-x86_64-x64-vc14-release:os_error_win32.obj
 0002:0000d140       ??_C@_0CH@OCKNFBKE@Address?5already?5in?5use?5?$CIWSAEADD@ 0000000140039140     pjlib-x86_64-x64-vc14-release:os_error_win32.obj
 0002:0000d168       ??_C@_0DC@FJJPJPOD@Can?8t?5assign?5requested?5address?5@ 0000000140039168     pjlib-x86_64-x64-vc14-release:os_error_win32.obj
 0002:0000d1a0       ??_C@_0BO@IICKDHLJ@Network?5is?5down?5?$CIWSAENETDOWN?$CJ@ 00000001400391a0     pjlib-x86_64-x64-vc14-release:os_error_win32.obj
 0002:0000d1c0       ??_C@_0CI@NKJAACME@Network?5is?5unreachable?5?$CIWSAENET@ 00000001400391c0     pjlib-x86_64-x64-vc14-release:os_error_win32.obj
 0002:0000d1e8       ??_C@_0CE@LJEEEFEC@Net?5connection?5reset?5?$CIWSAENETRE@ 00000001400391e8     pjlib-x86_64-x64-vc14-release:os_error_win32.obj
 0002:0000d210       ??_C@_0DD@PGDIHOBG@Software?5caused?5connection?5abor@ 0000000140039210     pjlib-x86_64-x64-vc14-release:os_error_win32.obj
 0002:0000d248       ??_C@_0CJ@PJHCFAAN@Connection?5reset?5by?5peer?5?$CIWSAEC@ 0000000140039248     pjlib-x86_64-x64-vc14-release:os_error_win32.obj
 0002:0000d278       ??_C@_0CH@EKNGIMKN@No?5buffer?5space?5available?5?$CIWSAE@ 0000000140039278     pjlib-x86_64-x64-vc14-release:os_error_win32.obj
 0002:0000d2a0       ??_C@_0CJ@JOPBNNOD@Socket?5is?5already?5connected?5?$CIWS@ 00000001400392a0     pjlib-x86_64-x64-vc14-release:os_error_win32.obj
 0002:0000d2d0       ??_C@_0CG@CECDMHLL@Socket?5is?5not?5connected?5?$CIWSAENO@ 00000001400392d0     pjlib-x86_64-x64-vc14-release:os_error_win32.obj
 0002:0000d2f8       ??_C@_0DA@JGJMJPNM@Can?8t?5send?5after?5socket?5shutdow@ 00000001400392f8     pjlib-x86_64-x64-vc14-release:os_error_win32.obj
 0002:0000d328       ??_C@_0DE@CAILNFFE@Too?5many?5references?0?5can?8t?5spli@ 0000000140039328     pjlib-x86_64-x64-vc14-release:os_error_win32.obj
 0002:0000d360       ??_C@_0CE@IIKHBGF@Connection?5timed?5out?5?$CIWSAETIMED@ 0000000140039360     pjlib-x86_64-x64-vc14-release:os_error_win32.obj
 0002:0000d388       ??_C@_0CF@JMKFBJH@Connection?5refused?5?$CIWSAECONNREF@ 0000000140039388     pjlib-x86_64-x64-vc14-release:os_error_win32.obj
 0002:0000d3b0       ??_C@_0CN@FCKBNFMB@Too?5many?5levels?5of?5symbolic?5lin@ 00000001400393b0     pjlib-x86_64-x64-vc14-release:os_error_win32.obj
 0002:0000d3e0       ??_C@_0CF@MOFKOMBB@File?5name?5too?5long?5?$CIWSAENAMETOO@ 00000001400393e0     pjlib-x86_64-x64-vc14-release:os_error_win32.obj
 0002:0000d408       ??_C@_0BM@NCJCEEDP@Host?5is?5down?5?$CIWSAEHOSTDOWN?$CJ@ 0000000140039408     pjlib-x86_64-x64-vc14-release:os_error_win32.obj
 0002:0000d428       ??_C@_0CD@ECJOJHBH@No?5route?5to?5host?5?$CIWSAEHOSTUNREA@ 0000000140039428     pjlib-x86_64-x64-vc14-release:os_error_win32.obj
 0002:0000d450       ??_C@_0CD@NEFLEHEG@Directory?5not?5empty?5?$CIWSAENOTEMP@ 0000000140039450     pjlib-x86_64-x64-vc14-release:os_error_win32.obj
 0002:0000d478       ??_C@_0CB@GPCGLHOJ@Too?5many?5processes?5?$CIWSAEPROCLIM@ 0000000140039478     pjlib-x86_64-x64-vc14-release:os_error_win32.obj
 0002:0000d4a0       ??_C@_0BL@IGHJMJKO@Too?5many?5users?5?$CIWSAEUSERS?$CJ@ 00000001400394a0     pjlib-x86_64-x64-vc14-release:os_error_win32.obj
 0002:0000d4c0       ??_C@_0CA@MIOFDKMA@Disc?5quota?5exceeded?5?$CIWSAEDQUOT?$CJ@ 00000001400394c0     pjlib-x86_64-x64-vc14-release:os_error_win32.obj
 0002:0000d4e0       ??_C@_0CC@IMLIDHNH@Stale?5NFS?5file?5handle?5?$CIWSAESTAL@ 00000001400394e0     pjlib-x86_64-x64-vc14-release:os_error_win32.obj
 0002:0000d508       ??_C@_0CP@MLAFGPOA@Too?5many?5levels?5of?5remote?5in?5pa@ 0000000140039508     pjlib-x86_64-x64-vc14-release:os_error_win32.obj
 0002:0000d538       ??_C@_0CP@IBAEMKGH@Network?5system?5is?5unavailable?5?$CI@ 0000000140039538     pjlib-x86_64-x64-vc14-release:os_error_win32.obj
 0002:0000d568       ??_C@_0DC@BLAKHMMJ@Winsock?5version?5out?5of?5range?5?$CIW@ 0000000140039568     pjlib-x86_64-x64-vc14-release:os_error_win32.obj
 0002:0000d5a0       ??_C@_0CO@HPDHHDHA@WSAStartup?5not?5yet?5called?5?$CIWSAN@ 00000001400395a0     pjlib-x86_64-x64-vc14-release:os_error_win32.obj
 0002:0000d5d0       ??_C@_0CL@GFDHEKLB@Graceful?5shutdown?5in?5progress?5?$CI@ 00000001400395d0     pjlib-x86_64-x64-vc14-release:os_error_win32.obj
 0002:0000d600       ??_C@_0CD@OEALOMDH@Host?5not?5found?5?$CIWSAHOST_NOT_FOU@ 0000000140039600     pjlib-x86_64-x64-vc14-release:os_error_win32.obj
 0002:0000d628       ??_C@_0DB@KFPHELLI@No?5host?5data?5of?5that?5type?5was?5f@ 0000000140039628     pjlib-x86_64-x64-vc14-release:os_error_win32.obj
 0002:0000d660       ??_C@_0BE@JPHLLAEM@Win32?5error?5code?5?$CFu@ 0000000140039660     pjlib-x86_64-x64-vc14-release:os_error_win32.obj
 0002:0000d674       ??_C@_06DDFOEFIF@FATAL?3@  0000000140039674     pjlib-x86_64-x64-vc14-release:log.obj
 0002:0000d67c       ??_C@_06PONDCDME@ERROR?3@  000000014003967c     pjlib-x86_64-x64-vc14-release:log.obj
 0002:0000d684       ??_C@_06OHJPOJDB@?5WARN?3@ 0000000140039684     pjlib-x86_64-x64-vc14-release:log.obj
 0002:0000d68c       ??_C@_06ICKKLHPE@?5INFO?3@ 000000014003968c     pjlib-x86_64-x64-vc14-release:log.obj
 0002:0000d694       ??_C@_06DNOFLLB@DEBUG?3@   0000000140039694     pjlib-x86_64-x64-vc14-release:log.obj
 0002:0000d69c       ??_C@_06ELIFFDKB@TRACE?3@  000000014003969c     pjlib-x86_64-x64-vc14-release:log.obj
 0002:0000d6a4       ??_C@_06HGKAKJPG@DETRC?3@  00000001400396a4     pjlib-x86_64-x64-vc14-release:log.obj
 0002:0000d6ac       ??_C@_03KOEHGMDN@Sun@      00000001400396ac     pjlib-x86_64-x64-vc14-release:log.obj
 0002:0000d6b0       ??_C@_03PDAGKDH@Mon@       00000001400396b0     pjlib-x86_64-x64-vc14-release:log.obj
 0002:0000d6b4       ??_C@_03NAGEINEP@Tue@      00000001400396b4     pjlib-x86_64-x64-vc14-release:log.obj
 0002:0000d6b8       ??_C@_03MHOMLAJA@Wed@      00000001400396b8     pjlib-x86_64-x64-vc14-release:log.obj
 0002:0000d6bc       ??_C@_03IOFIKPDN@Thu@      00000001400396bc     pjlib-x86_64-x64-vc14-release:log.obj
 0002:0000d6c0       ??_C@_03IDIOELNC@Fri@      00000001400396c0     pjlib-x86_64-x64-vc14-release:log.obj
 0002:0000d6c4       ??_C@_03FEFJNEK@Sat@       00000001400396c4     pjlib-x86_64-x64-vc14-release:log.obj
 0002:0000d6d0       ??_C@_0HE@ONAIBOBI@C?3?2Users?2WerBinIch?2Documents?2gi@ 00000001400396d0     pjlib-x86_64-x64-vc14-release:log.obj
 0002:0000d748       ??_C@_0BO@BGMDCDKP@?$DMlogging?5error?3?5msg?5too?5long?$DO@ 0000000140039748     pjlib-x86_64-x64-vc14-release:log.obj
 0002:0000d768       ??_C@_05LIJONKFG@ioq?$CFp@ 0000000140039768     pjlib-x86_64-x64-vc14-release:ioqueue_select.obj
 0002:0000d770       ??_C@_0CA@IMDCINDN@select?$CI?$CJ?5I?1O?5Queue?5created?5?$CI?$CFp?$CJ@ 0000000140039770     pjlib-x86_64-x64-vc14-release:ioqueue_select.obj
 0002:0000d790       ??_C@_05PHKAINEA@pjlib@    0000000140039790     pjlib-x86_64-x64-vc14-release:ioqueue_select.obj
 0002:0000d798       PJ_AF_UNSPEC               0000000140039798     pjlib-x86_64-x64-vc14-release:sock_bsd.obj
 0002:0000d79c       PJ_AF_UNIX                 000000014003979c     pjlib-x86_64-x64-vc14-release:sock_bsd.obj
 0002:0000d7a0       PJ_AF_INET                 00000001400397a0     pjlib-x86_64-x64-vc14-release:sock_bsd.obj
 0002:0000d7a4       PJ_AF_INET6                00000001400397a4     pjlib-x86_64-x64-vc14-release:sock_bsd.obj
 0002:0000d7a8       PJ_AF_PACKET               00000001400397a8     pjlib-x86_64-x64-vc14-release:sock_bsd.obj
 0002:0000d7ac       PJ_AF_IRDA                 00000001400397ac     pjlib-x86_64-x64-vc14-release:sock_bsd.obj
 0002:0000d7b0       PJ_SOCK_STREAM             00000001400397b0     pjlib-x86_64-x64-vc14-release:sock_bsd.obj
 0002:0000d7b4       PJ_SOCK_DGRAM              00000001400397b4     pjlib-x86_64-x64-vc14-release:sock_bsd.obj
 0002:0000d7b8       PJ_SOCK_RAW                00000001400397b8     pjlib-x86_64-x64-vc14-release:sock_bsd.obj
 0002:0000d7bc       PJ_SOCK_RDM                00000001400397bc     pjlib-x86_64-x64-vc14-release:sock_bsd.obj
 0002:0000d7c0       PJ_SOL_SOCKET              00000001400397c0     pjlib-x86_64-x64-vc14-release:sock_bsd.obj
 0002:0000d7c4       PJ_SOL_IP                  00000001400397c4     pjlib-x86_64-x64-vc14-release:sock_bsd.obj
 0002:0000d7c8       PJ_SOL_TCP                 00000001400397c8     pjlib-x86_64-x64-vc14-release:sock_bsd.obj
 0002:0000d7cc       PJ_SOL_UDP                 00000001400397cc     pjlib-x86_64-x64-vc14-release:sock_bsd.obj
 0002:0000d7d0       PJ_SOL_IPV6                00000001400397d0     pjlib-x86_64-x64-vc14-release:sock_bsd.obj
 0002:0000d7d4       PJ_IP_TOS                  00000001400397d4     pjlib-x86_64-x64-vc14-release:sock_bsd.obj
 0002:0000d7d8       PJ_IPTOS_LOWDELAY          00000001400397d8     pjlib-x86_64-x64-vc14-release:sock_bsd.obj
 0002:0000d7dc       PJ_IPTOS_THROUGHPUT        00000001400397dc     pjlib-x86_64-x64-vc14-release:sock_bsd.obj
 0002:0000d7e0       PJ_IPTOS_RELIABILITY       00000001400397e0     pjlib-x86_64-x64-vc14-release:sock_bsd.obj
 0002:0000d7e4       PJ_IPTOS_MINCOST           00000001400397e4     pjlib-x86_64-x64-vc14-release:sock_bsd.obj
 0002:0000d7e8       PJ_IPV6_TCLASS             00000001400397e8     pjlib-x86_64-x64-vc14-release:sock_bsd.obj
 0002:0000d7ec       PJ_SO_TYPE                 00000001400397ec     pjlib-x86_64-x64-vc14-release:sock_bsd.obj
 0002:0000d7f0       PJ_SO_RCVBUF               00000001400397f0     pjlib-x86_64-x64-vc14-release:sock_bsd.obj
 0002:0000d7f4       PJ_SO_SNDBUF               00000001400397f4     pjlib-x86_64-x64-vc14-release:sock_bsd.obj
 0002:0000d7f8       PJ_TCP_NODELAY             00000001400397f8     pjlib-x86_64-x64-vc14-release:sock_bsd.obj
 0002:0000d7fc       PJ_SO_REUSEADDR            00000001400397fc     pjlib-x86_64-x64-vc14-release:sock_bsd.obj
 0002:0000d800       PJ_SO_NOSIGPIPE            0000000140039800     pjlib-x86_64-x64-vc14-release:sock_bsd.obj
 0002:0000d804       PJ_SO_PRIORITY             0000000140039804     pjlib-x86_64-x64-vc14-release:sock_bsd.obj
 0002:0000d808       PJ_IP_MULTICAST_IF         0000000140039808     pjlib-x86_64-x64-vc14-release:sock_bsd.obj
 0002:0000d80c       PJ_IP_MULTICAST_TTL        000000014003980c     pjlib-x86_64-x64-vc14-release:sock_bsd.obj
 0002:0000d810       PJ_IP_MULTICAST_LOOP       0000000140039810     pjlib-x86_64-x64-vc14-release:sock_bsd.obj
 0002:0000d814       PJ_IP_ADD_MEMBERSHIP       0000000140039814     pjlib-x86_64-x64-vc14-release:sock_bsd.obj
 0002:0000d818       PJ_IP_DROP_MEMBERSHIP      0000000140039818     pjlib-x86_64-x64-vc14-release:sock_bsd.obj
 0002:0000d81c       PJ_MSG_OOB                 000000014003981c     pjlib-x86_64-x64-vc14-release:sock_bsd.obj
 0002:0000d820       PJ_MSG_PEEK                0000000140039820     pjlib-x86_64-x64-vc14-release:sock_bsd.obj
 0002:0000d824       PJ_MSG_DONTROUTE           0000000140039824     pjlib-x86_64-x64-vc14-release:sock_bsd.obj
 0002:0000d830       ??_C@_0HJ@FIMAEFMM@C?3?2Users?2WerBinIch?2Documents?2gi@ 0000000140039830     pjlib-x86_64-x64-vc14-release:sock_bsd.obj
 0002:0000d8b0       ??_C@_0CD@KFHCCJFN@?$CB?$CB?$CBFATAL?3?5unhandled?5exception?5?$CF@ 00000001400398b0     pjlib-x86_64-x64-vc14-release:except.obj
 0002:0000d8d8       ??_C@_08PDFMOJIE@except?4c@ 00000001400398d8     pjlib-x86_64-x64-vc14-release:except.obj
 0002:0000d8e8       ??_C@_0N@GJOLEKJC@?$DMInvalid?5ID?$DO@ 00000001400398e8     pjlib-x86_64-x64-vc14-release:except.obj
 0002:0000d8f8       ??_C@_0N@LJPLLMIL@exception?5?$CFd@ 00000001400398f8     pjlib-x86_64-x64-vc14-release:except.obj
 0002:0000d908       __real@408f400000000000    0000000140039908     pjlib-x86_64-x64-vc14-release:os_timestamp_common.obj
 0002:0000d910       __real@41cdcd6500000000    0000000140039910     pjlib-x86_64-x64-vc14-release:os_timestamp_common.obj
 0002:0000d920       ??_C@_0HF@NBEBOKHE@C?3?2Users?2WerBinIch?2Documents?2gi@ 0000000140039920     pjlib-x86_64-x64-vc14-release:rand.obj
 0002:0000d998       PJ_GUID_STRING_LENGTH      0000000140039998     pjlib-x86_64-x64-vc14-release:guid_win32.obj
 0002:0000d9a0       ??_C@_0HL@CBGAAIJG@C?3?2Users?2WerBinIch?2Documents?2gi@ 00000001400399a0     pjlib-x86_64-x64-vc14-release:guid_win32.obj
 0002:0000da20       ??_C@_08DOCHLGNA@config?4c@ 0000000140039a20     pjlib-x86_64-x64-vc14-release:config.obj
 0002:0000da2c       ??_C@_04FIDOICFN@2?410@    0000000140039a2c     pjlib-x86_64-x64-vc14-release:config.obj
 0002:0000da40       ??_C@_0IC@EGBMPJBH@C?3?2Users?2WerBinIch?2Documents?2gi@ 0000000140039a40     pjlib-x86_64-x64-vc14-release:log_writer_stdout.obj
 0002:0000dac4       ??_C@_02DKCKIIND@?$CFs@    0000000140039ac4     pjlib-x86_64-x64-vc14-release:log_writer_stdout.obj
 0002:0000dad0       ??_C@_0HG@MOKOJEDC@C?3?2Users?2WerBinIch?2Documents?2gi@ 0000000140039ad0     pjlib-x86_64-x64-vc14-release:types.obj
 0002:0000db50       ??_C@_0HM@EBJOKIJP@C?3?2Users?2WerBinIch?2Documents?2gi@ 0000000140039b50     pjlib-x86_64-x64-vc14-release:sock_select.obj
 0002:0000dbd0       ??_C@_0EJ@GHABDNKB@No?5playback?5frame?5available?5?$CIyo@ 0000000140039bd0     libspeex-x86_64-x64-vc14-release:mdf.obj
 0002:0000dc20       ??_C@_0M@FDFEAFGN@warning?3?5?$CFs@ 0000000140039c20     libspeex-x86_64-x64-vc14-release:mdf.obj
 0002:0000dc2c       ??_C@_05JPFLDMPI@speex@    0000000140039c2c     libspeex-x86_64-x64-vc14-release:mdf.obj
 0002:0000dc38       ??_C@_0CF@JGKBANKE@internal?5playback?5buffer?5corrup@ 0000000140039c38     libspeex-x86_64-x64-vc14-release:mdf.obj
 0002:0000dc60       ??_C@_0BP@HJHBOHLA@discarded?5first?5playback?5frame@ 0000000140039c60     libspeex-x86_64-x64-vc14-release:mdf.obj
 0002:0000dc80       ??_C@_0EF@JCPCCFEP@Auto?9filling?5the?5buffer?5?$CIyour?5a@ 0000000140039c80     libspeex-x86_64-x64-vc14-release:mdf.obj
 0002:0000dcd0       ??_C@_0EN@KMLFENGK@Had?5to?5discard?5a?5playback?5frame@ 0000000140039cd0     libspeex-x86_64-x64-vc14-release:mdf.obj
 0002:0000dd20       ??_C@_0FP@LGAMLFHE@The?5echo?5canceller?5started?5acti@ 0000000140039d20     libspeex-x86_64-x64-vc14-release:mdf.obj
 0002:0000dd80       ??_C@_0CB@DEGFPNC@Unknown?5speex_echo_ctl?5request?3@ 0000000140039d80     libspeex-x86_64-x64-vc14-release:mdf.obj
 0002:0000dda8       ??_C@_0BA@JHIGFAJK@warning?3?5?$CFs?3?5?$CFd@ 0000000140039da8     libspeex-x86_64-x64-vc14-release:mdf.obj
 0002:0000ddb8       __real@3ba3d70a            0000000140039db8     libspeex-x86_64-x64-vc14-release:mdf.obj
 0002:0000ddbc       __real@3cf5c28f            0000000140039dbc     libspeex-x86_64-x64-vc14-release:mdf.obj
 0002:0000ddc0       __real@3dcccccd            0000000140039dc0     libspeex-x86_64-x64-vc14-release:mdf.obj
 0002:0000ddc4       __real@3e19999a            0000000140039dc4     libspeex-x86_64-x64-vc14-release:mdf.obj
 0002:0000ddc8       __real@3e800000            0000000140039dc8     libspeex-x86_64-x64-vc14-release:mdf.obj
 0002:0000ddcc       __real@3eb851ec            0000000140039dcc     libspeex-x86_64-x64-vc14-release:mdf.obj
 0002:0000ddd0       __real@3ecccccd            0000000140039dd0     libspeex-x86_64-x64-vc14-release:mdf.obj
 0002:0000ddd4       __real@3f19999a            0000000140039dd4     libspeex-x86_64-x64-vc14-release:mdf.obj
 0002:0000ddd8       __real@3f1a36e2eb1c432d    0000000140039dd8     libspeex-x86_64-x64-vc14-release:mdf.obj
 0002:0000dde0       __real@3f38f5c3            0000000140039de0     libspeex-x86_64-x64-vc14-release:mdf.obj
 0002:0000dde4       __real@3f4ccccd            0000000140039de4     libspeex-x86_64-x64-vc14-release:mdf.obj
 0002:0000dde8       __real@3f59999a            0000000140039de8     libspeex-x86_64-x64-vc14-release:mdf.obj
 0002:0000ddf0       __real@3fd0000000000000    0000000140039df0     libspeex-x86_64-x64-vc14-release:mdf.obj
 0002:0000ddf8       __real@3fd3333333333333    0000000140039df8     libspeex-x86_64-x64-vc14-release:mdf.obj
 0002:0000de00       __real@3fd6666666666666    0000000140039e00     libspeex-x86_64-x64-vc14-release:mdf.obj
 0002:0000de08       __real@3fe6666666666666    0000000140039e08     libspeex-x86_64-x64-vc14-release:mdf.obj
 0002:0000de10       __real@4008000000000000    0000000140039e10     libspeex-x86_64-x64-vc14-release:mdf.obj
 0002:0000de18       __real@4019999a            0000000140039e18     libspeex-x86_64-x64-vc14-release:mdf.obj
 0002:0000de1c       __real@40800000            0000000140039e1c     libspeex-x86_64-x64-vc14-release:mdf.obj
 0002:0000de20       __real@42c80000            0000000140039e20     libspeex-x86_64-x64-vc14-release:mdf.obj
 0002:0000de24       __real@45fa0000            0000000140039e24     libspeex-x86_64-x64-vc14-release:mdf.obj
 0002:0000de28       __real@461c4000            0000000140039e28     libspeex-x86_64-x64-vc14-release:mdf.obj
 0002:0000de2c       __real@467ffc00            0000000140039e2c     libspeex-x86_64-x64-vc14-release:mdf.obj
 0002:0000de30       __real@46fffd00            0000000140039e30     libspeex-x86_64-x64-vc14-release:mdf.obj
 0002:0000de34       __real@46fffe00            0000000140039e34     libspeex-x86_64-x64-vc14-release:mdf.obj
 0002:0000de38       __real@c6ffff00            0000000140039e38     libspeex-x86_64-x64-vc14-release:mdf.obj
 0002:0000de40       __xmm@3f7d70a43f7d70a43f7d70a43f7d70a4 0000000140039e40     libspeex-x86_64-x64-vc14-release:mdf.obj
 0002:0000de50       __real@3f847ae147ae147b    0000000140039e50     libspeex-x86_64-x64-vc14-release:scal.obj
 0002:0000de58       __real@3fa47ae147ae147b    0000000140039e58     libspeex-x86_64-x64-vc14-release:scal.obj
 0002:0000de60       __real@3fd999999999999a    0000000140039e60     libspeex-x86_64-x64-vc14-release:scal.obj
 0002:0000de68       __real@3fe43d1cc100e6b0    0000000140039e68     libspeex-x86_64-x64-vc14-release:scal.obj
 0002:0000de70       __real@3feeb851eb851eb8    0000000140039e70     libspeex-x86_64-x64-vc14-release:scal.obj
 0002:0000de78       __real@3fef5c28f5c28f5c    0000000140039e78     libspeex-x86_64-x64-vc14-release:scal.obj
 0002:0000de80       __real@3ff921fb54442d18    0000000140039e80     libspeex-x86_64-x64-vc14-release:scal.obj
 0002:0000de88       __real@400921fb54442d18    0000000140039e88     libspeex-x86_64-x64-vc14-release:scal.obj
 0002:0000de90       __real@c6fffe00            0000000140039e90     libspeex-x86_64-x64-vc14-release:scal.obj
 0002:0000def8       ??_C@_0DP@GLHJBLIP@The?5VAD?5has?5been?5replaced?5by?5a?5@ 0000000140039ef8     libspeex-x86_64-x64-vc14-release:preprocess.obj
 0002:0000df38       ??_C@_0CH@BPNBAON@Unknown?5speex_preprocess_ctl?5re@ 0000000140039f38     libspeex-x86_64-x64-vc14-release:preprocess.obj
 0002:0000df60       __real@38d1b717            0000000140039f60     libspeex-x86_64-x64-vc14-release:preprocess.obj
 0002:0000df64       __real@3a83126f            0000000140039f64     libspeex-x86_64-x64-vc14-release:preprocess.obj
 0002:0000df68       __real@3c23d70a            0000000140039f68     libspeex-x86_64-x64-vc14-release:preprocess.obj
 0002:0000df6c       __real@3d4ccccd            0000000140039f6c     libspeex-x86_64-x64-vc14-release:preprocess.obj
 0002:0000df70       __real@3d99999a            0000000140039f70     libspeex-x86_64-x64-vc14-release:preprocess.obj
 0002:0000df74       __real@3debc947            0000000140039f74     libspeex-x86_64-x64-vc14-release:preprocess.obj
 0002:0000df78       __real@3e4bc6a8            0000000140039f78     libspeex-x86_64-x64-vc14-release:preprocess.obj
 0002:0000df7c       __real@3e4ccccd            0000000140039f7c     libspeex-x86_64-x64-vc14-release:preprocess.obj
 0002:0000df80       __real@3e6bc8e2            0000000140039f80     libspeex-x86_64-x64-vc14-release:preprocess.obj
 0002:0000df84       __real@3e99999a            0000000140039f84     libspeex-x86_64-x64-vc14-release:preprocess.obj
 0002:0000df88       __real@3eaa7efa            0000000140039f88     libspeex-x86_64-x64-vc14-release:preprocess.obj
 0002:0000df8c       __real@3eb33333            0000000140039f8c     libspeex-x86_64-x64-vc14-release:preprocess.obj
 0002:0000df90       __real@3f333333            0000000140039f90     libspeex-x86_64-x64-vc14-release:preprocess.obj
 0002:0000df94       __real@3f63d70a            0000000140039f94     libspeex-x86_64-x64-vc14-release:preprocess.obj
 0002:0000df98       __real@3f6624dd            0000000140039f98     libspeex-x86_64-x64-vc14-release:preprocess.obj
 0002:0000dfa0       __real@3f9eb851eb851eb8    0000000140039fa0     libspeex-x86_64-x64-vc14-release:preprocess.obj
 0002:0000dfa8       __real@3fa2cdb8            0000000140039fa8     libspeex-x86_64-x64-vc14-release:preprocess.obj
 0002:0000dfb0       __real@3fc096bb98c7e282    0000000140039fb0     libspeex-x86_64-x64-vc14-release:preprocess.obj
 0002:0000dfb8       __real@3fc999999999999a    0000000140039fb8     libspeex-x86_64-x64-vc14-release:preprocess.obj
 0002:0000dfc0       __real@3fe75c2900000000    0000000140039fc0     libspeex-x86_64-x64-vc14-release:preprocess.obj
 0002:0000dfc8       __real@3ff61adea8000000    0000000140039fc8     libspeex-x86_64-x64-vc14-release:preprocess.obj
 0002:0000dfd0       __real@40000000            0000000140039fd0     libspeex-x86_64-x64-vc14-release:preprocess.obj
 0002:0000dfd8       __real@4014000000000000    0000000140039fd8     libspeex-x86_64-x64-vc14-release:preprocess.obj
 0002:0000dfe0       __real@40215f212d773190    0000000140039fe0     libspeex-x86_64-x64-vc14-release:preprocess.obj
 0002:0000dfe8       __real@456d8000            0000000140039fe8     libspeex-x86_64-x64-vc14-release:preprocess.obj
 0002:0000dfec       __real@467a0000            0000000140039fec     libspeex-x86_64-x64-vc14-release:preprocess.obj
 0002:0000dff0       __real@46dac000            0000000140039ff0     libspeex-x86_64-x64-vc14-release:preprocess.obj
 0002:0000dff4       __real@47000000            0000000140039ff4     libspeex-x86_64-x64-vc14-release:preprocess.obj
 0002:0000dff8       __real@495bba00            0000000140039ff8     libspeex-x86_64-x64-vc14-release:preprocess.obj
 0002:0000dffc       __real@4e6e6b28            0000000140039ffc     libspeex-x86_64-x64-vc14-release:preprocess.obj
 0002:0000e000       __real@bf000000            000000014003a000     libspeex-x86_64-x64-vc14-release:preprocess.obj
 0002:0000e008       __real@bfc99999a0000000    000000014003a008     libspeex-x86_64-x64-vc14-release:preprocess.obj
 0002:0000e010       __real@c0000000            000000014003a010     libspeex-x86_64-x64-vc14-release:preprocess.obj
 0002:0000e018       __real@c0126bb98c000000    000000014003a018     libspeex-x86_64-x64-vc14-release:preprocess.obj
 0002:0000e020       __xmm@3d4ccccd3d4ccccd3d4ccccd3d4ccccd 000000014003a020     libspeex-x86_64-x64-vc14-release:preprocess.obj
 0002:0000e030       __xmm@3d99999a3d99999a3d99999a3d99999a 000000014003a030     libspeex-x86_64-x64-vc14-release:preprocess.obj
 0002:0000e040       __xmm@3dcccccd3dcccccd3dcccccd3dcccccd 000000014003a040     libspeex-x86_64-x64-vc14-release:preprocess.obj
 0002:0000e050       __xmm@3e19999a3e19999a3e19999a3e19999a 000000014003a050     libspeex-x86_64-x64-vc14-release:preprocess.obj
 0002:0000e060       __xmm@3e99999a3e99999a3e99999a3e99999a 000000014003a060     libspeex-x86_64-x64-vc14-release:preprocess.obj
 0002:0000e070       __xmm@3f19999a3f19999a3f19999a3f19999a 000000014003a070     libspeex-x86_64-x64-vc14-release:preprocess.obj
 0002:0000e080       __xmm@3f3333333f3333333f3333333f333333 000000014003a080     libspeex-x86_64-x64-vc14-release:preprocess.obj
 0002:0000e090       __xmm@3f4ccccd3f4ccccd3f4ccccd3f4ccccd 000000014003a090     libspeex-x86_64-x64-vc14-release:preprocess.obj
 0002:0000e0a0       __xmm@3f63d70a3f63d70a3f63d70a3f63d70a 000000014003a0a0     libspeex-x86_64-x64-vc14-release:preprocess.obj
 0002:0000e0b0       __xmm@3f8000003f8000003f8000003f800000 000000014003a0b0     libspeex-x86_64-x64-vc14-release:preprocess.obj
 0002:0000e0c0       __xmm@42c8000042c8000042c8000042c80000 000000014003a0c0     libspeex-x86_64-x64-vc14-release:preprocess.obj
 0002:0000e0d0       __xmm@7fffffff7fffffff7fffffff7fffffff 000000014003a0d0     libspeex-x86_64-x64-vc14-release:preprocess.obj
 0002:0000e0e0       __xmm@7fffffffffffffff7fffffffffffffff 000000014003a0e0     libspeex-x86_64-x64-vc14-release:preprocess.obj
 0002:0000e0f0       ??_C@_0CA@EIAGMGLH@FFT?5should?5not?5be?5done?5in?9place@ 000000014003a0f0     libspeex-x86_64-x64-vc14-release:fftwrap.obj
 0002:0000e110       __real@329ee9ee            000000014003a110     libspeex-x86_64-x64-vc14-release:filterbank.obj
 0002:0000e114       __real@3a41fc8f            000000014003a114     libspeex-x86_64-x64-vc14-release:filterbank.obj
 0002:0000e118       __real@4001eb8520000000    000000014003a118     libspeex-x86_64-x64-vc14-release:filterbank.obj
 0002:0000e120       __real@402a333340000000    000000014003a120     libspeex-x86_64-x64-vc14-release:filterbank.obj
 0002:0000e128       ??_C@_04DKFOEDJA@srtp@     000000014003a128     libsrtp-x86_64-x64-vc14-release:srtp.obj
 0002:0000e130       ??_C@_0CD@KFGKPJOG@?$CFs?3?5cloning?5stream?5?$CISSRC?3?50x?$CF08@ 000000014003a130     libsrtp-x86_64-x64-vc14-release:srtp.obj
 0002:0000e158       ??_C@_0BG@DDGAJBGL@?$CFs?3?5srtp?5key?5len?3?5?$CFd?6@ 000000014003a158     libsrtp-x86_64-x64-vc14-release:srtp.obj
 0002:0000e170       ??_C@_0BH@DGNFCKJN@?$CFs?3?5srtcp?5key?5len?3?5?$CFd?6@ 000000014003a170     libsrtp-x86_64-x64-vc14-release:srtp.obj
 0002:0000e188       ??_C@_0BG@DMEGGANK@?$CFs?3?5base?5key?5len?3?5?$CFd?6@ 000000014003a188     libsrtp-x86_64-x64-vc14-release:srtp.obj
 0002:0000e1a0       ??_C@_0BF@HLIACONN@?$CFs?3?5kdf?5key?5len?3?5?$CFd?6@ 000000014003a1a0     libsrtp-x86_64-x64-vc14-release:srtp.obj
 0002:0000e1b8       ??_C@_0BG@BGKGMHMB@?$CFs?3?5rtp?5salt?5len?3?5?$CFd?6@ 000000014003a1b8     libsrtp-x86_64-x64-vc14-release:srtp.obj
 0002:0000e1d0       ??_C@_0BE@PGOGLMMP@?$CFs?3?5cipher?5key?3?5?$CFs?6@ 000000014003a1d0     libsrtp-x86_64-x64-vc14-release:srtp.obj
 0002:0000e1e8       ??_C@_0CN@BDCDAMHJ@?$CFs?3?5found?5rtp_salt_len?5?$DO?50?0?5gen@ 000000014003a1e8     libsrtp-x86_64-x64-vc14-release:srtp.obj
 0002:0000e218       ??_C@_0BF@GHNDNNEA@?$CFs?3?5cipher?5salt?3?5?$CFs?6@ 000000014003a218     libsrtp-x86_64-x64-vc14-release:srtp.obj
 0002:0000e230       ??_C@_0BP@LJKEDGBP@?$CFs?3?5extensions?5cipher?5key?3?5?$CFs?6@ 000000014003a230     libsrtp-x86_64-x64-vc14-release:srtp.obj
 0002:0000e250       ??_C@_0DF@NJKDAIDN@?$CFs?3?5found?5rtp_xtn_hdr_salt_len?5@ 000000014003a250     libsrtp-x86_64-x64-vc14-release:srtp.obj
 0002:0000e288       ??_C@_0CA@OBEPENBO@?$CFs?3?5extensions?5cipher?5salt?3?5?$CFs?6@ 000000014003a288     libsrtp-x86_64-x64-vc14-release:srtp.obj
 0002:0000e2a8       ??_C@_0BE@HGKFNAFC@?$CFs?3?5auth?5key?3?5?5?5?$CFs?6@ 000000014003a2a8     libsrtp-x86_64-x64-vc14-release:srtp.obj
 0002:0000e2c0       ??_C@_0BH@KOPGGCNO@?$CFs?3?5rtcp?5salt?5len?3?5?$CFd?6@ 000000014003a2c0     libsrtp-x86_64-x64-vc14-release:srtp.obj
 0002:0000e2d8       ??_C@_0DD@DNDBGLG@?$CFs?3?5found?5rtcp_salt_len?5?$DO?50?0?5ge@ 000000014003a2d8     libsrtp-x86_64-x64-vc14-release:srtp.obj
 0002:0000e310       ??_C@_0BJ@KAKGCCMO@?$CFs?3?5rtcp?5cipher?5key?3?5?$CFs?6@ 000000014003a310     libsrtp-x86_64-x64-vc14-release:srtp.obj
 0002:0000e330       ??_C@_0BK@BAICKNEI@?$CFs?3?5rtcp?5cipher?5salt?3?5?$CFs?6@ 000000014003a330     libsrtp-x86_64-x64-vc14-release:srtp.obj
 0002:0000e350       ??_C@_0BJ@CAOFEOFD@?$CFs?3?5rtcp?5auth?5key?3?5?5?5?$CFs?6@ 000000014003a350     libsrtp-x86_64-x64-vc14-release:srtp.obj
 0002:0000e370       ??_C@_0CI@PDNDGOMA@?$CFs?3?5initializing?5stream?5?$CISSRC?3?5@ 000000014003a370     libsrtp-x86_64-x64-vc14-release:srtp.obj
 0002:0000e398       ??_C@_0BH@GAKJJGLB@srtp?3?5in?5stream?50x?$CFx?3?5@ 000000014003a398     libsrtp-x86_64-x64-vc14-release:srtp.obj
 0002:0000e3b0       ??_C@_0BB@PPFALDPP@?7SSRC?5collision?6@ 000000014003a3b0     libsrtp-x86_64-x64-vc14-release:srtp.obj
 0002:0000e3c8       ??_C@_0BP@HOEKLBIN@?7key?5usage?5soft?5limit?5reached?6@ 000000014003a3c8     libsrtp-x86_64-x64-vc14-release:srtp.obj
 0002:0000e3e8       ??_C@_0BP@KNJIFCF@?7key?5usage?5hard?5limit?5reached?6@ 000000014003a3e8     libsrtp-x86_64-x64-vc14-release:srtp.obj
 0002:0000e408       ??_C@_0BN@MKCGGAOP@?7packet?5index?5limit?5reached?6@ 000000014003a408     libsrtp-x86_64-x64-vc14-release:srtp.obj
 0002:0000e428       ??_C@_0CE@FFJEPPID@?7unknown?5event?5reported?5to?5hand@ 000000014003a428     libsrtp-x86_64-x64-vc14-release:srtp.obj
 0002:0000e450       ??_C@_0BN@IJKEFIPG@?$CFs?3?5Pre?9salted?5RTP?5IV?5?$DN?5?$CFs?6?6@ 000000014003a450     libsrtp-x86_64-x64-vc14-release:srtp.obj
 0002:0000e470       ??_C@_0BE@MNMIOELF@?$CFs?3?5RTP?5SALT?5?$DN?5?$CFs?6?6@ 000000014003a470     libsrtp-x86_64-x64-vc14-release:srtp.obj
 0002:0000e488       ??_C@_0CH@MOHBLIMO@?$CFs?3?5estimated?5u_packet?5index?3?5?$CF@ 000000014003a488     libsrtp-x86_64-x64-vc14-release:srtp.obj
 0002:0000e4b0       ??_C@_0CA@OMJPHCHL@?$CFs?3?5function?5srtp_protect_aead?6@ 000000014003a4b0     libsrtp-x86_64-x64-vc14-release:srtp.obj
 0002:0000e4d0       ??_C@_0CF@PEPHCKJP@?$CFs?3?5estimated?5packet?5index?3?5?$CF01@ 000000014003a4d0     libsrtp-x86_64-x64-vc14-release:srtp.obj
 0002:0000e4f8       ??_C@_0CC@KIGABHOG@?$CFs?3?5function?5srtp_unprotect_aea@ 000000014003a4f8     libsrtp-x86_64-x64-vc14-release:srtp.obj
 0002:0000e520       ??_C@_0BL@MADNODBC@?$CFs?3?5function?5srtp_protect?6@ 000000014003a520     libsrtp-x86_64-x64-vc14-release:srtp.obj
 0002:0000e540       ??_C@_0BK@KLBGMJPP@?$CFs?3?5keystream?5prefix?3?5?$CFs?6@ 000000014003a540     libsrtp-x86_64-x64-vc14-release:srtp.obj
 0002:0000e560       ??_C@_0BK@GCKOFNLP@?$CFs?3?5srtp?5auth?5tag?3?5?5?5?5?$CFs?6@ 000000014003a560     libsrtp-x86_64-x64-vc14-release:srtp.obj
 0002:0000e580       ??_C@_0BN@LADOAJPP@?$CFs?3?5function?5srtp_unprotect?6@ 000000014003a580     libsrtp-x86_64-x64-vc14-release:srtp.obj
 0002:0000e5a0       ??_C@_0CN@PJAKIEAG@?$CFs?3?5using?5provisional?5stream?5?$CIS@ 000000014003a5a0     libsrtp-x86_64-x64-vc14-release:srtp.obj
 0002:0000e5d0       ??_C@_0BO@BONEKIBH@?$CFs?3?5computed?5auth?5tag?3?5?5?5?5?$CFs?6@ 000000014003a5d0     libsrtp-x86_64-x64-vc14-release:srtp.obj
 0002:0000e5f0       ??_C@_0BO@KMHOFFAA@?$CFs?3?5packet?5auth?5tag?3?5?5?5?5?5?5?$CFs?6@ 000000014003a5f0     libsrtp-x86_64-x64-vc14-release:srtp.obj
 0002:0000e610       ??_C@_0BO@ONKEAFKG@?$CFs?3?5Pre?9salted?5RTCP?5IV?5?$DN?5?$CFs?6?6@ 000000014003a610     libsrtp-x86_64-x64-vc14-release:srtp.obj
 0002:0000e630       ??_C@_0BF@FLPIMBMP@?$CFs?3?5RTCP?5SALT?5?$DN?5?$CFs?6?6@ 000000014003a630     libsrtp-x86_64-x64-vc14-release:srtp.obj
 0002:0000e648       ??_C@_0BF@JBCKCIAJ@?$CFs?3?5srtcp?5index?3?5?$CFx?6@ 000000014003a648     libsrtp-x86_64-x64-vc14-release:srtp.obj
 0002:0000e660       ??_C@_0BL@OBHAKLEH@?$CFs?3?5srtcp?5auth?5tag?3?5?5?5?5?$CFs?6@ 000000014003a660     libsrtp-x86_64-x64-vc14-release:srtp.obj
 0002:0000e680       ??_C@_0DD@HHOLLDKC@?$CFs?3?5srtcp?5using?5provisional?5str@ 000000014003a680     libsrtp-x86_64-x64-vc14-release:srtp.obj
 0002:0000e6b8       ??_C@_0CC@IMKDPKDI@?$CFs?3?5srtcp?5computed?5tag?3?5?5?5?5?5?5?5?$CF@ 000000014003a6b8     libsrtp-x86_64-x64-vc14-release:srtp.obj
 0002:0000e6e0       ??_C@_0CC@GFCANNPL@?$CFs?3?5srtcp?5tag?5from?5packet?3?5?5?5?5?$CF@ 000000014003a6e0     libsrtp-x86_64-x64-vc14-release:srtp.obj
 0002:0000e704       ??_C@_05KNPMOECN@alloc@    000000014003a704     libsrtp-x86_64-x64-vc14-release:alloc.obj
 0002:0000e710       ??_C@_0BO@KJOGHNGM@?$CFs?3?5?$CIlocation?3?5?$CFp?$CJ?5allocated?6@ 000000014003a710     libsrtp-x86_64-x64-vc14-release:alloc.obj
 0002:0000e730       ??_C@_0CN@JJLNACEJ@?$CFs?3?5allocation?5failed?5?$CIasked?5fo@ 000000014003a730     libsrtp-x86_64-x64-vc14-release:alloc.obj
 0002:0000e760       ??_C@_0BK@BNKOPMHD@?$CFs?3?5?$CIlocation?3?5?$CFp?$CJ?5freed?6@ 000000014003a760     libsrtp-x86_64-x64-vc14-release:alloc.obj
 0002:0000e780       __xmm@66656463626139383736353433323130 000000014003a780     libsrtp-x86_64-x64-vc14-release:datatypes.obj
 0002:0000e790       ??_C@_07EFAIHJHH@libsrtp@  000000014003a790     libsrtp-x86_64-x64-vc14-release:srtp_err.obj
 0002:0000e798       ??_C@_06KDGDAFPH@cipher@   000000014003a798     libsrtp-x86_64-x64-vc14-release:cipher.obj
 0002:0000e7a0       ??_C@_09EJIBOKIO@auth?5func@ 000000014003a7a0     libsrtp-x86_64-x64-vc14-release:auth.obj
 0002:0000e7b0       ??_C@_0O@MIKIJNFL@crypto?5kernel@ 000000014003a7b0     libsrtp-x86_64-x64-vc14-release:crypto_kernel.obj
 0002:0000e7c0       ??_C@_0BE@ICAFLID@?$CFs?3?5EKT?5not?5in?5use?6@ 000000014003a7c0     libsrtp-x86_64-x64-vc14-release:ekt.obj
 0002:0000e7d8       ??_C@_0BK@CMOOGLJH@?$CFs?3?5writing?5EKT?5EMK?3?5?$CFs?0?6@ 000000014003a7d8     libsrtp-x86_64-x64-vc14-release:ekt.obj
 0002:0000e7f8       ??_C@_0BK@BEIPMCDF@?$CFs?3?5writing?5EKT?5ROC?3?5?$CFs?0?6@ 000000014003a7f8     libsrtp-x86_64-x64-vc14-release:ekt.obj
 0002:0000e818       ??_C@_0BK@BKDABMJO@?$CFs?3?5writing?5EKT?5ISN?3?5?$CFs?0?6@ 000000014003a818     libsrtp-x86_64-x64-vc14-release:ekt.obj
 0002:0000e838       ??_C@_0BK@BJPEDIGD@?$CFs?3?5writing?5EKT?5SPI?3?5?$CFs?0?6@ 000000014003a838     libsrtp-x86_64-x64-vc14-release:ekt.obj
 0002:0000e858       ??_C@_09LCMAEBCF@stat?5test@ 000000014003a858     libsrtp-x86_64-x64-vc14-release:stat.obj
 0002:0000e868       ??_C@_0CK@DAFEFAPH@?$CFs?3?5allocating?5cipher?5with?5key?5@ 000000014003a868     libsrtp-x86_64-x64-vc14-release:null_cipher.obj
 0002:0000e898       ??_C@_0BO@HCJFKKEE@?$CFs?3?5initializing?5null?5cipher?6@ 000000014003a898     libsrtp-x86_64-x64-vc14-release:null_cipher.obj
 0002:0000e930       srtp_null_cipher           000000014003a930     libsrtp-x86_64-x64-vc14-release:null_cipher.obj
 0002:0000e988       ??_C@_07MPIJGLIA@aes?5icm@ 000000014003a988     libsrtp-x86_64-x64-vc14-release:aes_icm.obj
 0002:0000e990       srtp_aes_icm_128           000000014003a990     libsrtp-x86_64-x64-vc14-release:aes_icm.obj
 0002:0000e9f0       srtp_aes_icm_256           000000014003a9f0     libsrtp-x86_64-x64-vc14-release:aes_icm.obj
 0002:0000ec18       ??_C@_0O@GFBJNBAD@?$CFs?3?5key?3?5?5?$CFs?6@ 000000014003ac18     libsrtp-x86_64-x64-vc14-release:aes_icm.obj
 0002:0000ec28       ??_C@_0BA@ILFEGDEM@?$CFs?3?5offset?3?5?$CFs?6@ 000000014003ac28     libsrtp-x86_64-x64-vc14-release:aes_icm.obj
 0002:0000ec38       ??_C@_0BE@ECIFEEKH@?$CFs?3?5setting?5iv?3?5?$CFs?6@ 000000014003ac38     libsrtp-x86_64-x64-vc14-release:aes_icm.obj
 0002:0000ec50       ??_C@_0BF@OAOEHNDM@?$CFs?3?5set_counter?3?5?$CFs?6@ 000000014003ac50     libsrtp-x86_64-x64-vc14-release:aes_icm.obj
 0002:0000ec68       ??_C@_0BE@ENJPOLAG@?$CFs?3?5counter?3?5?5?5?5?$CFs?6@ 000000014003ac68     libsrtp-x86_64-x64-vc14-release:aes_icm.obj
 0002:0000ec80       ??_C@_0BE@ILCAEFF@?$CFs?3?5ciphertext?3?5?$CFs?6@ 000000014003ac80     libsrtp-x86_64-x64-vc14-release:aes_icm.obj
 0002:0000ec98       ??_C@_0BF@BLBMMINO@?$CFs?3?5block?5index?3?5?$CFd?6@ 000000014003ac98     libsrtp-x86_64-x64-vc14-release:aes_icm.obj
 0002:0000ecb0       ??_C@_0CN@KBEHBKDH@?$CFs?3?5allocating?5auth?5func?5with?5k@ 000000014003acb0     libsrtp-x86_64-x64-vc14-release:null_auth.obj
 0002:0000ece0       ??_C@_0CN@FDNDBNFI@?$CFs?3?5?5?5?5?5?5?5?5?5?5?5?5?5?5?5?5?5?5?5?5?5?5?5?5?5?5?5t@ 000000014003ace0     libsrtp-x86_64-x64-vc14-release:null_auth.obj
 0002:0000ed70       srtp_null_auth             000000014003ad70     libsrtp-x86_64-x64-vc14-release:null_auth.obj
 0002:0000edb8       ??_C@_0L@NBBBLMAJ@hmac?5sha?91@ 000000014003adb8     libsrtp-x86_64-x64-vc14-release:hmac.obj
 0002:0000edc8       ??_C@_0O@PJECJPIJ@?$CFs?3?5ipad?3?5?$CFs?6@ 000000014003adc8     libsrtp-x86_64-x64-vc14-release:hmac.obj
 0002:0000edd8       ??_C@_0P@JHGAOEEF@?$CFs?3?5input?3?5?$CFs?6@ 000000014003add8     libsrtp-x86_64-x64-vc14-release:hmac.obj
 0002:0000ede8       ??_C@_0BM@JABNBLDM@?$CFs?3?5intermediate?5state?3?5?$CFs?6@ 000000014003ade8     libsrtp-x86_64-x64-vc14-release:hmac.obj
 0002:0000ee08       ??_C@_0BA@NKCNJNLN@?$CFs?3?5output?3?5?$CFs?6@ 000000014003ae08     libsrtp-x86_64-x64-vc14-release:hmac.obj
 0002:0000eec0       srtp_hmac                  000000014003aec0     libsrtp-x86_64-x64-vc14-release:hmac.obj
 0002:0000ef10       __xmm@36363636363636363636363636363636 000000014003af10     libsrtp-x86_64-x64-vc14-release:hmac.obj
 0002:0000ef20       __xmm@5c5c5c5c5c5c5c5c5c5c5c5c5c5c5c5c 000000014003af20     libsrtp-x86_64-x64-vc14-release:hmac.obj
 0002:00011130       ??_C@_05BPJLFPNI@sha?91@   000000014003d130     libsrtp-x86_64-x64-vc14-release:sha1.obj
 0002:00011138       ??_C@_0CH@CIFCCFOE@?$CFs?3?5?$CIupdate?$CJ?5running?5srtp_sha1_@ 000000014003d138     libsrtp-x86_64-x64-vc14-release:sha1.obj
 0002:00011160       ??_C@_0CL@FECLBICF@?$CFs?3?5?$CIupdate?$CJ?5not?5running?5srtp_s@ 000000014003d160     libsrtp-x86_64-x64-vc14-release:sha1.obj
 0002:00011190       ??_C@_0CG@BBEKCMGE@?$CFs?3?5?$CIfinal?$CJ?5running?5srtp_sha1_c@ 000000014003d190     libsrtp-x86_64-x64-vc14-release:sha1.obj
 0002:000111b8       ??_C@_0CM@HEEFBAKO@?$CFs?3?5?$CIfinal?$CJ?5running?5srtp_sha1_c@ 000000014003d1b8     libsrtp-x86_64-x64-vc14-release:sha1.obj
 0002:00011220       _load_config_used          000000014003d220     MSVCRT:loadcfg.obj
 0002:00011380       __volatile_metadata        000000014003d380     <linker-defined>
 0002:00011658       __rtc_iaa                  000000014003d658     MSVCRT:initsect.obj
 0002:00011660       __rtc_izz                  000000014003d660     MSVCRT:initsect.obj
 0002:00011668       __rtc_taa                  000000014003d668     MSVCRT:initsect.obj
 0002:00011670       __rtc_tzz                  000000014003d670     MSVCRT:initsect.obj
 0002:0001469c       __IMPORT_DESCRIPTOR_ole32  000000014004069c     ole32:ole32.dll
 0002:000146b0       __IMPORT_DESCRIPTOR_WS2_32 00000001400406b0     ws2_32:WS2_32.dll
 0002:000146c4       __IMPORT_DESCRIPTOR_WINMM  00000001400406c4     winmm:WINMM.dll
 0002:000146d8       __IMPORT_DESCRIPTOR_KERNEL32 00000001400406d8     kernel32:KERNEL32.dll
 0002:000146ec       __IMPORT_DESCRIPTOR_VCRUNTIME140 00000001400406ec     vcruntime:VCRUNTIME140.dll
 0002:00014700       __IMPORT_DESCRIPTOR_api-ms-win-crt-stdio-l1-1-0 0000000140040700     ucrt:api-ms-win-crt-stdio-l1-1-0.dll
 0002:00014714       __IMPORT_DESCRIPTOR_api-ms-win-crt-string-l1-1-0 0000000140040714     ucrt:api-ms-win-crt-string-l1-1-0.dll
 0002:00014728       __IMPORT_DESCRIPTOR_api-ms-win-crt-math-l1-1-0 0000000140040728     ucrt:api-ms-win-crt-math-l1-1-0.dll
 0002:0001473c       __IMPORT_DESCRIPTOR_api-ms-win-crt-heap-l1-1-0 000000014004073c     ucrt:api-ms-win-crt-heap-l1-1-0.dll
 0002:00014750       __IMPORT_DESCRIPTOR_api-ms-win-crt-utility-l1-1-0 0000000140040750     ucrt:api-ms-win-crt-utility-l1-1-0.dll
 0002:00014764       __IMPORT_DESCRIPTOR_api-ms-win-crt-runtime-l1-1-0 0000000140040764     ucrt:api-ms-win-crt-runtime-l1-1-0.dll
 0002:00014778       __IMPORT_DESCRIPTOR_api-ms-win-crt-locale-l1-1-0 0000000140040778     ucrt:api-ms-win-crt-locale-l1-1-0.dll
 0002:0001478c       __NULL_IMPORT_DESCRIPTOR   000000014004078c     ole32:ole32.dll
 0003:000001e0       pjmedia_add_rtpmap_for_static_pt 00000001400421e0     pjmedia-x86_64-x64-vc14-release:endpoint.obj
 0003:000001e4       pjmedia_add_bandwidth_tias_in_sdp 00000001400421e4     pjmedia-x86_64-x64-vc14-release:endpoint.obj
 0003:000006a0       pj_pool_factory_default_policy 00000001400426a0     pjlib-x86_64-x64-vc14-release:pool_policy_malloc.obj
 0003:000007f8       PJ_VERSION                 00000001400427f8     pjlib-x86_64-x64-vc14-release:config.obj
 0003:00000840       mod_srtp                   0000000140042840     libsrtp-x86_64-x64-vc14-release:srtp.obj
 0003:00000858       mod_alloc                  0000000140042858     libsrtp-x86_64-x64-vc14-release:alloc.obj
 0003:00000870       octet_weight               0000000140042870     libsrtp-x86_64-x64-vc14-release:datatypes.obj
 0003:00000c70       srtp_mod_cipher            0000000140042c70     libsrtp-x86_64-x64-vc14-release:cipher.obj
 0003:00000c80       srtp_mod_auth              0000000140042c80     libsrtp-x86_64-x64-vc14-release:auth.obj
 0003:00000c90       srtp_mod_crypto_kernel     0000000140042c90     libsrtp-x86_64-x64-vc14-release:crypto_kernel.obj
 0003:00000ca0       mod_stat                   0000000140042ca0     libsrtp-x86_64-x64-vc14-release:stat.obj
 0003:00000cb0       srtp_mod_aes_icm           0000000140042cb0     libsrtp-x86_64-x64-vc14-release:aes_icm.obj
 0003:00000cc0       srtp_mod_hmac              0000000140042cc0     libsrtp-x86_64-x64-vc14-release:hmac.obj
 0003:00000cd0       srtp_mod_sha1              0000000140042cd0     libsrtp-x86_64-x64-vc14-release:sha1.obj
 0003:00000ce0       SHA_K0                     0000000140042ce0     libsrtp-x86_64-x64-vc14-release:sha1.obj
 0003:00000ce4       SHA_K1                     0000000140042ce4     libsrtp-x86_64-x64-vc14-release:sha1.obj
 0003:00000ce8       SHA_K2                     0000000140042ce8     libsrtp-x86_64-x64-vc14-release:sha1.obj
 0003:00000cec       SHA_K3                     0000000140042cec     libsrtp-x86_64-x64-vc14-release:sha1.obj
 0003:00000cf0       __security_cookie_complement 0000000140042cf0     MSVCRT:gs_cookie.obj
 0003:00000cf8       __security_cookie          0000000140042cf8     MSVCRT:gs_cookie.obj
 0003:00000d00       _fltused                   0000000140042d00     MSVCRT:fltused.obj
 0003:00000d10       __scrt_native_dllmain_reason 0000000140042d10     MSVCRT:utility.obj
 0003:00000d14       __scrt_default_matherr     0000000140042d14     MSVCRT:matherr.obj
 0003:00000d18       __isa_available            0000000140042d18     MSVCRT:cpu_disp.obj
 0003:00000d1c       __isa_enabled              0000000140042d1c     MSVCRT:cpu_disp.obj
 0003:00000d20       __memcpy_nt_iters          0000000140042d20     MSVCRT:cpu_disp.obj
 0003:00000d28       __memset_nt_iters          0000000140042d28     MSVCRT:cpu_disp.obj
 0003:00000d30       __scrt_ucrt_dll_is_in_use  0000000140042d30     MSVCRT:ucrt_stubs.obj
 0003:000023d8       err_level                  00000001400443d8     libsrtp-x86_64-x64-vc14-release:srtp_err.obj
 0003:000023e0       crypto_kernel              00000001400443e0     libsrtp-x86_64-x64-vc14-release:crypto_kernel.obj
 0003:00002990       __scrt_current_native_startup_state 0000000140044990     MSVCRT:utility.obj
 0003:00002998       __scrt_native_startup_lock 0000000140044998     MSVCRT:utility.obj
 0003:000029e0       ?__type_info_root_node@@3U__type_info_node@@A 00000001400449e0     MSVCRT:tncleanup.obj
 0003:000029f0       __scrt_debugger_hook_flag  00000001400449f0     MSVCRT:utility_desktop.obj
 0003:000029f8       __castguard_check_failure_os_handled_fptr 00000001400449f8     MSVCRT:guard_support.obj
 0003:00002a00       __favor                    0000000140044a00     MSVCRT:cpu_disp.obj
 0003:00002a08       ?_OptionsStorage@?1??__local_stdio_printf_options@@9@9 0000000140044a08     <common>
 0003:00002a10       PJ_NO_MEMORY_EXCEPTION     0000000140044a10     <common>
 0003:00002a20       bit_string                 0000000140044a20     <common>
 0003:00002e20       ?_OptionsStorage@?1??__local_stdio_scanf_options@@9@9 0000000140044e20     <common>
 0003:00002e28       __dyn_tls_dtor_callback    0000000140044e28     <common>
 0003:00002e30       __dyn_tls_init_callback    0000000140044e30     <common>

 entry point at        0001:00029a10

 Static symbols

 0002:fffd4000       .idata$6                   0000000140000000     ucrt:api-ms-win-crt-time-l1-1-0.dll
 0001:00000000       PJMEDIA_SPF                0000000140001000 f   recfile.obj
 0001:00000030       PJMEDIA_AFD_SPF            0000000140001030 f   recfile.obj
 0001:00000060       PJMEDIA_PIA_SRATE          0000000140001060 f   recfile.obj
 0001:00000070       PJMEDIA_PIA_CCNT           0000000140001070 f   recfile.obj
 0001:00000080       PJMEDIA_PIA_BITS           0000000140001080 f   recfile.obj
 0001:00000090       PJMEDIA_PIA_SPF            0000000140001090 f   recfile.obj
 0001:000000c0       pjmedia_endpt_create       00000001400010c0 f   recfile.obj
 0001:00000130       pjmedia_endpt_destroy      0000000140001130 f   recfile.obj
 0001:00000150       app_perror                 0000000140001150 f   recfile.obj
 0001:00000850       factory_init               0000000140001850 f   pjmedia-audiodev-x86_64-x64-vc14-release:wmme_dev.obj
 0001:00000890       factory_destroy            0000000140001890 f   pjmedia-audiodev-x86_64-x64-vc14-release:wmme_dev.obj
 0001:000008d0       factory_refresh            00000001400018d0 f   pjmedia-audiodev-x86_64-x64-vc14-release:wmme_dev.obj
 0001:00000f20       factory_get_dev_count      0000000140001f20 f   pjmedia-audiodev-x86_64-x64-vc14-release:wmme_dev.obj
 0001:00000f30       factory_get_dev_info       0000000140001f30 f   pjmedia-audiodev-x86_64-x64-vc14-release:wmme_dev.obj
 0001:00000ff0       factory_default_param      0000000140001ff0 f   pjmedia-audiodev-x86_64-x64-vc14-release:wmme_dev.obj
 0001:000010d0       factory_create_stream      00000001400020d0 f   pjmedia-audiodev-x86_64-x64-vc14-release:wmme_dev.obj
 0001:00001410       stream_get_param           0000000140002410 f   pjmedia-audiodev-x86_64-x64-vc14-release:wmme_dev.obj
 0001:000014e0       stream_get_cap             00000001400024e0 f   pjmedia-audiodev-x86_64-x64-vc14-release:wmme_dev.obj
 0001:00001590       stream_set_cap             0000000140002590 f   pjmedia-audiodev-x86_64-x64-vc14-release:wmme_dev.obj
 0001:00001640       stream_start               0000000140002640 f   pjmedia-audiodev-x86_64-x64-vc14-release:wmme_dev.obj
 0001:000016d0       stream_stop                00000001400026d0 f   pjmedia-audiodev-x86_64-x64-vc14-release:wmme_dev.obj
 0001:00001770       stream_destroy             0000000140002770 f   pjmedia-audiodev-x86_64-x64-vc14-release:wmme_dev.obj
 0001:00001970       init_capture_stream        0000000140002970 f   pjmedia-audiodev-x86_64-x64-vc14-release:wmme_dev.obj
 0001:00001bf0       init_player_stream         0000000140002bf0 f   pjmedia-audiodev-x86_64-x64-vc14-release:wmme_dev.obj
 0001:00001e80       init_waveformatex          0000000140002e80 f   pjmedia-audiodev-x86_64-x64-vc14-release:wmme_dev.obj
 0001:00001fc0       wmme_dev_thread            0000000140002fc0 f   pjmedia-audiodev-x86_64-x64-vc14-release:wmme_dev.obj
 0001:00002ac0       worker_proc                0000000140003ac0 f   pjmedia-x86_64-x64-vc14-release:endpoint.obj
 0001:00003180       play_cb                    0000000140004180 f   pjmedia-x86_64-x64-vc14-release:sound_port.obj
 0001:000032c0       play_cb_ext                00000001400042c0 f   pjmedia-x86_64-x64-vc14-release:sound_port.obj
 0001:00003320       rec_cb                     0000000140004320 f   pjmedia-x86_64-x64-vc14-release:sound_port.obj
 0001:000033b0       rec_cb_ext                 00000001400043b0 f   pjmedia-x86_64-x64-vc14-release:sound_port.obj
 0001:00003400       start_sound_device         0000000140004400 f   pjmedia-x86_64-x64-vc14-release:sound_port.obj
 0001:00003620       file_get_frame             0000000140004620 f   pjmedia-x86_64-x64-vc14-release:wav_writer.obj
 0001:00003630       file_on_destroy            0000000140004630 f   pjmedia-x86_64-x64-vc14-release:wav_writer.obj
 0001:000037f0       file_on_event              00000001400047f0 f   pjmedia-x86_64-x64-vc14-release:wav_writer.obj
 0001:00003820       file_put_frame             0000000140004820 f   pjmedia-x86_64-x64-vc14-release:wav_writer.obj
 0001:00003d60       lookup_dev                 0000000140004d60 f   pjmedia-x86_64-x64-vc14-release:audiodev.obj
 0001:00003e60       make_global_index          0000000140004e60 f   pjmedia-x86_64-x64-vc14-release:audiodev.obj
 0001:00004560       event_queue_add_event      0000000140005560 f   pjmedia-x86_64-x64-vc14-release:event.obj
 0001:000055d0       transport_get_info         00000001400065d0 f   pjmedia-x86_64-x64-vc14-release:transport_srtp.obj
 0001:00005790       transport_detach           0000000140006790 f   pjmedia-x86_64-x64-vc14-release:transport_srtp.obj
 0001:00005800       transport_send_rtp         0000000140006800 f   pjmedia-x86_64-x64-vc14-release:transport_srtp.obj
 0001:000058e0       transport_send_rtcp        00000001400068e0 f   pjmedia-x86_64-x64-vc14-release:transport_srtp.obj
 0001:000059e0       transport_send_rtcp2       00000001400069e0 f   pjmedia-x86_64-x64-vc14-release:transport_srtp.obj
 0001:00005b00       transport_media_create     0000000140006b00 f   pjmedia-x86_64-x64-vc14-release:transport_srtp.obj
 0001:00005ce0       transport_encode_sdp       0000000140006ce0 f   pjmedia-x86_64-x64-vc14-release:transport_srtp.obj
 0001:00005f10       transport_media_start      0000000140006f10 f   pjmedia-x86_64-x64-vc14-release:transport_srtp.obj
 0001:000061e0       transport_media_stop       00000001400071e0 f   pjmedia-x86_64-x64-vc14-release:transport_srtp.obj
 0001:00006390       transport_simulate_lost    0000000140007390 f   pjmedia-x86_64-x64-vc14-release:transport_srtp.obj
 0001:000063b0       transport_destroy          00000001400073b0 f   pjmedia-x86_64-x64-vc14-release:transport_srtp.obj
 0001:00006460       transport_attach2          0000000140007460 f   pjmedia-x86_64-x64-vc14-release:transport_srtp.obj
 0001:00006630       sdes_media_create          0000000140007630 f   pjmedia-x86_64-x64-vc14-release:transport_srtp.obj
 0001:000066b0       sdes_encode_sdp            00000001400076b0 f   pjmedia-x86_64-x64-vc14-release:transport_srtp.obj
 0001:00006c00       sdes_media_start           0000000140007c00 f   pjmedia-x86_64-x64-vc14-release:transport_srtp.obj
 0001:00006f10       null_op                    0000000140007f10 f   pjlib-x86_64-x64-vc14-release:lock.obj
 0001:00006f10       sdes_media_stop            0000000140007f10 f   pjmedia-x86_64-x64-vc14-release:transport_srtp.obj
 0001:00006f10       srtp_null_auth_compute     0000000140007f10 f   libsrtp-x86_64-x64-vc14-release:null_auth.obj
 0001:00006f10       srtp_null_auth_init        0000000140007f10 f   libsrtp-x86_64-x64-vc14-release:null_auth.obj
 0001:00006f10       srtp_null_auth_start       0000000140007f10 f   libsrtp-x86_64-x64-vc14-release:null_auth.obj
 0001:00006f10       srtp_null_auth_update      0000000140007f10 f   libsrtp-x86_64-x64-vc14-release:null_auth.obj
 0001:00006f10       srtp_null_cipher_encrypt   0000000140007f10 f   libsrtp-x86_64-x64-vc14-release:null_cipher.obj
 0001:00006f10       srtp_null_cipher_set_iv    0000000140007f10 f   libsrtp-x86_64-x64-vc14-release:null_cipher.obj
 0001:00006f20       fill_local_crypto          0000000140007f20 f   pjmedia-x86_64-x64-vc14-release:transport_srtp.obj
 0001:000072f0       generate_crypto_attr_value 00000001400082f0 f   pjmedia-x86_64-x64-vc14-release:transport_srtp.obj
 0001:000075a0       get_crypto_idx             00000001400085a0 f   pjmedia-x86_64-x64-vc14-release:transport_srtp.obj
 0001:00007670       parse_attr_crypto          0000000140008670 f   pjmedia-x86_64-x64-vc14-release:transport_srtp.obj
 0001:00008040       srtp_rtcp_cb               0000000140009040 f   pjmedia-x86_64-x64-vc14-release:transport_srtp.obj
 0001:00008180       srtp_rtp_cb                0000000140009180 f   pjmedia-x86_64-x64-vc14-release:transport_srtp.obj
 0001:00008d20       echo_supp_update           0000000140009d20 f   pjmedia-x86_64-x64-vc14-release:echo_suppress.obj
 0001:00009950       pjmedia_circ_buf_adv_read_ptr 000000014000a950 f   pjmedia-x86_64-x64-vc14-release:delaybuf.obj
 0001:000099b0       pjmedia_circ_buf_read      000000014000a9b0 f   pjmedia-x86_64-x64-vc14-release:delaybuf.obj
 0001:00009aa0       pjmedia_circ_buf_write     000000014000aaa0 f   pjmedia-x86_64-x64-vc14-release:delaybuf.obj
 0001:0000a070       shrink_buffer              000000014000b070 f   pjmedia-x86_64-x64-vc14-release:delaybuf.obj
 0001:0000a110       update                     000000014000b110 f   pjmedia-x86_64-x64-vc14-release:delaybuf.obj
 0001:0000a240       compress                   000000014000b240 f   pjmedia-x86_64-x64-vc14-release:wsola.obj
 0001:0000a360       expand                     000000014000b360 f   pjmedia-x86_64-x64-vc14-release:wsola.obj
 0001:0000a4a0       fade_in                    000000014000b4a0 f   pjmedia-x86_64-x64-vc14-release:wsola.obj
 0001:0000a540       find_pitch                 000000014000b540 f   pjmedia-x86_64-x64-vc14-release:wsola.obj
 0001:0000a870       overlapp_add               000000014000b870 f   pjmedia-x86_64-x64-vc14-release:wsola.obj
 0001:0000aa40       overlapp_add_simple        000000014000ba40 f   pjmedia-x86_64-x64-vc14-release:wsola.obj
 0001:0000ac10       pjmedia_circ_buf_copy      000000014000bc10 f   pjmedia-x86_64-x64-vc14-release:wsola.obj
 0001:0000ace0       pjmedia_circ_buf_pack_buffer 000000014000bce0 f   pjmedia-x86_64-x64-vc14-release:wsola.obj
 0001:0000b7c0       wsola_fade_out             000000014000c7c0 f   pjmedia-x86_64-x64-vc14-release:wsola.obj
 0001:0000bc30       init_mutex                 000000014000cc30 f   pjlib-x86_64-x64-vc14-release:os_core_win32.obj
 0001:0000c7a0       pj_sem_wait_for            000000014000d7a0 f   pjlib-x86_64-x64-vc14-release:os_core_win32.obj
 0001:0000d0f0       thread_main                000000014000e0f0 f   pjlib-x86_64-x64-vc14-release:os_core_win32.obj
 0001:0000d670       reset_pool                 000000014000e670 f   pjlib-x86_64-x64-vc14-release:pool.obj
 0001:0000d710       cpool_create_pool          000000014000e710 f   pjlib-x86_64-x64-vc14-release:pool_caching.obj
 0001:0000d8a0       cpool_dump_status          000000014000e8a0 f   pjlib-x86_64-x64-vc14-release:pool_caching.obj
 0001:0000da50       cpool_on_block_alloc       000000014000ea50 f   pjlib-x86_64-x64-vc14-release:pool_caching.obj
 0001:0000da70       cpool_on_block_free        000000014000ea70 f   pjlib-x86_64-x64-vc14-release:pool_caching.obj
 0001:0000da80       cpool_release_pool         000000014000ea80 f   pjlib-x86_64-x64-vc14-release:pool_caching.obj
 0001:0000de30       invoke_log                 000000014000ee30 f   pjlib-x86_64-x64-vc14-release:errno.obj
 0001:0000df00       pj_perror_imp              000000014000ef00 f   pjlib-x86_64-x64-vc14-release:errno.obj
 0001:0000e270       default_block_alloc        000000014000f270 f   pjlib-x86_64-x64-vc14-release:pool_policy_malloc.obj
 0001:0000e2f0       default_block_free         000000014000f2f0 f   pjlib-x86_64-x64-vc14-release:pool_policy_malloc.obj
 0001:0000e350       default_pool_callback      000000014000f350 f   pjlib-x86_64-x64-vc14-release:pool_policy_malloc.obj
 0001:0000eda0       logging_shutdown           000000014000fda0 f   pjlib-x86_64-x64-vc14-release:log.obj
 0001:0000f534       $LN13                      0000000140010534     pjlib-x86_64-x64-vc14-release:log.obj
 0001:0000f9c0       decrement_counter          00000001400109c0 f   pjlib-x86_64-x64-vc14-release:ioqueue_select.obj
 0001:00010920       scan_closing_keys          0000000140011920 f   pjlib-x86_64-x64-vc14-release:ioqueue_select.obj
 0001:00011440       grp_lock_destroy           0000000140012440 f   pjlib-x86_64-x64-vc14-release:lock.obj
 0001:00011530       grp_lock_release           0000000140012530 f   pjlib-x86_64-x64-vc14-release:lock.obj
 0001:000115c0       grp_lock_tryacquire        00000001400125c0 f   pjlib-x86_64-x64-vc14-release:lock.obj
 0001:00011ad0       guid_to_str                0000000140012ad0 f   pjlib-x86_64-x64-vc14-release:guid_win32.obj
 0001:00011e20       pool_buf_cleanup           0000000140012e20 f   pjlib-x86_64-x64-vc14-release:pool_buf.obj
 0001:00011e50       stack_alloc                0000000140012e50 f   pjlib-x86_64-x64-vc14-release:pool_buf.obj
 0001:000121c0       filter_dc_notch16          00000001400131c0 f   libspeex-x86_64-x64-vc14-release:mdf.obj
 0001:00012450       mdf_adjust_prop            0000000140013450 f   libspeex-x86_64-x64-vc14-release:mdf.obj
 0001:00016e90       compute_gain_floor         0000000140017e90 f   libspeex-x86_64-x64-vc14-release:preprocess.obj
 0001:00017320       preprocess_analysis        0000000140018320 f   libspeex-x86_64-x64-vc14-release:preprocess.obj
 0001:000178e0       speex_compute_agc          00000001400188e0 f   libspeex-x86_64-x64-vc14-release:preprocess.obj
 0001:0001834c       $LN100                     000000014001934c     libspeex-x86_64-x64-vc14-release:preprocess.obj
 0001:0001b3c0       update_noise_prob          000000014001c3c0 f   libspeex-x86_64-x64-vc14-release:preprocess.obj
 0001:0001c4f0       dradb2                     000000014001d4f0 f   libspeex-x86_64-x64-vc14-release:smallft.obj
 0001:0001c970       dradb3                     000000014001d970 f   libspeex-x86_64-x64-vc14-release:smallft.obj
 0001:0001cea0       dradb4                     000000014001dea0 f   libspeex-x86_64-x64-vc14-release:smallft.obj
 0001:0001d810       dradbg                     000000014001e810 f   libspeex-x86_64-x64-vc14-release:smallft.obj
 0001:0001f150       dradf2                     0000000140020150 f   libspeex-x86_64-x64-vc14-release:smallft.obj
 0001:0001f4e0       dradf4                     00000001400204e0 f   libspeex-x86_64-x64-vc14-release:smallft.obj
 0001:0001fe90       dradfg                     0000000140020e90 f   libspeex-x86_64-x64-vc14-release:smallft.obj
 0001:00021840       drftb1                     0000000140022840 f   libspeex-x86_64-x64-vc14-release:smallft.obj
 0001:00021ac0       drftf1                     0000000140022ac0 f   libspeex-x86_64-x64-vc14-release:smallft.obj
 0001:00021d10       drfti1                     0000000140022d10 f   libspeex-x86_64-x64-vc14-release:smallft.obj
 0001:00022150       be64_to_cpu                0000000140023150 f   libsrtp-x86_64-x64-vc14-release:srtp.obj
 0001:00022190       srtp_calc_aead_iv          0000000140023190 f   libsrtp-x86_64-x64-vc14-release:srtp.obj
 0001:000222b0       srtp_calc_aead_iv_srtcp    00000001400232b0 f   libsrtp-x86_64-x64-vc14-release:srtp.obj
 0001:000227e0       srtp_get_est_pkt_index     00000001400237e0 f   libsrtp-x86_64-x64-vc14-release:srtp.obj
 0001:000229d0       srtp_kdf_generate          00000001400239d0 f   libsrtp-x86_64-x64-vc14-release:srtp.obj
 0001:00022a50       srtp_kdf_init              0000000140023a50 f   libsrtp-x86_64-x64-vc14-release:srtp.obj
 0001:00022ae0       srtp_process_header_encryption 0000000140023ae0 f   libsrtp-x86_64-x64-vc14-release:srtp.obj
 0001:00022d40       srtp_protect_aead          0000000140023d40 f   libsrtp-x86_64-x64-vc14-release:srtp.obj
 0001:000235c0       srtp_protect_rtcp_aead     00000001400245c0 f   libsrtp-x86_64-x64-vc14-release:srtp.obj
 0001:00024210       srtp_stream_free           0000000140025210 f   libsrtp-x86_64-x64-vc14-release:srtp.obj
 0001:00024dd0       srtp_unprotect_aead        0000000140025dd0 f   libsrtp-x86_64-x64-vc14-release:srtp.obj
 0001:000256f0       srtp_unprotect_rtcp_aead   00000001400266f0 f   libsrtp-x86_64-x64-vc14-release:srtp.obj
 0001:00025df0       srtp_validate_rtp_header   0000000140026df0 f   libsrtp-x86_64-x64-vc14-release:srtp.obj
 0001:00026ff0       srtp_null_cipher_alloc     0000000140027ff0 f   libsrtp-x86_64-x64-vc14-release:null_cipher.obj
 0001:00027090       srtp_null_cipher_dealloc   0000000140028090 f   libsrtp-x86_64-x64-vc14-release:null_cipher.obj
 0001:000270c0       srtp_null_cipher_init      00000001400280c0 f   libsrtp-x86_64-x64-vc14-release:null_cipher.obj
 0001:000270f0       srtp_aes_icm_alloc         00000001400280f0 f   libsrtp-x86_64-x64-vc14-release:aes_icm.obj
 0001:00027200       srtp_aes_icm_dealloc       0000000140028200 f   libsrtp-x86_64-x64-vc14-release:aes_icm.obj
 0001:00027250       srtp_aes_icm_context_init  0000000140028250 f   libsrtp-x86_64-x64-vc14-release:aes_icm.obj
 0001:000273a0       srtp_aes_icm_set_iv        00000001400283a0 f   libsrtp-x86_64-x64-vc14-release:aes_icm.obj
 0001:00027460       srtp_aes_icm_encrypt       0000000140028460 f   libsrtp-x86_64-x64-vc14-release:aes_icm.obj
 0001:00027690       srtp_aes_icm_advance       0000000140028690 f   libsrtp-x86_64-x64-vc14-release:aes_icm.obj
 0001:00027740       srtp_null_auth_alloc       0000000140028740 f   libsrtp-x86_64-x64-vc14-release:null_auth.obj
 0001:00027800       srtp_null_auth_dealloc     0000000140028800 f   libsrtp-x86_64-x64-vc14-release:null_auth.obj
 0001:00027830       srtp_hmac_alloc            0000000140028830 f   libsrtp-x86_64-x64-vc14-release:hmac.obj
 0001:00027920       srtp_hmac_dealloc          0000000140028920 f   libsrtp-x86_64-x64-vc14-release:hmac.obj
 0001:00027950       srtp_hmac_init             0000000140028950 f   libsrtp-x86_64-x64-vc14-release:hmac.obj
 0001:00027ca0       srtp_hmac_start            0000000140028ca0 f   libsrtp-x86_64-x64-vc14-release:hmac.obj
 0001:00027d00       srtp_hmac_update           0000000140028d00 f   libsrtp-x86_64-x64-vc14-release:hmac.obj
 0001:00027d70       srtp_hmac_compute          0000000140028d70 f   libsrtp-x86_64-x64-vc14-release:hmac.obj
 0001:00027ee0       aes_final_round            0000000140028ee0 f   libsrtp-x86_64-x64-vc14-release:aes.obj
 0001:00027fd0       aes_inv_final_round        0000000140028fd0 f   libsrtp-x86_64-x64-vc14-release:aes.obj
 0001:000280c0       aes_inv_round              00000001400290c0 f   libsrtp-x86_64-x64-vc14-release:aes.obj
 0001:000281c0       aes_round                  00000001400291c0 f   libsrtp-x86_64-x64-vc14-release:aes.obj
 0001:00029780       $$000000                   000000014002a780     MSVCRT:amdsecgs.obj
 0001:000297b0       ?pre_c_initialization@@YAHXZ 000000014002a7b0 f   MSVCRT:exe_main.obj
 0001:00029868       ?post_pgo_initialization@@YAHXZ 000000014002a868 f   MSVCRT:exe_main.obj
 0001:00029878       ?pre_cpp_initialization@@YAXXZ 000000014002a878 f   MSVCRT:exe_main.obj
 0001:00029894       ?__scrt_common_main_seh@@YAHXZ 000000014002a894 f   MSVCRT:exe_main.obj
 0001:00029bdc       capture_current_context    000000014002abdc f   MSVCRT:gs_report.obj
 0001:00029c4c       capture_previous_context   000000014002ac4c f   MSVCRT:gs_report.obj
 0001:00029cc0       $$000000                   000000014002acc0     MSVCRT:chkstk.obj
 0001:0002a5c0       $$000000                   000000014002b5c0     MSVCRT:guard_dispatch.obj
 0001:0002a5e0       $$000000                   000000014002b5e0     MSVCRT:guard_xfg_dispatch.obj
 0001:0002a5f6       ?filt$0@?0??__scrt_common_main_seh@@YAHXZ@4HA 000000014002b5f6 f   MSVCRT:exe_main.obj
 0001:0002a614       __scrt_is_nonwritable_in_current_image$filt$0 000000014002b614 f   MSVCRT:utility.obj
 0002:000004f0       ?pre_cpp_initializer@@3P6AXXZEA 000000014002c4f0     MSVCRT:exe_main.obj
 0002:00000508       ?pre_c_initializer@@3P6AHXZEA 000000014002c508     MSVCRT:exe_main.obj
 0002:00000510       ?post_pgo_initializer@@3P6AHXZEA 000000014002c510     MSVCRT:exe_main.obj
 0002:00000540       err_str                    000000014002c540     pjmedia-audiodev-x86_64-x64-vc14-release:errno.obj
 0002:00000be0       STR_RTP_AVP                000000014002cbe0     pjmedia-x86_64-x64-vc14-release:endpoint.obj
 0002:00000bf0       STR_IN                     000000014002cbf0     pjmedia-x86_64-x64-vc14-release:endpoint.obj
 0002:00000c00       STR_IP4                    000000014002cc00     pjmedia-x86_64-x64-vc14-release:endpoint.obj
 0002:00000c10       STR_IP6                    000000014002cc10     pjmedia-x86_64-x64-vc14-release:endpoint.obj
 0002:00000c20       STR_SDP_NAME               000000014002cc20     pjmedia-x86_64-x64-vc14-release:endpoint.obj
 0002:00000c30       STR_SENDRECV               000000014002cc30     pjmedia-x86_64-x64-vc14-release:endpoint.obj
 0002:00001110       err_str                    000000014002d110     pjmedia-x86_64-x64-vc14-release:errno.obj
 0002:0000b6c0       ID_RTP_AVP                 00000001400376c0     pjmedia-x86_64-x64-vc14-release:transport_srtp.obj
 0002:0000b6d0       ID_RTP_SAVP                00000001400376d0     pjmedia-x86_64-x64-vc14-release:transport_srtp.obj
 0002:0000b6e0       ID_CRYPTO                  00000001400376e0     pjmedia-x86_64-x64-vc14-release:transport_srtp.obj
 0002:0000c110       base64_char                0000000140038110     pjlib-util-x86_64-x64-vc14-release:base64.obj
 0002:0000c490       err_str                    0000000140038490     pjlib-x86_64-x64-vc14-release:errno.obj
 0002:0000cb00       gaErrorList                0000000140038b00     pjlib-x86_64-x64-vc14-release:os_error_win32.obj
 0002:0000dea0       ?table@?1??hypergeom_gain@@9@9 0000000140039ea0     libspeex-x86_64-x64-vc14-release:preprocess.obj
 0002:0000e8c0       srtp_null_cipher_description 000000014003a8c0     libsrtp-x86_64-x64-vc14-release:null_cipher.obj
 0002:0000e8d0       srtp_null_cipher_test_0    000000014003a8d0     libsrtp-x86_64-x64-vc14-release:null_cipher.obj
 0002:0000ea48       srtp_aes_icm_128_description 000000014003aa48     libsrtp-x86_64-x64-vc14-release:aes_icm.obj
 0002:0000ea68       srtp_aes_icm_256_description 000000014003aa68     libsrtp-x86_64-x64-vc14-release:aes_icm.obj
 0002:0000ea88       srtp_aes_icm_128_test_case_0_key 000000014003aa88     libsrtp-x86_64-x64-vc14-release:aes_icm.obj
 0002:0000eaa8       srtp_aes_icm_128_test_case_0_plaintext 000000014003aaa8     libsrtp-x86_64-x64-vc14-release:aes_icm.obj
 0002:0000eac8       srtp_aes_icm_128_test_case_0_ciphertext 000000014003aac8     libsrtp-x86_64-x64-vc14-release:aes_icm.obj
 0002:0000eaf0       srtp_aes_icm_128_test_case_0 000000014003aaf0     libsrtp-x86_64-x64-vc14-release:aes_icm.obj
 0002:0000eb48       srtp_aes_icm_256_test_case_0_key 000000014003ab48     libsrtp-x86_64-x64-vc14-release:aes_icm.obj
 0002:0000eb78       srtp_aes_icm_256_test_case_0_plaintext 000000014003ab78     libsrtp-x86_64-x64-vc14-release:aes_icm.obj
 0002:0000eb98       srtp_aes_icm_256_test_case_0_ciphertext 000000014003ab98     libsrtp-x86_64-x64-vc14-release:aes_icm.obj
 0002:0000ebc0       srtp_aes_icm_256_test_case_0 000000014003abc0     libsrtp-x86_64-x64-vc14-release:aes_icm.obj
 0002:0000ed10       srtp_null_auth_test_case_0 000000014003ad10     libsrtp-x86_64-x64-vc14-release:null_auth.obj
 0002:0000ed48       srtp_null_auth_description 000000014003ad48     libsrtp-x86_64-x64-vc14-release:null_auth.obj
 0002:0000ee20       srtp_hmac_test_case_0_key  000000014003ae20     libsrtp-x86_64-x64-vc14-release:hmac.obj
 0002:0000ee38       srtp_hmac_test_case_0_data 000000014003ae38     libsrtp-x86_64-x64-vc14-release:hmac.obj
 0002:0000ee40       srtp_hmac_test_case_0_tag  000000014003ae40     libsrtp-x86_64-x64-vc14-release:hmac.obj
 0002:0000ee58       srtp_hmac_test_case_0      000000014003ae58     libsrtp-x86_64-x64-vc14-release:hmac.obj
 0002:0000ee90       srtp_hmac_description      000000014003ae90     libsrtp-x86_64-x64-vc14-release:hmac.obj
 0002:0000ef30       T0                         000000014003af30     libsrtp-x86_64-x64-vc14-release:aes.obj
 0002:0000f330       T1                         000000014003b330     libsrtp-x86_64-x64-vc14-release:aes.obj
 0002:0000f730       T2                         000000014003b730     libsrtp-x86_64-x64-vc14-release:aes.obj
 0002:0000fb30       T3                         000000014003bb30     libsrtp-x86_64-x64-vc14-release:aes.obj
 0002:0000ff30       U0                         000000014003bf30     libsrtp-x86_64-x64-vc14-release:aes.obj
 0002:00010330       U1                         000000014003c330     libsrtp-x86_64-x64-vc14-release:aes.obj
 0002:00010730       U2                         000000014003c730     libsrtp-x86_64-x64-vc14-release:aes.obj
 0002:00010b30       U3                         000000014003cb30     libsrtp-x86_64-x64-vc14-release:aes.obj
 0002:00010f30       aes_sbox                   000000014003cf30     libsrtp-x86_64-x64-vc14-release:aes.obj
 0002:00011030       aes_inv_sbox               000000014003d030     libsrtp-x86_64-x64-vc14-release:aes.obj
 0002:000111e8       GS_ExceptionPointers       000000014003d1e8     MSVCRT:gs_report.obj
 0002:00011678       $unwind$printf             000000014003d678     recfile.obj
 0002:00011684       $unwind$pjmedia_endpt_create 000000014003d684     recfile.obj
 0002:00011698       $unwind$pjmedia_endpt_destroy 000000014003d698     recfile.obj
 0002:000116a0       $unwind$app_perror         000000014003d6a0     recfile.obj
 0002:000116b8       $unwind$main               000000014003d6b8     recfile.obj
 0002:000116cc       $chain$2$main              000000014003d6cc     recfile.obj
 0002:000116e8       $chain$3$main              000000014003d6e8     recfile.obj
 0002:000116f8       $chain$4$main              000000014003d6f8     recfile.obj
 0002:00011714       $unwind$pjmedia_aud_subsys_init 000000014003d714     pjmedia-audiodev-x86_64-x64-vc14-release:audiodev.obj
 0002:00011728       $unwind$decrement_counter  000000014003d728     pjlib-x86_64-x64-vc14-release:ioqueue_select.obj
 0002:00011728       $unwind$pj_ioqueue_destroy 000000014003d728     pjlib-x86_64-x64-vc14-release:ioqueue_select.obj
 0002:00011728       $unwind$pjmedia_aud_subsys_shutdown 000000014003d728     pjmedia-audiodev-x86_64-x64-vc14-release:audiodev.obj
 0002:00011728       $unwind$pjmedia_codec_mgr_destroy 000000014003d728     pjmedia-x86_64-x64-vc14-release:codec.obj
 0002:00011728       $unwind$pjmedia_echo_playback 000000014003d728     pjmedia-x86_64-x64-vc14-release:echo_common.obj
 0002:00011730       $chain$0$pjmedia_aud_subsys_shutdown 000000014003d730     pjmedia-audiodev-x86_64-x64-vc14-release:audiodev.obj
 0002:00011744       $chain$1$pjmedia_aud_subsys_shutdown 000000014003d744     pjmedia-audiodev-x86_64-x64-vc14-release:audiodev.obj
 0002:00011754       $unwind$pjmedia_audiodev_strerror 000000014003d754     pjmedia-audiodev-x86_64-x64-vc14-release:errno.obj
 0002:00011768       $chain$0$pjmedia_audiodev_strerror 000000014003d768     pjmedia-audiodev-x86_64-x64-vc14-release:errno.obj
 0002:0001177c       $chain$1$pjmedia_audiodev_strerror 000000014003d77c     pjmedia-audiodev-x86_64-x64-vc14-release:errno.obj
 0002:0001177c       $chain$3$pjmedia_audiodev_strerror 000000014003d77c     pjmedia-audiodev-x86_64-x64-vc14-release:errno.obj
 0002:0001178c       $chain$2$pjmedia_audiodev_strerror 000000014003d78c     pjmedia-audiodev-x86_64-x64-vc14-release:errno.obj
 0002:000117a0       $unwind$_snprintf          000000014003d7a0     pjmedia-audiodev-x86_64-x64-vc14-release:errno.obj
 0002:000117b0       $unwind$pj_exception_id_name 000000014003d7b0     pjlib-x86_64-x64-vc14-release:except.obj
 0002:000117b0       $unwind$pj_file_close      000000014003d7b0     pjlib-x86_64-x64-vc14-release:file_io_win32.obj
 0002:000117b0       $unwind$pj_grp_lock_add_ref 000000014003d7b0     pjlib-x86_64-x64-vc14-release:lock.obj
 0002:000117b0       $unwind$logging_shutdown   000000014003d7b0     pjlib-x86_64-x64-vc14-release:log.obj
 0002:000117b0       $unwind$pj_thread_local_set 000000014003d7b0     pjlib-x86_64-x64-vc14-release:os_core_win32.obj
 0002:000117b0       $unwind$pj_get_netos_error 000000014003d7b0     pjlib-x86_64-x64-vc14-release:os_error_win32.obj
 0002:000117b0       $unwind$pj_get_os_error    000000014003d7b0     pjlib-x86_64-x64-vc14-release:os_error_win32.obj
 0002:000117b0       $unwind$pool_buf_cleanup   000000014003d7b0     pjlib-x86_64-x64-vc14-release:pool_buf.obj
 0002:000117b0       $unwind$default_pool_callback 000000014003d7b0     pjlib-x86_64-x64-vc14-release:pool_policy_malloc.obj
 0002:000117b0       $unwind$factory_init       000000014003d7b0     pjmedia-audiodev-x86_64-x64-vc14-release:wmme_dev.obj
 0002:000117b0       $unwind$pjmedia_clock_src_init 000000014003d7b0     pjmedia-x86_64-x64-vc14-release:clock_thread.obj
 0002:000117b0       $unwind$pjmedia_clock_src_update 000000014003d7b0     pjmedia-x86_64-x64-vc14-release:clock_thread.obj
 0002:000117b0       $unwind$get_libsrtp_errstr 000000014003d7b0     pjmedia-x86_64-x64-vc14-release:transport_srtp.obj
 0002:000117b0       $unwind$file_on_event      000000014003d7b0     pjmedia-x86_64-x64-vc14-release:wav_writer.obj
 0002:000117b0       $unwind$srtp_null_cipher_init 000000014003d7b0     libsrtp-x86_64-x64-vc14-release:null_cipher.obj
 0002:000117b0       $unwind$srtp_rdbx_dealloc  000000014003d7b0     libsrtp-x86_64-x64-vc14-release:rdbx.obj
 0002:000117b0       $unwind$srtp_rdbx_set_roc_seq 000000014003d7b0     libsrtp-x86_64-x64-vc14-release:rdbx.obj
 0002:000117b0       $unwind$srtp_inject_mki    000000014003d7b0     libsrtp-x86_64-x64-vc14-release:srtp.obj
 0002:000117b0       $unwind$__scrt_initialize_default_local_stdio_options 000000014003d7b0     MSVCRT:default_local_stdio_options.obj
 0002:000117b0       $unwind$?post_pgo_initialization@@YAHXZ 000000014003d7b0     MSVCRT:exe_main.obj
 0002:000117b0       $unwind$?pre_cpp_initialization@@YAXXZ 000000014003d7b0     MSVCRT:exe_main.obj
 0002:000117b0       $unwind$mainCRTStartup     000000014003d7b0     MSVCRT:exe_main.obj
 0002:000117b0       $unwind$__report_rangecheckfailure 000000014003d7b0     MSVCRT:gs_report.obj
 0002:000117b0       $unwind$__GSHandlerCheck   000000014003d7b0     MSVCRT:gshandler.obj
 0002:000117b0       $unwind$__scrt_acquire_startup_lock 000000014003d7b0     MSVCRT:utility.obj
 0002:000117b0       $unwind$atexit             000000014003d7b0     MSVCRT:utility.obj
 0002:000117b0       $unwind$__scrt_is_managed_app 000000014003d7b0     MSVCRT:utility_desktop.obj
 0002:000117b8       $unwind$pj_exception_id_alloc 000000014003d7b8     pjlib-x86_64-x64-vc14-release:except.obj
 0002:000117b8       $unwind$pj_throw_exception_ 000000014003d7b8     pjlib-x86_64-x64-vc14-release:except.obj
 0002:000117b8       $unwind$pj_log_write       000000014003d7b8     pjlib-x86_64-x64-vc14-release:log_writer_stdout.obj
 0002:000117b8       $unwind$pj_pool_calloc     000000014003d7b8     pjlib-x86_64-x64-vc14-release:pool.obj
 0002:000117b8       $unwind$stack_alloc        000000014003d7b8     pjlib-x86_64-x64-vc14-release:pool_buf.obj
 0002:000117b8       $unwind$PJ_FD_ISSET        000000014003d7b8     pjlib-x86_64-x64-vc14-release:sock_select.obj
 0002:000117b8       $unwind$pj_strcmp          000000014003d7b8     pjlib-x86_64-x64-vc14-release:string.obj
 0002:000117b8       $unwind$pj_strdup          000000014003d7b8     pjlib-x86_64-x64-vc14-release:string.obj
 0002:000117b8       $unwind$pj_strdup2         000000014003d7b8     pjlib-x86_64-x64-vc14-release:string.obj
 0002:000117b8       $unwind$pj_strdup_with_null 000000014003d7b8     pjlib-x86_64-x64-vc14-release:string.obj
 0002:000117b8       $unwind$pj_stricmp         000000014003d7b8     pjlib-x86_64-x64-vc14-release:string.obj
 0002:000117b8       $unwind$pj_strncpy_with_null 000000014003d7b8     pjlib-x86_64-x64-vc14-release:string.obj
 0002:000117b8       $unwind$factory_destroy    000000014003d7b8     pjmedia-audiodev-x86_64-x64-vc14-release:wmme_dev.obj
 0002:000117b8       $unwind$stream_set_cap     000000014003d7b8     pjmedia-audiodev-x86_64-x64-vc14-release:wmme_dev.obj
 0002:000117b8       $unwind$pjmedia_aud_stream_get_param 000000014003d7b8     pjmedia-x86_64-x64-vc14-release:audiodev.obj
 0002:000117b8       $unwind$pjmedia_delay_buf_destroy 000000014003d7b8     pjmedia-x86_64-x64-vc14-release:delaybuf.obj
 0002:000117b8       $unwind$speex_aec_playback 000000014003d7b8     pjmedia-x86_64-x64-vc14-release:echo_speex.obj
 0002:000117b8       $unwind$pjmedia_snd_port_connect 000000014003d7b8     pjmedia-x86_64-x64-vc14-release:sound_port.obj
 0002:000117b8       $unwind$play_cb_ext        000000014003d7b8     pjmedia-x86_64-x64-vc14-release:sound_port.obj
 0002:000117b8       $unwind$rec_cb_ext         000000014003d7b8     pjmedia-x86_64-x64-vc14-release:sound_port.obj
 0002:000117b8       $unwind$pjmedia_wsola_generate 000000014003d7b8     pjmedia-x86_64-x64-vc14-release:wsola.obj
 0002:000117b8       $unwind$spx_fft_init       000000014003d7b8     libspeex-x86_64-x64-vc14-release:fftwrap.obj
 0002:000117b8       $unwind$spx_ifft           000000014003d7b8     libspeex-x86_64-x64-vc14-release:fftwrap.obj
 0002:000117b8       $unwind$spx_drft_init      000000014003d7b8     libspeex-x86_64-x64-vc14-release:smallft.obj
 0002:000117b8       $unwind$srtp_aes_decrypt   000000014003d7b8     libsrtp-x86_64-x64-vc14-release:aes.obj
 0002:000117b8       $unwind$srtp_aes_encrypt   000000014003d7b8     libsrtp-x86_64-x64-vc14-release:aes.obj
 0002:000117b8       $unwind$srtp_aes_icm_advance 000000014003d7b8     libsrtp-x86_64-x64-vc14-release:aes_icm.obj
 0002:000117b8       $unwind$srtp_crypto_alloc  000000014003d7b8     libsrtp-x86_64-x64-vc14-release:alloc.obj
 0002:000117b8       $unwind$bitvector_alloc    000000014003d7b8     libsrtp-x86_64-x64-vc14-release:datatypes.obj
 0002:000117b8       $unwind$srtp_null_cipher_alloc 000000014003d7b8     libsrtp-x86_64-x64-vc14-release:null_cipher.obj
 0002:000117b8       $unwind$srtp_rdb_add_index 000000014003d7b8     libsrtp-x86_64-x64-vc14-release:rdb.obj
 0002:000117b8       $unwind$srtp_rdbx_add_index 000000014003d7b8     libsrtp-x86_64-x64-vc14-release:rdbx.obj
 0002:000117b8       $unwind$srtp_rdbx_set_roc  000000014003d7b8     libsrtp-x86_64-x64-vc14-release:rdbx.obj
 0002:000117b8       $unwind$be64_to_cpu        000000014003d7b8     libsrtp-x86_64-x64-vc14-release:srtp.obj
 0002:000117b8       $unwind$srtp_kdf_init      000000014003d7b8     libsrtp-x86_64-x64-vc14-release:srtp.obj
 0002:000117b8       $unwind$srtp_validate_rtp_header 000000014003d7b8     libsrtp-x86_64-x64-vc14-release:srtp.obj
 0002:000117b8       $unwind$_RTC_Initialize    000000014003d7b8     MSVCRT:initsect.obj
 0002:000117b8       $unwind$_RTC_Terminate     000000014003d7b8     MSVCRT:initsect.obj
 0002:000117b8       $unwind$__scrt_unhandled_exception_filter 000000014003d7b8     MSVCRT:utility_desktop.obj
 0002:000117c4       $unwind$factory_refresh    000000014003d7c4     pjmedia-audiodev-x86_64-x64-vc14-release:wmme_dev.obj
 0002:000117ec       $unwind$factory_create_stream 000000014003d7ec     pjmedia-audiodev-x86_64-x64-vc14-release:wmme_dev.obj
 0002:00011800       $chain$0$factory_create_stream 000000014003d800     pjmedia-audiodev-x86_64-x64-vc14-release:wmme_dev.obj
 0002:00011814       $chain$1$factory_create_stream 000000014003d814     pjmedia-audiodev-x86_64-x64-vc14-release:wmme_dev.obj
 0002:00011828       $chain$2$factory_create_stream 000000014003d828     pjmedia-audiodev-x86_64-x64-vc14-release:wmme_dev.obj
 0002:00011838       $chain$3$factory_create_stream 000000014003d838     pjmedia-audiodev-x86_64-x64-vc14-release:wmme_dev.obj
 0002:00011848       $unwind$pj_exception_id_free 000000014003d848     pjlib-x86_64-x64-vc14-release:except.obj
 0002:00011848       $unwind$pj_pop_exception_handler_ 000000014003d848     pjlib-x86_64-x64-vc14-release:except.obj
 0002:00011848       $unwind$pj_file_setpos     000000014003d848     pjlib-x86_64-x64-vc14-release:file_io_win32.obj
 0002:00011848       $unwind$pj_grp_lock_dec_ref 000000014003d848     pjlib-x86_64-x64-vc14-release:lock.obj
 0002:00011848       $unwind$pj_log_init        000000014003d848     pjlib-x86_64-x64-vc14-release:log.obj
 0002:00011848       $unwind$pj_thread_local_alloc 000000014003d848     pjlib-x86_64-x64-vc14-release:os_core_win32.obj
 0002:00011848       $unwind$pj_get_timestamp   000000014003d848     pjlib-x86_64-x64-vc14-release:os_timestamp_win32.obj
 0002:00011848       $unwind$pj_get_timestamp_freq 000000014003d848     pjlib-x86_64-x64-vc14-release:os_timestamp_win32.obj
 0002:00011848       $unwind$pj_pool_destroy_int 000000014003d848     pjlib-x86_64-x64-vc14-release:pool.obj
 0002:00011848       $unwind$pj_pool_reset      000000014003d848     pjlib-x86_64-x64-vc14-release:pool.obj
 0002:00011848       $unwind$pj_rand            000000014003d848     pjlib-x86_64-x64-vc14-release:rand.obj
 0002:00011848       $unwind$PJ_FD_ZERO         000000014003d848     pjlib-x86_64-x64-vc14-release:sock_select.obj
 0002:00011848       $unwind$pj_time_val_normalize 000000014003d848     pjlib-x86_64-x64-vc14-release:types.obj
 0002:00011848       $unwind$stream_get_cap     000000014003d848     pjmedia-audiodev-x86_64-x64-vc14-release:wmme_dev.obj
 0002:00011848       $unwind$stream_get_param   000000014003d848     pjmedia-audiodev-x86_64-x64-vc14-release:wmme_dev.obj
 0002:00011848       $unwind$stream_start       000000014003d848     pjmedia-audiodev-x86_64-x64-vc14-release:wmme_dev.obj
 0002:00011848       $unwind$stream_stop        000000014003d848     pjmedia-audiodev-x86_64-x64-vc14-release:wmme_dev.obj
 0002:00011848       $unwind$pjmedia_aud_dev_default_param 000000014003d848     pjmedia-x86_64-x64-vc14-release:audiodev.obj
 0002:00011848       $unwind$pjmedia_aud_dev_get_info 000000014003d848     pjmedia-x86_64-x64-vc14-release:audiodev.obj
 0002:00011848       $unwind$pjmedia_aud_driver_deinit 000000014003d848     pjmedia-x86_64-x64-vc14-release:audiodev.obj
 0002:00011848       $unwind$pjmedia_echo_destroy 000000014003d848     pjmedia-x86_64-x64-vc14-release:echo_common.obj
 0002:00011848       $unwind$pjmedia_echo_stat_default 000000014003d848     pjmedia-x86_64-x64-vc14-release:echo_common.obj
 0002:00011848       $unwind$speex_aec_destroy  000000014003d848     pjmedia-x86_64-x64-vc14-release:echo_speex.obj
 0002:00011848       $unwind$echo_supp_reset    000000014003d848     pjmedia-x86_64-x64-vc14-release:echo_suppress.obj
 0002:00011848       $unwind$worker_proc        000000014003d848     pjmedia-x86_64-x64-vc14-release:endpoint.obj
 0002:00011848       $unwind$pjmedia_snd_port_destroy 000000014003d848     pjmedia-x86_64-x64-vc14-release:sound_port.obj
 0002:00011848       $unwind$sdes_media_create  000000014003d848     pjmedia-x86_64-x64-vc14-release:transport_srtp.obj
 0002:00011848       $unwind$transport_send_rtp 000000014003d848     pjmedia-x86_64-x64-vc14-release:transport_srtp.obj
 0002:00011848       $unwind$wsola_fade_out     000000014003d848     pjmedia-x86_64-x64-vc14-release:wsola.obj
 0002:00011848       $unwind$spx_fft_destroy    000000014003d848     libspeex-x86_64-x64-vc14-release:fftwrap.obj
 0002:00011848       $unwind$filterbank_destroy 000000014003d848     libspeex-x86_64-x64-vc14-release:filterbank.obj
 0002:00011848       $unwind$speex_echo_state_destroy 000000014003d848     libspeex-x86_64-x64-vc14-release:mdf.obj
 0002:00011848       $unwind$speex_preprocess_state_destroy 000000014003d848     libspeex-x86_64-x64-vc14-release:preprocess.obj
 0002:00011848       $unwind$speex_decorrelate_destroy 000000014003d848     libspeex-x86_64-x64-vc14-release:scal.obj
 0002:00011848       $unwind$srtp_crypto_free   000000014003d848     libsrtp-x86_64-x64-vc14-release:alloc.obj
 0002:00011848       $unwind$bitvector_dealloc  000000014003d848     libsrtp-x86_64-x64-vc14-release:datatypes.obj
 0002:00011848       $unwind$srtp_hmac_dealloc  000000014003d848     libsrtp-x86_64-x64-vc14-release:hmac.obj
 0002:00011848       $unwind$srtp_null_auth_dealloc 000000014003d848     libsrtp-x86_64-x64-vc14-release:null_auth.obj
 0002:00011848       $unwind$srtp_null_cipher_dealloc 000000014003d848     libsrtp-x86_64-x64-vc14-release:null_cipher.obj
 0002:00011848       $unwind$srtp_rdbx_init     000000014003d848     libsrtp-x86_64-x64-vc14-release:rdbx.obj
 0002:00011848       $unwind$srtp_event_reporter 000000014003d848     libsrtp-x86_64-x64-vc14-release:srtp.obj
 0002:00011848       $unwind$?pre_c_initialization@@YAHXZ 000000014003d848     MSVCRT:exe_main.obj
 0002:00011848       $unwind$__raise_securityfailure 000000014003d848     MSVCRT:gs_report.obj
 0002:00011848       $unwind$__scrt_initialize_crt 000000014003d848     MSVCRT:utility.obj
 0002:00011848       $unwind$__scrt_initialize_onexit_tables 000000014003d848     MSVCRT:utility.obj
 0002:00011848       $unwind$__scrt_release_startup_lock 000000014003d848     MSVCRT:utility.obj
 0002:00011848       $unwind$__scrt_uninitialize_crt 000000014003d848     MSVCRT:utility.obj
 0002:00011848       $unwind$_onexit            000000014003d848     MSVCRT:utility.obj
 0002:00011850       $chain$0$stream_get_param  000000014003d850     pjmedia-audiodev-x86_64-x64-vc14-release:wmme_dev.obj
 0002:00011864       $chain$2$stream_get_param  000000014003d864     pjmedia-audiodev-x86_64-x64-vc14-release:wmme_dev.obj
 0002:00011878       $chain$3$stream_get_param  000000014003d878     pjmedia-audiodev-x86_64-x64-vc14-release:wmme_dev.obj
 0002:00011888       $unwind$stream_destroy     000000014003d888     pjmedia-audiodev-x86_64-x64-vc14-release:wmme_dev.obj
 0002:00011894       $chain$1$stream_destroy    000000014003d894     pjmedia-audiodev-x86_64-x64-vc14-release:wmme_dev.obj
 0002:000118a8       $chain$2$stream_destroy    000000014003d8a8     pjmedia-audiodev-x86_64-x64-vc14-release:wmme_dev.obj
 0002:000118b8       $unwind$pj_file_write      000000014003d8b8     pjlib-x86_64-x64-vc14-release:file_io_win32.obj
 0002:000118b8       $unwind$pj_sem_wait_for    000000014003d8b8     pjlib-x86_64-x64-vc14-release:os_core_win32.obj
 0002:000118b8       $unwind$pj_term_set_color  000000014003d8b8     pjlib-x86_64-x64-vc14-release:os_core_win32.obj
 0002:000118b8       $unwind$pj_thread_check_stack 000000014003d8b8     pjlib-x86_64-x64-vc14-release:os_core_win32.obj
 0002:000118b8       $unwind$pjmedia_wmme_factory 000000014003d8b8     pjmedia-audiodev-x86_64-x64-vc14-release:wmme_dev.obj
 0002:000118b8       $unwind$pjmedia_codec_mgr_init 000000014003d8b8     pjmedia-x86_64-x64-vc14-release:codec.obj
 0002:000118c4       $unwind$init_player_stream 000000014003d8c4     pjmedia-audiodev-x86_64-x64-vc14-release:wmme_dev.obj
 0002:000118e0       $chain$0$init_player_stream 000000014003d8e0     pjmedia-audiodev-x86_64-x64-vc14-release:wmme_dev.obj
 0002:000118f4       $chain$1$init_player_stream 000000014003d8f4     pjmedia-audiodev-x86_64-x64-vc14-release:wmme_dev.obj
 0002:00011908       $chain$2$init_player_stream 000000014003d908     pjmedia-audiodev-x86_64-x64-vc14-release:wmme_dev.obj
 0002:00011918       $chain$3$init_player_stream 000000014003d918     pjmedia-audiodev-x86_64-x64-vc14-release:wmme_dev.obj
 0002:00011928       $chain$4$init_player_stream 000000014003d928     pjmedia-audiodev-x86_64-x64-vc14-release:wmme_dev.obj
 0002:00011940       $unwind$init_capture_stream 000000014003d940     pjmedia-audiodev-x86_64-x64-vc14-release:wmme_dev.obj
 0002:0001195c       $chain$0$init_capture_stream 000000014003d95c     pjmedia-audiodev-x86_64-x64-vc14-release:wmme_dev.obj
 0002:00011970       $chain$1$init_capture_stream 000000014003d970     pjmedia-audiodev-x86_64-x64-vc14-release:wmme_dev.obj
 0002:00011984       $chain$2$init_capture_stream 000000014003d984     pjmedia-audiodev-x86_64-x64-vc14-release:wmme_dev.obj
 0002:00011994       $chain$3$init_capture_stream 000000014003d994     pjmedia-audiodev-x86_64-x64-vc14-release:wmme_dev.obj
 0002:000119a4       $chain$4$init_capture_stream 000000014003d9a4     pjmedia-audiodev-x86_64-x64-vc14-release:wmme_dev.obj
 0002:000119bc       $unwind$wmme_dev_thread    000000014003d9bc     pjmedia-audiodev-x86_64-x64-vc14-release:wmme_dev.obj
 0002:000119e4       $unwind$sprintf            000000014003d9e4     pjmedia-x86_64-x64-vc14-release:endpoint.obj
 0002:000119f0       $unwind$pjmedia_endpt_create2 000000014003d9f0     pjmedia-x86_64-x64-vc14-release:endpoint.obj
 0002:00011a00       $chain$1$pjmedia_endpt_create2 000000014003da00     pjmedia-x86_64-x64-vc14-release:endpoint.obj
 0002:00011a18       $chain$3$pjmedia_endpt_create2 000000014003da18     pjmedia-x86_64-x64-vc14-release:endpoint.obj
 0002:00011a30       $chain$4$pjmedia_endpt_create2 000000014003da30     pjmedia-x86_64-x64-vc14-release:endpoint.obj
 0002:00011a40       $chain$6$pjmedia_endpt_create2 000000014003da40     pjmedia-x86_64-x64-vc14-release:endpoint.obj
 0002:00011a60       $chain$7$pjmedia_endpt_create2 000000014003da60     pjmedia-x86_64-x64-vc14-release:endpoint.obj
 0002:00011a70       $unwind$grp_lock_tryacquire 000000014003da70     pjlib-x86_64-x64-vc14-release:lock.obj
 0002:00011a70       $unwind$pj_pool_init_int   000000014003da70     pjlib-x86_64-x64-vc14-release:pool.obj
 0002:00011a70       $unwind$pj_sock_accept     000000014003da70     pjlib-x86_64-x64-vc14-release:sock_bsd.obj
 0002:00011a70       $unwind$pj_sock_recv       000000014003da70     pjlib-x86_64-x64-vc14-release:sock_bsd.obj
 0002:00011a70       $unwind$pj_sock_send       000000014003da70     pjlib-x86_64-x64-vc14-release:sock_bsd.obj
 0002:00011a70       $unwind$pjmedia_endpt_destroy2 000000014003da70     pjmedia-x86_64-x64-vc14-release:endpoint.obj
 0002:00011a84       $chain$0$worker_proc       000000014003da84     pjmedia-x86_64-x64-vc14-release:endpoint.obj
 0002:00011a98       $chain$1$worker_proc       000000014003da98     pjmedia-x86_64-x64-vc14-release:endpoint.obj
 0002:00011aa8       $unwind$pjmedia_snd_port_create_rec 000000014003daa8     pjmedia-x86_64-x64-vc14-release:sound_port.obj
 0002:00011ac4       $unwind$reset_pool         000000014003dac4     pjlib-x86_64-x64-vc14-release:pool.obj
 0002:00011ac4       $unwind$pjmedia_snd_port_create2 000000014003dac4     pjmedia-x86_64-x64-vc14-release:sound_port.obj
 0002:00011ad4       $chain$0$pjmedia_snd_port_create2 000000014003dad4     pjmedia-x86_64-x64-vc14-release:sound_port.obj
 0002:00011ae8       $chain$2$pjmedia_snd_port_create2 000000014003dae8     pjmedia-x86_64-x64-vc14-release:sound_port.obj
 0002:00011afc       $chain$3$pjmedia_snd_port_create2 000000014003dafc     pjmedia-x86_64-x64-vc14-release:sound_port.obj
 0002:00011b0c       $unwind$pjmedia_snd_port_set_ec 000000014003db0c     pjmedia-x86_64-x64-vc14-release:sound_port.obj
 0002:00011b24       $chain$0$pjmedia_snd_port_set_ec 000000014003db24     pjmedia-x86_64-x64-vc14-release:sound_port.obj
 0002:00011b38       $chain$1$pjmedia_snd_port_set_ec 000000014003db38     pjmedia-x86_64-x64-vc14-release:sound_port.obj
 0002:00011b48       $unwind$pj_file_getpos     000000014003db48     pjlib-x86_64-x64-vc14-release:file_io_win32.obj
 0002:00011b48       $unwind$guid_to_str        000000014003db48     pjlib-x86_64-x64-vc14-release:guid_win32.obj
 0002:00011b48       $unwind$grp_lock_release   000000014003db48     pjlib-x86_64-x64-vc14-release:lock.obj
 0002:00011b48       $unwind$pj_caching_pool_init 000000014003db48     pjlib-x86_64-x64-vc14-release:pool_caching.obj
 0002:00011b48       $unwind$default_block_free 000000014003db48     pjlib-x86_64-x64-vc14-release:pool_policy_malloc.obj
 0002:00011b48       $unwind$pj_sock_getsockname 000000014003db48     pjlib-x86_64-x64-vc14-release:sock_bsd.obj
 0002:00011b48       $unwind$PJ_FD_CLR          000000014003db48     pjlib-x86_64-x64-vc14-release:sock_select.obj
 0002:00011b48       $unwind$pj_stricmp2        000000014003db48     pjlib-x86_64-x64-vc14-release:string.obj
 0002:00011b48       $unwind$pj_utoa            000000014003db48     pjlib-x86_64-x64-vc14-release:string.obj
 0002:00011b48       $unwind$play_cb            000000014003db48     pjmedia-x86_64-x64-vc14-release:sound_port.obj
 0002:00011b48       $unwind$rec_cb             000000014003db48     pjmedia-x86_64-x64-vc14-release:sound_port.obj
 0002:00011b48       $unwind$speex_preprocess_ctl 000000014003db48     libspeex-x86_64-x64-vc14-release:preprocess.obj
 0002:00011b48       $unwind$srtp_cipher_output 000000014003db48     libsrtp-x86_64-x64-vc14-release:cipher.obj
 0002:00011b48       $unwind$srtp_hmac_alloc    000000014003db48     libsrtp-x86_64-x64-vc14-release:hmac.obj
 0002:00011b48       $unwind$srtp_hmac_update   000000014003db48     libsrtp-x86_64-x64-vc14-release:hmac.obj
 0002:00011b48       $unwind$srtp_null_auth_alloc 000000014003db48     libsrtp-x86_64-x64-vc14-release:null_auth.obj
 0002:00011b58       $unwind$start_sound_device 000000014003db58     pjmedia-x86_64-x64-vc14-release:sound_port.obj
 0002:00011b74       $unwind$pjmedia_wav_writer_port_create 000000014003db74     pjmedia-x86_64-x64-vc14-release:wav_writer.obj
 0002:00011b90       $chain$1$pjmedia_wav_writer_port_create 000000014003db90     pjmedia-x86_64-x64-vc14-release:wav_writer.obj
 0002:00011ba8       $chain$2$pjmedia_wav_writer_port_create 000000014003dba8     pjmedia-x86_64-x64-vc14-release:wav_writer.obj
 0002:00011ba8       $chain$4$pjmedia_wav_writer_port_create 000000014003dba8     pjmedia-x86_64-x64-vc14-release:wav_writer.obj
 0002:00011bb8       $chain$3$pjmedia_wav_writer_port_create 000000014003dbb8     pjmedia-x86_64-x64-vc14-release:wav_writer.obj
 0002:00011bd0       $unwind$file_put_frame     000000014003dbd0     pjmedia-x86_64-x64-vc14-release:wav_writer.obj
 0002:00011bec       $unwind$file_on_destroy    000000014003dbec     pjmedia-x86_64-x64-vc14-release:wav_writer.obj
 0002:00011bf8       $unwind$pjmedia_aud_driver_init 000000014003dbf8     pjmedia-x86_64-x64-vc14-release:audiodev.obj
 0002:00011c14       $chain$2$pjmedia_aud_driver_init 000000014003dc14     pjmedia-x86_64-x64-vc14-release:audiodev.obj
 0002:00011c30       $chain$3$pjmedia_aud_driver_init 000000014003dc30     pjmedia-x86_64-x64-vc14-release:audiodev.obj
 0002:00011c30       $chain$5$pjmedia_aud_driver_init 000000014003dc30     pjmedia-x86_64-x64-vc14-release:audiodev.obj
 0002:00011c40       $chain$4$pjmedia_aud_driver_init 000000014003dc40     pjmedia-x86_64-x64-vc14-release:audiodev.obj
 0002:00011c5c       $chain$0$pjmedia_aud_dev_default_param 000000014003dc5c     pjmedia-x86_64-x64-vc14-release:audiodev.obj
 0002:00011c70       $chain$1$pjmedia_aud_dev_default_param 000000014003dc70     pjmedia-x86_64-x64-vc14-release:audiodev.obj
 0002:00011c80       $unwind$pjmedia_aud_stream_create 000000014003dc80     pjmedia-x86_64-x64-vc14-release:audiodev.obj
 0002:00011ca0       $chain$0$pjmedia_aud_stream_create 000000014003dca0     pjmedia-x86_64-x64-vc14-release:audiodev.obj
 0002:00011cb4       $chain$1$pjmedia_aud_stream_create 000000014003dcb4     pjmedia-x86_64-x64-vc14-release:audiodev.obj
 0002:00011cb4       $chain$3$pjmedia_aud_stream_create 000000014003dcb4     pjmedia-x86_64-x64-vc14-release:audiodev.obj
 0002:00011cc4       $chain$2$pjmedia_aud_stream_create 000000014003dcc4     pjmedia-x86_64-x64-vc14-release:audiodev.obj
 0002:00011cd8       $unwind$lookup_dev         000000014003dcd8     pjmedia-x86_64-x64-vc14-release:audiodev.obj
 0002:00011cd8       $unwind$aes_inv_round      000000014003dcd8     libsrtp-x86_64-x64-vc14-release:aes.obj
 0002:00011cd8       $unwind$aes_round          000000014003dcd8     libsrtp-x86_64-x64-vc14-release:aes.obj
 0002:00011cd8       $unwind$srtp_rdbx_estimate_index 000000014003dcd8     libsrtp-x86_64-x64-vc14-release:rdbx.obj
 0002:00011ce4       $unwind$pjmedia_event_subscribe 000000014003dce4     pjmedia-x86_64-x64-vc14-release:event.obj
 0002:00011cf4       $chain$0$pjmedia_event_subscribe 000000014003dcf4     pjmedia-x86_64-x64-vc14-release:event.obj
 0002:00011d08       $chain$1$pjmedia_event_subscribe 000000014003dd08     pjmedia-x86_64-x64-vc14-release:event.obj
 0002:00011d1c       $chain$2$pjmedia_event_subscribe 000000014003dd1c     pjmedia-x86_64-x64-vc14-release:event.obj
 0002:00011d2c       $chain$4$pjmedia_event_subscribe 000000014003dd2c     pjmedia-x86_64-x64-vc14-release:event.obj
 0002:00011d44       $chain$6$pjmedia_event_subscribe 000000014003dd44     pjmedia-x86_64-x64-vc14-release:event.obj
 0002:00011d54       $unwind$pjmedia_event_unsubscribe 000000014003dd54     pjmedia-x86_64-x64-vc14-release:event.obj
 0002:00011d64       $chain$1$pjmedia_event_unsubscribe 000000014003dd64     pjmedia-x86_64-x64-vc14-release:event.obj
 0002:00011d7c       $chain$2$pjmedia_event_unsubscribe 000000014003dd7c     pjmedia-x86_64-x64-vc14-release:event.obj
 0002:00011d90       $chain$3$pjmedia_event_unsubscribe 000000014003dd90     pjmedia-x86_64-x64-vc14-release:event.obj
 0002:00011da0       $chain$4$pjmedia_event_unsubscribe 000000014003dda0     pjmedia-x86_64-x64-vc14-release:event.obj
 0002:00011db0       $unwind$pjmedia_event_publish 000000014003ddb0     pjmedia-x86_64-x64-vc14-release:event.obj
 0002:00011dc4       $chain$1$pjmedia_event_publish 000000014003ddc4     pjmedia-x86_64-x64-vc14-release:event.obj
 0002:00011ddc       $chain$2$pjmedia_event_publish 000000014003dddc     pjmedia-x86_64-x64-vc14-release:event.obj
 0002:00011dec       $unwind$event_queue_add_event 000000014003ddec     pjmedia-x86_64-x64-vc14-release:event.obj
 0002:00011dfc       $unwind$pjmedia_sdp_attr_create 000000014003ddfc     pjmedia-x86_64-x64-vc14-release:sdp.obj
 0002:00011e0c       $chain$0$pjmedia_sdp_attr_create 000000014003de0c     pjmedia-x86_64-x64-vc14-release:sdp.obj
 0002:00011e20       $chain$2$pjmedia_sdp_attr_create 000000014003de20     pjmedia-x86_64-x64-vc14-release:sdp.obj
 0002:00011e34       $chain$3$pjmedia_sdp_attr_create 000000014003de34     pjmedia-x86_64-x64-vc14-release:sdp.obj
 0002:00011e44       $unwind$pjmedia_sdp_media_find_attr 000000014003de44     pjmedia-x86_64-x64-vc14-release:sdp.obj
 0002:00011e50       $chain$3$pjmedia_sdp_media_find_attr 000000014003de50     pjmedia-x86_64-x64-vc14-release:sdp.obj
 0002:00011e70       $chain$5$pjmedia_sdp_media_find_attr 000000014003de70     pjmedia-x86_64-x64-vc14-release:sdp.obj
 0002:00011e88       $chain$6$pjmedia_sdp_media_find_attr 000000014003de88     pjmedia-x86_64-x64-vc14-release:sdp.obj
 0002:00011e98       $chain$7$pjmedia_sdp_media_find_attr 000000014003de98     pjmedia-x86_64-x64-vc14-release:sdp.obj
 0002:00011ea8       $unwind$pjmedia_sdp_transport_get_proto 000000014003dea8     pjmedia-x86_64-x64-vc14-release:sdp.obj
 0002:00011eb0       $chain$0$pjmedia_codec_mgr_destroy 000000014003deb0     pjmedia-x86_64-x64-vc14-release:codec.obj
 0002:00011ec4       $chain$1$pjmedia_codec_mgr_destroy 000000014003dec4     pjmedia-x86_64-x64-vc14-release:codec.obj
 0002:00011ed8       $chain$2$pjmedia_codec_mgr_destroy 000000014003ded8     pjmedia-x86_64-x64-vc14-release:codec.obj
 0002:00011ee8       $chain$3$pjmedia_codec_mgr_destroy 000000014003dee8     pjmedia-x86_64-x64-vc14-release:codec.obj
 0002:00011ef8       $unwind$pjmedia_strerror   000000014003def8     pjmedia-x86_64-x64-vc14-release:errno.obj
 0002:00011f0c       $chain$1$pjmedia_strerror  000000014003df0c     pjmedia-x86_64-x64-vc14-release:errno.obj
 0002:00011f20       $chain$2$pjmedia_strerror  000000014003df20     pjmedia-x86_64-x64-vc14-release:errno.obj
 0002:00011f30       $unwind$pjmedia_echo_create2 000000014003df30     pjmedia-x86_64-x64-vc14-release:echo_common.obj
 0002:00011f48       $chain$0$pjmedia_echo_playback 000000014003df48     pjmedia-x86_64-x64-vc14-release:echo_common.obj
 0002:00011f5c       $chain$2$pjmedia_echo_playback 000000014003df5c     pjmedia-x86_64-x64-vc14-release:echo_common.obj
 0002:00011f70       $chain$3$pjmedia_echo_playback 000000014003df70     pjmedia-x86_64-x64-vc14-release:echo_common.obj
 0002:00011f80       $unwind$pjmedia_echo_capture 000000014003df80     pjmedia-x86_64-x64-vc14-release:echo_common.obj
 0002:00011f98       $unwind$pjmedia_transport_srtp_start 000000014003df98     pjmedia-x86_64-x64-vc14-release:transport_srtp.obj
 0002:00011fb4       $chain$2$pjmedia_transport_srtp_start 000000014003dfb4     pjmedia-x86_64-x64-vc14-release:transport_srtp.obj
 0002:00011fd0       $chain$3$pjmedia_transport_srtp_start 000000014003dfd0     pjmedia-x86_64-x64-vc14-release:transport_srtp.obj
 0002:00011fe0       $chain$4$pjmedia_transport_srtp_start 000000014003dfe0     pjmedia-x86_64-x64-vc14-release:transport_srtp.obj
 0002:00011ffc       $unwind$pjmedia_transport_srtp_stop 000000014003dffc     pjmedia-x86_64-x64-vc14-release:transport_srtp.obj
 0002:00012010       $unwind$srtp_rtp_cb        000000014003e010     pjmedia-x86_64-x64-vc14-release:transport_srtp.obj
 0002:00012020       $chain$0$srtp_rtp_cb       000000014003e020     pjmedia-x86_64-x64-vc14-release:transport_srtp.obj
 0002:00012034       $chain$2$srtp_rtp_cb       000000014003e034     pjmedia-x86_64-x64-vc14-release:transport_srtp.obj
 0002:0001204c       $chain$3$srtp_rtp_cb       000000014003e04c     pjmedia-x86_64-x64-vc14-release:transport_srtp.obj
 0002:0001205c       $chain$4$srtp_rtp_cb       000000014003e05c     pjmedia-x86_64-x64-vc14-release:transport_srtp.obj
 0002:0001206c       $unwind$srtp_rtcp_cb       000000014003e06c     pjmedia-x86_64-x64-vc14-release:transport_srtp.obj
 0002:0001207c       $chain$0$srtp_rtcp_cb      000000014003e07c     pjmedia-x86_64-x64-vc14-release:transport_srtp.obj
 0002:00012090       $chain$1$srtp_rtcp_cb      000000014003e090     pjmedia-x86_64-x64-vc14-release:transport_srtp.obj
 0002:000120a0       $unwind$transport_get_info 000000014003e0a0     pjmedia-x86_64-x64-vc14-release:transport_srtp.obj
 0002:000120ac       $chain$0$transport_get_info 000000014003e0ac     pjmedia-x86_64-x64-vc14-release:transport_srtp.obj
 0002:000120c0       $chain$1$transport_get_info 000000014003e0c0     pjmedia-x86_64-x64-vc14-release:transport_srtp.obj
 0002:000120d0       $unwind$transport_detach   000000014003e0d0     pjmedia-x86_64-x64-vc14-release:transport_srtp.obj
 0002:000120d0       $unwind$spx_drft_clear     000000014003e0d0     libspeex-x86_64-x64-vc14-release:smallft.obj
 0002:000120d8       $chain$0$transport_detach  000000014003e0d8     pjmedia-x86_64-x64-vc14-release:transport_srtp.obj
 0002:000120ec       $chain$1$transport_detach  000000014003e0ec     pjmedia-x86_64-x64-vc14-release:transport_srtp.obj
 0002:000120fc       $chain$0$transport_send_rtp 000000014003e0fc     pjmedia-x86_64-x64-vc14-release:transport_srtp.obj
 0002:00012110       $chain$3$transport_send_rtp 000000014003e110     pjmedia-x86_64-x64-vc14-release:transport_srtp.obj
 0002:00012128       $chain$5$transport_send_rtp 000000014003e128     pjmedia-x86_64-x64-vc14-release:transport_srtp.obj
 0002:00012140       $unwind$pj_atomic_dec_and_get 000000014003e140     pjlib-x86_64-x64-vc14-release:os_core_win32.obj
 0002:00012140       $unwind$pj_mutex_destroy   000000014003e140     pjlib-x86_64-x64-vc14-release:os_core_win32.obj
 0002:00012140       $unwind$pj_mutex_lock      000000014003e140     pjlib-x86_64-x64-vc14-release:os_core_win32.obj
 0002:00012140       $unwind$pj_mutex_trylock   000000014003e140     pjlib-x86_64-x64-vc14-release:os_core_win32.obj
 0002:00012140       $unwind$pj_mutex_unlock    000000014003e140     pjlib-x86_64-x64-vc14-release:os_core_win32.obj
 0002:00012140       $unwind$pj_sem_destroy     000000014003e140     pjlib-x86_64-x64-vc14-release:os_core_win32.obj
 0002:00012140       $unwind$pj_sem_post        000000014003e140     pjlib-x86_64-x64-vc14-release:os_core_win32.obj
 0002:00012140       $unwind$pj_sem_trywait     000000014003e140     pjlib-x86_64-x64-vc14-release:os_core_win32.obj
 0002:00012140       $unwind$pj_sem_wait        000000014003e140     pjlib-x86_64-x64-vc14-release:os_core_win32.obj
 0002:00012140       $unwind$pj_thread_destroy  000000014003e140     pjlib-x86_64-x64-vc14-release:os_core_win32.obj
 0002:00012140       $unwind$pj_thread_get_name 000000014003e140     pjlib-x86_64-x64-vc14-release:os_core_win32.obj
 0002:00012140       $unwind$pj_thread_local_free 000000014003e140     pjlib-x86_64-x64-vc14-release:os_core_win32.obj
 0002:00012140       $unwind$pj_thread_sleep    000000014003e140     pjlib-x86_64-x64-vc14-release:os_core_win32.obj
 0002:00012140       $unwind$thread_main        000000014003e140     pjlib-x86_64-x64-vc14-release:os_core_win32.obj
 0002:00012140       $unwind$pj_gettickcount    000000014003e140     pjlib-x86_64-x64-vc14-release:os_timestamp_common.obj
 0002:00012140       $unwind$update             000000014003e140     pjmedia-x86_64-x64-vc14-release:delaybuf.obj
 0002:00012140       $unwind$transport_send_rtcp 000000014003e140     pjmedia-x86_64-x64-vc14-release:transport_srtp.obj
 0002:00012148       $chain$0$transport_send_rtcp 000000014003e148     pjmedia-x86_64-x64-vc14-release:transport_srtp.obj
 0002:0001215c       $chain$3$transport_send_rtcp 000000014003e15c     pjmedia-x86_64-x64-vc14-release:transport_srtp.obj
 0002:00012174       $chain$5$transport_send_rtcp 000000014003e174     pjmedia-x86_64-x64-vc14-release:transport_srtp.obj
 0002:0001218c       $unwind$transport_send_rtcp2 000000014003e18c     pjmedia-x86_64-x64-vc14-release:transport_srtp.obj
 0002:000121a0       $chain$1$transport_send_rtcp2 000000014003e1a0     pjmedia-x86_64-x64-vc14-release:transport_srtp.obj
 0002:000121b4       $chain$2$transport_send_rtcp2 000000014003e1b4     pjmedia-x86_64-x64-vc14-release:transport_srtp.obj
 0002:000121c4       $unwind$transport_media_create 000000014003e1c4     pjmedia-x86_64-x64-vc14-release:transport_srtp.obj
 0002:000121dc       $chain$1$transport_media_create 000000014003e1dc     pjmedia-x86_64-x64-vc14-release:transport_srtp.obj
 0002:000121f0       $chain$2$transport_media_create 000000014003e1f0     pjmedia-x86_64-x64-vc14-release:transport_srtp.obj
 0002:00012200       $unwind$transport_encode_sdp 000000014003e200     pjmedia-x86_64-x64-vc14-release:transport_srtp.obj
 0002:00012210       $chain$0$transport_encode_sdp 000000014003e210     pjmedia-x86_64-x64-vc14-release:transport_srtp.obj
 0002:00012224       $chain$2$transport_encode_sdp 000000014003e224     pjmedia-x86_64-x64-vc14-release:transport_srtp.obj
 0002:0001223c       $chain$3$transport_encode_sdp 000000014003e23c     pjmedia-x86_64-x64-vc14-release:transport_srtp.obj
 0002:0001224c       $chain$5$transport_encode_sdp 000000014003e24c     pjmedia-x86_64-x64-vc14-release:transport_srtp.obj
 0002:00012268       $chain$6$transport_encode_sdp 000000014003e268     pjmedia-x86_64-x64-vc14-release:transport_srtp.obj
 0002:00012278       $unwind$transport_media_start 000000014003e278     pjmedia-x86_64-x64-vc14-release:transport_srtp.obj
 0002:0001228c       $chain$2$transport_media_start 000000014003e28c     pjmedia-x86_64-x64-vc14-release:transport_srtp.obj
 0002:000122a4       $chain$3$transport_media_start 000000014003e2a4     pjmedia-x86_64-x64-vc14-release:transport_srtp.obj
 0002:000122b4       $unwind$transport_media_stop 000000014003e2b4     pjmedia-x86_64-x64-vc14-release:transport_srtp.obj
 0002:000122c0       $chain$2$transport_media_stop 000000014003e2c0     pjmedia-x86_64-x64-vc14-release:transport_srtp.obj
 0002:000122d8       $chain$3$transport_media_stop 000000014003e2d8     pjmedia-x86_64-x64-vc14-release:transport_srtp.obj
 0002:000122e8       $unwind$transport_destroy  000000014003e2e8     pjmedia-x86_64-x64-vc14-release:transport_srtp.obj
 0002:000122f4       $unwind$transport_attach2  000000014003e2f4     pjmedia-x86_64-x64-vc14-release:transport_srtp.obj
 0002:00012308       $chain$1$transport_attach2 000000014003e308     pjmedia-x86_64-x64-vc14-release:transport_srtp.obj
 0002:00012320       $chain$2$transport_attach2 000000014003e320     pjmedia-x86_64-x64-vc14-release:transport_srtp.obj
 0002:00012320       $chain$4$transport_attach2 000000014003e320     pjmedia-x86_64-x64-vc14-release:transport_srtp.obj
 0002:00012330       $chain$3$transport_attach2 000000014003e330     pjmedia-x86_64-x64-vc14-release:transport_srtp.obj
 0002:00012348       $unwind$get_crypto_idx     000000014003e348     pjmedia-x86_64-x64-vc14-release:transport_srtp.obj
 0002:0001235c       $unwind$sdes_encode_sdp    000000014003e35c     pjmedia-x86_64-x64-vc14-release:transport_srtp.obj
 0002:00012384       $unwind$sdes_media_start   000000014003e384     pjmedia-x86_64-x64-vc14-release:transport_srtp.obj
 0002:000123a0       $chain$1$sdes_media_start  000000014003e3a0     pjmedia-x86_64-x64-vc14-release:transport_srtp.obj
 0002:000123b8       $chain$2$sdes_media_start  000000014003e3b8     pjmedia-x86_64-x64-vc14-release:transport_srtp.obj
 0002:000123c8       $unwind$generate_crypto_attr_value 000000014003e3c8     pjmedia-x86_64-x64-vc14-release:transport_srtp.obj
 0002:000123e0       $chain$3$generate_crypto_attr_value 000000014003e3e0     pjmedia-x86_64-x64-vc14-release:transport_srtp.obj
 0002:00012400       $chain$4$generate_crypto_attr_value 000000014003e400     pjmedia-x86_64-x64-vc14-release:transport_srtp.obj
 0002:00012410       $chain$5$generate_crypto_attr_value 000000014003e410     pjmedia-x86_64-x64-vc14-release:transport_srtp.obj
 0002:00012430       $unwind$parse_attr_crypto  000000014003e430     pjmedia-x86_64-x64-vc14-release:transport_srtp.obj
 0002:00012448       $unwind$fill_local_crypto  000000014003e448     pjmedia-x86_64-x64-vc14-release:transport_srtp.obj
 0002:00012468       $unwind$echo_supp_create   000000014003e468     pjmedia-x86_64-x64-vc14-release:echo_suppress.obj
 0002:0001247c       $chain$0$echo_supp_create  000000014003e47c     pjmedia-x86_64-x64-vc14-release:echo_suppress.obj
 0002:00012490       $chain$1$echo_supp_create  000000014003e490     pjmedia-x86_64-x64-vc14-release:echo_suppress.obj
 0002:000124a0       $unwind$echo_supp_get_stat 000000014003e4a0     pjmedia-x86_64-x64-vc14-release:echo_suppress.obj
 0002:000124b8       $unwind$pj_pool_create_int 000000014003e4b8     pjlib-x86_64-x64-vc14-release:pool.obj
 0002:000124b8       $unwind$pj_caching_pool_destroy 000000014003e4b8     pjlib-x86_64-x64-vc14-release:pool_caching.obj
 0002:000124b8       $unwind$pj_sockaddr_cmp    000000014003e4b8     pjlib-x86_64-x64-vc14-release:sock_common.obj
 0002:000124b8       $unwind$echo_supp_cancel_echo 000000014003e4b8     pjmedia-x86_64-x64-vc14-release:echo_suppress.obj
 0002:000124b8       $unwind$srtp_get_session_keys 000000014003e4b8     libsrtp-x86_64-x64-vc14-release:srtp.obj
 0002:000124b8       $unwind$srtp_stream_dealloc 000000014003e4b8     libsrtp-x86_64-x64-vc14-release:srtp.obj
 0002:000124d0       $unwind$echo_supp_update   000000014003e4d0     pjmedia-x86_64-x64-vc14-release:echo_suppress.obj
 0002:000124e0       $chain$1$echo_supp_update  000000014003e4e0     pjmedia-x86_64-x64-vc14-release:echo_suppress.obj
 0002:000124f8       $chain$2$echo_supp_update  000000014003e4f8     pjmedia-x86_64-x64-vc14-release:echo_suppress.obj
 0002:0001250c       $chain$3$echo_supp_update  000000014003e50c     pjmedia-x86_64-x64-vc14-release:echo_suppress.obj
 0002:00012520       $chain$4$echo_supp_update  000000014003e520     pjmedia-x86_64-x64-vc14-release:echo_suppress.obj
 0002:00012530       $chain$5$echo_supp_update  000000014003e530     pjmedia-x86_64-x64-vc14-release:echo_suppress.obj
 0002:00012540       $chain$6$echo_supp_update  000000014003e540     pjmedia-x86_64-x64-vc14-release:echo_suppress.obj
 0002:00012550       $chain$7$echo_supp_update  000000014003e550     pjmedia-x86_64-x64-vc14-release:echo_suppress.obj
 0002:0001256c       $unwind$speex_aec_create   000000014003e56c     pjmedia-x86_64-x64-vc14-release:echo_speex.obj
 0002:00012580       $chain$1$speex_aec_create  000000014003e580     pjmedia-x86_64-x64-vc14-release:echo_speex.obj
 0002:00012598       $chain$3$speex_aec_create  000000014003e598     pjmedia-x86_64-x64-vc14-release:echo_speex.obj
 0002:000125b0       $chain$4$speex_aec_create  000000014003e5b0     pjmedia-x86_64-x64-vc14-release:echo_speex.obj
 0002:000125c0       $chain$0$speex_aec_destroy 000000014003e5c0     pjmedia-x86_64-x64-vc14-release:echo_speex.obj
 0002:000125d4       $chain$1$speex_aec_destroy 000000014003e5d4     pjmedia-x86_64-x64-vc14-release:echo_speex.obj
 0002:000125e8       $chain$2$speex_aec_destroy 000000014003e5e8     pjmedia-x86_64-x64-vc14-release:echo_speex.obj
 0002:000125fc       $chain$3$speex_aec_destroy 000000014003e5fc     pjmedia-x86_64-x64-vc14-release:echo_speex.obj
 0002:0001260c       $chain$4$speex_aec_destroy 000000014003e60c     pjmedia-x86_64-x64-vc14-release:echo_speex.obj
 0002:0001261c       $chain$5$speex_aec_destroy 000000014003e61c     pjmedia-x86_64-x64-vc14-release:echo_speex.obj
 0002:0001262c       $unwind$speex_aec_cancel_echo 000000014003e62c     pjmedia-x86_64-x64-vc14-release:echo_speex.obj
 0002:0001262c       $unwind$speex_aec_capture  000000014003e62c     pjmedia-x86_64-x64-vc14-release:echo_speex.obj
 0002:0001262c       $unwind$speex_echo_playback 000000014003e62c     libspeex-x86_64-x64-vc14-release:mdf.obj
 0002:00012638       $chain$0$speex_aec_cancel_echo 000000014003e638     pjmedia-x86_64-x64-vc14-release:echo_speex.obj
 0002:0001264c       $chain$1$speex_aec_cancel_echo 000000014003e64c     pjmedia-x86_64-x64-vc14-release:echo_speex.obj
 0002:0001265c       $chain$0$speex_aec_capture 000000014003e65c     pjmedia-x86_64-x64-vc14-release:echo_speex.obj
 0002:00012670       $chain$1$speex_aec_capture 000000014003e670     pjmedia-x86_64-x64-vc14-release:echo_speex.obj
 0002:00012680       $unwind$pjmedia_delay_buf_create 000000014003e680     pjmedia-x86_64-x64-vc14-release:delaybuf.obj
 0002:00012698       $chain$0$pjmedia_delay_buf_create 000000014003e698     pjmedia-x86_64-x64-vc14-release:delaybuf.obj
 0002:000126ac       $chain$1$pjmedia_delay_buf_create 000000014003e6ac     pjmedia-x86_64-x64-vc14-release:delaybuf.obj
 0002:000126bc       $unwind$pjmedia_delay_buf_put 000000014003e6bc     pjmedia-x86_64-x64-vc14-release:delaybuf.obj
 0002:000126c8       $chain$0$pjmedia_delay_buf_put 000000014003e6c8     pjmedia-x86_64-x64-vc14-release:delaybuf.obj
 0002:000126dc       $chain$2$pjmedia_delay_buf_put 000000014003e6dc     pjmedia-x86_64-x64-vc14-release:delaybuf.obj
 0002:000126f0       $chain$3$pjmedia_delay_buf_put 000000014003e6f0     pjmedia-x86_64-x64-vc14-release:delaybuf.obj
 0002:00012700       $unwind$pjmedia_delay_buf_get 000000014003e700     pjmedia-x86_64-x64-vc14-release:delaybuf.obj
 0002:00012700       $unwind$srtp_aes_expand_encryption_key 000000014003e700     libsrtp-x86_64-x64-vc14-release:aes.obj
 0002:00012710       $chain$0$pjmedia_delay_buf_get 000000014003e710     pjmedia-x86_64-x64-vc14-release:delaybuf.obj
 0002:00012724       $chain$1$pjmedia_delay_buf_get 000000014003e724     pjmedia-x86_64-x64-vc14-release:delaybuf.obj
 0002:00012734       $unwind$pjmedia_circ_buf_read 000000014003e734     pjmedia-x86_64-x64-vc14-release:delaybuf.obj
 0002:00012748       $chain$1$pjmedia_circ_buf_read 000000014003e748     pjmedia-x86_64-x64-vc14-release:delaybuf.obj
 0002:0001275c       $chain$2$pjmedia_circ_buf_read 000000014003e75c     pjmedia-x86_64-x64-vc14-release:delaybuf.obj
 0002:0001276c       $unwind$pjmedia_circ_buf_write 000000014003e76c     pjmedia-x86_64-x64-vc14-release:delaybuf.obj
 0002:00012780       $chain$0$pjmedia_circ_buf_write 000000014003e780     pjmedia-x86_64-x64-vc14-release:delaybuf.obj
 0002:00012794       $chain$1$pjmedia_circ_buf_write 000000014003e794     pjmedia-x86_64-x64-vc14-release:delaybuf.obj
 0002:000127a4       $unwind$shrink_buffer      000000014003e7a4     pjmedia-x86_64-x64-vc14-release:delaybuf.obj
 0002:000127ac       $chain$0$update            000000014003e7ac     pjmedia-x86_64-x64-vc14-release:delaybuf.obj
 0002:000127c0       $chain$1$update            000000014003e7c0     pjmedia-x86_64-x64-vc14-release:delaybuf.obj
 0002:000127d0       $unwind$pjmedia_wsola_create 000000014003e7d0     pjmedia-x86_64-x64-vc14-release:wsola.obj
 0002:000127e0       $chain$4$pjmedia_wsola_create 000000014003e7e0     pjmedia-x86_64-x64-vc14-release:wsola.obj
 0002:00012804       $chain$5$pjmedia_wsola_create 000000014003e804     pjmedia-x86_64-x64-vc14-release:wsola.obj
 0002:00012818       $chain$6$pjmedia_wsola_create 000000014003e818     pjmedia-x86_64-x64-vc14-release:wsola.obj
 0002:00012828       $chain$7$pjmedia_wsola_create 000000014003e828     pjmedia-x86_64-x64-vc14-release:wsola.obj
 0002:0001283c       $chain$8$pjmedia_wsola_create 000000014003e83c     pjmedia-x86_64-x64-vc14-release:wsola.obj
 0002:0001284c       $unwind$pjmedia_wsola_save 000000014003e84c     pjmedia-x86_64-x64-vc14-release:wsola.obj
 0002:00012860       $chain$1$pjmedia_wsola_save 000000014003e860     pjmedia-x86_64-x64-vc14-release:wsola.obj
 0002:00012878       $chain$2$pjmedia_wsola_save 000000014003e878     pjmedia-x86_64-x64-vc14-release:wsola.obj
 0002:00012888       $unwind$pjmedia_wsola_discard 000000014003e888     pjmedia-x86_64-x64-vc14-release:wsola.obj
 0002:000128a0       $chain$0$pjmedia_wsola_discard 000000014003e8a0     pjmedia-x86_64-x64-vc14-release:wsola.obj
 0002:000128b4       $chain$1$pjmedia_wsola_discard 000000014003e8b4     pjmedia-x86_64-x64-vc14-release:wsola.obj
 0002:000128c4       $unwind$pjmedia_circ_buf_copy 000000014003e8c4     pjmedia-x86_64-x64-vc14-release:wsola.obj
 0002:000128d8       $unwind$pjmedia_circ_buf_pack_buffer 000000014003e8d8     pjmedia-x86_64-x64-vc14-release:wsola.obj
 0002:000128ec       $chain$1$pjmedia_circ_buf_pack_buffer 000000014003e8ec     pjmedia-x86_64-x64-vc14-release:wsola.obj
 0002:00012904       $chain$2$pjmedia_circ_buf_pack_buffer 000000014003e904     pjmedia-x86_64-x64-vc14-release:wsola.obj
 0002:00012914       $unwind$find_pitch         000000014003e914     pjmedia-x86_64-x64-vc14-release:wsola.obj
 0002:00012924       $chain$4$find_pitch        000000014003e924     pjmedia-x86_64-x64-vc14-release:wsola.obj
 0002:00012948       $chain$5$find_pitch        000000014003e948     pjmedia-x86_64-x64-vc14-release:wsola.obj
 0002:00012958       $unwind$overlapp_add       000000014003e958     pjmedia-x86_64-x64-vc14-release:wsola.obj
 0002:00012964       $chain$3$overlapp_add      000000014003e964     pjmedia-x86_64-x64-vc14-release:wsola.obj
 0002:00012984       $chain$4$overlapp_add      000000014003e984     pjmedia-x86_64-x64-vc14-release:wsola.obj
 0002:00012994       $unwind$overlapp_add_simple 000000014003e994     pjmedia-x86_64-x64-vc14-release:wsola.obj
 0002:00012994       $unwind$__scrt_is_nonwritable_in_current_image$filt$0 000000014003e994     MSVCRT:utility.obj
 0002:0001299c       $chain$2$overlapp_add_simple 000000014003e99c     pjmedia-x86_64-x64-vc14-release:wsola.obj
 0002:000129b8       $chain$3$overlapp_add_simple 000000014003e9b8     pjmedia-x86_64-x64-vc14-release:wsola.obj
 0002:000129c8       $unwind$compress           000000014003e9c8     pjmedia-x86_64-x64-vc14-release:wsola.obj
 0002:000129c8       $unwind$expand             000000014003e9c8     pjmedia-x86_64-x64-vc14-release:wsola.obj
 0002:000129e4       $unwind$pj_base64_encode   000000014003e9e4     pjlib-util-x86_64-x64-vc14-release:base64.obj
 0002:000129f4       $chain$2$pj_base64_encode  000000014003e9f4     pjlib-util-x86_64-x64-vc14-release:base64.obj
 0002:00012a10       $chain$3$pj_base64_encode  000000014003ea10     pjlib-util-x86_64-x64-vc14-release:base64.obj
 0002:00012a20       $unwind$pj_base64_decode   000000014003ea20     pjlib-util-x86_64-x64-vc14-release:base64.obj
 0002:00012a34       $chain$0$pj_base64_decode  000000014003ea34     pjlib-util-x86_64-x64-vc14-release:base64.obj
 0002:00012a48       $chain$2$pj_base64_decode  000000014003ea48     pjlib-util-x86_64-x64-vc14-release:base64.obj
 0002:00012a60       $chain$3$pj_base64_decode  000000014003ea60     pjlib-util-x86_64-x64-vc14-release:base64.obj
 0002:00012a70       $chain$4$pj_base64_decode  000000014003ea70     pjlib-util-x86_64-x64-vc14-release:base64.obj
 0002:00012a80       $unwind$pj_init            000000014003ea80     pjlib-x86_64-x64-vc14-release:os_core_win32.obj
 0002:00012a94       $unwind$pj_shutdown        000000014003ea94     pjlib-x86_64-x64-vc14-release:os_core_win32.obj
 0002:00012a9c       $chain$1$pj_shutdown       000000014003ea9c     pjlib-x86_64-x64-vc14-release:os_core_win32.obj
 0002:00012ab4       $chain$2$pj_shutdown       000000014003eab4     pjlib-x86_64-x64-vc14-release:os_core_win32.obj
 0002:00012ac4       $unwind$pj_thread_create   000000014003eac4     pjlib-x86_64-x64-vc14-release:os_core_win32.obj
 0002:00012adc       $chain$1$pj_thread_create  000000014003eadc     pjlib-x86_64-x64-vc14-release:os_core_win32.obj
 0002:00012af0       $chain$2$pj_thread_create  000000014003eaf0     pjlib-x86_64-x64-vc14-release:os_core_win32.obj
 0002:00012af0       $chain$4$pj_thread_create  000000014003eaf0     pjlib-x86_64-x64-vc14-release:os_core_win32.obj
 0002:00012b00       $chain$3$pj_thread_create  000000014003eb00     pjlib-x86_64-x64-vc14-release:os_core_win32.obj
 0002:00012b14       $unwind$pj_thread_join     000000014003eb14     pjlib-x86_64-x64-vc14-release:os_core_win32.obj
 0002:00012b1c       $chain$0$pj_thread_join    000000014003eb1c     pjlib-x86_64-x64-vc14-release:os_core_win32.obj
 0002:00012b30       $chain$2$pj_thread_join    000000014003eb30     pjlib-x86_64-x64-vc14-release:os_core_win32.obj
 0002:00012b30       $chain$4$pj_thread_join    000000014003eb30     pjlib-x86_64-x64-vc14-release:os_core_win32.obj
 0002:00012b30       $chain$6$pj_thread_join    000000014003eb30     pjlib-x86_64-x64-vc14-release:os_core_win32.obj
 0002:00012b44       $unwind$pj_atomic_inc      000000014003eb44     pjlib-x86_64-x64-vc14-release:os_core_win32.obj
 0002:00012b4c       $unwind$pj_mutex_create    000000014003eb4c     pjlib-x86_64-x64-vc14-release:os_core_win32.obj
 0002:00012b4c       $unwind$pj_mutex_create_recursive 000000014003eb4c     pjlib-x86_64-x64-vc14-release:os_core_win32.obj
 0002:00012b4c       $unwind$pj_mutex_create_simple 000000014003eb4c     pjlib-x86_64-x64-vc14-release:os_core_win32.obj
 0002:00012b4c       $unwind$srtp_aes_expand_decryption_key 000000014003eb4c     libsrtp-x86_64-x64-vc14-release:aes.obj
 0002:00012b58       $chain$0$pj_mutex_create   000000014003eb58     pjlib-x86_64-x64-vc14-release:os_core_win32.obj
 0002:00012b6c       $chain$2$pj_mutex_create   000000014003eb6c     pjlib-x86_64-x64-vc14-release:os_core_win32.obj
 0002:00012b80       $chain$3$pj_mutex_create   000000014003eb80     pjlib-x86_64-x64-vc14-release:os_core_win32.obj
 0002:00012b90       $chain$0$pj_mutex_create_recursive 000000014003eb90     pjlib-x86_64-x64-vc14-release:os_core_win32.obj
 0002:00012b90       $chain$0$pj_mutex_create_simple 000000014003eb90     pjlib-x86_64-x64-vc14-release:os_core_win32.obj
 0002:00012ba4       $chain$2$pj_mutex_create_recursive 000000014003eba4     pjlib-x86_64-x64-vc14-release:os_core_win32.obj
 0002:00012ba4       $chain$2$pj_mutex_create_simple 000000014003eba4     pjlib-x86_64-x64-vc14-release:os_core_win32.obj
 0002:00012bb8       $chain$3$pj_mutex_create_recursive 000000014003ebb8     pjlib-x86_64-x64-vc14-release:os_core_win32.obj
 0002:00012bb8       $chain$3$pj_mutex_create_simple 000000014003ebb8     pjlib-x86_64-x64-vc14-release:os_core_win32.obj
 0002:00012bc8       $unwind$pj_enter_critical_section 000000014003ebc8     pjlib-x86_64-x64-vc14-release:os_core_win32.obj
 0002:00012bc8       $unwind$pj_leave_critical_section 000000014003ebc8     pjlib-x86_64-x64-vc14-release:os_core_win32.obj
 0002:00012bc8       $unwind$spx_drft_backward  000000014003ebc8     libspeex-x86_64-x64-vc14-release:smallft.obj
 0002:00012bc8       $unwind$spx_drft_forward   000000014003ebc8     libspeex-x86_64-x64-vc14-release:smallft.obj
 0002:00012bc8       $unwind$srtp_protect       000000014003ebc8     libsrtp-x86_64-x64-vc14-release:srtp.obj
 0002:00012bc8       $unwind$srtp_protect_rtcp  000000014003ebc8     libsrtp-x86_64-x64-vc14-release:srtp.obj
 0002:00012bd0       $unwind$init_mutex         000000014003ebd0     pjlib-x86_64-x64-vc14-release:os_core_win32.obj
 0002:00012be0       $unwind$pj_pool_alloc      000000014003ebe0     pjlib-x86_64-x64-vc14-release:pool.obj
 0002:00012bf0       $chain$1$pj_pool_alloc     000000014003ebf0     pjlib-x86_64-x64-vc14-release:pool.obj
 0002:00012c08       $chain$2$pj_pool_alloc     000000014003ec08     pjlib-x86_64-x64-vc14-release:pool.obj
 0002:00012c1c       $chain$3$pj_pool_alloc     000000014003ec1c     pjlib-x86_64-x64-vc14-release:pool.obj
 0002:00012c2c       $chain$5$pj_pool_alloc     000000014003ec2c     pjlib-x86_64-x64-vc14-release:pool.obj
 0002:00012c48       $chain$0$reset_pool        000000014003ec48     pjlib-x86_64-x64-vc14-release:pool.obj
 0002:00012c5c       $chain$1$reset_pool        000000014003ec5c     pjlib-x86_64-x64-vc14-release:pool.obj
 0002:00012c6c       $unwind$cpool_create_pool  000000014003ec6c     pjlib-x86_64-x64-vc14-release:pool_caching.obj
 0002:00012c84       $unwind$cpool_release_pool 000000014003ec84     pjlib-x86_64-x64-vc14-release:pool_caching.obj
 0002:00012c84       $unwind$srtp_aes_icm_alloc 000000014003ec84     libsrtp-x86_64-x64-vc14-release:aes_icm.obj
 0002:00012c90       $chain$0$cpool_release_pool 000000014003ec90     pjlib-x86_64-x64-vc14-release:pool_caching.obj
 0002:00012ca4       $chain$1$cpool_release_pool 000000014003eca4     pjlib-x86_64-x64-vc14-release:pool_caching.obj
 0002:00012ca4       $chain$3$cpool_release_pool 000000014003eca4     pjlib-x86_64-x64-vc14-release:pool_caching.obj
 0002:00012cb4       $chain$2$cpool_release_pool 000000014003ecb4     pjlib-x86_64-x64-vc14-release:pool_caching.obj
 0002:00012cc8       $unwind$cpool_dump_status  000000014003ecc8     pjlib-x86_64-x64-vc14-release:pool_caching.obj
 0002:00012cd4       $chain$2$cpool_dump_status 000000014003ecd4     pjlib-x86_64-x64-vc14-release:pool_caching.obj
 0002:00012cf0       $chain$5$cpool_dump_status 000000014003ecf0     pjlib-x86_64-x64-vc14-release:pool_caching.obj
 0002:00012d0c       $chain$6$cpool_dump_status 000000014003ed0c     pjlib-x86_64-x64-vc14-release:pool_caching.obj
 0002:00012d1c       $chain$7$cpool_dump_status 000000014003ed1c     pjlib-x86_64-x64-vc14-release:pool_caching.obj
 0002:00012d2c       $unwind$pj_strerror        000000014003ed2c     pjlib-x86_64-x64-vc14-release:errno.obj
 0002:00012d40       $unwind$pj_register_strerror 000000014003ed40     pjlib-x86_64-x64-vc14-release:errno.obj
 0002:00012d48       $chain$0$pj_register_strerror 000000014003ed48     pjlib-x86_64-x64-vc14-release:errno.obj
 0002:00012d5c       $chain$2$pj_register_strerror 000000014003ed5c     pjlib-x86_64-x64-vc14-release:errno.obj
 0002:00012d70       $chain$3$pj_register_strerror 000000014003ed70     pjlib-x86_64-x64-vc14-release:errno.obj
 0002:00012d80       $unwind$pj_perror_3        000000014003ed80     pjlib-x86_64-x64-vc14-release:errno.obj
 0002:00012d80       $unwind$pj_perror_4        000000014003ed80     pjlib-x86_64-x64-vc14-release:errno.obj
 0002:00012d80       $unwind$pj_perror_5        000000014003ed80     pjlib-x86_64-x64-vc14-release:errno.obj
 0002:00012d88       $unwind$invoke_log         000000014003ed88     pjlib-x86_64-x64-vc14-release:errno.obj
 0002:00012d90       $unwind$pj_perror_imp      000000014003ed90     pjlib-x86_64-x64-vc14-release:errno.obj
 0002:00012dac       $unwind$default_block_alloc 000000014003edac     pjlib-x86_64-x64-vc14-release:pool_policy_malloc.obj
 0002:00012dbc       $unwind$pj_strtok          000000014003edbc     pjlib-x86_64-x64-vc14-release:string.obj
 0002:00012dd0       $chain$0$pj_strtok         000000014003edd0     pjlib-x86_64-x64-vc14-release:string.obj
 0002:00012de4       $chain$1$pj_strtok         000000014003ede4     pjlib-x86_64-x64-vc14-release:string.obj
 0002:00012df4       $unwind$pj_strtok2         000000014003edf4     pjlib-x86_64-x64-vc14-release:string.obj
 0002:00012e08       $chain$0$pj_strtok2        000000014003ee08     pjlib-x86_64-x64-vc14-release:string.obj
 0002:00012e1c       $chain$1$pj_strtok2        000000014003ee1c     pjlib-x86_64-x64-vc14-release:string.obj
 0002:00012e2c       $unwind$pj_strtoul         000000014003ee2c     pjlib-x86_64-x64-vc14-release:string.obj
 0002:00012e3c       $chain$0$pj_strtoul        000000014003ee3c     pjlib-x86_64-x64-vc14-release:string.obj
 0002:00012e50       $chain$1$pj_strtoul        000000014003ee50     pjlib-x86_64-x64-vc14-release:string.obj
 0002:00012e60       $unwind$pj_strtoul2        000000014003ee60     pjlib-x86_64-x64-vc14-release:string.obj
 0002:00012e74       $chain$0$pj_strtoul2       000000014003ee74     pjlib-x86_64-x64-vc14-release:string.obj
 0002:00012e88       $chain$1$pj_strtoul2       000000014003ee88     pjlib-x86_64-x64-vc14-release:string.obj
 0002:00012e98       $unwind$pj_utoa_pad        000000014003ee98     pjlib-x86_64-x64-vc14-release:string.obj
 0002:00012e98       $unwind$srtp_get_est_pkt_index 000000014003ee98     libsrtp-x86_64-x64-vc14-release:srtp.obj
 0002:00012eb0       $unwind$platform_strerror  000000014003eeb0     pjlib-x86_64-x64-vc14-release:os_error_win32.obj
 0002:00012ec4       $unwind$pj_log             000000014003eec4     pjlib-x86_64-x64-vc14-release:log.obj
 0002:00012ee0       $chain$2$pj_log            000000014003eee0     pjlib-x86_64-x64-vc14-release:log.obj
 0002:00012efc       $chain$3$pj_log            000000014003eefc     pjlib-x86_64-x64-vc14-release:log.obj
 0002:00012efc       $chain$5$pj_log            000000014003eefc     pjlib-x86_64-x64-vc14-release:log.obj
 0002:00012f10       $chain$4$pj_log            000000014003ef10     pjlib-x86_64-x64-vc14-release:log.obj
 0002:00012f20       $unwind$pj_log_1           000000014003ef20     pjlib-x86_64-x64-vc14-release:log.obj
 0002:00012f20       $unwind$pj_log_3           000000014003ef20     pjlib-x86_64-x64-vc14-release:log.obj
 0002:00012f20       $unwind$pj_log_4           000000014003ef20     pjlib-x86_64-x64-vc14-release:log.obj
 0002:00012f20       $unwind$pj_log_5           000000014003ef20     pjlib-x86_64-x64-vc14-release:log.obj
 0002:00012f20       $unwind$srtp_err_report    000000014003ef20     libsrtp-x86_64-x64-vc14-release:srtp_err.obj
 0002:00012f28       $unwind$pj_sockaddr_has_addr 000000014003ef28     pjlib-x86_64-x64-vc14-release:sock_common.obj
 0002:00012f38       $unwind$pj_gettimeofday    000000014003ef38     pjlib-x86_64-x64-vc14-release:os_time_win32.obj
 0002:00012f4c       $unwind$pj_time_decode     000000014003ef4c     pjlib-x86_64-x64-vc14-release:os_time_win32.obj
 0002:00012f60       $unwind$pj_ioqueue_create  000000014003ef60     pjlib-x86_64-x64-vc14-release:ioqueue_select.obj
 0002:00012f78       $chain$1$pj_ioqueue_destroy 000000014003ef78     pjlib-x86_64-x64-vc14-release:ioqueue_select.obj
 0002:00012f90       $chain$2$pj_ioqueue_destroy 000000014003ef90     pjlib-x86_64-x64-vc14-release:ioqueue_select.obj
 0002:00012fa0       $unwind$pj_ioqueue_poll    000000014003efa0     pjlib-x86_64-x64-vc14-release:ioqueue_select.obj
 0002:00012fb4       $chain$0$pj_ioqueue_poll   000000014003efb4     pjlib-x86_64-x64-vc14-release:ioqueue_select.obj
 0002:00012fc8       $chain$2$pj_ioqueue_poll   000000014003efc8     pjlib-x86_64-x64-vc14-release:ioqueue_select.obj
 0002:00012fe0       $chain$4$pj_ioqueue_poll   000000014003efe0     pjlib-x86_64-x64-vc14-release:ioqueue_select.obj
 0002:00012ff8       $chain$5$pj_ioqueue_poll   000000014003eff8     pjlib-x86_64-x64-vc14-release:ioqueue_select.obj
 0002:0001300c       $chain$6$pj_ioqueue_poll   000000014003f00c     pjlib-x86_64-x64-vc14-release:ioqueue_select.obj
 0002:0001301c       $chain$7$pj_ioqueue_poll   000000014003f01c     pjlib-x86_64-x64-vc14-release:ioqueue_select.obj
 0002:0001302c       $chain$8$pj_ioqueue_poll   000000014003f02c     pjlib-x86_64-x64-vc14-release:ioqueue_select.obj
 0002:0001303c       $chain$9$pj_ioqueue_poll   000000014003f03c     pjlib-x86_64-x64-vc14-release:ioqueue_select.obj
 0002:0001304c       $unwind$ioqueue_dispatch_write_event 000000014003f04c     pjlib-x86_64-x64-vc14-release:ioqueue_select.obj
 0002:00013064       $unwind$ioqueue_dispatch_read_event 000000014003f064     pjlib-x86_64-x64-vc14-release:ioqueue_select.obj
 0002:0001307c       $unwind$ioqueue_dispatch_exception_event 000000014003f07c     pjlib-x86_64-x64-vc14-release:ioqueue_select.obj
 0002:00013088       $chain$0$ioqueue_dispatch_exception_event 000000014003f088     pjlib-x86_64-x64-vc14-release:ioqueue_select.obj
 0002:0001309c       $chain$1$ioqueue_dispatch_exception_event 000000014003f09c     pjlib-x86_64-x64-vc14-release:ioqueue_select.obj
 0002:000130ac       $unwind$scan_closing_keys  000000014003f0ac     pjlib-x86_64-x64-vc14-release:ioqueue_select.obj
 0002:000130bc       $chain$0$scan_closing_keys 000000014003f0bc     pjlib-x86_64-x64-vc14-release:ioqueue_select.obj
 0002:000130d0       $chain$1$scan_closing_keys 000000014003f0d0     pjlib-x86_64-x64-vc14-release:ioqueue_select.obj
 0002:000130e0       $chain$0$decrement_counter 000000014003f0e0     pjlib-x86_64-x64-vc14-release:ioqueue_select.obj
 0002:000130f4       $chain$1$decrement_counter 000000014003f0f4     pjlib-x86_64-x64-vc14-release:ioqueue_select.obj
 0002:00013104       $unwind$pj_sock_getsockopt 000000014003f104     pjlib-x86_64-x64-vc14-release:sock_bsd.obj
 0002:00013104       $unwind$pj_sock_recvfrom   000000014003f104     pjlib-x86_64-x64-vc14-release:sock_bsd.obj
 0002:00013104       $unwind$pj_sock_sendto     000000014003f104     pjlib-x86_64-x64-vc14-release:sock_bsd.obj
 0002:00013118       $unwind$pj_file_open       000000014003f118     pjlib-x86_64-x64-vc14-release:file_io_win32.obj
 0002:00013124       $chain$0$pj_file_open      000000014003f124     pjlib-x86_64-x64-vc14-release:file_io_win32.obj
 0002:00013138       $chain$2$pj_file_open      000000014003f138     pjlib-x86_64-x64-vc14-release:file_io_win32.obj
 0002:00013138       $chain$4$pj_file_open      000000014003f138     pjlib-x86_64-x64-vc14-release:file_io_win32.obj
 0002:0001314c       $chain$5$pj_file_open      000000014003f14c     pjlib-x86_64-x64-vc14-release:file_io_win32.obj
 0002:0001315c       $unwind$pj_lock_create_recursive_mutex 000000014003f15c     pjlib-x86_64-x64-vc14-release:lock.obj
 0002:0001315c       $unwind$pj_lock_create_simple_mutex 000000014003f15c     pjlib-x86_64-x64-vc14-release:lock.obj
 0002:0001315c       $unwind$srtp_ekt_write_data 000000014003f15c     libsrtp-x86_64-x64-vc14-release:ekt.obj
 0002:0001316c       $chain$0$pj_lock_create_simple_mutex 000000014003f16c     pjlib-x86_64-x64-vc14-release:lock.obj
 0002:00013180       $chain$2$pj_lock_create_simple_mutex 000000014003f180     pjlib-x86_64-x64-vc14-release:lock.obj
 0002:00013194       $chain$3$pj_lock_create_simple_mutex 000000014003f194     pjlib-x86_64-x64-vc14-release:lock.obj
 0002:000131a4       $chain$0$pj_lock_create_recursive_mutex 000000014003f1a4     pjlib-x86_64-x64-vc14-release:lock.obj
 0002:000131b8       $chain$2$pj_lock_create_recursive_mutex 000000014003f1b8     pjlib-x86_64-x64-vc14-release:lock.obj
 0002:000131cc       $chain$3$pj_lock_create_recursive_mutex 000000014003f1cc     pjlib-x86_64-x64-vc14-release:lock.obj
 0002:000131dc       $unwind$grp_lock_destroy   000000014003f1dc     pjlib-x86_64-x64-vc14-release:lock.obj
 0002:000131e8       $chain$0$grp_lock_destroy  000000014003f1e8     pjlib-x86_64-x64-vc14-release:lock.obj
 0002:000131fc       $chain$2$grp_lock_destroy  000000014003f1fc     pjlib-x86_64-x64-vc14-release:lock.obj
 0002:00013214       $chain$3$grp_lock_destroy  000000014003f214     pjlib-x86_64-x64-vc14-release:lock.obj
 0002:00013228       $chain$4$grp_lock_destroy  000000014003f228     pjlib-x86_64-x64-vc14-release:lock.obj
 0002:00013238       $chain$0$pj_gettickcount   000000014003f238     pjlib-x86_64-x64-vc14-release:os_timestamp_common.obj
 0002:0001324c       $chain$2$pj_gettickcount   000000014003f24c     pjlib-x86_64-x64-vc14-release:os_timestamp_common.obj
 0002:00013260       $chain$3$pj_gettickcount   000000014003f260     pjlib-x86_64-x64-vc14-release:os_timestamp_common.obj
 0002:00013270       $unwind$pj_generate_unique_string 000000014003f270     pjlib-x86_64-x64-vc14-release:guid_win32.obj
 0002:00013270       $unwind$srtp_aes_icm_set_iv 000000014003f270     libsrtp-x86_64-x64-vc14-release:aes_icm.obj
 0002:00013280       $unwind$pj_pool_create_on_buf 000000014003f280     pjlib-x86_64-x64-vc14-release:pool_buf.obj
 0002:00013290       $unwind$pj_sock_select     000000014003f290     pjlib-x86_64-x64-vc14-release:sock_select.obj
 0002:000132a4       $unwind$speex_echo_state_init_mc 000000014003f2a4     libspeex-x86_64-x64-vc14-release:mdf.obj
 0002:000132b4       $chain$0$speex_echo_state_init_mc 000000014003f2b4     libspeex-x86_64-x64-vc14-release:mdf.obj
 0002:000132c8       $chain$1$speex_echo_state_init_mc 000000014003f2c8     libspeex-x86_64-x64-vc14-release:mdf.obj
 0002:000132dc       $chain$2$speex_echo_state_init_mc 000000014003f2dc     libspeex-x86_64-x64-vc14-release:mdf.obj
 0002:000132f0       $chain$3$speex_echo_state_init_mc 000000014003f2f0     libspeex-x86_64-x64-vc14-release:mdf.obj
 0002:00013304       $chain$7$speex_echo_state_init_mc 000000014003f304     libspeex-x86_64-x64-vc14-release:mdf.obj
 0002:00013320       $chain$4$speex_echo_state_init_mc 000000014003f320     libspeex-x86_64-x64-vc14-release:mdf.obj
 0002:00013330       $chain$8$speex_echo_state_init_mc 000000014003f330     libspeex-x86_64-x64-vc14-release:mdf.obj
 0002:00013340       $chain$9$speex_echo_state_init_mc 000000014003f340     libspeex-x86_64-x64-vc14-release:mdf.obj
 0002:00013350       $chain$10$speex_echo_state_init_mc 000000014003f350     libspeex-x86_64-x64-vc14-release:mdf.obj
 0002:00013360       $unwind$speex_echo_cancellation 000000014003f360     libspeex-x86_64-x64-vc14-release:mdf.obj
 0002:000133a4       $unwind$speex_echo_capture 000000014003f3a4     libspeex-x86_64-x64-vc14-release:mdf.obj
 0002:000133b8       $chain$0$speex_echo_playback 000000014003f3b8     libspeex-x86_64-x64-vc14-release:mdf.obj
 0002:000133cc       $chain$1$speex_echo_playback 000000014003f3cc     libspeex-x86_64-x64-vc14-release:mdf.obj
 0002:000133dc       $unwind$speex_echo_state_reset 000000014003f3dc     libspeex-x86_64-x64-vc14-release:mdf.obj
 0002:000133dc       $unwind$srtp_dealloc       000000014003f3dc     libsrtp-x86_64-x64-vc14-release:srtp.obj
 0002:000133f8       $unwind$speex_echo_ctl     000000014003f3f8     libspeex-x86_64-x64-vc14-release:mdf.obj
 0002:00013404       $chain$5$speex_echo_ctl    000000014003f404     libspeex-x86_64-x64-vc14-release:mdf.obj
 0002:0001342c       $chain$6$speex_echo_ctl    000000014003f42c     libspeex-x86_64-x64-vc14-release:mdf.obj
 0002:0001343c       $unwind$speex_echo_get_residual 000000014003f43c     libspeex-x86_64-x64-vc14-release:mdf.obj
 0002:0001343c       $unwind$srtp_aes_icm_encrypt 000000014003f43c     libsrtp-x86_64-x64-vc14-release:aes_icm.obj
 0002:00013448       $chain$0$speex_echo_get_residual 000000014003f448     libspeex-x86_64-x64-vc14-release:mdf.obj
 0002:0001345c       $chain$1$speex_echo_get_residual 000000014003f45c     libspeex-x86_64-x64-vc14-release:mdf.obj
 0002:00013470       $chain$3$speex_echo_get_residual 000000014003f470     libspeex-x86_64-x64-vc14-release:mdf.obj
 0002:00013488       $chain$4$speex_echo_get_residual 000000014003f488     libspeex-x86_64-x64-vc14-release:mdf.obj
 0002:00013498       $chain$5$speex_echo_get_residual 000000014003f498     libspeex-x86_64-x64-vc14-release:mdf.obj
 0002:000134a8       $chain$6$speex_echo_get_residual 000000014003f4a8     libspeex-x86_64-x64-vc14-release:mdf.obj
 0002:000134b8       $unwind$filter_dc_notch16  000000014003f4b8     libspeex-x86_64-x64-vc14-release:mdf.obj
 0002:000134c4       $chain$4$filter_dc_notch16 000000014003f4c4     libspeex-x86_64-x64-vc14-release:mdf.obj
 0002:000134e8       $chain$5$filter_dc_notch16 000000014003f4e8     libspeex-x86_64-x64-vc14-release:mdf.obj
 0002:000134f8       $unwind$mdf_adjust_prop    000000014003f4f8     libspeex-x86_64-x64-vc14-release:mdf.obj
 0002:00013508       $chain$4$mdf_adjust_prop   000000014003f508     libspeex-x86_64-x64-vc14-release:mdf.obj
 0002:0001352c       $chain$7$mdf_adjust_prop   000000014003f52c     libspeex-x86_64-x64-vc14-release:mdf.obj
 0002:00013548       $chain$8$mdf_adjust_prop   000000014003f548     libspeex-x86_64-x64-vc14-release:mdf.obj
 0002:00013558       $chain$9$mdf_adjust_prop   000000014003f558     libspeex-x86_64-x64-vc14-release:mdf.obj
 0002:00013574       $chain$10$mdf_adjust_prop  000000014003f574     libspeex-x86_64-x64-vc14-release:mdf.obj
 0002:00013584       $unwind$speex_decorrelate_new 000000014003f584     libspeex-x86_64-x64-vc14-release:scal.obj
 0002:00013590       $chain$3$speex_decorrelate_new 000000014003f590     libspeex-x86_64-x64-vc14-release:scal.obj
 0002:000135b0       $chain$6$speex_decorrelate_new 000000014003f5b0     libspeex-x86_64-x64-vc14-release:scal.obj
 0002:000135cc       $chain$7$speex_decorrelate_new 000000014003f5cc     libspeex-x86_64-x64-vc14-release:scal.obj
 0002:000135dc       $chain$8$speex_decorrelate_new 000000014003f5dc     libspeex-x86_64-x64-vc14-release:scal.obj
 0002:000135ec       $unwind$speex_decorrelate  000000014003f5ec     libspeex-x86_64-x64-vc14-release:scal.obj
 0002:000135fc       $chain$14$speex_decorrelate 000000014003f5fc     libspeex-x86_64-x64-vc14-release:scal.obj
 0002:00013648       $chain$15$speex_decorrelate 000000014003f648     libspeex-x86_64-x64-vc14-release:scal.obj
 0002:00013658       $unwind$speex_preprocess_state_init 000000014003f658     libspeex-x86_64-x64-vc14-release:preprocess.obj
 0002:00013690       $chain$2$speex_preprocess_state_init 000000014003f690     libspeex-x86_64-x64-vc14-release:preprocess.obj
 0002:000136ac       $chain$3$speex_preprocess_state_init 000000014003f6ac     libspeex-x86_64-x64-vc14-release:preprocess.obj
 0002:000136bc       $chain$4$speex_preprocess_state_init 000000014003f6bc     libspeex-x86_64-x64-vc14-release:preprocess.obj
 0002:000136d0       $chain$5$speex_preprocess_state_init 000000014003f6d0     libspeex-x86_64-x64-vc14-release:preprocess.obj
 0002:000136e0       $unwind$speex_preprocess_run 000000014003f6e0     libspeex-x86_64-x64-vc14-release:preprocess.obj
 0002:000136f0       $chain$1$speex_preprocess_run 000000014003f6f0     libspeex-x86_64-x64-vc14-release:preprocess.obj
 0002:00013708       $chain$13$speex_preprocess_run 000000014003f708     libspeex-x86_64-x64-vc14-release:preprocess.obj
 0002:00013748       $chain$14$speex_preprocess_run 000000014003f748     libspeex-x86_64-x64-vc14-release:preprocess.obj
 0002:0001375c       $chain$15$speex_preprocess_run 000000014003f75c     libspeex-x86_64-x64-vc14-release:preprocess.obj
 0002:0001377c       $chain$16$speex_preprocess_run 000000014003f77c     libspeex-x86_64-x64-vc14-release:preprocess.obj
 0002:00013798       $chain$17$speex_preprocess_run 000000014003f798     libspeex-x86_64-x64-vc14-release:preprocess.obj
 0002:000137b0       $chain$18$speex_preprocess_run 000000014003f7b0     libspeex-x86_64-x64-vc14-release:preprocess.obj
 0002:000137c4       $chain$19$speex_preprocess_run 000000014003f7c4     libspeex-x86_64-x64-vc14-release:preprocess.obj
 0002:000137d8       $chain$20$speex_preprocess_run 000000014003f7d8     libspeex-x86_64-x64-vc14-release:preprocess.obj
 0002:000137e8       $unwind$compute_gain_floor 000000014003f7e8     libspeex-x86_64-x64-vc14-release:preprocess.obj
 0002:00013810       $chain$1$compute_gain_floor 000000014003f810     libspeex-x86_64-x64-vc14-release:preprocess.obj
 0002:00013828       $chain$2$compute_gain_floor 000000014003f828     libspeex-x86_64-x64-vc14-release:preprocess.obj
 0002:0001383c       $chain$3$compute_gain_floor 000000014003f83c     libspeex-x86_64-x64-vc14-release:preprocess.obj
 0002:00013850       $chain$4$compute_gain_floor 000000014003f850     libspeex-x86_64-x64-vc14-release:preprocess.obj
 0002:00013860       $chain$5$compute_gain_floor 000000014003f860     libspeex-x86_64-x64-vc14-release:preprocess.obj
 0002:00013870       $chain$6$compute_gain_floor 000000014003f870     libspeex-x86_64-x64-vc14-release:preprocess.obj
 0002:00013880       $unwind$speex_compute_agc  000000014003f880     libspeex-x86_64-x64-vc14-release:preprocess.obj
 0002:00013890       $chain$0$speex_compute_agc 000000014003f890     libspeex-x86_64-x64-vc14-release:preprocess.obj
 0002:000138a4       $chain$1$speex_compute_agc 000000014003f8a4     libspeex-x86_64-x64-vc14-release:preprocess.obj
 0002:000138b8       $chain$3$speex_compute_agc 000000014003f8b8     libspeex-x86_64-x64-vc14-release:preprocess.obj
 0002:000138d0       $chain$4$speex_compute_agc 000000014003f8d0     libspeex-x86_64-x64-vc14-release:preprocess.obj
 0002:000138e0       $chain$5$speex_compute_agc 000000014003f8e0     libspeex-x86_64-x64-vc14-release:preprocess.obj
 0002:000138f0       $chain$6$speex_compute_agc 000000014003f8f0     libspeex-x86_64-x64-vc14-release:preprocess.obj
 0002:00013900       $unwind$preprocess_analysis 000000014003f900     libspeex-x86_64-x64-vc14-release:preprocess.obj
 0002:0001390c       $chain$1$preprocess_analysis 000000014003f90c     libspeex-x86_64-x64-vc14-release:preprocess.obj
 0002:00013924       $chain$2$preprocess_analysis 000000014003f924     libspeex-x86_64-x64-vc14-release:preprocess.obj
 0002:00013938       $chain$5$preprocess_analysis 000000014003f938     libspeex-x86_64-x64-vc14-release:preprocess.obj
 0002:00013954       $chain$6$preprocess_analysis 000000014003f954     libspeex-x86_64-x64-vc14-release:preprocess.obj
 0002:0001396c       $chain$7$preprocess_analysis 000000014003f96c     libspeex-x86_64-x64-vc14-release:preprocess.obj
 0002:00013984       $chain$8$preprocess_analysis 000000014003f984     libspeex-x86_64-x64-vc14-release:preprocess.obj
 0002:00013994       $unwind$update_noise_prob  000000014003f994     libspeex-x86_64-x64-vc14-release:preprocess.obj
 0002:000139a4       $chain$2$update_noise_prob 000000014003f9a4     libspeex-x86_64-x64-vc14-release:preprocess.obj
 0002:000139c0       $chain$3$update_noise_prob 000000014003f9c0     libspeex-x86_64-x64-vc14-release:preprocess.obj
 0002:000139d4       $chain$4$update_noise_prob 000000014003f9d4     libspeex-x86_64-x64-vc14-release:preprocess.obj
 0002:000139e4       $unwind$spx_fft            000000014003f9e4     libspeex-x86_64-x64-vc14-release:fftwrap.obj
 0002:000139f8       $unwind$filterbank_new     000000014003f9f8     libspeex-x86_64-x64-vc14-release:filterbank.obj
 0002:00013a08       $chain$11$filterbank_new   000000014003fa08     libspeex-x86_64-x64-vc14-release:filterbank.obj
 0002:00013a48       $chain$12$filterbank_new   000000014003fa48     libspeex-x86_64-x64-vc14-release:filterbank.obj
 0002:00013a5c       $chain$13$filterbank_new   000000014003fa5c     libspeex-x86_64-x64-vc14-release:filterbank.obj
 0002:00013a6c       $chain$14$filterbank_new   000000014003fa6c     libspeex-x86_64-x64-vc14-release:filterbank.obj
 0002:00013a7c       $unwind$filterbank_compute_bank32 000000014003fa7c     libspeex-x86_64-x64-vc14-release:filterbank.obj
 0002:00013a84       $unwind$drfti1             000000014003fa84     libspeex-x86_64-x64-vc14-release:smallft.obj
 0002:00013aa0       $chain$3$drfti1            000000014003faa0     libspeex-x86_64-x64-vc14-release:smallft.obj
 0002:00013ac0       $chain$4$drfti1            000000014003fac0     libspeex-x86_64-x64-vc14-release:smallft.obj
 0002:00013ad0       $unwind$dradf2             000000014003fad0     libspeex-x86_64-x64-vc14-release:smallft.obj
 0002:00013ae8       $unwind$dradf4             000000014003fae8     libspeex-x86_64-x64-vc14-release:smallft.obj
 0002:00013b00       $chain$0$dradf4            000000014003fb00     libspeex-x86_64-x64-vc14-release:smallft.obj
 0002:00013b14       $chain$5$dradf4            000000014003fb14     libspeex-x86_64-x64-vc14-release:smallft.obj
 0002:00013b38       $chain$6$dradf4            000000014003fb38     libspeex-x86_64-x64-vc14-release:smallft.obj
 0002:00013b48       $chain$7$dradf4            000000014003fb48     libspeex-x86_64-x64-vc14-release:smallft.obj
 0002:00013b58       $chain$8$dradf4            000000014003fb58     libspeex-x86_64-x64-vc14-release:smallft.obj
 0002:00013b6c       $unwind$dradfg             000000014003fb6c     libspeex-x86_64-x64-vc14-release:smallft.obj
 0002:00013b84       $chain$2$dradfg            000000014003fb84     libspeex-x86_64-x64-vc14-release:smallft.obj
 0002:00013ba0       $chain$3$dradfg            000000014003fba0     libspeex-x86_64-x64-vc14-release:smallft.obj
 0002:00013bb4       $chain$4$dradfg            000000014003fbb4     libspeex-x86_64-x64-vc14-release:smallft.obj
 0002:00013bc4       $chain$5$dradfg            000000014003fbc4     libspeex-x86_64-x64-vc14-release:smallft.obj
 0002:00013bd4       $unwind$drftf1             000000014003fbd4     libspeex-x86_64-x64-vc14-release:smallft.obj
 0002:00013be8       $chain$1$drftf1            000000014003fbe8     libspeex-x86_64-x64-vc14-release:smallft.obj
 0002:00013c00       $chain$2$drftf1            000000014003fc00     libspeex-x86_64-x64-vc14-release:smallft.obj
 0002:00013c10       $unwind$dradb2             000000014003fc10     libspeex-x86_64-x64-vc14-release:smallft.obj
 0002:00013c2c       $unwind$dradb3             000000014003fc2c     libspeex-x86_64-x64-vc14-release:smallft.obj
 0002:00013c4c       $chain$0$dradb3            000000014003fc4c     libspeex-x86_64-x64-vc14-release:smallft.obj
 0002:00013c60       $chain$1$dradb3            000000014003fc60     libspeex-x86_64-x64-vc14-release:smallft.obj
 0002:00013c70       $unwind$dradb4             000000014003fc70     libspeex-x86_64-x64-vc14-release:smallft.obj
 0002:00013c88       $chain$1$dradb4            000000014003fc88     libspeex-x86_64-x64-vc14-release:smallft.obj
 0002:00013ca0       $chain$3$dradb4            000000014003fca0     libspeex-x86_64-x64-vc14-release:smallft.obj
 0002:00013cb8       $chain$4$dradb4            000000014003fcb8     libspeex-x86_64-x64-vc14-release:smallft.obj
 0002:00013cc8       $chain$5$dradb4            000000014003fcc8     libspeex-x86_64-x64-vc14-release:smallft.obj
 0002:00013cc8       $chain$7$dradb4            000000014003fcc8     libspeex-x86_64-x64-vc14-release:smallft.obj
 0002:00013cd8       $chain$6$dradb4            000000014003fcd8     libspeex-x86_64-x64-vc14-release:smallft.obj
 0002:00013cf0       $unwind$dradbg             000000014003fcf0     libspeex-x86_64-x64-vc14-release:smallft.obj
 0002:00013d08       $chain$2$dradbg            000000014003fd08     libspeex-x86_64-x64-vc14-release:smallft.obj
 0002:00013d24       $chain$3$dradbg            000000014003fd24     libspeex-x86_64-x64-vc14-release:smallft.obj
 0002:00013d38       $chain$4$dradbg            000000014003fd38     libspeex-x86_64-x64-vc14-release:smallft.obj
 0002:00013d48       $chain$5$dradbg            000000014003fd48     libspeex-x86_64-x64-vc14-release:smallft.obj
 0002:00013d58       $unwind$drftb1             000000014003fd58     libspeex-x86_64-x64-vc14-release:smallft.obj
 0002:00013d68       $chain$3$drftb1            000000014003fd68     libspeex-x86_64-x64-vc14-release:smallft.obj
 0002:00013d88       $chain$4$drftb1            000000014003fd88     libspeex-x86_64-x64-vc14-release:smallft.obj
 0002:00013d98       $unwind$srtp_protect_mki   000000014003fd98     libsrtp-x86_64-x64-vc14-release:srtp.obj
 0002:00013db4       $chain$0$srtp_protect_mki  000000014003fdb4     libsrtp-x86_64-x64-vc14-release:srtp.obj
 0002:00013dc8       $chain$1$srtp_protect_mki  000000014003fdc8     libsrtp-x86_64-x64-vc14-release:srtp.obj
 0002:00013dd8       $unwind$srtp_unprotect_mki 000000014003fdd8     libsrtp-x86_64-x64-vc14-release:srtp.obj
 0002:00013df4       $chain$1$srtp_unprotect_mki 000000014003fdf4     libsrtp-x86_64-x64-vc14-release:srtp.obj
 0002:00013e0c       $chain$2$srtp_unprotect_mki 000000014003fe0c     libsrtp-x86_64-x64-vc14-release:srtp.obj
 0002:00013e1c       $unwind$srtp_create        000000014003fe1c     libsrtp-x86_64-x64-vc14-release:srtp.obj
 0002:00013e28       $chain$0$srtp_create       000000014003fe28     libsrtp-x86_64-x64-vc14-release:srtp.obj
 0002:00013e3c       $chain$5$srtp_create       000000014003fe3c     libsrtp-x86_64-x64-vc14-release:srtp.obj
 0002:00013e5c       $chain$7$srtp_create       000000014003fe5c     libsrtp-x86_64-x64-vc14-release:srtp.obj
 0002:00013e7c       $unwind$srtp_protect_rtcp_mki 000000014003fe7c     libsrtp-x86_64-x64-vc14-release:srtp.obj
 0002:00013e94       $chain$0$srtp_protect_rtcp_mki 000000014003fe94     libsrtp-x86_64-x64-vc14-release:srtp.obj
 0002:00013ea8       $chain$2$srtp_protect_rtcp_mki 000000014003fea8     libsrtp-x86_64-x64-vc14-release:srtp.obj
 0002:00013ec0       $chain$3$srtp_protect_rtcp_mki 000000014003fec0     libsrtp-x86_64-x64-vc14-release:srtp.obj
 0002:00013ed0       $chain$4$srtp_protect_rtcp_mki 000000014003fed0     libsrtp-x86_64-x64-vc14-release:srtp.obj
 0002:00013ee0       $chain$5$srtp_protect_rtcp_mki 000000014003fee0     libsrtp-x86_64-x64-vc14-release:srtp.obj
 0002:00013efc       $chain$6$srtp_protect_rtcp_mki 000000014003fefc     libsrtp-x86_64-x64-vc14-release:srtp.obj
 0002:00013f10       $unwind$srtp_unprotect_rtcp_mki 000000014003ff10     libsrtp-x86_64-x64-vc14-release:srtp.obj
 0002:00013f34       $unwind$srtp_stream_init_keys 000000014003ff34     libsrtp-x86_64-x64-vc14-release:srtp.obj
 0002:00013f58       $unwind$srtp_stream_init   000000014003ff58     libsrtp-x86_64-x64-vc14-release:srtp.obj
 0002:00013f64       $chain$1$srtp_stream_init  000000014003ff64     libsrtp-x86_64-x64-vc14-release:srtp.obj
 0002:00013f7c       $chain$5$srtp_stream_init  000000014003ff7c     libsrtp-x86_64-x64-vc14-release:srtp.obj
 0002:00013f9c       $chain$6$srtp_stream_init  000000014003ff9c     libsrtp-x86_64-x64-vc14-release:srtp.obj
 0002:00013fb0       $chain$8$srtp_stream_init  000000014003ffb0     libsrtp-x86_64-x64-vc14-release:srtp.obj
 0002:00013fd0       $chain$9$srtp_stream_init  000000014003ffd0     libsrtp-x86_64-x64-vc14-release:srtp.obj
 0002:00013fe0       $unwind$srtp_stream_free   000000014003ffe0     libsrtp-x86_64-x64-vc14-release:srtp.obj
 0002:00013fe8       $chain$0$srtp_stream_free  000000014003ffe8     libsrtp-x86_64-x64-vc14-release:srtp.obj
 0002:00013ffc       $chain$1$srtp_stream_free  000000014003fffc     libsrtp-x86_64-x64-vc14-release:srtp.obj
 0002:00014010       $chain$2$srtp_stream_free  0000000140040010     libsrtp-x86_64-x64-vc14-release:srtp.obj
 0002:00014020       $chain$3$srtp_stream_free  0000000140040020     libsrtp-x86_64-x64-vc14-release:srtp.obj
 0002:00014030       $unwind$srtp_stream_alloc  0000000140040030     libsrtp-x86_64-x64-vc14-release:srtp.obj
 0002:00014048       $unwind$srtp_stream_clone  0000000140040048     libsrtp-x86_64-x64-vc14-release:srtp.obj
 0002:00014058       $chain$0$srtp_stream_clone 0000000140040058     libsrtp-x86_64-x64-vc14-release:srtp.obj
 0002:0001406c       $chain$5$srtp_stream_clone 000000014004006c     libsrtp-x86_64-x64-vc14-release:srtp.obj
 0002:0001408c       $unwind$srtp_kdf_generate  000000014004008c     libsrtp-x86_64-x64-vc14-release:srtp.obj
 0002:000140a0       $chain$0$srtp_inject_mki   00000001400400a0     libsrtp-x86_64-x64-vc14-release:srtp.obj
 0002:000140b4       $chain$1$srtp_inject_mki   00000001400400b4     libsrtp-x86_64-x64-vc14-release:srtp.obj
 0002:000140c4       $unwind$srtp_process_header_encryption 00000001400400c4     libsrtp-x86_64-x64-vc14-release:srtp.obj
 0002:000140e8       $unwind$srtp_calc_aead_iv  00000001400400e8     libsrtp-x86_64-x64-vc14-release:srtp.obj
 0002:00014100       $unwind$srtp_protect_aead  0000000140040100     libsrtp-x86_64-x64-vc14-release:srtp.obj
 0002:0001411c       $chain$0$srtp_protect_aead 000000014004011c     libsrtp-x86_64-x64-vc14-release:srtp.obj
 0002:00014130       $chain$1$srtp_protect_aead 0000000140040130     libsrtp-x86_64-x64-vc14-release:srtp.obj
 0002:00014144       $chain$2$srtp_protect_aead 0000000140040144     libsrtp-x86_64-x64-vc14-release:srtp.obj
 0002:00014154       $chain$3$srtp_protect_aead 0000000140040154     libsrtp-x86_64-x64-vc14-release:srtp.obj
 0002:00014164       $chain$4$srtp_protect_aead 0000000140040164     libsrtp-x86_64-x64-vc14-release:srtp.obj
 0002:0001417c       $chain$5$srtp_protect_aead 000000014004017c     libsrtp-x86_64-x64-vc14-release:srtp.obj
 0002:00014190       $unwind$srtp_unprotect_aead 0000000140040190     libsrtp-x86_64-x64-vc14-release:srtp.obj
 0002:000141b0       $unwind$srtp_calc_aead_iv_srtcp 00000001400401b0     libsrtp-x86_64-x64-vc14-release:srtp.obj
 0002:000141c4       $unwind$srtp_protect_rtcp_aead 00000001400401c4     libsrtp-x86_64-x64-vc14-release:srtp.obj
 0002:000141e4       $unwind$srtp_unprotect_rtcp_aead 00000001400401e4     libsrtp-x86_64-x64-vc14-release:srtp.obj
 0002:00014204       $unwind$srtp_octet_string_hex_string 0000000140040204     libsrtp-x86_64-x64-vc14-release:datatypes.obj
 0002:00014204       $unwind$v128_hex_string    0000000140040204     libsrtp-x86_64-x64-vc14-release:datatypes.obj
 0002:00014214       $unwind$v128_left_shift    0000000140040214     libsrtp-x86_64-x64-vc14-release:datatypes.obj
 0002:00014220       $chain$1$v128_left_shift   0000000140040220     libsrtp-x86_64-x64-vc14-release:datatypes.obj
 0002:00014234       $chain$5$v128_left_shift   0000000140040234     libsrtp-x86_64-x64-vc14-release:datatypes.obj
 0002:00014254       $chain$6$v128_left_shift   0000000140040254     libsrtp-x86_64-x64-vc14-release:datatypes.obj
 0002:00014264       $chain$7$v128_left_shift   0000000140040264     libsrtp-x86_64-x64-vc14-release:datatypes.obj
 0002:00014274       $unwind$bitvector_left_shift 0000000140040274     libsrtp-x86_64-x64-vc14-release:datatypes.obj
 0002:00014280       $chain$2$bitvector_left_shift 0000000140040280     libsrtp-x86_64-x64-vc14-release:datatypes.obj
 0002:0001429c       $chain$5$bitvector_left_shift 000000014004029c     libsrtp-x86_64-x64-vc14-release:datatypes.obj
 0002:000142b8       $chain$6$bitvector_left_shift 00000001400402b8     libsrtp-x86_64-x64-vc14-release:datatypes.obj
 0002:000142c8       $chain$7$bitvector_left_shift 00000001400402c8     libsrtp-x86_64-x64-vc14-release:datatypes.obj
 0002:000142dc       $unwind$srtp_crypto_kernel_alloc_auth 00000001400402dc     libsrtp-x86_64-x64-vc14-release:crypto_kernel.obj
 0002:000142dc       $unwind$srtp_crypto_kernel_alloc_cipher 00000001400402dc     libsrtp-x86_64-x64-vc14-release:crypto_kernel.obj
 0002:000142dc       $unwind$__GSHandlerCheckCommon 00000001400402dc     MSVCRT:gshandler.obj
 0002:000142e4       $unwind$srtp_stream_init_from_ekt 00000001400402e4     libsrtp-x86_64-x64-vc14-release:ekt.obj
 0002:000142fc       $chain$0$srtp_ekt_write_data 00000001400402fc     libsrtp-x86_64-x64-vc14-release:ekt.obj
 0002:00014310       $chain$1$srtp_ekt_write_data 0000000140040310     libsrtp-x86_64-x64-vc14-release:ekt.obj
 0002:00014324       $chain$2$srtp_ekt_write_data 0000000140040324     libsrtp-x86_64-x64-vc14-release:ekt.obj
 0002:00014334       $chain$3$srtp_ekt_write_data 0000000140040334     libsrtp-x86_64-x64-vc14-release:ekt.obj
 0002:00014344       $chain$0$srtp_aes_icm_alloc 0000000140040344     libsrtp-x86_64-x64-vc14-release:aes_icm.obj
 0002:00014358       $chain$2$srtp_aes_icm_alloc 0000000140040358     libsrtp-x86_64-x64-vc14-release:aes_icm.obj
 0002:0001436c       $unwind$srtp_aes_icm_dealloc 000000014004036c     libsrtp-x86_64-x64-vc14-release:aes_icm.obj
 0002:00014378       $unwind$srtp_aes_icm_context_init 0000000140040378     libsrtp-x86_64-x64-vc14-release:aes_icm.obj
 0002:00014384       $chain$4$srtp_aes_icm_context_init 0000000140040384     libsrtp-x86_64-x64-vc14-release:aes_icm.obj
 0002:000143a8       $chain$5$srtp_aes_icm_context_init 00000001400403a8     libsrtp-x86_64-x64-vc14-release:aes_icm.obj
 0002:000143c4       $chain$6$srtp_aes_icm_context_init 00000001400403c4     libsrtp-x86_64-x64-vc14-release:aes_icm.obj
 0002:000143c4       $chain$8$srtp_aes_icm_context_init 00000001400403c4     libsrtp-x86_64-x64-vc14-release:aes_icm.obj
 0002:000143dc       $chain$0$srtp_aes_icm_encrypt 00000001400403dc     libsrtp-x86_64-x64-vc14-release:aes_icm.obj
 0002:000143f0       $chain$3$srtp_aes_icm_encrypt 00000001400403f0     libsrtp-x86_64-x64-vc14-release:aes_icm.obj
 0002:00014408       $chain$4$srtp_aes_icm_encrypt 0000000140040408     libsrtp-x86_64-x64-vc14-release:aes_icm.obj
 0002:0001441c       $chain$5$srtp_aes_icm_encrypt 000000014004041c     libsrtp-x86_64-x64-vc14-release:aes_icm.obj
 0002:0001442c       $unwind$srtp_hmac_init     000000014004042c     libsrtp-x86_64-x64-vc14-release:hmac.obj
 0002:0001443c       $chain$0$srtp_hmac_init    000000014004043c     libsrtp-x86_64-x64-vc14-release:hmac.obj
 0002:00014450       $chain$2$srtp_hmac_init    0000000140040450     libsrtp-x86_64-x64-vc14-release:hmac.obj
 0002:00014468       $chain$3$srtp_hmac_init    0000000140040468     libsrtp-x86_64-x64-vc14-release:hmac.obj
 0002:0001447c       $chain$4$srtp_hmac_init    000000014004047c     libsrtp-x86_64-x64-vc14-release:hmac.obj
 0002:0001448c       $chain$5$srtp_hmac_init    000000014004048c     libsrtp-x86_64-x64-vc14-release:hmac.obj
 0002:000144a0       $chain$6$srtp_hmac_init    00000001400404a0     libsrtp-x86_64-x64-vc14-release:hmac.obj
 0002:000144b0       $chain$7$srtp_hmac_init    00000001400404b0     libsrtp-x86_64-x64-vc14-release:hmac.obj
 0002:000144c0       $unwind$srtp_hmac_compute  00000001400404c0     libsrtp-x86_64-x64-vc14-release:hmac.obj
 0002:000144d8       $chain$0$srtp_hmac_compute 00000001400404d8     libsrtp-x86_64-x64-vc14-release:hmac.obj
 0002:000144ec       $chain$1$srtp_hmac_compute 00000001400404ec     libsrtp-x86_64-x64-vc14-release:hmac.obj
 0002:000144fc       $chain$0$srtp_aes_expand_encryption_key 00000001400404fc     libsrtp-x86_64-x64-vc14-release:aes.obj
 0002:00014510       $chain$1$srtp_aes_expand_encryption_key 0000000140040510     libsrtp-x86_64-x64-vc14-release:aes.obj
 0002:00014520       $chain$0$srtp_aes_expand_decryption_key 0000000140040520     libsrtp-x86_64-x64-vc14-release:aes.obj
 0002:00014534       $chain$1$srtp_aes_expand_decryption_key 0000000140040534     libsrtp-x86_64-x64-vc14-release:aes.obj
 0002:00014544       $unwind$srtp_sha1_update   0000000140040544     libsrtp-x86_64-x64-vc14-release:sha1.obj
 0002:00014558       $chain$0$srtp_sha1_update  0000000140040558     libsrtp-x86_64-x64-vc14-release:sha1.obj
 0002:0001456c       $chain$1$srtp_sha1_update  000000014004056c     libsrtp-x86_64-x64-vc14-release:sha1.obj
 0002:0001457c       $unwind$srtp_sha1_final    000000014004057c     libsrtp-x86_64-x64-vc14-release:sha1.obj
 0002:000145a0       $unwind$srtp_sha1_core     00000001400405a0     libsrtp-x86_64-x64-vc14-release:sha1.obj
 0002:000145c8       $xdatasym                  00000001400405c8     MSVCRT:amdsecgs.obj
 0002:000145cc       $unwind$?__scrt_common_main_seh@@YAHXZ 00000001400405cc     MSVCRT:exe_main.obj
 0002:00014604       $unwind$?filt$0@?0??__scrt_common_main_seh@@YAHXZ@4HA 0000000140040604     MSVCRT:exe_main.obj
 0002:0001460c       $unwind$__report_securityfailure 000000014004060c     MSVCRT:gs_report.obj
 0002:00014614       $unwind$__report_gsfailure 0000000140040614     MSVCRT:gs_report.obj
 0002:0001461c       $unwind$capture_current_context 000000014004061c     MSVCRT:gs_report.obj
 0002:00014628       $unwind$capture_previous_context 0000000140040628     MSVCRT:gs_report.obj
 0002:00014638       $xdatasym                  0000000140040638     MSVCRT:chkstk.obj
 0002:00014640       $unwind$__scrt_is_nonwritable_in_current_image 0000000140040640     MSVCRT:utility.obj
 0002:00014660       $unwind$__security_init_cookie 0000000140040660     MSVCRT:gs_support.obj
 0002:0001466c       $unwind$__scrt_fastfail    000000014004066c     MSVCRT:utility_desktop.obj
 0002:0001467c       $unwind$__isa_available_init 000000014004067c     MSVCRT:cpu_disp.obj
 0002:00014690       $xdatasym                  0000000140040690     MSVCRT:guard_dispatch.obj
 0002:00014698       $xdatasym                  0000000140040698     MSVCRT:guard_xfg_dispatch.obj
 0002:00014c70       .idata$6                   0000000140040c70     ole32:ole32.dll
 0002:00014c7a       .idata$6                   0000000140040c7a     ws2_32:WS2_32.dll
 0002:00014e46       .idata$6                   0000000140040e46     winmm:WINMM.dll
 0002:000151e0       .idata$6                   00000001400411e0     kernel32:KERNEL32.dll
 0002:00015276       .idata$6                   0000000140041276     vcruntime:VCRUNTIME140.dll
 0002:0001551e       .idata$6                   000000014004151e     ucrt:api-ms-win-crt-stdio-l1-1-0.dll
 0002:0001553e       .idata$6                   000000014004153e     ucrt:api-ms-win-crt-string-l1-1-0.dll
 0002:00015560       .idata$6                   0000000140041560     ucrt:api-ms-win-crt-math-l1-1-0.dll
 0002:00015580       .idata$6                   0000000140041580     ucrt:api-ms-win-crt-heap-l1-1-0.dll
 0002:000155a0       .idata$6                   00000001400415a0     ucrt:api-ms-win-crt-utility-l1-1-0.dll
 0002:000155c2       .idata$6                   00000001400415c2     ucrt:api-ms-win-crt-runtime-l1-1-0.dll
 0002:000155e4       .idata$6                   00000001400415e4     ucrt:api-ms-win-crt-locale-l1-1-0.dll
 0003:00000000       $SG25207                   0000000140042000     recfile.obj
 0003:000000a0       desc                       00000001400420a0     recfile.obj
 0003:000000a8       $SG25218                   00000001400420a8     recfile.obj
 0003:000000bc       $SG25259                   00000001400420bc     recfile.obj
 0003:000000c0       $SG25261                   00000001400420c0     recfile.obj
 0003:000000e8       $SG25264                   00000001400420e8     recfile.obj
 0003:00000108       $SG25267                   0000000140042108     recfile.obj
 0003:00000118       $SG25269                   0000000140042118     recfile.obj
 0003:00000148       $SG25271                   0000000140042148     recfile.obj
 0003:00000178       stream_op                  0000000140042178     pjmedia-audiodev-x86_64-x64-vc14-release:wmme_dev.obj
 0003:000001a8       factory_op                 00000001400421a8     pjmedia-audiodev-x86_64-x64-vc14-release:wmme_dev.obj
 0003:000001f0       cap_infos                  00000001400421f0     pjmedia-x86_64-x64-vc14-release:audiodev.obj
 0003:000002d0       echo_supp_op               00000001400422d0     pjmedia-x86_64-x64-vc14-release:echo_common.obj
 0003:00000310       speex_aec_op               0000000140042310     pjmedia-x86_64-x64-vc14-release:echo_common.obj
 0003:00000350       crypto_suites              0000000140042350     pjmedia-x86_64-x64-vc14-release:transport_srtp.obj
 0003:00000470       transport_srtp_op          0000000140042470     pjmedia-x86_64-x64-vc14-release:transport_srtp.obj
 0003:000004e0       ?liberr@?1??get_libsrtp_errstr@@9@9 00000001400424e0     pjmedia-x86_64-x64-vc14-release:transport_srtp.obj
 0003:000005b0       sdes_op                    00000001400425b0     pjmedia-x86_64-x64-vc14-release:transport_srtp.obj
 0003:00000618       thread_tls_id              0000000140042618     pjlib-x86_64-x64-vc14-release:os_core_win32.obj
 0003:00000620       pool_sizes                 0000000140042620     pjlib-x86_64-x64-vc14-release:pool_caching.obj
 0003:000006c0       pj_log_max_level           00000001400426c0     pjlib-x86_64-x64-vc14-release:log.obj
 0003:000006c4       thread_suspended_tls_id    00000001400426c4     pjlib-x86_64-x64-vc14-release:log.obj
 0003:000006c8       thread_indent_tls_id       00000001400426c8     pjlib-x86_64-x64-vc14-release:log.obj
 0003:000006cc       log_decor                  00000001400426cc     pjlib-x86_64-x64-vc14-release:log.obj
 0003:000006d0       log_writer                 00000001400426d0     pjlib-x86_64-x64-vc14-release:log.obj
 0003:000006d8       PJ_LOG_COLOR_0             00000001400426d8     pjlib-x86_64-x64-vc14-release:log.obj
 0003:000006dc       PJ_LOG_COLOR_1             00000001400426dc     pjlib-x86_64-x64-vc14-release:log.obj
 0003:000006e0       PJ_LOG_COLOR_2             00000001400426e0     pjlib-x86_64-x64-vc14-release:log.obj
 0003:000006e4       PJ_LOG_COLOR_3             00000001400426e4     pjlib-x86_64-x64-vc14-release:log.obj
 0003:000006e8       PJ_LOG_COLOR_4             00000001400426e8     pjlib-x86_64-x64-vc14-release:log.obj
 0003:000006ec       PJ_LOG_COLOR_5             00000001400426ec     pjlib-x86_64-x64-vc14-release:log.obj
 0003:000006f0       PJ_LOG_COLOR_6             00000001400426f0     pjlib-x86_64-x64-vc14-release:log.obj
 0003:000006f4       PJ_LOG_COLOR_77            00000001400426f4     pjlib-x86_64-x64-vc14-release:log.obj
 0003:000006f8       ?ltexts@?2??pj_log@@9@9    00000001400426f8     pjlib-x86_64-x64-vc14-release:log.obj
 0003:00000730       ?wdays@?3??pj_log@@9@9     0000000140042730     pjlib-x86_64-x64-vc14-release:log.obj
 0003:00000768       thread_local_id            0000000140042768     pjlib-x86_64-x64-vc14-release:except.obj
 0003:00000770       mutex_lock_template        0000000140042770     pjlib-x86_64-x64-vc14-release:lock.obj
 0003:00000798       null_lock_template         0000000140042798     pjlib-x86_64-x64-vc14-release:lock.obj
 0003:000007c0       sem_lock_template          00000001400427c0     pjlib-x86_64-x64-vc14-release:lock.obj
 0003:000007e8       ?hex@?1??hex2digit@@9@9    00000001400427e8     pjlib-x86_64-x64-vc14-release:guid_win32.obj
 0003:00000800       id                         0000000140042800     pjlib-x86_64-x64-vc14-release:config.obj
 0003:00000808       tls                        0000000140042808     pjlib-x86_64-x64-vc14-release:pool_buf.obj
 0003:00000810       ?ntryh@?1??drfti1@@9@9     0000000140042810     libspeex-x86_64-x64-vc14-release:smallft.obj
 0003:00000820       ?tpi@?1??drfti1@@9@9       0000000140042820     libspeex-x86_64-x64-vc14-release:smallft.obj
 0003:00000824       ?hsqt2@?1??dradf4@@9@9     0000000140042824     libspeex-x86_64-x64-vc14-release:smallft.obj
 0003:00000828       ?tpi@?1??dradfg@@9@9       0000000140042828     libspeex-x86_64-x64-vc14-release:smallft.obj
 0003:0000082c       ?taur@?1??dradb3@@9@9      000000014004282c     libspeex-x86_64-x64-vc14-release:smallft.obj
 0003:00000830       ?taui@?1??dradb3@@9@9      0000000140042830     libspeex-x86_64-x64-vc14-release:smallft.obj
 0003:00000834       ?sqrt2@?1??dradb4@@9@9     0000000140042834     libspeex-x86_64-x64-vc14-release:smallft.obj
 0003:00000838       ?tpi@?1??dradbg@@9@9       0000000140042838     libspeex-x86_64-x64-vc14-release:smallft.obj
 0003:00000850       srtp_event_handler         0000000140042850     libsrtp-x86_64-x64-vc14-release:srtp.obj
 0003:00000d40       $SG25256                   0000000140042d40     recfile.obj
 0003:00000d41       $SG25268                   0000000140042d41     recfile.obj
 0003:00000d48       ?name@?1??get_fmt_name@@9@9 0000000140042d48     pjmedia-audiodev-x86_64-x64-vc14-release:wmme_dev.obj
 0003:00000d50       ?rec_cnt@?1??wmme_dev_thread@@9@9 0000000140042d50     pjmedia-audiodev-x86_64-x64-vc14-release:wmme_dev.obj
 0003:00000d54       ?play_cnt@?1??wmme_dev_thread@@9@9 0000000140042d54     pjmedia-audiodev-x86_64-x64-vc14-release:wmme_dev.obj
 0003:00000d60       aud_subsys                 0000000140042d60     pjmedia-x86_64-x64-vc14-release:audiodev.obj
 0003:00001300       event_manager_instance     0000000140043300     pjmedia-x86_64-x64-vc14-release:event.obj
 0003:00001310       ?ev_queue@?9??pjmedia_event_publish@@9@9 0000000140043310     pjmedia-x86_64-x64-vc14-release:event.obj
 0003:00001aa0       is_initialized             0000000140043aa0     pjmedia-x86_64-x64-vc14-release:sdp.obj
 0003:00001ab0       cis_buf                    0000000140043ab0     pjmedia-x86_64-x64-vc14-release:sdp.obj
 0003:00001eb8       cs_digit                   0000000140043eb8     pjmedia-x86_64-x64-vc14-release:sdp.obj
 0003:00001ec8       cs_token                   0000000140043ec8     pjmedia-x86_64-x64-vc14-release:sdp.obj
 0003:00001ed8       ?msg@?3??get_libsrtp_errstr@@9@9 0000000140043ed8     pjmedia-x86_64-x64-vc14-release:transport_srtp.obj
 0003:00001ef8       libsrtp_initialized        0000000140043ef8     pjmedia-x86_64-x64-vc14-release:transport_srtp.obj
 0003:00001f00       initialized                0000000140043f00     pjlib-x86_64-x64-vc14-release:os_core_win32.obj
 0003:00001f04       atexit_count               0000000140043f04     pjlib-x86_64-x64-vc14-release:os_core_win32.obj
 0003:00001f10       main_thread                0000000140043f10     pjlib-x86_64-x64-vc14-release:os_core_win32.obj
 0003:00002010       critical_section_mutex     0000000140044010     pjlib-x86_64-x64-vc14-release:os_core_win32.obj
 0003:00002060       atexit_func                0000000140044060     pjlib-x86_64-x64-vc14-release:os_core_win32.obj
 0003:00002160       err_msg_hnd_cnt            0000000140044160     pjlib-x86_64-x64-vc14-release:errno.obj
 0003:00002170       err_msg_hnd                0000000140044170     pjlib-x86_64-x64-vc14-release:errno.obj
 0003:00002210       g_last_thread              0000000140044210     pjlib-x86_64-x64-vc14-release:log.obj
 0003:00002218       base_time                  0000000140044218     pjlib-x86_64-x64-vc14-release:os_time_win32.obj
 0003:00002220       ?buf@?1??pj_gethostname@@9@9 0000000140044220     pjlib-x86_64-x64-vc14-release:sock_bsd.obj
 0003:000022a0       ?hostname@?1??pj_gethostname@@9@9 00000001400442a0     pjlib-x86_64-x64-vc14-release:sock_bsd.obj
 0003:000022b0       exception_id_names         00000001400442b0     pjlib-x86_64-x64-vc14-release:except.obj
 0003:00002330       ?unknown_name@?1??pj_exception_id_name@@9@9 0000000140044330     pjlib-x86_64-x64-vc14-release:except.obj
 0003:00002350       stack_based_factory        0000000140044350     pjlib-x86_64-x64-vc14-release:pool_buf.obj
 0003:00002398       is_initialized             0000000140044398     pjlib-x86_64-x64-vc14-release:pool_buf.obj
 0003:000023a0       s_hDLL                     00000001400443a0     pjlib-x86_64-x64-vc14-release:ip_helper_win32.obj
 0003:000023a8       s_pfnGetIpAddrTable        00000001400443a8     pjlib-x86_64-x64-vc14-release:ip_helper_win32.obj
 0003:000023b0       s_pfnGetAdapterAddresses   00000001400443b0     pjlib-x86_64-x64-vc14-release:ip_helper_win32.obj
 0003:000023b8       s_pfnGetIpForwardTable     00000001400443b8     pjlib-x86_64-x64-vc14-release:ip_helper_win32.obj
 0003:000023c0       s_pfnGetIfEntry            00000001400443c0     pjlib-x86_64-x64-vc14-release:ip_helper_win32.obj
 0003:000023c8       srtp_log_handler           00000001400443c8     libsrtp-x86_64-x64-vc14-release:srtp.obj
 0003:000023d0       srtp_log_handler_data      00000001400443d0     libsrtp-x86_64-x64-vc14-release:srtp.obj
 0003:00002400       srtp_aes_icm_128_test_case_0_nonce 0000000140044400     libsrtp-x86_64-x64-vc14-release:aes_icm.obj
 0003:00002410       srtp_aes_icm_256_test_case_0_nonce 0000000140044410     libsrtp-x86_64-x64-vc14-release:aes_icm.obj
 0003:00002420       GS_ExceptionRecord         0000000140044420     MSVCRT:gs_report.obj
 0003:000024c0       GS_ContextRecord           00000001400444c0     MSVCRT:gs_report.obj
 0003:000029a0       ?is_initialized_as_dll@@3_NA 00000001400449a0     MSVCRT:utility.obj
 0003:000029a1       ?module_local_atexit_table_initialized@@3_NA 00000001400449a1     MSVCRT:utility.obj
 0003:000029a8       ?module_local_atexit_table@@3U_onexit_table_t@@A 00000001400449a8     MSVCRT:utility.obj
 0003:000029c0       ?module_local_at_quick_exit_table@@3U_onexit_table_t@@A 00000001400449c0     MSVCRT:utility.obj
