 recfile

 Timestamp is 5f95b145 (Sun Oct 25 18:09:25 2020)

 Preferred load address is 0000000140000000

 Start         Length     Name                   Class
 0001:00000000 0002a6e0H .text$mn                CODE
 0001:0002a6e0 00000012H .text$mn$00             CODE
 0001:0002a6f2 00000036H .text$x                 CODE
 0002:00000000 000004b0H .idata$5                DATA
 0002:000004b0 00000010H .00cfg                  DATA
 0002:000004c0 00000008H .CRT$XCA                DATA
 0002:000004c8 00000008H .CRT$XCAA               DATA
 0002:000004d0 00000008H .CRT$XCZ                DATA
 0002:000004d8 00000008H .CRT$XIA                DATA
 0002:000004e0 00000008H .CRT$XIAA               DATA
 0002:000004e8 00000008H .CRT$XIAC               DATA
 0002:000004f0 00000008H .CRT$XIZ                DATA
 0002:000004f8 00000008H .CRT$XPA                DATA
 0002:00000500 00000008H .CRT$XPZ                DATA
 0002:00000508 00000008H .CRT$XTA                DATA
 0002:00000510 00000010H .CRT$XTZ                DATA
 0002:00000520 000108d4H .rdata                  DATA
 0002:00010df4 0000026cH .rdata$zzzdbg           DATA
 0002:00011060 00000008H .rtc$IAA                DATA
 0002:00011068 00000008H .rtc$IZZ                DATA
 0002:00011070 00000008H .rtc$TAA                DATA
 0002:00011078 00000008H .rtc$TZZ                DATA
 0002:00011080 000032dcH .xdata                  DATA
 0002:0001435c 00000000H .edata                  DATA
 0002:0001435c 000000f0H .idata$2                DATA
 0002:0001444c 00000014H .idata$3                DATA
 0002:00014460 000004b0H .idata$4                DATA
 0002:00014910 00000972H .idata$6                DATA
 0003:00000000 00000da0H .data                   DATA
 0003:00000da0 000020f8H .bss                    DATA
 0004:00000000 00002904H .pdata                  DATA
 0005:00000000 0000001cH .gfids$y                DATA
 0006:00000000 00001750H _RDATA                  DATA

  Address         Publics by Value              Rva+Base               Lib:Object

 0000:00000000       __dynamic_value_reloc_table 0000000000000000     <absolute>
 0000:00000000       __guard_iat_count          0000000000000000     <absolute>
 0000:00000000       __guard_fids_count         0000000000000000     <absolute>
 0000:00000000       __guard_iat_table          0000000000000000     <absolute>
 0000:00000000       ___safe_se_handler_table   0000000000000000     <absolute>
 0000:00000000       ___safe_se_handler_count   0000000000000000     <absolute>
 0000:00000000       __guard_longjmp_table      0000000000000000     <absolute>
 0000:00000000       __guard_longjmp_count      0000000000000000     <absolute>
 0000:00000000       __guard_fids_table         0000000000000000     <absolute>
 0000:00000100       __guard_flags              0000000000000100     <absolute>
 0000:00000000       __ImageBase                0000000140000000     <linker-defined>
 0001:000001d0       main                       00000001400011d0 f   recfile.obj
 0001:000004b0       __local_stdio_printf_options 00000001400014b0 f i recfile.obj
 0001:000004c0       printf                     00000001400014c0 f i recfile.obj
 0001:00000520       pjmedia_aud_subsys_init    0000000140001520 f   pjmedia-audiodev-x86_64-x64-vc14-release:audiodev.obj
 0001:000005e0       pjmedia_aud_subsys_shutdown 00000001400015e0 f   pjmedia-audiodev-x86_64-x64-vc14-release:audiodev.obj
 0001:00000630       _snprintf                  0000000140001630 f i pjmedia-audiodev-x86_64-x64-vc14-release:errno.obj
 0001:00000690       pjmedia_audiodev_strerror  0000000140001690 f   pjmedia-audiodev-x86_64-x64-vc14-release:errno.obj
 0001:00001e70       pjmedia_wmme_factory       0000000140002e70 f   pjmedia-audiodev-x86_64-x64-vc14-release:wmme_dev.obj
 0001:00002490       pjmedia_port_destroy       0000000140003490 f   pjmedia-x86_64-x64-vc14-release:port.obj
 0001:000024b0       pjmedia_port_get_frame     00000001400034b0 f   pjmedia-x86_64-x64-vc14-release:port.obj
 0001:000024e0       pjmedia_port_info_init     00000001400034e0 f   pjmedia-x86_64-x64-vc14-release:port.obj
 0001:00002590       pjmedia_port_put_frame     0000000140003590 f   pjmedia-x86_64-x64-vc14-release:port.obj
 0001:000025c0       pjmedia_endpt_create2      00000001400035c0 f   pjmedia-x86_64-x64-vc14-release:endpoint.obj
 0001:000027c0       pjmedia_endpt_destroy2     00000001400037c0 f   pjmedia-x86_64-x64-vc14-release:endpoint.obj
 0001:00002850       pjmedia_endpt_stop_threads 0000000140003850 f   pjmedia-x86_64-x64-vc14-release:endpoint.obj
 0001:000028e0       sprintf                    00000001400038e0 f i pjmedia-x86_64-x64-vc14-release:endpoint.obj
 0001:000029a0       pjmedia_snd_port_connect   00000001400039a0 f   pjmedia-x86_64-x64-vc14-release:sound_port.obj
 0001:00002a80       pjmedia_snd_port_create2   0000000140003a80 f   pjmedia-x86_64-x64-vc14-release:sound_port.obj
 0001:00002c20       pjmedia_snd_port_create_rec 0000000140003c20 f   pjmedia-x86_64-x64-vc14-release:sound_port.obj
 0001:00002d00       pjmedia_snd_port_destroy   0000000140003d00 f   pjmedia-x86_64-x64-vc14-release:sound_port.obj
 0001:00002d70       pjmedia_snd_port_set_ec    0000000140003d70 f   pjmedia-x86_64-x64-vc14-release:sound_port.obj
 0001:00003870       pjmedia_wav_writer_port_create 0000000140004870 f   pjmedia-x86_64-x64-vc14-release:wav_writer.obj
 0001:00003cb0       pjmedia_aud_dev_default_param 0000000140004cb0 f   pjmedia-x86_64-x64-vc14-release:audiodev.obj
 0001:00003d40       pjmedia_aud_dev_get_info   0000000140004d40 f   pjmedia-x86_64-x64-vc14-release:audiodev.obj
 0001:00003da0       pjmedia_aud_driver_deinit  0000000140004da0 f   pjmedia-x86_64-x64-vc14-release:audiodev.obj
 0001:00003e10       pjmedia_aud_driver_init    0000000140004e10 f   pjmedia-x86_64-x64-vc14-release:audiodev.obj
 0001:00004060       pjmedia_aud_stream_create  0000000140005060 f   pjmedia-x86_64-x64-vc14-release:audiodev.obj
 0001:00004200       pjmedia_aud_stream_destroy 0000000140005200 f   pjmedia-x86_64-x64-vc14-release:audiodev.obj
 0001:00004210       pjmedia_aud_stream_get_cap 0000000140005210 f   pjmedia-x86_64-x64-vc14-release:audiodev.obj
 0001:00004220       pjmedia_aud_stream_get_param 0000000140005220 f   pjmedia-x86_64-x64-vc14-release:audiodev.obj
 0001:000042e0       pjmedia_aud_stream_set_cap 00000001400052e0 f   pjmedia-x86_64-x64-vc14-release:audiodev.obj
 0001:000042f0       pjmedia_aud_stream_start   00000001400052f0 f   pjmedia-x86_64-x64-vc14-release:audiodev.obj
 0001:00004300       pjmedia_aud_stream_stop    0000000140005300 f   pjmedia-x86_64-x64-vc14-release:audiodev.obj
 0001:00004310       pjmedia_get_aud_subsys     0000000140005310 f   pjmedia-x86_64-x64-vc14-release:audiodev.obj
 0001:00004440       pjmedia_event_init         0000000140005440 f   pjmedia-x86_64-x64-vc14-release:event.obj
 0001:000044a0       pjmedia_event_publish      00000001400054a0 f   pjmedia-x86_64-x64-vc14-release:event.obj
 0001:00004680       pjmedia_event_subscribe    0000000140005680 f   pjmedia-x86_64-x64-vc14-release:event.obj
 0001:00004780       pjmedia_event_unsubscribe  0000000140005780 f   pjmedia-x86_64-x64-vc14-release:event.obj
 0001:00004890       pjmedia_format_get_audio_format_detail 0000000140005890 f   pjmedia-x86_64-x64-vc14-release:format.obj
 0001:000048a0       pjmedia_sdp_attr_create    00000001400058a0 f   pjmedia-x86_64-x64-vc14-release:sdp.obj
 0001:00004950       pjmedia_sdp_attr_find      0000000140005950 f   pjmedia-x86_64-x64-vc14-release:sdp.obj
 0001:00004a00       pjmedia_sdp_media_deactivate 0000000140005a00 f   pjmedia-x86_64-x64-vc14-release:sdp.obj
 0001:00004a20       pjmedia_sdp_media_find_attr 0000000140005a20 f   pjmedia-x86_64-x64-vc14-release:sdp.obj
 0001:00004a50       pjmedia_sdp_transport_get_proto 0000000140005a50 f   pjmedia-x86_64-x64-vc14-release:sdp.obj
 0001:00004bb0       pjmedia_codec_mgr_destroy  0000000140005bb0 f   pjmedia-x86_64-x64-vc14-release:codec.obj
 0001:00004c60       pjmedia_codec_mgr_init     0000000140005c60 f   pjmedia-x86_64-x64-vc14-release:codec.obj
 0001:00004cf0       pjmedia_strerror           0000000140005cf0 f   pjmedia-x86_64-x64-vc14-release:errno.obj
 0001:00004e50       pjmedia_clock_src_init     0000000140005e50 f   pjmedia-x86_64-x64-vc14-release:clock_thread.obj
 0001:00004e90       pjmedia_clock_src_update   0000000140005e90 f   pjmedia-x86_64-x64-vc14-release:clock_thread.obj
 0001:00004ed0       pjmedia_echo_capture       0000000140005ed0 f   pjmedia-x86_64-x64-vc14-release:echo_common.obj
 0001:00004fd0       pjmedia_echo_create2       0000000140005fd0 f   pjmedia-x86_64-x64-vc14-release:echo_common.obj
 0001:00005220       pjmedia_echo_destroy       0000000140006220 f   pjmedia-x86_64-x64-vc14-release:echo_common.obj
 0001:00005260       pjmedia_echo_playback      0000000140006260 f   pjmedia-x86_64-x64-vc14-release:echo_common.obj
 0001:00005330       pjmedia_echo_stat_default  0000000140006330 f   pjmedia-x86_64-x64-vc14-release:echo_common.obj
 0001:000071a0       get_libsrtp_errstr         00000001400081a0 f   pjmedia-x86_64-x64-vc14-release:transport_srtp.obj
 0001:000074b0       pjmedia_transport_srtp_start 00000001400084b0 f   pjmedia-x86_64-x64-vc14-release:transport_srtp.obj
 0001:00007a60       pjmedia_transport_srtp_stop 0000000140008a60 f   pjmedia-x86_64-x64-vc14-release:transport_srtp.obj
 0001:00008290       echo_supp_cancel_echo      0000000140009290 f   pjmedia-x86_64-x64-vc14-release:echo_suppress.obj
 0001:000085d0       echo_supp_create           00000001400095d0 f   pjmedia-x86_64-x64-vc14-release:echo_suppress.obj
 0001:00008740       echo_supp_get_stat         0000000140009740 f   pjmedia-x86_64-x64-vc14-release:echo_suppress.obj
 0001:000088a0       echo_supp_reset            00000001400098a0 f   pjmedia-x86_64-x64-vc14-release:echo_suppress.obj
 0001:00008ff0       speex_aec_cancel_echo      0000000140009ff0 f   pjmedia-x86_64-x64-vc14-release:echo_speex.obj
 0001:00009100       speex_aec_capture          000000014000a100 f   pjmedia-x86_64-x64-vc14-release:echo_speex.obj
 0001:000091f0       speex_aec_create           000000014000a1f0 f   pjmedia-x86_64-x64-vc14-release:echo_speex.obj
 0001:000093c0       speex_aec_destroy          000000014000a3c0 f   pjmedia-x86_64-x64-vc14-release:echo_speex.obj
 0001:00009480       speex_aec_playback         000000014000a480 f   pjmedia-x86_64-x64-vc14-release:echo_speex.obj
 0001:000094f0       speex_aec_reset            000000014000a4f0 f   pjmedia-x86_64-x64-vc14-release:echo_speex.obj
 0001:00009720       pjmedia_delay_buf_create   000000014000a720 f   pjmedia-x86_64-x64-vc14-release:delaybuf.obj
 0001:000098e0       pjmedia_delay_buf_destroy  000000014000a8e0 f   pjmedia-x86_64-x64-vc14-release:delaybuf.obj
 0001:00009950       pjmedia_delay_buf_get      000000014000a950 f   pjmedia-x86_64-x64-vc14-release:delaybuf.obj
 0001:00009ac0       pjmedia_delay_buf_put      000000014000aac0 f   pjmedia-x86_64-x64-vc14-release:delaybuf.obj
 0001:00009d90       pjmedia_calc_avg_signal    000000014000ad90 f   pjmedia-x86_64-x64-vc14-release:silencedet.obj
 0001:0000ab70       pjmedia_wsola_create       000000014000bb70 f   pjmedia-x86_64-x64-vc14-release:wsola.obj
 0001:0000ad90       pjmedia_wsola_discard      000000014000bd90 f   pjmedia-x86_64-x64-vc14-release:wsola.obj
 0001:0000b010       pjmedia_wsola_generate     000000014000c010 f   pjmedia-x86_64-x64-vc14-release:wsola.obj
 0001:0000b0e0       pjmedia_wsola_save         000000014000c0e0 f   pjmedia-x86_64-x64-vc14-release:wsola.obj
 0001:0000b530       pj_base64_decode           000000014000c530 f   pjlib-util-x86_64-x64-vc14-release:base64.obj
 0001:0000b710       pj_base64_encode           000000014000c710 f   pjlib-util-x86_64-x64-vc14-release:base64.obj
 0001:0000b980       pj_atexit                  000000014000c980 f   pjlib-x86_64-x64-vc14-release:os_core_win32.obj
 0001:0000b9b0       pj_atomic_dec_and_get      000000014000c9b0 f   pjlib-x86_64-x64-vc14-release:os_core_win32.obj
 0001:0000ba10       pj_atomic_destroy          000000014000ca10 f   pjlib-x86_64-x64-vc14-release:os_core_win32.obj
 0001:0000ba20       pj_atomic_inc              000000014000ca20 f   pjlib-x86_64-x64-vc14-release:os_core_win32.obj
 0001:0000ba30       pj_atomic_inc_and_get      000000014000ca30 f   pjlib-x86_64-x64-vc14-release:os_core_win32.obj
 0001:0000baa0       pj_enter_critical_section  000000014000caa0 f   pjlib-x86_64-x64-vc14-release:os_core_win32.obj
 0001:0000bb10       pj_init                    000000014000cb10 f   pjlib-x86_64-x64-vc14-release:os_core_win32.obj
 0001:0000bc70       pj_leave_critical_section  000000014000cc70 f   pjlib-x86_64-x64-vc14-release:os_core_win32.obj
 0001:0000bce0       pj_mutex_create            000000014000cce0 f   pjlib-x86_64-x64-vc14-release:os_core_win32.obj
 0001:0000bd60       pj_mutex_create_simple     000000014000cd60 f   pjlib-x86_64-x64-vc14-release:os_core_win32.obj
 0001:0000bd60       pj_mutex_create_recursive  000000014000cd60 f   pjlib-x86_64-x64-vc14-release:os_core_win32.obj
 0001:0000bde0       pj_mutex_destroy           000000014000cde0 f   pjlib-x86_64-x64-vc14-release:os_core_win32.obj
 0001:0000be60       pj_mutex_lock              000000014000ce60 f   pjlib-x86_64-x64-vc14-release:os_core_win32.obj
 0001:0000bee0       pj_mutex_trylock           000000014000cee0 f   pjlib-x86_64-x64-vc14-release:os_core_win32.obj
 0001:0000bf70       pj_mutex_unlock            000000014000cf70 f   pjlib-x86_64-x64-vc14-release:os_core_win32.obj
 0001:0000bff0       pj_sem_destroy             000000014000cff0 f   pjlib-x86_64-x64-vc14-release:os_core_win32.obj
 0001:0000c0a0       pj_sem_post                000000014000d0a0 f   pjlib-x86_64-x64-vc14-release:os_core_win32.obj
 0001:0000c150       pj_sem_trywait             000000014000d150 f   pjlib-x86_64-x64-vc14-release:os_core_win32.obj
 0001:0000c1c0       pj_sem_wait                000000014000d1c0 f   pjlib-x86_64-x64-vc14-release:os_core_win32.obj
 0001:0000c330       pj_shutdown                000000014000d330 f   pjlib-x86_64-x64-vc14-release:os_core_win32.obj
 0001:0000c4b0       pj_term_set_color          000000014000d4b0 f   pjlib-x86_64-x64-vc14-release:os_core_win32.obj
 0001:0000c5a0       pj_thread_check_stack      000000014000d5a0 f   pjlib-x86_64-x64-vc14-release:os_core_win32.obj
 0001:0000c600       pj_thread_create           000000014000d600 f   pjlib-x86_64-x64-vc14-release:os_core_win32.obj
 0001:0000c7c0       pj_thread_destroy          000000014000d7c0 f   pjlib-x86_64-x64-vc14-release:os_core_win32.obj
 0001:0000c870       pj_thread_get_name         000000014000d870 f   pjlib-x86_64-x64-vc14-release:os_core_win32.obj
 0001:0000c8e0       pj_thread_init             000000014000d8e0 f   pjlib-x86_64-x64-vc14-release:os_core_win32.obj
 0001:0000c940       pj_thread_join             000000014000d940 f   pjlib-x86_64-x64-vc14-release:os_core_win32.obj
 0001:0000ca40       pj_thread_local_alloc      000000014000da40 f   pjlib-x86_64-x64-vc14-release:os_core_win32.obj
 0001:0000cab0       pj_thread_local_free       000000014000dab0 f   pjlib-x86_64-x64-vc14-release:os_core_win32.obj
 0001:0000cb10       pj_thread_local_get        000000014000db10 f   pjlib-x86_64-x64-vc14-release:os_core_win32.obj
 0001:0000cb20       pj_thread_local_set        000000014000db20 f   pjlib-x86_64-x64-vc14-release:os_core_win32.obj
 0001:0000cb70       pj_thread_register         000000014000db70 f   pjlib-x86_64-x64-vc14-release:os_core_win32.obj
 0001:0000cc80       pj_thread_sleep            000000014000dc80 f   pjlib-x86_64-x64-vc14-release:os_core_win32.obj
 0001:0000cce0       pj_thread_this             000000014000dce0 f   pjlib-x86_64-x64-vc14-release:os_core_win32.obj
 0001:0000cd80       pj_pool_alloc              000000014000dd80 f   pjlib-x86_64-x64-vc14-release:pool.obj
 0001:0000cdd0       pj_pool_allocate_find      000000014000ddd0 f   pjlib-x86_64-x64-vc14-release:pool.obj
 0001:0000cf10       pj_pool_calloc             000000014000df10 f   pjlib-x86_64-x64-vc14-release:pool.obj
 0001:0000cf80       pj_pool_create             000000014000df80 f   pjlib-x86_64-x64-vc14-release:pool.obj
 0001:0000d040       pj_pool_create_int         000000014000e040 f   pjlib-x86_64-x64-vc14-release:pool.obj
 0001:0000d130       pj_pool_destroy_int        000000014000e130 f   pjlib-x86_64-x64-vc14-release:pool.obj
 0001:0000d170       pj_pool_get_capacity       000000014000e170 f   pjlib-x86_64-x64-vc14-release:pool.obj
 0001:0000d180       pj_pool_get_used_size      000000014000e180 f   pjlib-x86_64-x64-vc14-release:pool.obj
 0001:0000d1c0       pj_pool_getobjname         000000014000e1c0 f   pjlib-x86_64-x64-vc14-release:pool.obj
 0001:0000d1d0       pj_pool_init_int           000000014000e1d0 f   pjlib-x86_64-x64-vc14-release:pool.obj
 0001:0000d270       pj_pool_release            000000014000e270 f   pjlib-x86_64-x64-vc14-release:pool.obj
 0001:0000d290       pj_pool_reset              000000014000e290 f   pjlib-x86_64-x64-vc14-release:pool.obj
 0001:0000d7a0       pj_caching_pool_destroy    000000014000e7a0 f   pjlib-x86_64-x64-vc14-release:pool_caching.obj
 0001:0000d8b0       pj_caching_pool_init       000000014000e8b0 f   pjlib-x86_64-x64-vc14-release:pool_caching.obj
 0001:0000d9e0       pj_errno_clear_handlers    000000014000e9e0 f   pjlib-x86_64-x64-vc14-release:errno.obj
 0001:0000da00       pj_perror_3                000000014000ea00 f   pjlib-x86_64-x64-vc14-release:errno.obj
 0001:0000da30       pj_perror_4                000000014000ea30 f   pjlib-x86_64-x64-vc14-release:errno.obj
 0001:0000da60       pj_perror_5                000000014000ea60 f   pjlib-x86_64-x64-vc14-release:errno.obj
 0001:0000db70       pj_register_strerror       000000014000eb70 f   pjlib-x86_64-x64-vc14-release:errno.obj
 0001:0000dc90       pj_strerror                000000014000ec90 f   pjlib-x86_64-x64-vc14-release:errno.obj
 0001:0000df60       pj_str                     000000014000ef60 f   pjlib-x86_64-x64-vc14-release:string.obj
 0001:0000df90       pj_strcmp                  000000014000ef90 f   pjlib-x86_64-x64-vc14-release:string.obj
 0001:0000e010       pj_strcspn                 000000014000f010 f   pjlib-x86_64-x64-vc14-release:string.obj
 0001:0000e070       pj_strcspn2                000000014000f070 f   pjlib-x86_64-x64-vc14-release:string.obj
 0001:0000e0d0       pj_strdup                  000000014000f0d0 f   pjlib-x86_64-x64-vc14-release:string.obj
 0001:0000e120       pj_strdup2                 000000014000f120 f   pjlib-x86_64-x64-vc14-release:string.obj
 0001:0000e1a0       pj_strdup_with_null        000000014000f1a0 f   pjlib-x86_64-x64-vc14-release:string.obj
 0001:0000e1f0       pj_stricmp                 000000014000f1f0 f   pjlib-x86_64-x64-vc14-release:string.obj
 0001:0000e280       pj_stricmp2                000000014000f280 f   pjlib-x86_64-x64-vc14-release:string.obj
 0001:0000e330       pj_strncpy_with_null       000000014000f330 f   pjlib-x86_64-x64-vc14-release:string.obj
 0001:0000e380       pj_strspn                  000000014000f380 f   pjlib-x86_64-x64-vc14-release:string.obj
 0001:0000e400       pj_strspn2                 000000014000f400 f   pjlib-x86_64-x64-vc14-release:string.obj
 0001:0000e480       pj_strtok                  000000014000f480 f   pjlib-x86_64-x64-vc14-release:string.obj
 0001:0000e520       pj_strtok2                 000000014000f520 f   pjlib-x86_64-x64-vc14-release:string.obj
 0001:0000e5c0       pj_strtoul                 000000014000f5c0 f   pjlib-x86_64-x64-vc14-release:string.obj
 0001:0000e650       pj_strtoul2                000000014000f650 f   pjlib-x86_64-x64-vc14-release:string.obj
 0001:0000e740       pj_utoa                    000000014000f740 f   pjlib-x86_64-x64-vc14-release:string.obj
 0001:0000e750       pj_utoa_pad                000000014000f750 f   pjlib-x86_64-x64-vc14-release:string.obj
 0001:0000e810       pj_get_netos_error         000000014000f810 f   pjlib-x86_64-x64-vc14-release:os_error_win32.obj
 0001:0000e840       pj_get_os_error            000000014000f840 f   pjlib-x86_64-x64-vc14-release:os_error_win32.obj
 0001:0000e870       platform_strerror          000000014000f870 f   pjlib-x86_64-x64-vc14-release:os_error_win32.obj
 0001:0000e9e0       pj_log                     000000014000f9e0 f   pjlib-x86_64-x64-vc14-release:log.obj
 0001:0000ef70       pj_log_1                   000000014000ff70 f   pjlib-x86_64-x64-vc14-release:log.obj
 0001:0000efa0       pj_log_3                   000000014000ffa0 f   pjlib-x86_64-x64-vc14-release:log.obj
 0001:0000efd0       pj_log_4                   000000014000ffd0 f   pjlib-x86_64-x64-vc14-release:log.obj
 0001:0000f000       pj_log_5                   0000000140010000 f   pjlib-x86_64-x64-vc14-release:log.obj
 0001:0000f030       pj_log_get_color           0000000140010030 f   pjlib-x86_64-x64-vc14-release:log.obj
 0001:0000f0a0       pj_log_get_decor           00000001400100a0 f   pjlib-x86_64-x64-vc14-release:log.obj
 0001:0000f0b0       pj_log_get_level           00000001400100b0 f   pjlib-x86_64-x64-vc14-release:log.obj
 0001:0000f0c0       pj_log_init                00000001400100c0 f   pjlib-x86_64-x64-vc14-release:log.obj
 0001:0000f130       pj_sockaddr_cmp            0000000140010130 f   pjlib-x86_64-x64-vc14-release:sock_common.obj
 0001:0000f280       pj_sockaddr_has_addr       0000000140010280 f   pjlib-x86_64-x64-vc14-release:sock_common.obj
 0001:0000f310       pj_list_erase              0000000140010310 f   pjlib-x86_64-x64-vc14-release:list.obj
 0001:0000f330       pj_list_insert_after       0000000140010330 f   pjlib-x86_64-x64-vc14-release:list.obj
 0001:0000f350       pj_list_insert_before      0000000140010350 f   pjlib-x86_64-x64-vc14-release:list.obj
 0001:0000f410       pj_gettimeofday            0000000140010410 f   pjlib-x86_64-x64-vc14-release:os_time_win32.obj
 0001:0000f4b0       pj_time_decode             00000001400104b0 f   pjlib-x86_64-x64-vc14-release:os_time_win32.obj
 0001:0000f650       ioqueue_dispatch_exception_event 0000000140010650 f   pjlib-x86_64-x64-vc14-release:ioqueue_select.obj
 0001:0000f7b0       ioqueue_dispatch_read_event 00000001400107b0 f   pjlib-x86_64-x64-vc14-release:ioqueue_select.obj
 0001:0000fa40       ioqueue_dispatch_write_event 0000000140010a40 f   pjlib-x86_64-x64-vc14-release:ioqueue_select.obj
 0001:0000fd70       pj_ioqueue_create          0000000140010d70 f   pjlib-x86_64-x64-vc14-release:ioqueue_select.obj
 0001:0000ff70       pj_ioqueue_destroy         0000000140010f70 f   pjlib-x86_64-x64-vc14-release:ioqueue_select.obj
 0001:00010050       pj_ioqueue_poll            0000000140011050 f   pjlib-x86_64-x64-vc14-release:ioqueue_select.obj
 0001:000104f0       pj_ioqueue_set_lock        00000001400114f0 f   pjlib-x86_64-x64-vc14-release:ioqueue_select.obj
 0001:00010610       pj_ntohl                   0000000140011610 f   pjlib-x86_64-x64-vc14-release:sock_bsd.obj
 0001:00010620       pj_ntohs                   0000000140011620 f   pjlib-x86_64-x64-vc14-release:sock_bsd.obj
 0001:00010630       pj_sock_accept             0000000140011630 f   pjlib-x86_64-x64-vc14-release:sock_bsd.obj
 0001:000106d0       pj_sock_getsockname        00000001400116d0 f   pjlib-x86_64-x64-vc14-release:sock_bsd.obj
 0001:00010760       pj_sock_getsockopt         0000000140011760 f   pjlib-x86_64-x64-vc14-release:sock_bsd.obj
 0001:00010810       pj_sock_recv               0000000140011810 f   pjlib-x86_64-x64-vc14-release:sock_bsd.obj
 0001:000108b0       pj_sock_recvfrom           00000001400118b0 f   pjlib-x86_64-x64-vc14-release:sock_bsd.obj
 0001:00010960       pj_sock_send               0000000140011960 f   pjlib-x86_64-x64-vc14-release:sock_bsd.obj
 0001:00010a00       pj_sock_sendto             0000000140011a00 f   pjlib-x86_64-x64-vc14-release:sock_bsd.obj
 0001:00010ab0       pj_file_close              0000000140011ab0 f   pjlib-x86_64-x64-vc14-release:file_io_win32.obj
 0001:00010b00       pj_file_getpos             0000000140011b00 f   pjlib-x86_64-x64-vc14-release:file_io_win32.obj
 0001:00010bb0       pj_file_open               0000000140011bb0 f   pjlib-x86_64-x64-vc14-release:file_io_win32.obj
 0001:00010d40       pj_file_setpos             0000000140011d40 f   pjlib-x86_64-x64-vc14-release:file_io_win32.obj
 0001:00010df0       pj_file_write              0000000140011df0 f   pjlib-x86_64-x64-vc14-release:file_io_win32.obj
 0001:00010e70       pj_array_erase             0000000140011e70 f   pjlib-x86_64-x64-vc14-release:array.obj
 0001:00010eb0       pj_exception_id_alloc      0000000140011eb0 f   pjlib-x86_64-x64-vc14-release:except.obj
 0001:00010f20       pj_exception_id_free       0000000140011f20 f   pjlib-x86_64-x64-vc14-release:except.obj
 0001:00010f60       pj_throw_exception_        0000000140011f60 f   pjlib-x86_64-x64-vc14-release:except.obj
 0001:00011300       pj_grp_lock_add_ref        0000000140012300 f   pjlib-x86_64-x64-vc14-release:lock.obj
 0001:00011320       pj_grp_lock_dec_ref        0000000140012320 f   pjlib-x86_64-x64-vc14-release:lock.obj
 0001:00011360       pj_grp_lock_release        0000000140012360 f   pjlib-x86_64-x64-vc14-release:lock.obj
 0001:00011370       pj_grp_lock_tryacquire     0000000140012370 f   pjlib-x86_64-x64-vc14-release:lock.obj
 0001:00011380       pj_lock_acquire            0000000140012380 f   pjlib-x86_64-x64-vc14-release:lock.obj
 0001:000113a0       pj_lock_create_null_mutex  00000001400123a0 f   pjlib-x86_64-x64-vc14-release:lock.obj
 0001:000113c0       pj_lock_create_recursive_mutex 00000001400123c0 f   pjlib-x86_64-x64-vc14-release:lock.obj
 0001:000113d0       pj_lock_create_simple_mutex 00000001400123d0 f   pjlib-x86_64-x64-vc14-release:lock.obj
 0001:000113e0       pj_lock_destroy            00000001400123e0 f   pjlib-x86_64-x64-vc14-release:lock.obj
 0001:00011400       pj_lock_release            0000000140012400 f   pjlib-x86_64-x64-vc14-release:lock.obj
 0001:00011420       pj_lock_tryacquire         0000000140012420 f   pjlib-x86_64-x64-vc14-release:lock.obj
 0001:00011440       pj_get_timestamp           0000000140012440 f   pjlib-x86_64-x64-vc14-release:os_timestamp_win32.obj
 0001:000114a0       pj_get_timestamp_freq      00000001400124a0 f   pjlib-x86_64-x64-vc14-release:os_timestamp_win32.obj
 0001:00011500       pj_gettickcount            0000000140012500 f   pjlib-x86_64-x64-vc14-release:os_timestamp_common.obj
 0001:000115c0       pj_rand                    00000001400125c0 f   pjlib-x86_64-x64-vc14-release:rand.obj
 0001:00011600       pj_generate_unique_string  0000000140012600 f   pjlib-x86_64-x64-vc14-release:guid_win32.obj
 0001:000116d0       pj_pool_create_on_buf      00000001400126d0 f   pjlib-x86_64-x64-vc14-release:pool_buf.obj
 0001:00011840       pj_log_write               0000000140012840 f   pjlib-x86_64-x64-vc14-release:log_writer_stdout.obj
 0001:000118c0       pj_time_val_normalize      00000001400128c0 f   pjlib-x86_64-x64-vc14-release:types.obj
 0001:00011970       PJ_FD_CLR                  0000000140012970 f   pjlib-x86_64-x64-vc14-release:sock_select.obj
 0001:00011a20       PJ_FD_COUNT                0000000140012a20 f   pjlib-x86_64-x64-vc14-release:sock_select.obj
 0001:00011a20       srtp_rdbx_get_packet_index 0000000140012a20 f   libsrtp-x86_64-x64-vc14-release:rdbx.obj
 0001:00011a30       PJ_FD_ISSET                0000000140012a30 f   pjlib-x86_64-x64-vc14-release:sock_select.obj
 0001:00011a70       PJ_FD_ZERO                 0000000140012a70 f   pjlib-x86_64-x64-vc14-release:sock_select.obj
 0001:00011aa0       pj_sock_select             0000000140012aa0 f   pjlib-x86_64-x64-vc14-release:sock_select.obj
 0001:00012380       speex_echo_cancellation    0000000140013380 f   libspeex-x86_64-x64-vc14-release:mdf.obj
 0001:00014120       speex_echo_capture         0000000140015120 f   libspeex-x86_64-x64-vc14-release:mdf.obj
 0001:00014240       speex_echo_ctl             0000000140015240 f   libspeex-x86_64-x64-vc14-release:mdf.obj
 0001:000145c0       speex_echo_get_residual    00000001400155c0 f   libspeex-x86_64-x64-vc14-release:mdf.obj
 0001:00014890       speex_echo_playback        0000000140015890 f   libspeex-x86_64-x64-vc14-release:mdf.obj
 0001:000149c0       speex_echo_state_destroy   00000001400159c0 f   libspeex-x86_64-x64-vc14-release:mdf.obj
 0001:00014b20       speex_echo_state_init_mc   0000000140015b20 f   libspeex-x86_64-x64-vc14-release:mdf.obj
 0001:000151d0       speex_echo_state_reset     00000001400161d0 f   libspeex-x86_64-x64-vc14-release:mdf.obj
 0001:00015b60       speex_decorrelate          0000000140016b60 f   libspeex-x86_64-x64-vc14-release:scal.obj
 0001:000161f0       speex_decorrelate_destroy  00000001400171f0 f   libspeex-x86_64-x64-vc14-release:scal.obj
 0001:00016250       speex_decorrelate_new      0000000140017250 f   libspeex-x86_64-x64-vc14-release:scal.obj
 0001:00017430       speex_preprocess_ctl       0000000140018430 f   libspeex-x86_64-x64-vc14-release:preprocess.obj
 0001:00017b00       speex_preprocess_run       0000000140018b00 f   libspeex-x86_64-x64-vc14-release:preprocess.obj
 0001:000198b0       speex_preprocess_state_destroy 000000014001a8b0 f   libspeex-x86_64-x64-vc14-release:preprocess.obj
 0001:000199f0       speex_preprocess_state_init 000000014001a9f0 f   libspeex-x86_64-x64-vc14-release:preprocess.obj
 0001:0001ae20       spx_fft                    000000014001be20 f   libspeex-x86_64-x64-vc14-release:fftwrap.obj
 0001:0001af10       spx_fft_destroy            000000014001bf10 f   libspeex-x86_64-x64-vc14-release:fftwrap.obj
 0001:0001af30       spx_fft_init               000000014001bf30 f   libspeex-x86_64-x64-vc14-release:fftwrap.obj
 0001:0001af70       spx_ifft                   000000014001bf70 f   libspeex-x86_64-x64-vc14-release:fftwrap.obj
 0001:0001aff0       filterbank_compute_bank32  000000014001bff0 f   libspeex-x86_64-x64-vc14-release:filterbank.obj
 0001:0001b090       filterbank_compute_psd16   000000014001c090 f   libspeex-x86_64-x64-vc14-release:filterbank.obj
 0001:0001b0f0       filterbank_destroy         000000014001c0f0 f   libspeex-x86_64-x64-vc14-release:filterbank.obj
 0001:0001b140       filterbank_new             000000014001c140 f   libspeex-x86_64-x64-vc14-release:filterbank.obj
 0001:00021080       spx_drft_backward          0000000140022080 f   libspeex-x86_64-x64-vc14-release:smallft.obj
 0001:000210b0       spx_drft_clear             00000001400220b0 f   libspeex-x86_64-x64-vc14-release:smallft.obj
 0001:000210f0       spx_drft_forward           00000001400220f0 f   libspeex-x86_64-x64-vc14-release:smallft.obj
 0001:00021120       spx_drft_init              0000000140022120 f   libspeex-x86_64-x64-vc14-release:smallft.obj
 0001:00021180       __local_stdio_scanf_options 0000000140022180 f i libsrtp-x86_64-x64-vc14-release:srtp.obj
 0001:000211d0       srtp_add_stream            00000001400221d0 f   libsrtp-x86_64-x64-vc14-release:srtp.obj
 0001:00021540       srtp_create                0000000140022540 f   libsrtp-x86_64-x64-vc14-release:srtp.obj
 0001:00021600       srtp_crypto_policy_set_aes_cm_256_hmac_sha1_32 0000000140022600 f   libsrtp-x86_64-x64-vc14-release:srtp.obj
 0001:00021630       srtp_crypto_policy_set_aes_cm_256_hmac_sha1_80 0000000140022630 f   libsrtp-x86_64-x64-vc14-release:srtp.obj
 0001:00021660       srtp_dealloc               0000000140022660 f   libsrtp-x86_64-x64-vc14-release:srtp.obj
 0001:00021880       srtp_event_reporter        0000000140022880 f   libsrtp-x86_64-x64-vc14-release:srtp.obj
 0001:000219f0       srtp_get_session_keys      00000001400229f0 f   libsrtp-x86_64-x64-vc14-release:srtp.obj
 0001:00021ad0       srtp_inject_mki            0000000140022ad0 f   libsrtp-x86_64-x64-vc14-release:srtp.obj
 0001:00021e60       srtp_protect               0000000140022e60 f   libsrtp-x86_64-x64-vc14-release:srtp.obj
 0001:00022170       srtp_protect_mki           0000000140023170 f   libsrtp-x86_64-x64-vc14-release:srtp.obj
 0001:000226b0       srtp_protect_rtcp          00000001400236b0 f   libsrtp-x86_64-x64-vc14-release:srtp.obj
 0001:000228c0       srtp_protect_rtcp_mki      00000001400238c0 f   libsrtp-x86_64-x64-vc14-release:srtp.obj
 0001:00022c50       srtp_stream_alloc          0000000140023c50 f   libsrtp-x86_64-x64-vc14-release:srtp.obj
 0001:00022ed0       srtp_stream_clone          0000000140023ed0 f   libsrtp-x86_64-x64-vc14-release:srtp.obj
 0001:00023110       srtp_stream_dealloc        0000000140024110 f   libsrtp-x86_64-x64-vc14-release:srtp.obj
 0001:000233c0       srtp_stream_init           00000001400243c0 f   libsrtp-x86_64-x64-vc14-release:srtp.obj
 0001:000234f0       srtp_stream_init_all_master_keys 00000001400244f0 f   libsrtp-x86_64-x64-vc14-release:srtp.obj
 0001:00023590       srtp_stream_init_keys      0000000140024590 f   libsrtp-x86_64-x64-vc14-release:srtp.obj
 0001:00023f10       srtp_unprotect             0000000140024f10 f   libsrtp-x86_64-x64-vc14-release:srtp.obj
 0001:00024220       srtp_unprotect_mki         0000000140025220 f   libsrtp-x86_64-x64-vc14-release:srtp.obj
 0001:00024820       srtp_unprotect_rtcp        0000000140025820 f   libsrtp-x86_64-x64-vc14-release:srtp.obj
 0001:00024a90       srtp_unprotect_rtcp_mki    0000000140025a90 f   libsrtp-x86_64-x64-vc14-release:srtp.obj
 0001:00024fc0       srtp_crypto_alloc          0000000140025fc0 f   libsrtp-x86_64-x64-vc14-release:alloc.obj
 0001:00025030       srtp_crypto_free           0000000140026030 f   libsrtp-x86_64-x64-vc14-release:alloc.obj
 0001:00025070       bitvector_alloc            0000000140026070 f   libsrtp-x86_64-x64-vc14-release:datatypes.obj
 0001:000250e0       bitvector_dealloc          00000001400260e0 f   libsrtp-x86_64-x64-vc14-release:datatypes.obj
 0001:00025110       bitvector_left_shift       0000000140026110 f   libsrtp-x86_64-x64-vc14-release:datatypes.obj
 0001:000252e0       bitvector_set_to_zero      00000001400262e0 f   libsrtp-x86_64-x64-vc14-release:datatypes.obj
 0001:00025300       octet_string_is_eq         0000000140026300 f   libsrtp-x86_64-x64-vc14-release:datatypes.obj
 0001:00025400       octet_string_set_to_zero   0000000140026400 f   libsrtp-x86_64-x64-vc14-release:datatypes.obj
 0001:00025420       srtp_octet_string_hex_string 0000000140026420 f   libsrtp-x86_64-x64-vc14-release:datatypes.obj
 0001:000254e0       v128_copy_octet_string     00000001400264e0 f   libsrtp-x86_64-x64-vc14-release:datatypes.obj
 0001:00025550       v128_hex_string            0000000140026550 f   libsrtp-x86_64-x64-vc14-release:datatypes.obj
 0001:000255e0       v128_left_shift            00000001400265e0 f   libsrtp-x86_64-x64-vc14-release:datatypes.obj
 0001:00025710       srtp_err_report            0000000140026710 f   libsrtp-x86_64-x64-vc14-release:srtp_err.obj
 0001:00025750       srtp_index_guess           0000000140026750 f   libsrtp-x86_64-x64-vc14-release:rdbx.obj
 0001:000257c0       srtp_rdbx_add_index        00000001400267c0 f   libsrtp-x86_64-x64-vc14-release:rdbx.obj
 0001:00025840       srtp_rdbx_check            0000000140026840 f   libsrtp-x86_64-x64-vc14-release:rdbx.obj
 0001:00025880       srtp_rdbx_dealloc          0000000140026880 f   libsrtp-x86_64-x64-vc14-release:rdbx.obj
 0001:000258a0       srtp_rdbx_estimate_index   00000001400268a0 f   libsrtp-x86_64-x64-vc14-release:rdbx.obj
 0001:000258c0       srtp_rdbx_get_window_size  00000001400268c0 f   libsrtp-x86_64-x64-vc14-release:rdbx.obj
 0001:000258d0       srtp_rdbx_init             00000001400268d0 f   libsrtp-x86_64-x64-vc14-release:rdbx.obj
 0001:00025910       srtp_rdbx_set_roc          0000000140026910 f   libsrtp-x86_64-x64-vc14-release:rdbx.obj
 0001:00025970       srtp_rdbx_set_roc_seq      0000000140026970 f   libsrtp-x86_64-x64-vc14-release:rdbx.obj
 0001:000259b0       srtp_rdb_add_index         00000001400269b0 f   libsrtp-x86_64-x64-vc14-release:rdb.obj
 0001:00025a20       srtp_rdb_check             0000000140026a20 f   libsrtp-x86_64-x64-vc14-release:rdb.obj
 0001:00025a60       srtp_rdb_get_value         0000000140026a60 f   libsrtp-x86_64-x64-vc14-release:rdb.obj
 0001:00025a70       srtp_rdb_increment         0000000140026a70 f   libsrtp-x86_64-x64-vc14-release:rdb.obj
 0001:00025a90       srtp_rdb_init              0000000140026a90 f   libsrtp-x86_64-x64-vc14-release:rdb.obj
 0001:00025aa0       srtp_cipher_dealloc        0000000140026aa0 f   libsrtp-x86_64-x64-vc14-release:cipher.obj
 0001:00025ac0       srtp_cipher_decrypt        0000000140026ac0 f   libsrtp-x86_64-x64-vc14-release:cipher.obj
 0001:00025ae0       srtp_cipher_encrypt        0000000140026ae0 f   libsrtp-x86_64-x64-vc14-release:cipher.obj
 0001:00025b00       srtp_cipher_get_tag        0000000140026b00 f   libsrtp-x86_64-x64-vc14-release:cipher.obj
 0001:00025b30       srtp_cipher_init           0000000140026b30 f   libsrtp-x86_64-x64-vc14-release:cipher.obj
 0001:00025b50       srtp_cipher_output         0000000140026b50 f   libsrtp-x86_64-x64-vc14-release:cipher.obj
 0001:00025ba0       srtp_cipher_set_aad        0000000140026ba0 f   libsrtp-x86_64-x64-vc14-release:cipher.obj
 0001:00025bd0       srtp_cipher_set_iv         0000000140026bd0 f   libsrtp-x86_64-x64-vc14-release:cipher.obj
 0001:00025bf0       srtp_auth_get_key_length   0000000140026bf0 f   libsrtp-x86_64-x64-vc14-release:auth.obj
 0001:00025c00       srtp_auth_get_prefix_length 0000000140026c00 f   libsrtp-x86_64-x64-vc14-release:auth.obj
 0001:00025c10       srtp_cipher_get_key_length 0000000140026c10 f   libsrtp-x86_64-x64-vc14-release:cipher.obj
 0001:00025c10       srtp_auth_get_tag_length   0000000140026c10 f   libsrtp-x86_64-x64-vc14-release:auth.obj
 0001:00025c20       srtp_key_limit_clone       0000000140026c20 f   libsrtp-x86_64-x64-vc14-release:key.obj
 0001:00025c40       srtp_key_limit_set         0000000140026c40 f   libsrtp-x86_64-x64-vc14-release:key.obj
 0001:00025c60       srtp_key_limit_update      0000000140026c60 f   libsrtp-x86_64-x64-vc14-release:key.obj
 0001:00025ca0       srtp_crypto_kernel_alloc_auth 0000000140026ca0 f   libsrtp-x86_64-x64-vc14-release:crypto_kernel.obj
 0001:00025d00       srtp_crypto_kernel_alloc_cipher 0000000140026d00 f   libsrtp-x86_64-x64-vc14-release:crypto_kernel.obj
 0001:00025d60       srtp_ekt_alloc             0000000140026d60 f   libsrtp-x86_64-x64-vc14-release:ekt.obj
 0001:00025d70       srtp_ekt_octets_after_base_tag 0000000140026d70 f   libsrtp-x86_64-x64-vc14-release:ekt.obj
 0001:00025d90       srtp_ekt_write_data        0000000140026d90 f   libsrtp-x86_64-x64-vc14-release:ekt.obj
 0001:00025f40       srtp_stream_init_from_ekt  0000000140026f40 f   libsrtp-x86_64-x64-vc14-release:ekt.obj
 0001:00027430       srtp_aes_decrypt           0000000140028430 f   libsrtp-x86_64-x64-vc14-release:aes.obj
 0001:00027580       srtp_aes_encrypt           0000000140028580 f   libsrtp-x86_64-x64-vc14-release:aes.obj
 0001:000276d0       srtp_aes_expand_decryption_key 00000001400286d0 f   libsrtp-x86_64-x64-vc14-release:aes.obj
 0001:00027920       srtp_aes_expand_encryption_key 0000000140028920 f   libsrtp-x86_64-x64-vc14-release:aes.obj
 0001:00027960       srtp_sha1_core             0000000140028960 f   libsrtp-x86_64-x64-vc14-release:sha1.obj
 0001:00027d90       srtp_sha1_final            0000000140028d90 f   libsrtp-x86_64-x64-vc14-release:sha1.obj
 0001:000282d0       srtp_sha1_init             00000001400292d0 f   libsrtp-x86_64-x64-vc14-release:sha1.obj
 0001:00028300       srtp_sha1_update           0000000140029300 f   libsrtp-x86_64-x64-vc14-release:sha1.obj
 0001:00028416       __WSAFDIsSet               0000000140029416 f   ws2_32:WS2_32.dll
 0001:0002841c       __GSHandlerCheck           000000014002941c f   MSVCRT:_gshandler_.obj
 0001:0002843c       __GSHandlerCheckCommon     000000014002943c f   MSVCRT:_gshandler_.obj
 0001:000284b0       __security_check_cookie    00000001400294b0 f   MSVCRT:_amdsecgs_.obj
 0001:00028734       mainCRTStartup             0000000140029734 f   MSVCRT:exe_main.obj
 0001:00028748       __raise_securityfailure    0000000140029748 f   MSVCRT:gs_report.obj
 0001:0002877c       __report_gsfailure         000000014002977c f   MSVCRT:gs_report.obj
 0001:00028850       __report_rangecheckfailure 0000000140029850 f   MSVCRT:gs_report.obj
 0001:00028864       __report_securityfailure   0000000140029864 f   MSVCRT:gs_report.obj
 0001:000289f0       __vdecl_cos2               00000001400299f0 f   MSVCRT:_svml_dcos2_dispatch_.obj
 0001:00028a10       __chkstk                   0000000140029a10 f   MSVCRT:_chkstk_.obj
 0001:00028a10       _alloca_probe              0000000140029a10 f   MSVCRT:_chkstk_.obj
 0001:00028a70       __vdecl_sin2               0000000140029a70 f   MSVCRT:_svml_dsin2_dispatch_.obj
 0001:00028a78       __scrt_acquire_startup_lock 0000000140029a78 f   MSVCRT:utility.obj
 0001:00028ab4       __scrt_initialize_crt      0000000140029ab4 f   MSVCRT:utility.obj
 0001:00028b00       __scrt_initialize_onexit_tables 0000000140029b00 f   MSVCRT:utility.obj
 0001:00028bcc       __scrt_is_nonwritable_in_current_image 0000000140029bcc f   MSVCRT:utility.obj
 0001:00028c68       __scrt_release_startup_lock 0000000140029c68 f   MSVCRT:utility.obj
 0001:00028c8c       __scrt_uninitialize_crt    0000000140029c8c f   MSVCRT:utility.obj
 0001:00028cb8       _onexit                    0000000140029cb8 f   MSVCRT:utility.obj
 0001:00028d08       atexit                     0000000140029d08 f   MSVCRT:utility.obj
 0001:00028d20       __security_init_cookie     0000000140029d20 f   MSVCRT:gs_support.obj
 0001:00028dcc       _get_startup_argv_mode     0000000140029dcc f   MSVCRT:argv_mode.obj
 0001:00028dd4       _get_startup_file_mode     0000000140029dd4 f   MSVCRT:file_mode.obj
 0001:00028de0       _matherr                   0000000140029de0 f   MSVCRT:matherr.obj
 0001:00028de0       srtp_ekt_stream_init_from_policy 0000000140029de0 f   libsrtp-x86_64-x64-vc14-release:ekt.obj
 0001:00028de0       pjmedia_wsola_destroy      0000000140029de0 f   pjmedia-x86_64-x64-vc14-release:wsola.obj
 0001:00028de0       echo_supp_destroy          0000000140029de0 f   pjmedia-x86_64-x64-vc14-release:echo_suppress.obj
 0001:00028de0       _get_startup_new_mode      0000000140029de0 f   MSVCRT:new_mode.obj
 0001:00028de0       _get_startup_commit_mode   0000000140029de0 f   MSVCRT:commit_mode.obj
 0001:00028de0       __scrt_initialize_winrt    0000000140029de0 f   MSVCRT:utility_desktop.obj
 0001:00028de0       _get_startup_thread_locale_mode 0000000140029de0 f   MSVCRT:thread_locale.obj
 0001:00028de4       ?__scrt_initialize_type_info@@YAXXZ 0000000140029de4 f   MSVCRT:tncleanup.obj
 0001:00028df4       __scrt_stub_for_acrt_initialize 0000000140029df4 f   MSVCRT:ucrt_stubs.obj
 0001:00028df4       __acrt_initialize          0000000140029df4 f   MSVCRT:ucrt_stubs.obj
 0001:00028df4       _should_initialize_environment 0000000140029df4 f   MSVCRT:env_mode.obj
 0001:00028df4       __vcrt_uninitialize        0000000140029df4 f   MSVCRT:ucrt_stubs.obj
 0001:00028df4       __vcrt_initialize          0000000140029df4 f   MSVCRT:ucrt_stubs.obj
 0001:00028df4       __acrt_uninitialize        0000000140029df4 f   MSVCRT:ucrt_stubs.obj
 0001:00028df4       __scrt_stub_for_acrt_uninitialize 0000000140029df4 f   MSVCRT:ucrt_stubs.obj
 0001:00028e00       _guard_check_icall_nop     0000000140029e00 f   MSVCRT:guard_support.obj
 0001:00028e00       _initialize_invalid_parameter_handler 0000000140029e00 f   MSVCRT:invalid_parameter_handler.obj
 0001:00028e00       pjmedia_wave_hdr_host_to_file 0000000140029e00 f   pjmedia-x86_64-x64-vc14-release:wave.obj
 0001:00028e00       _initialize_denormal_control 0000000140029e00 f   MSVCRT:denormal_control.obj
 0001:00028e04       __scrt_initialize_default_local_stdio_options 0000000140029e04 f   MSVCRT:default_local_stdio_options.obj
 0001:00028e20       __scrt_is_user_matherr_present 0000000140029e20 f   MSVCRT:matherr_detection.obj
 0001:00028e2c       __scrt_get_dyn_tls_init_callback 0000000140029e2c f   MSVCRT:dyn_tls_init.obj
 0001:00028e34       __scrt_get_dyn_tls_dtor_callback 0000000140029e34 f   MSVCRT:dyn_tls_dtor.obj
 0001:00028e3c       __scrt_fastfail            0000000140029e3c f   MSVCRT:utility_desktop.obj
 0001:00028f84       __scrt_is_managed_app      0000000140029f84 f   MSVCRT:utility_desktop.obj
 0001:00028fd8       __scrt_set_unhandled_exception_filter 0000000140029fd8 f   MSVCRT:utility_desktop.obj
 0001:00028fe8       __scrt_unhandled_exception_filter 0000000140029fe8 f   MSVCRT:utility_desktop.obj
 0001:00029020       _RTC_Initialize            000000014002a020 f   MSVCRT:_initsect_.obj
 0001:0002906c       _RTC_Terminate             000000014002a06c f   MSVCRT:_initsect_.obj
 0001:000290b8       _guard_check_icall         000000014002a0b8 f i MSVCRT:checkcfg.obj
 0001:000295c0       __sse2_cos2                000000014002a5c0 f   MSVCRT:_svml_dcos2_sse2_.obj
 0001:00029f50       __sse2_sin2                000000014002af50 f   MSVCRT:_svml_dsin2_sse2_.obj
 0001:0002a410       __isa_available_init       000000014002b410 f   MSVCRT:_cpu_disp_.obj
 0001:0002a5d8       __scrt_is_ucrt_dll_in_use  000000014002b5d8 f   MSVCRT:ucrt_detection.obj
 0001:0002a5f0       IsProcessorFeaturePresent  000000014002b5f0 f   kernel32:KERNEL32.dll
 0001:0002a5f6       memcpy                     000000014002b5f6 f   vcruntime:VCRUNTIME140.dll
 0001:0002a5fc       memset                     000000014002b5fc f   vcruntime:VCRUNTIME140.dll
 0001:0002a602       memcmp                     000000014002b602 f   vcruntime:VCRUNTIME140.dll
 0001:0002a608       longjmp                    000000014002b608 f   vcruntime:VCRUNTIME140.dll
 0001:0002a60e       __C_specific_handler       000000014002b60e f   vcruntime:VCRUNTIME140.dll
 0001:0002a614       cos                        000000014002b614 f   ucrt:api-ms-win-crt-math-l1-1-0.dll
 0001:0002a61a       fmod                       000000014002b61a f   ucrt:api-ms-win-crt-math-l1-1-0.dll
 0001:0002a620       exp                        000000014002b620 f   ucrt:api-ms-win-crt-math-l1-1-0.dll
 0001:0002a626       floor                      000000014002b626 f   ucrt:api-ms-win-crt-math-l1-1-0.dll
 0001:0002a62c       sqrt                       000000014002b62c f   ucrt:api-ms-win-crt-math-l1-1-0.dll
 0001:0002a632       pow                        000000014002b632 f   ucrt:api-ms-win-crt-math-l1-1-0.dll
 0001:0002a638       sin                        000000014002b638 f   ucrt:api-ms-win-crt-math-l1-1-0.dll
 0001:0002a63e       log                        000000014002b63e f   ucrt:api-ms-win-crt-math-l1-1-0.dll
 0001:0002a644       atan                       000000014002b644 f   ucrt:api-ms-win-crt-math-l1-1-0.dll
 0001:0002a64a       exit                       000000014002b64a f   ucrt:api-ms-win-crt-runtime-l1-1-0.dll
 0001:0002a650       _seh_filter_exe            000000014002b650 f   ucrt:api-ms-win-crt-runtime-l1-1-0.dll
 0001:0002a656       _set_app_type              000000014002b656 f   ucrt:api-ms-win-crt-runtime-l1-1-0.dll
 0001:0002a65c       __setusermatherr           000000014002b65c f   ucrt:api-ms-win-crt-math-l1-1-0.dll
 0001:0002a662       _configure_narrow_argv     000000014002b662 f   ucrt:api-ms-win-crt-runtime-l1-1-0.dll
 0001:0002a668       _initialize_narrow_environment 000000014002b668 f   ucrt:api-ms-win-crt-runtime-l1-1-0.dll
 0001:0002a66e       _get_initial_narrow_environment 000000014002b66e f   ucrt:api-ms-win-crt-runtime-l1-1-0.dll
 0001:0002a674       _initterm                  000000014002b674 f   ucrt:api-ms-win-crt-runtime-l1-1-0.dll
 0001:0002a67a       _initterm_e                000000014002b67a f   ucrt:api-ms-win-crt-runtime-l1-1-0.dll
 0001:0002a680       _exit                      000000014002b680 f   ucrt:api-ms-win-crt-runtime-l1-1-0.dll
 0001:0002a686       _set_fmode                 000000014002b686 f   ucrt:api-ms-win-crt-stdio-l1-1-0.dll
 0001:0002a68c       __p___argc                 000000014002b68c f   ucrt:api-ms-win-crt-runtime-l1-1-0.dll
 0001:0002a692       __p___argv                 000000014002b692 f   ucrt:api-ms-win-crt-runtime-l1-1-0.dll
 0001:0002a698       _cexit                     000000014002b698 f   ucrt:api-ms-win-crt-runtime-l1-1-0.dll
 0001:0002a69e       _c_exit                    000000014002b69e f   ucrt:api-ms-win-crt-runtime-l1-1-0.dll
 0001:0002a6a4       _register_thread_local_exe_atexit_callback 000000014002b6a4 f   ucrt:api-ms-win-crt-runtime-l1-1-0.dll
 0001:0002a6aa       _configthreadlocale        000000014002b6aa f   ucrt:api-ms-win-crt-locale-l1-1-0.dll
 0001:0002a6b0       _set_new_mode              000000014002b6b0 f   ucrt:api-ms-win-crt-heap-l1-1-0.dll
 0001:0002a6b6       __p__commode               000000014002b6b6 f   ucrt:api-ms-win-crt-stdio-l1-1-0.dll
 0001:0002a6bc       _initialize_onexit_table   000000014002b6bc f   ucrt:api-ms-win-crt-runtime-l1-1-0.dll
 0001:0002a6c2       _register_onexit_function  000000014002b6c2 f   ucrt:api-ms-win-crt-runtime-l1-1-0.dll
 0001:0002a6c8       _crt_atexit                000000014002b6c8 f   ucrt:api-ms-win-crt-runtime-l1-1-0.dll
 0001:0002a6ce       terminate                  000000014002b6ce f   ucrt:api-ms-win-crt-runtime-l1-1-0.dll
 0001:0002a6f0       _guard_dispatch_icall_nop  000000014002b6f0 f   MSVCRT:_guard_dispatch_.obj
 0002:00000000       __imp_CreateFileA          000000014002c000     kernel32:KERNEL32.dll
 0002:00000008       __imp_GetModuleHandleW     000000014002c008     kernel32:KERNEL32.dll
 0002:00000010       __imp_IsDebuggerPresent    000000014002c010     kernel32:KERNEL32.dll
 0002:00000018       __imp_InitializeSListHead  000000014002c018     kernel32:KERNEL32.dll
 0002:00000020       __imp_GetSystemTimeAsFileTime 000000014002c020     kernel32:KERNEL32.dll
 0002:00000028       __imp_IsProcessorFeaturePresent 000000014002c028     kernel32:KERNEL32.dll
 0002:00000030       __imp_TerminateProcess     000000014002c030     kernel32:KERNEL32.dll
 0002:00000038       __imp_GetCurrentProcess    000000014002c038     kernel32:KERNEL32.dll
 0002:00000040       __imp_SetUnhandledExceptionFilter 000000014002c040     kernel32:KERNEL32.dll
 0002:00000048       __imp_UnhandledExceptionFilter 000000014002c048     kernel32:KERNEL32.dll
 0002:00000050       __imp_RtlVirtualUnwind     000000014002c050     kernel32:KERNEL32.dll
 0002:00000058       __imp_RtlLookupFunctionEntry 000000014002c058     kernel32:KERNEL32.dll
 0002:00000060       __imp_RtlCaptureContext    000000014002c060     kernel32:KERNEL32.dll
 0002:00000068       __imp_QueryPerformanceFrequency 000000014002c068     kernel32:KERNEL32.dll
 0002:00000070       __imp_QueryPerformanceCounter 000000014002c070     kernel32:KERNEL32.dll
 0002:00000078       __imp_WriteFile            000000014002c078     kernel32:KERNEL32.dll
 0002:00000080       __imp_SetFilePointer       000000014002c080     kernel32:KERNEL32.dll
 0002:00000088       __imp_SystemTimeToFileTime 000000014002c088     kernel32:KERNEL32.dll
 0002:00000090       __imp_FileTimeToSystemTime 000000014002c090     kernel32:KERNEL32.dll
 0002:00000098       __imp_GetLocalTime         000000014002c098     kernel32:KERNEL32.dll
 0002:000000a0       __imp_FormatMessageA       000000014002c0a0     kernel32:KERNEL32.dll
 0002:000000a8       __imp_SetConsoleTextAttribute 000000014002c0a8     kernel32:KERNEL32.dll
 0002:000000b0       __imp_TlsFree              000000014002c0b0     kernel32:KERNEL32.dll
 0002:000000b8       __imp_TlsSetValue          000000014002c0b8     kernel32:KERNEL32.dll
 0002:000000c0       __imp_TlsGetValue          000000014002c0c0     kernel32:KERNEL32.dll
 0002:000000c8       __imp_TlsAlloc             000000014002c0c8     kernel32:KERNEL32.dll
 0002:000000d0       __imp_GetCurrentThreadId   000000014002c0d0     kernel32:KERNEL32.dll
 0002:000000d8       __imp_CreateThread         000000014002c0d8     kernel32:KERNEL32.dll
 0002:000000e0       __imp_GetCurrentProcessId  000000014002c0e0     kernel32:KERNEL32.dll
 0002:000000e8       __imp_Sleep                000000014002c0e8     kernel32:KERNEL32.dll
 0002:000000f0       __imp_WaitForSingleObject  000000014002c0f0     kernel32:KERNEL32.dll
 0002:000000f8       __imp_ReleaseSemaphore     000000014002c0f8     kernel32:KERNEL32.dll
 0002:00000100       __imp_DeleteCriticalSection 000000014002c100     kernel32:KERNEL32.dll
 0002:00000108       __imp_TryEnterCriticalSection 000000014002c108     kernel32:KERNEL32.dll
 0002:00000110       __imp_LeaveCriticalSection 000000014002c110     kernel32:KERNEL32.dll
 0002:00000118       __imp_EnterCriticalSection 000000014002c118     kernel32:KERNEL32.dll
 0002:00000120       __imp_InitializeCriticalSection 000000014002c120     kernel32:KERNEL32.dll
 0002:00000128       __imp_GetLastError         000000014002c128     kernel32:KERNEL32.dll
 0002:00000130       __imp_GetStdHandle         000000014002c130     kernel32:KERNEL32.dll
 0002:00000138       __imp_WaitForMultipleObjects 000000014002c138     kernel32:KERNEL32.dll
 0002:00000140       __imp_SetThreadPriority    000000014002c140     kernel32:KERNEL32.dll
 0002:00000148       __imp_GetCurrentThread     000000014002c148     kernel32:KERNEL32.dll
 0002:00000150       __imp_CreateEventA         000000014002c150     kernel32:KERNEL32.dll
 0002:00000158       __imp_SetEvent             000000014002c158     kernel32:KERNEL32.dll
 0002:00000160       __imp_CloseHandle          000000014002c160     kernel32:KERNEL32.dll
 0002:00000168       \177KERNEL32_NULL_THUNK_DATA 000000014002c168     kernel32:KERNEL32.dll
 0002:00000170       __imp_memcpy               000000014002c170     vcruntime:VCRUNTIME140.dll
 0002:00000178       __imp_memset               000000014002c178     vcruntime:VCRUNTIME140.dll
 0002:00000180       __imp_memmove              000000014002c180     vcruntime:VCRUNTIME140.dll
 0002:00000188       __imp_strchr               000000014002c188     vcruntime:VCRUNTIME140.dll
 0002:00000190       __imp_memcmp               000000014002c190     vcruntime:VCRUNTIME140.dll
 0002:00000198       __imp_longjmp              000000014002c198     vcruntime:VCRUNTIME140.dll
 0002:000001a0       __imp___C_specific_handler 000000014002c1a0     vcruntime:VCRUNTIME140.dll
 0002:000001a8       \177VCRUNTIME140_NULL_THUNK_DATA 000000014002c1a8     vcruntime:VCRUNTIME140.dll
 0002:000001b0       __imp_waveOutReset         000000014002c1b0     winmm:WINMM.dll
 0002:000001b8       __imp_waveOutRestart       000000014002c1b8     winmm:WINMM.dll
 0002:000001c0       __imp_waveOutPause         000000014002c1c0     winmm:WINMM.dll
 0002:000001c8       __imp_waveOutWrite         000000014002c1c8     winmm:WINMM.dll
 0002:000001d0       __imp_waveOutUnprepareHeader 000000014002c1d0     winmm:WINMM.dll
 0002:000001d8       __imp_waveOutPrepareHeader 000000014002c1d8     winmm:WINMM.dll
 0002:000001e0       __imp_waveInGetNumDevs     000000014002c1e0     winmm:WINMM.dll
 0002:000001e8       __imp_waveOutOpen          000000014002c1e8     winmm:WINMM.dll
 0002:000001f0       __imp_waveOutSetVolume     000000014002c1f0     winmm:WINMM.dll
 0002:000001f8       __imp_waveOutGetVolume     000000014002c1f8     winmm:WINMM.dll
 0002:00000200       __imp_waveOutGetDevCapsA   000000014002c200     winmm:WINMM.dll
 0002:00000208       __imp_waveOutGetNumDevs    000000014002c208     winmm:WINMM.dll
 0002:00000210       __imp_waveInGetErrorTextA  000000014002c210     winmm:WINMM.dll
 0002:00000218       __imp_waveOutGetErrorTextA 000000014002c218     winmm:WINMM.dll
 0002:00000220       __imp_waveInGetDevCapsA    000000014002c220     winmm:WINMM.dll
 0002:00000228       __imp_waveInOpen           000000014002c228     winmm:WINMM.dll
 0002:00000230       __imp_waveInClose          000000014002c230     winmm:WINMM.dll
 0002:00000238       __imp_waveInPrepareHeader  000000014002c238     winmm:WINMM.dll
 0002:00000240       __imp_waveInUnprepareHeader 000000014002c240     winmm:WINMM.dll
 0002:00000248       __imp_waveInAddBuffer      000000014002c248     winmm:WINMM.dll
 0002:00000250       __imp_waveInStart          000000014002c250     winmm:WINMM.dll
 0002:00000258       __imp_waveInStop           000000014002c258     winmm:WINMM.dll
 0002:00000260       __imp_waveOutClose         000000014002c260     winmm:WINMM.dll
 0002:00000268       __imp_waveInReset          000000014002c268     winmm:WINMM.dll
 0002:00000270       \177WINMM_NULL_THUNK_DATA  000000014002c270     winmm:WINMM.dll
 0002:00000278       __imp_sendto               000000014002c278     ws2_32:WS2_32.dll
 0002:00000280       __imp_send                 000000014002c280     ws2_32:WS2_32.dll
 0002:00000288       __imp_recvfrom             000000014002c288     ws2_32:WS2_32.dll
 0002:00000290       __imp_recv                 000000014002c290     ws2_32:WS2_32.dll
 0002:00000298       __imp_ntohs                000000014002c298     ws2_32:WS2_32.dll
 0002:000002a0       __imp_ntohl                000000014002c2a0     ws2_32:WS2_32.dll
 0002:000002a8       __imp_htons                000000014002c2a8     ws2_32:WS2_32.dll
 0002:000002b0       __imp_htonl                000000014002c2b0     ws2_32:WS2_32.dll
 0002:000002b8       __imp_getsockopt           000000014002c2b8     ws2_32:WS2_32.dll
 0002:000002c0       __imp_getsockname          000000014002c2c0     ws2_32:WS2_32.dll
 0002:000002c8       __imp_accept               000000014002c2c8     ws2_32:WS2_32.dll
 0002:000002d0       __imp_WSAGetLastError      000000014002c2d0     ws2_32:WS2_32.dll
 0002:000002d8       __imp_WSACleanup           000000014002c2d8     ws2_32:WS2_32.dll
 0002:000002e0       __imp_WSAStartup           000000014002c2e0     ws2_32:WS2_32.dll
 0002:000002e8       __imp___WSAFDIsSet         000000014002c2e8     ws2_32:WS2_32.dll
 0002:000002f0       __imp_select               000000014002c2f0     ws2_32:WS2_32.dll
 0002:000002f8       \177WS2_32_NULL_THUNK_DATA 000000014002c2f8     ws2_32:WS2_32.dll
 0002:00000300       __imp_free                 000000014002c300     ucrt:api-ms-win-crt-heap-l1-1-0.dll
 0002:00000308       __imp__set_new_mode        000000014002c308     ucrt:api-ms-win-crt-heap-l1-1-0.dll
 0002:00000310       __imp_malloc               000000014002c310     ucrt:api-ms-win-crt-heap-l1-1-0.dll
 0002:00000318       __imp_calloc               000000014002c318     ucrt:api-ms-win-crt-heap-l1-1-0.dll
 0002:00000320       \177api-ms-win-crt-heap-l1-1-0_NULL_THUNK_DATA 000000014002c320     ucrt:api-ms-win-crt-heap-l1-1-0.dll
 0002:00000328       __imp__configthreadlocale  000000014002c328     ucrt:api-ms-win-crt-locale-l1-1-0.dll
 0002:00000330       \177api-ms-win-crt-locale-l1-1-0_NULL_THUNK_DATA 000000014002c330     ucrt:api-ms-win-crt-locale-l1-1-0.dll
 0002:00000338       __imp___setusermatherr     000000014002c338     ucrt:api-ms-win-crt-math-l1-1-0.dll
 0002:00000340       __imp_log                  000000014002c340     ucrt:api-ms-win-crt-math-l1-1-0.dll
 0002:00000348       __imp_sin                  000000014002c348     ucrt:api-ms-win-crt-math-l1-1-0.dll
 0002:00000350       __imp_cos                  000000014002c350     ucrt:api-ms-win-crt-math-l1-1-0.dll
 0002:00000358       __imp_pow                  000000014002c358     ucrt:api-ms-win-crt-math-l1-1-0.dll
 0002:00000360       __imp_sqrt                 000000014002c360     ucrt:api-ms-win-crt-math-l1-1-0.dll
 0002:00000368       __imp_floor                000000014002c368     ucrt:api-ms-win-crt-math-l1-1-0.dll
 0002:00000370       __imp_exp                  000000014002c370     ucrt:api-ms-win-crt-math-l1-1-0.dll
 0002:00000378       __imp_fmod                 000000014002c378     ucrt:api-ms-win-crt-math-l1-1-0.dll
 0002:00000380       __imp_atan                 000000014002c380     ucrt:api-ms-win-crt-math-l1-1-0.dll
 0002:00000388       \177api-ms-win-crt-math-l1-1-0_NULL_THUNK_DATA 000000014002c388     ucrt:api-ms-win-crt-math-l1-1-0.dll
 0002:00000390       __imp__c_exit              000000014002c390     ucrt:api-ms-win-crt-runtime-l1-1-0.dll
 0002:00000398       __imp__initialize_onexit_table 000000014002c398     ucrt:api-ms-win-crt-runtime-l1-1-0.dll
 0002:000003a0       __imp__register_onexit_function 000000014002c3a0     ucrt:api-ms-win-crt-runtime-l1-1-0.dll
 0002:000003a8       __imp__crt_atexit          000000014002c3a8     ucrt:api-ms-win-crt-runtime-l1-1-0.dll
 0002:000003b0       __imp_terminate            000000014002c3b0     ucrt:api-ms-win-crt-runtime-l1-1-0.dll
 0002:000003b8       __imp__register_thread_local_exe_atexit_callback 000000014002c3b8     ucrt:api-ms-win-crt-runtime-l1-1-0.dll
 0002:000003c0       __imp__cexit               000000014002c3c0     ucrt:api-ms-win-crt-runtime-l1-1-0.dll
 0002:000003c8       __imp___p___argv           000000014002c3c8     ucrt:api-ms-win-crt-runtime-l1-1-0.dll
 0002:000003d0       __imp_exit                 000000014002c3d0     ucrt:api-ms-win-crt-runtime-l1-1-0.dll
 0002:000003d8       __imp__seh_filter_exe      000000014002c3d8     ucrt:api-ms-win-crt-runtime-l1-1-0.dll
 0002:000003e0       __imp__set_app_type        000000014002c3e0     ucrt:api-ms-win-crt-runtime-l1-1-0.dll
 0002:000003e8       __imp__initialize_narrow_environment 000000014002c3e8     ucrt:api-ms-win-crt-runtime-l1-1-0.dll
 0002:000003f0       __imp__configure_narrow_argv 000000014002c3f0     ucrt:api-ms-win-crt-runtime-l1-1-0.dll
 0002:000003f8       __imp___p___argc           000000014002c3f8     ucrt:api-ms-win-crt-runtime-l1-1-0.dll
 0002:00000400       __imp__get_initial_narrow_environment 000000014002c400     ucrt:api-ms-win-crt-runtime-l1-1-0.dll
 0002:00000408       __imp__initterm            000000014002c408     ucrt:api-ms-win-crt-runtime-l1-1-0.dll
 0002:00000410       __imp__initterm_e          000000014002c410     ucrt:api-ms-win-crt-runtime-l1-1-0.dll
 0002:00000418       __imp__exit                000000014002c418     ucrt:api-ms-win-crt-runtime-l1-1-0.dll
 0002:00000420       \177api-ms-win-crt-runtime-l1-1-0_NULL_THUNK_DATA 000000014002c420     ucrt:api-ms-win-crt-runtime-l1-1-0.dll
 0002:00000428       __imp__set_fmode           000000014002c428     ucrt:api-ms-win-crt-stdio-l1-1-0.dll
 0002:00000430       __imp___stdio_common_vsprintf 000000014002c430     ucrt:api-ms-win-crt-stdio-l1-1-0.dll
 0002:00000438       __imp___stdio_common_vfprintf 000000014002c438     ucrt:api-ms-win-crt-stdio-l1-1-0.dll
 0002:00000440       __imp_puts                 000000014002c440     ucrt:api-ms-win-crt-stdio-l1-1-0.dll
 0002:00000448       __imp___p__commode         000000014002c448     ucrt:api-ms-win-crt-stdio-l1-1-0.dll
 0002:00000450       __imp_fgets                000000014002c450     ucrt:api-ms-win-crt-stdio-l1-1-0.dll
 0002:00000458       __imp___acrt_iob_func      000000014002c458     ucrt:api-ms-win-crt-stdio-l1-1-0.dll
 0002:00000460       \177api-ms-win-crt-stdio-l1-1-0_NULL_THUNK_DATA 000000014002c460     ucrt:api-ms-win-crt-stdio-l1-1-0.dll
 0002:00000468       __imp_strncpy              000000014002c468     ucrt:api-ms-win-crt-string-l1-1-0.dll
 0002:00000470       __imp__strnicmp            000000014002c470     ucrt:api-ms-win-crt-string-l1-1-0.dll
 0002:00000478       __imp_isxdigit             000000014002c478     ucrt:api-ms-win-crt-string-l1-1-0.dll
 0002:00000480       __imp_isdigit              000000014002c480     ucrt:api-ms-win-crt-string-l1-1-0.dll
 0002:00000488       \177api-ms-win-crt-string-l1-1-0_NULL_THUNK_DATA 000000014002c488     ucrt:api-ms-win-crt-string-l1-1-0.dll
 0002:00000490       __imp_rand                 000000014002c490     ucrt:api-ms-win-crt-utility-l1-1-0.dll
 0002:00000498       \177api-ms-win-crt-utility-l1-1-0_NULL_THUNK_DATA 000000014002c498     ucrt:api-ms-win-crt-utility-l1-1-0.dll
 0002:000004a0       __imp_CoCreateGuid         000000014002c4a0     ole32:ole32.dll
 0002:000004a8       \177ole32_NULL_THUNK_DATA  000000014002c4a8     ole32:ole32.dll
 0002:000004b0       __guard_check_icall_fptr   000000014002c4b0     MSVCRT:guard_support.obj
 0002:000004b8       __guard_dispatch_icall_fptr 000000014002c4b8     MSVCRT:guard_support.obj
 0002:000004c0       __xc_a                     000000014002c4c0     MSVCRT:initializers.obj
 0002:000004d0       __xc_z                     000000014002c4d0     MSVCRT:initializers.obj
 0002:000004d8       __xi_a                     000000014002c4d8     MSVCRT:initializers.obj
 0002:000004f0       __xi_z                     000000014002c4f0     MSVCRT:initializers.obj
 0002:000004f8       __xp_a                     000000014002c4f8     MSVCRT:initializers.obj
 0002:00000500       __xp_z                     000000014002c500     MSVCRT:initializers.obj
 0002:00000508       __xt_a                     000000014002c508     MSVCRT:initializers.obj
 0002:00000510       __xt_z                     000000014002c510     MSVCRT:initializers.obj
 0002:000005e0       ??_C@_0DC@MHBBCDGM@Unspecified?5audio?5device?5error?5?$CI@ 000000014002c5e0     pjmedia-audiodev-x86_64-x64-vc14-release:errno.obj
 0002:00000618       ??_C@_0DG@FEDKLOFB@Unknown?5error?5from?5audio?5driver?5@ 000000014002c618     pjmedia-audiodev-x86_64-x64-vc14-release:errno.obj
 0002:00000650       ??_C@_0DE@DOHCBKFK@Audio?5subsystem?5not?5initialized?5@ 000000014002c650     pjmedia-audiodev-x86_64-x64-vc14-release:errno.obj
 0002:00000688       ??_C@_0CL@NCBJPCNF@Invalid?5audio?5device?5?$CIPJMEDIA_EA@ 000000014002c688     pjmedia-audiodev-x86_64-x64-vc14-release:errno.obj
 0002:000006b8       ??_C@_0CM@LOPLLMHO@Found?5no?5audio?5devices?5?$CIPJMEDIA_@ 000000014002c6b8     pjmedia-audiodev-x86_64-x64-vc14-release:errno.obj
 0002:000006e8       ??_C@_0DM@DPDKGMIE@Unable?5to?5find?5default?5audio?5dev@ 000000014002c6e8     pjmedia-audiodev-x86_64-x64-vc14-release:errno.obj
 0002:00000728       ??_C@_0CP@JIPJOIMB@Audio?5device?5not?5ready?5?$CIPJMEDIA_@ 000000014002c728     pjmedia-audiodev-x86_64-x64-vc14-release:errno.obj
 0002:00000758       ??_C@_0DO@NMIGLFFA@Invalid?5or?5unsupported?5audio?5cap@ 000000014002c758     pjmedia-audiodev-x86_64-x64-vc14-release:errno.obj
 0002:000007a0       ??_C@_0ED@PLJALPOA@Invalid?5or?5unsupported?5audio?5dev@ 000000014002c7a0     pjmedia-audiodev-x86_64-x64-vc14-release:errno.obj
 0002:000007e8       ??_C@_0DM@JKDJGBNG@Bad?5or?5invalid?5audio?5device?5form@ 000000014002c7e8     pjmedia-audiodev-x86_64-x64-vc14-release:errno.obj
 0002:00000828       ??_C@_0DN@BLAJILEA@Invalid?5audio?5device?5sample?5form@ 000000014002c828     pjmedia-audiodev-x86_64-x64-vc14-release:errno.obj
 0002:00000868       ??_C@_0DE@LJJGJIEF@Bad?5audio?5latency?5setting?5?$CIPJMED@ 000000014002c868     pjmedia-audiodev-x86_64-x64-vc14-release:errno.obj
 0002:000008a0       ??_C@_0BJ@GMHLEOAL@MMSYSTEM?5native?5error?5?$CFd?$AA@ 000000014002c8a0     pjmedia-audiodev-x86_64-x64-vc14-release:errno.obj
 0002:000008c0       ??_C@_0CC@MFOJNIAN@Unknown?5pjmedia?9audiodev?5error?5?$CF@ 000000014002c8c0     pjmedia-audiodev-x86_64-x64-vc14-release:errno.obj
 0002:000008e8       ??_C@_0M@KBHHDDLP@Wave?5mapper?$AA@ 000000014002c8e8     pjmedia-audiodev-x86_64-x64-vc14-release:wmme_dev.obj
 0002:000008f4       ??_C@_04CPNMDOAK@WMME?$AA@ 000000014002c8f4     pjmedia-audiodev-x86_64-x64-vc14-release:wmme_dev.obj
 0002:00000900       ??_C@_0BB@EOKKHGLD@WMME?5initialized?$AA@ 000000014002c900     pjmedia-audiodev-x86_64-x64-vc14-release:wmme_dev.obj
 0002:00000918       ??_C@_0L@HHCCMOGO@wmme_dev?4c?$AA@ 000000014002c918     pjmedia-audiodev-x86_64-x64-vc14-release:wmme_dev.obj
 0002:00000928       ??_C@_0BM@OMJMEAMB@WMME?5found?5no?5sound?5devices?$AA@ 000000014002c928     pjmedia-audiodev-x86_64-x64-vc14-release:wmme_dev.obj
 0002:00000944       ??_C@_11LOCGONAA@?$AA?$AA@ 000000014002c944     pjmedia-audiodev-x86_64-x64-vc14-release:wmme_dev.obj
 0002:00000948       ??_C@_0BH@GEMAAOCL@WMME?5found?5?$CFd?5devices?3?$AA@ 000000014002c948     pjmedia-audiodev-x86_64-x64-vc14-release:wmme_dev.obj
 0002:00000960       ??_C@_0CA@NLJGEGOG@?5dev_id?5?$CFd?3?5?$CFs?5?5?$CIin?$DN?$CFd?0?5out?$DN?$CFd?$CJ?$AA@ 000000014002c960     pjmedia-audiodev-x86_64-x64-vc14-release:wmme_dev.obj
 0002:00000980       ??_C@_03CCLNCNJA@PCM?$AA@  000000014002c980     pjmedia-audiodev-x86_64-x64-vc14-release:wmme_dev.obj
 0002:00000990       ??_C@_0HB@MKIBCFPJ@?5WaveAPI?5Sound?5player?5?$CC?$CFs?$CC?5initi@ 000000014002c990     pjmedia-audiodev-x86_64-x64-vc14-release:wmme_dev.obj
 0002:00000a10       ??_C@_0HD@PIICIPL@?5WaveAPI?5Sound?5recorder?5?$CC?$CFs?$CC?5ini@ 000000014002ca10     pjmedia-audiodev-x86_64-x64-vc14-release:wmme_dev.obj
 0002:00000a88       ??_C@_0CJ@BMOAEONK@Failed?5to?5write?5audio?5frame?5for?5@ 000000014002ca88     pjmedia-audiodev-x86_64-x64-vc14-release:wmme_dev.obj
 0002:00000ab8       ??_C@_0BP@EAOBDJJO@Failed?5to?5add?5recording?5buffer?$AA@ 000000014002cab8     pjmedia-audiodev-x86_64-x64-vc14-release:wmme_dev.obj
 0002:00000ad8       ??_C@_0BI@BEJPJEBJ@WMME?3?5thread?5stopping?4?4?$AA@ 000000014002cad8     pjmedia-audiodev-x86_64-x64-vc14-release:wmme_dev.obj
 0002:00000af0       ??_C@_0CB@JKFANBEJ@WMME?5thread?5stopped?5due?5to?5error@ 000000014002caf0     pjmedia-audiodev-x86_64-x64-vc14-release:wmme_dev.obj
 0002:00000b18       ??_C@_08MOOOBPLB@wmme?9dev?$AA@ 000000014002cb18     pjmedia-audiodev-x86_64-x64-vc14-release:wmme_dev.obj
 0002:00000b24       ??_C@_04ODOGNMHC@wmme?$AA@ 000000014002cb24     pjmedia-audiodev-x86_64-x64-vc14-release:wmme_dev.obj
 0002:00000b30       ??_C@_0BN@MNACKNIN@WMME?5playback?5stream?5started?$AA@ 000000014002cb30     pjmedia-audiodev-x86_64-x64-vc14-release:wmme_dev.obj
 0002:00000b50       ??_C@_0BM@NKDLICNM@WMME?5capture?5stream?5started?$AA@ 000000014002cb50     pjmedia-audiodev-x86_64-x64-vc14-release:wmme_dev.obj
 0002:00000b70       ??_C@_0BN@FMJNHCPG@Stopped?5WMME?5playback?5stream?$AA@ 000000014002cb70     pjmedia-audiodev-x86_64-x64-vc14-release:wmme_dev.obj
 0002:00000b90       ??_C@_0BM@KCHDOGNE@Stopped?5WMME?5capture?5stream?$AA@ 000000014002cb90     pjmedia-audiodev-x86_64-x64-vc14-release:wmme_dev.obj
 0002:00000bb0       ??_C@_09OFDCJLJM@WMME?5base?$AA@ 000000014002cbb0     pjmedia-audiodev-x86_64-x64-vc14-release:wmme_dev.obj
 0002:00000c20       ??_C@_07OEHJJJKF@RTP?1AVP?$AA@ 000000014002cc20     pjmedia-x86_64-x64-vc14-release:endpoint.obj
 0002:00000c28       ??_C@_02BBAPPCCJ@IN?$AA@   000000014002cc28     pjmedia-x86_64-x64-vc14-release:endpoint.obj
 0002:00000c2c       ??_C@_03OPDBOKBD@IP4?$AA@  000000014002cc2c     pjmedia-x86_64-x64-vc14-release:endpoint.obj
 0002:00000c30       ??_C@_03NNAHIIJB@IP6?$AA@  000000014002cc30     pjmedia-x86_64-x64-vc14-release:endpoint.obj
 0002:00000c38       ??_C@_07HDFHIMAJ@pjmedia?$AA@ 000000014002cc38     pjmedia-x86_64-x64-vc14-release:endpoint.obj
 0002:00000c40       ??_C@_08LMCBNPPN@sendrecv?$AA@ 000000014002cc40     pjmedia-x86_64-x64-vc14-release:endpoint.obj
 0002:00000c50       ??_C@_07LBNDIDNE@med?9ept?$AA@ 000000014002cc50     pjmedia-x86_64-x64-vc14-release:endpoint.obj
 0002:00000c60       ??_C@_0EL@BIFHLACC@Warning?3?5no?5worker?5thread?5is?5cre@ 000000014002cc60     pjmedia-x86_64-x64-vc14-release:endpoint.obj
 0002:00000cb0       ??_C@_0L@DLFDMOGF@endpoint?4c?$AA@ 000000014002ccb0     pjmedia-x86_64-x64-vc14-release:endpoint.obj
 0002:00000cbc       ??_C@_05CECBHAPI@media?$AA@ 000000014002ccbc     pjmedia-x86_64-x64-vc14-release:endpoint.obj
 0002:00000cc2       ??_C@_00CNPNBAHC@?$AA@     000000014002ccc2     pjmedia-x86_64-x64-vc14-release:endpoint.obj
 0002:00000cc4       ??_C@_01CLKCMJKC@?5?$AA@   000000014002ccc4     pjmedia-x86_64-x64-vc14-release:endpoint.obj
 0002:00000cc8       ??_C@_0N@COEOBFOD@EC?5activated?$AA@ 000000014002ccc8     pjmedia-x86_64-x64-vc14-release:sound_port.obj
 0002:00000cd8       ??_C@_0N@GOCHBLLA@sound_port?4c?$AA@ 000000014002ccd8     pjmedia-x86_64-x64-vc14-release:sound_port.obj
 0002:00000ce8       ??_C@_0CD@IGHBIGGN@EC?5suspended?5because?5of?5inactivi@ 000000014002cce8     pjmedia-x86_64-x64-vc14-release:sound_port.obj
 0002:00000d10       ??_C@_0CB@KICGINBD@AEC?5tail?5is?5set?5to?5default?5?$CFu?5ms@ 000000014002cd10     pjmedia-x86_64-x64-vc14-release:sound_port.obj
 0002:00000d38       ??_C@_0DJ@PNINHBGM@pjmedia_snd_port_set_ec?$CI?$CJ?5ignore@ 000000014002cd38     pjmedia-x86_64-x64-vc14-release:sound_port.obj
 0002:00000d78       ??_C@_0DB@KDEIEFDK@Echo?5canceller?5is?5now?5disabled?5i@ 000000014002cd78     pjmedia-x86_64-x64-vc14-release:sound_port.obj
 0002:00000db0       ??_C@_0DH@EDIEAILI@File?5writer?5?8?$CF?4?$CKs?8?5created?3?5samp@ 000000014002cdb0     pjmedia-x86_64-x64-vc14-release:wav_writer.obj
 0002:00000de8       ??_C@_0N@MCLOBLAH@wav_writer?4c?$AA@ 000000014002cde8     pjmedia-x86_64-x64-vc14-release:wav_writer.obj
 0002:00000df8       ??_C@_07GBKCPIDJ@ext?9fmt?$AA@ 000000014002cdf8     pjmedia-x86_64-x64-vc14-release:audiodev.obj
 0002:00000e00       ??_C@_0BI@GGHCECPI@Extended?1non?9PCM?5format?$AA@ 000000014002ce00     pjmedia-x86_64-x64-vc14-release:audiodev.obj
 0002:00000e18       ??_C@_0L@IKNMBADD@latency?9in?$AA@ 000000014002ce18     pjmedia-x86_64-x64-vc14-release:audiodev.obj
 0002:00000e28       ??_C@_0CC@LIGOHOJN@Input?5latency?1buffer?5size?5settin@ 000000014002ce28     pjmedia-x86_64-x64-vc14-release:audiodev.obj
 0002:00000e50       ??_C@_0M@MBBBBCLJ@latency?9out?$AA@ 000000014002ce50     pjmedia-x86_64-x64-vc14-release:audiodev.obj
 0002:00000e60       ??_C@_0CD@GAINMBC@Output?5latency?1buffer?5size?5setti@ 000000014002ce60     pjmedia-x86_64-x64-vc14-release:audiodev.obj
 0002:00000e84       ??_C@_06KGGLCDDG@vol?9in?$AA@ 000000014002ce84     pjmedia-x86_64-x64-vc14-release:audiodev.obj
 0002:00000e90       ??_C@_0BF@CCEKOJAN@Input?5volume?5setting?$AA@ 000000014002ce90     pjmedia-x86_64-x64-vc14-release:audiodev.obj
 0002:00000ea8       ??_C@_07LBFHFBAF@vol?9out?$AA@ 000000014002cea8     pjmedia-x86_64-x64-vc14-release:audiodev.obj
 0002:00000eb0       ??_C@_0BG@IBEHJHAD@Output?5volume?5setting?$AA@ 000000014002ceb0     pjmedia-x86_64-x64-vc14-release:audiodev.obj
 0002:00000ec8       ??_C@_08BPNDLGG@meter?9in?$AA@ 000000014002cec8     pjmedia-x86_64-x64-vc14-release:audiodev.obj
 0002:00000ed8       ??_C@_0M@NCGIGNPG@Input?5meter?$AA@ 000000014002ced8     pjmedia-x86_64-x64-vc14-release:audiodev.obj
 0002:00000ee8       ??_C@_09NKJLJGOJ@meter?9out?$AA@ 000000014002cee8     pjmedia-x86_64-x64-vc14-release:audiodev.obj
 0002:00000ef8       ??_C@_0N@GBEOEOEP@Output?5meter?$AA@ 000000014002cef8     pjmedia-x86_64-x64-vc14-release:audiodev.obj
 0002:00000f08       ??_C@_08FPHJDLBG@route?9in?$AA@ 000000014002cf08     pjmedia-x86_64-x64-vc14-release:audiodev.obj
 0002:00000f18       ??_C@_0O@JDPFDDM@Input?5routing?$AA@ 000000014002cf18     pjmedia-x86_64-x64-vc14-release:audiodev.obj
 0002:00000f28       ??_C@_09IKMAGDNF@route?9out?$AA@ 000000014002cf28     pjmedia-x86_64-x64-vc14-release:audiodev.obj
 0002:00000f38       ??_C@_0P@JOFPIEJJ@Output?5routing?$AA@ 000000014002cf38     pjmedia-x86_64-x64-vc14-release:audiodev.obj
 0002:00000f48       ??_C@_03FNONIBCK@aec?$AA@  000000014002cf48     pjmedia-x86_64-x64-vc14-release:audiodev.obj
 0002:00000f50       ??_C@_0BM@HPDLGLFJ@Accoustic?5echo?5cancellation?$AA@ 000000014002cf50     pjmedia-x86_64-x64-vc14-release:audiodev.obj
 0002:00000f70       ??_C@_08MKAPJCJE@aec?9tail?$AA@ 000000014002cf70     pjmedia-x86_64-x64-vc14-release:audiodev.obj
 0002:00000f80       ??_C@_0BM@PBLLADJD@Tail?5length?5setting?5for?5AEC?$AA@ 000000014002cf80     pjmedia-x86_64-x64-vc14-release:audiodev.obj
 0002:00000f9c       ??_C@_03NIGLNABH@vad?$AA@  000000014002cf9c     pjmedia-x86_64-x64-vc14-release:audiodev.obj
 0002:00000fa0       ??_C@_0BJ@PEELNNPF@Voice?5activity?5detection?$AA@ 000000014002cfa0     pjmedia-x86_64-x64-vc14-release:audiodev.obj
 0002:00000fbc       ??_C@_03JPNNGDEE@cng?$AA@  000000014002cfbc     pjmedia-x86_64-x64-vc14-release:audiodev.obj
 0002:00000fc0       ??_C@_0BJ@MNDOFJGN@Comfort?5noise?5generation?$AA@ 000000014002cfc0     pjmedia-x86_64-x64-vc14-release:audiodev.obj
 0002:00000fdc       ??_C@_03NOPFEPFL@plg?$AA@  000000014002cfdc     pjmedia-x86_64-x64-vc14-release:audiodev.obj
 0002:00000fe0       ??_C@_0BI@OMEMKBHH@Packet?5loss?5concealment?$AA@ 000000014002cfe0     pjmedia-x86_64-x64-vc14-release:audiodev.obj
 0002:00001000       ??_C@_0EF@NLCNMHAD@?$CFd?5device?$CIs?$CJ?5cannot?5be?5registere@ 000000014002d000     pjmedia-x86_64-x64-vc14-release:audiodev.obj
 0002:00001048       ??_C@_0L@FGHHAHLM@audiodev?4c?$AA@ 000000014002d048     pjmedia-x86_64-x64-vc14-release:audiodev.obj
 0002:00001058       ??_C@_0DH@LLDEKPNG@Lost?5event?5?$CFs?5from?5publisher?5?$FL0x@ 000000014002d058     pjmedia-x86_64-x64-vc14-release:event.obj
 0002:00001090       ??_C@_07GLALFINI@event?4c?$AA@ 000000014002d090     pjmedia-x86_64-x64-vc14-release:event.obj
 0002:00001098       ??_C@_01KMDKNFGN@?1?$AA@   000000014002d098     pjmedia-x86_64-x64-vc14-release:sdp.obj
 0002:0000109c       ??_C@_03GOLBDMPC@RTP?$AA@  000000014002d09c     pjmedia-x86_64-x64-vc14-release:sdp.obj
 0002:000010a0       ??_C@_03CPJJBAON@AVP?$AA@  000000014002d0a0     pjmedia-x86_64-x64-vc14-release:sdp.obj
 0002:000010a4       ??_C@_04LHEMINPH@SAVP?$AA@ 000000014002d0a4     pjmedia-x86_64-x64-vc14-release:sdp.obj
 0002:000010ac       ??_C@_04HILHOPFG@AVPF?$AA@ 000000014002d0ac     pjmedia-x86_64-x64-vc14-release:sdp.obj
 0002:000010b4       ??_C@_05IFENMDLB@SAVPF?$AA@ 000000014002d0b4     pjmedia-x86_64-x64-vc14-release:sdp.obj
 0002:000010bc       ??_C@_03OPEAKHDL@UDP?$AA@  000000014002d0bc     pjmedia-x86_64-x64-vc14-release:sdp.obj
 0002:000010c0       ??_C@_0N@IFKNLCBO@TLS?1RTP?1SAVP?$AA@ 000000014002d0c0     pjmedia-x86_64-x64-vc14-release:sdp.obj
 0002:000010d0       ??_C@_0O@FMKJHIFC@TLS?1RTP?1SAVPF?$AA@ 000000014002d0d0     pjmedia-x86_64-x64-vc14-release:sdp.obj
 0002:000010e0       ??_C@_09GLMNEMC@codec?9mgr?$AA@ 000000014002d0e0     pjmedia-x86_64-x64-vc14-release:codec.obj
 0002:00001790       ??_C@_0CK@HBHLALIF@Unspecified?5PJMEDIA?5error?5?$CIPJMED@ 000000014002d790     pjmedia-x86_64-x64-vc14-release:errno.obj
 0002:000017c0       ??_C@_0CM@KFAONKNJ@Invalid?5SDP?5descriptor?5?$CIPJMEDIA_@ 000000014002d7c0     pjmedia-x86_64-x64-vc14-release:errno.obj
 0002:000017f0       ??_C@_0CO@ONPCFICA@Invalid?5SDP?5version?5line?5?$CIPJMEDI@ 000000014002d7f0     pjmedia-x86_64-x64-vc14-release:errno.obj
 0002:00001820       ??_C@_0DA@DIKNJOEJ@Invalid?5SDP?5origin?5line?5?$CIPJMEDIA@ 000000014002d820     pjmedia-x86_64-x64-vc14-release:errno.obj
 0002:00001850       ??_C@_0CM@DLEAGODI@Invalid?5SDP?5time?5line?5?$CIPJMEDIA_S@ 000000014002d850     pjmedia-x86_64-x64-vc14-release:errno.obj
 0002:00001880       ??_C@_0DF@HNDCDPJF@SDP?5name?1subject?5line?5is?5empty?5?$CI@ 000000014002d880     pjmedia-x86_64-x64-vc14-release:errno.obj
 0002:000018b8       ??_C@_0DC@KNNPDHKA@Invalid?5SDP?5connection?5line?5?$CIPJM@ 000000014002d8b8     pjmedia-x86_64-x64-vc14-release:errno.obj
 0002:000018f0       ??_C@_0DM@NEDHCJGL@Missing?5SDP?5connection?5info?5line@ 000000014002d8f0     pjmedia-x86_64-x64-vc14-release:errno.obj
 0002:00001930       ??_C@_0CN@JHLMEODJ@Invalid?5SDP?5attributes?5?$CIPJMEDIA_@ 000000014002d930     pjmedia-x86_64-x64-vc14-release:errno.obj
 0002:00001960       ??_C@_0DF@BJAALDOM@Invalid?5SDP?5rtpmap?5attribute?5?$CIPJ@ 000000014002d960     pjmedia-x86_64-x64-vc14-release:errno.obj
 0002:00001998       ??_C@_0DL@HCOGNPAF@SDP?5rtpmap?5attribute?5too?5long?5?$CIP@ 000000014002d998     pjmedia-x86_64-x64-vc14-release:errno.obj
 0002:000019e0       ??_C@_0EJ@IDNJACOO@Missing?5SDP?5rtpmap?5for?5dynamic?5p@ 000000014002d9e0     pjmedia-x86_64-x64-vc14-release:errno.obj
 0002:00001a30       ??_C@_0CO@DIKFNJOF@Invalid?5SDP?5media?5line?5?$CIPJMEDIA_@ 000000014002da30     pjmedia-x86_64-x64-vc14-release:errno.obj
 0002:00001a60       ??_C@_0DN@GADAENKO@No?5SDP?5payload?5format?5in?5the?5med@ 000000014002da60     pjmedia-x86_64-x64-vc14-release:errno.obj
 0002:00001aa0       ??_C@_0DL@KAILPDC@Invalid?5SDP?5payload?5type?5in?5medi@ 000000014002daa0     pjmedia-x86_64-x64-vc14-release:errno.obj
 0002:00001ae0       ??_C@_0DB@BJCACDID@Invalid?5SDP?5fmtp?5attribute?5?$CIPJME@ 000000014002dae0     pjmedia-x86_64-x64-vc14-release:errno.obj
 0002:00001b18       ??_C@_0DB@GFBENNMO@Invalid?5SDP?5rtcp?5attribute?5?$CIPJME@ 000000014002db18     pjmedia-x86_64-x64-vc14-release:errno.obj
 0002:00001b50       ??_C@_0DM@JFGCNJLM@Invalid?5SDP?5media?5transport?5prot@ 000000014002db50     pjmedia-x86_64-x64-vc14-release:errno.obj
 0002:00001b90       ??_C@_0DH@PCNCDMKM@Invalid?5SDP?5bandwidth?5info?5line?5@ 000000014002db90     pjmedia-x86_64-x64-vc14-release:errno.obj
 0002:00001bc8       ??_C@_0DB@POLJHCKE@Invalid?5SDP?5ssrc?5attribute?5?$CIPJME@ 000000014002dbc8     pjmedia-x86_64-x64-vc14-release:errno.obj
 0002:00001c00       ??_C@_0EF@CJNFLCEL@Invalid?5SDP?5negotiator?5state?5for@ 000000014002dc00     pjmedia-x86_64-x64-vc14-release:errno.obj
 0002:00001c50       ??_C@_0ED@IFOJJHNO@No?5initial?5local?5SDP?5in?5SDP?5nego@ 000000014002dc50     pjmedia-x86_64-x64-vc14-release:errno.obj
 0002:00001c98       ??_C@_0DL@MFMHOMBE@No?5active?5SDP?5in?5SDP?5negotiator?5@ 000000014002dc98     pjmedia-x86_64-x64-vc14-release:errno.obj
 0002:00001cd8       ??_C@_0DN@JGPGLEOH@No?5current?5local?1remote?5offer?1an@ 000000014002dcd8     pjmedia-x86_64-x64-vc14-release:errno.obj
 0002:00001d20       ??_C@_0EE@BLNHOMNC@SDP?5media?5count?5mismatch?5in?5offe@ 000000014002dd20     pjmedia-x86_64-x64-vc14-release:errno.obj
 0002:00001d70       ??_C@_0EG@MJOIPNIH@SDP?5media?5type?5mismatch?5in?5offer@ 000000014002dd70     pjmedia-x86_64-x64-vc14-release:errno.obj
 0002:00001dc0       ??_C@_0EN@OPFCIOMP@SDP?5media?5transport?5type?5mismatc@ 000000014002ddc0     pjmedia-x86_64-x64-vc14-release:errno.obj
 0002:00001e10       ??_C@_0ED@NGHPALDD@No?5common?5SDP?5media?5payload?5in?5a@ 000000014002de10     pjmedia-x86_64-x64-vc14-release:errno.obj
 0002:00001e60       ??_C@_0ED@HELGJJGO@No?5active?5media?5stream?5after?5neg@ 000000014002de60     pjmedia-x86_64-x64-vc14-release:errno.obj
 0002:00001ea8       ??_C@_0DP@KIMEPBPF@No?5suitable?5codec?5for?5remote?5off@ 000000014002dea8     pjmedia-x86_64-x64-vc14-release:errno.obj
 0002:00001ef0       ??_C@_0EM@LLMPLGCO@No?5suitable?5telephone?9event?5for?5@ 000000014002def0     pjmedia-x86_64-x64-vc14-release:errno.obj
 0002:00001f40       ??_C@_0EK@LPNBCGHG@No?5suitable?5answer?5for?5unknown?5r@ 000000014002df40     pjmedia-x86_64-x64-vc14-release:errno.obj
 0002:00001f90       ??_C@_0DM@JMBBJEKO@SDP?5media?5descriptor?5not?5equal?5?$CI@ 000000014002df90     pjmedia-x86_64-x64-vc14-release:errno.obj
 0002:00001fd0       ??_C@_0ED@KAALGBMF@Port?5in?5SDP?5media?5descriptor?5not@ 000000014002dfd0     pjmedia-x86_64-x64-vc14-release:errno.obj
 0002:00002020       ??_C@_0EJ@FJOJLJDF@Transport?5in?5SDP?5media?5descripto@ 000000014002e020     pjmedia-x86_64-x64-vc14-release:errno.obj
 0002:00002070       ??_C@_0EH@FMIFCFBA@Format?5in?5SDP?5media?5descriptor?5n@ 000000014002e070     pjmedia-x86_64-x64-vc14-release:errno.obj
 0002:000020b8       ??_C@_0DK@MAHAOAHF@SDP?5connection?5line?5not?5equal?5?$CIP@ 000000014002e0b8     pjmedia-x86_64-x64-vc14-release:errno.obj
 0002:000020f8       ??_C@_0DF@HHCJAGLJ@SDP?5attributes?5not?5equal?5?$CIPJMEDI@ 000000014002e0f8     pjmedia-x86_64-x64-vc14-release:errno.obj
 0002:00002130       ??_C@_0DJ@GGABIHGL@SDP?5media?5direction?5not?5equal?5?$CIP@ 000000014002e130     pjmedia-x86_64-x64-vc14-release:errno.obj
 0002:00002170       ??_C@_0DJ@FFGHKCEG@SDP?5fmtp?5attribute?5not?5equal?5?$CIPJ@ 000000014002e170     pjmedia-x86_64-x64-vc14-release:errno.obj
 0002:000021b0       ??_C@_0DN@HLKACHFN@SDP?5rtpmap?5attribute?5not?5equal?5?$CI@ 000000014002e1b0     pjmedia-x86_64-x64-vc14-release:errno.obj
 0002:000021f0       ??_C@_0DN@EALGPLFN@SDP?5session?5descriptor?5not?5equal@ 000000014002e1f0     pjmedia-x86_64-x64-vc14-release:errno.obj
 0002:00002230       ??_C@_0DI@BLKBMMGO@SDP?5origin?5line?5not?5equal?5?$CIPJMED@ 000000014002e230     pjmedia-x86_64-x64-vc14-release:errno.obj
 0002:00002268       ??_C@_0DM@HCOBINN@SDP?5name?1subject?5line?5not?5equal?5@ 000000014002e268     pjmedia-x86_64-x64-vc14-release:errno.obj
 0002:000022a8       ??_C@_0DE@PFJJJNGL@SDP?5time?5line?5not?5equal?5?$CIPJMEDIA@ 000000014002e2a8     pjmedia-x86_64-x64-vc14-release:errno.obj
 0002:000022e0       ??_C@_0CP@ODMIIAEN@Unsupported?5media?5codec?5?$CIPJMEDIA@ 000000014002e2e0     pjmedia-x86_64-x64-vc14-release:errno.obj
 0002:00002310       ??_C@_0DG@KJBEJCIE@Codec?5internal?5creation?5error?5?$CIP@ 000000014002e310     pjmedia-x86_64-x64-vc14-release:errno.obj
 0002:00002348       ??_C@_0DG@FOGENKNL@Codec?5frame?5is?5too?5short?5?$CIPJMEDI@ 000000014002e348     pjmedia-x86_64-x64-vc14-release:errno.obj
 0002:00002380       ??_C@_0DE@OLKJHMCL@PCM?5frame?5is?5too?5short?5?$CIPJMEDIA_@ 000000014002e380     pjmedia-x86_64-x64-vc14-release:errno.obj
 0002:000023b8       ??_C@_0DF@JDAOLAOM@Invalid?5codec?5frame?5length?5?$CIPJME@ 000000014002e3b8     pjmedia-x86_64-x64-vc14-release:errno.obj
 0002:000023f0       ??_C@_0DG@LLBBCNCG@Invalid?5PCM?5frame?5length?5?$CIPJMEDI@ 000000014002e3f0     pjmedia-x86_64-x64-vc14-release:errno.obj
 0002:00002428       ??_C@_0DG@EKMGLMFL@Invalid?5codec?5mode?5?$CIno?5fmtp?$DP?$CJ?5?$CIP@ 000000014002e428     pjmedia-x86_64-x64-vc14-release:errno.obj
 0002:00002460       ??_C@_0DJ@NJFBGAOC@Bad?5or?5corrupted?5bitstream?5?$CIPJME@ 000000014002e460     pjmedia-x86_64-x64-vc14-release:errno.obj
 0002:000024a0       ??_C@_0DH@KOBKDDJI@Invalid?5remote?5media?5?$CIIP?$CJ?5addres@ 000000014002e4a0     pjmedia-x86_64-x64-vc14-release:errno.obj
 0002:000024d8       ??_C@_0DM@GBJMMNCF@Asymetric?5media?5codec?5is?5not?5sup@ 000000014002e4d8     pjmedia-x86_64-x64-vc14-release:errno.obj
 0002:00002518       ??_C@_0DA@DKJJFGPE@Invalid?5media?5payload?5type?5?$CIPJME@ 000000014002e518     pjmedia-x86_64-x64-vc14-release:errno.obj
 0002:00002548       ??_C@_0DN@IGGOEBDI@Missing?5rtpmap?5in?5media?5descript@ 000000014002e548     pjmedia-x86_64-x64-vc14-release:errno.obj
 0002:00002588       ??_C@_0CO@MJBLNMMI@Invalid?5media?5type?5?$CIPJMEDIA_EINV@ 000000014002e588     pjmedia-x86_64-x64-vc14-release:errno.obj
 0002:000025b8       ??_C@_0DF@NNKPPHHC@Remote?5does?5not?5support?5DTMF?5?$CIPJ@ 000000014002e5b8     pjmedia-x86_64-x64-vc14-release:errno.obj
 0002:000025f0       ??_C@_0CJ@ECIKMCPH@Invalid?5DTMF?5digit?5?$CIPJMEDIA_RTP_@ 000000014002e5f0     pjmedia-x86_64-x64-vc14-release:errno.obj
 0002:00002620       ??_C@_0DN@EHCPFJJN@Remote?5does?5not?5support?5RFC?52833@ 000000014002e620     pjmedia-x86_64-x64-vc14-release:errno.obj
 0002:00002660       ??_C@_0BN@LMCOIKH@Bad?5format?5?$CIPJMEDIA_EBADFMT?$CJ?$AA@ 000000014002e660     pjmedia-x86_64-x64-vc14-release:errno.obj
 0002:00002680       ??_C@_0DB@GBKLBGPK@Unsupported?5media?5type?5?$CIPJMEDIA_@ 000000014002e680     pjmedia-x86_64-x64-vc14-release:errno.obj
 0002:000026b8       ??_C@_0CI@KDAMKHEL@Invalid?5RTP?5packet?5?$CIPJMEDIA_RTP_@ 000000014002e6b8     pjmedia-x86_64-x64-vc14-release:errno.obj
 0002:000026e0       ??_C@_0DL@KLDJIJLI@Invalid?5RTP?5packing?5?$CIinternal?5er@ 000000014002e6e0     pjmedia-x86_64-x64-vc14-release:errno.obj
 0002:00002720       ??_C@_0CJ@NGKNCMFA@Invalid?5RTP?5version?5?$CIPJMEDIA_RTP@ 000000014002e720     pjmedia-x86_64-x64-vc14-release:errno.obj
 0002:00002750       ??_C@_0DC@PFPAEINL@RTP?5packet?5SSRC?5id?5mismatch?5?$CIPJM@ 000000014002e750     pjmedia-x86_64-x64-vc14-release:errno.obj
 0002:00002788       ??_C@_0DF@KDOADJLK@RTP?5packet?5payload?5type?5mismatch@ 000000014002e788     pjmedia-x86_64-x64-vc14-release:errno.obj
 0002:000027c0       ??_C@_0CP@OBFABIAL@Invalid?5RTP?5packet?5length?5?$CIPJMED@ 000000014002e7c0     pjmedia-x86_64-x64-vc14-release:errno.obj
 0002:000027f0       ??_C@_0DB@HLHLKEBJ@RTP?5session?5restarted?5?$CIPJMEDIA_R@ 000000014002e7f0     pjmedia-x86_64-x64-vc14-release:errno.obj
 0002:00002828       ??_C@_0DG@OPPFJBGL@RTP?5session?5in?5probation?5?$CIPJMEDI@ 000000014002e828     pjmedia-x86_64-x64-vc14-release:errno.obj
 0002:00002860       ??_C@_0DI@LFLLIJCB@Bad?5sequence?5number?5in?5RTP?5packe@ 000000014002e860     pjmedia-x86_64-x64-vc14-release:errno.obj
 0002:000028a0       ??_C@_0EE@PHAAOPAG@RTP?5media?5port?5destination?5is?5no@ 000000014002e8a0     pjmedia-x86_64-x64-vc14-release:errno.obj
 0002:000028e8       ??_C@_0CO@BFKJOFNE@RTP?5is?5not?5configured?5?$CIPJMEDIA_R@ 000000014002e8e8     pjmedia-x86_64-x64-vc14-release:errno.obj
 0002:00002918       ??_C@_0DI@MEKDIPIO@Media?5ports?5are?5not?5compatible?5?$CI@ 000000014002e918     pjmedia-x86_64-x64-vc14-release:errno.obj
 0002:00002950       ??_C@_0EA@EJPEOGMK@Media?5ports?5have?5incompatible?5cl@ 000000014002e950     pjmedia-x86_64-x64-vc14-release:errno.obj
 0002:00002990       ??_C@_0EL@KOIIKBFP@Media?5ports?5have?5incompatible?5sa@ 000000014002e990     pjmedia-x86_64-x64-vc14-release:errno.obj
 0002:000029e0       ??_C@_0DL@FLCJCEPI@Media?5ports?5have?5incompatible?5me@ 000000014002e9e0     pjmedia-x86_64-x64-vc14-release:errno.obj
 0002:00002a20       ??_C@_0EA@CDICINEI@Media?5ports?5have?5incompatible?5bi@ 000000014002ea20     pjmedia-x86_64-x64-vc14-release:errno.obj
 0002:00002a60       ??_C@_0EB@DHIDGGBD@Media?5ports?5have?5incompatible?5by@ 000000014002ea60     pjmedia-x86_64-x64-vc14-release:errno.obj
 0002:00002ab0       ??_C@_0EG@FBPNENMF@Media?5ports?5have?5incompatible?5nu@ 000000014002eab0     pjmedia-x86_64-x64-vc14-release:errno.obj
 0002:00002af8       ??_C@_0CO@CKCFJDML@Not?5a?5valid?5WAVE?5file?5?$CIPJMEDIA_E@ 000000014002eaf8     pjmedia-x86_64-x64-vc14-release:errno.obj
 0002:00002b28       ??_C@_0DD@FKNCKLNB@Unsupported?5WAVE?5file?5format?5?$CIPJ@ 000000014002eb28     pjmedia-x86_64-x64-vc14-release:errno.obj
 0002:00002b60       ??_C@_0CM@HKHLDPDN@WAVE?5file?5too?5short?5?$CIPJMEDIA_EWA@ 000000014002eb60     pjmedia-x86_64-x64-vc14-release:errno.obj
 0002:00002b90       ??_C@_0DP@HHAKLPGE@Sound?5frame?5too?5large?5for?5file?5b@ 000000014002eb90     pjmedia-x86_64-x64-vc14-release:errno.obj
 0002:00002bd0       ??_C@_0CK@EMOCNCPF@Unsupported?5AVI?5file?5?$CIPJMEDIA_EA@ 000000014002ebd0     pjmedia-x86_64-x64-vc14-release:errno.obj
 0002:00002c00       ??_C@_0DF@PKIKHNPA@No?5suitable?5sound?5capture?5device@ 000000014002ec00     pjmedia-x86_64-x64-vc14-release:errno.obj
 0002:00002c38       ??_C@_0DH@NACBPKOD@No?5suitable?5sound?5playback?5devic@ 000000014002ec38     pjmedia-x86_64-x64-vc14-release:errno.obj
 0002:00002c70       ??_C@_0CO@FCJGKBG@Invalid?5sound?5device?5ID?5?$CIPJMEDIA@ 000000014002ec70     pjmedia-x86_64-x64-vc14-release:errno.obj
 0002:00002ca0       ??_C@_0EB@GAMOPGD@Invalid?5sample?5format?5for?5sound?5@ 000000014002eca0     pjmedia-x86_64-x64-vc14-release:errno.obj
 0002:00002cf0       ??_C@_0FA@HAKEALMK@SRTP?5crypto?9suite?5name?5not?5match@ 000000014002ecf0     pjmedia-x86_64-x64-vc14-release:errno.obj
 0002:00002d40       ??_C@_0EF@DCMAHBDI@Invalid?5SRTP?5key?5length?5for?5spec@ 000000014002ed40     pjmedia-x86_64-x64-vc14-release:errno.obj
 0002:00002d88       ??_C@_0DL@BINEGGLM@Unsupported?5SRTP?5crypto?9suite?5?$CIP@ 000000014002ed88     pjmedia-x86_64-x64-vc14-release:errno.obj
 0002:00002dc8       ??_C@_0DP@DNDEFJI@SRTP?5SDP?5contains?5ambigue?5answer@ 000000014002edc8     pjmedia-x86_64-x64-vc14-release:errno.obj
 0002:00002e08       ??_C@_0DL@PPDCJAFI@Duplicated?5SRTP?5crypto?5tag?5?$CIPJME@ 000000014002ee08     pjmedia-x86_64-x64-vc14-release:errno.obj
 0002:00002e48       ??_C@_0DK@EIEPDNB@Invalid?5SRTP?5crypto?5attribute?5?$CIP@ 000000014002ee48     pjmedia-x86_64-x64-vc14-release:errno.obj
 0002:00002e88       ??_C@_0DH@JABOECDK@Invalid?5SRTP?5crypto?5tag?5?$CIPJMEDIA@ 000000014002ee88     pjmedia-x86_64-x64-vc14-release:errno.obj
 0002:00002ec0       ??_C@_0EE@HKDIFKLN@Invalid?5SDP?5media?5transport?5for?5@ 000000014002eec0     pjmedia-x86_64-x64-vc14-release:errno.obj
 0002:00002f08       ??_C@_0DM@OPHJDJCK@SRTP?5crypto?5attribute?5required?5?$CI@ 000000014002ef08     pjmedia-x86_64-x64-vc14-release:errno.obj
 0002:00002f50       ??_C@_0EO@MOMMHEEA@Secure?5transport?5required?5in?5SDP@ 000000014002ef50     pjmedia-x86_64-x64-vc14-release:errno.obj
 0002:00002fa0       ??_C@_0EK@HIIDIBOJ@SRTP?5parameters?5negotiation?5stil@ 000000014002efa0     pjmedia-x86_64-x64-vc14-release:errno.obj
 0002:00002ff0       ??_C@_0EM@HBHPHIDH@No?5matching?5SRTP?5crypto?9suite?5af@ 000000014002eff0     pjmedia-x86_64-x64-vc14-release:errno.obj
 0002:00003040       ??_C@_0EN@OKMMPCBN@No?5certificate?5supplied?5by?5peer?5@ 000000014002f040     pjmedia-x86_64-x64-vc14-release:errno.obj
 0002:00003090       ??_C@_0FM@DHHDFBCG@Fingerprint?5from?5signalling?5not?5@ 000000014002f090     pjmedia-x86_64-x64-vc14-release:errno.obj
 0002:000030f0       ??_C@_0DE@BIABFNHJ@Fingerprint?5not?5found?5?$CIPJMEDIA_S@ 000000014002f0f0     pjmedia-x86_64-x64-vc14-release:errno.obj
 0002:00003130       ??_C@_0EG@NFPDPACI@No?5valid?5SRTP?5protection?5profile@ 000000014002f130     pjmedia-x86_64-x64-vc14-release:errno.obj
 0002:00003178       ??_C@_0BJ@JGEGOKIK@Unknown?5pjmedia?5error?5?$CFd?$AA@ 000000014002f178     pjmedia-x86_64-x64-vc14-release:errno.obj
 0002:00003198       ??_C@_0BA@LPBIANE@Echo?5suppressor?$AA@ 000000014002f198     pjmedia-x86_64-x64-vc14-release:echo_common.obj
 0002:000031a8       ??_C@_09FHGNGIJH@Speex?5AEC?$AA@ 000000014002f1a8     pjmedia-x86_64-x64-vc14-release:echo_common.obj
 0002:000031b4       ??_C@_04FACFFFMP@ec?$CFp?$AA@ 000000014002f1b4     pjmedia-x86_64-x64-vc14-release:echo_common.obj
 0002:000031c0       ??_C@_0M@KMDBLPFK@Creating?5?$CFs?$AA@ 000000014002f1c0     pjmedia-x86_64-x64-vc14-release:echo_common.obj
 0002:000031d0       ??_C@_0FO@FCNNBEFH@?$CFs?5created?0?5clock_rate?$DN?$CFd?0?5chann@ 000000014002f1d0     pjmedia-x86_64-x64-vc14-release:echo_common.obj
 0002:00003230       ??_C@_0BM@HOHFIKPJ@Latency?5bufferring?5complete?$AA@ 000000014002f230     pjmedia-x86_64-x64-vc14-release:echo_common.obj
 0002:00003250       ??_C@_0O@DBBHABPM@Prefetching?4?4?$AA@ 000000014002f250     pjmedia-x86_64-x64-vc14-release:echo_common.obj
 0002:00003260       ??_C@_0DG@GACEANMB@No?5frame?5from?5delay?5buffer?5?$CIthis@ 000000014002f260     pjmedia-x86_64-x64-vc14-release:echo_common.obj
 0002:000032a0       pjmedia_linear2ulaw_tab    000000014002f2a0     pjmedia-x86_64-x64-vc14-release:alaw_ulaw_table.obj
 0002:000072a0       pjmedia_linear2alaw_tab    00000001400332a0     pjmedia-x86_64-x64-vc14-release:alaw_ulaw_table.obj
 0002:0000b2a0       pjmedia_ulaw2linear_tab    00000001400372a0     pjmedia-x86_64-x64-vc14-release:alaw_ulaw_table.obj
 0002:0000b4a0       pjmedia_alaw2linear_tab    00000001400374a0     pjmedia-x86_64-x64-vc14-release:alaw_ulaw_table.obj
 0002:0000b6a0       ??_C@_0CP@OAIPELPD@Failed?5to?5unprotect?5SRTCP?0?5pkt?5s@ 00000001400376a0     pjmedia-x86_64-x64-vc14-release:transport_srtp.obj
 0002:0000b6d0       ??_C@_0BL@LHHEAKNJ@SRTP?5uses?5keying?5method?5?$CFs?$AA@ 00000001400376d0     pjmedia-x86_64-x64-vc14-release:transport_srtp.obj
 0002:0000b6f0       ??_C@_0CN@IMPBKLBH@SRTP?5failed?5stop?5underlying?5medi@ 00000001400376f0     pjmedia-x86_64-x64-vc14-release:transport_srtp.obj
 0002:0000b720       ??_C@_0EB@EJGHAKCH@Warning?3?5simple?5random?5generator@ 0000000140037720     pjmedia-x86_64-x64-vc14-release:transport_srtp.obj
 0002:0000b768       ??_C@_0BB@HGEADDBB@transport_srtp?4c?$AA@ 0000000140037768     pjmedia-x86_64-x64-vc14-release:transport_srtp.obj
 0002:0000b780       ??_C@_0CE@BAIPFCEP@Failed?5encoding?5plain?5key?5to?5bas@ 0000000140037780     pjmedia-x86_64-x64-vc14-release:transport_srtp.obj
 0002:0000b7a8       ??_C@_0BA@OGAKIHAO@?$CFd?5?$CFs?5inline?3?$CFs?$AA@ 00000001400377a8     pjmedia-x86_64-x64-vc14-release:transport_srtp.obj
 0002:0000b7b8       ??_C@_0BP@IBJNGPHO@Attribute?5crypto?5expecting?5tag?$AA@ 00000001400377b8     pjmedia-x86_64-x64-vc14-release:transport_srtp.obj
 0002:0000b7d8       ??_C@_0CI@IIDGBGP@Attribute?5crypto?5expecting?5crypt@ 00000001400377d8     pjmedia-x86_64-x64-vc14-release:transport_srtp.obj
 0002:0000b800       ??_C@_02LMMGGCAJ@?3?5?$AA@ 0000000140037800     pjmedia-x86_64-x64-vc14-release:transport_srtp.obj
 0002:0000b808       ??_C@_0CG@JCJFEHFF@Attribute?5crypto?5expecting?5key?5m@ 0000000140037808     pjmedia-x86_64-x64-vc14-release:transport_srtp.obj
 0002:0000b830       ??_C@_06OGMBMJA@inline?$AA@ 0000000140037830     pjmedia-x86_64-x64-vc14-release:transport_srtp.obj
 0002:0000b838       ??_C@_0DC@FIGAPMKM@Attribute?5crypto?5key?5method?5?8?$CF?4?$CK@ 0000000140037838     pjmedia-x86_64-x64-vc14-release:transport_srtp.obj
 0002:0000b86c       ??_C@_02MINBJDHL@?$HM?5?$AA@ 000000014003786c     pjmedia-x86_64-x64-vc14-release:transport_srtp.obj
 0002:0000b870       ??_C@_0BP@FKKPLPLE@Attribute?5crypto?5expecting?5key?$AA@ 0000000140037870     pjmedia-x86_64-x64-vc14-release:transport_srtp.obj
 0002:0000b890       ??_C@_0N@FJKIJMGM@Key?5too?5long?$AA@ 0000000140037890     pjmedia-x86_64-x64-vc14-release:transport_srtp.obj
 0002:0000b8a0       ??_C@_0CH@PPONEAL@Failed?5decoding?5crypto?5key?5from?5@ 00000001400378a0     pjmedia-x86_64-x64-vc14-release:transport_srtp.obj
 0002:0000b8c8       ??_C@_0BA@CMIKGIPP@SRTP?5not?5active?$AA@ 00000001400378c8     pjmedia-x86_64-x64-vc14-release:transport_srtp.obj
 0002:0000b8d8       ??_C@_04LFNPDDCP@SDES?$AA@ 00000001400378d8     pjmedia-x86_64-x64-vc14-release:transport_srtp.obj
 0002:0000b8e0       ??_C@_09LMBOLLED@DTLS?9SRTP?$AA@ 00000001400378e0     pjmedia-x86_64-x64-vc14-release:transport_srtp.obj
 0002:0000b8f0       ??_C@_0CD@NFEKFFAL@SRTP?5started?0?5keying?$DN?$CFs?0?5crypto?$DN@ 00000001400378f0     pjmedia-x86_64-x64-vc14-release:transport_srtp.obj
 0002:0000b948       ??_C@_08MPIAKENM@RTP?1SAVP?$AA@ 0000000140037948     pjmedia-x86_64-x64-vc14-release:transport_srtp.obj
 0002:0000b954       ??_C@_06LAEHEPPF@crypto?$AA@ 0000000140037954     pjmedia-x86_64-x64-vc14-release:transport_srtp.obj
 0002:0000b95c       ??_C@_04HIBGFPH@NULL?$AA@  000000014003795c     pjmedia-x86_64-x64-vc14-release:transport_srtp.obj
 0002:0000b968       ??_C@_0BI@FCCBBIDC@AES_256_CM_HMAC_SHA1_80?$AA@ 0000000140037968     pjmedia-x86_64-x64-vc14-release:transport_srtp.obj
 0002:0000b980       ??_C@_0BI@GMECJFFB@AES_256_CM_HMAC_SHA1_32?$AA@ 0000000140037980     pjmedia-x86_64-x64-vc14-release:transport_srtp.obj
 0002:0000b998       ??_C@_0BI@OADHPNHF@AES_CM_128_HMAC_SHA1_80?$AA@ 0000000140037998     pjmedia-x86_64-x64-vc14-release:transport_srtp.obj
 0002:0000b9b0       ??_C@_0BI@NOFEHABG@AES_CM_128_HMAC_SHA1_32?$AA@ 00000001400379b0     pjmedia-x86_64-x64-vc14-release:transport_srtp.obj
 0002:0000b9c8       ??_C@_0BP@CAGNCNCA@Failed?5to?5restart?5SRTP?0?5err?$DN?$CFs?$AA@ 00000001400379c8     pjmedia-x86_64-x64-vc14-release:transport_srtp.obj
 0002:0000b9e8       ??_C@_0CO@EDHKLEPP@Failed?5to?5unprotect?5SRTP?0?5pkt?5si@ 00000001400379e8     pjmedia-x86_64-x64-vc14-release:transport_srtp.obj
 0002:0000ba18       ??_C@_02MFDMBIJM@ok?$AA@   0000000140037a18     pjmedia-x86_64-x64-vc14-release:transport_srtp.obj
 0002:0000ba20       ??_C@_0BE@KFOIPNMM@unspecified?5failure?$AA@ 0000000140037a20     pjmedia-x86_64-x64-vc14-release:transport_srtp.obj
 0002:0000ba38       ??_C@_0BG@LENPEKHL@unsupported?5parameter?$AA@ 0000000140037a38     pjmedia-x86_64-x64-vc14-release:transport_srtp.obj
 0002:0000ba50       ??_C@_0BJ@DGLNBGGB@couldn?8t?5allocate?5memory?$AA@ 0000000140037a50     pjmedia-x86_64-x64-vc14-release:transport_srtp.obj
 0002:0000ba70       ??_C@_0BN@LJIJFBAJ@couldn?8t?5deallocate?5properly?$AA@ 0000000140037a70     pjmedia-x86_64-x64-vc14-release:transport_srtp.obj
 0002:0000ba90       ??_C@_0BE@KBPICNEA@couldn?8t?5initialize?$AA@ 0000000140037a90     pjmedia-x86_64-x64-vc14-release:transport_srtp.obj
 0002:0000baa8       ??_C@_0CI@FEPPFOBO@can?8t?5process?5as?5much?5data?5as?5re@ 0000000140037aa8     pjmedia-x86_64-x64-vc14-release:transport_srtp.obj
 0002:0000bad0       ??_C@_0BH@DJJHFLDI@authentication?5failure?$AA@ 0000000140037ad0     pjmedia-x86_64-x64-vc14-release:transport_srtp.obj
 0002:0000bae8       ??_C@_0P@MHOCHBCE@cipher?5failure?$AA@ 0000000140037ae8     pjmedia-x86_64-x64-vc14-release:transport_srtp.obj
 0002:0000baf8       ??_C@_0CA@LIFPFHJ@replay?5check?5failed?5?$CIbad?5index?$CJ?$AA@ 0000000140037af8     pjmedia-x86_64-x64-vc14-release:transport_srtp.obj
 0002:0000bb18       ??_C@_0CE@GCMJOMFK@replay?5check?5failed?5?$CIindex?5too?5o@ 0000000140037b18     pjmedia-x86_64-x64-vc14-release:transport_srtp.obj
 0002:0000bb40       ??_C@_0BO@KLFALCF@algorithm?5failed?5test?5routine?$AA@ 0000000140037b40     pjmedia-x86_64-x64-vc14-release:transport_srtp.obj
 0002:0000bb60       ??_C@_0BG@JKFIFBMN@unsupported?5operation?$AA@ 0000000140037b60     pjmedia-x86_64-x64-vc14-release:transport_srtp.obj
 0002:0000bb78       ??_C@_0BN@PDJKDLOF@no?5appropriate?5context?5found?$AA@ 0000000140037b78     pjmedia-x86_64-x64-vc14-release:transport_srtp.obj
 0002:0000bb98       ??_C@_0CF@DOHHPHGD@unable?5to?5perform?5desired?5valida@ 0000000140037b98     pjmedia-x86_64-x64-vc14-release:transport_srtp.obj
 0002:0000bbc0       ??_C@_0BH@NKHPNDDN@can?8t?5use?5key?5any?5more?$AA@ 0000000140037bc0     pjmedia-x86_64-x64-vc14-release:transport_srtp.obj
 0002:0000bbd8       ??_C@_0BH@CDHGOGDE@error?5in?5use?5of?5socket?$AA@ 0000000140037bd8     pjmedia-x86_64-x64-vc14-release:transport_srtp.obj
 0002:0000bbf0       ??_C@_0BL@DJFHEKEC@error?5in?5use?5POSIX?5signals?$AA@ 0000000140037bf0     pjmedia-x86_64-x64-vc14-release:transport_srtp.obj
 0002:0000bc10       ??_C@_0BD@HFMCMINA@nonce?5check?5failed?$AA@ 0000000140037c10     pjmedia-x86_64-x64-vc14-release:transport_srtp.obj
 0002:0000bc28       ??_C@_0BD@FCFDDPHP@couldn?8t?5read?5data?$AA@ 0000000140037c28     pjmedia-x86_64-x64-vc14-release:transport_srtp.obj
 0002:0000bc40       ??_C@_0BE@PIHIJLHG@couldn?8t?5write?5data?$AA@ 0000000140037c40     pjmedia-x86_64-x64-vc14-release:transport_srtp.obj
 0002:0000bc58       ??_C@_0BD@PIIFGNCP@error?5pasring?5data?$AA@ 0000000140037c58     pjmedia-x86_64-x64-vc14-release:transport_srtp.obj
 0002:0000bc70       ??_C@_0BE@FFKLLGEP@error?5encoding?5data?$AA@ 0000000140037c70     pjmedia-x86_64-x64-vc14-release:transport_srtp.obj
 0002:0000bc88       ??_C@_0BN@OEPMNKMP@error?5while?5using?5semaphores?$AA@ 0000000140037c88     pjmedia-x86_64-x64-vc14-release:transport_srtp.obj
 0002:0000bca8       ??_C@_0BI@JNCDFEKK@error?5while?5using?5pfkey?$AA@ 0000000140037ca8     pjmedia-x86_64-x64-vc14-release:transport_srtp.obj
 0002:0000bcc0       ??_C@_0BJ@BOBCJFAN@Unknown?5libsrtp?5error?5?$CFd?$AA@ 0000000140037cc0     pjmedia-x86_64-x64-vc14-release:transport_srtp.obj
 0002:0000bce0       ??_C@_0BB@JENPEJDI@?9?9key?5too?5long?9?9?$AA@ 0000000140037ce0     pjmedia-x86_64-x64-vc14-release:transport_srtp.obj
 0002:0000bcf8       ??_C@_0O@LPFLKIMI@TX?3?5?$CFs?5key?$DN?$CFs?$AA@ 0000000140037cf8     pjmedia-x86_64-x64-vc14-release:transport_srtp.obj
 0002:0000bd08       ??_C@_05EPPOHEBK@?5auth?$AA@ 0000000140037d08     pjmedia-x86_64-x64-vc14-release:transport_srtp.obj
 0002:0000bd10       ??_C@_04PIHNPOJJ@?5enc?$AA@ 0000000140037d10     pjmedia-x86_64-x64-vc14-release:transport_srtp.obj
 0002:0000bd18       ??_C@_0BA@BONGIHBG@TX?3?5disable?$CFs?$CFs?$AA@ 0000000140037d18     pjmedia-x86_64-x64-vc14-release:transport_srtp.obj
 0002:0000bd28       ??_C@_0O@EHJJODHO@RX?3?5?$CFs?5key?$DN?$CFs?$AA@ 0000000140037d28     pjmedia-x86_64-x64-vc14-release:transport_srtp.obj
 0002:0000bd38       ??_C@_0BA@ENEHOOPC@RX?3?5disable?$CFs?$CFs?$AA@ 0000000140037d38     pjmedia-x86_64-x64-vc14-release:transport_srtp.obj
 0002:0000bd48       ??_C@_0CG@KDAPJFOB@Failed?5to?5dealloc?5RX?5SRTP?5contex@ 0000000140037d48     pjmedia-x86_64-x64-vc14-release:transport_srtp.obj
 0002:0000bd70       ??_C@_0CG@CHCMAIDE@Failed?5to?5dealloc?5TX?5SRTP?5contex@ 0000000140037d70     pjmedia-x86_64-x64-vc14-release:transport_srtp.obj
 0002:0000bd98       ??_C@_0CK@GILFEPIK@Echo?5suppressor?5soft?5reset?4?5Re?9l@ 0000000140037d98     pjmedia-x86_64-x64-vc14-release:echo_suppress.obj
 0002:0000bdc8       ??_C@_0BA@GIJBCBML@echo_suppress?4c?$AA@ 0000000140037dc8     pjmedia-x86_64-x64-vc14-release:echo_suppress.obj
 0002:0000bde0       ??_C@_0FL@JMGHEEIK@Echo?5suppressor?5updated?5at?5t?$DN?$CF03@ 0000000140037de0     pjmedia-x86_64-x64-vc14-release:echo_suppress.obj
 0002:0000be40       ??_C@_0FK@NODMKGEL@Echo?5suppressor?5learning?5done?5at@ 0000000140037e40     pjmedia-x86_64-x64-vc14-release:echo_suppress.obj
 0002:0000bea0       ??_C@_0CC@OBLDMFND@Echo?5suppressor?5residue?5?$DN?5?$CFd?4?$CF03@ 0000000140037ea0     pjmedia-x86_64-x64-vc14-release:echo_suppress.obj
 0002:0000bec8       ??_C@_0M@NHLIMPJD@in?5progress?$AA@ 0000000140037ec8     pjmedia-x86_64-x64-vc14-release:echo_suppress.obj
 0002:0000bed4       ??_C@_04GMOJEHPC@done?$AA@ 0000000140037ed4     pjmedia-x86_64-x64-vc14-release:echo_suppress.obj
 0002:0000bee0       ??_C@_0GC@GDBJBODO@Echo?5suppressor?5learning?5?$CFs?5at?5t@ 0000000140037ee0     pjmedia-x86_64-x64-vc14-release:echo_suppress.obj
 0002:0000bf44       __real@3f000000            0000000140037f44     pjmedia-x86_64-x64-vc14-release:echo_suppress.obj
 0002:0000bf48       __real@3f800000            0000000140037f48     pjmedia-x86_64-x64-vc14-release:echo_suppress.obj
 0002:0000bf4c       __real@40200000            0000000140037f4c     pjmedia-x86_64-x64-vc14-release:echo_suppress.obj
 0002:0000bf50       __real@40400000            0000000140037f50     pjmedia-x86_64-x64-vc14-release:echo_suppress.obj
 0002:0000bf54       __real@41980000            0000000140037f54     pjmedia-x86_64-x64-vc14-release:echo_suppress.obj
 0002:0000bf58       __real@41a00000            0000000140037f58     pjmedia-x86_64-x64-vc14-release:echo_suppress.obj
 0002:0000bf5c       __real@447a0000            0000000140037f5c     pjmedia-x86_64-x64-vc14-release:echo_suppress.obj
 0002:0000bf60       __xmm@80000000800000008000000080000000 0000000140037f60     pjmedia-x86_64-x64-vc14-release:echo_suppress.obj
 0002:0000bf70       ??_C@_08LLMLEOE@delaybuf?$AA@ 0000000140037f70     pjmedia-x86_64-x64-vc14-release:delaybuf.obj
 0002:0000bf80       ??_C@_0BP@CKANIKAH@Using?5delay?5buffer?5with?5WSOLA?4?$AA@ 0000000140037f80     pjmedia-x86_64-x64-vc14-release:delaybuf.obj
 0002:0000bfa0       ??_C@_0CA@BKBNPCON@Using?5simple?5FIFO?5delay?5buffer?4?$AA@ 0000000140037fa0     pjmedia-x86_64-x64-vc14-release:delaybuf.obj
 0002:0000bfc0       ??_C@_0BP@JJBHJNOO@?$CFd?5samples?5reduced?0?5buf_cnt?$DN?$CFd?$AA@ 0000000140037fc0     pjmedia-x86_64-x64-vc14-release:delaybuf.obj
 0002:0000bfe0       ??_C@_0DA@FPCBOFHC@Buffer?5size?5adjusted?5from?5?$CFd?5to?5@ 0000000140037fe0     pjmedia-x86_64-x64-vc14-release:delaybuf.obj
 0002:0000c010       ??_C@_0CD@DJOCKALK@Shrinking?5failed?5or?5insufficient@ 0000000140038010     pjmedia-x86_64-x64-vc14-release:delaybuf.obj
 0002:0000c038       ??_C@_0CJ@KJHKGIAO@?$CFsDropping?5?$CFd?5eldest?5samples?0?5bu@ 0000000140038038     pjmedia-x86_64-x64-vc14-release:delaybuf.obj
 0002:0000c068       ??_C@_0CN@FEOJBHHF@Underflow?0?5buf_cnt?$DN?$CFd?0?5will?5gene@ 0000000140038068     pjmedia-x86_64-x64-vc14-release:delaybuf.obj
 0002:0000c098       ??_C@_0BH@KCPKLNAI@Error?5generating?5frame?$AA@ 0000000140038098     pjmedia-x86_64-x64-vc14-release:delaybuf.obj
 0002:0000c0b0       __real@3fe0000000000000    00000001400380b0     pjmedia-x86_64-x64-vc14-release:wsola.obj
 0002:0000c0b8       __real@3ff0000000000000    00000001400380b8     pjmedia-x86_64-x64-vc14-release:wsola.obj
 0002:0000c0c0       __real@3ff8000000000000    00000001400380c0     pjmedia-x86_64-x64-vc14-release:wsola.obj
 0002:0000c0c8       __real@401921fb54442d18    00000001400380c8     pjmedia-x86_64-x64-vc14-release:wsola.obj
 0002:0000c0d0       __real@bf800000            00000001400380d0     pjmedia-x86_64-x64-vc14-release:wsola.obj
 0002:0000c0e0       __xmm@00000001000000010000000100000001 00000001400380e0     pjmedia-x86_64-x64-vc14-release:wsola.obj
 0002:0000c0f0       __xmm@00000003000000020000000100000000 00000001400380f0     pjmedia-x86_64-x64-vc14-release:wsola.obj
 0002:0000c100       __xmm@3fe00000000000003fe0000000000000 0000000140038100     pjmedia-x86_64-x64-vc14-release:wsola.obj
 0002:0000c110       __xmm@401921fb54442d18401921fb54442d18 0000000140038110     pjmedia-x86_64-x64-vc14-release:wsola.obj
 0002:0000c120       __xmm@41f000000000000041f0000000000000 0000000140038120     pjmedia-x86_64-x64-vc14-release:wsola.obj
 0002:0000c170       ??_C@_04IFCNACLH@pj?$CFp?$AA@ 0000000140038170     pjlib-x86_64-x64-vc14-release:os_core_win32.obj
 0002:0000c178       ??_C@_0BA@NGJFHJA@PJLIB?1No?5memory?$AA@ 0000000140038178     pjlib-x86_64-x64-vc14-release:os_core_win32.obj
 0002:0000c188       ??_C@_0BP@NGEKBPIB@pjlib?5?$CFs?5for?5win32?5initialized?$AA@ 0000000140038188     pjlib-x86_64-x64-vc14-release:os_core_win32.obj
 0002:0000c1a8       ??_C@_0BA@FNCACAIG@os_core_win32?4c?$AA@ 00000001400381a8     pjlib-x86_64-x64-vc14-release:os_core_win32.obj
 0002:0000c1b8       ??_C@_0CI@EAKIIBBA@Main?5thread?5stack?5max?5usage?$DN?$CFu?5b@ 00000001400381b8     pjlib-x86_64-x64-vc14-release:os_core_win32.obj
 0002:0000c1e0       ??_C@_0BK@BHGJHPMG@?4?4?2src?2pj?2os_core_win32?4c?$AA@ 00000001400381e0     pjlib-x86_64-x64-vc14-release:os_core_win32.obj
 0002:0000c1fc       ??_C@_05KHEDLION@thr?$CFp?$AA@ 00000001400381fc     pjlib-x86_64-x64-vc14-release:os_core_win32.obj
 0002:0000c208       ??_C@_0CD@GPHECFNA@Thread?5stack?5max?5usage?$DN?$CFu?5by?5?$CFs?3@ 0000000140038208     pjlib-x86_64-x64-vc14-release:os_core_win32.obj
 0002:0000c22c       ??_C@_05EJDHHBFJ@mtx?$CFp?$AA@ 000000014003822c     pjlib-x86_64-x64-vc14-release:os_core_win32.obj
 0002:0000c238       ??_C@_0BB@PKFOFEEC@?4?4?2src?2pj?2pool?4c?$AA@ 0000000140038238     pjlib-x86_64-x64-vc14-release:pool.obj
 0002:0000c250       ??_C@_0BJ@MJKAJPML@?4?4?2src?2pj?2pool_caching?4c?$AA@ 0000000140038250     pjlib-x86_64-x64-vc14-release:pool_caching.obj
 0002:0000c270       ??_C@_0M@IGFPEOLJ@cachingpool?$AA@ 0000000140038270     pjlib-x86_64-x64-vc14-release:pool_caching.obj
 0002:0000c280       ??_C@_0DD@ECGDPCBA@Pool?5is?5not?5released?5by?5applicat@ 0000000140038280     pjlib-x86_64-x64-vc14-release:pool_caching.obj
 0002:0000c2b8       ??_C@_0BH@BBPHJKOA@?5Dumping?5caching?5pool?3?$AA@ 00000001400382b8     pjlib-x86_64-x64-vc14-release:pool_caching.obj
 0002:0000c2d0       ??_C@_08COPEICHG@cachpool?$AA@ 00000001400382d0     pjlib-x86_64-x64-vc14-release:pool_caching.obj
 0002:0000c2e0       ??_C@_0CN@DOKPIIOH@?5?5?5Capacity?$DN?$CFu?0?5max_capacity?$DN?$CFu?0@ 00000001400382e0     pjlib-x86_64-x64-vc14-release:pool_caching.obj
 0002:0000c310       ??_C@_0BM@IDLDGCC@?5?5Dumping?5all?5active?5pools?3?$AA@ 0000000140038310     pjlib-x86_64-x64-vc14-release:pool_caching.obj
 0002:0000c330       ??_C@_0CA@MMLIKIEG@?5?5?5?$CF16s?3?5?$CF8d?5of?5?$CF8d?5?$CI?$CFd?$CF?$CF?$CJ?5used?$AA@ 0000000140038330     pjlib-x86_64-x64-vc14-release:pool_caching.obj
 0002:0000c350       ??_C@_0CB@GKBJPDKG@?5?5Total?5?$CF9d?5of?5?$CF9d?5?$CI?$CFd?5?$CF?$CF?$CJ?5used?$CB@ 0000000140038350     pjlib-x86_64-x64-vc14-release:pool_caching.obj
 0002:0000c378       ??_C@_0CH@OGOOBJBE@IPv6?5is?5not?5supported?5?$CIPJ_EIPV6N@ 0000000140038378     pjlib-x86_64-x64-vc14-release:errno.obj
 0002:0000c3a0       ??_C@_0CK@DJAHHNOI@Unsupported?5address?5family?5?$CIPJ_E@ 00000001400383a0     pjlib-x86_64-x64-vc14-release:errno.obj
 0002:0000c3d0       ??_C@_0CD@PDGCJOJH@Object?5no?5longer?5exists?5?$CIPJ_EGON@ 00000001400383d0     pjlib-x86_64-x64-vc14-release:errno.obj
 0002:0000c3f8       ??_C@_0CI@LBHALONI@Socket?5is?5in?5bad?5state?5?$CIPJ_ESOCK@ 00000001400383f8     pjlib-x86_64-x64-vc14-release:errno.obj
 0002:0000c5a0       ??_C@_0BM@FLPPOGAG@Unknown?5Error?5?$CIPJ_EUNKNOWN?$CJ?$AA@ 00000001400385a0     pjlib-x86_64-x64-vc14-release:errno.obj
 0002:0000c5c0       ??_C@_0CA@DCLOOJGD@Pending?5operation?5?$CIPJ_EPENDING?$CJ?$AA@ 00000001400385c0     pjlib-x86_64-x64-vc14-release:errno.obj
 0002:0000c5e0       ??_C@_0CO@GABEOAFF@Too?5many?5connecting?5sockets?5?$CIPJ_@ 00000001400385e0     pjlib-x86_64-x64-vc14-release:errno.obj
 0002:0000c610       ??_C@_0CG@CBCJBJGD@Invalid?5value?5or?5argument?5?$CIPJ_EI@ 0000000140038610     pjlib-x86_64-x64-vc14-release:errno.obj
 0002:0000c638       ??_C@_0CA@GJABNEKD@Name?5too?5long?5?$CIPJ_ENAMETOOLONG?$CJ?$AA@ 0000000140038638     pjlib-x86_64-x64-vc14-release:errno.obj
 0002:0000c658       ??_C@_0BJ@JNKLPII@Not?5found?5?$CIPJ_ENOTFOUND?$CJ?$AA@ 0000000140038658     pjlib-x86_64-x64-vc14-release:errno.obj
 0002:0000c678       ??_C@_0BO@GOLCMJKK@Not?5enough?5memory?5?$CIPJ_ENOMEM?$CJ?$AA@ 0000000140038678     pjlib-x86_64-x64-vc14-release:errno.obj
 0002:0000c698       ??_C@_0BI@HHGDCAID@BUG?5DETECTED?$CB?5?$CIPJ_EBUG?$CJ?$AA@ 0000000140038698     pjlib-x86_64-x64-vc14-release:errno.obj
 0002:0000c6b0       ??_C@_0CD@JOGIDHPJ@Operation?5timed?5out?5?$CIPJ_ETIMEDOU@ 00000001400386b0     pjlib-x86_64-x64-vc14-release:errno.obj
 0002:0000c6d8       ??_C@_0DF@MIFNAIHL@Too?5many?5objects?5of?5the?5specifie@ 00000001400386d8     pjlib-x86_64-x64-vc14-release:errno.obj
 0002:0000c710       ??_C@_0BK@OMPILOH@Object?5is?5busy?5?$CIPJ_EBUSY?$CJ?$AA@ 0000000140038710     pjlib-x86_64-x64-vc14-release:errno.obj
 0002:0000c730       ??_C@_0CP@BAIBJOJE@Option?1operation?5is?5not?5supporte@ 0000000140038730     pjlib-x86_64-x64-vc14-release:errno.obj
 0002:0000c760       ??_C@_0CC@OEEEEEML@Invalid?5operation?5?$CIPJ_EINVALIDOP@ 0000000140038760     pjlib-x86_64-x64-vc14-release:errno.obj
 0002:0000c788       ??_C@_0CE@KDDMJLGF@Operation?5cancelled?5?$CIPJ_ECANCELL@ 0000000140038788     pjlib-x86_64-x64-vc14-release:errno.obj
 0002:0000c7b0       ??_C@_0CD@LODOFNLC@Object?5already?5exists?5?$CIPJ_EEXIST@ 00000001400387b0     pjlib-x86_64-x64-vc14-release:errno.obj
 0002:0000c7d8       ??_C@_0BG@GMBDFNLN@End?5of?5file?5?$CIPJ_EEOF?$CJ?$AA@ 00000001400387d8     pjlib-x86_64-x64-vc14-release:errno.obj
 0002:0000c7f0       ??_C@_0BN@PCCNBFLN@Size?5is?5too?5big?5?$CIPJ_ETOOBIG?$CJ?$AA@ 00000001400387f0     pjlib-x86_64-x64-vc14-release:errno.obj
 0002:0000c810       ??_C@_0DB@FDCHLEID@gethostbyname?$CI?$CJ?5has?5returned?5err@ 0000000140038810     pjlib-x86_64-x64-vc14-release:errno.obj
 0002:0000c848       ??_C@_0CB@MGGLJMNO@Size?5is?5too?5short?5?$CIPJ_ETOOSMALL?$CJ@ 0000000140038848     pjlib-x86_64-x64-vc14-release:errno.obj
 0002:0000c870       ??_C@_0BG@NBDJGAFI@Ignored?5?$CIPJ_EIGNORED?$CJ?$AA@ 0000000140038870     pjlib-x86_64-x64-vc14-release:errno.obj
 0002:0000c888       ??_C@_0BH@ONDLFCEA@Unknown?5pjlib?5error?5?$CFd?$AA@ 0000000140038888     pjlib-x86_64-x64-vc14-release:errno.obj
 0002:0000c8a0       ??_C@_07PBILKAFL@Success?$AA@ 00000001400388a0     pjlib-x86_64-x64-vc14-release:errno.obj
 0002:0000c8a8       ??_C@_0BB@BIKLJNJD@Unknown?5error?5?$CFd?$AA@ 00000001400388a8     pjlib-x86_64-x64-vc14-release:errno.obj
 0002:0000c8bc       ??_C@_05NAOIJFC@Error?$AA@ 00000001400388bc     pjlib-x86_64-x64-vc14-release:errno.obj
 0002:0000c8c4       ??_C@_06DJHOIPC@?$CFs?3?5?$CFs?$AA@ 00000001400388c4     pjlib-x86_64-x64-vc14-release:errno.obj
 0002:0000c8d0       ??_C@_0BP@JMMENEAD@?4?4?2src?2pj?2pool_policy_malloc?4c?$AA@ 00000001400388d0     pjlib-x86_64-x64-vc14-release:pool_policy_malloc.obj
 0002:0000c8f0       ??_C@_0BD@ELEDKDKB@?4?4?2src?2pj?2string?4c?$AA@ 00000001400388f0     pjlib-x86_64-x64-vc14-release:string.obj
 0002:0000c904       __real@41200000            0000000140038904     pjlib-x86_64-x64-vc14-release:string.obj
 0002:0000cc30       ??_C@_0CD@FNMHLHMI@Interrupted?5system?5call?5?$CIWSAEINT@ 0000000140038c30     pjlib-x86_64-x64-vc14-release:os_error_win32.obj
 0002:0000cc58       ??_C@_0BL@OKPDNKLH@Bad?5file?5number?5?$CIWSAEBADF?$CJ?$AA@ 0000000140038c58     pjlib-x86_64-x64-vc14-release:os_error_win32.obj
 0002:0000cc78       ??_C@_0BO@BMBEEPBP@Permission?5denied?5?$CIWSAEACCES?$CJ?$AA@ 0000000140038c78     pjlib-x86_64-x64-vc14-release:os_error_win32.obj
 0002:0000cc98       ??_C@_0BI@LAKHPJJ@Bad?5address?5?$CIWSAEFAULT?$CJ?$AA@ 0000000140038c98     pjlib-x86_64-x64-vc14-release:os_error_win32.obj
 0002:0000ccb0       ??_C@_0BN@FEIDINKH@Invalid?5argument?5?$CIWSAEINVAL?$CJ?$AA@ 0000000140038cb0     pjlib-x86_64-x64-vc14-release:os_error_win32.obj
 0002:0000ccd0       ??_C@_0CC@HMKKNDGL@Too?5many?5open?5sockets?5?$CIWSAEMFILE@ 0000000140038cd0     pjlib-x86_64-x64-vc14-release:os_error_win32.obj
 0002:0000ccf8       ??_C@_0CH@GCPPFMGM@Operation?5would?5block?5?$CIWSAEWOULD@ 0000000140038cf8     pjlib-x86_64-x64-vc14-release:os_error_win32.obj
 0002:0000cd20       ??_C@_0CL@DKGHEPCD@Operation?5now?5in?5progress?5?$CIWSAEI@ 0000000140038d20     pjlib-x86_64-x64-vc14-release:os_error_win32.obj
 0002:0000cd50       ??_C@_0CM@BEMCBKDH@Operation?5already?5in?5progress?5?$CIW@ 0000000140038d50     pjlib-x86_64-x64-vc14-release:os_error_win32.obj
 0002:0000cd80       ??_C@_0CN@PAFKDEBN@Socket?5operation?5on?5non?9socket?5?$CI@ 0000000140038d80     pjlib-x86_64-x64-vc14-release:os_error_win32.obj
 0002:0000cdb0       ??_C@_0CP@HCDICECK@Destination?5address?5required?5?$CIWS@ 0000000140038db0     pjlib-x86_64-x64-vc14-release:os_error_win32.obj
 0002:0000cde0       ??_C@_0BP@LNFPBFEK@Message?5too?5long?5?$CIWSAEMSGSIZE?$CJ?$AA@ 0000000140038de0     pjlib-x86_64-x64-vc14-release:os_error_win32.obj
 0002:0000ce00       ??_C@_0CP@MMIMIEMF@Protocol?5wrong?5type?5for?5socket?5?$CI@ 0000000140038e00     pjlib-x86_64-x64-vc14-release:os_error_win32.obj
 0002:0000ce30       ??_C@_0CF@HNFLHOHA@Bad?5protocol?5option?5?$CIWSAENOPROTO@ 0000000140038e30     pjlib-x86_64-x64-vc14-release:os_error_win32.obj
 0002:0000ce58       ??_C@_0CM@HPGHEHCE@Protocol?5not?5supported?5?$CIWSAEPROT@ 0000000140038e58     pjlib-x86_64-x64-vc14-release:os_error_win32.obj
 0002:0000ce88       ??_C@_0CP@JLBNHCOL@Socket?5type?5not?5supported?5?$CIWSAES@ 0000000140038e88     pjlib-x86_64-x64-vc14-release:os_error_win32.obj
 0002:0000ceb8       ??_C@_0DC@GJMFANID@Operation?5not?5supported?5on?5socke@ 0000000140038eb8     pjlib-x86_64-x64-vc14-release:os_error_win32.obj
 0002:0000cef0       ??_C@_0DA@GFNBENIG@Protocol?5family?5not?5supported?5?$CIW@ 0000000140038ef0     pjlib-x86_64-x64-vc14-release:os_error_win32.obj
 0002:0000cf20       ??_C@_0CP@MMKHGIFC@Address?5family?5not?5supported?5?$CIWS@ 0000000140038f20     pjlib-x86_64-x64-vc14-release:os_error_win32.obj
 0002:0000cf50       ??_C@_0CH@OCKNFBKE@Address?5already?5in?5use?5?$CIWSAEADDR@ 0000000140038f50     pjlib-x86_64-x64-vc14-release:os_error_win32.obj
 0002:0000cf78       ??_C@_0DC@FJJPJPOD@Can?8t?5assign?5requested?5address?5?$CI@ 0000000140038f78     pjlib-x86_64-x64-vc14-release:os_error_win32.obj
 0002:0000cfb0       ??_C@_0BO@IICKDHLJ@Network?5is?5down?5?$CIWSAENETDOWN?$CJ?$AA@ 0000000140038fb0     pjlib-x86_64-x64-vc14-release:os_error_win32.obj
 0002:0000cfd0       ??_C@_0CI@NKJAACME@Network?5is?5unreachable?5?$CIWSAENETU@ 0000000140038fd0     pjlib-x86_64-x64-vc14-release:os_error_win32.obj
 0002:0000cff8       ??_C@_0CE@LJEEEFEC@Net?5connection?5reset?5?$CIWSAENETRES@ 0000000140038ff8     pjlib-x86_64-x64-vc14-release:os_error_win32.obj
 0002:0000d020       ??_C@_0DD@PGDIHOBG@Software?5caused?5connection?5abort@ 0000000140039020     pjlib-x86_64-x64-vc14-release:os_error_win32.obj
 0002:0000d058       ??_C@_0CJ@PJHCFAAN@Connection?5reset?5by?5peer?5?$CIWSAECO@ 0000000140039058     pjlib-x86_64-x64-vc14-release:os_error_win32.obj
 0002:0000d088       ??_C@_0CH@EKNGIMKN@No?5buffer?5space?5available?5?$CIWSAEN@ 0000000140039088     pjlib-x86_64-x64-vc14-release:os_error_win32.obj
 0002:0000d0b0       ??_C@_0CJ@JOPBNNOD@Socket?5is?5already?5connected?5?$CIWSA@ 00000001400390b0     pjlib-x86_64-x64-vc14-release:os_error_win32.obj
 0002:0000d0e0       ??_C@_0CG@CECDMHLL@Socket?5is?5not?5connected?5?$CIWSAENOT@ 00000001400390e0     pjlib-x86_64-x64-vc14-release:os_error_win32.obj
 0002:0000d108       ??_C@_0DA@JGJMJPNM@Can?8t?5send?5after?5socket?5shutdown@ 0000000140039108     pjlib-x86_64-x64-vc14-release:os_error_win32.obj
 0002:0000d138       ??_C@_0DE@CAILNFFE@Too?5many?5references?0?5can?8t?5splic@ 0000000140039138     pjlib-x86_64-x64-vc14-release:os_error_win32.obj
 0002:0000d170       ??_C@_0CE@IIKHBGF@Connection?5timed?5out?5?$CIWSAETIMEDO@ 0000000140039170     pjlib-x86_64-x64-vc14-release:os_error_win32.obj
 0002:0000d198       ??_C@_0CF@JMKFBJH@Connection?5refused?5?$CIWSAECONNREFU@ 0000000140039198     pjlib-x86_64-x64-vc14-release:os_error_win32.obj
 0002:0000d1c0       ??_C@_0CN@FCKBNFMB@Too?5many?5levels?5of?5symbolic?5link@ 00000001400391c0     pjlib-x86_64-x64-vc14-release:os_error_win32.obj
 0002:0000d1f0       ??_C@_0CF@MOFKOMBB@File?5name?5too?5long?5?$CIWSAENAMETOOL@ 00000001400391f0     pjlib-x86_64-x64-vc14-release:os_error_win32.obj
 0002:0000d218       ??_C@_0BM@NCJCEEDP@Host?5is?5down?5?$CIWSAEHOSTDOWN?$CJ?$AA@ 0000000140039218     pjlib-x86_64-x64-vc14-release:os_error_win32.obj
 0002:0000d238       ??_C@_0CD@ECJOJHBH@No?5route?5to?5host?5?$CIWSAEHOSTUNREAC@ 0000000140039238     pjlib-x86_64-x64-vc14-release:os_error_win32.obj
 0002:0000d260       ??_C@_0CD@NEFLEHEG@Directory?5not?5empty?5?$CIWSAENOTEMPT@ 0000000140039260     pjlib-x86_64-x64-vc14-release:os_error_win32.obj
 0002:0000d288       ??_C@_0CB@GPCGLHOJ@Too?5many?5processes?5?$CIWSAEPROCLIM?$CJ@ 0000000140039288     pjlib-x86_64-x64-vc14-release:os_error_win32.obj
 0002:0000d2b0       ??_C@_0BL@IGHJMJKO@Too?5many?5users?5?$CIWSAEUSERS?$CJ?$AA@ 00000001400392b0     pjlib-x86_64-x64-vc14-release:os_error_win32.obj
 0002:0000d2d0       ??_C@_0CA@MIOFDKMA@Disc?5quota?5exceeded?5?$CIWSAEDQUOT?$CJ?$AA@ 00000001400392d0     pjlib-x86_64-x64-vc14-release:os_error_win32.obj
 0002:0000d2f0       ??_C@_0CC@IMLIDHNH@Stale?5NFS?5file?5handle?5?$CIWSAESTALE@ 00000001400392f0     pjlib-x86_64-x64-vc14-release:os_error_win32.obj
 0002:0000d318       ??_C@_0CP@MLAFGPOA@Too?5many?5levels?5of?5remote?5in?5pat@ 0000000140039318     pjlib-x86_64-x64-vc14-release:os_error_win32.obj
 0002:0000d348       ??_C@_0CP@IBAEMKGH@Network?5system?5is?5unavailable?5?$CIW@ 0000000140039348     pjlib-x86_64-x64-vc14-release:os_error_win32.obj
 0002:0000d378       ??_C@_0DC@BLAKHMMJ@Winsock?5version?5out?5of?5range?5?$CIWS@ 0000000140039378     pjlib-x86_64-x64-vc14-release:os_error_win32.obj
 0002:0000d3b0       ??_C@_0CO@HPDHHDHA@WSAStartup?5not?5yet?5called?5?$CIWSANO@ 00000001400393b0     pjlib-x86_64-x64-vc14-release:os_error_win32.obj
 0002:0000d3e0       ??_C@_0CL@GFDHEKLB@Graceful?5shutdown?5in?5progress?5?$CIW@ 00000001400393e0     pjlib-x86_64-x64-vc14-release:os_error_win32.obj
 0002:0000d410       ??_C@_0CD@OEALOMDH@Host?5not?5found?5?$CIWSAHOST_NOT_FOUN@ 0000000140039410     pjlib-x86_64-x64-vc14-release:os_error_win32.obj
 0002:0000d438       ??_C@_0DB@KFPHELLI@No?5host?5data?5of?5that?5type?5was?5fo@ 0000000140039438     pjlib-x86_64-x64-vc14-release:os_error_win32.obj
 0002:0000d470       ??_C@_0BE@JPHLLAEM@Win32?5error?5code?5?$CFu?$AA@ 0000000140039470     pjlib-x86_64-x64-vc14-release:os_error_win32.obj
 0002:0000d488       ??_C@_0BA@CLLJDBF@?4?4?2src?2pj?2log?4c?$AA@ 0000000140039488     pjlib-x86_64-x64-vc14-release:log.obj
 0002:0000d498       ??_C@_06DDFOEFIF@FATAL?3?$AA@ 0000000140039498     pjlib-x86_64-x64-vc14-release:log.obj
 0002:0000d4a0       ??_C@_06PONDCDME@ERROR?3?$AA@ 00000001400394a0     pjlib-x86_64-x64-vc14-release:log.obj
 0002:0000d4a8       ??_C@_06OHJPOJDB@?5WARN?3?$AA@ 00000001400394a8     pjlib-x86_64-x64-vc14-release:log.obj
 0002:0000d4b0       ??_C@_06ICKKLHPE@?5INFO?3?$AA@ 00000001400394b0     pjlib-x86_64-x64-vc14-release:log.obj
 0002:0000d4b8       ??_C@_06DNOFLLB@DEBUG?3?$AA@ 00000001400394b8     pjlib-x86_64-x64-vc14-release:log.obj
 0002:0000d4c0       ??_C@_06ELIFFDKB@TRACE?3?$AA@ 00000001400394c0     pjlib-x86_64-x64-vc14-release:log.obj
 0002:0000d4c8       ??_C@_06HGKAKJPG@DETRC?3?$AA@ 00000001400394c8     pjlib-x86_64-x64-vc14-release:log.obj
 0002:0000d4d0       ??_C@_03KOEHGMDN@Sun?$AA@  00000001400394d0     pjlib-x86_64-x64-vc14-release:log.obj
 0002:0000d4d4       ??_C@_03PDAGKDH@Mon?$AA@   00000001400394d4     pjlib-x86_64-x64-vc14-release:log.obj
 0002:0000d4d8       ??_C@_03NAGEINEP@Tue?$AA@  00000001400394d8     pjlib-x86_64-x64-vc14-release:log.obj
 0002:0000d4dc       ??_C@_03MHOMLAJA@Wed?$AA@  00000001400394dc     pjlib-x86_64-x64-vc14-release:log.obj
 0002:0000d4e0       ??_C@_03IOFIKPDN@Thu?$AA@  00000001400394e0     pjlib-x86_64-x64-vc14-release:log.obj
 0002:0000d4e4       ??_C@_03IDIOELNC@Fri?$AA@  00000001400394e4     pjlib-x86_64-x64-vc14-release:log.obj
 0002:0000d4e8       ??_C@_03FEFJNEK@Sat?$AA@   00000001400394e8     pjlib-x86_64-x64-vc14-release:log.obj
 0002:0000d4f0       ??_C@_0BO@BGMDCDKP@?$DMlogging?5error?3?5msg?5too?5long?$DO?$AA@ 00000001400394f0     pjlib-x86_64-x64-vc14-release:log.obj
 0002:0000d510       ??_C@_05LIJONKFG@ioq?$CFp?$AA@ 0000000140039510     pjlib-x86_64-x64-vc14-release:ioqueue_select.obj
 0002:0000d518       ??_C@_0CA@IMDCINDN@select?$CI?$CJ?5I?1O?5Queue?5created?5?$CI?$CFp?$CJ?$AA@ 0000000140039518     pjlib-x86_64-x64-vc14-release:ioqueue_select.obj
 0002:0000d538       ??_C@_05PHKAINEA@pjlib?$AA@ 0000000140039538     pjlib-x86_64-x64-vc14-release:ioqueue_select.obj
 0002:0000d540       PJ_IPV6_TCLASS             0000000140039540     pjlib-x86_64-x64-vc14-release:sock_bsd.obj
 0002:0000d544       PJ_SO_TYPE                 0000000140039544     pjlib-x86_64-x64-vc14-release:sock_bsd.obj
 0002:0000d548       PJ_SO_RCVBUF               0000000140039548     pjlib-x86_64-x64-vc14-release:sock_bsd.obj
 0002:0000d54c       PJ_SO_SNDBUF               000000014003954c     pjlib-x86_64-x64-vc14-release:sock_bsd.obj
 0002:0000d550       PJ_TCP_NODELAY             0000000140039550     pjlib-x86_64-x64-vc14-release:sock_bsd.obj
 0002:0000d554       PJ_SO_REUSEADDR            0000000140039554     pjlib-x86_64-x64-vc14-release:sock_bsd.obj
 0002:0000d558       PJ_SO_NOSIGPIPE            0000000140039558     pjlib-x86_64-x64-vc14-release:sock_bsd.obj
 0002:0000d55c       PJ_SO_PRIORITY             000000014003955c     pjlib-x86_64-x64-vc14-release:sock_bsd.obj
 0002:0000d560       PJ_IP_MULTICAST_IF         0000000140039560     pjlib-x86_64-x64-vc14-release:sock_bsd.obj
 0002:0000d564       PJ_IP_MULTICAST_TTL        0000000140039564     pjlib-x86_64-x64-vc14-release:sock_bsd.obj
 0002:0000d568       PJ_IP_MULTICAST_LOOP       0000000140039568     pjlib-x86_64-x64-vc14-release:sock_bsd.obj
 0002:0000d56c       PJ_IP_ADD_MEMBERSHIP       000000014003956c     pjlib-x86_64-x64-vc14-release:sock_bsd.obj
 0002:0000d570       PJ_IP_DROP_MEMBERSHIP      0000000140039570     pjlib-x86_64-x64-vc14-release:sock_bsd.obj
 0002:0000d574       PJ_MSG_OOB                 0000000140039574     pjlib-x86_64-x64-vc14-release:sock_bsd.obj
 0002:0000d578       PJ_MSG_PEEK                0000000140039578     pjlib-x86_64-x64-vc14-release:sock_bsd.obj
 0002:0000d57c       PJ_MSG_DONTROUTE           000000014003957c     pjlib-x86_64-x64-vc14-release:sock_bsd.obj
 0002:0000d580       PJ_AF_UNSPEC               0000000140039580     pjlib-x86_64-x64-vc14-release:sock_bsd.obj
 0002:0000d584       PJ_AF_UNIX                 0000000140039584     pjlib-x86_64-x64-vc14-release:sock_bsd.obj
 0002:0000d588       PJ_AF_INET                 0000000140039588     pjlib-x86_64-x64-vc14-release:sock_bsd.obj
 0002:0000d58c       PJ_AF_INET6                000000014003958c     pjlib-x86_64-x64-vc14-release:sock_bsd.obj
 0002:0000d590       PJ_AF_PACKET               0000000140039590     pjlib-x86_64-x64-vc14-release:sock_bsd.obj
 0002:0000d594       PJ_AF_IRDA                 0000000140039594     pjlib-x86_64-x64-vc14-release:sock_bsd.obj
 0002:0000d598       PJ_SOCK_STREAM             0000000140039598     pjlib-x86_64-x64-vc14-release:sock_bsd.obj
 0002:0000d59c       PJ_SOCK_DGRAM              000000014003959c     pjlib-x86_64-x64-vc14-release:sock_bsd.obj
 0002:0000d5a0       PJ_SOCK_RAW                00000001400395a0     pjlib-x86_64-x64-vc14-release:sock_bsd.obj
 0002:0000d5a4       PJ_SOCK_RDM                00000001400395a4     pjlib-x86_64-x64-vc14-release:sock_bsd.obj
 0002:0000d5a8       PJ_SOL_SOCKET              00000001400395a8     pjlib-x86_64-x64-vc14-release:sock_bsd.obj
 0002:0000d5ac       PJ_SOL_IP                  00000001400395ac     pjlib-x86_64-x64-vc14-release:sock_bsd.obj
 0002:0000d5b0       PJ_SOL_TCP                 00000001400395b0     pjlib-x86_64-x64-vc14-release:sock_bsd.obj
 0002:0000d5b4       PJ_SOL_UDP                 00000001400395b4     pjlib-x86_64-x64-vc14-release:sock_bsd.obj
 0002:0000d5b8       PJ_SOL_IPV6                00000001400395b8     pjlib-x86_64-x64-vc14-release:sock_bsd.obj
 0002:0000d5bc       PJ_IP_TOS                  00000001400395bc     pjlib-x86_64-x64-vc14-release:sock_bsd.obj
 0002:0000d5c0       PJ_IPTOS_LOWDELAY          00000001400395c0     pjlib-x86_64-x64-vc14-release:sock_bsd.obj
 0002:0000d5c4       PJ_IPTOS_THROUGHPUT        00000001400395c4     pjlib-x86_64-x64-vc14-release:sock_bsd.obj
 0002:0000d5c8       PJ_IPTOS_RELIABILITY       00000001400395c8     pjlib-x86_64-x64-vc14-release:sock_bsd.obj
 0002:0000d5cc       PJ_IPTOS_MINCOST           00000001400395cc     pjlib-x86_64-x64-vc14-release:sock_bsd.obj
 0002:0000d5d0       ??_C@_0BF@KBJNEAPB@?4?4?2src?2pj?2sock_bsd?4c?$AA@ 00000001400395d0     pjlib-x86_64-x64-vc14-release:sock_bsd.obj
 0002:0000d5e8       ??_C@_0CD@KFHCCJFN@?$CB?$CB?$CBFATAL?3?5unhandled?5exception?5?$CFs@ 00000001400395e8     pjlib-x86_64-x64-vc14-release:except.obj
 0002:0000d610       ??_C@_08PDFMOJIE@except?4c?$AA@ 0000000140039610     pjlib-x86_64-x64-vc14-release:except.obj
 0002:0000d620       ??_C@_0N@GJOLEKJC@?$DMInvalid?5ID?$DO?$AA@ 0000000140039620     pjlib-x86_64-x64-vc14-release:except.obj
 0002:0000d630       ??_C@_0N@LJPLLMIL@exception?5?$CFd?$AA@ 0000000140039630     pjlib-x86_64-x64-vc14-release:except.obj
 0002:0000d640       __real@408f400000000000    0000000140039640     pjlib-x86_64-x64-vc14-release:os_timestamp_common.obj
 0002:0000d648       __real@41cdcd6500000000    0000000140039648     pjlib-x86_64-x64-vc14-release:os_timestamp_common.obj
 0002:0000d650       ??_C@_0BB@KPBPCFEE@?4?4?2src?2pj?2rand?4c?$AA@ 0000000140039650     pjlib-x86_64-x64-vc14-release:rand.obj
 0002:0000d664       PJ_GUID_STRING_LENGTH      0000000140039664     pjlib-x86_64-x64-vc14-release:guid_win32.obj
 0002:0000d668       ??_C@_0BH@DLOCENPK@?4?4?2src?2pj?2guid_win32?4c?$AA@ 0000000140039668     pjlib-x86_64-x64-vc14-release:guid_win32.obj
 0002:0000d680       ??_C@_04FIDOICFN@2?410?$AA@ 0000000140039680     pjlib-x86_64-x64-vc14-release:config.obj
 0002:0000d688       ??_C@_08DOCHLGNA@config?4c?$AA@ 0000000140039688     pjlib-x86_64-x64-vc14-release:config.obj
 0002:0000d698       ??_C@_0BO@KBBNBAFA@?4?4?2src?2pj?2log_writer_stdout?4c?$AA@ 0000000140039698     pjlib-x86_64-x64-vc14-release:log_writer_stdout.obj
 0002:0000d6b8       ??_C@_02DKCKIIND@?$CFs?$AA@ 00000001400396b8     pjlib-x86_64-x64-vc14-release:log_writer_stdout.obj
 0002:0000d6c0       ??_C@_0BC@OIAJPKFB@?4?4?2src?2pj?2types?4c?$AA@ 00000001400396c0     pjlib-x86_64-x64-vc14-release:types.obj
 0002:0000d6d8       ??_C@_0BI@FIAAHKJ@?4?4?2src?2pj?2sock_select?4c?$AA@ 00000001400396d8     pjlib-x86_64-x64-vc14-release:sock_select.obj
 0002:0000d6f0       ??_C@_0EJ@GHABDNKB@No?5playback?5frame?5available?5?$CIyou@ 00000001400396f0     libspeex-x86_64-x64-vc14-release:mdf.obj
 0002:0000d740       ??_C@_0M@FDFEAFGN@warning?3?5?$CFs?$AA@ 0000000140039740     libspeex-x86_64-x64-vc14-release:mdf.obj
 0002:0000d74c       ??_C@_05JPFLDMPI@speex?$AA@ 000000014003974c     libspeex-x86_64-x64-vc14-release:mdf.obj
 0002:0000d758       ??_C@_0CF@JGKBANKE@internal?5playback?5buffer?5corrupt@ 0000000140039758     libspeex-x86_64-x64-vc14-release:mdf.obj
 0002:0000d780       ??_C@_0BP@HJHBOHLA@discarded?5first?5playback?5frame?$AA@ 0000000140039780     libspeex-x86_64-x64-vc14-release:mdf.obj
 0002:0000d7a0       ??_C@_0EF@JCPCCFEP@Auto?9filling?5the?5buffer?5?$CIyour?5ap@ 00000001400397a0     libspeex-x86_64-x64-vc14-release:mdf.obj
 0002:0000d7f0       ??_C@_0EN@KMLFENGK@Had?5to?5discard?5a?5playback?5frame?5@ 00000001400397f0     libspeex-x86_64-x64-vc14-release:mdf.obj
 0002:0000d840       ??_C@_0FP@LGAMLFHE@The?5echo?5canceller?5started?5actin@ 0000000140039840     libspeex-x86_64-x64-vc14-release:mdf.obj
 0002:0000d8a0       ??_C@_0CB@DEGFPNC@Unknown?5speex_echo_ctl?5request?3?5@ 00000001400398a0     libspeex-x86_64-x64-vc14-release:mdf.obj
 0002:0000d8c8       ??_C@_0BA@JHIGFAJK@warning?3?5?$CFs?3?5?$CFd?$AA@ 00000001400398c8     libspeex-x86_64-x64-vc14-release:mdf.obj
 0002:0000d8d8       __real@3ba3d70a            00000001400398d8     libspeex-x86_64-x64-vc14-release:mdf.obj
 0002:0000d8dc       __real@3cf5c28f            00000001400398dc     libspeex-x86_64-x64-vc14-release:mdf.obj
 0002:0000d8e0       __real@3dcccccd            00000001400398e0     libspeex-x86_64-x64-vc14-release:mdf.obj
 0002:0000d8e4       __real@3e19999a            00000001400398e4     libspeex-x86_64-x64-vc14-release:mdf.obj
 0002:0000d8e8       __real@3e800000            00000001400398e8     libspeex-x86_64-x64-vc14-release:mdf.obj
 0002:0000d8ec       __real@3eb851ec            00000001400398ec     libspeex-x86_64-x64-vc14-release:mdf.obj
 0002:0000d8f0       __real@3ecccccd            00000001400398f0     libspeex-x86_64-x64-vc14-release:mdf.obj
 0002:0000d8f4       __real@3f19999a            00000001400398f4     libspeex-x86_64-x64-vc14-release:mdf.obj
 0002:0000d8f8       __real@3f1a36e2eb1c432d    00000001400398f8     libspeex-x86_64-x64-vc14-release:mdf.obj
 0002:0000d900       __real@3f333333            0000000140039900     libspeex-x86_64-x64-vc14-release:mdf.obj
 0002:0000d904       __real@3f38f5c3            0000000140039904     libspeex-x86_64-x64-vc14-release:mdf.obj
 0002:0000d908       __real@3f59999a            0000000140039908     libspeex-x86_64-x64-vc14-release:mdf.obj
 0002:0000d910       __real@3fd0000000000000    0000000140039910     libspeex-x86_64-x64-vc14-release:mdf.obj
 0002:0000d918       __real@3fd3333333333333    0000000140039918     libspeex-x86_64-x64-vc14-release:mdf.obj
 0002:0000d920       __real@3fd6666666666666    0000000140039920     libspeex-x86_64-x64-vc14-release:mdf.obj
 0002:0000d928       __real@3fe6666666666666    0000000140039928     libspeex-x86_64-x64-vc14-release:mdf.obj
 0002:0000d930       __real@4008000000000000    0000000140039930     libspeex-x86_64-x64-vc14-release:mdf.obj
 0002:0000d938       __real@4019999a            0000000140039938     libspeex-x86_64-x64-vc14-release:mdf.obj
 0002:0000d93c       __real@40800000            000000014003993c     libspeex-x86_64-x64-vc14-release:mdf.obj
 0002:0000d940       __real@42c80000            0000000140039940     libspeex-x86_64-x64-vc14-release:mdf.obj
 0002:0000d944       __real@45fa0000            0000000140039944     libspeex-x86_64-x64-vc14-release:mdf.obj
 0002:0000d948       __real@461c4000            0000000140039948     libspeex-x86_64-x64-vc14-release:mdf.obj
 0002:0000d94c       __real@467ffc00            000000014003994c     libspeex-x86_64-x64-vc14-release:mdf.obj
 0002:0000d950       __real@46fffd00            0000000140039950     libspeex-x86_64-x64-vc14-release:mdf.obj
 0002:0000d954       __real@46fffe00            0000000140039954     libspeex-x86_64-x64-vc14-release:mdf.obj
 0002:0000d958       __real@c6ffff00            0000000140039958     libspeex-x86_64-x64-vc14-release:mdf.obj
 0002:0000d960       __xmm@3f4ccccd3f4ccccd3f4ccccd3f4ccccd 0000000140039960     libspeex-x86_64-x64-vc14-release:mdf.obj
 0002:0000d970       __xmm@3f7d70a43f7d70a43f7d70a43f7d70a4 0000000140039970     libspeex-x86_64-x64-vc14-release:mdf.obj
 0002:0000d980       __xmm@46fffe0046fffe0046fffe0046fffe00 0000000140039980     libspeex-x86_64-x64-vc14-release:mdf.obj
 0002:0000d990       __real@3f847ae147ae147b    0000000140039990     libspeex-x86_64-x64-vc14-release:scal.obj
 0002:0000d998       __real@3fa47ae147ae147b    0000000140039998     libspeex-x86_64-x64-vc14-release:scal.obj
 0002:0000d9a0       __real@3fd999999999999a    00000001400399a0     libspeex-x86_64-x64-vc14-release:scal.obj
 0002:0000d9a8       __real@3fe43d1cc100e6b0    00000001400399a8     libspeex-x86_64-x64-vc14-release:scal.obj
 0002:0000d9b0       __real@3feeb851eb851eb8    00000001400399b0     libspeex-x86_64-x64-vc14-release:scal.obj
 0002:0000d9b8       __real@3fef5c28f5c28f5c    00000001400399b8     libspeex-x86_64-x64-vc14-release:scal.obj
 0002:0000d9c0       __real@3ff921fb54442d18    00000001400399c0     libspeex-x86_64-x64-vc14-release:scal.obj
 0002:0000d9c8       __real@400921fb54442d18    00000001400399c8     libspeex-x86_64-x64-vc14-release:scal.obj
 0002:0000d9d0       __real@c6fffe00            00000001400399d0     libspeex-x86_64-x64-vc14-release:scal.obj
 0002:0000d9e0       __xmm@3ff921fb54442d183ff921fb54442d18 00000001400399e0     libspeex-x86_64-x64-vc14-release:scal.obj
 0002:0000d9f0       __xmm@400921fb54442d18400921fb54442d18 00000001400399f0     libspeex-x86_64-x64-vc14-release:scal.obj
 0002:0000da58       ??_C@_0DP@GLHJBLIP@The?5VAD?5has?5been?5replaced?5by?5a?5h@ 0000000140039a58     libspeex-x86_64-x64-vc14-release:preprocess.obj
 0002:0000da98       ??_C@_0CH@BPNBAON@Unknown?5speex_preprocess_ctl?5req@ 0000000140039a98     libspeex-x86_64-x64-vc14-release:preprocess.obj
 0002:0000dac0       __real@38d1b717            0000000140039ac0     libspeex-x86_64-x64-vc14-release:preprocess.obj
 0002:0000dac4       __real@3a83126f            0000000140039ac4     libspeex-x86_64-x64-vc14-release:preprocess.obj
 0002:0000dac8       __real@3c23d70a            0000000140039ac8     libspeex-x86_64-x64-vc14-release:preprocess.obj
 0002:0000dacc       __real@3d4ccccd            0000000140039acc     libspeex-x86_64-x64-vc14-release:preprocess.obj
 0002:0000dad0       __real@3d99999a            0000000140039ad0     libspeex-x86_64-x64-vc14-release:preprocess.obj
 0002:0000dad4       __real@3debc947            0000000140039ad4     libspeex-x86_64-x64-vc14-release:preprocess.obj
 0002:0000dad8       __real@3e4bc6a8            0000000140039ad8     libspeex-x86_64-x64-vc14-release:preprocess.obj
 0002:0000dadc       __real@3e4ccccd            0000000140039adc     libspeex-x86_64-x64-vc14-release:preprocess.obj
 0002:0000dae0       __real@3e6bc8e2            0000000140039ae0     libspeex-x86_64-x64-vc14-release:preprocess.obj
 0002:0000dae4       __real@3e99999a            0000000140039ae4     libspeex-x86_64-x64-vc14-release:preprocess.obj
 0002:0000dae8       __real@3eaa7efa            0000000140039ae8     libspeex-x86_64-x64-vc14-release:preprocess.obj
 0002:0000daec       __real@3eb33333            0000000140039aec     libspeex-x86_64-x64-vc14-release:preprocess.obj
 0002:0000daf0       __real@3f4ccccd            0000000140039af0     libspeex-x86_64-x64-vc14-release:preprocess.obj
 0002:0000daf4       __real@3f63d70a            0000000140039af4     libspeex-x86_64-x64-vc14-release:preprocess.obj
 0002:0000daf8       __real@3f6624dd            0000000140039af8     libspeex-x86_64-x64-vc14-release:preprocess.obj
 0002:0000db00       __real@3f9eb851eb851eb8    0000000140039b00     libspeex-x86_64-x64-vc14-release:preprocess.obj
 0002:0000db08       __real@3fa2cdb8            0000000140039b08     libspeex-x86_64-x64-vc14-release:preprocess.obj
 0002:0000db10       __real@3fc096bb98c7e282    0000000140039b10     libspeex-x86_64-x64-vc14-release:preprocess.obj
 0002:0000db18       __real@3fc999999999999a    0000000140039b18     libspeex-x86_64-x64-vc14-release:preprocess.obj
 0002:0000db20       __real@3fe75c2900000000    0000000140039b20     libspeex-x86_64-x64-vc14-release:preprocess.obj
 0002:0000db28       __real@3ff61adea8000000    0000000140039b28     libspeex-x86_64-x64-vc14-release:preprocess.obj
 0002:0000db30       __real@40000000            0000000140039b30     libspeex-x86_64-x64-vc14-release:preprocess.obj
 0002:0000db38       __real@4014000000000000    0000000140039b38     libspeex-x86_64-x64-vc14-release:preprocess.obj
 0002:0000db40       __real@40215f212d773190    0000000140039b40     libspeex-x86_64-x64-vc14-release:preprocess.obj
 0002:0000db48       __real@456d8000            0000000140039b48     libspeex-x86_64-x64-vc14-release:preprocess.obj
 0002:0000db4c       __real@467a0000            0000000140039b4c     libspeex-x86_64-x64-vc14-release:preprocess.obj
 0002:0000db50       __real@46dac000            0000000140039b50     libspeex-x86_64-x64-vc14-release:preprocess.obj
 0002:0000db54       __real@47000000            0000000140039b54     libspeex-x86_64-x64-vc14-release:preprocess.obj
 0002:0000db58       __real@495bba00            0000000140039b58     libspeex-x86_64-x64-vc14-release:preprocess.obj
 0002:0000db5c       __real@4e6e6b28            0000000140039b5c     libspeex-x86_64-x64-vc14-release:preprocess.obj
 0002:0000db60       __real@bf000000            0000000140039b60     libspeex-x86_64-x64-vc14-release:preprocess.obj
 0002:0000db68       __real@bfc99999a0000000    0000000140039b68     libspeex-x86_64-x64-vc14-release:preprocess.obj
 0002:0000db70       __real@c0000000            0000000140039b70     libspeex-x86_64-x64-vc14-release:preprocess.obj
 0002:0000db78       __real@c0126bb98c000000    0000000140039b78     libspeex-x86_64-x64-vc14-release:preprocess.obj
 0002:0000db80       __xmm@3d4ccccd3d4ccccd3d4ccccd3d4ccccd 0000000140039b80     libspeex-x86_64-x64-vc14-release:preprocess.obj
 0002:0000db90       __xmm@3d99999a3d99999a3d99999a3d99999a 0000000140039b90     libspeex-x86_64-x64-vc14-release:preprocess.obj
 0002:0000dba0       __xmm@3dcccccd3dcccccd3dcccccd3dcccccd 0000000140039ba0     libspeex-x86_64-x64-vc14-release:preprocess.obj
 0002:0000dbb0       __xmm@3e19999a3e19999a3e19999a3e19999a 0000000140039bb0     libspeex-x86_64-x64-vc14-release:preprocess.obj
 0002:0000dbc0       __xmm@3e99999a3e99999a3e99999a3e99999a 0000000140039bc0     libspeex-x86_64-x64-vc14-release:preprocess.obj
 0002:0000dbd0       __xmm@3f19999a3f19999a3f19999a3f19999a 0000000140039bd0     libspeex-x86_64-x64-vc14-release:preprocess.obj
 0002:0000dbe0       __xmm@3f3333333f3333333f3333333f333333 0000000140039be0     libspeex-x86_64-x64-vc14-release:preprocess.obj
 0002:0000dbf0       __xmm@3f63d70a3f63d70a3f63d70a3f63d70a 0000000140039bf0     libspeex-x86_64-x64-vc14-release:preprocess.obj
 0002:0000dc00       __xmm@3f8000003f8000003f8000003f800000 0000000140039c00     libspeex-x86_64-x64-vc14-release:preprocess.obj
 0002:0000dc10       __xmm@42c8000042c8000042c8000042c80000 0000000140039c10     libspeex-x86_64-x64-vc14-release:preprocess.obj
 0002:0000dc20       __xmm@7fffffffffffffff7fffffffffffffff 0000000140039c20     libspeex-x86_64-x64-vc14-release:preprocess.obj
 0002:0000dc30       ??_C@_0CA@EIAGMGLH@FFT?5should?5not?5be?5done?5in?9place?$AA@ 0000000140039c30     libspeex-x86_64-x64-vc14-release:fftwrap.obj
 0002:0000dc50       __real@329ee9ee            0000000140039c50     libspeex-x86_64-x64-vc14-release:filterbank.obj
 0002:0000dc54       __real@3a41fc8f            0000000140039c54     libspeex-x86_64-x64-vc14-release:filterbank.obj
 0002:0000dc58       __real@4001eb8520000000    0000000140039c58     libspeex-x86_64-x64-vc14-release:filterbank.obj
 0002:0000dc60       __real@402a333340000000    0000000140039c60     libspeex-x86_64-x64-vc14-release:filterbank.obj
 0002:0000dc68       ??_C@_04DKFOEDJA@srtp?$AA@ 0000000140039c68     libsrtp-x86_64-x64-vc14-release:srtp.obj
 0002:0000dc70       ??_C@_0CD@KFGKPJOG@?$CFs?3?5cloning?5stream?5?$CISSRC?3?50x?$CF08x@ 0000000140039c70     libsrtp-x86_64-x64-vc14-release:srtp.obj
 0002:0000dc98       ??_C@_0BG@DDGAJBGL@?$CFs?3?5srtp?5key?5len?3?5?$CFd?6?$AA@ 0000000140039c98     libsrtp-x86_64-x64-vc14-release:srtp.obj
 0002:0000dcb0       ??_C@_0BH@DGNFCKJN@?$CFs?3?5srtcp?5key?5len?3?5?$CFd?6?$AA@ 0000000140039cb0     libsrtp-x86_64-x64-vc14-release:srtp.obj
 0002:0000dcc8       ??_C@_0BG@DMEGGANK@?$CFs?3?5base?5key?5len?3?5?$CFd?6?$AA@ 0000000140039cc8     libsrtp-x86_64-x64-vc14-release:srtp.obj
 0002:0000dce0       ??_C@_0BF@HLIACONN@?$CFs?3?5kdf?5key?5len?3?5?$CFd?6?$AA@ 0000000140039ce0     libsrtp-x86_64-x64-vc14-release:srtp.obj
 0002:0000dcf8       ??_C@_0BG@BGKGMHMB@?$CFs?3?5rtp?5salt?5len?3?5?$CFd?6?$AA@ 0000000140039cf8     libsrtp-x86_64-x64-vc14-release:srtp.obj
 0002:0000dd10       ??_C@_0BE@PGOGLMMP@?$CFs?3?5cipher?5key?3?5?$CFs?6?$AA@ 0000000140039d10     libsrtp-x86_64-x64-vc14-release:srtp.obj
 0002:0000dd28       ??_C@_0CN@BDCDAMHJ@?$CFs?3?5found?5rtp_salt_len?5?$DO?50?0?5gene@ 0000000140039d28     libsrtp-x86_64-x64-vc14-release:srtp.obj
 0002:0000dd58       ??_C@_0BF@GHNDNNEA@?$CFs?3?5cipher?5salt?3?5?$CFs?6?$AA@ 0000000140039d58     libsrtp-x86_64-x64-vc14-release:srtp.obj
 0002:0000dd70       ??_C@_0BP@LJKEDGBP@?$CFs?3?5extensions?5cipher?5key?3?5?$CFs?6?$AA@ 0000000140039d70     libsrtp-x86_64-x64-vc14-release:srtp.obj
 0002:0000dd90       ??_C@_0DF@NJKDAIDN@?$CFs?3?5found?5rtp_xtn_hdr_salt_len?5?$DO@ 0000000140039d90     libsrtp-x86_64-x64-vc14-release:srtp.obj
 0002:0000ddc8       ??_C@_0CA@OBEPENBO@?$CFs?3?5extensions?5cipher?5salt?3?5?$CFs?6?$AA@ 0000000140039dc8     libsrtp-x86_64-x64-vc14-release:srtp.obj
 0002:0000dde8       ??_C@_0BE@HGKFNAFC@?$CFs?3?5auth?5key?3?5?5?5?$CFs?6?$AA@ 0000000140039de8     libsrtp-x86_64-x64-vc14-release:srtp.obj
 0002:0000de00       ??_C@_0BH@KOPGGCNO@?$CFs?3?5rtcp?5salt?5len?3?5?$CFd?6?$AA@ 0000000140039e00     libsrtp-x86_64-x64-vc14-release:srtp.obj
 0002:0000de18       ??_C@_0DD@DNDBGLG@?$CFs?3?5found?5rtcp_salt_len?5?$DO?50?0?5gen@ 0000000140039e18     libsrtp-x86_64-x64-vc14-release:srtp.obj
 0002:0000de50       ??_C@_0BJ@KAKGCCMO@?$CFs?3?5rtcp?5cipher?5key?3?5?$CFs?6?$AA@ 0000000140039e50     libsrtp-x86_64-x64-vc14-release:srtp.obj
 0002:0000de70       ??_C@_0BK@BAICKNEI@?$CFs?3?5rtcp?5cipher?5salt?3?5?$CFs?6?$AA@ 0000000140039e70     libsrtp-x86_64-x64-vc14-release:srtp.obj
 0002:0000de90       ??_C@_0BJ@CAOFEOFD@?$CFs?3?5rtcp?5auth?5key?3?5?5?5?$CFs?6?$AA@ 0000000140039e90     libsrtp-x86_64-x64-vc14-release:srtp.obj
 0002:0000deb0       ??_C@_0CI@PDNDGOMA@?$CFs?3?5initializing?5stream?5?$CISSRC?3?50@ 0000000140039eb0     libsrtp-x86_64-x64-vc14-release:srtp.obj
 0002:0000ded8       ??_C@_0BH@GAKJJGLB@srtp?3?5in?5stream?50x?$CFx?3?5?$AA@ 0000000140039ed8     libsrtp-x86_64-x64-vc14-release:srtp.obj
 0002:0000def0       ??_C@_0BB@PPFALDPP@?7SSRC?5collision?6?$AA@ 0000000140039ef0     libsrtp-x86_64-x64-vc14-release:srtp.obj
 0002:0000df08       ??_C@_0BP@HOEKLBIN@?7key?5usage?5soft?5limit?5reached?6?$AA@ 0000000140039f08     libsrtp-x86_64-x64-vc14-release:srtp.obj
 0002:0000df28       ??_C@_0BP@KNJIFCF@?7key?5usage?5hard?5limit?5reached?6?$AA@ 0000000140039f28     libsrtp-x86_64-x64-vc14-release:srtp.obj
 0002:0000df48       ??_C@_0BN@MKCGGAOP@?7packet?5index?5limit?5reached?6?$AA@ 0000000140039f48     libsrtp-x86_64-x64-vc14-release:srtp.obj
 0002:0000df68       ??_C@_0CE@FFJEPPID@?7unknown?5event?5reported?5to?5handl@ 0000000140039f68     libsrtp-x86_64-x64-vc14-release:srtp.obj
 0002:0000df90       ??_C@_0BN@IJKEFIPG@?$CFs?3?5Pre?9salted?5RTP?5IV?5?$DN?5?$CFs?6?6?$AA@ 0000000140039f90     libsrtp-x86_64-x64-vc14-release:srtp.obj
 0002:0000dfb0       ??_C@_0BE@MNMIOELF@?$CFs?3?5RTP?5SALT?5?$DN?5?$CFs?6?6?$AA@ 0000000140039fb0     libsrtp-x86_64-x64-vc14-release:srtp.obj
 0002:0000dfc8       ??_C@_0CH@MOHBLIMO@?$CFs?3?5estimated?5u_packet?5index?3?5?$CF0@ 0000000140039fc8     libsrtp-x86_64-x64-vc14-release:srtp.obj
 0002:0000dff0       ??_C@_0CA@OMJPHCHL@?$CFs?3?5function?5srtp_protect_aead?6?$AA@ 0000000140039ff0     libsrtp-x86_64-x64-vc14-release:srtp.obj
 0002:0000e010       ??_C@_0CF@PEPHCKJP@?$CFs?3?5estimated?5packet?5index?3?5?$CF016@ 000000014003a010     libsrtp-x86_64-x64-vc14-release:srtp.obj
 0002:0000e038       ??_C@_0CC@KIGABHOG@?$CFs?3?5function?5srtp_unprotect_aead@ 000000014003a038     libsrtp-x86_64-x64-vc14-release:srtp.obj
 0002:0000e060       ??_C@_0BL@MADNODBC@?$CFs?3?5function?5srtp_protect?6?$AA@ 000000014003a060     libsrtp-x86_64-x64-vc14-release:srtp.obj
 0002:0000e080       ??_C@_0BK@KLBGMJPP@?$CFs?3?5keystream?5prefix?3?5?$CFs?6?$AA@ 000000014003a080     libsrtp-x86_64-x64-vc14-release:srtp.obj
 0002:0000e0a0       ??_C@_0BK@GCKOFNLP@?$CFs?3?5srtp?5auth?5tag?3?5?5?5?5?$CFs?6?$AA@ 000000014003a0a0     libsrtp-x86_64-x64-vc14-release:srtp.obj
 0002:0000e0c0       ??_C@_0BN@LADOAJPP@?$CFs?3?5function?5srtp_unprotect?6?$AA@ 000000014003a0c0     libsrtp-x86_64-x64-vc14-release:srtp.obj
 0002:0000e0e0       ??_C@_0CN@PJAKIEAG@?$CFs?3?5using?5provisional?5stream?5?$CISS@ 000000014003a0e0     libsrtp-x86_64-x64-vc14-release:srtp.obj
 0002:0000e110       ??_C@_0BO@BONEKIBH@?$CFs?3?5computed?5auth?5tag?3?5?5?5?5?$CFs?6?$AA@ 000000014003a110     libsrtp-x86_64-x64-vc14-release:srtp.obj
 0002:0000e130       ??_C@_0BO@KMHOFFAA@?$CFs?3?5packet?5auth?5tag?3?5?5?5?5?5?5?$CFs?6?$AA@ 000000014003a130     libsrtp-x86_64-x64-vc14-release:srtp.obj
 0002:0000e150       ??_C@_0BO@ONKEAFKG@?$CFs?3?5Pre?9salted?5RTCP?5IV?5?$DN?5?$CFs?6?6?$AA@ 000000014003a150     libsrtp-x86_64-x64-vc14-release:srtp.obj
 0002:0000e170       ??_C@_0BF@FLPIMBMP@?$CFs?3?5RTCP?5SALT?5?$DN?5?$CFs?6?6?$AA@ 000000014003a170     libsrtp-x86_64-x64-vc14-release:srtp.obj
 0002:0000e188       ??_C@_0BF@JBCKCIAJ@?$CFs?3?5srtcp?5index?3?5?$CFx?6?$AA@ 000000014003a188     libsrtp-x86_64-x64-vc14-release:srtp.obj
 0002:0000e1a0       ??_C@_0BL@OBHAKLEH@?$CFs?3?5srtcp?5auth?5tag?3?5?5?5?5?$CFs?6?$AA@ 000000014003a1a0     libsrtp-x86_64-x64-vc14-release:srtp.obj
 0002:0000e1c0       ??_C@_0DD@HHOLLDKC@?$CFs?3?5srtcp?5using?5provisional?5stre@ 000000014003a1c0     libsrtp-x86_64-x64-vc14-release:srtp.obj
 0002:0000e1f8       ??_C@_0CC@IMKDPKDI@?$CFs?3?5srtcp?5computed?5tag?3?5?5?5?5?5?5?5?$CFs@ 000000014003a1f8     libsrtp-x86_64-x64-vc14-release:srtp.obj
 0002:0000e220       ??_C@_0CC@GFCANNPL@?$CFs?3?5srtcp?5tag?5from?5packet?3?5?5?5?5?$CFs@ 000000014003a220     libsrtp-x86_64-x64-vc14-release:srtp.obj
 0002:0000e244       ??_C@_05KNPMOECN@alloc?$AA@ 000000014003a244     libsrtp-x86_64-x64-vc14-release:alloc.obj
 0002:0000e250       ??_C@_0BO@KJOGHNGM@?$CFs?3?5?$CIlocation?3?5?$CFp?$CJ?5allocated?6?$AA@ 000000014003a250     libsrtp-x86_64-x64-vc14-release:alloc.obj
 0002:0000e270       ??_C@_0CN@JJLNACEJ@?$CFs?3?5allocation?5failed?5?$CIasked?5for@ 000000014003a270     libsrtp-x86_64-x64-vc14-release:alloc.obj
 0002:0000e2a0       ??_C@_0BK@BNKOPMHD@?$CFs?3?5?$CIlocation?3?5?$CFp?$CJ?5freed?6?$AA@ 000000014003a2a0     libsrtp-x86_64-x64-vc14-release:alloc.obj
 0002:0000e2c0       __xmm@66656463626139383736353433323130 000000014003a2c0     libsrtp-x86_64-x64-vc14-release:datatypes.obj
 0002:0000e2d0       ??_C@_07EFAIHJHH@libsrtp?$AA@ 000000014003a2d0     libsrtp-x86_64-x64-vc14-release:srtp_err.obj
 0002:0000e2d8       ??_C@_06KDGDAFPH@cipher?$AA@ 000000014003a2d8     libsrtp-x86_64-x64-vc14-release:cipher.obj
 0002:0000e2e0       ??_C@_09EJIBOKIO@auth?5func?$AA@ 000000014003a2e0     libsrtp-x86_64-x64-vc14-release:auth.obj
 0002:0000e2f0       ??_C@_0O@MIKIJNFL@crypto?5kernel?$AA@ 000000014003a2f0     libsrtp-x86_64-x64-vc14-release:crypto_kernel.obj
 0002:0000e300       ??_C@_0BE@ICAFLID@?$CFs?3?5EKT?5not?5in?5use?6?$AA@ 000000014003a300     libsrtp-x86_64-x64-vc14-release:ekt.obj
 0002:0000e318       ??_C@_0BK@CMOOGLJH@?$CFs?3?5writing?5EKT?5EMK?3?5?$CFs?0?6?$AA@ 000000014003a318     libsrtp-x86_64-x64-vc14-release:ekt.obj
 0002:0000e338       ??_C@_0BK@BEIPMCDF@?$CFs?3?5writing?5EKT?5ROC?3?5?$CFs?0?6?$AA@ 000000014003a338     libsrtp-x86_64-x64-vc14-release:ekt.obj
 0002:0000e358       ??_C@_0BK@BKDABMJO@?$CFs?3?5writing?5EKT?5ISN?3?5?$CFs?0?6?$AA@ 000000014003a358     libsrtp-x86_64-x64-vc14-release:ekt.obj
 0002:0000e378       ??_C@_0BK@BJPEDIGD@?$CFs?3?5writing?5EKT?5SPI?3?5?$CFs?0?6?$AA@ 000000014003a378     libsrtp-x86_64-x64-vc14-release:ekt.obj
 0002:0000e398       ??_C@_09LCMAEBCF@stat?5test?$AA@ 000000014003a398     libsrtp-x86_64-x64-vc14-release:stat.obj
 0002:0000e3a8       ??_C@_0CK@DAFEFAPH@?$CFs?3?5allocating?5cipher?5with?5key?5l@ 000000014003a3a8     libsrtp-x86_64-x64-vc14-release:null_cipher.obj
 0002:0000e3d8       ??_C@_0BO@HCJFKKEE@?$CFs?3?5initializing?5null?5cipher?6?$AA@ 000000014003a3d8     libsrtp-x86_64-x64-vc14-release:null_cipher.obj
 0002:0000e470       srtp_null_cipher           000000014003a470     libsrtp-x86_64-x64-vc14-release:null_cipher.obj
 0002:0000e4c8       ??_C@_07MPIJGLIA@aes?5icm?$AA@ 000000014003a4c8     libsrtp-x86_64-x64-vc14-release:aes_icm.obj
 0002:0000e4d0       srtp_aes_icm_128           000000014003a4d0     libsrtp-x86_64-x64-vc14-release:aes_icm.obj
 0002:0000e530       srtp_aes_icm_256           000000014003a530     libsrtp-x86_64-x64-vc14-release:aes_icm.obj
 0002:0000e758       ??_C@_0O@GFBJNBAD@?$CFs?3?5key?3?5?5?$CFs?6?$AA@ 000000014003a758     libsrtp-x86_64-x64-vc14-release:aes_icm.obj
 0002:0000e768       ??_C@_0BA@ILFEGDEM@?$CFs?3?5offset?3?5?$CFs?6?$AA@ 000000014003a768     libsrtp-x86_64-x64-vc14-release:aes_icm.obj
 0002:0000e778       ??_C@_0BE@ECIFEEKH@?$CFs?3?5setting?5iv?3?5?$CFs?6?$AA@ 000000014003a778     libsrtp-x86_64-x64-vc14-release:aes_icm.obj
 0002:0000e790       ??_C@_0BF@OAOEHNDM@?$CFs?3?5set_counter?3?5?$CFs?6?$AA@ 000000014003a790     libsrtp-x86_64-x64-vc14-release:aes_icm.obj
 0002:0000e7a8       ??_C@_0BE@ENJPOLAG@?$CFs?3?5counter?3?5?5?5?5?$CFs?6?$AA@ 000000014003a7a8     libsrtp-x86_64-x64-vc14-release:aes_icm.obj
 0002:0000e7c0       ??_C@_0BE@ILCAEFF@?$CFs?3?5ciphertext?3?5?$CFs?6?$AA@ 000000014003a7c0     libsrtp-x86_64-x64-vc14-release:aes_icm.obj
 0002:0000e7d8       ??_C@_0BF@BLBMMINO@?$CFs?3?5block?5index?3?5?$CFd?6?$AA@ 000000014003a7d8     libsrtp-x86_64-x64-vc14-release:aes_icm.obj
 0002:0000e7f0       ??_C@_0CN@KBEHBKDH@?$CFs?3?5allocating?5auth?5func?5with?5ke@ 000000014003a7f0     libsrtp-x86_64-x64-vc14-release:null_auth.obj
 0002:0000e820       ??_C@_0CN@FDNDBNFI@?$CFs?3?5?5?5?5?5?5?5?5?5?5?5?5?5?5?5?5?5?5?5?5?5?5?5?5?5?5?5ta@ 000000014003a820     libsrtp-x86_64-x64-vc14-release:null_auth.obj
 0002:0000e8b0       srtp_null_auth             000000014003a8b0     libsrtp-x86_64-x64-vc14-release:null_auth.obj
 0002:0000e8f8       ??_C@_0L@NBBBLMAJ@hmac?5sha?91?$AA@ 000000014003a8f8     libsrtp-x86_64-x64-vc14-release:hmac.obj
 0002:0000e908       ??_C@_0O@PJECJPIJ@?$CFs?3?5ipad?3?5?$CFs?6?$AA@ 000000014003a908     libsrtp-x86_64-x64-vc14-release:hmac.obj
 0002:0000e918       ??_C@_0P@JHGAOEEF@?$CFs?3?5input?3?5?$CFs?6?$AA@ 000000014003a918     libsrtp-x86_64-x64-vc14-release:hmac.obj
 0002:0000e928       ??_C@_0BM@JABNBLDM@?$CFs?3?5intermediate?5state?3?5?$CFs?6?$AA@ 000000014003a928     libsrtp-x86_64-x64-vc14-release:hmac.obj
 0002:0000e948       ??_C@_0BA@NKCNJNLN@?$CFs?3?5output?3?5?$CFs?6?$AA@ 000000014003a948     libsrtp-x86_64-x64-vc14-release:hmac.obj
 0002:0000ea00       srtp_hmac                  000000014003aa00     libsrtp-x86_64-x64-vc14-release:hmac.obj
 0002:0000ea50       __xmm@36363636363636363636363636363636 000000014003aa50     libsrtp-x86_64-x64-vc14-release:hmac.obj
 0002:0000ea60       __xmm@5c5c5c5c5c5c5c5c5c5c5c5c5c5c5c5c 000000014003aa60     libsrtp-x86_64-x64-vc14-release:hmac.obj
 0002:00010c70       ??_C@_05BPJLFPNI@sha?91?$AA@ 000000014003cc70     libsrtp-x86_64-x64-vc14-release:sha1.obj
 0002:00010c78       ??_C@_0CH@CIFCCFOE@?$CFs?3?5?$CIupdate?$CJ?5running?5srtp_sha1_c@ 000000014003cc78     libsrtp-x86_64-x64-vc14-release:sha1.obj
 0002:00010ca0       ??_C@_0CL@FECLBICF@?$CFs?3?5?$CIupdate?$CJ?5not?5running?5srtp_sh@ 000000014003cca0     libsrtp-x86_64-x64-vc14-release:sha1.obj
 0002:00010cd0       ??_C@_0CG@BBEKCMGE@?$CFs?3?5?$CIfinal?$CJ?5running?5srtp_sha1_co@ 000000014003ccd0     libsrtp-x86_64-x64-vc14-release:sha1.obj
 0002:00010cf8       ??_C@_0CM@HEEFBAKO@?$CFs?3?5?$CIfinal?$CJ?5running?5srtp_sha1_co@ 000000014003ccf8     libsrtp-x86_64-x64-vc14-release:sha1.obj
 0002:00010d60       _load_config_used          000000014003cd60     MSVCRT:loadcfg.obj
 0002:00011060       __rtc_iaa                  000000014003d060     MSVCRT:_initsect_.obj
 0002:00011068       __rtc_izz                  000000014003d068     MSVCRT:_initsect_.obj
 0002:00011070       __rtc_taa                  000000014003d070     MSVCRT:_initsect_.obj
 0002:00011078       __rtc_tzz                  000000014003d078     MSVCRT:_initsect_.obj
 0002:0001435c       __IMPORT_DESCRIPTOR_ole32  000000014004035c     ole32:ole32.dll
 0002:00014370       __IMPORT_DESCRIPTOR_WS2_32 0000000140040370     ws2_32:WS2_32.dll
 0002:00014384       __IMPORT_DESCRIPTOR_WINMM  0000000140040384     winmm:WINMM.dll
 0002:00014398       __IMPORT_DESCRIPTOR_KERNEL32 0000000140040398     kernel32:KERNEL32.dll
 0002:000143ac       __IMPORT_DESCRIPTOR_VCRUNTIME140 00000001400403ac     vcruntime:VCRUNTIME140.dll
 0002:000143c0       __IMPORT_DESCRIPTOR_api-ms-win-crt-stdio-l1-1-0 00000001400403c0     ucrt:api-ms-win-crt-stdio-l1-1-0.dll
 0002:000143d4       __IMPORT_DESCRIPTOR_api-ms-win-crt-string-l1-1-0 00000001400403d4     ucrt:api-ms-win-crt-string-l1-1-0.dll
 0002:000143e8       __IMPORT_DESCRIPTOR_api-ms-win-crt-math-l1-1-0 00000001400403e8     ucrt:api-ms-win-crt-math-l1-1-0.dll
 0002:000143fc       __IMPORT_DESCRIPTOR_api-ms-win-crt-heap-l1-1-0 00000001400403fc     ucrt:api-ms-win-crt-heap-l1-1-0.dll
 0002:00014410       __IMPORT_DESCRIPTOR_api-ms-win-crt-utility-l1-1-0 0000000140040410     ucrt:api-ms-win-crt-utility-l1-1-0.dll
 0002:00014424       __IMPORT_DESCRIPTOR_api-ms-win-crt-runtime-l1-1-0 0000000140040424     ucrt:api-ms-win-crt-runtime-l1-1-0.dll
 0002:00014438       __IMPORT_DESCRIPTOR_api-ms-win-crt-locale-l1-1-0 0000000140040438     ucrt:api-ms-win-crt-locale-l1-1-0.dll
 0002:0001444c       __NULL_IMPORT_DESCRIPTOR   000000014004044c     ole32:ole32.dll
 0003:00000248       pjmedia_add_rtpmap_for_static_pt 0000000140042248     pjmedia-x86_64-x64-vc14-release:endpoint.obj
 0003:0000024c       pjmedia_add_bandwidth_tias_in_sdp 000000014004224c     pjmedia-x86_64-x64-vc14-release:endpoint.obj
 0003:00000700       pj_pool_factory_default_policy 0000000140042700     pjlib-x86_64-x64-vc14-release:pool_policy_malloc.obj
 0003:00000858       PJ_VERSION                 0000000140042858     pjlib-x86_64-x64-vc14-release:config.obj
 0003:000008a0       mod_srtp                   00000001400428a0     libsrtp-x86_64-x64-vc14-release:srtp.obj
 0003:000008b8       mod_alloc                  00000001400428b8     libsrtp-x86_64-x64-vc14-release:alloc.obj
 0003:000008d0       octet_weight               00000001400428d0     libsrtp-x86_64-x64-vc14-release:datatypes.obj
 0003:00000cd0       srtp_mod_cipher            0000000140042cd0     libsrtp-x86_64-x64-vc14-release:cipher.obj
 0003:00000ce0       srtp_mod_auth              0000000140042ce0     libsrtp-x86_64-x64-vc14-release:auth.obj
 0003:00000cf0       srtp_mod_crypto_kernel     0000000140042cf0     libsrtp-x86_64-x64-vc14-release:crypto_kernel.obj
 0003:00000d00       mod_stat                   0000000140042d00     libsrtp-x86_64-x64-vc14-release:stat.obj
 0003:00000d10       srtp_mod_aes_icm           0000000140042d10     libsrtp-x86_64-x64-vc14-release:aes_icm.obj
 0003:00000d20       srtp_mod_hmac              0000000140042d20     libsrtp-x86_64-x64-vc14-release:hmac.obj
 0003:00000d30       srtp_mod_sha1              0000000140042d30     libsrtp-x86_64-x64-vc14-release:sha1.obj
 0003:00000d40       SHA_K0                     0000000140042d40     libsrtp-x86_64-x64-vc14-release:sha1.obj
 0003:00000d44       SHA_K1                     0000000140042d44     libsrtp-x86_64-x64-vc14-release:sha1.obj
 0003:00000d48       SHA_K2                     0000000140042d48     libsrtp-x86_64-x64-vc14-release:sha1.obj
 0003:00000d4c       SHA_K3                     0000000140042d4c     libsrtp-x86_64-x64-vc14-release:sha1.obj
 0003:00000d50       __security_cookie          0000000140042d50     MSVCRT:gs_cookie.obj
 0003:00000d58       __security_cookie_complement 0000000140042d58     MSVCRT:gs_cookie.obj
 0003:00000d60       _fltused                   0000000140042d60     MSVCRT:dllsupp.obj
 0003:00000d70       __scrt_native_dllmain_reason 0000000140042d70     MSVCRT:utility.obj
 0003:00000d74       __scrt_default_matherr     0000000140042d74     MSVCRT:matherr.obj
 0003:00000d80       __isa_available            0000000140042d80     MSVCRT:_cpu_disp_.obj
 0003:00000d84       __isa_enabled              0000000140042d84     MSVCRT:_cpu_disp_.obj
 0003:00000d88       __memcpy_nt_iters          0000000140042d88     MSVCRT:_cpu_disp_.obj
 0003:00000d90       __scrt_ucrt_dll_is_in_use  0000000140042d90     MSVCRT:ucrt_stubs.obj
 0003:00002438       err_level                  0000000140044438     libsrtp-x86_64-x64-vc14-release:srtp_err.obj
 0003:00002440       crypto_kernel              0000000140044440     libsrtp-x86_64-x64-vc14-release:crypto_kernel.obj
 0003:000029f0       __scrt_current_native_startup_state 00000001400449f0     MSVCRT:utility.obj
 0003:000029f8       __scrt_native_startup_lock 00000001400449f8     MSVCRT:utility.obj
 0003:00002a40       ?__type_info_root_node@@3U__type_info_node@@A 0000000140044a40     MSVCRT:tncleanup.obj
 0003:00002a50       __scrt_debugger_hook_flag  0000000140044a50     MSVCRT:utility_desktop.obj
 0003:00002a54       __favor                    0000000140044a54     MSVCRT:_cpu_disp_.obj
 0003:00002a58       ?_OptionsStorage@?1??__local_stdio_printf_options@@9@9 0000000140044a58     <common>
 0003:00002a60       PJ_NO_MEMORY_EXCEPTION     0000000140044a60     <common>
 0003:00002a80       bit_string                 0000000140044a80     <common>
 0003:00002e80       ?_OptionsStorage@?1??__local_stdio_scanf_options@@9@9 0000000140044e80     <common>
 0003:00002e88       __dyn_tls_dtor_callback    0000000140044e88     <common>
 0003:00002e90       __dyn_tls_init_callback    0000000140044e90     <common>

 entry point at        0001:00028734

 Static symbols

 0002:fffd4000       .idata$6                   0000000140000000     ucrt:api-ms-win-crt-time-l1-1-0.dll
 0001:00000000       PJMEDIA_SPF                0000000140001000 f   recfile.obj
 0001:00000030       PJMEDIA_AFD_SPF            0000000140001030 f   recfile.obj
 0001:00000060       PJMEDIA_PIA_SRATE          0000000140001060 f   recfile.obj
 0001:00000070       PJMEDIA_PIA_CCNT           0000000140001070 f   recfile.obj
 0001:00000080       PJMEDIA_PIA_BITS           0000000140001080 f   recfile.obj
 0001:00000090       PJMEDIA_PIA_SPF            0000000140001090 f   recfile.obj
 0001:000000c0       pjmedia_endpt_create       00000001400010c0 f   recfile.obj
 0001:00000130       pjmedia_endpt_destroy      0000000140001130 f   recfile.obj
 0001:00000150       app_perror                 0000000140001150 f   recfile.obj
 0001:00000850       factory_init               0000000140001850 f   pjmedia-audiodev-x86_64-x64-vc14-release:wmme_dev.obj
 0001:00000890       factory_destroy            0000000140001890 f   pjmedia-audiodev-x86_64-x64-vc14-release:wmme_dev.obj
 0001:000008d0       factory_refresh            00000001400018d0 f   pjmedia-audiodev-x86_64-x64-vc14-release:wmme_dev.obj
 0001:00000c40       factory_get_dev_count      0000000140001c40 f   pjmedia-audiodev-x86_64-x64-vc14-release:wmme_dev.obj
 0001:00000c50       factory_get_dev_info       0000000140001c50 f   pjmedia-audiodev-x86_64-x64-vc14-release:wmme_dev.obj
 0001:00000d10       factory_default_param      0000000140001d10 f   pjmedia-audiodev-x86_64-x64-vc14-release:wmme_dev.obj
 0001:00000e00       factory_create_stream      0000000140001e00 f   pjmedia-audiodev-x86_64-x64-vc14-release:wmme_dev.obj
 0001:000010f0       stream_get_param           00000001400020f0 f   pjmedia-audiodev-x86_64-x64-vc14-release:wmme_dev.obj
 0001:000011c0       stream_get_cap             00000001400021c0 f   pjmedia-audiodev-x86_64-x64-vc14-release:wmme_dev.obj
 0001:00001270       stream_set_cap             0000000140002270 f   pjmedia-audiodev-x86_64-x64-vc14-release:wmme_dev.obj
 0001:00001320       stream_start               0000000140002320 f   pjmedia-audiodev-x86_64-x64-vc14-release:wmme_dev.obj
 0001:000013b0       stream_stop                00000001400023b0 f   pjmedia-audiodev-x86_64-x64-vc14-release:wmme_dev.obj
 0001:00001450       stream_destroy             0000000140002450 f   pjmedia-audiodev-x86_64-x64-vc14-release:wmme_dev.obj
 0001:000015f0       build_dev_info             00000001400025f0 f   pjmedia-audiodev-x86_64-x64-vc14-release:wmme_dev.obj
 0001:000017c0       init_capture_stream        00000001400027c0 f   pjmedia-audiodev-x86_64-x64-vc14-release:wmme_dev.obj
 0001:00001a40       init_player_stream         0000000140002a40 f   pjmedia-audiodev-x86_64-x64-vc14-release:wmme_dev.obj
 0001:00001cd0       init_waveformatex          0000000140002cd0 f   pjmedia-audiodev-x86_64-x64-vc14-release:wmme_dev.obj
 0001:00001db0       pjmedia_frame_ext_copy_payload 0000000140002db0 f   pjmedia-audiodev-x86_64-x64-vc14-release:wmme_dev.obj
 0001:00001ed0       wmme_dev_thread            0000000140002ed0 f   pjmedia-audiodev-x86_64-x64-vc14-release:wmme_dev.obj
 0001:00002940       worker_proc                0000000140003940 f   pjmedia-x86_64-x64-vc14-release:endpoint.obj
 0001:00002fb0       play_cb                    0000000140003fb0 f   pjmedia-x86_64-x64-vc14-release:sound_port.obj
 0001:000030f0       play_cb_ext                00000001400040f0 f   pjmedia-x86_64-x64-vc14-release:sound_port.obj
 0001:00003150       rec_cb                     0000000140004150 f   pjmedia-x86_64-x64-vc14-release:sound_port.obj
 0001:000031e0       rec_cb_ext                 00000001400041e0 f   pjmedia-x86_64-x64-vc14-release:sound_port.obj
 0001:00003230       start_sound_device         0000000140004230 f   pjmedia-x86_64-x64-vc14-release:sound_port.obj
 0001:00003450       file_get_frame             0000000140004450 f   pjmedia-x86_64-x64-vc14-release:wav_writer.obj
 0001:00003460       file_on_destroy            0000000140004460 f   pjmedia-x86_64-x64-vc14-release:wav_writer.obj
 0001:00003610       file_on_event              0000000140004610 f   pjmedia-x86_64-x64-vc14-release:wav_writer.obj
 0001:00003640       file_put_frame             0000000140004640 f   pjmedia-x86_64-x64-vc14-release:wav_writer.obj
 0001:00003b90       lookup_dev                 0000000140004b90 f   pjmedia-x86_64-x64-vc14-release:audiodev.obj
 0001:00003c70       make_global_index          0000000140004c70 f   pjmedia-x86_64-x64-vc14-release:audiodev.obj
 0001:00004320       event_queue_add_event      0000000140005320 f   pjmedia-x86_64-x64-vc14-release:event.obj
 0001:00005380       transport_media_start      0000000140006380 f   pjmedia-x86_64-x64-vc14-release:transport_srtp.obj
 0001:00005510       transport_media_stop       0000000140006510 f   pjmedia-x86_64-x64-vc14-release:transport_srtp.obj
 0001:000056c0       transport_simulate_lost    00000001400066c0 f   pjmedia-x86_64-x64-vc14-release:transport_srtp.obj
 0001:000056e0       transport_destroy          00000001400066e0 f   pjmedia-x86_64-x64-vc14-release:transport_srtp.obj
 0001:00005790       transport_attach2          0000000140006790 f   pjmedia-x86_64-x64-vc14-release:transport_srtp.obj
 0001:00005960       sdes_media_create          0000000140006960 f   pjmedia-x86_64-x64-vc14-release:transport_srtp.obj
 0001:000059e0       sdes_encode_sdp            00000001400069e0 f   pjmedia-x86_64-x64-vc14-release:transport_srtp.obj
 0001:00005f40       sdes_media_start           0000000140006f40 f   pjmedia-x86_64-x64-vc14-release:transport_srtp.obj
 0001:00006250       transport_get_info         0000000140007250 f   pjmedia-x86_64-x64-vc14-release:transport_srtp.obj
 0001:00006410       transport_detach           0000000140007410 f   pjmedia-x86_64-x64-vc14-release:transport_srtp.obj
 0001:00006480       transport_send_rtp         0000000140007480 f   pjmedia-x86_64-x64-vc14-release:transport_srtp.obj
 0001:00006560       transport_send_rtcp        0000000140007560 f   pjmedia-x86_64-x64-vc14-release:transport_srtp.obj
 0001:00006580       transport_send_rtcp2       0000000140007580 f   pjmedia-x86_64-x64-vc14-release:transport_srtp.obj
 0001:000066a0       transport_media_create     00000001400076a0 f   pjmedia-x86_64-x64-vc14-release:transport_srtp.obj
 0001:00006870       transport_encode_sdp       0000000140007870 f   pjmedia-x86_64-x64-vc14-release:transport_srtp.obj
 0001:00006a90       fill_local_crypto          0000000140007a90 f   pjmedia-x86_64-x64-vc14-release:transport_srtp.obj
 0001:00006e70       generate_crypto_attr_value 0000000140007e70 f   pjmedia-x86_64-x64-vc14-release:transport_srtp.obj
 0001:00007120       get_crypto_idx             0000000140008120 f   pjmedia-x86_64-x64-vc14-release:transport_srtp.obj
 0001:000071f0       parse_attr_crypto          00000001400081f0 f   pjmedia-x86_64-x64-vc14-release:transport_srtp.obj
 0001:00007bb0       srtp_rtcp_cb               0000000140008bb0 f   pjmedia-x86_64-x64-vc14-release:transport_srtp.obj
 0001:00007cb0       srtp_rtp_cb                0000000140008cb0 f   pjmedia-x86_64-x64-vc14-release:transport_srtp.obj
 0001:00008020       start_srtp                 0000000140009020 f   pjmedia-x86_64-x64-vc14-release:transport_srtp.obj
 0001:000081c0       amplify_frame              00000001400091c0 f   pjmedia-x86_64-x64-vc14-release:echo_suppress.obj
 0001:00008940       echo_supp_update           0000000140009940 f   pjmedia-x86_64-x64-vc14-release:echo_suppress.obj
 0001:00009500       pjmedia_circ_buf_adv_read_ptr 000000014000a500 f   pjmedia-x86_64-x64-vc14-release:delaybuf.obj
 0001:00009550       pjmedia_circ_buf_read      000000014000a550 f   pjmedia-x86_64-x64-vc14-release:delaybuf.obj
 0001:00009640       pjmedia_circ_buf_write     000000014000a640 f   pjmedia-x86_64-x64-vc14-release:delaybuf.obj
 0001:00009640       pjmedia_circ_buf_write     000000014000a640 f   pjmedia-x86_64-x64-vc14-release:wsola.obj
 0001:00009c00       shrink_buffer              000000014000ac00 f   pjmedia-x86_64-x64-vc14-release:delaybuf.obj
 0001:00009cb0       update                     000000014000acb0 f   pjmedia-x86_64-x64-vc14-release:delaybuf.obj
 0001:00009dd0       compress                   000000014000add0 f   pjmedia-x86_64-x64-vc14-release:wsola.obj
 0001:00009ef0       create_win                 000000014000aef0 f   pjmedia-x86_64-x64-vc14-release:wsola.obj
 0001:0000a0d0       expand                     000000014000b0d0 f   pjmedia-x86_64-x64-vc14-release:wsola.obj
 0001:0000a210       fade_in                    000000014000b210 f   pjmedia-x86_64-x64-vc14-release:wsola.obj
 0001:0000a2d0       find_pitch                 000000014000b2d0 f   pjmedia-x86_64-x64-vc14-release:wsola.obj
 0001:0000a610       overlapp_add               000000014000b610 f   pjmedia-x86_64-x64-vc14-release:wsola.obj
 0001:0000a7c0       overlapp_add_simple        000000014000b7c0 f   pjmedia-x86_64-x64-vc14-release:wsola.obj
 0001:0000a980       pjmedia_circ_buf_copy      000000014000b980 f   pjmedia-x86_64-x64-vc14-release:wsola.obj
 0001:0000aa50       pjmedia_circ_buf_pack_buffer 000000014000ba50 f   pjmedia-x86_64-x64-vc14-release:wsola.obj
 0001:0000b410       wsola_fade_out             000000014000c410 f   pjmedia-x86_64-x64-vc14-release:wsola.obj
 0001:0000b8b0       init_mutex                 000000014000c8b0 f   pjlib-x86_64-x64-vc14-release:os_core_win32.obj
 0001:0000c240       pj_sem_wait_for            000000014000d240 f   pjlib-x86_64-x64-vc14-release:os_core_win32.obj
 0001:0000ccf0       thread_main                000000014000dcf0 f   pjlib-x86_64-x64-vc14-release:os_core_win32.obj
 0001:0000cf90       pj_pool_create_block       000000014000df90 f   pjlib-x86_64-x64-vc14-release:pool.obj
 0001:0000d2b0       reset_pool                 000000014000e2b0 f   pjlib-x86_64-x64-vc14-release:pool.obj
 0001:0000d350       cpool_create_pool          000000014000e350 f   pjlib-x86_64-x64-vc14-release:pool_caching.obj
 0001:0000d4e0       cpool_dump_status          000000014000e4e0 f   pjlib-x86_64-x64-vc14-release:pool_caching.obj
 0001:0000d690       cpool_on_block_alloc       000000014000e690 f   pjlib-x86_64-x64-vc14-release:pool_caching.obj
 0001:0000d6b0       cpool_on_block_free        000000014000e6b0 f   pjlib-x86_64-x64-vc14-release:pool_caching.obj
 0001:0000d6c0       cpool_release_pool         000000014000e6c0 f   pjlib-x86_64-x64-vc14-release:pool_caching.obj
 0001:0000d9c0       invoke_log                 000000014000e9c0 f   pjlib-x86_64-x64-vc14-release:errno.obj
 0001:0000da90       pj_perror_imp              000000014000ea90 f   pjlib-x86_64-x64-vc14-release:errno.obj
 0001:0000dda0       pjlib_error                000000014000eda0 f   pjlib-x86_64-x64-vc14-release:errno.obj
 0001:0000de50       default_block_alloc        000000014000ee50 f   pjlib-x86_64-x64-vc14-release:pool_policy_malloc.obj
 0001:0000ded0       default_block_free         000000014000eed0 f   pjlib-x86_64-x64-vc14-release:pool_policy_malloc.obj
 0001:0000df30       default_pool_callback      000000014000ef30 f   pjlib-x86_64-x64-vc14-release:pool_policy_malloc.obj
 0001:0000e9a0       logging_shutdown           000000014000f9a0 f   pjlib-x86_64-x64-vc14-release:log.obj
 0001:0000f084       $LN13                      0000000140010084     pjlib-x86_64-x64-vc14-release:log.obj
 0001:0000f370       get_base_time              0000000140010370 f   pjlib-x86_64-x64-vc14-release:os_time_win32.obj
 0001:0000f560       decrement_counter          0000000140010560 f   pjlib-x86_64-x64-vc14-release:ioqueue_select.obj
 0001:0000f610       increment_counter          0000000140010610 f   pjlib-x86_64-x64-vc14-release:ioqueue_select.obj
 0001:00010560       scan_closing_keys          0000000140011560 f   pjlib-x86_64-x64-vc14-release:ioqueue_select.obj
 0001:00011020       create_mutex_lock          0000000140012020 f   pjlib-x86_64-x64-vc14-release:lock.obj
 0001:000110d0       grp_lock_destroy           00000001400120d0 f   pjlib-x86_64-x64-vc14-release:lock.obj
 0001:000111c0       grp_lock_release           00000001400121c0 f   pjlib-x86_64-x64-vc14-release:lock.obj
 0001:00011250       grp_lock_tryacquire        0000000140012250 f   pjlib-x86_64-x64-vc14-release:lock.obj
 0001:000117b0       pool_buf_cleanup           00000001400127b0 f   pjlib-x86_64-x64-vc14-release:pool_buf.obj
 0001:000117e0       stack_alloc                00000001400127e0 f   pjlib-x86_64-x64-vc14-release:pool_buf.obj
 0001:00011b40       filter_dc_notch16          0000000140012b40 f   libspeex-x86_64-x64-vc14-release:mdf.obj
 0001:00011da0       mdf_adjust_prop            0000000140012da0 f   libspeex-x86_64-x64-vc14-release:mdf.obj
 0001:000121a0       power_spectrum_accum       00000001400131a0 f   libspeex-x86_64-x64-vc14-release:mdf.obj
 0001:00012240       spectral_mul_accum         0000000140013240 f   libspeex-x86_64-x64-vc14-release:mdf.obj
 0001:00015a40       weighted_spectral_mul_conj 0000000140016a40 f   libspeex-x86_64-x64-vc14-release:mdf.obj
 0001:00016520       compute_gain_floor         0000000140017520 f   libspeex-x86_64-x64-vc14-release:preprocess.obj
 0001:00016900       conj_window                0000000140017900 f   libspeex-x86_64-x64-vc14-release:preprocess.obj
 0001:00016ab0       hypergeom_gain             0000000140017ab0 f   libspeex-x86_64-x64-vc14-release:preprocess.obj
 0001:00016b90       preprocess_analysis        0000000140017b90 f   libspeex-x86_64-x64-vc14-release:preprocess.obj
 0001:00017000       speex_compute_agc          0000000140018000 f   libspeex-x86_64-x64-vc14-release:preprocess.obj
 0001:00017a3c       $LN97                      0000000140018a3c     libspeex-x86_64-x64-vc14-release:preprocess.obj
 0001:0001a310       update_noise_prob          000000014001b310 f   libspeex-x86_64-x64-vc14-release:preprocess.obj
 0001:0001b4d0       dradb2                     000000014001c4d0 f   libspeex-x86_64-x64-vc14-release:smallft.obj
 0001:0001b960       dradb3                     000000014001c960 f   libspeex-x86_64-x64-vc14-release:smallft.obj
 0001:0001bec0       dradb4                     000000014001cec0 f   libspeex-x86_64-x64-vc14-release:smallft.obj
 0001:0001c8c0       dradbg                     000000014001d8c0 f   libspeex-x86_64-x64-vc14-release:smallft.obj
 0001:0001e160       dradf2                     000000014001f160 f   libspeex-x86_64-x64-vc14-release:smallft.obj
 0001:0001e530       dradf4                     000000014001f530 f   libspeex-x86_64-x64-vc14-release:smallft.obj
 0001:0001ef80       dradfg                     000000014001ff80 f   libspeex-x86_64-x64-vc14-release:smallft.obj
 0001:00020900       drftb1                     0000000140021900 f   libspeex-x86_64-x64-vc14-release:smallft.obj
 0001:00020ba0       drftf1                     0000000140021ba0 f   libspeex-x86_64-x64-vc14-release:smallft.obj
 0001:00020df0       drfti1                     0000000140021df0 f   libspeex-x86_64-x64-vc14-release:smallft.obj
 0001:00021190       be64_to_cpu                0000000140022190 f   libsrtp-x86_64-x64-vc14-release:srtp.obj
 0001:00021300       srtp_calc_aead_iv          0000000140022300 f   libsrtp-x86_64-x64-vc14-release:srtp.obj
 0001:00021420       srtp_calc_aead_iv_srtcp    0000000140022420 f   libsrtp-x86_64-x64-vc14-release:srtp.obj
 0001:00021920       srtp_get_est_pkt_index     0000000140022920 f   libsrtp-x86_64-x64-vc14-release:srtp.obj
 0001:00021b10       srtp_kdf_generate          0000000140022b10 f   libsrtp-x86_64-x64-vc14-release:srtp.obj
 0001:00021b90       srtp_kdf_init              0000000140022b90 f   libsrtp-x86_64-x64-vc14-release:srtp.obj
 0001:00021c20       srtp_process_header_encryption 0000000140022c20 f   libsrtp-x86_64-x64-vc14-release:srtp.obj
 0001:00021e80       srtp_protect_aead          0000000140022e80 f   libsrtp-x86_64-x64-vc14-release:srtp.obj
 0001:000226d0       srtp_protect_rtcp_aead     00000001400236d0 f   libsrtp-x86_64-x64-vc14-release:srtp.obj
 0001:000232f0       srtp_stream_free           00000001400242f0 f   libsrtp-x86_64-x64-vc14-release:srtp.obj
 0001:00023f20       srtp_unprotect_aead        0000000140024f20 f   libsrtp-x86_64-x64-vc14-release:srtp.obj
 0001:00024830       srtp_unprotect_rtcp_aead   0000000140025830 f   libsrtp-x86_64-x64-vc14-release:srtp.obj
 0001:00024f40       srtp_validate_rtp_header   0000000140025f40 f   libsrtp-x86_64-x64-vc14-release:srtp.obj
 0001:00026000       srtp_null_cipher_alloc     0000000140027000 f   libsrtp-x86_64-x64-vc14-release:null_cipher.obj
 0001:000260a0       srtp_null_cipher_dealloc   00000001400270a0 f   libsrtp-x86_64-x64-vc14-release:null_cipher.obj
 0001:000260d0       srtp_null_cipher_init      00000001400270d0 f   libsrtp-x86_64-x64-vc14-release:null_cipher.obj
 0001:00026100       srtp_aes_icm_alloc         0000000140027100 f   libsrtp-x86_64-x64-vc14-release:aes_icm.obj
 0001:00026210       srtp_aes_icm_dealloc       0000000140027210 f   libsrtp-x86_64-x64-vc14-release:aes_icm.obj
 0001:00026260       srtp_aes_icm_context_init  0000000140027260 f   libsrtp-x86_64-x64-vc14-release:aes_icm.obj
 0001:000263b0       srtp_aes_icm_set_iv        00000001400273b0 f   libsrtp-x86_64-x64-vc14-release:aes_icm.obj
 0001:00026470       srtp_aes_icm_encrypt       0000000140027470 f   libsrtp-x86_64-x64-vc14-release:aes_icm.obj
 0001:000266a0       srtp_aes_icm_advance       00000001400276a0 f   libsrtp-x86_64-x64-vc14-release:aes_icm.obj
 0001:00026750       srtp_null_auth_alloc       0000000140027750 f   libsrtp-x86_64-x64-vc14-release:null_auth.obj
 0001:00026810       srtp_null_auth_dealloc     0000000140027810 f   libsrtp-x86_64-x64-vc14-release:null_auth.obj
 0001:00026840       srtp_hmac_alloc            0000000140027840 f   libsrtp-x86_64-x64-vc14-release:hmac.obj
 0001:00026930       srtp_hmac_dealloc          0000000140027930 f   libsrtp-x86_64-x64-vc14-release:hmac.obj
 0001:00026960       srtp_hmac_init             0000000140027960 f   libsrtp-x86_64-x64-vc14-release:hmac.obj
 0001:00026c70       srtp_hmac_start            0000000140027c70 f   libsrtp-x86_64-x64-vc14-release:hmac.obj
 0001:00026cd0       srtp_hmac_update           0000000140027cd0 f   libsrtp-x86_64-x64-vc14-release:hmac.obj
 0001:00026d40       srtp_hmac_compute          0000000140027d40 f   libsrtp-x86_64-x64-vc14-release:hmac.obj
 0001:00026e60       aes_128_expand_encryption_key 0000000140027e60 f   libsrtp-x86_64-x64-vc14-release:aes.obj
 0001:00026f20       aes_256_expand_encryption_key 0000000140027f20 f   libsrtp-x86_64-x64-vc14-release:aes.obj
 0001:00027030       aes_final_round            0000000140028030 f   libsrtp-x86_64-x64-vc14-release:aes.obj
 0001:00027120       aes_inv_final_round        0000000140028120 f   libsrtp-x86_64-x64-vc14-release:aes.obj
 0001:00027210       aes_inv_round              0000000140028210 f   libsrtp-x86_64-x64-vc14-release:aes.obj
 0001:00027320       aes_round                  0000000140028320 f   libsrtp-x86_64-x64-vc14-release:aes.obj
 0001:000284a0       $$000000                   00000001400294a0     MSVCRT:_amdsecgs_.obj
 0001:000284d4       ?pre_c_initialization@@YAHXZ 00000001400294d4 f   MSVCRT:exe_main.obj
 0001:00028590       ?post_pgo_initialization@@YAHXZ 0000000140029590 f   MSVCRT:exe_main.obj
 0001:000285a0       ?pre_cpp_initialization@@YAXXZ 00000001400295a0 f   MSVCRT:exe_main.obj
 0001:000285bc       ?__scrt_common_main_seh@@YAHXZ 00000001400295bc f   MSVCRT:exe_main.obj
 0001:00028900       capture_current_context    0000000140029900 f   MSVCRT:gs_report.obj
 0001:00028970       capture_previous_context   0000000140029970 f   MSVCRT:gs_report.obj
 0001:000289f0       $$000000                   00000001400299f0     MSVCRT:_svml_dcos2_dispatch_.obj
 0001:00028a00       $$000000                   0000000140029a00     MSVCRT:_chkstk_.obj
 0001:00028a70       $$000000                   0000000140029a70     MSVCRT:_svml_dsin2_dispatch_.obj
 0001:00028de0       sdes_media_stop            0000000140029de0 f   pjmedia-x86_64-x64-vc14-release:transport_srtp.obj
 0001:00028de0       srtp_null_auth_start       0000000140029de0 f   libsrtp-x86_64-x64-vc14-release:null_auth.obj
 0001:00028de0       srtp_null_auth_compute     0000000140029de0 f   libsrtp-x86_64-x64-vc14-release:null_auth.obj
 0001:00028de0       srtp_null_auth_update      0000000140029de0 f   libsrtp-x86_64-x64-vc14-release:null_auth.obj
 0001:00028de0       srtp_null_auth_init        0000000140029de0 f   libsrtp-x86_64-x64-vc14-release:null_auth.obj
 0001:00028de0       srtp_null_cipher_encrypt   0000000140029de0 f   libsrtp-x86_64-x64-vc14-release:null_cipher.obj
 0001:00028de0       null_op                    0000000140029de0 f   pjlib-x86_64-x64-vc14-release:lock.obj
 0001:00028de0       srtp_null_cipher_set_iv    0000000140029de0 f   libsrtp-x86_64-x64-vc14-release:null_cipher.obj
 0001:000290c0       __static_scalar_cos        000000014002a0c0 f   MSVCRT:_svml_dcos2_sse2_.obj
 0001:000290c0       $$000000                   000000014002a0c0     MSVCRT:_svml_dcos2_sse2_.obj
 0001:00029a60       __static_scalar_sin        000000014002aa60 f   MSVCRT:_svml_dsin2_sse2_.obj
 0001:00029a60       $$000000                   000000014002aa60     MSVCRT:_svml_dsin2_sse2_.obj
 0001:0002a6e0       $$000000                   000000014002b6e0     MSVCRT:_guard_dispatch_.obj
 0001:0002a6f2       ?filt$0@?0??__scrt_common_main_seh@@YAHXZ@4HA 000000014002b6f2 f   MSVCRT:exe_main.obj
 0001:0002a710       __scrt_is_nonwritable_in_current_image$filt$0 000000014002b710 f   MSVCRT:utility.obj
 0002:000004c8       ?pre_cpp_initializer@@3P6AXXZEA 000000014002c4c8     MSVCRT:exe_main.obj
 0002:000004e0       ?pre_c_initializer@@3P6AHXZEA 000000014002c4e0     MSVCRT:exe_main.obj
 0002:000004e8       ?post_pgo_initializer@@3P6AHXZEA 000000014002c4e8     MSVCRT:exe_main.obj
 0002:00000520       err_str                    000000014002c520     pjmedia-audiodev-x86_64-x64-vc14-release:errno.obj
 0002:00000bc0       STR_RTP_AVP                000000014002cbc0     pjmedia-x86_64-x64-vc14-release:endpoint.obj
 0002:00000bd0       STR_IN                     000000014002cbd0     pjmedia-x86_64-x64-vc14-release:endpoint.obj
 0002:00000be0       STR_IP4                    000000014002cbe0     pjmedia-x86_64-x64-vc14-release:endpoint.obj
 0002:00000bf0       STR_IP6                    000000014002cbf0     pjmedia-x86_64-x64-vc14-release:endpoint.obj
 0002:00000c00       STR_SDP_NAME               000000014002cc00     pjmedia-x86_64-x64-vc14-release:endpoint.obj
 0002:00000c10       STR_SENDRECV               000000014002cc10     pjmedia-x86_64-x64-vc14-release:endpoint.obj
 0002:000010f0       err_str                    000000014002d0f0     pjmedia-x86_64-x64-vc14-release:errno.obj
 0002:0000b918       ID_RTP_AVP                 0000000140037918     pjmedia-x86_64-x64-vc14-release:transport_srtp.obj
 0002:0000b928       ID_RTP_SAVP                0000000140037928     pjmedia-x86_64-x64-vc14-release:transport_srtp.obj
 0002:0000b938       ID_CRYPTO                  0000000140037938     pjmedia-x86_64-x64-vc14-release:transport_srtp.obj
 0002:0000c130       base64_char                0000000140038130     pjlib-util-x86_64-x64-vc14-release:base64.obj
 0002:0000c420       err_str                    0000000140038420     pjlib-x86_64-x64-vc14-release:errno.obj
 0002:0000c910       gaErrorList                0000000140038910     pjlib-x86_64-x64-vc14-release:os_error_win32.obj
 0002:0000da00       ?table@?1??hypergeom_gain@@9@9 0000000140039a00     libspeex-x86_64-x64-vc14-release:preprocess.obj
 0002:0000e400       srtp_null_cipher_description 000000014003a400     libsrtp-x86_64-x64-vc14-release:null_cipher.obj
 0002:0000e410       srtp_null_cipher_test_0    000000014003a410     libsrtp-x86_64-x64-vc14-release:null_cipher.obj
 0002:0000e588       srtp_aes_icm_128_description 000000014003a588     libsrtp-x86_64-x64-vc14-release:aes_icm.obj
 0002:0000e5a8       srtp_aes_icm_256_description 000000014003a5a8     libsrtp-x86_64-x64-vc14-release:aes_icm.obj
 0002:0000e5c8       srtp_aes_icm_128_test_case_0_key 000000014003a5c8     libsrtp-x86_64-x64-vc14-release:aes_icm.obj
 0002:0000e5e8       srtp_aes_icm_128_test_case_0_plaintext 000000014003a5e8     libsrtp-x86_64-x64-vc14-release:aes_icm.obj
 0002:0000e608       srtp_aes_icm_128_test_case_0_ciphertext 000000014003a608     libsrtp-x86_64-x64-vc14-release:aes_icm.obj
 0002:0000e630       srtp_aes_icm_128_test_case_0 000000014003a630     libsrtp-x86_64-x64-vc14-release:aes_icm.obj
 0002:0000e688       srtp_aes_icm_256_test_case_0_key 000000014003a688     libsrtp-x86_64-x64-vc14-release:aes_icm.obj
 0002:0000e6b8       srtp_aes_icm_256_test_case_0_plaintext 000000014003a6b8     libsrtp-x86_64-x64-vc14-release:aes_icm.obj
 0002:0000e6d8       srtp_aes_icm_256_test_case_0_ciphertext 000000014003a6d8     libsrtp-x86_64-x64-vc14-release:aes_icm.obj
 0002:0000e700       srtp_aes_icm_256_test_case_0 000000014003a700     libsrtp-x86_64-x64-vc14-release:aes_icm.obj
 0002:0000e850       srtp_null_auth_test_case_0 000000014003a850     libsrtp-x86_64-x64-vc14-release:null_auth.obj
 0002:0000e888       srtp_null_auth_description 000000014003a888     libsrtp-x86_64-x64-vc14-release:null_auth.obj
 0002:0000e960       srtp_hmac_test_case_0_key  000000014003a960     libsrtp-x86_64-x64-vc14-release:hmac.obj
 0002:0000e978       srtp_hmac_test_case_0_data 000000014003a978     libsrtp-x86_64-x64-vc14-release:hmac.obj
 0002:0000e980       srtp_hmac_test_case_0_tag  000000014003a980     libsrtp-x86_64-x64-vc14-release:hmac.obj
 0002:0000e998       srtp_hmac_test_case_0      000000014003a998     libsrtp-x86_64-x64-vc14-release:hmac.obj
 0002:0000e9d0       srtp_hmac_description      000000014003a9d0     libsrtp-x86_64-x64-vc14-release:hmac.obj
 0002:0000ea70       T0                         000000014003aa70     libsrtp-x86_64-x64-vc14-release:aes.obj
 0002:0000ee70       T1                         000000014003ae70     libsrtp-x86_64-x64-vc14-release:aes.obj
 0002:0000f270       T2                         000000014003b270     libsrtp-x86_64-x64-vc14-release:aes.obj
 0002:0000f670       T3                         000000014003b670     libsrtp-x86_64-x64-vc14-release:aes.obj
 0002:0000fa70       U0                         000000014003ba70     libsrtp-x86_64-x64-vc14-release:aes.obj
 0002:0000fe70       U1                         000000014003be70     libsrtp-x86_64-x64-vc14-release:aes.obj
 0002:00010270       U2                         000000014003c270     libsrtp-x86_64-x64-vc14-release:aes.obj
 0002:00010670       U3                         000000014003c670     libsrtp-x86_64-x64-vc14-release:aes.obj
 0002:00010a70       aes_sbox                   000000014003ca70     libsrtp-x86_64-x64-vc14-release:aes.obj
 0002:00010b70       aes_inv_sbox               000000014003cb70     libsrtp-x86_64-x64-vc14-release:aes.obj
 0002:00010d28       GS_ExceptionPointers       000000014003cd28     MSVCRT:gs_report.obj
 0002:00011080       $unwind$printf             000000014003d080     recfile.obj
 0002:0001108c       $unwind$pjmedia_endpt_create 000000014003d08c     recfile.obj
 0002:000110a0       $unwind$pjmedia_endpt_destroy 000000014003d0a0     recfile.obj
 0002:000110a8       $unwind$app_perror         000000014003d0a8     recfile.obj
 0002:000110c0       $unwind$main               000000014003d0c0     recfile.obj
 0002:000110d4       $chain$2$main              000000014003d0d4     recfile.obj
 0002:000110f0       $chain$3$main              000000014003d0f0     recfile.obj
 0002:00011100       $unwind$pjmedia_aud_subsys_init 000000014003d100     pjmedia-audiodev-x86_64-x64-vc14-release:audiodev.obj
 0002:00011114       $chain$0$pjmedia_aud_subsys_shutdown 000000014003d114     pjmedia-audiodev-x86_64-x64-vc14-release:audiodev.obj
 0002:00011128       $chain$1$pjmedia_aud_subsys_shutdown 000000014003d128     pjmedia-audiodev-x86_64-x64-vc14-release:audiodev.obj
 0002:00011138       $unwind$pjmedia_audiodev_strerror 000000014003d138     pjmedia-audiodev-x86_64-x64-vc14-release:errno.obj
 0002:0001114c       $chain$0$pjmedia_audiodev_strerror 000000014003d14c     pjmedia-audiodev-x86_64-x64-vc14-release:errno.obj
 0002:00011160       $chain$1$pjmedia_audiodev_strerror 000000014003d160     pjmedia-audiodev-x86_64-x64-vc14-release:errno.obj
 0002:00011160       $chain$3$pjmedia_audiodev_strerror 000000014003d160     pjmedia-audiodev-x86_64-x64-vc14-release:errno.obj
 0002:00011170       $chain$2$pjmedia_audiodev_strerror 000000014003d170     pjmedia-audiodev-x86_64-x64-vc14-release:errno.obj
 0002:00011184       $unwind$_snprintf          000000014003d184     pjmedia-audiodev-x86_64-x64-vc14-release:errno.obj
 0002:00011194       $unwind$pjmedia_frame_ext_copy_payload 000000014003d194     pjmedia-audiodev-x86_64-x64-vc14-release:wmme_dev.obj
 0002:000111a8       $chain$0$pjmedia_frame_ext_copy_payload 000000014003d1a8     pjmedia-audiodev-x86_64-x64-vc14-release:wmme_dev.obj
 0002:000111bc       $chain$1$pjmedia_frame_ext_copy_payload 000000014003d1bc     pjmedia-audiodev-x86_64-x64-vc14-release:wmme_dev.obj
 0002:000111cc       $unwind$factory_refresh    000000014003d1cc     pjmedia-audiodev-x86_64-x64-vc14-release:wmme_dev.obj
 0002:000111ec       $chain$1$factory_refresh   000000014003d1ec     pjmedia-audiodev-x86_64-x64-vc14-release:wmme_dev.obj
 0002:00011204       $chain$2$factory_refresh   000000014003d204     pjmedia-audiodev-x86_64-x64-vc14-release:wmme_dev.obj
 0002:00011214       $chain$3$factory_refresh   000000014003d214     pjmedia-audiodev-x86_64-x64-vc14-release:wmme_dev.obj
 0002:00011228       $chain$4$factory_refresh   000000014003d228     pjmedia-audiodev-x86_64-x64-vc14-release:wmme_dev.obj
 0002:00011240       $unwind$factory_create_stream 000000014003d240     pjmedia-audiodev-x86_64-x64-vc14-release:wmme_dev.obj
 0002:00011254       $chain$0$factory_create_stream 000000014003d254     pjmedia-audiodev-x86_64-x64-vc14-release:wmme_dev.obj
 0002:00011268       $chain$1$factory_create_stream 000000014003d268     pjmedia-audiodev-x86_64-x64-vc14-release:wmme_dev.obj
 0002:0001127c       $chain$2$factory_create_stream 000000014003d27c     pjmedia-audiodev-x86_64-x64-vc14-release:wmme_dev.obj
 0002:0001128c       $chain$3$factory_create_stream 000000014003d28c     pjmedia-audiodev-x86_64-x64-vc14-release:wmme_dev.obj
 0002:0001129c       $chain$0$stream_get_param  000000014003d29c     pjmedia-audiodev-x86_64-x64-vc14-release:wmme_dev.obj
 0002:000112b0       $chain$2$stream_get_param  000000014003d2b0     pjmedia-audiodev-x86_64-x64-vc14-release:wmme_dev.obj
 0002:000112c4       $chain$3$stream_get_param  000000014003d2c4     pjmedia-audiodev-x86_64-x64-vc14-release:wmme_dev.obj
 0002:000112d4       $unwind$stream_destroy     000000014003d2d4     pjmedia-audiodev-x86_64-x64-vc14-release:wmme_dev.obj
 0002:000112e0       $chain$1$stream_destroy    000000014003d2e0     pjmedia-audiodev-x86_64-x64-vc14-release:wmme_dev.obj
 0002:000112f4       $chain$2$stream_destroy    000000014003d2f4     pjmedia-audiodev-x86_64-x64-vc14-release:wmme_dev.obj
 0002:00011304       $unwind$init_player_stream 000000014003d304     pjmedia-audiodev-x86_64-x64-vc14-release:wmme_dev.obj
 0002:00011320       $chain$0$init_player_stream 000000014003d320     pjmedia-audiodev-x86_64-x64-vc14-release:wmme_dev.obj
 0002:00011334       $chain$1$init_player_stream 000000014003d334     pjmedia-audiodev-x86_64-x64-vc14-release:wmme_dev.obj
 0002:00011348       $chain$2$init_player_stream 000000014003d348     pjmedia-audiodev-x86_64-x64-vc14-release:wmme_dev.obj
 0002:00011358       $chain$3$init_player_stream 000000014003d358     pjmedia-audiodev-x86_64-x64-vc14-release:wmme_dev.obj
 0002:00011368       $unwind$init_capture_stream 000000014003d368     pjmedia-audiodev-x86_64-x64-vc14-release:wmme_dev.obj
 0002:00011384       $chain$0$init_capture_stream 000000014003d384     pjmedia-audiodev-x86_64-x64-vc14-release:wmme_dev.obj
 0002:00011398       $chain$1$init_capture_stream 000000014003d398     pjmedia-audiodev-x86_64-x64-vc14-release:wmme_dev.obj
 0002:000113ac       $chain$2$init_capture_stream 000000014003d3ac     pjmedia-audiodev-x86_64-x64-vc14-release:wmme_dev.obj
 0002:000113bc       $chain$3$init_capture_stream 000000014003d3bc     pjmedia-audiodev-x86_64-x64-vc14-release:wmme_dev.obj
 0002:000113cc       $unwind$wmme_dev_thread    000000014003d3cc     pjmedia-audiodev-x86_64-x64-vc14-release:wmme_dev.obj
 0002:000113f4       $unwind$sprintf            000000014003d3f4     pjmedia-x86_64-x64-vc14-release:endpoint.obj
 0002:00011400       $unwind$pjmedia_endpt_create2 000000014003d400     pjmedia-x86_64-x64-vc14-release:endpoint.obj
 0002:00011418       $chain$3$pjmedia_endpt_create2 000000014003d418     pjmedia-x86_64-x64-vc14-release:endpoint.obj
 0002:00011430       $chain$4$pjmedia_endpt_create2 000000014003d430     pjmedia-x86_64-x64-vc14-release:endpoint.obj
 0002:00011440       $unwind$pjmedia_endpt_stop_threads 000000014003d440     pjmedia-x86_64-x64-vc14-release:endpoint.obj
 0002:00011450       $chain$2$pjmedia_endpt_stop_threads 000000014003d450     pjmedia-x86_64-x64-vc14-release:endpoint.obj
 0002:00011464       $chain$3$pjmedia_endpt_stop_threads 000000014003d464     pjmedia-x86_64-x64-vc14-release:endpoint.obj
 0002:00011474       $chain$0$worker_proc       000000014003d474     pjmedia-x86_64-x64-vc14-release:endpoint.obj
 0002:00011488       $chain$1$worker_proc       000000014003d488     pjmedia-x86_64-x64-vc14-release:endpoint.obj
 0002:00011498       $unwind$pjmedia_snd_port_create_rec 000000014003d498     pjmedia-x86_64-x64-vc14-release:sound_port.obj
 0002:000114b4       $unwind$pjmedia_snd_port_create2 000000014003d4b4     pjmedia-x86_64-x64-vc14-release:sound_port.obj
 0002:000114b4       $unwind$reset_pool         000000014003d4b4     pjlib-x86_64-x64-vc14-release:pool.obj
 0002:000114c4       $chain$0$pjmedia_snd_port_create2 000000014003d4c4     pjmedia-x86_64-x64-vc14-release:sound_port.obj
 0002:000114d8       $chain$2$pjmedia_snd_port_create2 000000014003d4d8     pjmedia-x86_64-x64-vc14-release:sound_port.obj
 0002:000114ec       $chain$3$pjmedia_snd_port_create2 000000014003d4ec     pjmedia-x86_64-x64-vc14-release:sound_port.obj
 0002:000114fc       $unwind$pjmedia_snd_port_set_ec 000000014003d4fc     pjmedia-x86_64-x64-vc14-release:sound_port.obj
 0002:00011514       $chain$0$pjmedia_snd_port_set_ec 000000014003d514     pjmedia-x86_64-x64-vc14-release:sound_port.obj
 0002:00011528       $chain$1$pjmedia_snd_port_set_ec 000000014003d528     pjmedia-x86_64-x64-vc14-release:sound_port.obj
 0002:00011538       $unwind$start_sound_device 000000014003d538     pjmedia-x86_64-x64-vc14-release:sound_port.obj
 0002:00011550       $chain$0$start_sound_device 000000014003d550     pjmedia-x86_64-x64-vc14-release:sound_port.obj
 0002:00011564       $chain$1$start_sound_device 000000014003d564     pjmedia-x86_64-x64-vc14-release:sound_port.obj
 0002:00011574       $unwind$pjmedia_wav_writer_port_create 000000014003d574     pjmedia-x86_64-x64-vc14-release:wav_writer.obj
 0002:00011590       $chain$1$pjmedia_wav_writer_port_create 000000014003d590     pjmedia-x86_64-x64-vc14-release:wav_writer.obj
 0002:000115a8       $chain$2$pjmedia_wav_writer_port_create 000000014003d5a8     pjmedia-x86_64-x64-vc14-release:wav_writer.obj
 0002:000115b8       $unwind$file_put_frame     000000014003d5b8     pjmedia-x86_64-x64-vc14-release:wav_writer.obj
 0002:000115d0       $chain$0$file_put_frame    000000014003d5d0     pjmedia-x86_64-x64-vc14-release:wav_writer.obj
 0002:000115e4       $chain$1$file_put_frame    000000014003d5e4     pjmedia-x86_64-x64-vc14-release:wav_writer.obj
 0002:000115f4       $chain$2$file_put_frame    000000014003d5f4     pjmedia-x86_64-x64-vc14-release:wav_writer.obj
 0002:00011608       $unwind$file_on_destroy    000000014003d608     pjmedia-x86_64-x64-vc14-release:wav_writer.obj
 0002:00011614       $unwind$logging_shutdown   000000014003d614     pjlib-x86_64-x64-vc14-release:log.obj
 0002:00011614       $unwind$pjmedia_clock_src_update 000000014003d614     pjmedia-x86_64-x64-vc14-release:clock_thread.obj
 0002:00011614       $unwind$srtp_inject_mki    000000014003d614     libsrtp-x86_64-x64-vc14-release:srtp.obj
 0002:00011614       $unwind$pjmedia_clock_src_init 000000014003d614     pjmedia-x86_64-x64-vc14-release:clock_thread.obj
 0002:00011614       $unwind$__scrt_acquire_startup_lock 000000014003d614     MSVCRT:utility.obj
 0002:00011614       $unwind$__GSHandlerCheck   000000014003d614     MSVCRT:_gshandler_.obj
 0002:00011614       $unwind$__scrt_is_managed_app 000000014003d614     MSVCRT:utility_desktop.obj
 0002:00011614       $unwind$default_pool_callback 000000014003d614     pjlib-x86_64-x64-vc14-release:pool_policy_malloc.obj
 0002:00011614       $unwind$atexit             000000014003d614     MSVCRT:utility.obj
 0002:00011614       $unwind$get_libsrtp_errstr 000000014003d614     pjmedia-x86_64-x64-vc14-release:transport_srtp.obj
 0002:00011614       $unwind$pj_file_close      000000014003d614     pjlib-x86_64-x64-vc14-release:file_io_win32.obj
 0002:00011614       $unwind$srtp_null_cipher_init 000000014003d614     libsrtp-x86_64-x64-vc14-release:null_cipher.obj
 0002:00011614       $unwind$__report_rangecheckfailure 000000014003d614     MSVCRT:gs_report.obj
 0002:00011614       $unwind$__scrt_unhandled_exception_filter 000000014003d614     MSVCRT:utility_desktop.obj
 0002:00011614       $unwind$?pre_cpp_initialization@@YAXXZ 000000014003d614     MSVCRT:exe_main.obj
 0002:00011614       $unwind$srtp_rdbx_dealloc  000000014003d614     libsrtp-x86_64-x64-vc14-release:rdbx.obj
 0002:00011614       $unwind$file_on_event      000000014003d614     pjmedia-x86_64-x64-vc14-release:wav_writer.obj
 0002:00011614       $unwind$pj_get_os_error    000000014003d614     pjlib-x86_64-x64-vc14-release:os_error_win32.obj
 0002:00011614       $unwind$pool_buf_cleanup   000000014003d614     pjlib-x86_64-x64-vc14-release:pool_buf.obj
 0002:00011614       $unwind$mainCRTStartup     000000014003d614     MSVCRT:exe_main.obj
 0002:00011614       $unwind$__scrt_initialize_default_local_stdio_options 000000014003d614     MSVCRT:default_local_stdio_options.obj
 0002:00011614       $unwind$?post_pgo_initialization@@YAHXZ 000000014003d614     MSVCRT:exe_main.obj
 0002:00011614       $unwind$factory_init       000000014003d614     pjmedia-audiodev-x86_64-x64-vc14-release:wmme_dev.obj
 0002:00011614       $unwind$srtp_aes_expand_encryption_key 000000014003d614     libsrtp-x86_64-x64-vc14-release:aes.obj
 0002:00011614       $unwind$pj_thread_local_set 000000014003d614     pjlib-x86_64-x64-vc14-release:os_core_win32.obj
 0002:00011614       $unwind$pj_get_netos_error 000000014003d614     pjlib-x86_64-x64-vc14-release:os_error_win32.obj
 0002:00011614       $unwind$pj_grp_lock_add_ref 000000014003d614     pjlib-x86_64-x64-vc14-release:lock.obj
 0002:00011614       $unwind$pj_thread_init     000000014003d614     pjlib-x86_64-x64-vc14-release:os_core_win32.obj
 0002:00011614       $unwind$srtp_rdbx_set_roc_seq 000000014003d614     libsrtp-x86_64-x64-vc14-release:rdbx.obj
 0002:0001161c       $unwind$pjmedia_aud_driver_init 000000014003d61c     pjmedia-x86_64-x64-vc14-release:audiodev.obj
 0002:00011638       $chain$2$pjmedia_aud_driver_init 000000014003d638     pjmedia-x86_64-x64-vc14-release:audiodev.obj
 0002:00011654       $chain$3$pjmedia_aud_driver_init 000000014003d654     pjmedia-x86_64-x64-vc14-release:audiodev.obj
 0002:00011664       $chain$4$pjmedia_aud_driver_init 000000014003d664     pjmedia-x86_64-x64-vc14-release:audiodev.obj
 0002:00011680       $chain$0$pjmedia_aud_dev_default_param 000000014003d680     pjmedia-x86_64-x64-vc14-release:audiodev.obj
 0002:00011694       $chain$1$pjmedia_aud_dev_default_param 000000014003d694     pjmedia-x86_64-x64-vc14-release:audiodev.obj
 0002:000116a4       $unwind$pjmedia_aud_stream_create 000000014003d6a4     pjmedia-x86_64-x64-vc14-release:audiodev.obj
 0002:000116c4       $chain$0$pjmedia_aud_stream_create 000000014003d6c4     pjmedia-x86_64-x64-vc14-release:audiodev.obj
 0002:000116d8       $chain$1$pjmedia_aud_stream_create 000000014003d6d8     pjmedia-x86_64-x64-vc14-release:audiodev.obj
 0002:000116e8       $unwind$pjmedia_event_subscribe 000000014003d6e8     pjmedia-x86_64-x64-vc14-release:event.obj
 0002:000116fc       $chain$1$pjmedia_event_subscribe 000000014003d6fc     pjmedia-x86_64-x64-vc14-release:event.obj
 0002:00011710       $chain$4$pjmedia_event_subscribe 000000014003d710     pjmedia-x86_64-x64-vc14-release:event.obj
 0002:00011710       $chain$2$pjmedia_event_subscribe 000000014003d710     pjmedia-x86_64-x64-vc14-release:event.obj
 0002:00011720       $chain$3$pjmedia_event_subscribe 000000014003d720     pjmedia-x86_64-x64-vc14-release:event.obj
 0002:00011734       $unwind$pjmedia_event_unsubscribe 000000014003d734     pjmedia-x86_64-x64-vc14-release:event.obj
 0002:0001174c       $chain$2$pjmedia_event_unsubscribe 000000014003d74c     pjmedia-x86_64-x64-vc14-release:event.obj
 0002:00011760       $chain$3$pjmedia_event_unsubscribe 000000014003d760     pjmedia-x86_64-x64-vc14-release:event.obj
 0002:00011770       $unwind$pjmedia_event_publish 000000014003d770     pjmedia-x86_64-x64-vc14-release:event.obj
 0002:00011784       $chain$1$pjmedia_event_publish 000000014003d784     pjmedia-x86_64-x64-vc14-release:event.obj
 0002:0001179c       $chain$2$pjmedia_event_publish 000000014003d79c     pjmedia-x86_64-x64-vc14-release:event.obj
 0002:000117ac       $unwind$event_queue_add_event 000000014003d7ac     pjmedia-x86_64-x64-vc14-release:event.obj
 0002:000117bc       $unwind$pjmedia_sdp_attr_create 000000014003d7bc     pjmedia-x86_64-x64-vc14-release:sdp.obj
 0002:000117cc       $chain$0$pjmedia_sdp_attr_create 000000014003d7cc     pjmedia-x86_64-x64-vc14-release:sdp.obj
 0002:000117e0       $chain$2$pjmedia_sdp_attr_create 000000014003d7e0     pjmedia-x86_64-x64-vc14-release:sdp.obj
 0002:000117f4       $chain$3$pjmedia_sdp_attr_create 000000014003d7f4     pjmedia-x86_64-x64-vc14-release:sdp.obj
 0002:00011804       $unwind$pjmedia_sdp_attr_find 000000014003d804     pjmedia-x86_64-x64-vc14-release:sdp.obj
 0002:00011818       $chain$1$pjmedia_sdp_attr_find 000000014003d818     pjmedia-x86_64-x64-vc14-release:sdp.obj
 0002:00011830       $chain$2$pjmedia_sdp_attr_find 000000014003d830     pjmedia-x86_64-x64-vc14-release:sdp.obj
 0002:00011840       $chain$3$pjmedia_sdp_attr_find 000000014003d840     pjmedia-x86_64-x64-vc14-release:sdp.obj
 0002:00011858       $unwind$pjmedia_codec_mgr_init 000000014003d858     pjmedia-x86_64-x64-vc14-release:codec.obj
 0002:00011858       $unwind$pj_sem_wait_for    000000014003d858     pjlib-x86_64-x64-vc14-release:os_core_win32.obj
 0002:00011858       $unwind$pj_stricmp2        000000014003d858     pjlib-x86_64-x64-vc14-release:string.obj
 0002:00011858       $unwind$pj_term_set_color  000000014003d858     pjlib-x86_64-x64-vc14-release:os_core_win32.obj
 0002:00011858       $unwind$pj_thread_check_stack 000000014003d858     pjlib-x86_64-x64-vc14-release:os_core_win32.obj
 0002:00011858       $unwind$pjmedia_wmme_factory 000000014003d858     pjmedia-audiodev-x86_64-x64-vc14-release:wmme_dev.obj
 0002:00011858       $unwind$pj_file_write      000000014003d858     pjlib-x86_64-x64-vc14-release:file_io_win32.obj
 0002:00011864       $chain$0$pjmedia_codec_mgr_destroy 000000014003d864     pjmedia-x86_64-x64-vc14-release:codec.obj
 0002:00011878       $chain$1$pjmedia_codec_mgr_destroy 000000014003d878     pjmedia-x86_64-x64-vc14-release:codec.obj
 0002:0001188c       $chain$2$pjmedia_codec_mgr_destroy 000000014003d88c     pjmedia-x86_64-x64-vc14-release:codec.obj
 0002:0001189c       $chain$3$pjmedia_codec_mgr_destroy 000000014003d89c     pjmedia-x86_64-x64-vc14-release:codec.obj
 0002:000118ac       $unwind$pjmedia_strerror   000000014003d8ac     pjmedia-x86_64-x64-vc14-release:errno.obj
 0002:000118c0       $chain$1$pjmedia_strerror  000000014003d8c0     pjmedia-x86_64-x64-vc14-release:errno.obj
 0002:000118d4       $chain$2$pjmedia_strerror  000000014003d8d4     pjmedia-x86_64-x64-vc14-release:errno.obj
 0002:000118e4       $unwind$pjmedia_echo_create2 000000014003d8e4     pjmedia-x86_64-x64-vc14-release:echo_common.obj
 0002:000118fc       $unwind$bitvector_dealloc  000000014003d8fc     libsrtp-x86_64-x64-vc14-release:datatypes.obj
 0002:000118fc       $unwind$srtp_event_reporter 000000014003d8fc     libsrtp-x86_64-x64-vc14-release:srtp.obj
 0002:000118fc       $unwind$__scrt_initialize_crt 000000014003d8fc     MSVCRT:utility.obj
 0002:000118fc       $unwind$__scrt_release_startup_lock 000000014003d8fc     MSVCRT:utility.obj
 0002:000118fc       $unwind$pj_log_init        000000014003d8fc     pjlib-x86_64-x64-vc14-release:log.obj
 0002:000118fc       $unwind$increment_counter  000000014003d8fc     pjlib-x86_64-x64-vc14-release:ioqueue_select.obj
 0002:000118fc       $unwind$__scrt_uninitialize_crt 000000014003d8fc     MSVCRT:utility.obj
 0002:000118fc       $unwind$pj_time_val_normalize 000000014003d8fc     pjlib-x86_64-x64-vc14-release:types.obj
 0002:000118fc       $unwind$stream_get_param   000000014003d8fc     pjmedia-audiodev-x86_64-x64-vc14-release:wmme_dev.obj
 0002:000118fc       $unwind$spx_fft_destroy    000000014003d8fc     libspeex-x86_64-x64-vc14-release:fftwrap.obj
 0002:000118fc       $unwind$pj_pool_destroy_int 000000014003d8fc     pjlib-x86_64-x64-vc14-release:pool.obj
 0002:000118fc       $unwind$srtp_rdbx_init     000000014003d8fc     libsrtp-x86_64-x64-vc14-release:rdbx.obj
 0002:000118fc       $unwind$transport_send_rtp 000000014003d8fc     pjmedia-x86_64-x64-vc14-release:transport_srtp.obj
 0002:000118fc       $unwind$stream_get_cap     000000014003d8fc     pjmedia-audiodev-x86_64-x64-vc14-release:wmme_dev.obj
 0002:000118fc       $unwind$stream_start       000000014003d8fc     pjmedia-audiodev-x86_64-x64-vc14-release:wmme_dev.obj
 0002:000118fc       $unwind$speex_echo_state_destroy 000000014003d8fc     libspeex-x86_64-x64-vc14-release:mdf.obj
 0002:000118fc       $unwind$srtp_hmac_dealloc  000000014003d8fc     libsrtp-x86_64-x64-vc14-release:hmac.obj
 0002:000118fc       $unwind$_onexit            000000014003d8fc     MSVCRT:utility.obj
 0002:000118fc       $unwind$srtp_null_cipher_dealloc 000000014003d8fc     libsrtp-x86_64-x64-vc14-release:null_cipher.obj
 0002:000118fc       $unwind$transport_media_stop 000000014003d8fc     pjmedia-x86_64-x64-vc14-release:transport_srtp.obj
 0002:000118fc       $unwind$stream_stop        000000014003d8fc     pjmedia-audiodev-x86_64-x64-vc14-release:wmme_dev.obj
 0002:000118fc       $unwind$speex_aec_destroy  000000014003d8fc     pjmedia-x86_64-x64-vc14-release:echo_speex.obj
 0002:000118fc       $unwind$srtp_crypto_free   000000014003d8fc     libsrtp-x86_64-x64-vc14-release:alloc.obj
 0002:000118fc       $unwind$sdes_media_create  000000014003d8fc     pjmedia-x86_64-x64-vc14-release:transport_srtp.obj
 0002:000118fc       $unwind$pj_thread_local_alloc 000000014003d8fc     pjlib-x86_64-x64-vc14-release:os_core_win32.obj
 0002:000118fc       $unwind$filterbank_destroy 000000014003d8fc     libspeex-x86_64-x64-vc14-release:filterbank.obj
 0002:000118fc       $unwind$pjmedia_echo_destroy 000000014003d8fc     pjmedia-x86_64-x64-vc14-release:echo_common.obj
 0002:000118fc       $unwind$pjmedia_aud_dev_default_param 000000014003d8fc     pjmedia-x86_64-x64-vc14-release:audiodev.obj
 0002:000118fc       $unwind$pjmedia_aud_dev_get_info 000000014003d8fc     pjmedia-x86_64-x64-vc14-release:audiodev.obj
 0002:000118fc       $unwind$__raise_securityfailure 000000014003d8fc     MSVCRT:gs_report.obj
 0002:000118fc       $unwind$echo_supp_reset    000000014003d8fc     pjmedia-x86_64-x64-vc14-release:echo_suppress.obj
 0002:000118fc       $unwind$pjmedia_snd_port_destroy 000000014003d8fc     pjmedia-x86_64-x64-vc14-release:sound_port.obj
 0002:000118fc       $unwind$pj_file_setpos     000000014003d8fc     pjlib-x86_64-x64-vc14-release:file_io_win32.obj
 0002:000118fc       $unwind$pj_get_timestamp_freq 000000014003d8fc     pjlib-x86_64-x64-vc14-release:os_timestamp_win32.obj
 0002:000118fc       $unwind$srtp_null_auth_dealloc 000000014003d8fc     libsrtp-x86_64-x64-vc14-release:null_auth.obj
 0002:000118fc       $unwind$pj_pool_reset      000000014003d8fc     pjlib-x86_64-x64-vc14-release:pool.obj
 0002:000118fc       $unwind$worker_proc        000000014003d8fc     pjmedia-x86_64-x64-vc14-release:endpoint.obj
 0002:000118fc       $unwind$pjmedia_echo_stat_default 000000014003d8fc     pjmedia-x86_64-x64-vc14-release:echo_common.obj
 0002:000118fc       $unwind$PJ_FD_ZERO         000000014003d8fc     pjlib-x86_64-x64-vc14-release:sock_select.obj
 0002:000118fc       $unwind$pj_grp_lock_dec_ref 000000014003d8fc     pjlib-x86_64-x64-vc14-release:lock.obj
 0002:000118fc       $unwind$pj_rand            000000014003d8fc     pjlib-x86_64-x64-vc14-release:rand.obj
 0002:000118fc       $unwind$pjmedia_aud_driver_deinit 000000014003d8fc     pjmedia-x86_64-x64-vc14-release:audiodev.obj
 0002:000118fc       $unwind$?pre_c_initialization@@YAHXZ 000000014003d8fc     MSVCRT:exe_main.obj
 0002:000118fc       $unwind$speex_decorrelate_destroy 000000014003d8fc     libspeex-x86_64-x64-vc14-release:scal.obj
 0002:000118fc       $unwind$speex_preprocess_state_destroy 000000014003d8fc     libspeex-x86_64-x64-vc14-release:preprocess.obj
 0002:000118fc       $unwind$pj_gettickcount    000000014003d8fc     pjlib-x86_64-x64-vc14-release:os_timestamp_common.obj
 0002:000118fc       $unwind$wsola_fade_out     000000014003d8fc     pjmedia-x86_64-x64-vc14-release:wsola.obj
 0002:000118fc       $unwind$pj_get_timestamp   000000014003d8fc     pjlib-x86_64-x64-vc14-release:os_timestamp_win32.obj
 0002:000118fc       $unwind$pj_exception_id_free 000000014003d8fc     pjlib-x86_64-x64-vc14-release:except.obj
 0002:00011904       $chain$0$pjmedia_echo_playback 000000014003d904     pjmedia-x86_64-x64-vc14-release:echo_common.obj
 0002:00011918       $chain$2$pjmedia_echo_playback 000000014003d918     pjmedia-x86_64-x64-vc14-release:echo_common.obj
 0002:0001192c       $unwind$pjmedia_echo_capture 000000014003d92c     pjmedia-x86_64-x64-vc14-release:echo_common.obj
 0002:00011944       $unwind$pjmedia_transport_srtp_start 000000014003d944     pjmedia-x86_64-x64-vc14-release:transport_srtp.obj
 0002:00011960       $chain$2$pjmedia_transport_srtp_start 000000014003d960     pjmedia-x86_64-x64-vc14-release:transport_srtp.obj
 0002:0001197c       $chain$3$pjmedia_transport_srtp_start 000000014003d97c     pjmedia-x86_64-x64-vc14-release:transport_srtp.obj
 0002:0001198c       $chain$4$pjmedia_transport_srtp_start 000000014003d98c     pjmedia-x86_64-x64-vc14-release:transport_srtp.obj
 0002:000119a8       $unwind$pjmedia_transport_srtp_stop 000000014003d9a8     pjmedia-x86_64-x64-vc14-release:transport_srtp.obj
 0002:000119bc       $unwind$srtp_rtp_cb        000000014003d9bc     pjmedia-x86_64-x64-vc14-release:transport_srtp.obj
 0002:000119d0       $chain$0$srtp_rtp_cb       000000014003d9d0     pjmedia-x86_64-x64-vc14-release:transport_srtp.obj
 0002:000119e4       $chain$1$srtp_rtp_cb       000000014003d9e4     pjmedia-x86_64-x64-vc14-release:transport_srtp.obj
 0002:000119f8       $chain$3$srtp_rtp_cb       000000014003d9f8     pjmedia-x86_64-x64-vc14-release:transport_srtp.obj
 0002:00011a0c       $chain$2$srtp_rtp_cb       000000014003da0c     pjmedia-x86_64-x64-vc14-release:transport_srtp.obj
 0002:00011a0c       $chain$4$srtp_rtp_cb       000000014003da0c     pjmedia-x86_64-x64-vc14-release:transport_srtp.obj
 0002:00011a1c       $chain$5$srtp_rtp_cb       000000014003da1c     pjmedia-x86_64-x64-vc14-release:transport_srtp.obj
 0002:00011a2c       $unwind$srtp_rtcp_cb       000000014003da2c     pjmedia-x86_64-x64-vc14-release:transport_srtp.obj
 0002:00011a40       $chain$0$srtp_rtcp_cb      000000014003da40     pjmedia-x86_64-x64-vc14-release:transport_srtp.obj
 0002:00011a54       $chain$1$srtp_rtcp_cb      000000014003da54     pjmedia-x86_64-x64-vc14-release:transport_srtp.obj
 0002:00011a64       $unwind$transport_get_info 000000014003da64     pjmedia-x86_64-x64-vc14-release:transport_srtp.obj
 0002:00011a70       $chain$0$transport_get_info 000000014003da70     pjmedia-x86_64-x64-vc14-release:transport_srtp.obj
 0002:00011a84       $chain$1$transport_get_info 000000014003da84     pjmedia-x86_64-x64-vc14-release:transport_srtp.obj
 0002:00011a94       $unwind$transport_detach   000000014003da94     pjmedia-x86_64-x64-vc14-release:transport_srtp.obj
 0002:00011a94       $unwind$spx_drft_clear     000000014003da94     libspeex-x86_64-x64-vc14-release:smallft.obj
 0002:00011a9c       $chain$0$transport_detach  000000014003da9c     pjmedia-x86_64-x64-vc14-release:transport_srtp.obj
 0002:00011ab0       $chain$1$transport_detach  000000014003dab0     pjmedia-x86_64-x64-vc14-release:transport_srtp.obj
 0002:00011ac0       $chain$0$transport_send_rtp 000000014003dac0     pjmedia-x86_64-x64-vc14-release:transport_srtp.obj
 0002:00011ad4       $chain$3$transport_send_rtp 000000014003dad4     pjmedia-x86_64-x64-vc14-release:transport_srtp.obj
 0002:00011aec       $chain$5$transport_send_rtp 000000014003daec     pjmedia-x86_64-x64-vc14-release:transport_srtp.obj
 0002:00011b04       $unwind$spx_drft_backward  000000014003db04     libspeex-x86_64-x64-vc14-release:smallft.obj
 0002:00011b04       $unwind$spx_drft_forward   000000014003db04     libspeex-x86_64-x64-vc14-release:smallft.obj
 0002:00011b04       $unwind$transport_send_rtcp 000000014003db04     pjmedia-x86_64-x64-vc14-release:transport_srtp.obj
 0002:00011b04       $unwind$pj_enter_critical_section 000000014003db04     pjlib-x86_64-x64-vc14-release:os_core_win32.obj
 0002:00011b04       $unwind$pj_leave_critical_section 000000014003db04     pjlib-x86_64-x64-vc14-release:os_core_win32.obj
 0002:00011b04       $unwind$srtp_protect       000000014003db04     libsrtp-x86_64-x64-vc14-release:srtp.obj
 0002:00011b04       $unwind$srtp_protect_rtcp  000000014003db04     libsrtp-x86_64-x64-vc14-release:srtp.obj
 0002:00011b0c       $unwind$transport_send_rtcp2 000000014003db0c     pjmedia-x86_64-x64-vc14-release:transport_srtp.obj
 0002:00011b20       $chain$1$transport_send_rtcp2 000000014003db20     pjmedia-x86_64-x64-vc14-release:transport_srtp.obj
 0002:00011b34       $chain$2$transport_send_rtcp2 000000014003db34     pjmedia-x86_64-x64-vc14-release:transport_srtp.obj
 0002:00011b44       $unwind$transport_encode_sdp 000000014003db44     pjmedia-x86_64-x64-vc14-release:transport_srtp.obj
 0002:00011b44       $unwind$transport_media_create 000000014003db44     pjmedia-x86_64-x64-vc14-release:transport_srtp.obj
 0002:00011b54       $chain$0$transport_media_create 000000014003db54     pjmedia-x86_64-x64-vc14-release:transport_srtp.obj
 0002:00011b68       $chain$1$transport_media_create 000000014003db68     pjmedia-x86_64-x64-vc14-release:transport_srtp.obj
 0002:00011b7c       $chain$2$transport_media_create 000000014003db7c     pjmedia-x86_64-x64-vc14-release:transport_srtp.obj
 0002:00011b90       $chain$3$transport_media_create 000000014003db90     pjmedia-x86_64-x64-vc14-release:transport_srtp.obj
 0002:00011ba0       $chain$4$transport_media_create 000000014003dba0     pjmedia-x86_64-x64-vc14-release:transport_srtp.obj
 0002:00011bb0       $chain$6$transport_media_create 000000014003dbb0     pjmedia-x86_64-x64-vc14-release:transport_srtp.obj
 0002:00011bc4       $chain$0$transport_encode_sdp 000000014003dbc4     pjmedia-x86_64-x64-vc14-release:transport_srtp.obj
 0002:00011bd8       $chain$1$transport_encode_sdp 000000014003dbd8     pjmedia-x86_64-x64-vc14-release:transport_srtp.obj
 0002:00011bec       $chain$2$transport_encode_sdp 000000014003dbec     pjmedia-x86_64-x64-vc14-release:transport_srtp.obj
 0002:00011c00       $chain$3$transport_encode_sdp 000000014003dc00     pjmedia-x86_64-x64-vc14-release:transport_srtp.obj
 0002:00011c10       $chain$4$transport_encode_sdp 000000014003dc10     pjmedia-x86_64-x64-vc14-release:transport_srtp.obj
 0002:00011c20       $chain$6$transport_encode_sdp 000000014003dc20     pjmedia-x86_64-x64-vc14-release:transport_srtp.obj
 0002:00011c34       $chain$7$transport_encode_sdp 000000014003dc34     pjmedia-x86_64-x64-vc14-release:transport_srtp.obj
 0002:00011c44       $unwind$pjmedia_wsola_discard 000000014003dc44     pjmedia-x86_64-x64-vc14-release:wsola.obj
 0002:00011c44       $unwind$transport_media_start 000000014003dc44     pjmedia-x86_64-x64-vc14-release:transport_srtp.obj
 0002:00011c54       $chain$0$transport_media_start 000000014003dc54     pjmedia-x86_64-x64-vc14-release:transport_srtp.obj
 0002:00011c68       $chain$1$transport_media_start 000000014003dc68     pjmedia-x86_64-x64-vc14-release:transport_srtp.obj
 0002:00011c7c       $chain$2$transport_media_start 000000014003dc7c     pjmedia-x86_64-x64-vc14-release:transport_srtp.obj
 0002:00011c90       $chain$3$transport_media_start 000000014003dc90     pjmedia-x86_64-x64-vc14-release:transport_srtp.obj
 0002:00011ca0       $chain$4$transport_media_start 000000014003dca0     pjmedia-x86_64-x64-vc14-release:transport_srtp.obj
 0002:00011cb0       $chain$6$transport_media_start 000000014003dcb0     pjmedia-x86_64-x64-vc14-release:transport_srtp.obj
 0002:00011cb0       $chain$8$transport_media_start 000000014003dcb0     pjmedia-x86_64-x64-vc14-release:transport_srtp.obj
 0002:00011cc4       $chain$0$transport_media_stop 000000014003dcc4     pjmedia-x86_64-x64-vc14-release:transport_srtp.obj
 0002:00011cd8       $chain$4$transport_media_stop 000000014003dcd8     pjmedia-x86_64-x64-vc14-release:transport_srtp.obj
 0002:00011cf4       $unwind$transport_destroy  000000014003dcf4     pjmedia-x86_64-x64-vc14-release:transport_srtp.obj
 0002:00011d00       $unwind$transport_attach2  000000014003dd00     pjmedia-x86_64-x64-vc14-release:transport_srtp.obj
 0002:00011d14       $chain$1$transport_attach2 000000014003dd14     pjmedia-x86_64-x64-vc14-release:transport_srtp.obj
 0002:00011d2c       $chain$3$transport_attach2 000000014003dd2c     pjmedia-x86_64-x64-vc14-release:transport_srtp.obj
 0002:00011d44       $chain$2$transport_attach2 000000014003dd44     pjmedia-x86_64-x64-vc14-release:transport_srtp.obj
 0002:00011d44       $chain$4$transport_attach2 000000014003dd44     pjmedia-x86_64-x64-vc14-release:transport_srtp.obj
 0002:00011d54       $unwind$get_crypto_idx     000000014003dd54     pjmedia-x86_64-x64-vc14-release:transport_srtp.obj
 0002:00011d68       $chain$0$start_srtp        000000014003dd68     pjmedia-x86_64-x64-vc14-release:transport_srtp.obj
 0002:00011d7c       $chain$1$start_srtp        000000014003dd7c     pjmedia-x86_64-x64-vc14-release:transport_srtp.obj
 0002:00011d8c       $unwind$sdes_encode_sdp    000000014003dd8c     pjmedia-x86_64-x64-vc14-release:transport_srtp.obj
 0002:00011da8       $chain$2$sdes_encode_sdp   000000014003dda8     pjmedia-x86_64-x64-vc14-release:transport_srtp.obj
 0002:00011dc4       $chain$3$sdes_encode_sdp   000000014003ddc4     pjmedia-x86_64-x64-vc14-release:transport_srtp.obj
 0002:00011dd4       $unwind$sdes_media_start   000000014003ddd4     pjmedia-x86_64-x64-vc14-release:transport_srtp.obj
 0002:00011df0       $chain$1$sdes_media_start  000000014003ddf0     pjmedia-x86_64-x64-vc14-release:transport_srtp.obj
 0002:00011e08       $chain$2$sdes_media_start  000000014003de08     pjmedia-x86_64-x64-vc14-release:transport_srtp.obj
 0002:00011e18       $unwind$generate_crypto_attr_value 000000014003de18     pjmedia-x86_64-x64-vc14-release:transport_srtp.obj
 0002:00011e34       $chain$2$generate_crypto_attr_value 000000014003de34     pjmedia-x86_64-x64-vc14-release:transport_srtp.obj
 0002:00011e50       $chain$3$generate_crypto_attr_value 000000014003de50     pjmedia-x86_64-x64-vc14-release:transport_srtp.obj
 0002:00011e60       $chain$4$generate_crypto_attr_value 000000014003de60     pjmedia-x86_64-x64-vc14-release:transport_srtp.obj
 0002:00011e7c       $unwind$parse_attr_crypto  000000014003de7c     pjmedia-x86_64-x64-vc14-release:transport_srtp.obj
 0002:00011e94       $unwind$fill_local_crypto  000000014003de94     pjmedia-x86_64-x64-vc14-release:transport_srtp.obj
 0002:00011eb4       $unwind$echo_supp_create   000000014003deb4     pjmedia-x86_64-x64-vc14-release:echo_suppress.obj
 0002:00011ec8       $chain$0$echo_supp_create  000000014003dec8     pjmedia-x86_64-x64-vc14-release:echo_suppress.obj
 0002:00011edc       $chain$1$echo_supp_create  000000014003dedc     pjmedia-x86_64-x64-vc14-release:echo_suppress.obj
 0002:00011eec       $unwind$echo_supp_get_stat 000000014003deec     pjmedia-x86_64-x64-vc14-release:echo_suppress.obj
 0002:00011f04       $unwind$pj_caching_pool_destroy 000000014003df04     pjlib-x86_64-x64-vc14-release:pool_caching.obj
 0002:00011f04       $unwind$echo_supp_cancel_echo 000000014003df04     pjmedia-x86_64-x64-vc14-release:echo_suppress.obj
 0002:00011f1c       $unwind$echo_supp_update   000000014003df1c     pjmedia-x86_64-x64-vc14-release:echo_suppress.obj
 0002:00011f2c       $chain$1$echo_supp_update  000000014003df2c     pjmedia-x86_64-x64-vc14-release:echo_suppress.obj
 0002:00011f44       $chain$2$echo_supp_update  000000014003df44     pjmedia-x86_64-x64-vc14-release:echo_suppress.obj
 0002:00011f58       $chain$3$echo_supp_update  000000014003df58     pjmedia-x86_64-x64-vc14-release:echo_suppress.obj
 0002:00011f6c       $chain$4$echo_supp_update  000000014003df6c     pjmedia-x86_64-x64-vc14-release:echo_suppress.obj
 0002:00011f7c       $chain$5$echo_supp_update  000000014003df7c     pjmedia-x86_64-x64-vc14-release:echo_suppress.obj
 0002:00011f8c       $chain$6$echo_supp_update  000000014003df8c     pjmedia-x86_64-x64-vc14-release:echo_suppress.obj
 0002:00011f9c       $chain$7$echo_supp_update  000000014003df9c     pjmedia-x86_64-x64-vc14-release:echo_suppress.obj
 0002:00011fb8       $unwind$speex_aec_create   000000014003dfb8     pjmedia-x86_64-x64-vc14-release:echo_speex.obj
 0002:00011fd0       $chain$0$speex_aec_create  000000014003dfd0     pjmedia-x86_64-x64-vc14-release:echo_speex.obj
 0002:00011fe4       $chain$1$speex_aec_create  000000014003dfe4     pjmedia-x86_64-x64-vc14-release:echo_speex.obj
 0002:00011ff4       $chain$0$speex_aec_destroy 000000014003dff4     pjmedia-x86_64-x64-vc14-release:echo_speex.obj
 0002:00012008       $chain$1$speex_aec_destroy 000000014003e008     pjmedia-x86_64-x64-vc14-release:echo_speex.obj
 0002:0001201c       $chain$2$speex_aec_destroy 000000014003e01c     pjmedia-x86_64-x64-vc14-release:echo_speex.obj
 0002:00012030       $chain$3$speex_aec_destroy 000000014003e030     pjmedia-x86_64-x64-vc14-release:echo_speex.obj
 0002:00012040       $chain$4$speex_aec_destroy 000000014003e040     pjmedia-x86_64-x64-vc14-release:echo_speex.obj
 0002:00012050       $chain$5$speex_aec_destroy 000000014003e050     pjmedia-x86_64-x64-vc14-release:echo_speex.obj
 0002:00012060       $unwind$speex_aec_cancel_echo 000000014003e060     pjmedia-x86_64-x64-vc14-release:echo_speex.obj
 0002:00012060       $unwind$speex_aec_capture  000000014003e060     pjmedia-x86_64-x64-vc14-release:echo_speex.obj
 0002:00012060       $unwind$speex_echo_playback 000000014003e060     libspeex-x86_64-x64-vc14-release:mdf.obj
 0002:0001206c       $chain$0$speex_aec_cancel_echo 000000014003e06c     pjmedia-x86_64-x64-vc14-release:echo_speex.obj
 0002:00012080       $chain$1$speex_aec_cancel_echo 000000014003e080     pjmedia-x86_64-x64-vc14-release:echo_speex.obj
 0002:00012090       $chain$0$speex_aec_capture 000000014003e090     pjmedia-x86_64-x64-vc14-release:echo_speex.obj
 0002:000120a4       $chain$1$speex_aec_capture 000000014003e0a4     pjmedia-x86_64-x64-vc14-release:echo_speex.obj
 0002:000120b4       $unwind$pjmedia_delay_buf_create 000000014003e0b4     pjmedia-x86_64-x64-vc14-release:delaybuf.obj
 0002:000120cc       $chain$0$pjmedia_delay_buf_create 000000014003e0cc     pjmedia-x86_64-x64-vc14-release:delaybuf.obj
 0002:000120e0       $chain$1$pjmedia_delay_buf_create 000000014003e0e0     pjmedia-x86_64-x64-vc14-release:delaybuf.obj
 0002:000120f0       $unwind$pjmedia_delay_buf_put 000000014003e0f0     pjmedia-x86_64-x64-vc14-release:delaybuf.obj
 0002:000120fc       $chain$0$pjmedia_delay_buf_put 000000014003e0fc     pjmedia-x86_64-x64-vc14-release:delaybuf.obj
 0002:00012110       $chain$2$pjmedia_delay_buf_put 000000014003e110     pjmedia-x86_64-x64-vc14-release:delaybuf.obj
 0002:00012124       $chain$3$pjmedia_delay_buf_put 000000014003e124     pjmedia-x86_64-x64-vc14-release:delaybuf.obj
 0002:00012134       $chain$0$pjmedia_delay_buf_get 000000014003e134     pjmedia-x86_64-x64-vc14-release:delaybuf.obj
 0002:00012148       $chain$1$pjmedia_delay_buf_get 000000014003e148     pjmedia-x86_64-x64-vc14-release:delaybuf.obj
 0002:00012158       $unwind$pjmedia_circ_buf_read 000000014003e158     pjmedia-x86_64-x64-vc14-release:delaybuf.obj
 0002:0001216c       $chain$0$pjmedia_circ_buf_read 000000014003e16c     pjmedia-x86_64-x64-vc14-release:delaybuf.obj
 0002:00012180       $chain$1$pjmedia_circ_buf_read 000000014003e180     pjmedia-x86_64-x64-vc14-release:delaybuf.obj
 0002:00012190       $unwind$pjmedia_circ_buf_write 000000014003e190     pjmedia-x86_64-x64-vc14-release:wsola.obj
 0002:00012190       $unwind$pjmedia_circ_buf_write 000000014003e190     pjmedia-x86_64-x64-vc14-release:delaybuf.obj
 0002:000121a4       $chain$0$pjmedia_circ_buf_write 000000014003e1a4     pjmedia-x86_64-x64-vc14-release:delaybuf.obj
 0002:000121a4       $chain$0$pjmedia_circ_buf_write 000000014003e1a4     pjmedia-x86_64-x64-vc14-release:wsola.obj
 0002:000121b8       $chain$1$pjmedia_circ_buf_write 000000014003e1b8     pjmedia-x86_64-x64-vc14-release:delaybuf.obj
 0002:000121b8       $chain$1$pjmedia_circ_buf_write 000000014003e1b8     pjmedia-x86_64-x64-vc14-release:wsola.obj
 0002:000121c8       $unwind$shrink_buffer      000000014003e1c8     pjmedia-x86_64-x64-vc14-release:delaybuf.obj
 0002:000121d0       $chain$0$update            000000014003e1d0     pjmedia-x86_64-x64-vc14-release:delaybuf.obj
 0002:000121e4       $chain$1$update            000000014003e1e4     pjmedia-x86_64-x64-vc14-release:delaybuf.obj
 0002:000121f4       $unwind$pjmedia_wsola_create 000000014003e1f4     pjmedia-x86_64-x64-vc14-release:wsola.obj
 0002:00012204       $chain$0$pjmedia_wsola_create 000000014003e204     pjmedia-x86_64-x64-vc14-release:wsola.obj
 0002:00012218       $chain$2$pjmedia_wsola_create 000000014003e218     pjmedia-x86_64-x64-vc14-release:wsola.obj
 0002:00012230       $chain$3$pjmedia_wsola_create 000000014003e230     pjmedia-x86_64-x64-vc14-release:wsola.obj
 0002:00012244       $chain$4$pjmedia_wsola_create 000000014003e244     pjmedia-x86_64-x64-vc14-release:wsola.obj
 0002:00012254       $chain$5$pjmedia_wsola_create 000000014003e254     pjmedia-x86_64-x64-vc14-release:wsola.obj
 0002:00012264       $unwind$pjmedia_wsola_save 000000014003e264     pjmedia-x86_64-x64-vc14-release:wsola.obj
 0002:00012270       $chain$2$pjmedia_wsola_save 000000014003e270     pjmedia-x86_64-x64-vc14-release:wsola.obj
 0002:0001228c       $chain$5$pjmedia_wsola_save 000000014003e28c     pjmedia-x86_64-x64-vc14-release:wsola.obj
 0002:000122a8       $chain$6$pjmedia_wsola_save 000000014003e2a8     pjmedia-x86_64-x64-vc14-release:wsola.obj
 0002:000122b8       $chain$7$pjmedia_wsola_save 000000014003e2b8     pjmedia-x86_64-x64-vc14-release:wsola.obj
 0002:000122c8       $chain$0$pjmedia_wsola_discard 000000014003e2c8     pjmedia-x86_64-x64-vc14-release:wsola.obj
 0002:000122dc       $chain$2$pjmedia_wsola_discard 000000014003e2dc     pjmedia-x86_64-x64-vc14-release:wsola.obj
 0002:000122dc       $chain$4$pjmedia_wsola_discard 000000014003e2dc     pjmedia-x86_64-x64-vc14-release:wsola.obj
 0002:000122f0       $chain$5$pjmedia_wsola_discard 000000014003e2f0     pjmedia-x86_64-x64-vc14-release:wsola.obj
 0002:00012304       $chain$6$pjmedia_wsola_discard 000000014003e304     pjmedia-x86_64-x64-vc14-release:wsola.obj
 0002:00012318       $chain$7$pjmedia_wsola_discard 000000014003e318     pjmedia-x86_64-x64-vc14-release:wsola.obj
 0002:00012328       $chain$8$pjmedia_wsola_discard 000000014003e328     pjmedia-x86_64-x64-vc14-release:wsola.obj
 0002:00012338       $unwind$pjmedia_circ_buf_copy 000000014003e338     pjmedia-x86_64-x64-vc14-release:wsola.obj
 0002:0001234c       $unwind$pjmedia_circ_buf_pack_buffer 000000014003e34c     pjmedia-x86_64-x64-vc14-release:wsola.obj
 0002:00012360       $chain$1$pjmedia_circ_buf_pack_buffer 000000014003e360     pjmedia-x86_64-x64-vc14-release:wsola.obj
 0002:00012378       $chain$2$pjmedia_circ_buf_pack_buffer 000000014003e378     pjmedia-x86_64-x64-vc14-release:wsola.obj
 0002:00012388       $unwind$find_pitch         000000014003e388     pjmedia-x86_64-x64-vc14-release:wsola.obj
 0002:00012394       $chain$4$find_pitch        000000014003e394     pjmedia-x86_64-x64-vc14-release:wsola.obj
 0002:000123b8       $chain$5$find_pitch        000000014003e3b8     pjmedia-x86_64-x64-vc14-release:wsola.obj
 0002:000123c8       $unwind$overlapp_add       000000014003e3c8     pjmedia-x86_64-x64-vc14-release:wsola.obj
 0002:000123d4       $chain$3$overlapp_add      000000014003e3d4     pjmedia-x86_64-x64-vc14-release:wsola.obj
 0002:000123f4       $chain$4$overlapp_add      000000014003e3f4     pjmedia-x86_64-x64-vc14-release:wsola.obj
 0002:00012404       $chain$1$overlapp_add_simple 000000014003e404     pjmedia-x86_64-x64-vc14-release:wsola.obj
 0002:0001241c       $chain$2$overlapp_add_simple 000000014003e41c     pjmedia-x86_64-x64-vc14-release:wsola.obj
 0002:0001242c       $unwind$create_win         000000014003e42c     pjmedia-x86_64-x64-vc14-release:wsola.obj
 0002:00012444       $chain$1$create_win        000000014003e444     pjmedia-x86_64-x64-vc14-release:wsola.obj
 0002:0001245c       $chain$5$create_win        000000014003e45c     pjmedia-x86_64-x64-vc14-release:wsola.obj
 0002:0001247c       $chain$6$create_win        000000014003e47c     pjmedia-x86_64-x64-vc14-release:wsola.obj
 0002:0001248c       $chain$7$create_win        000000014003e48c     pjmedia-x86_64-x64-vc14-release:wsola.obj
 0002:0001249c       $unwind$expand             000000014003e49c     pjmedia-x86_64-x64-vc14-release:wsola.obj
 0002:0001249c       $unwind$compress           000000014003e49c     pjmedia-x86_64-x64-vc14-release:wsola.obj
 0002:000124b8       $unwind$pj_base64_encode   000000014003e4b8     pjlib-util-x86_64-x64-vc14-release:base64.obj
 0002:000124c4       $chain$2$pj_base64_encode  000000014003e4c4     pjlib-util-x86_64-x64-vc14-release:base64.obj
 0002:000124e0       $chain$3$pj_base64_encode  000000014003e4e0     pjlib-util-x86_64-x64-vc14-release:base64.obj
 0002:000124f0       $unwind$pj_base64_decode   000000014003e4f0     pjlib-util-x86_64-x64-vc14-release:base64.obj
 0002:00012504       $chain$0$pj_base64_decode  000000014003e504     pjlib-util-x86_64-x64-vc14-release:base64.obj
 0002:00012518       $chain$2$pj_base64_decode  000000014003e518     pjlib-util-x86_64-x64-vc14-release:base64.obj
 0002:00012530       $chain$3$pj_base64_decode  000000014003e530     pjlib-util-x86_64-x64-vc14-release:base64.obj
 0002:00012540       $chain$4$pj_base64_decode  000000014003e540     pjlib-util-x86_64-x64-vc14-release:base64.obj
 0002:00012550       $unwind$pj_init            000000014003e550     pjlib-x86_64-x64-vc14-release:os_core_win32.obj
 0002:00012560       $unwind$pj_shutdown        000000014003e560     pjlib-x86_64-x64-vc14-release:os_core_win32.obj
 0002:00012568       $chain$1$pj_shutdown       000000014003e568     pjlib-x86_64-x64-vc14-release:os_core_win32.obj
 0002:00012580       $chain$2$pj_shutdown       000000014003e580     pjlib-x86_64-x64-vc14-release:os_core_win32.obj
 0002:00012590       $unwind$pj_thread_create   000000014003e590     pjlib-x86_64-x64-vc14-release:os_core_win32.obj
 0002:000125a4       $chain$1$pj_thread_create  000000014003e5a4     pjlib-x86_64-x64-vc14-release:os_core_win32.obj
 0002:000125b8       $chain$2$pj_thread_create  000000014003e5b8     pjlib-x86_64-x64-vc14-release:os_core_win32.obj
 0002:000125cc       $chain$3$pj_thread_create  000000014003e5cc     pjlib-x86_64-x64-vc14-release:os_core_win32.obj
 0002:000125dc       $chain$5$pj_thread_create  000000014003e5dc     pjlib-x86_64-x64-vc14-release:os_core_win32.obj
 0002:000125f4       $chain$4$pj_thread_create  000000014003e5f4     pjlib-x86_64-x64-vc14-release:os_core_win32.obj
 0002:000125f4       $chain$6$pj_thread_create  000000014003e5f4     pjlib-x86_64-x64-vc14-release:os_core_win32.obj
 0002:00012604       $unwind$pj_thread_register 000000014003e604     pjlib-x86_64-x64-vc14-release:os_core_win32.obj
 0002:00012614       $unwind$pj_thread_join     000000014003e614     pjlib-x86_64-x64-vc14-release:os_core_win32.obj
 0002:0001261c       $chain$0$pj_thread_join    000000014003e61c     pjlib-x86_64-x64-vc14-release:os_core_win32.obj
 0002:00012630       $chain$2$pj_thread_join    000000014003e630     pjlib-x86_64-x64-vc14-release:os_core_win32.obj
 0002:00012630       $chain$6$pj_thread_join    000000014003e630     pjlib-x86_64-x64-vc14-release:os_core_win32.obj
 0002:00012630       $chain$4$pj_thread_join    000000014003e630     pjlib-x86_64-x64-vc14-release:os_core_win32.obj
 0002:00012644       $unwind$pjlib_error        000000014003e644     pjlib-x86_64-x64-vc14-release:errno.obj
 0002:00012644       $unwind$srtp_aes_expand_decryption_key 000000014003e644     libsrtp-x86_64-x64-vc14-release:aes.obj
 0002:00012644       $unwind$pj_mutex_create_simple 000000014003e644     pjlib-x86_64-x64-vc14-release:os_core_win32.obj
 0002:00012644       $unwind$pj_throw_exception_ 000000014003e644     pjlib-x86_64-x64-vc14-release:except.obj
 0002:00012644       $unwind$pj_mutex_create_recursive 000000014003e644     pjlib-x86_64-x64-vc14-release:os_core_win32.obj
 0002:00012644       $unwind$pj_mutex_create    000000014003e644     pjlib-x86_64-x64-vc14-release:os_core_win32.obj
 0002:00012650       $chain$0$pj_mutex_create   000000014003e650     pjlib-x86_64-x64-vc14-release:os_core_win32.obj
 0002:00012664       $chain$2$pj_mutex_create   000000014003e664     pjlib-x86_64-x64-vc14-release:os_core_win32.obj
 0002:00012678       $chain$3$pj_mutex_create   000000014003e678     pjlib-x86_64-x64-vc14-release:os_core_win32.obj
 0002:00012688       $chain$0$pj_mutex_create_simple 000000014003e688     pjlib-x86_64-x64-vc14-release:os_core_win32.obj
 0002:00012688       $chain$0$pj_mutex_create_recursive 000000014003e688     pjlib-x86_64-x64-vc14-release:os_core_win32.obj
 0002:0001269c       $chain$2$pj_mutex_create_recursive 000000014003e69c     pjlib-x86_64-x64-vc14-release:os_core_win32.obj
 0002:0001269c       $chain$2$pj_mutex_create_simple 000000014003e69c     pjlib-x86_64-x64-vc14-release:os_core_win32.obj
 0002:000126b0       $chain$3$pj_mutex_create_simple 000000014003e6b0     pjlib-x86_64-x64-vc14-release:os_core_win32.obj
 0002:000126b0       $chain$3$pj_mutex_create_recursive 000000014003e6b0     pjlib-x86_64-x64-vc14-release:os_core_win32.obj
 0002:000126c0       $unwind$pj_mutex_lock      000000014003e6c0     pjlib-x86_64-x64-vc14-release:os_core_win32.obj
 0002:000126c0       $unwind$pj_mutex_unlock    000000014003e6c0     pjlib-x86_64-x64-vc14-release:os_core_win32.obj
 0002:000126c0       $unwind$pj_thread_get_name 000000014003e6c0     pjlib-x86_64-x64-vc14-release:os_core_win32.obj
 0002:000126c0       $unwind$pj_atomic_dec_and_get 000000014003e6c0     pjlib-x86_64-x64-vc14-release:os_core_win32.obj
 0002:000126c0       $unwind$pj_atomic_inc_and_get 000000014003e6c0     pjlib-x86_64-x64-vc14-release:os_core_win32.obj
 0002:000126c0       $unwind$pj_thread_local_free 000000014003e6c0     pjlib-x86_64-x64-vc14-release:os_core_win32.obj
 0002:000126c0       $unwind$pj_mutex_trylock   000000014003e6c0     pjlib-x86_64-x64-vc14-release:os_core_win32.obj
 0002:000126c0       $unwind$pj_thread_sleep    000000014003e6c0     pjlib-x86_64-x64-vc14-release:os_core_win32.obj
 0002:000126c0       $unwind$pj_sem_wait        000000014003e6c0     pjlib-x86_64-x64-vc14-release:os_core_win32.obj
 0002:000126c0       $unwind$pj_sem_trywait     000000014003e6c0     pjlib-x86_64-x64-vc14-release:os_core_win32.obj
 0002:000126c0       $unwind$pj_thread_destroy  000000014003e6c0     pjlib-x86_64-x64-vc14-release:os_core_win32.obj
 0002:000126c0       $unwind$pj_sem_post        000000014003e6c0     pjlib-x86_64-x64-vc14-release:os_core_win32.obj
 0002:000126c0       $unwind$pj_sem_destroy     000000014003e6c0     pjlib-x86_64-x64-vc14-release:os_core_win32.obj
 0002:000126c0       $unwind$thread_main        000000014003e6c0     pjlib-x86_64-x64-vc14-release:os_core_win32.obj
 0002:000126c0       $unwind$update             000000014003e6c0     pjmedia-x86_64-x64-vc14-release:delaybuf.obj
 0002:000126c0       $unwind$pj_mutex_destroy   000000014003e6c0     pjlib-x86_64-x64-vc14-release:os_core_win32.obj
 0002:000126c8       $unwind$pj_pool_create_int 000000014003e6c8     pjlib-x86_64-x64-vc14-release:pool.obj
 0002:000126e0       $chain$0$reset_pool        000000014003e6e0     pjlib-x86_64-x64-vc14-release:pool.obj
 0002:000126f4       $chain$1$reset_pool        000000014003e6f4     pjlib-x86_64-x64-vc14-release:pool.obj
 0002:00012704       $unwind$cpool_create_pool  000000014003e704     pjlib-x86_64-x64-vc14-release:pool_caching.obj
 0002:0001271c       $unwind$srtp_aes_icm_alloc 000000014003e71c     libsrtp-x86_64-x64-vc14-release:aes_icm.obj
 0002:0001271c       $unwind$cpool_release_pool 000000014003e71c     pjlib-x86_64-x64-vc14-release:pool_caching.obj
 0002:00012728       $chain$0$cpool_release_pool 000000014003e728     pjlib-x86_64-x64-vc14-release:pool_caching.obj
 0002:0001273c       $chain$1$cpool_release_pool 000000014003e73c     pjlib-x86_64-x64-vc14-release:pool_caching.obj
 0002:0001273c       $chain$3$cpool_release_pool 000000014003e73c     pjlib-x86_64-x64-vc14-release:pool_caching.obj
 0002:0001274c       $chain$2$cpool_release_pool 000000014003e74c     pjlib-x86_64-x64-vc14-release:pool_caching.obj
 0002:00012760       $unwind$cpool_dump_status  000000014003e760     pjlib-x86_64-x64-vc14-release:pool_caching.obj
 0002:0001276c       $chain$2$cpool_dump_status 000000014003e76c     pjlib-x86_64-x64-vc14-release:pool_caching.obj
 0002:00012788       $chain$5$cpool_dump_status 000000014003e788     pjlib-x86_64-x64-vc14-release:pool_caching.obj
 0002:000127a4       $chain$6$cpool_dump_status 000000014003e7a4     pjlib-x86_64-x64-vc14-release:pool_caching.obj
 0002:000127b4       $chain$7$cpool_dump_status 000000014003e7b4     pjlib-x86_64-x64-vc14-release:pool_caching.obj
 0002:000127c4       $unwind$init_mutex         000000014003e7c4     pjlib-x86_64-x64-vc14-release:os_core_win32.obj
 0002:000127c4       $unwind$pj_strerror        000000014003e7c4     pjlib-x86_64-x64-vc14-release:errno.obj
 0002:000127d4       $unwind$pj_perror_4        000000014003e7d4     pjlib-x86_64-x64-vc14-release:errno.obj
 0002:000127d4       $unwind$pj_perror_5        000000014003e7d4     pjlib-x86_64-x64-vc14-release:errno.obj
 0002:000127d4       $unwind$pj_perror_3        000000014003e7d4     pjlib-x86_64-x64-vc14-release:errno.obj
 0002:000127dc       $chain$0$pjlib_error       000000014003e7dc     pjlib-x86_64-x64-vc14-release:errno.obj
 0002:000127f0       $chain$1$pjlib_error       000000014003e7f0     pjlib-x86_64-x64-vc14-release:errno.obj
 0002:00012800       $unwind$invoke_log         000000014003e800     pjlib-x86_64-x64-vc14-release:errno.obj
 0002:00012808       $unwind$pj_perror_imp      000000014003e808     pjlib-x86_64-x64-vc14-release:errno.obj
 0002:00012824       $unwind$default_block_alloc 000000014003e824     pjlib-x86_64-x64-vc14-release:pool_policy_malloc.obj
 0002:00012834       $chain$0$pj_strcmp         000000014003e834     pjlib-x86_64-x64-vc14-release:string.obj
 0002:00012848       $chain$4$pj_strcmp         000000014003e848     pjlib-x86_64-x64-vc14-release:string.obj
 0002:00012848       $chain$2$pj_strcmp         000000014003e848     pjlib-x86_64-x64-vc14-release:string.obj
 0002:0001285c       $unwind$pj_strspn          000000014003e85c     pjlib-x86_64-x64-vc14-release:string.obj
 0002:0001286c       $chain$0$pj_strspn         000000014003e86c     pjlib-x86_64-x64-vc14-release:string.obj
 0002:00012880       $chain$1$pj_strspn         000000014003e880     pjlib-x86_64-x64-vc14-release:string.obj
 0002:00012890       $unwind$pj_strspn2         000000014003e890     pjlib-x86_64-x64-vc14-release:string.obj
 0002:000128a0       $unwind$pj_strtoul         000000014003e8a0     pjlib-x86_64-x64-vc14-release:string.obj
 0002:000128a0       $unwind$pjmedia_delay_buf_get 000000014003e8a0     pjmedia-x86_64-x64-vc14-release:delaybuf.obj
 0002:000128a0       $unwind$start_srtp         000000014003e8a0     pjmedia-x86_64-x64-vc14-release:transport_srtp.obj
 0002:000128b0       $chain$0$pj_strtoul        000000014003e8b0     pjlib-x86_64-x64-vc14-release:string.obj
 0002:000128c4       $chain$1$pj_strtoul        000000014003e8c4     pjlib-x86_64-x64-vc14-release:string.obj
 0002:000128d4       $unwind$pj_strtoul2        000000014003e8d4     pjlib-x86_64-x64-vc14-release:string.obj
 0002:000128e4       $chain$1$pj_strtoul2       000000014003e8e4     pjlib-x86_64-x64-vc14-release:string.obj
 0002:000128fc       $chain$2$pj_strtoul2       000000014003e8fc     pjlib-x86_64-x64-vc14-release:string.obj
 0002:0001290c       $unwind$platform_strerror  000000014003e90c     pjlib-x86_64-x64-vc14-release:os_error_win32.obj
 0002:00012920       $unwind$pj_log             000000014003e920     pjlib-x86_64-x64-vc14-release:log.obj
 0002:0001293c       $chain$1$pj_log            000000014003e93c     pjlib-x86_64-x64-vc14-release:log.obj
 0002:00012954       $chain$3$pj_log            000000014003e954     pjlib-x86_64-x64-vc14-release:log.obj
 0002:00012964       $chain$4$pj_log            000000014003e964     pjlib-x86_64-x64-vc14-release:log.obj
 0002:00012964       $chain$2$pj_log            000000014003e964     pjlib-x86_64-x64-vc14-release:log.obj
 0002:00012978       $unwind$pj_log_3           000000014003e978     pjlib-x86_64-x64-vc14-release:log.obj
 0002:00012978       $unwind$pj_log_1           000000014003e978     pjlib-x86_64-x64-vc14-release:log.obj
 0002:00012978       $unwind$pj_log_5           000000014003e978     pjlib-x86_64-x64-vc14-release:log.obj
 0002:00012978       $unwind$srtp_err_report    000000014003e978     libsrtp-x86_64-x64-vc14-release:srtp_err.obj
 0002:00012978       $unwind$pj_log_4           000000014003e978     pjlib-x86_64-x64-vc14-release:log.obj
 0002:00012980       $unwind$pj_sockaddr_cmp    000000014003e980     pjlib-x86_64-x64-vc14-release:sock_common.obj
 0002:00012998       $chain$3$pj_sockaddr_cmp   000000014003e998     pjlib-x86_64-x64-vc14-release:sock_common.obj
 0002:000129ac       $chain$4$pj_sockaddr_cmp   000000014003e9ac     pjlib-x86_64-x64-vc14-release:sock_common.obj
 0002:000129bc       $unwind$pj_sockaddr_has_addr 000000014003e9bc     pjlib-x86_64-x64-vc14-release:sock_common.obj
 0002:000129cc       $unwind$pj_gettimeofday    000000014003e9cc     pjlib-x86_64-x64-vc14-release:os_time_win32.obj
 0002:000129dc       $unwind$pj_time_decode     000000014003e9dc     pjlib-x86_64-x64-vc14-release:os_time_win32.obj
 0002:000129f0       $unwind$get_base_time      000000014003e9f0     pjlib-x86_64-x64-vc14-release:os_time_win32.obj
 0002:00012a00       $unwind$pj_ioqueue_create  000000014003ea00     pjlib-x86_64-x64-vc14-release:ioqueue_select.obj
 0002:00012a0c       $chain$1$pj_ioqueue_create 000000014003ea0c     pjlib-x86_64-x64-vc14-release:ioqueue_select.obj
 0002:00012a24       $chain$4$pj_ioqueue_create 000000014003ea24     pjlib-x86_64-x64-vc14-release:ioqueue_select.obj
 0002:00012a40       $chain$5$pj_ioqueue_create 000000014003ea40     pjlib-x86_64-x64-vc14-release:ioqueue_select.obj
 0002:00012a50       $chain$7$pj_ioqueue_create 000000014003ea50     pjlib-x86_64-x64-vc14-release:ioqueue_select.obj
 0002:00012a74       $chain$8$pj_ioqueue_create 000000014003ea74     pjlib-x86_64-x64-vc14-release:ioqueue_select.obj
 0002:00012a84       $unwind$srtp_validate_rtp_header 000000014003ea84     libsrtp-x86_64-x64-vc14-release:srtp.obj
 0002:00012a84       $unwind$pj_strcmp          000000014003ea84     pjlib-x86_64-x64-vc14-release:string.obj
 0002:00012a84       $unwind$pjmedia_echo_playback 000000014003ea84     pjmedia-x86_64-x64-vc14-release:echo_common.obj
 0002:00012a84       $unwind$pjmedia_aud_subsys_shutdown 000000014003ea84     pjmedia-audiodev-x86_64-x64-vc14-release:audiodev.obj
 0002:00012a84       $unwind$srtp_rdbx_add_index 000000014003ea84     libsrtp-x86_64-x64-vc14-release:rdbx.obj
 0002:00012a84       $unwind$pj_ioqueue_destroy 000000014003ea84     pjlib-x86_64-x64-vc14-release:ioqueue_select.obj
 0002:00012a84       $unwind$pjmedia_codec_mgr_destroy 000000014003ea84     pjmedia-x86_64-x64-vc14-release:codec.obj
 0002:00012a84       $unwind$decrement_counter  000000014003ea84     pjlib-x86_64-x64-vc14-release:ioqueue_select.obj
 0002:00012a8c       $chain$1$pj_ioqueue_destroy 000000014003ea8c     pjlib-x86_64-x64-vc14-release:ioqueue_select.obj
 0002:00012aa4       $chain$2$pj_ioqueue_destroy 000000014003eaa4     pjlib-x86_64-x64-vc14-release:ioqueue_select.obj
 0002:00012ab4       $unwind$pj_ioqueue_poll    000000014003eab4     pjlib-x86_64-x64-vc14-release:ioqueue_select.obj
 0002:00012ac8       $chain$0$pj_ioqueue_poll   000000014003eac8     pjlib-x86_64-x64-vc14-release:ioqueue_select.obj
 0002:00012adc       $chain$1$pj_ioqueue_poll   000000014003eadc     pjlib-x86_64-x64-vc14-release:ioqueue_select.obj
 0002:00012af0       $chain$4$pj_ioqueue_poll   000000014003eaf0     pjlib-x86_64-x64-vc14-release:ioqueue_select.obj
 0002:00012b0c       $chain$5$pj_ioqueue_poll   000000014003eb0c     pjlib-x86_64-x64-vc14-release:ioqueue_select.obj
 0002:00012b20       $chain$6$pj_ioqueue_poll   000000014003eb20     pjlib-x86_64-x64-vc14-release:ioqueue_select.obj
 0002:00012b30       $chain$7$pj_ioqueue_poll   000000014003eb30     pjlib-x86_64-x64-vc14-release:ioqueue_select.obj
 0002:00012b44       $chain$8$pj_ioqueue_poll   000000014003eb44     pjlib-x86_64-x64-vc14-release:ioqueue_select.obj
 0002:00012b54       $chain$9$pj_ioqueue_poll   000000014003eb54     pjlib-x86_64-x64-vc14-release:ioqueue_select.obj
 0002:00012b64       $unwind$ioqueue_dispatch_write_event 000000014003eb64     pjlib-x86_64-x64-vc14-release:ioqueue_select.obj
 0002:00012b7c       $unwind$ioqueue_dispatch_read_event 000000014003eb7c     pjlib-x86_64-x64-vc14-release:ioqueue_select.obj
 0002:00012b94       $unwind$ioqueue_dispatch_exception_event 000000014003eb94     pjlib-x86_64-x64-vc14-release:ioqueue_select.obj
 0002:00012ba0       $chain$0$ioqueue_dispatch_exception_event 000000014003eba0     pjlib-x86_64-x64-vc14-release:ioqueue_select.obj
 0002:00012bb4       $chain$1$ioqueue_dispatch_exception_event 000000014003ebb4     pjlib-x86_64-x64-vc14-release:ioqueue_select.obj
 0002:00012bc4       $unwind$scan_closing_keys  000000014003ebc4     pjlib-x86_64-x64-vc14-release:ioqueue_select.obj
 0002:00012bd4       $chain$0$scan_closing_keys 000000014003ebd4     pjlib-x86_64-x64-vc14-release:ioqueue_select.obj
 0002:00012be8       $chain$1$scan_closing_keys 000000014003ebe8     pjlib-x86_64-x64-vc14-release:ioqueue_select.obj
 0002:00012bf8       $chain$0$decrement_counter 000000014003ebf8     pjlib-x86_64-x64-vc14-release:ioqueue_select.obj
 0002:00012c0c       $chain$1$decrement_counter 000000014003ec0c     pjlib-x86_64-x64-vc14-release:ioqueue_select.obj
 0002:00012c1c       $unwind$grp_lock_tryacquire 000000014003ec1c     pjlib-x86_64-x64-vc14-release:lock.obj
 0002:00012c1c       $unwind$build_dev_info     000000014003ec1c     pjmedia-audiodev-x86_64-x64-vc14-release:wmme_dev.obj
 0002:00012c1c       $unwind$pj_strtok2         000000014003ec1c     pjlib-x86_64-x64-vc14-release:string.obj
 0002:00012c1c       $unwind$pj_sock_recv       000000014003ec1c     pjlib-x86_64-x64-vc14-release:sock_bsd.obj
 0002:00012c1c       $unwind$pj_sock_send       000000014003ec1c     pjlib-x86_64-x64-vc14-release:sock_bsd.obj
 0002:00012c1c       $unwind$pj_sock_accept     000000014003ec1c     pjlib-x86_64-x64-vc14-release:sock_bsd.obj
 0002:00012c1c       $unwind$pj_pool_init_int   000000014003ec1c     pjlib-x86_64-x64-vc14-release:pool.obj
 0002:00012c1c       $unwind$srtp_get_est_pkt_index 000000014003ec1c     libsrtp-x86_64-x64-vc14-release:srtp.obj
 0002:00012c1c       $unwind$pj_utoa_pad        000000014003ec1c     pjlib-x86_64-x64-vc14-release:string.obj
 0002:00012c1c       $unwind$pj_strtok          000000014003ec1c     pjlib-x86_64-x64-vc14-release:string.obj
 0002:00012c30       $unwind$pj_sock_sendto     000000014003ec30     pjlib-x86_64-x64-vc14-release:sock_bsd.obj
 0002:00012c30       $unwind$pj_sock_getsockopt 000000014003ec30     pjlib-x86_64-x64-vc14-release:sock_bsd.obj
 0002:00012c30       $unwind$pj_sock_recvfrom   000000014003ec30     pjlib-x86_64-x64-vc14-release:sock_bsd.obj
 0002:00012c44       $unwind$pj_file_open       000000014003ec44     pjlib-x86_64-x64-vc14-release:file_io_win32.obj
 0002:00012c50       $chain$0$pj_file_open      000000014003ec50     pjlib-x86_64-x64-vc14-release:file_io_win32.obj
 0002:00012c64       $chain$6$pj_file_open      000000014003ec64     pjlib-x86_64-x64-vc14-release:file_io_win32.obj
 0002:00012c64       $chain$2$pj_file_open      000000014003ec64     pjlib-x86_64-x64-vc14-release:file_io_win32.obj
 0002:00012c64       $chain$4$pj_file_open      000000014003ec64     pjlib-x86_64-x64-vc14-release:file_io_win32.obj
 0002:00012c78       $chain$0$pj_throw_exception_ 000000014003ec78     pjlib-x86_64-x64-vc14-release:except.obj
 0002:00012c8c       $chain$1$pj_throw_exception_ 000000014003ec8c     pjlib-x86_64-x64-vc14-release:except.obj
 0002:00012c9c       $unwind$create_mutex_lock  000000014003ec9c     pjlib-x86_64-x64-vc14-release:lock.obj
 0002:00012cac       $chain$0$create_mutex_lock 000000014003ecac     pjlib-x86_64-x64-vc14-release:lock.obj
 0002:00012cc0       $chain$2$create_mutex_lock 000000014003ecc0     pjlib-x86_64-x64-vc14-release:lock.obj
 0002:00012cd4       $chain$3$create_mutex_lock 000000014003ecd4     pjlib-x86_64-x64-vc14-release:lock.obj
 0002:00012ce4       $unwind$grp_lock_destroy   000000014003ece4     pjlib-x86_64-x64-vc14-release:lock.obj
 0002:00012cf0       $chain$0$grp_lock_destroy  000000014003ecf0     pjlib-x86_64-x64-vc14-release:lock.obj
 0002:00012d04       $chain$2$grp_lock_destroy  000000014003ed04     pjlib-x86_64-x64-vc14-release:lock.obj
 0002:00012d1c       $chain$3$grp_lock_destroy  000000014003ed1c     pjlib-x86_64-x64-vc14-release:lock.obj
 0002:00012d30       $chain$4$grp_lock_destroy  000000014003ed30     pjlib-x86_64-x64-vc14-release:lock.obj
 0002:00012d40       $chain$0$pj_gettickcount   000000014003ed40     pjlib-x86_64-x64-vc14-release:os_timestamp_common.obj
 0002:00012d54       $chain$1$pj_gettickcount   000000014003ed54     pjlib-x86_64-x64-vc14-release:os_timestamp_common.obj
 0002:00012d64       $unwind$pj_generate_unique_string 000000014003ed64     pjlib-x86_64-x64-vc14-release:guid_win32.obj
 0002:00012d7c       $unwind$pj_sock_select     000000014003ed7c     pjlib-x86_64-x64-vc14-release:sock_select.obj
 0002:00012d90       $unwind$speex_echo_state_init_mc 000000014003ed90     libspeex-x86_64-x64-vc14-release:mdf.obj
 0002:00012da4       $chain$0$speex_echo_state_init_mc 000000014003eda4     libspeex-x86_64-x64-vc14-release:mdf.obj
 0002:00012db8       $chain$1$speex_echo_state_init_mc 000000014003edb8     libspeex-x86_64-x64-vc14-release:mdf.obj
 0002:00012dcc       $chain$3$speex_echo_state_init_mc 000000014003edcc     libspeex-x86_64-x64-vc14-release:mdf.obj
 0002:00012de4       $chain$4$speex_echo_state_init_mc 000000014003ede4     libspeex-x86_64-x64-vc14-release:mdf.obj
 0002:00012df8       $chain$5$speex_echo_state_init_mc 000000014003edf8     libspeex-x86_64-x64-vc14-release:mdf.obj
 0002:00012e08       $chain$6$speex_echo_state_init_mc 000000014003ee08     libspeex-x86_64-x64-vc14-release:mdf.obj
 0002:00012e18       $chain$7$speex_echo_state_init_mc 000000014003ee18     libspeex-x86_64-x64-vc14-release:mdf.obj
 0002:00012e28       $chain$8$speex_echo_state_init_mc 000000014003ee28     libspeex-x86_64-x64-vc14-release:mdf.obj
 0002:00012e38       $unwind$speex_echo_cancellation 000000014003ee38     libspeex-x86_64-x64-vc14-release:mdf.obj
 0002:00012e78       $unwind$pjmedia_event_init 000000014003ee78     pjmedia-x86_64-x64-vc14-release:event.obj
 0002:00012e78       $unwind$speex_echo_capture 000000014003ee78     libspeex-x86_64-x64-vc14-release:mdf.obj
 0002:00012e8c       $chain$0$speex_echo_playback 000000014003ee8c     libspeex-x86_64-x64-vc14-release:mdf.obj
 0002:00012ea0       $chain$1$speex_echo_playback 000000014003eea0     libspeex-x86_64-x64-vc14-release:mdf.obj
 0002:00012eb0       $unwind$speex_echo_state_reset 000000014003eeb0     libspeex-x86_64-x64-vc14-release:mdf.obj
 0002:00012ec8       $unwind$speex_echo_ctl     000000014003eec8     libspeex-x86_64-x64-vc14-release:mdf.obj
 0002:00012ed8       $chain$3$speex_echo_ctl    000000014003eed8     libspeex-x86_64-x64-vc14-release:mdf.obj
 0002:00012ef8       $chain$4$speex_echo_ctl    000000014003eef8     libspeex-x86_64-x64-vc14-release:mdf.obj
 0002:00012f08       $unwind$speex_echo_get_residual 000000014003ef08     libspeex-x86_64-x64-vc14-release:mdf.obj
 0002:00012f14       $chain$0$speex_echo_get_residual 000000014003ef14     libspeex-x86_64-x64-vc14-release:mdf.obj
 0002:00012f28       $chain$3$speex_echo_get_residual 000000014003ef28     libspeex-x86_64-x64-vc14-release:mdf.obj
 0002:00012f44       $chain$4$speex_echo_get_residual 000000014003ef44     libspeex-x86_64-x64-vc14-release:mdf.obj
 0002:00012f54       $chain$5$speex_echo_get_residual 000000014003ef54     libspeex-x86_64-x64-vc14-release:mdf.obj
 0002:00012f64       $unwind$filter_dc_notch16  000000014003ef64     libspeex-x86_64-x64-vc14-release:mdf.obj
 0002:00012f70       $chain$4$filter_dc_notch16 000000014003ef70     libspeex-x86_64-x64-vc14-release:mdf.obj
 0002:00012f94       $chain$5$filter_dc_notch16 000000014003ef94     libspeex-x86_64-x64-vc14-release:mdf.obj
 0002:00012fa4       $unwind$spectral_mul_accum 000000014003efa4     libspeex-x86_64-x64-vc14-release:mdf.obj
 0002:00012fb0       $chain$2$spectral_mul_accum 000000014003efb0     libspeex-x86_64-x64-vc14-release:mdf.obj
 0002:00012fcc       $chain$3$spectral_mul_accum 000000014003efcc     libspeex-x86_64-x64-vc14-release:mdf.obj
 0002:00012fdc       $unwind$weighted_spectral_mul_conj 000000014003efdc     libspeex-x86_64-x64-vc14-release:mdf.obj
 0002:00012ff0       $unwind$mdf_adjust_prop    000000014003eff0     libspeex-x86_64-x64-vc14-release:mdf.obj
 0002:00013000       $chain$3$mdf_adjust_prop   000000014003f000     libspeex-x86_64-x64-vc14-release:mdf.obj
 0002:00013020       $chain$7$mdf_adjust_prop   000000014003f020     libspeex-x86_64-x64-vc14-release:mdf.obj
 0002:00013040       $chain$8$mdf_adjust_prop   000000014003f040     libspeex-x86_64-x64-vc14-release:mdf.obj
 0002:00013050       $chain$9$mdf_adjust_prop   000000014003f050     libspeex-x86_64-x64-vc14-release:mdf.obj
 0002:00013068       $chain$10$mdf_adjust_prop  000000014003f068     libspeex-x86_64-x64-vc14-release:mdf.obj
 0002:0001307c       $chain$11$mdf_adjust_prop  000000014003f07c     libspeex-x86_64-x64-vc14-release:mdf.obj
 0002:0001308c       $unwind$speex_decorrelate_new 000000014003f08c     libspeex-x86_64-x64-vc14-release:scal.obj
 0002:0001309c       $chain$3$speex_decorrelate_new 000000014003f09c     libspeex-x86_64-x64-vc14-release:scal.obj
 0002:000130bc       $chain$7$speex_decorrelate_new 000000014003f0bc     libspeex-x86_64-x64-vc14-release:scal.obj
 0002:000130dc       $chain$8$speex_decorrelate_new 000000014003f0dc     libspeex-x86_64-x64-vc14-release:scal.obj
 0002:000130ec       $chain$9$speex_decorrelate_new 000000014003f0ec     libspeex-x86_64-x64-vc14-release:scal.obj
 0002:000130fc       $unwind$speex_decorrelate  000000014003f0fc     libspeex-x86_64-x64-vc14-release:scal.obj
 0002:0001310c       $chain$14$speex_decorrelate 000000014003f10c     libspeex-x86_64-x64-vc14-release:scal.obj
 0002:00013158       $chain$15$speex_decorrelate 000000014003f158     libspeex-x86_64-x64-vc14-release:scal.obj
 0002:00013168       $unwind$speex_preprocess_state_init 000000014003f168     libspeex-x86_64-x64-vc14-release:preprocess.obj
 0002:00013188       $chain$0$speex_preprocess_state_init 000000014003f188     libspeex-x86_64-x64-vc14-release:preprocess.obj
 0002:0001319c       $chain$1$speex_preprocess_state_init 000000014003f19c     libspeex-x86_64-x64-vc14-release:preprocess.obj
 0002:000131ac       $chain$9$speex_preprocess_state_init 000000014003f1ac     libspeex-x86_64-x64-vc14-release:preprocess.obj
 0002:000131dc       $chain$10$speex_preprocess_state_init 000000014003f1dc     libspeex-x86_64-x64-vc14-release:preprocess.obj
 0002:000131ec       $chain$11$speex_preprocess_state_init 000000014003f1ec     libspeex-x86_64-x64-vc14-release:preprocess.obj
 0002:00013200       $unwind$speex_preprocess_run 000000014003f200     libspeex-x86_64-x64-vc14-release:preprocess.obj
 0002:00013210       $chain$1$speex_preprocess_run 000000014003f210     libspeex-x86_64-x64-vc14-release:preprocess.obj
 0002:00013228       $chain$5$speex_preprocess_run 000000014003f228     libspeex-x86_64-x64-vc14-release:preprocess.obj
 0002:00013248       $chain$12$speex_preprocess_run 000000014003f248     libspeex-x86_64-x64-vc14-release:preprocess.obj
 0002:00013274       $chain$13$speex_preprocess_run 000000014003f274     libspeex-x86_64-x64-vc14-release:preprocess.obj
 0002:00013288       $chain$14$speex_preprocess_run 000000014003f288     libspeex-x86_64-x64-vc14-release:preprocess.obj
 0002:0001329c       $chain$15$speex_preprocess_run 000000014003f29c     libspeex-x86_64-x64-vc14-release:preprocess.obj
 0002:000132ac       $chain$16$speex_preprocess_run 000000014003f2ac     libspeex-x86_64-x64-vc14-release:preprocess.obj
 0002:000132c0       $chain$17$speex_preprocess_run 000000014003f2c0     libspeex-x86_64-x64-vc14-release:preprocess.obj
 0002:000132dc       $chain$18$speex_preprocess_run 000000014003f2dc     libspeex-x86_64-x64-vc14-release:preprocess.obj
 0002:000132f4       $chain$19$speex_preprocess_run 000000014003f2f4     libspeex-x86_64-x64-vc14-release:preprocess.obj
 0002:00013308       $chain$20$speex_preprocess_run 000000014003f308     libspeex-x86_64-x64-vc14-release:preprocess.obj
 0002:0001331c       $chain$22$speex_preprocess_run 000000014003f31c     libspeex-x86_64-x64-vc14-release:preprocess.obj
 0002:00013360       $chain$23$speex_preprocess_run 000000014003f360     libspeex-x86_64-x64-vc14-release:preprocess.obj
 0002:00013360       $chain$21$speex_preprocess_run 000000014003f360     libspeex-x86_64-x64-vc14-release:preprocess.obj
 0002:00013370       $unwind$conj_window        000000014003f370     libspeex-x86_64-x64-vc14-release:preprocess.obj
 0002:000133a8       $chain$9$conj_window       000000014003f3a8     libspeex-x86_64-x64-vc14-release:preprocess.obj
 0002:000133bc       $chain$10$conj_window      000000014003f3bc     libspeex-x86_64-x64-vc14-release:preprocess.obj
 0002:000133cc       $unwind$hypergeom_gain     000000014003f3cc     libspeex-x86_64-x64-vc14-release:preprocess.obj
 0002:000133dc       $unwind$compute_gain_floor 000000014003f3dc     libspeex-x86_64-x64-vc14-release:preprocess.obj
 0002:00013400       $chain$1$compute_gain_floor 000000014003f400     libspeex-x86_64-x64-vc14-release:preprocess.obj
 0002:00013418       $chain$3$compute_gain_floor 000000014003f418     libspeex-x86_64-x64-vc14-release:preprocess.obj
 0002:00013430       $chain$4$compute_gain_floor 000000014003f430     libspeex-x86_64-x64-vc14-release:preprocess.obj
 0002:00013440       $chain$5$compute_gain_floor 000000014003f440     libspeex-x86_64-x64-vc14-release:preprocess.obj
 0002:00013450       $unwind$speex_compute_agc  000000014003f450     libspeex-x86_64-x64-vc14-release:preprocess.obj
 0002:00013460       $chain$0$speex_compute_agc 000000014003f460     libspeex-x86_64-x64-vc14-release:preprocess.obj
 0002:00013474       $chain$1$speex_compute_agc 000000014003f474     libspeex-x86_64-x64-vc14-release:preprocess.obj
 0002:00013488       $chain$3$speex_compute_agc 000000014003f488     libspeex-x86_64-x64-vc14-release:preprocess.obj
 0002:000134a0       $chain$4$speex_compute_agc 000000014003f4a0     libspeex-x86_64-x64-vc14-release:preprocess.obj
 0002:000134b0       $chain$5$speex_compute_agc 000000014003f4b0     libspeex-x86_64-x64-vc14-release:preprocess.obj
 0002:000134c0       $chain$6$speex_compute_agc 000000014003f4c0     libspeex-x86_64-x64-vc14-release:preprocess.obj
 0002:000134d0       $unwind$preprocess_analysis 000000014003f4d0     libspeex-x86_64-x64-vc14-release:preprocess.obj
 0002:000134dc       $chain$1$preprocess_analysis 000000014003f4dc     libspeex-x86_64-x64-vc14-release:preprocess.obj
 0002:000134f4       $chain$2$preprocess_analysis 000000014003f4f4     libspeex-x86_64-x64-vc14-release:preprocess.obj
 0002:00013508       $chain$3$preprocess_analysis 000000014003f508     libspeex-x86_64-x64-vc14-release:preprocess.obj
 0002:00013518       $chain$4$preprocess_analysis 000000014003f518     libspeex-x86_64-x64-vc14-release:preprocess.obj
 0002:0001352c       $chain$5$preprocess_analysis 000000014003f52c     libspeex-x86_64-x64-vc14-release:preprocess.obj
 0002:0001353c       $unwind$update_noise_prob  000000014003f53c     libspeex-x86_64-x64-vc14-release:preprocess.obj
 0002:00013544       $chain$5$update_noise_prob 000000014003f544     libspeex-x86_64-x64-vc14-release:preprocess.obj
 0002:0001356c       $chain$6$update_noise_prob 000000014003f56c     libspeex-x86_64-x64-vc14-release:preprocess.obj
 0002:00013580       $chain$7$update_noise_prob 000000014003f580     libspeex-x86_64-x64-vc14-release:preprocess.obj
 0002:00013590       $unwind$srtp_null_cipher_alloc 000000014003f590     libsrtp-x86_64-x64-vc14-release:null_cipher.obj
 0002:00013590       $unwind$pj_pool_calloc     000000014003f590     pjlib-x86_64-x64-vc14-release:pool.obj
 0002:00013590       $unwind$srtp_aes_icm_advance 000000014003f590     libsrtp-x86_64-x64-vc14-release:aes_icm.obj
 0002:00013590       $unwind$pjmedia_delay_buf_destroy 000000014003f590     pjmedia-x86_64-x64-vc14-release:delaybuf.obj
 0002:00013590       $unwind$spx_ifft           000000014003f590     libspeex-x86_64-x64-vc14-release:fftwrap.obj
 0002:00013590       $unwind$srtp_rdb_add_index 000000014003f590     libsrtp-x86_64-x64-vc14-release:rdb.obj
 0002:00013590       $unwind$stream_set_cap     000000014003f590     pjmedia-audiodev-x86_64-x64-vc14-release:wmme_dev.obj
 0002:00013590       $unwind$pjmedia_wsola_generate 000000014003f590     pjmedia-x86_64-x64-vc14-release:wsola.obj
 0002:00013590       $unwind$rec_cb_ext         000000014003f590     pjmedia-x86_64-x64-vc14-release:sound_port.obj
 0002:00013590       $unwind$pj_strdup_with_null 000000014003f590     pjlib-x86_64-x64-vc14-release:string.obj
 0002:00013590       $unwind$speex_aec_playback 000000014003f590     pjmedia-x86_64-x64-vc14-release:echo_speex.obj
 0002:00013590       $unwind$pjmedia_aud_stream_get_param 000000014003f590     pjmedia-x86_64-x64-vc14-release:audiodev.obj
 0002:00013590       $unwind$pj_strdup          000000014003f590     pjlib-x86_64-x64-vc14-release:string.obj
 0002:00013590       $unwind$pj_stricmp         000000014003f590     pjlib-x86_64-x64-vc14-release:string.obj
 0002:00013590       $unwind$play_cb_ext        000000014003f590     pjmedia-x86_64-x64-vc14-release:sound_port.obj
 0002:00013590       $unwind$spx_fft_init       000000014003f590     libspeex-x86_64-x64-vc14-release:fftwrap.obj
 0002:00013590       $unwind$srtp_rdbx_set_roc  000000014003f590     libsrtp-x86_64-x64-vc14-release:rdbx.obj
 0002:00013590       $unwind$pj_strncpy_with_null 000000014003f590     pjlib-x86_64-x64-vc14-release:string.obj
 0002:00013590       $unwind$spx_drft_init      000000014003f590     libspeex-x86_64-x64-vc14-release:smallft.obj
 0002:00013590       $unwind$srtp_aes_encrypt   000000014003f590     libsrtp-x86_64-x64-vc14-release:aes.obj
 0002:00013590       $unwind$bitvector_alloc    000000014003f590     libsrtp-x86_64-x64-vc14-release:datatypes.obj
 0002:00013590       $unwind$pj_log_write       000000014003f590     pjlib-x86_64-x64-vc14-release:log_writer_stdout.obj
 0002:00013590       $unwind$PJ_FD_ISSET        000000014003f590     pjlib-x86_64-x64-vc14-release:sock_select.obj
 0002:00013590       $unwind$srtp_aes_decrypt   000000014003f590     libsrtp-x86_64-x64-vc14-release:aes.obj
 0002:00013590       $unwind$pj_exception_id_alloc 000000014003f590     pjlib-x86_64-x64-vc14-release:except.obj
 0002:00013590       $unwind$factory_destroy    000000014003f590     pjmedia-audiodev-x86_64-x64-vc14-release:wmme_dev.obj
 0002:00013590       $unwind$stack_alloc        000000014003f590     pjlib-x86_64-x64-vc14-release:pool_buf.obj
 0002:00013590       $unwind$pj_strdup2         000000014003f590     pjlib-x86_64-x64-vc14-release:string.obj
 0002:00013590       $unwind$be64_to_cpu        000000014003f590     libsrtp-x86_64-x64-vc14-release:srtp.obj
 0002:00013590       $unwind$srtp_crypto_alloc  000000014003f590     libsrtp-x86_64-x64-vc14-release:alloc.obj
 0002:00013590       $unwind$srtp_kdf_init      000000014003f590     libsrtp-x86_64-x64-vc14-release:srtp.obj
 0002:00013590       $unwind$pjmedia_snd_port_connect 000000014003f590     pjmedia-x86_64-x64-vc14-release:sound_port.obj
 0002:0001359c       $unwind$spx_fft            000000014003f59c     libspeex-x86_64-x64-vc14-release:fftwrap.obj
 0002:000135b0       $unwind$filterbank_new     000000014003f5b0     libspeex-x86_64-x64-vc14-release:filterbank.obj
 0002:000135f4       $unwind$drfti1             000000014003f5f4     libspeex-x86_64-x64-vc14-release:smallft.obj
 0002:00013610       $chain$3$drfti1            000000014003f610     libspeex-x86_64-x64-vc14-release:smallft.obj
 0002:00013630       $chain$4$drfti1            000000014003f630     libspeex-x86_64-x64-vc14-release:smallft.obj
 0002:00013640       $unwind$dradf2             000000014003f640     libspeex-x86_64-x64-vc14-release:smallft.obj
 0002:00013658       $unwind$dradf4             000000014003f658     libspeex-x86_64-x64-vc14-release:smallft.obj
 0002:00013670       $chain$5$dradf4            000000014003f670     libspeex-x86_64-x64-vc14-release:smallft.obj
 0002:00013698       $chain$6$dradf4            000000014003f698     libspeex-x86_64-x64-vc14-release:smallft.obj
 0002:000136a8       $unwind$dradfg             000000014003f6a8     libspeex-x86_64-x64-vc14-release:smallft.obj
 0002:000136c0       $chain$3$dradfg            000000014003f6c0     libspeex-x86_64-x64-vc14-release:smallft.obj
 0002:000136e0       $chain$4$dradfg            000000014003f6e0     libspeex-x86_64-x64-vc14-release:smallft.obj
 0002:000136f0       $unwind$drftf1             000000014003f6f0     libspeex-x86_64-x64-vc14-release:smallft.obj
 0002:00013704       $chain$1$drftf1            000000014003f704     libspeex-x86_64-x64-vc14-release:smallft.obj
 0002:0001371c       $chain$2$drftf1            000000014003f71c     libspeex-x86_64-x64-vc14-release:smallft.obj
 0002:0001372c       $unwind$dradb2             000000014003f72c     libspeex-x86_64-x64-vc14-release:smallft.obj
 0002:00013744       $unwind$dradb3             000000014003f744     libspeex-x86_64-x64-vc14-release:smallft.obj
 0002:00013764       $chain$0$dradb3            000000014003f764     libspeex-x86_64-x64-vc14-release:smallft.obj
 0002:00013778       $chain$1$dradb3            000000014003f778     libspeex-x86_64-x64-vc14-release:smallft.obj
 0002:00013788       $unwind$dradb4             000000014003f788     libspeex-x86_64-x64-vc14-release:smallft.obj
 0002:000137a0       $chain$0$dradb4            000000014003f7a0     libspeex-x86_64-x64-vc14-release:smallft.obj
 0002:000137b4       $chain$3$dradb4            000000014003f7b4     libspeex-x86_64-x64-vc14-release:smallft.obj
 0002:000137d0       $chain$4$dradb4            000000014003f7d0     libspeex-x86_64-x64-vc14-release:smallft.obj
 0002:000137e0       $chain$5$dradb4            000000014003f7e0     libspeex-x86_64-x64-vc14-release:smallft.obj
 0002:000137f0       $unwind$dradbg             000000014003f7f0     libspeex-x86_64-x64-vc14-release:smallft.obj
 0002:00013818       $unwind$drftb1             000000014003f818     libspeex-x86_64-x64-vc14-release:smallft.obj
 0002:00013828       $chain$2$drftb1            000000014003f828     libspeex-x86_64-x64-vc14-release:smallft.obj
 0002:00013844       $chain$3$drftb1            000000014003f844     libspeex-x86_64-x64-vc14-release:smallft.obj
 0002:00013854       $unwind$srtp_protect_mki   000000014003f854     libsrtp-x86_64-x64-vc14-release:srtp.obj
 0002:00013874       $chain$0$srtp_protect_mki  000000014003f874     libsrtp-x86_64-x64-vc14-release:srtp.obj
 0002:00013888       $chain$1$srtp_protect_mki  000000014003f888     libsrtp-x86_64-x64-vc14-release:srtp.obj
 0002:00013898       $unwind$srtp_unprotect_mki 000000014003f898     libsrtp-x86_64-x64-vc14-release:srtp.obj
 0002:000138b4       $chain$1$srtp_unprotect_mki 000000014003f8b4     libsrtp-x86_64-x64-vc14-release:srtp.obj
 0002:000138cc       $chain$2$srtp_unprotect_mki 000000014003f8cc     libsrtp-x86_64-x64-vc14-release:srtp.obj
 0002:000138dc       $unwind$srtp_create        000000014003f8dc     libsrtp-x86_64-x64-vc14-release:srtp.obj
 0002:000138e8       $chain$0$srtp_create       000000014003f8e8     libsrtp-x86_64-x64-vc14-release:srtp.obj
 0002:000138fc       $chain$4$srtp_create       000000014003f8fc     libsrtp-x86_64-x64-vc14-release:srtp.obj
 0002:00013918       $chain$6$srtp_create       000000014003f918     libsrtp-x86_64-x64-vc14-release:srtp.obj
 0002:00013934       $unwind$srtp_add_stream    000000014003f934     libsrtp-x86_64-x64-vc14-release:srtp.obj
 0002:00013940       $chain$1$srtp_add_stream   000000014003f940     libsrtp-x86_64-x64-vc14-release:srtp.obj
 0002:00013958       $chain$3$srtp_add_stream   000000014003f958     libsrtp-x86_64-x64-vc14-release:srtp.obj
 0002:00013970       $chain$2$srtp_add_stream   000000014003f970     libsrtp-x86_64-x64-vc14-release:srtp.obj
 0002:00013970       $chain$4$srtp_add_stream   000000014003f970     libsrtp-x86_64-x64-vc14-release:srtp.obj
 0002:00013980       $unwind$srtp_dealloc       000000014003f980     libsrtp-x86_64-x64-vc14-release:srtp.obj
 0002:0001399c       $unwind$srtp_protect_rtcp_mki 000000014003f99c     libsrtp-x86_64-x64-vc14-release:srtp.obj
 0002:000139b8       $chain$0$srtp_protect_rtcp_mki 000000014003f9b8     libsrtp-x86_64-x64-vc14-release:srtp.obj
 0002:000139cc       $chain$1$srtp_protect_rtcp_mki 000000014003f9cc     libsrtp-x86_64-x64-vc14-release:srtp.obj
 0002:000139e0       $chain$2$srtp_protect_rtcp_mki 000000014003f9e0     libsrtp-x86_64-x64-vc14-release:srtp.obj
 0002:000139f0       $chain$3$srtp_protect_rtcp_mki 000000014003f9f0     libsrtp-x86_64-x64-vc14-release:srtp.obj
 0002:00013a00       $chain$4$srtp_protect_rtcp_mki 000000014003fa00     libsrtp-x86_64-x64-vc14-release:srtp.obj
 0002:00013a18       $chain$5$srtp_protect_rtcp_mki 000000014003fa18     libsrtp-x86_64-x64-vc14-release:srtp.obj
 0002:00013a2c       $unwind$srtp_unprotect_rtcp_mki 000000014003fa2c     libsrtp-x86_64-x64-vc14-release:srtp.obj
 0002:00013a48       $chain$0$srtp_unprotect_rtcp_mki 000000014003fa48     libsrtp-x86_64-x64-vc14-release:srtp.obj
 0002:00013a5c       $chain$1$srtp_unprotect_rtcp_mki 000000014003fa5c     libsrtp-x86_64-x64-vc14-release:srtp.obj
 0002:00013a70       $chain$2$srtp_unprotect_rtcp_mki 000000014003fa70     libsrtp-x86_64-x64-vc14-release:srtp.obj
 0002:00013a80       $chain$3$srtp_unprotect_rtcp_mki 000000014003fa80     libsrtp-x86_64-x64-vc14-release:srtp.obj
 0002:00013a90       $chain$4$srtp_unprotect_rtcp_mki 000000014003fa90     libsrtp-x86_64-x64-vc14-release:srtp.obj
 0002:00013aa8       $chain$5$srtp_unprotect_rtcp_mki 000000014003faa8     libsrtp-x86_64-x64-vc14-release:srtp.obj
 0002:00013abc       $unwind$srtp_stream_init_keys 000000014003fabc     libsrtp-x86_64-x64-vc14-release:srtp.obj
 0002:00013ad8       $chain$2$srtp_stream_init_keys 000000014003fad8     libsrtp-x86_64-x64-vc14-release:srtp.obj
 0002:00013af4       $chain$3$srtp_stream_init_keys 000000014003faf4     libsrtp-x86_64-x64-vc14-release:srtp.obj
 0002:00013b04       $chain$4$srtp_stream_init_keys 000000014003fb04     libsrtp-x86_64-x64-vc14-release:srtp.obj
 0002:00013b20       $unwind$srtp_stream_init   000000014003fb20     libsrtp-x86_64-x64-vc14-release:srtp.obj
 0002:00013b2c       $chain$0$srtp_stream_init  000000014003fb2c     libsrtp-x86_64-x64-vc14-release:srtp.obj
 0002:00013b40       $chain$2$srtp_stream_init  000000014003fb40     libsrtp-x86_64-x64-vc14-release:srtp.obj
 0002:00013b54       $chain$3$srtp_stream_init  000000014003fb54     libsrtp-x86_64-x64-vc14-release:srtp.obj
 0002:00013b68       $chain$4$srtp_stream_init  000000014003fb68     libsrtp-x86_64-x64-vc14-release:srtp.obj
 0002:00013b78       $chain$6$srtp_stream_init  000000014003fb78     libsrtp-x86_64-x64-vc14-release:srtp.obj
 0002:00013b90       $chain$7$srtp_stream_init  000000014003fb90     libsrtp-x86_64-x64-vc14-release:srtp.obj
 0002:00013ba0       $chain$0$srtp_validate_rtp_header 000000014003fba0     libsrtp-x86_64-x64-vc14-release:srtp.obj
 0002:00013bb4       $chain$2$srtp_validate_rtp_header 000000014003fbb4     libsrtp-x86_64-x64-vc14-release:srtp.obj
 0002:00013bc8       $unwind$srtp_stream_free   000000014003fbc8     libsrtp-x86_64-x64-vc14-release:srtp.obj
 0002:00013bd0       $chain$0$srtp_stream_free  000000014003fbd0     libsrtp-x86_64-x64-vc14-release:srtp.obj
 0002:00013be4       $chain$1$srtp_stream_free  000000014003fbe4     libsrtp-x86_64-x64-vc14-release:srtp.obj
 0002:00013bf8       $chain$2$srtp_stream_free  000000014003fbf8     libsrtp-x86_64-x64-vc14-release:srtp.obj
 0002:00013c08       $chain$3$srtp_stream_free  000000014003fc08     libsrtp-x86_64-x64-vc14-release:srtp.obj
 0002:00013c18       $unwind$srtp_stream_alloc  000000014003fc18     libsrtp-x86_64-x64-vc14-release:srtp.obj
 0002:00013c30       $unwind$srtp_stream_dealloc 000000014003fc30     libsrtp-x86_64-x64-vc14-release:srtp.obj
 0002:00013c4c       $unwind$srtp_stream_clone  000000014003fc4c     libsrtp-x86_64-x64-vc14-release:srtp.obj
 0002:00013c5c       $chain$0$srtp_stream_clone 000000014003fc5c     libsrtp-x86_64-x64-vc14-release:srtp.obj
 0002:00013c70       $chain$5$srtp_stream_clone 000000014003fc70     libsrtp-x86_64-x64-vc14-release:srtp.obj
 0002:00013c90       $unwind$srtp_kdf_generate  000000014003fc90     libsrtp-x86_64-x64-vc14-release:srtp.obj
 0002:00013ca4       $chain$0$srtp_inject_mki   000000014003fca4     libsrtp-x86_64-x64-vc14-release:srtp.obj
 0002:00013cb8       $chain$1$srtp_inject_mki   000000014003fcb8     libsrtp-x86_64-x64-vc14-release:srtp.obj
 0002:00013cc8       $unwind$pj_pool_create_on_buf 000000014003fcc8     pjlib-x86_64-x64-vc14-release:pool_buf.obj
 0002:00013cc8       $unwind$srtp_stream_init_all_master_keys 000000014003fcc8     libsrtp-x86_64-x64-vc14-release:srtp.obj
 0002:00013cd8       $unwind$srtp_process_header_encryption 000000014003fcd8     libsrtp-x86_64-x64-vc14-release:srtp.obj
 0002:00013cfc       $unwind$srtp_calc_aead_iv  000000014003fcfc     libsrtp-x86_64-x64-vc14-release:srtp.obj
 0002:00013d14       $unwind$srtp_get_session_keys 000000014003fd14     libsrtp-x86_64-x64-vc14-release:srtp.obj
 0002:00013d24       $chain$1$srtp_get_session_keys 000000014003fd24     libsrtp-x86_64-x64-vc14-release:srtp.obj
 0002:00013d3c       $chain$3$srtp_get_session_keys 000000014003fd3c     libsrtp-x86_64-x64-vc14-release:srtp.obj
 0002:00013d54       $unwind$srtp_protect_aead  000000014003fd54     libsrtp-x86_64-x64-vc14-release:srtp.obj
 0002:00013d70       $chain$0$srtp_protect_aead 000000014003fd70     libsrtp-x86_64-x64-vc14-release:srtp.obj
 0002:00013d84       $chain$2$srtp_protect_aead 000000014003fd84     libsrtp-x86_64-x64-vc14-release:srtp.obj
 0002:00013d98       $chain$3$srtp_protect_aead 000000014003fd98     libsrtp-x86_64-x64-vc14-release:srtp.obj
 0002:00013dac       $chain$4$srtp_protect_aead 000000014003fdac     libsrtp-x86_64-x64-vc14-release:srtp.obj
 0002:00013dbc       $chain$1$srtp_protect_aead 000000014003fdbc     libsrtp-x86_64-x64-vc14-release:srtp.obj
 0002:00013dbc       $chain$5$srtp_protect_aead 000000014003fdbc     libsrtp-x86_64-x64-vc14-release:srtp.obj
 0002:00013dcc       $unwind$srtp_unprotect_aead 000000014003fdcc     libsrtp-x86_64-x64-vc14-release:srtp.obj
 0002:00013dec       $unwind$srtp_calc_aead_iv_srtcp 000000014003fdec     libsrtp-x86_64-x64-vc14-release:srtp.obj
 0002:00013e00       $unwind$srtp_protect_rtcp_aead 000000014003fe00     libsrtp-x86_64-x64-vc14-release:srtp.obj
 0002:00013e20       $unwind$srtp_unprotect_rtcp_aead 000000014003fe20     libsrtp-x86_64-x64-vc14-release:srtp.obj
 0002:00013e40       $unwind$srtp_octet_string_hex_string 000000014003fe40     libsrtp-x86_64-x64-vc14-release:datatypes.obj
 0002:00013e50       $unwind$v128_hex_string    000000014003fe50     libsrtp-x86_64-x64-vc14-release:datatypes.obj
 0002:00013e60       $unwind$v128_left_shift    000000014003fe60     libsrtp-x86_64-x64-vc14-release:datatypes.obj
 0002:00013e70       $chain$2$v128_left_shift   000000014003fe70     libsrtp-x86_64-x64-vc14-release:datatypes.obj
 0002:00013e84       $chain$6$v128_left_shift   000000014003fe84     libsrtp-x86_64-x64-vc14-release:datatypes.obj
 0002:00013ea4       $chain$7$v128_left_shift   000000014003fea4     libsrtp-x86_64-x64-vc14-release:datatypes.obj
 0002:00013eb4       $chain$8$v128_left_shift   000000014003feb4     libsrtp-x86_64-x64-vc14-release:datatypes.obj
 0002:00013ec4       $unwind$lookup_dev         000000014003fec4     pjmedia-x86_64-x64-vc14-release:audiodev.obj
 0002:00013ec4       $unwind$filterbank_compute_bank32 000000014003fec4     libspeex-x86_64-x64-vc14-release:filterbank.obj
 0002:00013ec4       $unwind$power_spectrum_accum 000000014003fec4     libspeex-x86_64-x64-vc14-release:mdf.obj
 0002:00013ec4       $unwind$octet_string_is_eq 000000014003fec4     libsrtp-x86_64-x64-vc14-release:datatypes.obj
 0002:00013ec4       $unwind$pj_strcspn2        000000014003fec4     pjlib-x86_64-x64-vc14-release:string.obj
 0002:00013ecc       $unwind$bitvector_left_shift 000000014003fecc     libsrtp-x86_64-x64-vc14-release:datatypes.obj
 0002:00013ecc       $unwind$pjmedia_sdp_transport_get_proto 000000014003fecc     pjmedia-x86_64-x64-vc14-release:sdp.obj
 0002:00013ed4       $chain$2$bitvector_left_shift 000000014003fed4     libsrtp-x86_64-x64-vc14-release:datatypes.obj
 0002:00013ef0       $chain$3$bitvector_left_shift 000000014003fef0     libsrtp-x86_64-x64-vc14-release:datatypes.obj
 0002:00013f04       $chain$6$bitvector_left_shift 000000014003ff04     libsrtp-x86_64-x64-vc14-release:datatypes.obj
 0002:00013f20       $chain$7$bitvector_left_shift 000000014003ff20     libsrtp-x86_64-x64-vc14-release:datatypes.obj
 0002:00013f30       $chain$8$bitvector_left_shift 000000014003ff30     libsrtp-x86_64-x64-vc14-release:datatypes.obj
 0002:00013f40       $chain$9$bitvector_left_shift 000000014003ff40     libsrtp-x86_64-x64-vc14-release:datatypes.obj
 0002:00013f54       $chain$0$srtp_rdbx_add_index 000000014003ff54     libsrtp-x86_64-x64-vc14-release:rdbx.obj
 0002:00013f68       $chain$1$srtp_rdbx_add_index 000000014003ff68     libsrtp-x86_64-x64-vc14-release:rdbx.obj
 0002:00013f78       $unwind$srtp_stream_init_from_ekt 000000014003ff78     libsrtp-x86_64-x64-vc14-release:ekt.obj
 0002:00013f90       $unwind$srtp_ekt_write_data 000000014003ff90     libsrtp-x86_64-x64-vc14-release:ekt.obj
 0002:00013fa0       $chain$0$srtp_ekt_write_data 000000014003ffa0     libsrtp-x86_64-x64-vc14-release:ekt.obj
 0002:00013fb4       $chain$1$srtp_ekt_write_data 000000014003ffb4     libsrtp-x86_64-x64-vc14-release:ekt.obj
 0002:00013fc8       $chain$2$srtp_ekt_write_data 000000014003ffc8     libsrtp-x86_64-x64-vc14-release:ekt.obj
 0002:00013fd8       $chain$3$srtp_ekt_write_data 000000014003ffd8     libsrtp-x86_64-x64-vc14-release:ekt.obj
 0002:00013fe8       $chain$0$srtp_aes_icm_alloc 000000014003ffe8     libsrtp-x86_64-x64-vc14-release:aes_icm.obj
 0002:00013ffc       $chain$2$srtp_aes_icm_alloc 000000014003fffc     libsrtp-x86_64-x64-vc14-release:aes_icm.obj
 0002:00014010       $unwind$srtp_aes_icm_dealloc 0000000140040010     libsrtp-x86_64-x64-vc14-release:aes_icm.obj
 0002:0001401c       $unwind$srtp_aes_icm_context_init 000000014004001c     libsrtp-x86_64-x64-vc14-release:aes_icm.obj
 0002:00014028       $chain$4$srtp_aes_icm_context_init 0000000140040028     libsrtp-x86_64-x64-vc14-release:aes_icm.obj
 0002:0001404c       $chain$5$srtp_aes_icm_context_init 000000014004004c     libsrtp-x86_64-x64-vc14-release:aes_icm.obj
 0002:00014068       $chain$8$srtp_aes_icm_context_init 0000000140040068     libsrtp-x86_64-x64-vc14-release:aes_icm.obj
 0002:00014068       $chain$6$srtp_aes_icm_context_init 0000000140040068     libsrtp-x86_64-x64-vc14-release:aes_icm.obj
 0002:00014080       $unwind$srtp_aes_icm_set_iv 0000000140040080     libsrtp-x86_64-x64-vc14-release:aes_icm.obj
 0002:00014090       $unwind$srtp_aes_icm_encrypt 0000000140040090     libsrtp-x86_64-x64-vc14-release:aes_icm.obj
 0002:0001409c       $chain$0$srtp_aes_icm_encrypt 000000014004009c     libsrtp-x86_64-x64-vc14-release:aes_icm.obj
 0002:000140b0       $chain$3$srtp_aes_icm_encrypt 00000001400400b0     libsrtp-x86_64-x64-vc14-release:aes_icm.obj
 0002:000140c8       $chain$4$srtp_aes_icm_encrypt 00000001400400c8     libsrtp-x86_64-x64-vc14-release:aes_icm.obj
 0002:000140dc       $chain$5$srtp_aes_icm_encrypt 00000001400400dc     libsrtp-x86_64-x64-vc14-release:aes_icm.obj
 0002:000140ec       $unwind$speex_preprocess_ctl 00000001400400ec     libspeex-x86_64-x64-vc14-release:preprocess.obj
 0002:000140ec       $unwind$PJ_FD_CLR          00000001400400ec     pjlib-x86_64-x64-vc14-release:sock_select.obj
 0002:000140ec       $unwind$pj_sock_getsockname 00000001400400ec     pjlib-x86_64-x64-vc14-release:sock_bsd.obj
 0002:000140ec       $unwind$pj_pool_allocate_find 00000001400400ec     pjlib-x86_64-x64-vc14-release:pool.obj
 0002:000140ec       $unwind$aes_128_expand_encryption_key 00000001400400ec     libsrtp-x86_64-x64-vc14-release:aes.obj
 0002:000140ec       $unwind$_RTC_Terminate     00000001400400ec     MSVCRT:_initsect_.obj
 0002:000140ec       $unwind$srtp_null_auth_alloc 00000001400400ec     libsrtp-x86_64-x64-vc14-release:null_auth.obj
 0002:000140ec       $unwind$pj_file_getpos     00000001400400ec     pjlib-x86_64-x64-vc14-release:file_io_win32.obj
 0002:000140ec       $unwind$pj_pool_create_block 00000001400400ec     pjlib-x86_64-x64-vc14-release:pool.obj
 0002:000140ec       $unwind$aes_256_expand_encryption_key 00000001400400ec     libsrtp-x86_64-x64-vc14-release:aes.obj
 0002:000140ec       $unwind$pj_ioqueue_set_lock 00000001400400ec     pjlib-x86_64-x64-vc14-release:ioqueue_select.obj
 0002:000140ec       $unwind$rec_cb             00000001400400ec     pjmedia-x86_64-x64-vc14-release:sound_port.obj
 0002:000140ec       $unwind$_RTC_Initialize    00000001400400ec     MSVCRT:_initsect_.obj
 0002:000140ec       $unwind$srtp_hmac_update   00000001400400ec     libsrtp-x86_64-x64-vc14-release:hmac.obj
 0002:000140ec       $unwind$pjmedia_endpt_destroy2 00000001400400ec     pjmedia-x86_64-x64-vc14-release:endpoint.obj
 0002:000140ec       $unwind$play_cb            00000001400400ec     pjmedia-x86_64-x64-vc14-release:sound_port.obj
 0002:000140ec       $unwind$default_block_free 00000001400400ec     pjlib-x86_64-x64-vc14-release:pool_policy_malloc.obj
 0002:000140ec       $unwind$srtp_hmac_alloc    00000001400400ec     libsrtp-x86_64-x64-vc14-release:hmac.obj
 0002:000140ec       $unwind$pj_caching_pool_init 00000001400400ec     pjlib-x86_64-x64-vc14-release:pool_caching.obj
 0002:000140ec       $unwind$grp_lock_release   00000001400400ec     pjlib-x86_64-x64-vc14-release:lock.obj
 0002:000140ec       $unwind$srtp_cipher_output 00000001400400ec     libsrtp-x86_64-x64-vc14-release:cipher.obj
 0002:000140ec       $unwind$factory_default_param 00000001400400ec     pjmedia-audiodev-x86_64-x64-vc14-release:wmme_dev.obj
 0002:000140fc       $unwind$srtp_hmac_init     00000001400400fc     libsrtp-x86_64-x64-vc14-release:hmac.obj
 0002:00014110       $chain$2$srtp_hmac_init    0000000140040110     libsrtp-x86_64-x64-vc14-release:hmac.obj
 0002:0001412c       $chain$3$srtp_hmac_init    000000014004012c     libsrtp-x86_64-x64-vc14-release:hmac.obj
 0002:0001413c       $unwind$srtp_hmac_compute  000000014004013c     libsrtp-x86_64-x64-vc14-release:hmac.obj
 0002:00014150       $chain$0$srtp_hmac_compute 0000000140040150     libsrtp-x86_64-x64-vc14-release:hmac.obj
 0002:00014164       $chain$1$srtp_hmac_compute 0000000140040164     libsrtp-x86_64-x64-vc14-release:hmac.obj
 0002:00014174       $chain$0$srtp_aes_expand_decryption_key 0000000140040174     libsrtp-x86_64-x64-vc14-release:aes.obj
 0002:00014188       $chain$1$srtp_aes_expand_decryption_key 0000000140040188     libsrtp-x86_64-x64-vc14-release:aes.obj
 0002:00014198       $unwind$aes_round          0000000140040198     libsrtp-x86_64-x64-vc14-release:aes.obj
 0002:00014198       $unwind$aes_inv_round      0000000140040198     libsrtp-x86_64-x64-vc14-release:aes.obj
 0002:00014198       $unwind$pj_strcspn         0000000140040198     pjlib-x86_64-x64-vc14-release:string.obj
 0002:00014198       $unwind$pj_register_strerror 0000000140040198     pjlib-x86_64-x64-vc14-release:errno.obj
 0002:000141a4       $unwind$srtp_sha1_update   00000001400401a4     libsrtp-x86_64-x64-vc14-release:sha1.obj
 0002:000141b8       $chain$0$srtp_sha1_update  00000001400401b8     libsrtp-x86_64-x64-vc14-release:sha1.obj
 0002:000141cc       $chain$1$srtp_sha1_update  00000001400401cc     libsrtp-x86_64-x64-vc14-release:sha1.obj
 0002:000141dc       $unwind$srtp_sha1_final    00000001400401dc     libsrtp-x86_64-x64-vc14-release:sha1.obj
 0002:00014200       $unwind$srtp_sha1_core     0000000140040200     libsrtp-x86_64-x64-vc14-release:sha1.obj
 0002:00014224       $unwind$overlapp_add_simple 0000000140040224     pjmedia-x86_64-x64-vc14-release:wsola.obj
 0002:00014224       $unwind$srtp_crypto_kernel_alloc_cipher 0000000140040224     libsrtp-x86_64-x64-vc14-release:crypto_kernel.obj
 0002:00014224       $unwind$__GSHandlerCheckCommon 0000000140040224     MSVCRT:_gshandler_.obj
 0002:00014224       $unwind$srtp_crypto_kernel_alloc_auth 0000000140040224     libsrtp-x86_64-x64-vc14-release:crypto_kernel.obj
 0002:00014230       $xdatasym                  0000000140040230     MSVCRT:_amdsecgs_.obj
 0002:00014234       $unwind$?__scrt_common_main_seh@@YAHXZ 0000000140040234     MSVCRT:exe_main.obj
 0002:0001425c       $unwind$?filt$0@?0??__scrt_common_main_seh@@YAHXZ@4HA 000000014004025c     MSVCRT:exe_main.obj
 0002:00014264       $unwind$__report_securityfailure 0000000140040264     MSVCRT:gs_report.obj
 0002:0001426c       $unwind$__report_gsfailure 000000014004026c     MSVCRT:gs_report.obj
 0002:00014274       $unwind$capture_current_context 0000000140040274     MSVCRT:gs_report.obj
 0002:00014280       $unwind$capture_previous_context 0000000140040280     MSVCRT:gs_report.obj
 0002:00014290       $xdatasym                  0000000140040290     MSVCRT:_chkstk_.obj
 0002:00014298       $unwind$__scrt_is_nonwritable_in_current_image 0000000140040298     MSVCRT:utility.obj
 0002:000142b8       $unwind$__scrt_is_nonwritable_in_current_image$filt$0 00000001400402b8     MSVCRT:utility.obj
 0002:000142c0       $unwind$__scrt_initialize_onexit_tables 00000001400402c0     MSVCRT:utility.obj
 0002:000142cc       $unwind$__security_init_cookie 00000001400402cc     MSVCRT:gs_support.obj
 0002:000142d8       $unwind$__scrt_fastfail    00000001400402d8     MSVCRT:utility_desktop.obj
 0002:000142e8       $xdatasym                  00000001400402e8     MSVCRT:_svml_dcos2_sse2_.obj
 0002:00014318       $xdatasym                  0000000140040318     MSVCRT:_svml_dsin2_sse2_.obj
 0002:00014344       $unwind$__isa_available_init 0000000140040344     MSVCRT:_cpu_disp_.obj
 0002:00014358       $xdatasym                  0000000140040358     MSVCRT:_guard_dispatch_.obj
 0002:00014920       .idata$6                   0000000140040920     ole32:ole32.dll
 0002:0001492a       .idata$6                   000000014004092a     ws2_32:WS2_32.dll
 0002:00014af6       .idata$6                   0000000140040af6     winmm:WINMM.dll
 0002:00014e90       .idata$6                   0000000140040e90     kernel32:KERNEL32.dll
 0002:00014ef2       .idata$6                   0000000140040ef2     vcruntime:VCRUNTIME140.dll
 0002:0001519a       .idata$6                   000000014004119a     ucrt:api-ms-win-crt-stdio-l1-1-0.dll
 0002:000151ba       .idata$6                   00000001400411ba     ucrt:api-ms-win-crt-string-l1-1-0.dll
 0002:000151dc       .idata$6                   00000001400411dc     ucrt:api-ms-win-crt-math-l1-1-0.dll
 0002:000151fc       .idata$6                   00000001400411fc     ucrt:api-ms-win-crt-heap-l1-1-0.dll
 0002:0001521c       .idata$6                   000000014004121c     ucrt:api-ms-win-crt-utility-l1-1-0.dll
 0002:0001523e       .idata$6                   000000014004123e     ucrt:api-ms-win-crt-runtime-l1-1-0.dll
 0002:00015260       .idata$6                   0000000140041260     ucrt:api-ms-win-crt-locale-l1-1-0.dll
 0003:00000000       $SG15491                   0000000140042000     recfile.obj
 0003:00000010       $SG19807                   0000000140042010     recfile.obj
 0003:00000024       $SG20450                   0000000140042024     recfile.obj
 0003:00000028       $SG19808                   0000000140042028     recfile.obj
 0003:00000040       desc                       0000000140042040     recfile.obj
 0003:00000050       $SG20398                   0000000140042050     recfile.obj
 0003:000000f0       $SG20409                   00000001400420f0     recfile.obj
 0003:00000108       $SG20452                   0000000140042108     recfile.obj
 0003:00000130       $SG20453                   0000000140042130     recfile.obj
 0003:00000140       $SG20455                   0000000140042140     recfile.obj
 0003:00000160       $SG20456                   0000000140042160     recfile.obj
 0003:00000170       $SG20458                   0000000140042170     recfile.obj
 0003:00000180       $SG20460                   0000000140042180     recfile.obj
 0003:000001b0       $SG20462                   00000001400421b0     recfile.obj
 0003:000001e0       factory_op                 00000001400421e0     pjmedia-audiodev-x86_64-x64-vc14-release:wmme_dev.obj
 0003:00000218       stream_op                  0000000140042218     pjmedia-audiodev-x86_64-x64-vc14-release:wmme_dev.obj
 0003:00000250       cap_infos                  0000000140042250     pjmedia-x86_64-x64-vc14-release:audiodev.obj
 0003:00000330       echo_supp_op               0000000140042330     pjmedia-x86_64-x64-vc14-release:echo_common.obj
 0003:00000370       speex_aec_op               0000000140042370     pjmedia-x86_64-x64-vc14-release:echo_common.obj
 0003:000003b0       transport_srtp_op          00000001400423b0     pjmedia-x86_64-x64-vc14-release:transport_srtp.obj
 0003:00000420       sdes_op                    0000000140042420     pjmedia-x86_64-x64-vc14-release:transport_srtp.obj
 0003:00000490       crypto_suites              0000000140042490     pjmedia-x86_64-x64-vc14-release:transport_srtp.obj
 0003:000005b0       ?liberr@?1??get_libsrtp_errstr@@9@9 00000001400425b0     pjmedia-x86_64-x64-vc14-release:transport_srtp.obj
 0003:00000678       thread_tls_id              0000000140042678     pjlib-x86_64-x64-vc14-release:os_core_win32.obj
 0003:00000680       pool_sizes                 0000000140042680     pjlib-x86_64-x64-vc14-release:pool_caching.obj
 0003:00000720       thread_suspended_tls_id    0000000140042720     pjlib-x86_64-x64-vc14-release:log.obj
 0003:00000724       thread_indent_tls_id       0000000140042724     pjlib-x86_64-x64-vc14-release:log.obj
 0003:00000728       pj_log_max_level           0000000140042728     pjlib-x86_64-x64-vc14-release:log.obj
 0003:0000072c       log_decor                  000000014004272c     pjlib-x86_64-x64-vc14-release:log.obj
 0003:00000730       log_writer                 0000000140042730     pjlib-x86_64-x64-vc14-release:log.obj
 0003:00000738       PJ_LOG_COLOR_0             0000000140042738     pjlib-x86_64-x64-vc14-release:log.obj
 0003:0000073c       PJ_LOG_COLOR_1             000000014004273c     pjlib-x86_64-x64-vc14-release:log.obj
 0003:00000740       PJ_LOG_COLOR_2             0000000140042740     pjlib-x86_64-x64-vc14-release:log.obj
 0003:00000744       PJ_LOG_COLOR_3             0000000140042744     pjlib-x86_64-x64-vc14-release:log.obj
 0003:00000748       PJ_LOG_COLOR_4             0000000140042748     pjlib-x86_64-x64-vc14-release:log.obj
 0003:0000074c       PJ_LOG_COLOR_5             000000014004274c     pjlib-x86_64-x64-vc14-release:log.obj
 0003:00000750       PJ_LOG_COLOR_6             0000000140042750     pjlib-x86_64-x64-vc14-release:log.obj
 0003:00000754       PJ_LOG_COLOR_77            0000000140042754     pjlib-x86_64-x64-vc14-release:log.obj
 0003:00000758       ?ltexts@?2??pj_log@@9@9    0000000140042758     pjlib-x86_64-x64-vc14-release:log.obj
 0003:00000790       ?wdays@?3??pj_log@@9@9     0000000140042790     pjlib-x86_64-x64-vc14-release:log.obj
 0003:000007c8       thread_local_id            00000001400427c8     pjlib-x86_64-x64-vc14-release:except.obj
 0003:000007d0       mutex_lock_template        00000001400427d0     pjlib-x86_64-x64-vc14-release:lock.obj
 0003:000007f8       null_lock_template         00000001400427f8     pjlib-x86_64-x64-vc14-release:lock.obj
 0003:00000820       sem_lock_template          0000000140042820     pjlib-x86_64-x64-vc14-release:lock.obj
 0003:00000848       ?hex@?1??hex2digit@@9@9    0000000140042848     pjlib-x86_64-x64-vc14-release:guid_win32.obj
 0003:00000860       id                         0000000140042860     pjlib-x86_64-x64-vc14-release:config.obj
 0003:00000868       tls                        0000000140042868     pjlib-x86_64-x64-vc14-release:pool_buf.obj
 0003:00000870       ?ntryh@?1??drfti1@@9@9     0000000140042870     libspeex-x86_64-x64-vc14-release:smallft.obj
 0003:00000880       ?tpi@?1??drfti1@@9@9       0000000140042880     libspeex-x86_64-x64-vc14-release:smallft.obj
 0003:00000884       ?hsqt2@?1??dradf4@@9@9     0000000140042884     libspeex-x86_64-x64-vc14-release:smallft.obj
 0003:00000888       ?tpi@?1??dradfg@@9@9       0000000140042888     libspeex-x86_64-x64-vc14-release:smallft.obj
 0003:0000088c       ?taur@?1??dradb3@@9@9      000000014004288c     libspeex-x86_64-x64-vc14-release:smallft.obj
 0003:00000890       ?taui@?1??dradb3@@9@9      0000000140042890     libspeex-x86_64-x64-vc14-release:smallft.obj
 0003:00000894       ?sqrt2@?1??dradb4@@9@9     0000000140042894     libspeex-x86_64-x64-vc14-release:smallft.obj
 0003:00000898       ?tpi@?1??dradbg@@9@9       0000000140042898     libspeex-x86_64-x64-vc14-release:smallft.obj
 0003:000008b0       srtp_event_handler         00000001400428b0     libsrtp-x86_64-x64-vc14-release:srtp.obj
 0003:00000da0       $SG20447                   0000000140042da0     recfile.obj
 0003:00000da1       $SG20459                   0000000140042da1     recfile.obj
 0003:00000da8       ?name@?1??get_fmt_name@@9@9 0000000140042da8     pjmedia-audiodev-x86_64-x64-vc14-release:wmme_dev.obj
 0003:00000db0       ?rec_cnt@?1??wmme_dev_thread@@9@9 0000000140042db0     pjmedia-audiodev-x86_64-x64-vc14-release:wmme_dev.obj
 0003:00000db4       ?play_cnt@?1??wmme_dev_thread@@9@9 0000000140042db4     pjmedia-audiodev-x86_64-x64-vc14-release:wmme_dev.obj
 0003:00000dc0       aud_subsys                 0000000140042dc0     pjmedia-x86_64-x64-vc14-release:audiodev.obj
 0003:00001360       event_manager_instance     0000000140043360     pjmedia-x86_64-x64-vc14-release:event.obj
 0003:00001370       ?ev_queue@?9??pjmedia_event_publish@@9@9 0000000140043370     pjmedia-x86_64-x64-vc14-release:event.obj
 0003:00001b00       is_initialized             0000000140043b00     pjmedia-x86_64-x64-vc14-release:sdp.obj
 0003:00001b10       cis_buf                    0000000140043b10     pjmedia-x86_64-x64-vc14-release:sdp.obj
 0003:00001f18       cs_digit                   0000000140043f18     pjmedia-x86_64-x64-vc14-release:sdp.obj
 0003:00001f28       cs_token                   0000000140043f28     pjmedia-x86_64-x64-vc14-release:sdp.obj
 0003:00001f38       ?msg@?3??get_libsrtp_errstr@@9@9 0000000140043f38     pjmedia-x86_64-x64-vc14-release:transport_srtp.obj
 0003:00001f58       libsrtp_initialized        0000000140043f58     pjmedia-x86_64-x64-vc14-release:transport_srtp.obj
 0003:00001f60       initialized                0000000140043f60     pjlib-x86_64-x64-vc14-release:os_core_win32.obj
 0003:00001f64       atexit_count               0000000140043f64     pjlib-x86_64-x64-vc14-release:os_core_win32.obj
 0003:00001f70       main_thread                0000000140043f70     pjlib-x86_64-x64-vc14-release:os_core_win32.obj
 0003:00002070       critical_section_mutex     0000000140044070     pjlib-x86_64-x64-vc14-release:os_core_win32.obj
 0003:000020c0       atexit_func                00000001400440c0     pjlib-x86_64-x64-vc14-release:os_core_win32.obj
 0003:000021c0       err_msg_hnd_cnt            00000001400441c0     pjlib-x86_64-x64-vc14-release:errno.obj
 0003:000021d0       err_msg_hnd                00000001400441d0     pjlib-x86_64-x64-vc14-release:errno.obj
 0003:00002270       g_last_thread              0000000140044270     pjlib-x86_64-x64-vc14-release:log.obj
 0003:00002278       base_time                  0000000140044278     pjlib-x86_64-x64-vc14-release:os_time_win32.obj
 0003:00002280       ?buf@?1??pj_gethostname@@9@9 0000000140044280     pjlib-x86_64-x64-vc14-release:sock_bsd.obj
 0003:00002300       ?hostname@?1??pj_gethostname@@9@9 0000000140044300     pjlib-x86_64-x64-vc14-release:sock_bsd.obj
 0003:00002310       exception_id_names         0000000140044310     pjlib-x86_64-x64-vc14-release:except.obj
 0003:00002390       ?unknown_name@?1??pj_exception_id_name@@9@9 0000000140044390     pjlib-x86_64-x64-vc14-release:except.obj
 0003:000023b0       stack_based_factory        00000001400443b0     pjlib-x86_64-x64-vc14-release:pool_buf.obj
 0003:000023f8       is_initialized             00000001400443f8     pjlib-x86_64-x64-vc14-release:pool_buf.obj
 0003:00002400       s_hDLL                     0000000140044400     pjlib-x86_64-x64-vc14-release:ip_helper_win32.obj
 0003:00002408       s_pfnGetIpAddrTable        0000000140044408     pjlib-x86_64-x64-vc14-release:ip_helper_win32.obj
 0003:00002410       s_pfnGetAdapterAddresses   0000000140044410     pjlib-x86_64-x64-vc14-release:ip_helper_win32.obj
 0003:00002418       s_pfnGetIpForwardTable     0000000140044418     pjlib-x86_64-x64-vc14-release:ip_helper_win32.obj
 0003:00002420       s_pfnGetIfEntry            0000000140044420     pjlib-x86_64-x64-vc14-release:ip_helper_win32.obj
 0003:00002428       srtp_log_handler           0000000140044428     libsrtp-x86_64-x64-vc14-release:srtp.obj
 0003:00002430       srtp_log_handler_data      0000000140044430     libsrtp-x86_64-x64-vc14-release:srtp.obj
 0003:00002460       srtp_aes_icm_128_test_case_0_nonce 0000000140044460     libsrtp-x86_64-x64-vc14-release:aes_icm.obj
 0003:00002470       srtp_aes_icm_256_test_case_0_nonce 0000000140044470     libsrtp-x86_64-x64-vc14-release:aes_icm.obj
 0003:00002480       GS_ExceptionRecord         0000000140044480     MSVCRT:gs_report.obj
 0003:00002520       GS_ContextRecord           0000000140044520     MSVCRT:gs_report.obj
 0003:00002a00       ?module_local_atexit_table@@3U_onexit_table_t@@A 0000000140044a00     MSVCRT:utility.obj
 0003:00002a18       ?module_local_at_quick_exit_table@@3U_onexit_table_t@@A 0000000140044a18     MSVCRT:utility.obj
 0003:00002a30       ?is_initialized_as_dll@@3_NA 0000000140044a30     MSVCRT:utility.obj
 0004:00000000       $pdata$pjmedia_endpt_create 0000000140045000     recfile.obj
 0004:0000000c       $pdata$pjmedia_endpt_destroy 000000014004500c     recfile.obj
 0004:00000018       $pdata$app_perror          0000000140045018     recfile.obj
 0004:00000024       $pdata$main                0000000140045024     recfile.obj
 0004:00000030       $pdata$2$main              0000000140045030     recfile.obj
 0004:0000003c       $pdata$3$main              000000014004503c     recfile.obj
 0004:00000048       $pdata$printf              0000000140045048     recfile.obj
 0004:00000054       $pdata$pjmedia_aud_subsys_init 0000000140045054     pjmedia-audiodev-x86_64-x64-vc14-release:audiodev.obj
 0004:00000060       $pdata$pjmedia_aud_subsys_shutdown 0000000140045060     pjmedia-audiodev-x86_64-x64-vc14-release:audiodev.obj
 0004:0000006c       $pdata$0$pjmedia_aud_subsys_shutdown 000000014004506c     pjmedia-audiodev-x86_64-x64-vc14-release:audiodev.obj
 0004:00000078       $pdata$1$pjmedia_aud_subsys_shutdown 0000000140045078     pjmedia-audiodev-x86_64-x64-vc14-release:audiodev.obj
 0004:00000084       $pdata$_snprintf           0000000140045084     pjmedia-audiodev-x86_64-x64-vc14-release:errno.obj
 0004:00000090       $pdata$pjmedia_audiodev_strerror 0000000140045090     pjmedia-audiodev-x86_64-x64-vc14-release:errno.obj
 0004:0000009c       $pdata$0$pjmedia_audiodev_strerror 000000014004509c     pjmedia-audiodev-x86_64-x64-vc14-release:errno.obj
 0004:000000a8       $pdata$1$pjmedia_audiodev_strerror 00000001400450a8     pjmedia-audiodev-x86_64-x64-vc14-release:errno.obj
 0004:000000b4       $pdata$2$pjmedia_audiodev_strerror 00000001400450b4     pjmedia-audiodev-x86_64-x64-vc14-release:errno.obj
 0004:000000c0       $pdata$3$pjmedia_audiodev_strerror 00000001400450c0     pjmedia-audiodev-x86_64-x64-vc14-release:errno.obj
 0004:000000cc       $pdata$factory_init        00000001400450cc     pjmedia-audiodev-x86_64-x64-vc14-release:wmme_dev.obj
 0004:000000d8       $pdata$factory_destroy     00000001400450d8     pjmedia-audiodev-x86_64-x64-vc14-release:wmme_dev.obj
 0004:000000e4       $pdata$factory_refresh     00000001400450e4     pjmedia-audiodev-x86_64-x64-vc14-release:wmme_dev.obj
 0004:000000f0       $pdata$1$factory_refresh   00000001400450f0     pjmedia-audiodev-x86_64-x64-vc14-release:wmme_dev.obj
 0004:000000fc       $pdata$2$factory_refresh   00000001400450fc     pjmedia-audiodev-x86_64-x64-vc14-release:wmme_dev.obj
 0004:00000108       $pdata$3$factory_refresh   0000000140045108     pjmedia-audiodev-x86_64-x64-vc14-release:wmme_dev.obj
 0004:00000114       $pdata$4$factory_refresh   0000000140045114     pjmedia-audiodev-x86_64-x64-vc14-release:wmme_dev.obj
 0004:00000120       $pdata$factory_default_param 0000000140045120     pjmedia-audiodev-x86_64-x64-vc14-release:wmme_dev.obj
 0004:0000012c       $pdata$factory_create_stream 000000014004512c     pjmedia-audiodev-x86_64-x64-vc14-release:wmme_dev.obj
 0004:00000138       $pdata$0$factory_create_stream 0000000140045138     pjmedia-audiodev-x86_64-x64-vc14-release:wmme_dev.obj
 0004:00000144       $pdata$1$factory_create_stream 0000000140045144     pjmedia-audiodev-x86_64-x64-vc14-release:wmme_dev.obj
 0004:00000150       $pdata$2$factory_create_stream 0000000140045150     pjmedia-audiodev-x86_64-x64-vc14-release:wmme_dev.obj
 0004:0000015c       $pdata$3$factory_create_stream 000000014004515c     pjmedia-audiodev-x86_64-x64-vc14-release:wmme_dev.obj
 0004:00000168       $pdata$stream_get_param    0000000140045168     pjmedia-audiodev-x86_64-x64-vc14-release:wmme_dev.obj
 0004:00000174       $pdata$0$stream_get_param  0000000140045174     pjmedia-audiodev-x86_64-x64-vc14-release:wmme_dev.obj
 0004:00000180       $pdata$2$stream_get_param  0000000140045180     pjmedia-audiodev-x86_64-x64-vc14-release:wmme_dev.obj
 0004:0000018c       $pdata$3$stream_get_param  000000014004518c     pjmedia-audiodev-x86_64-x64-vc14-release:wmme_dev.obj
 0004:00000198       $pdata$stream_get_cap      0000000140045198     pjmedia-audiodev-x86_64-x64-vc14-release:wmme_dev.obj
 0004:000001a4       $pdata$stream_set_cap      00000001400451a4     pjmedia-audiodev-x86_64-x64-vc14-release:wmme_dev.obj
 0004:000001b0       $pdata$stream_start        00000001400451b0     pjmedia-audiodev-x86_64-x64-vc14-release:wmme_dev.obj
 0004:000001bc       $pdata$stream_stop         00000001400451bc     pjmedia-audiodev-x86_64-x64-vc14-release:wmme_dev.obj
 0004:000001c8       $pdata$stream_destroy      00000001400451c8     pjmedia-audiodev-x86_64-x64-vc14-release:wmme_dev.obj
 0004:000001d4       $pdata$1$stream_destroy    00000001400451d4     pjmedia-audiodev-x86_64-x64-vc14-release:wmme_dev.obj
 0004:000001e0       $pdata$2$stream_destroy    00000001400451e0     pjmedia-audiodev-x86_64-x64-vc14-release:wmme_dev.obj
 0004:000001ec       $pdata$build_dev_info      00000001400451ec     pjmedia-audiodev-x86_64-x64-vc14-release:wmme_dev.obj
 0004:000001f8       $pdata$init_capture_stream 00000001400451f8     pjmedia-audiodev-x86_64-x64-vc14-release:wmme_dev.obj
 0004:00000204       $pdata$0$init_capture_stream 0000000140045204     pjmedia-audiodev-x86_64-x64-vc14-release:wmme_dev.obj
 0004:00000210       $pdata$1$init_capture_stream 0000000140045210     pjmedia-audiodev-x86_64-x64-vc14-release:wmme_dev.obj
 0004:0000021c       $pdata$2$init_capture_stream 000000014004521c     pjmedia-audiodev-x86_64-x64-vc14-release:wmme_dev.obj
 0004:00000228       $pdata$3$init_capture_stream 0000000140045228     pjmedia-audiodev-x86_64-x64-vc14-release:wmme_dev.obj
 0004:00000234       $pdata$init_player_stream  0000000140045234     pjmedia-audiodev-x86_64-x64-vc14-release:wmme_dev.obj
 0004:00000240       $pdata$0$init_player_stream 0000000140045240     pjmedia-audiodev-x86_64-x64-vc14-release:wmme_dev.obj
 0004:0000024c       $pdata$1$init_player_stream 000000014004524c     pjmedia-audiodev-x86_64-x64-vc14-release:wmme_dev.obj
 0004:00000258       $pdata$2$init_player_stream 0000000140045258     pjmedia-audiodev-x86_64-x64-vc14-release:wmme_dev.obj
 0004:00000264       $pdata$3$init_player_stream 0000000140045264     pjmedia-audiodev-x86_64-x64-vc14-release:wmme_dev.obj
 0004:00000270       $pdata$pjmedia_frame_ext_copy_payload 0000000140045270     pjmedia-audiodev-x86_64-x64-vc14-release:wmme_dev.obj
 0004:0000027c       $pdata$0$pjmedia_frame_ext_copy_payload 000000014004527c     pjmedia-audiodev-x86_64-x64-vc14-release:wmme_dev.obj
 0004:00000288       $pdata$1$pjmedia_frame_ext_copy_payload 0000000140045288     pjmedia-audiodev-x86_64-x64-vc14-release:wmme_dev.obj
 0004:00000294       $pdata$pjmedia_wmme_factory 0000000140045294     pjmedia-audiodev-x86_64-x64-vc14-release:wmme_dev.obj
 0004:000002a0       $pdata$wmme_dev_thread     00000001400452a0     pjmedia-audiodev-x86_64-x64-vc14-release:wmme_dev.obj
 0004:000002ac       $pdata$pjmedia_endpt_create2 00000001400452ac     pjmedia-x86_64-x64-vc14-release:endpoint.obj
 0004:000002b8       $pdata$3$pjmedia_endpt_create2 00000001400452b8     pjmedia-x86_64-x64-vc14-release:endpoint.obj
 0004:000002c4       $pdata$4$pjmedia_endpt_create2 00000001400452c4     pjmedia-x86_64-x64-vc14-release:endpoint.obj
 0004:000002d0       $pdata$pjmedia_endpt_destroy2 00000001400452d0     pjmedia-x86_64-x64-vc14-release:endpoint.obj
 0004:000002dc       $pdata$pjmedia_endpt_stop_threads 00000001400452dc     pjmedia-x86_64-x64-vc14-release:endpoint.obj
 0004:000002e8       $pdata$2$pjmedia_endpt_stop_threads 00000001400452e8     pjmedia-x86_64-x64-vc14-release:endpoint.obj
 0004:000002f4       $pdata$3$pjmedia_endpt_stop_threads 00000001400452f4     pjmedia-x86_64-x64-vc14-release:endpoint.obj
 0004:00000300       $pdata$sprintf             0000000140045300     pjmedia-x86_64-x64-vc14-release:endpoint.obj
 0004:0000030c       $pdata$worker_proc         000000014004530c     pjmedia-x86_64-x64-vc14-release:endpoint.obj
 0004:00000318       $pdata$0$worker_proc       0000000140045318     pjmedia-x86_64-x64-vc14-release:endpoint.obj
 0004:00000324       $pdata$1$worker_proc       0000000140045324     pjmedia-x86_64-x64-vc14-release:endpoint.obj
 0004:00000330       $pdata$pjmedia_snd_port_connect 0000000140045330     pjmedia-x86_64-x64-vc14-release:sound_port.obj
 0004:0000033c       $pdata$pjmedia_snd_port_create2 000000014004533c     pjmedia-x86_64-x64-vc14-release:sound_port.obj
 0004:00000348       $pdata$0$pjmedia_snd_port_create2 0000000140045348     pjmedia-x86_64-x64-vc14-release:sound_port.obj
 0004:00000354       $pdata$2$pjmedia_snd_port_create2 0000000140045354     pjmedia-x86_64-x64-vc14-release:sound_port.obj
 0004:00000360       $pdata$3$pjmedia_snd_port_create2 0000000140045360     pjmedia-x86_64-x64-vc14-release:sound_port.obj
 0004:0000036c       $pdata$pjmedia_snd_port_create_rec 000000014004536c     pjmedia-x86_64-x64-vc14-release:sound_port.obj
 0004:00000378       $pdata$pjmedia_snd_port_destroy 0000000140045378     pjmedia-x86_64-x64-vc14-release:sound_port.obj
 0004:00000384       $pdata$pjmedia_snd_port_set_ec 0000000140045384     pjmedia-x86_64-x64-vc14-release:sound_port.obj
 0004:00000390       $pdata$0$pjmedia_snd_port_set_ec 0000000140045390     pjmedia-x86_64-x64-vc14-release:sound_port.obj
 0004:0000039c       $pdata$1$pjmedia_snd_port_set_ec 000000014004539c     pjmedia-x86_64-x64-vc14-release:sound_port.obj
 0004:000003a8       $pdata$play_cb             00000001400453a8     pjmedia-x86_64-x64-vc14-release:sound_port.obj
 0004:000003b4       $pdata$play_cb_ext         00000001400453b4     pjmedia-x86_64-x64-vc14-release:sound_port.obj
 0004:000003c0       $pdata$rec_cb              00000001400453c0     pjmedia-x86_64-x64-vc14-release:sound_port.obj
 0004:000003cc       $pdata$rec_cb_ext          00000001400453cc     pjmedia-x86_64-x64-vc14-release:sound_port.obj
 0004:000003d8       $pdata$start_sound_device  00000001400453d8     pjmedia-x86_64-x64-vc14-release:sound_port.obj
 0004:000003e4       $pdata$0$start_sound_device 00000001400453e4     pjmedia-x86_64-x64-vc14-release:sound_port.obj
 0004:000003f0       $pdata$1$start_sound_device 00000001400453f0     pjmedia-x86_64-x64-vc14-release:sound_port.obj
 0004:000003fc       $pdata$file_on_destroy     00000001400453fc     pjmedia-x86_64-x64-vc14-release:wav_writer.obj
 0004:00000408       $pdata$file_on_event       0000000140045408     pjmedia-x86_64-x64-vc14-release:wav_writer.obj
 0004:00000414       $pdata$file_put_frame      0000000140045414     pjmedia-x86_64-x64-vc14-release:wav_writer.obj
 0004:00000420       $pdata$0$file_put_frame    0000000140045420     pjmedia-x86_64-x64-vc14-release:wav_writer.obj
 0004:0000042c       $pdata$1$file_put_frame    000000014004542c     pjmedia-x86_64-x64-vc14-release:wav_writer.obj
 0004:00000438       $pdata$2$file_put_frame    0000000140045438     pjmedia-x86_64-x64-vc14-release:wav_writer.obj
 0004:00000444       $pdata$pjmedia_wav_writer_port_create 0000000140045444     pjmedia-x86_64-x64-vc14-release:wav_writer.obj
 0004:00000450       $pdata$1$pjmedia_wav_writer_port_create 0000000140045450     pjmedia-x86_64-x64-vc14-release:wav_writer.obj
 0004:0000045c       $pdata$2$pjmedia_wav_writer_port_create 000000014004545c     pjmedia-x86_64-x64-vc14-release:wav_writer.obj
 0004:00000468       $pdata$lookup_dev          0000000140045468     pjmedia-x86_64-x64-vc14-release:audiodev.obj
 0004:00000474       $pdata$pjmedia_aud_dev_default_param 0000000140045474     pjmedia-x86_64-x64-vc14-release:audiodev.obj
 0004:00000480       $pdata$0$pjmedia_aud_dev_default_param 0000000140045480     pjmedia-x86_64-x64-vc14-release:audiodev.obj
 0004:0000048c       $pdata$1$pjmedia_aud_dev_default_param 000000014004548c     pjmedia-x86_64-x64-vc14-release:audiodev.obj
 0004:00000498       $pdata$pjmedia_aud_dev_get_info 0000000140045498     pjmedia-x86_64-x64-vc14-release:audiodev.obj
 0004:000004a4       $pdata$pjmedia_aud_driver_deinit 00000001400454a4     pjmedia-x86_64-x64-vc14-release:audiodev.obj
 0004:000004b0       $pdata$pjmedia_aud_driver_init 00000001400454b0     pjmedia-x86_64-x64-vc14-release:audiodev.obj
 0004:000004bc       $pdata$2$pjmedia_aud_driver_init 00000001400454bc     pjmedia-x86_64-x64-vc14-release:audiodev.obj
 0004:000004c8       $pdata$3$pjmedia_aud_driver_init 00000001400454c8     pjmedia-x86_64-x64-vc14-release:audiodev.obj
 0004:000004d4       $pdata$4$pjmedia_aud_driver_init 00000001400454d4     pjmedia-x86_64-x64-vc14-release:audiodev.obj
 0004:000004e0       $pdata$pjmedia_aud_stream_create 00000001400454e0     pjmedia-x86_64-x64-vc14-release:audiodev.obj
 0004:000004ec       $pdata$0$pjmedia_aud_stream_create 00000001400454ec     pjmedia-x86_64-x64-vc14-release:audiodev.obj
 0004:000004f8       $pdata$1$pjmedia_aud_stream_create 00000001400454f8     pjmedia-x86_64-x64-vc14-release:audiodev.obj
 0004:00000504       $pdata$pjmedia_aud_stream_get_param 0000000140045504     pjmedia-x86_64-x64-vc14-release:audiodev.obj
 0004:00000510       $pdata$event_queue_add_event 0000000140045510     pjmedia-x86_64-x64-vc14-release:event.obj
 0004:0000051c       $pdata$pjmedia_event_init  000000014004551c     pjmedia-x86_64-x64-vc14-release:event.obj
 0004:00000528       $pdata$pjmedia_event_publish 0000000140045528     pjmedia-x86_64-x64-vc14-release:event.obj
 0004:00000534       $pdata$1$pjmedia_event_publish 0000000140045534     pjmedia-x86_64-x64-vc14-release:event.obj
 0004:00000540       $pdata$2$pjmedia_event_publish 0000000140045540     pjmedia-x86_64-x64-vc14-release:event.obj
 0004:0000054c       $pdata$pjmedia_event_subscribe 000000014004554c     pjmedia-x86_64-x64-vc14-release:event.obj
 0004:00000558       $pdata$1$pjmedia_event_subscribe 0000000140045558     pjmedia-x86_64-x64-vc14-release:event.obj
 0004:00000564       $pdata$2$pjmedia_event_subscribe 0000000140045564     pjmedia-x86_64-x64-vc14-release:event.obj
 0004:00000570       $pdata$3$pjmedia_event_subscribe 0000000140045570     pjmedia-x86_64-x64-vc14-release:event.obj
 0004:0000057c       $pdata$4$pjmedia_event_subscribe 000000014004557c     pjmedia-x86_64-x64-vc14-release:event.obj
 0004:00000588       $pdata$pjmedia_event_unsubscribe 0000000140045588     pjmedia-x86_64-x64-vc14-release:event.obj
 0004:00000594       $pdata$2$pjmedia_event_unsubscribe 0000000140045594     pjmedia-x86_64-x64-vc14-release:event.obj
 0004:000005a0       $pdata$3$pjmedia_event_unsubscribe 00000001400455a0     pjmedia-x86_64-x64-vc14-release:event.obj
 0004:000005ac       $pdata$pjmedia_sdp_attr_create 00000001400455ac     pjmedia-x86_64-x64-vc14-release:sdp.obj
 0004:000005b8       $pdata$0$pjmedia_sdp_attr_create 00000001400455b8     pjmedia-x86_64-x64-vc14-release:sdp.obj
 0004:000005c4       $pdata$2$pjmedia_sdp_attr_create 00000001400455c4     pjmedia-x86_64-x64-vc14-release:sdp.obj
 0004:000005d0       $pdata$3$pjmedia_sdp_attr_create 00000001400455d0     pjmedia-x86_64-x64-vc14-release:sdp.obj
 0004:000005dc       $pdata$pjmedia_sdp_attr_find 00000001400455dc     pjmedia-x86_64-x64-vc14-release:sdp.obj
 0004:000005e8       $pdata$1$pjmedia_sdp_attr_find 00000001400455e8     pjmedia-x86_64-x64-vc14-release:sdp.obj
 0004:000005f4       $pdata$2$pjmedia_sdp_attr_find 00000001400455f4     pjmedia-x86_64-x64-vc14-release:sdp.obj
 0004:00000600       $pdata$3$pjmedia_sdp_attr_find 0000000140045600     pjmedia-x86_64-x64-vc14-release:sdp.obj
 0004:0000060c       $pdata$pjmedia_sdp_transport_get_proto 000000014004560c     pjmedia-x86_64-x64-vc14-release:sdp.obj
 0004:00000618       $pdata$pjmedia_codec_mgr_destroy 0000000140045618     pjmedia-x86_64-x64-vc14-release:codec.obj
 0004:00000624       $pdata$0$pjmedia_codec_mgr_destroy 0000000140045624     pjmedia-x86_64-x64-vc14-release:codec.obj
 0004:00000630       $pdata$1$pjmedia_codec_mgr_destroy 0000000140045630     pjmedia-x86_64-x64-vc14-release:codec.obj
 0004:0000063c       $pdata$2$pjmedia_codec_mgr_destroy 000000014004563c     pjmedia-x86_64-x64-vc14-release:codec.obj
 0004:00000648       $pdata$3$pjmedia_codec_mgr_destroy 0000000140045648     pjmedia-x86_64-x64-vc14-release:codec.obj
 0004:00000654       $pdata$pjmedia_codec_mgr_init 0000000140045654     pjmedia-x86_64-x64-vc14-release:codec.obj
 0004:00000660       $pdata$pjmedia_strerror    0000000140045660     pjmedia-x86_64-x64-vc14-release:errno.obj
 0004:0000066c       $pdata$1$pjmedia_strerror  000000014004566c     pjmedia-x86_64-x64-vc14-release:errno.obj
 0004:00000678       $pdata$2$pjmedia_strerror  0000000140045678     pjmedia-x86_64-x64-vc14-release:errno.obj
 0004:00000684       $pdata$pjmedia_clock_src_init 0000000140045684     pjmedia-x86_64-x64-vc14-release:clock_thread.obj
 0004:00000690       $pdata$pjmedia_clock_src_update 0000000140045690     pjmedia-x86_64-x64-vc14-release:clock_thread.obj
 0004:0000069c       $pdata$pjmedia_echo_capture 000000014004569c     pjmedia-x86_64-x64-vc14-release:echo_common.obj
 0004:000006a8       $pdata$pjmedia_echo_create2 00000001400456a8     pjmedia-x86_64-x64-vc14-release:echo_common.obj
 0004:000006b4       $pdata$pjmedia_echo_destroy 00000001400456b4     pjmedia-x86_64-x64-vc14-release:echo_common.obj
 0004:000006c0       $pdata$pjmedia_echo_playback 00000001400456c0     pjmedia-x86_64-x64-vc14-release:echo_common.obj
 0004:000006cc       $pdata$0$pjmedia_echo_playback 00000001400456cc     pjmedia-x86_64-x64-vc14-release:echo_common.obj
 0004:000006d8       $pdata$2$pjmedia_echo_playback 00000001400456d8     pjmedia-x86_64-x64-vc14-release:echo_common.obj
 0004:000006e4       $pdata$pjmedia_echo_stat_default 00000001400456e4     pjmedia-x86_64-x64-vc14-release:echo_common.obj
 0004:000006f0       $pdata$transport_media_start 00000001400456f0     pjmedia-x86_64-x64-vc14-release:transport_srtp.obj
 0004:000006fc       $pdata$0$transport_media_start 00000001400456fc     pjmedia-x86_64-x64-vc14-release:transport_srtp.obj
 0004:00000708       $pdata$1$transport_media_start 0000000140045708     pjmedia-x86_64-x64-vc14-release:transport_srtp.obj
 0004:00000714       $pdata$2$transport_media_start 0000000140045714     pjmedia-x86_64-x64-vc14-release:transport_srtp.obj
 0004:00000720       $pdata$3$transport_media_start 0000000140045720     pjmedia-x86_64-x64-vc14-release:transport_srtp.obj
 0004:0000072c       $pdata$4$transport_media_start 000000014004572c     pjmedia-x86_64-x64-vc14-release:transport_srtp.obj
 0004:00000738       $pdata$6$transport_media_start 0000000140045738     pjmedia-x86_64-x64-vc14-release:transport_srtp.obj
 0004:00000744       $pdata$8$transport_media_start 0000000140045744     pjmedia-x86_64-x64-vc14-release:transport_srtp.obj
 0004:00000750       $pdata$transport_media_stop 0000000140045750     pjmedia-x86_64-x64-vc14-release:transport_srtp.obj
 0004:0000075c       $pdata$0$transport_media_stop 000000014004575c     pjmedia-x86_64-x64-vc14-release:transport_srtp.obj
 0004:00000768       $pdata$4$transport_media_stop 0000000140045768     pjmedia-x86_64-x64-vc14-release:transport_srtp.obj
 0004:00000774       $pdata$transport_destroy   0000000140045774     pjmedia-x86_64-x64-vc14-release:transport_srtp.obj
 0004:00000780       $pdata$transport_attach2   0000000140045780     pjmedia-x86_64-x64-vc14-release:transport_srtp.obj
 0004:0000078c       $pdata$1$transport_attach2 000000014004578c     pjmedia-x86_64-x64-vc14-release:transport_srtp.obj
 0004:00000798       $pdata$2$transport_attach2 0000000140045798     pjmedia-x86_64-x64-vc14-release:transport_srtp.obj
 0004:000007a4       $pdata$3$transport_attach2 00000001400457a4     pjmedia-x86_64-x64-vc14-release:transport_srtp.obj
 0004:000007b0       $pdata$4$transport_attach2 00000001400457b0     pjmedia-x86_64-x64-vc14-release:transport_srtp.obj
 0004:000007bc       $pdata$sdes_media_create   00000001400457bc     pjmedia-x86_64-x64-vc14-release:transport_srtp.obj
 0004:000007c8       $pdata$sdes_encode_sdp     00000001400457c8     pjmedia-x86_64-x64-vc14-release:transport_srtp.obj
 0004:000007d4       $pdata$2$sdes_encode_sdp   00000001400457d4     pjmedia-x86_64-x64-vc14-release:transport_srtp.obj
 0004:000007e0       $pdata$3$sdes_encode_sdp   00000001400457e0     pjmedia-x86_64-x64-vc14-release:transport_srtp.obj
 0004:000007ec       $pdata$sdes_media_start    00000001400457ec     pjmedia-x86_64-x64-vc14-release:transport_srtp.obj
 0004:000007f8       $pdata$1$sdes_media_start  00000001400457f8     pjmedia-x86_64-x64-vc14-release:transport_srtp.obj
 0004:00000804       $pdata$2$sdes_media_start  0000000140045804     pjmedia-x86_64-x64-vc14-release:transport_srtp.obj
 0004:00000810       $pdata$transport_get_info  0000000140045810     pjmedia-x86_64-x64-vc14-release:transport_srtp.obj
 0004:0000081c       $pdata$0$transport_get_info 000000014004581c     pjmedia-x86_64-x64-vc14-release:transport_srtp.obj
 0004:00000828       $pdata$1$transport_get_info 0000000140045828     pjmedia-x86_64-x64-vc14-release:transport_srtp.obj
 0004:00000834       $pdata$transport_detach    0000000140045834     pjmedia-x86_64-x64-vc14-release:transport_srtp.obj
 0004:00000840       $pdata$0$transport_detach  0000000140045840     pjmedia-x86_64-x64-vc14-release:transport_srtp.obj
 0004:0000084c       $pdata$1$transport_detach  000000014004584c     pjmedia-x86_64-x64-vc14-release:transport_srtp.obj
 0004:00000858       $pdata$transport_send_rtp  0000000140045858     pjmedia-x86_64-x64-vc14-release:transport_srtp.obj
 0004:00000864       $pdata$0$transport_send_rtp 0000000140045864     pjmedia-x86_64-x64-vc14-release:transport_srtp.obj
 0004:00000870       $pdata$3$transport_send_rtp 0000000140045870     pjmedia-x86_64-x64-vc14-release:transport_srtp.obj
 0004:0000087c       $pdata$5$transport_send_rtp 000000014004587c     pjmedia-x86_64-x64-vc14-release:transport_srtp.obj
 0004:00000888       $pdata$transport_send_rtcp 0000000140045888     pjmedia-x86_64-x64-vc14-release:transport_srtp.obj
 0004:00000894       $pdata$transport_send_rtcp2 0000000140045894     pjmedia-x86_64-x64-vc14-release:transport_srtp.obj
 0004:000008a0       $pdata$1$transport_send_rtcp2 00000001400458a0     pjmedia-x86_64-x64-vc14-release:transport_srtp.obj
 0004:000008ac       $pdata$2$transport_send_rtcp2 00000001400458ac     pjmedia-x86_64-x64-vc14-release:transport_srtp.obj
 0004:000008b8       $pdata$transport_media_create 00000001400458b8     pjmedia-x86_64-x64-vc14-release:transport_srtp.obj
 0004:000008c4       $pdata$0$transport_media_create 00000001400458c4     pjmedia-x86_64-x64-vc14-release:transport_srtp.obj
 0004:000008d0       $pdata$1$transport_media_create 00000001400458d0     pjmedia-x86_64-x64-vc14-release:transport_srtp.obj
 0004:000008dc       $pdata$2$transport_media_create 00000001400458dc     pjmedia-x86_64-x64-vc14-release:transport_srtp.obj
 0004:000008e8       $pdata$3$transport_media_create 00000001400458e8     pjmedia-x86_64-x64-vc14-release:transport_srtp.obj
 0004:000008f4       $pdata$4$transport_media_create 00000001400458f4     pjmedia-x86_64-x64-vc14-release:transport_srtp.obj
 0004:00000900       $pdata$6$transport_media_create 0000000140045900     pjmedia-x86_64-x64-vc14-release:transport_srtp.obj
 0004:0000090c       $pdata$transport_encode_sdp 000000014004590c     pjmedia-x86_64-x64-vc14-release:transport_srtp.obj
 0004:00000918       $pdata$0$transport_encode_sdp 0000000140045918     pjmedia-x86_64-x64-vc14-release:transport_srtp.obj
 0004:00000924       $pdata$1$transport_encode_sdp 0000000140045924     pjmedia-x86_64-x64-vc14-release:transport_srtp.obj
 0004:00000930       $pdata$2$transport_encode_sdp 0000000140045930     pjmedia-x86_64-x64-vc14-release:transport_srtp.obj
 0004:0000093c       $pdata$3$transport_encode_sdp 000000014004593c     pjmedia-x86_64-x64-vc14-release:transport_srtp.obj
 0004:00000948       $pdata$4$transport_encode_sdp 0000000140045948     pjmedia-x86_64-x64-vc14-release:transport_srtp.obj
 0004:00000954       $pdata$6$transport_encode_sdp 0000000140045954     pjmedia-x86_64-x64-vc14-release:transport_srtp.obj
 0004:00000960       $pdata$7$transport_encode_sdp 0000000140045960     pjmedia-x86_64-x64-vc14-release:transport_srtp.obj
 0004:0000096c       $pdata$fill_local_crypto   000000014004596c     pjmedia-x86_64-x64-vc14-release:transport_srtp.obj
 0004:00000978       $pdata$generate_crypto_attr_value 0000000140045978     pjmedia-x86_64-x64-vc14-release:transport_srtp.obj
 0004:00000984       $pdata$2$generate_crypto_attr_value 0000000140045984     pjmedia-x86_64-x64-vc14-release:transport_srtp.obj
 0004:00000990       $pdata$3$generate_crypto_attr_value 0000000140045990     pjmedia-x86_64-x64-vc14-release:transport_srtp.obj
 0004:0000099c       $pdata$4$generate_crypto_attr_value 000000014004599c     pjmedia-x86_64-x64-vc14-release:transport_srtp.obj
 0004:000009a8       $pdata$get_crypto_idx      00000001400459a8     pjmedia-x86_64-x64-vc14-release:transport_srtp.obj
 0004:000009b4       $pdata$get_libsrtp_errstr  00000001400459b4     pjmedia-x86_64-x64-vc14-release:transport_srtp.obj
 0004:000009c0       $pdata$parse_attr_crypto   00000001400459c0     pjmedia-x86_64-x64-vc14-release:transport_srtp.obj
 0004:000009cc       $pdata$pjmedia_transport_srtp_start 00000001400459cc     pjmedia-x86_64-x64-vc14-release:transport_srtp.obj
 0004:000009d8       $pdata$2$pjmedia_transport_srtp_start 00000001400459d8     pjmedia-x86_64-x64-vc14-release:transport_srtp.obj
 0004:000009e4       $pdata$3$pjmedia_transport_srtp_start 00000001400459e4     pjmedia-x86_64-x64-vc14-release:transport_srtp.obj
 0004:000009f0       $pdata$4$pjmedia_transport_srtp_start 00000001400459f0     pjmedia-x86_64-x64-vc14-release:transport_srtp.obj
 0004:000009fc       $pdata$pjmedia_transport_srtp_stop 00000001400459fc     pjmedia-x86_64-x64-vc14-release:transport_srtp.obj
 0004:00000a08       $pdata$srtp_rtcp_cb        0000000140045a08     pjmedia-x86_64-x64-vc14-release:transport_srtp.obj
 0004:00000a14       $pdata$0$srtp_rtcp_cb      0000000140045a14     pjmedia-x86_64-x64-vc14-release:transport_srtp.obj
 0004:00000a20       $pdata$1$srtp_rtcp_cb      0000000140045a20     pjmedia-x86_64-x64-vc14-release:transport_srtp.obj
 0004:00000a2c       $pdata$srtp_rtp_cb         0000000140045a2c     pjmedia-x86_64-x64-vc14-release:transport_srtp.obj
 0004:00000a38       $pdata$0$srtp_rtp_cb       0000000140045a38     pjmedia-x86_64-x64-vc14-release:transport_srtp.obj
 0004:00000a44       $pdata$1$srtp_rtp_cb       0000000140045a44     pjmedia-x86_64-x64-vc14-release:transport_srtp.obj
 0004:00000a50       $pdata$2$srtp_rtp_cb       0000000140045a50     pjmedia-x86_64-x64-vc14-release:transport_srtp.obj
 0004:00000a5c       $pdata$3$srtp_rtp_cb       0000000140045a5c     pjmedia-x86_64-x64-vc14-release:transport_srtp.obj
 0004:00000a68       $pdata$4$srtp_rtp_cb       0000000140045a68     pjmedia-x86_64-x64-vc14-release:transport_srtp.obj
 0004:00000a74       $pdata$5$srtp_rtp_cb       0000000140045a74     pjmedia-x86_64-x64-vc14-release:transport_srtp.obj
 0004:00000a80       $pdata$start_srtp          0000000140045a80     pjmedia-x86_64-x64-vc14-release:transport_srtp.obj
 0004:00000a8c       $pdata$0$start_srtp        0000000140045a8c     pjmedia-x86_64-x64-vc14-release:transport_srtp.obj
 0004:00000a98       $pdata$1$start_srtp        0000000140045a98     pjmedia-x86_64-x64-vc14-release:transport_srtp.obj
 0004:00000aa4       $pdata$echo_supp_cancel_echo 0000000140045aa4     pjmedia-x86_64-x64-vc14-release:echo_suppress.obj
 0004:00000ab0       $pdata$echo_supp_create    0000000140045ab0     pjmedia-x86_64-x64-vc14-release:echo_suppress.obj
 0004:00000abc       $pdata$0$echo_supp_create  0000000140045abc     pjmedia-x86_64-x64-vc14-release:echo_suppress.obj
 0004:00000ac8       $pdata$1$echo_supp_create  0000000140045ac8     pjmedia-x86_64-x64-vc14-release:echo_suppress.obj
 0004:00000ad4       $pdata$echo_supp_get_stat  0000000140045ad4     pjmedia-x86_64-x64-vc14-release:echo_suppress.obj
 0004:00000ae0       $pdata$echo_supp_reset     0000000140045ae0     pjmedia-x86_64-x64-vc14-release:echo_suppress.obj
 0004:00000aec       $pdata$echo_supp_update    0000000140045aec     pjmedia-x86_64-x64-vc14-release:echo_suppress.obj
 0004:00000af8       $pdata$1$echo_supp_update  0000000140045af8     pjmedia-x86_64-x64-vc14-release:echo_suppress.obj
 0004:00000b04       $pdata$2$echo_supp_update  0000000140045b04     pjmedia-x86_64-x64-vc14-release:echo_suppress.obj
 0004:00000b10       $pdata$3$echo_supp_update  0000000140045b10     pjmedia-x86_64-x64-vc14-release:echo_suppress.obj
 0004:00000b1c       $pdata$4$echo_supp_update  0000000140045b1c     pjmedia-x86_64-x64-vc14-release:echo_suppress.obj
 0004:00000b28       $pdata$5$echo_supp_update  0000000140045b28     pjmedia-x86_64-x64-vc14-release:echo_suppress.obj
 0004:00000b34       $pdata$6$echo_supp_update  0000000140045b34     pjmedia-x86_64-x64-vc14-release:echo_suppress.obj
 0004:00000b40       $pdata$7$echo_supp_update  0000000140045b40     pjmedia-x86_64-x64-vc14-release:echo_suppress.obj
 0004:00000b4c       $pdata$speex_aec_cancel_echo 0000000140045b4c     pjmedia-x86_64-x64-vc14-release:echo_speex.obj
 0004:00000b58       $pdata$0$speex_aec_cancel_echo 0000000140045b58     pjmedia-x86_64-x64-vc14-release:echo_speex.obj
 0004:00000b64       $pdata$1$speex_aec_cancel_echo 0000000140045b64     pjmedia-x86_64-x64-vc14-release:echo_speex.obj
 0004:00000b70       $pdata$speex_aec_capture   0000000140045b70     pjmedia-x86_64-x64-vc14-release:echo_speex.obj
 0004:00000b7c       $pdata$0$speex_aec_capture 0000000140045b7c     pjmedia-x86_64-x64-vc14-release:echo_speex.obj
 0004:00000b88       $pdata$1$speex_aec_capture 0000000140045b88     pjmedia-x86_64-x64-vc14-release:echo_speex.obj
 0004:00000b94       $pdata$speex_aec_create    0000000140045b94     pjmedia-x86_64-x64-vc14-release:echo_speex.obj
 0004:00000ba0       $pdata$0$speex_aec_create  0000000140045ba0     pjmedia-x86_64-x64-vc14-release:echo_speex.obj
 0004:00000bac       $pdata$1$speex_aec_create  0000000140045bac     pjmedia-x86_64-x64-vc14-release:echo_speex.obj
 0004:00000bb8       $pdata$speex_aec_destroy   0000000140045bb8     pjmedia-x86_64-x64-vc14-release:echo_speex.obj
 0004:00000bc4       $pdata$0$speex_aec_destroy 0000000140045bc4     pjmedia-x86_64-x64-vc14-release:echo_speex.obj
 0004:00000bd0       $pdata$1$speex_aec_destroy 0000000140045bd0     pjmedia-x86_64-x64-vc14-release:echo_speex.obj
 0004:00000bdc       $pdata$2$speex_aec_destroy 0000000140045bdc     pjmedia-x86_64-x64-vc14-release:echo_speex.obj
 0004:00000be8       $pdata$3$speex_aec_destroy 0000000140045be8     pjmedia-x86_64-x64-vc14-release:echo_speex.obj
 0004:00000bf4       $pdata$4$speex_aec_destroy 0000000140045bf4     pjmedia-x86_64-x64-vc14-release:echo_speex.obj
 0004:00000c00       $pdata$5$speex_aec_destroy 0000000140045c00     pjmedia-x86_64-x64-vc14-release:echo_speex.obj
 0004:00000c0c       $pdata$speex_aec_playback  0000000140045c0c     pjmedia-x86_64-x64-vc14-release:echo_speex.obj
 0004:00000c18       $pdata$pjmedia_circ_buf_read 0000000140045c18     pjmedia-x86_64-x64-vc14-release:delaybuf.obj
 0004:00000c24       $pdata$0$pjmedia_circ_buf_read 0000000140045c24     pjmedia-x86_64-x64-vc14-release:delaybuf.obj
 0004:00000c30       $pdata$1$pjmedia_circ_buf_read 0000000140045c30     pjmedia-x86_64-x64-vc14-release:delaybuf.obj
 0004:00000c3c       $pdata$pjmedia_circ_buf_write 0000000140045c3c     pjmedia-x86_64-x64-vc14-release:delaybuf.obj
 0004:00000c3c       $pdata$pjmedia_circ_buf_write 0000000140045c3c     pjmedia-x86_64-x64-vc14-release:wsola.obj
 0004:00000c48       $pdata$0$pjmedia_circ_buf_write 0000000140045c48     pjmedia-x86_64-x64-vc14-release:wsola.obj
 0004:00000c48       $pdata$0$pjmedia_circ_buf_write 0000000140045c48     pjmedia-x86_64-x64-vc14-release:delaybuf.obj
 0004:00000c54       $pdata$1$pjmedia_circ_buf_write 0000000140045c54     pjmedia-x86_64-x64-vc14-release:wsola.obj
 0004:00000c54       $pdata$1$pjmedia_circ_buf_write 0000000140045c54     pjmedia-x86_64-x64-vc14-release:delaybuf.obj
 0004:00000c60       $pdata$pjmedia_delay_buf_create 0000000140045c60     pjmedia-x86_64-x64-vc14-release:delaybuf.obj
 0004:00000c6c       $pdata$0$pjmedia_delay_buf_create 0000000140045c6c     pjmedia-x86_64-x64-vc14-release:delaybuf.obj
 0004:00000c78       $pdata$1$pjmedia_delay_buf_create 0000000140045c78     pjmedia-x86_64-x64-vc14-release:delaybuf.obj
 0004:00000c84       $pdata$pjmedia_delay_buf_destroy 0000000140045c84     pjmedia-x86_64-x64-vc14-release:delaybuf.obj
 0004:00000c90       $pdata$pjmedia_delay_buf_get 0000000140045c90     pjmedia-x86_64-x64-vc14-release:delaybuf.obj
 0004:00000c9c       $pdata$0$pjmedia_delay_buf_get 0000000140045c9c     pjmedia-x86_64-x64-vc14-release:delaybuf.obj
 0004:00000ca8       $pdata$1$pjmedia_delay_buf_get 0000000140045ca8     pjmedia-x86_64-x64-vc14-release:delaybuf.obj
 0004:00000cb4       $pdata$pjmedia_delay_buf_put 0000000140045cb4     pjmedia-x86_64-x64-vc14-release:delaybuf.obj
 0004:00000cc0       $pdata$0$pjmedia_delay_buf_put 0000000140045cc0     pjmedia-x86_64-x64-vc14-release:delaybuf.obj
 0004:00000ccc       $pdata$2$pjmedia_delay_buf_put 0000000140045ccc     pjmedia-x86_64-x64-vc14-release:delaybuf.obj
 0004:00000cd8       $pdata$3$pjmedia_delay_buf_put 0000000140045cd8     pjmedia-x86_64-x64-vc14-release:delaybuf.obj
 0004:00000ce4       $pdata$shrink_buffer       0000000140045ce4     pjmedia-x86_64-x64-vc14-release:delaybuf.obj
 0004:00000cf0       $pdata$update              0000000140045cf0     pjmedia-x86_64-x64-vc14-release:delaybuf.obj
 0004:00000cfc       $pdata$0$update            0000000140045cfc     pjmedia-x86_64-x64-vc14-release:delaybuf.obj
 0004:00000d08       $pdata$1$update            0000000140045d08     pjmedia-x86_64-x64-vc14-release:delaybuf.obj
 0004:00000d14       $pdata$compress            0000000140045d14     pjmedia-x86_64-x64-vc14-release:wsola.obj
 0004:00000d20       $pdata$create_win          0000000140045d20     pjmedia-x86_64-x64-vc14-release:wsola.obj
 0004:00000d2c       $pdata$1$create_win        0000000140045d2c     pjmedia-x86_64-x64-vc14-release:wsola.obj
 0004:00000d38       $pdata$5$create_win        0000000140045d38     pjmedia-x86_64-x64-vc14-release:wsola.obj
 0004:00000d44       $pdata$6$create_win        0000000140045d44     pjmedia-x86_64-x64-vc14-release:wsola.obj
 0004:00000d50       $pdata$7$create_win        0000000140045d50     pjmedia-x86_64-x64-vc14-release:wsola.obj
 0004:00000d5c       $pdata$expand              0000000140045d5c     pjmedia-x86_64-x64-vc14-release:wsola.obj
 0004:00000d68       $pdata$find_pitch          0000000140045d68     pjmedia-x86_64-x64-vc14-release:wsola.obj
 0004:00000d74       $pdata$4$find_pitch        0000000140045d74     pjmedia-x86_64-x64-vc14-release:wsola.obj
 0004:00000d80       $pdata$5$find_pitch        0000000140045d80     pjmedia-x86_64-x64-vc14-release:wsola.obj
 0004:00000d8c       $pdata$overlapp_add        0000000140045d8c     pjmedia-x86_64-x64-vc14-release:wsola.obj
 0004:00000d98       $pdata$3$overlapp_add      0000000140045d98     pjmedia-x86_64-x64-vc14-release:wsola.obj
 0004:00000da4       $pdata$4$overlapp_add      0000000140045da4     pjmedia-x86_64-x64-vc14-release:wsola.obj
 0004:00000db0       $pdata$overlapp_add_simple 0000000140045db0     pjmedia-x86_64-x64-vc14-release:wsola.obj
 0004:00000dbc       $pdata$1$overlapp_add_simple 0000000140045dbc     pjmedia-x86_64-x64-vc14-release:wsola.obj
 0004:00000dc8       $pdata$2$overlapp_add_simple 0000000140045dc8     pjmedia-x86_64-x64-vc14-release:wsola.obj
 0004:00000dd4       $pdata$pjmedia_circ_buf_copy 0000000140045dd4     pjmedia-x86_64-x64-vc14-release:wsola.obj
 0004:00000de0       $pdata$pjmedia_circ_buf_pack_buffer 0000000140045de0     pjmedia-x86_64-x64-vc14-release:wsola.obj
 0004:00000dec       $pdata$1$pjmedia_circ_buf_pack_buffer 0000000140045dec     pjmedia-x86_64-x64-vc14-release:wsola.obj
 0004:00000df8       $pdata$2$pjmedia_circ_buf_pack_buffer 0000000140045df8     pjmedia-x86_64-x64-vc14-release:wsola.obj
 0004:00000e04       $pdata$pjmedia_wsola_create 0000000140045e04     pjmedia-x86_64-x64-vc14-release:wsola.obj
 0004:00000e10       $pdata$0$pjmedia_wsola_create 0000000140045e10     pjmedia-x86_64-x64-vc14-release:wsola.obj
 0004:00000e1c       $pdata$2$pjmedia_wsola_create 0000000140045e1c     pjmedia-x86_64-x64-vc14-release:wsola.obj
 0004:00000e28       $pdata$3$pjmedia_wsola_create 0000000140045e28     pjmedia-x86_64-x64-vc14-release:wsola.obj
 0004:00000e34       $pdata$4$pjmedia_wsola_create 0000000140045e34     pjmedia-x86_64-x64-vc14-release:wsola.obj
 0004:00000e40       $pdata$5$pjmedia_wsola_create 0000000140045e40     pjmedia-x86_64-x64-vc14-release:wsola.obj
 0004:00000e4c       $pdata$pjmedia_wsola_discard 0000000140045e4c     pjmedia-x86_64-x64-vc14-release:wsola.obj
 0004:00000e58       $pdata$0$pjmedia_wsola_discard 0000000140045e58     pjmedia-x86_64-x64-vc14-release:wsola.obj
 0004:00000e64       $pdata$2$pjmedia_wsola_discard 0000000140045e64     pjmedia-x86_64-x64-vc14-release:wsola.obj
 0004:00000e70       $pdata$4$pjmedia_wsola_discard 0000000140045e70     pjmedia-x86_64-x64-vc14-release:wsola.obj
 0004:00000e7c       $pdata$5$pjmedia_wsola_discard 0000000140045e7c     pjmedia-x86_64-x64-vc14-release:wsola.obj
 0004:00000e88       $pdata$6$pjmedia_wsola_discard 0000000140045e88     pjmedia-x86_64-x64-vc14-release:wsola.obj
 0004:00000e94       $pdata$7$pjmedia_wsola_discard 0000000140045e94     pjmedia-x86_64-x64-vc14-release:wsola.obj
 0004:00000ea0       $pdata$8$pjmedia_wsola_discard 0000000140045ea0     pjmedia-x86_64-x64-vc14-release:wsola.obj
 0004:00000eac       $pdata$pjmedia_wsola_generate 0000000140045eac     pjmedia-x86_64-x64-vc14-release:wsola.obj
 0004:00000eb8       $pdata$pjmedia_wsola_save  0000000140045eb8     pjmedia-x86_64-x64-vc14-release:wsola.obj
 0004:00000ec4       $pdata$2$pjmedia_wsola_save 0000000140045ec4     pjmedia-x86_64-x64-vc14-release:wsola.obj
 0004:00000ed0       $pdata$5$pjmedia_wsola_save 0000000140045ed0     pjmedia-x86_64-x64-vc14-release:wsola.obj
 0004:00000edc       $pdata$6$pjmedia_wsola_save 0000000140045edc     pjmedia-x86_64-x64-vc14-release:wsola.obj
 0004:00000ee8       $pdata$7$pjmedia_wsola_save 0000000140045ee8     pjmedia-x86_64-x64-vc14-release:wsola.obj
 0004:00000ef4       $pdata$wsola_fade_out      0000000140045ef4     pjmedia-x86_64-x64-vc14-release:wsola.obj
 0004:00000f00       $pdata$pj_base64_decode    0000000140045f00     pjlib-util-x86_64-x64-vc14-release:base64.obj
 0004:00000f0c       $pdata$0$pj_base64_decode  0000000140045f0c     pjlib-util-x86_64-x64-vc14-release:base64.obj
 0004:00000f18       $pdata$2$pj_base64_decode  0000000140045f18     pjlib-util-x86_64-x64-vc14-release:base64.obj
 0004:00000f24       $pdata$3$pj_base64_decode  0000000140045f24     pjlib-util-x86_64-x64-vc14-release:base64.obj
 0004:00000f30       $pdata$4$pj_base64_decode  0000000140045f30     pjlib-util-x86_64-x64-vc14-release:base64.obj
 0004:00000f3c       $pdata$pj_base64_encode    0000000140045f3c     pjlib-util-x86_64-x64-vc14-release:base64.obj
 0004:00000f48       $pdata$2$pj_base64_encode  0000000140045f48     pjlib-util-x86_64-x64-vc14-release:base64.obj
 0004:00000f54       $pdata$3$pj_base64_encode  0000000140045f54     pjlib-util-x86_64-x64-vc14-release:base64.obj
 0004:00000f60       $pdata$init_mutex          0000000140045f60     pjlib-x86_64-x64-vc14-release:os_core_win32.obj
 0004:00000f6c       $pdata$pj_atomic_dec_and_get 0000000140045f6c     pjlib-x86_64-x64-vc14-release:os_core_win32.obj
 0004:00000f78       $pdata$pj_atomic_inc_and_get 0000000140045f78     pjlib-x86_64-x64-vc14-release:os_core_win32.obj
 0004:00000f84       $pdata$pj_enter_critical_section 0000000140045f84     pjlib-x86_64-x64-vc14-release:os_core_win32.obj
 0004:00000f90       $pdata$pj_init             0000000140045f90     pjlib-x86_64-x64-vc14-release:os_core_win32.obj
 0004:00000f9c       $pdata$pj_leave_critical_section 0000000140045f9c     pjlib-x86_64-x64-vc14-release:os_core_win32.obj
 0004:00000fa8       $pdata$pj_mutex_create     0000000140045fa8     pjlib-x86_64-x64-vc14-release:os_core_win32.obj
 0004:00000fb4       $pdata$0$pj_mutex_create   0000000140045fb4     pjlib-x86_64-x64-vc14-release:os_core_win32.obj
 0004:00000fc0       $pdata$2$pj_mutex_create   0000000140045fc0     pjlib-x86_64-x64-vc14-release:os_core_win32.obj
 0004:00000fcc       $pdata$3$pj_mutex_create   0000000140045fcc     pjlib-x86_64-x64-vc14-release:os_core_win32.obj
 0004:00000fd8       $pdata$pj_mutex_create_recursive 0000000140045fd8     pjlib-x86_64-x64-vc14-release:os_core_win32.obj
 0004:00000fd8       $pdata$pj_mutex_create_simple 0000000140045fd8     pjlib-x86_64-x64-vc14-release:os_core_win32.obj
 0004:00000fe4       $pdata$0$pj_mutex_create_recursive 0000000140045fe4     pjlib-x86_64-x64-vc14-release:os_core_win32.obj
 0004:00000fe4       $pdata$0$pj_mutex_create_simple 0000000140045fe4     pjlib-x86_64-x64-vc14-release:os_core_win32.obj
 0004:00000ff0       $pdata$2$pj_mutex_create_recursive 0000000140045ff0     pjlib-x86_64-x64-vc14-release:os_core_win32.obj
 0004:00000ff0       $pdata$2$pj_mutex_create_simple 0000000140045ff0     pjlib-x86_64-x64-vc14-release:os_core_win32.obj
 0004:00000ffc       $pdata$3$pj_mutex_create_simple 0000000140045ffc     pjlib-x86_64-x64-vc14-release:os_core_win32.obj
 0004:00000ffc       $pdata$3$pj_mutex_create_recursive 0000000140045ffc     pjlib-x86_64-x64-vc14-release:os_core_win32.obj
 0004:00001008       $pdata$pj_mutex_destroy    0000000140046008     pjlib-x86_64-x64-vc14-release:os_core_win32.obj
 0004:00001014       $pdata$pj_mutex_lock       0000000140046014     pjlib-x86_64-x64-vc14-release:os_core_win32.obj
 0004:00001020       $pdata$pj_mutex_trylock    0000000140046020     pjlib-x86_64-x64-vc14-release:os_core_win32.obj
 0004:0000102c       $pdata$pj_mutex_unlock     000000014004602c     pjlib-x86_64-x64-vc14-release:os_core_win32.obj
 0004:00001038       $pdata$pj_sem_destroy      0000000140046038     pjlib-x86_64-x64-vc14-release:os_core_win32.obj
 0004:00001044       $pdata$pj_sem_post         0000000140046044     pjlib-x86_64-x64-vc14-release:os_core_win32.obj
 0004:00001050       $pdata$pj_sem_trywait      0000000140046050     pjlib-x86_64-x64-vc14-release:os_core_win32.obj
 0004:0000105c       $pdata$pj_sem_wait         000000014004605c     pjlib-x86_64-x64-vc14-release:os_core_win32.obj
 0004:00001068       $pdata$pj_sem_wait_for     0000000140046068     pjlib-x86_64-x64-vc14-release:os_core_win32.obj
 0004:00001074       $pdata$pj_shutdown         0000000140046074     pjlib-x86_64-x64-vc14-release:os_core_win32.obj
 0004:00001080       $pdata$1$pj_shutdown       0000000140046080     pjlib-x86_64-x64-vc14-release:os_core_win32.obj
 0004:0000108c       $pdata$2$pj_shutdown       000000014004608c     pjlib-x86_64-x64-vc14-release:os_core_win32.obj
 0004:00001098       $pdata$pj_term_set_color   0000000140046098     pjlib-x86_64-x64-vc14-release:os_core_win32.obj
 0004:000010a4       $pdata$pj_thread_check_stack 00000001400460a4     pjlib-x86_64-x64-vc14-release:os_core_win32.obj
 0004:000010b0       $pdata$pj_thread_create    00000001400460b0     pjlib-x86_64-x64-vc14-release:os_core_win32.obj
 0004:000010bc       $pdata$1$pj_thread_create  00000001400460bc     pjlib-x86_64-x64-vc14-release:os_core_win32.obj
 0004:000010c8       $pdata$2$pj_thread_create  00000001400460c8     pjlib-x86_64-x64-vc14-release:os_core_win32.obj
 0004:000010d4       $pdata$3$pj_thread_create  00000001400460d4     pjlib-x86_64-x64-vc14-release:os_core_win32.obj
 0004:000010e0       $pdata$4$pj_thread_create  00000001400460e0     pjlib-x86_64-x64-vc14-release:os_core_win32.obj
 0004:000010ec       $pdata$5$pj_thread_create  00000001400460ec     pjlib-x86_64-x64-vc14-release:os_core_win32.obj
 0004:000010f8       $pdata$6$pj_thread_create  00000001400460f8     pjlib-x86_64-x64-vc14-release:os_core_win32.obj
 0004:00001104       $pdata$pj_thread_destroy   0000000140046104     pjlib-x86_64-x64-vc14-release:os_core_win32.obj
 0004:00001110       $pdata$pj_thread_get_name  0000000140046110     pjlib-x86_64-x64-vc14-release:os_core_win32.obj
 0004:0000111c       $pdata$pj_thread_init      000000014004611c     pjlib-x86_64-x64-vc14-release:os_core_win32.obj
 0004:00001128       $pdata$pj_thread_join      0000000140046128     pjlib-x86_64-x64-vc14-release:os_core_win32.obj
 0004:00001134       $pdata$0$pj_thread_join    0000000140046134     pjlib-x86_64-x64-vc14-release:os_core_win32.obj
 0004:00001140       $pdata$2$pj_thread_join    0000000140046140     pjlib-x86_64-x64-vc14-release:os_core_win32.obj
 0004:0000114c       $pdata$4$pj_thread_join    000000014004614c     pjlib-x86_64-x64-vc14-release:os_core_win32.obj
 0004:00001158       $pdata$6$pj_thread_join    0000000140046158     pjlib-x86_64-x64-vc14-release:os_core_win32.obj
 0004:00001164       $pdata$pj_thread_local_alloc 0000000140046164     pjlib-x86_64-x64-vc14-release:os_core_win32.obj
 0004:00001170       $pdata$pj_thread_local_free 0000000140046170     pjlib-x86_64-x64-vc14-release:os_core_win32.obj
 0004:0000117c       $pdata$pj_thread_local_set 000000014004617c     pjlib-x86_64-x64-vc14-release:os_core_win32.obj
 0004:00001188       $pdata$pj_thread_register  0000000140046188     pjlib-x86_64-x64-vc14-release:os_core_win32.obj
 0004:00001194       $pdata$pj_thread_sleep     0000000140046194     pjlib-x86_64-x64-vc14-release:os_core_win32.obj
 0004:000011a0       $pdata$thread_main         00000001400461a0     pjlib-x86_64-x64-vc14-release:os_core_win32.obj
 0004:000011ac       $pdata$pj_pool_allocate_find 00000001400461ac     pjlib-x86_64-x64-vc14-release:pool.obj
 0004:000011b8       $pdata$pj_pool_calloc      00000001400461b8     pjlib-x86_64-x64-vc14-release:pool.obj
 0004:000011c4       $pdata$pj_pool_create_block 00000001400461c4     pjlib-x86_64-x64-vc14-release:pool.obj
 0004:000011d0       $pdata$pj_pool_create_int  00000001400461d0     pjlib-x86_64-x64-vc14-release:pool.obj
 0004:000011dc       $pdata$pj_pool_destroy_int 00000001400461dc     pjlib-x86_64-x64-vc14-release:pool.obj
 0004:000011e8       $pdata$pj_pool_init_int    00000001400461e8     pjlib-x86_64-x64-vc14-release:pool.obj
 0004:000011f4       $pdata$pj_pool_reset       00000001400461f4     pjlib-x86_64-x64-vc14-release:pool.obj
 0004:00001200       $pdata$reset_pool          0000000140046200     pjlib-x86_64-x64-vc14-release:pool.obj
 0004:0000120c       $pdata$0$reset_pool        000000014004620c     pjlib-x86_64-x64-vc14-release:pool.obj
 0004:00001218       $pdata$1$reset_pool        0000000140046218     pjlib-x86_64-x64-vc14-release:pool.obj
 0004:00001224       $pdata$cpool_create_pool   0000000140046224     pjlib-x86_64-x64-vc14-release:pool_caching.obj
 0004:00001230       $pdata$cpool_dump_status   0000000140046230     pjlib-x86_64-x64-vc14-release:pool_caching.obj
 0004:0000123c       $pdata$2$cpool_dump_status 000000014004623c     pjlib-x86_64-x64-vc14-release:pool_caching.obj
 0004:00001248       $pdata$5$cpool_dump_status 0000000140046248     pjlib-x86_64-x64-vc14-release:pool_caching.obj
 0004:00001254       $pdata$6$cpool_dump_status 0000000140046254     pjlib-x86_64-x64-vc14-release:pool_caching.obj
 0004:00001260       $pdata$7$cpool_dump_status 0000000140046260     pjlib-x86_64-x64-vc14-release:pool_caching.obj
 0004:0000126c       $pdata$cpool_release_pool  000000014004626c     pjlib-x86_64-x64-vc14-release:pool_caching.obj
 0004:00001278       $pdata$0$cpool_release_pool 0000000140046278     pjlib-x86_64-x64-vc14-release:pool_caching.obj
 0004:00001284       $pdata$1$cpool_release_pool 0000000140046284     pjlib-x86_64-x64-vc14-release:pool_caching.obj
 0004:00001290       $pdata$2$cpool_release_pool 0000000140046290     pjlib-x86_64-x64-vc14-release:pool_caching.obj
 0004:0000129c       $pdata$3$cpool_release_pool 000000014004629c     pjlib-x86_64-x64-vc14-release:pool_caching.obj
 0004:000012a8       $pdata$pj_caching_pool_destroy 00000001400462a8     pjlib-x86_64-x64-vc14-release:pool_caching.obj
 0004:000012b4       $pdata$pj_caching_pool_init 00000001400462b4     pjlib-x86_64-x64-vc14-release:pool_caching.obj
 0004:000012c0       $pdata$invoke_log          00000001400462c0     pjlib-x86_64-x64-vc14-release:errno.obj
 0004:000012cc       $pdata$pj_perror_3         00000001400462cc     pjlib-x86_64-x64-vc14-release:errno.obj
 0004:000012d8       $pdata$pj_perror_4         00000001400462d8     pjlib-x86_64-x64-vc14-release:errno.obj
 0004:000012e4       $pdata$pj_perror_5         00000001400462e4     pjlib-x86_64-x64-vc14-release:errno.obj
 0004:000012f0       $pdata$pj_perror_imp       00000001400462f0     pjlib-x86_64-x64-vc14-release:errno.obj
 0004:000012fc       $pdata$pj_register_strerror 00000001400462fc     pjlib-x86_64-x64-vc14-release:errno.obj
 0004:00001308       $pdata$pj_strerror         0000000140046308     pjlib-x86_64-x64-vc14-release:errno.obj
 0004:00001314       $pdata$pjlib_error         0000000140046314     pjlib-x86_64-x64-vc14-release:errno.obj
 0004:00001320       $pdata$0$pjlib_error       0000000140046320     pjlib-x86_64-x64-vc14-release:errno.obj
 0004:0000132c       $pdata$1$pjlib_error       000000014004632c     pjlib-x86_64-x64-vc14-release:errno.obj
 0004:00001338       $pdata$default_block_alloc 0000000140046338     pjlib-x86_64-x64-vc14-release:pool_policy_malloc.obj
 0004:00001344       $pdata$default_block_free  0000000140046344     pjlib-x86_64-x64-vc14-release:pool_policy_malloc.obj
 0004:00001350       $pdata$default_pool_callback 0000000140046350     pjlib-x86_64-x64-vc14-release:pool_policy_malloc.obj
 0004:0000135c       $pdata$pj_strcmp           000000014004635c     pjlib-x86_64-x64-vc14-release:string.obj
 0004:00001368       $pdata$0$pj_strcmp         0000000140046368     pjlib-x86_64-x64-vc14-release:string.obj
 0004:00001374       $pdata$2$pj_strcmp         0000000140046374     pjlib-x86_64-x64-vc14-release:string.obj
 0004:00001380       $pdata$4$pj_strcmp         0000000140046380     pjlib-x86_64-x64-vc14-release:string.obj
 0004:0000138c       $pdata$pj_strcspn          000000014004638c     pjlib-x86_64-x64-vc14-release:string.obj
 0004:00001398       $pdata$pj_strcspn2         0000000140046398     pjlib-x86_64-x64-vc14-release:string.obj
 0004:000013a4       $pdata$pj_strdup           00000001400463a4     pjlib-x86_64-x64-vc14-release:string.obj
 0004:000013b0       $pdata$pj_strdup2          00000001400463b0     pjlib-x86_64-x64-vc14-release:string.obj
 0004:000013bc       $pdata$pj_strdup_with_null 00000001400463bc     pjlib-x86_64-x64-vc14-release:string.obj
 0004:000013c8       $pdata$pj_stricmp          00000001400463c8     pjlib-x86_64-x64-vc14-release:string.obj
 0004:000013d4       $pdata$pj_stricmp2         00000001400463d4     pjlib-x86_64-x64-vc14-release:string.obj
 0004:000013e0       $pdata$pj_strncpy_with_null 00000001400463e0     pjlib-x86_64-x64-vc14-release:string.obj
 0004:000013ec       $pdata$pj_strspn           00000001400463ec     pjlib-x86_64-x64-vc14-release:string.obj
 0004:000013f8       $pdata$0$pj_strspn         00000001400463f8     pjlib-x86_64-x64-vc14-release:string.obj
 0004:00001404       $pdata$1$pj_strspn         0000000140046404     pjlib-x86_64-x64-vc14-release:string.obj
 0004:00001410       $pdata$pj_strspn2          0000000140046410     pjlib-x86_64-x64-vc14-release:string.obj
 0004:0000141c       $pdata$pj_strtok           000000014004641c     pjlib-x86_64-x64-vc14-release:string.obj
 0004:00001428       $pdata$pj_strtok2          0000000140046428     pjlib-x86_64-x64-vc14-release:string.obj
 0004:00001434       $pdata$pj_strtoul          0000000140046434     pjlib-x86_64-x64-vc14-release:string.obj
 0004:00001440       $pdata$0$pj_strtoul        0000000140046440     pjlib-x86_64-x64-vc14-release:string.obj
 0004:0000144c       $pdata$1$pj_strtoul        000000014004644c     pjlib-x86_64-x64-vc14-release:string.obj
 0004:00001458       $pdata$pj_strtoul2         0000000140046458     pjlib-x86_64-x64-vc14-release:string.obj
 0004:00001464       $pdata$1$pj_strtoul2       0000000140046464     pjlib-x86_64-x64-vc14-release:string.obj
 0004:00001470       $pdata$2$pj_strtoul2       0000000140046470     pjlib-x86_64-x64-vc14-release:string.obj
 0004:0000147c       $pdata$pj_utoa_pad         000000014004647c     pjlib-x86_64-x64-vc14-release:string.obj
 0004:00001488       $pdata$pj_get_netos_error  0000000140046488     pjlib-x86_64-x64-vc14-release:os_error_win32.obj
 0004:00001494       $pdata$pj_get_os_error     0000000140046494     pjlib-x86_64-x64-vc14-release:os_error_win32.obj
 0004:000014a0       $pdata$platform_strerror   00000001400464a0     pjlib-x86_64-x64-vc14-release:os_error_win32.obj
 0004:000014ac       $pdata$logging_shutdown    00000001400464ac     pjlib-x86_64-x64-vc14-release:log.obj
 0004:000014b8       $pdata$pj_log              00000001400464b8     pjlib-x86_64-x64-vc14-release:log.obj
 0004:000014c4       $pdata$1$pj_log            00000001400464c4     pjlib-x86_64-x64-vc14-release:log.obj
 0004:000014d0       $pdata$2$pj_log            00000001400464d0     pjlib-x86_64-x64-vc14-release:log.obj
 0004:000014dc       $pdata$3$pj_log            00000001400464dc     pjlib-x86_64-x64-vc14-release:log.obj
 0004:000014e8       $pdata$4$pj_log            00000001400464e8     pjlib-x86_64-x64-vc14-release:log.obj
 0004:000014f4       $pdata$pj_log_1            00000001400464f4     pjlib-x86_64-x64-vc14-release:log.obj
 0004:00001500       $pdata$pj_log_3            0000000140046500     pjlib-x86_64-x64-vc14-release:log.obj
 0004:0000150c       $pdata$pj_log_4            000000014004650c     pjlib-x86_64-x64-vc14-release:log.obj
 0004:00001518       $pdata$pj_log_5            0000000140046518     pjlib-x86_64-x64-vc14-release:log.obj
 0004:00001524       $pdata$pj_log_init         0000000140046524     pjlib-x86_64-x64-vc14-release:log.obj
 0004:00001530       $pdata$pj_sockaddr_cmp     0000000140046530     pjlib-x86_64-x64-vc14-release:sock_common.obj
 0004:0000153c       $pdata$3$pj_sockaddr_cmp   000000014004653c     pjlib-x86_64-x64-vc14-release:sock_common.obj
 0004:00001548       $pdata$4$pj_sockaddr_cmp   0000000140046548     pjlib-x86_64-x64-vc14-release:sock_common.obj
 0004:00001554       $pdata$pj_sockaddr_has_addr 0000000140046554     pjlib-x86_64-x64-vc14-release:sock_common.obj
 0004:00001560       $pdata$get_base_time       0000000140046560     pjlib-x86_64-x64-vc14-release:os_time_win32.obj
 0004:0000156c       $pdata$pj_gettimeofday     000000014004656c     pjlib-x86_64-x64-vc14-release:os_time_win32.obj
 0004:00001578       $pdata$pj_time_decode      0000000140046578     pjlib-x86_64-x64-vc14-release:os_time_win32.obj
 0004:00001584       $pdata$decrement_counter   0000000140046584     pjlib-x86_64-x64-vc14-release:ioqueue_select.obj
 0004:00001590       $pdata$0$decrement_counter 0000000140046590     pjlib-x86_64-x64-vc14-release:ioqueue_select.obj
 0004:0000159c       $pdata$1$decrement_counter 000000014004659c     pjlib-x86_64-x64-vc14-release:ioqueue_select.obj
 0004:000015a8       $pdata$increment_counter   00000001400465a8     pjlib-x86_64-x64-vc14-release:ioqueue_select.obj
 0004:000015b4       $pdata$ioqueue_dispatch_exception_event 00000001400465b4     pjlib-x86_64-x64-vc14-release:ioqueue_select.obj
 0004:000015c0       $pdata$0$ioqueue_dispatch_exception_event 00000001400465c0     pjlib-x86_64-x64-vc14-release:ioqueue_select.obj
 0004:000015cc       $pdata$1$ioqueue_dispatch_exception_event 00000001400465cc     pjlib-x86_64-x64-vc14-release:ioqueue_select.obj
 0004:000015d8       $pdata$ioqueue_dispatch_read_event 00000001400465d8     pjlib-x86_64-x64-vc14-release:ioqueue_select.obj
 0004:000015e4       $pdata$ioqueue_dispatch_write_event 00000001400465e4     pjlib-x86_64-x64-vc14-release:ioqueue_select.obj
 0004:000015f0       $pdata$pj_ioqueue_create   00000001400465f0     pjlib-x86_64-x64-vc14-release:ioqueue_select.obj
 0004:000015fc       $pdata$1$pj_ioqueue_create 00000001400465fc     pjlib-x86_64-x64-vc14-release:ioqueue_select.obj
 0004:00001608       $pdata$4$pj_ioqueue_create 0000000140046608     pjlib-x86_64-x64-vc14-release:ioqueue_select.obj
 0004:00001614       $pdata$5$pj_ioqueue_create 0000000140046614     pjlib-x86_64-x64-vc14-release:ioqueue_select.obj
 0004:00001620       $pdata$7$pj_ioqueue_create 0000000140046620     pjlib-x86_64-x64-vc14-release:ioqueue_select.obj
 0004:0000162c       $pdata$8$pj_ioqueue_create 000000014004662c     pjlib-x86_64-x64-vc14-release:ioqueue_select.obj
 0004:00001638       $pdata$pj_ioqueue_destroy  0000000140046638     pjlib-x86_64-x64-vc14-release:ioqueue_select.obj
 0004:00001644       $pdata$1$pj_ioqueue_destroy 0000000140046644     pjlib-x86_64-x64-vc14-release:ioqueue_select.obj
 0004:00001650       $pdata$2$pj_ioqueue_destroy 0000000140046650     pjlib-x86_64-x64-vc14-release:ioqueue_select.obj
 0004:0000165c       $pdata$pj_ioqueue_poll     000000014004665c     pjlib-x86_64-x64-vc14-release:ioqueue_select.obj
 0004:00001668       $pdata$0$pj_ioqueue_poll   0000000140046668     pjlib-x86_64-x64-vc14-release:ioqueue_select.obj
 0004:00001674       $pdata$1$pj_ioqueue_poll   0000000140046674     pjlib-x86_64-x64-vc14-release:ioqueue_select.obj
 0004:00001680       $pdata$4$pj_ioqueue_poll   0000000140046680     pjlib-x86_64-x64-vc14-release:ioqueue_select.obj
 0004:0000168c       $pdata$5$pj_ioqueue_poll   000000014004668c     pjlib-x86_64-x64-vc14-release:ioqueue_select.obj
 0004:00001698       $pdata$6$pj_ioqueue_poll   0000000140046698     pjlib-x86_64-x64-vc14-release:ioqueue_select.obj
 0004:000016a4       $pdata$7$pj_ioqueue_poll   00000001400466a4     pjlib-x86_64-x64-vc14-release:ioqueue_select.obj
 0004:000016b0       $pdata$8$pj_ioqueue_poll   00000001400466b0     pjlib-x86_64-x64-vc14-release:ioqueue_select.obj
 0004:000016bc       $pdata$9$pj_ioqueue_poll   00000001400466bc     pjlib-x86_64-x64-vc14-release:ioqueue_select.obj
 0004:000016c8       $pdata$pj_ioqueue_set_lock 00000001400466c8     pjlib-x86_64-x64-vc14-release:ioqueue_select.obj
 0004:000016d4       $pdata$scan_closing_keys   00000001400466d4     pjlib-x86_64-x64-vc14-release:ioqueue_select.obj
 0004:000016e0       $pdata$0$scan_closing_keys 00000001400466e0     pjlib-x86_64-x64-vc14-release:ioqueue_select.obj
 0004:000016ec       $pdata$1$scan_closing_keys 00000001400466ec     pjlib-x86_64-x64-vc14-release:ioqueue_select.obj
 0004:000016f8       $pdata$pj_sock_accept      00000001400466f8     pjlib-x86_64-x64-vc14-release:sock_bsd.obj
 0004:00001704       $pdata$pj_sock_getsockname 0000000140046704     pjlib-x86_64-x64-vc14-release:sock_bsd.obj
 0004:00001710       $pdata$pj_sock_getsockopt  0000000140046710     pjlib-x86_64-x64-vc14-release:sock_bsd.obj
 0004:0000171c       $pdata$pj_sock_recv        000000014004671c     pjlib-x86_64-x64-vc14-release:sock_bsd.obj
 0004:00001728       $pdata$pj_sock_recvfrom    0000000140046728     pjlib-x86_64-x64-vc14-release:sock_bsd.obj
 0004:00001734       $pdata$pj_sock_send        0000000140046734     pjlib-x86_64-x64-vc14-release:sock_bsd.obj
 0004:00001740       $pdata$pj_sock_sendto      0000000140046740     pjlib-x86_64-x64-vc14-release:sock_bsd.obj
 0004:0000174c       $pdata$pj_file_close       000000014004674c     pjlib-x86_64-x64-vc14-release:file_io_win32.obj
 0004:00001758       $pdata$pj_file_getpos      0000000140046758     pjlib-x86_64-x64-vc14-release:file_io_win32.obj
 0004:00001764       $pdata$pj_file_open        0000000140046764     pjlib-x86_64-x64-vc14-release:file_io_win32.obj
 0004:00001770       $pdata$0$pj_file_open      0000000140046770     pjlib-x86_64-x64-vc14-release:file_io_win32.obj
 0004:0000177c       $pdata$2$pj_file_open      000000014004677c     pjlib-x86_64-x64-vc14-release:file_io_win32.obj
 0004:00001788       $pdata$4$pj_file_open      0000000140046788     pjlib-x86_64-x64-vc14-release:file_io_win32.obj
 0004:00001794       $pdata$6$pj_file_open      0000000140046794     pjlib-x86_64-x64-vc14-release:file_io_win32.obj
 0004:000017a0       $pdata$pj_file_setpos      00000001400467a0     pjlib-x86_64-x64-vc14-release:file_io_win32.obj
 0004:000017ac       $pdata$pj_file_write       00000001400467ac     pjlib-x86_64-x64-vc14-release:file_io_win32.obj
 0004:000017b8       $pdata$pj_exception_id_alloc 00000001400467b8     pjlib-x86_64-x64-vc14-release:except.obj
 0004:000017c4       $pdata$pj_exception_id_free 00000001400467c4     pjlib-x86_64-x64-vc14-release:except.obj
 0004:000017d0       $pdata$pj_throw_exception_ 00000001400467d0     pjlib-x86_64-x64-vc14-release:except.obj
 0004:000017dc       $pdata$0$pj_throw_exception_ 00000001400467dc     pjlib-x86_64-x64-vc14-release:except.obj
 0004:000017e8       $pdata$1$pj_throw_exception_ 00000001400467e8     pjlib-x86_64-x64-vc14-release:except.obj
 0004:000017f4       $pdata$create_mutex_lock   00000001400467f4     pjlib-x86_64-x64-vc14-release:lock.obj
 0004:00001800       $pdata$0$create_mutex_lock 0000000140046800     pjlib-x86_64-x64-vc14-release:lock.obj
 0004:0000180c       $pdata$2$create_mutex_lock 000000014004680c     pjlib-x86_64-x64-vc14-release:lock.obj
 0004:00001818       $pdata$3$create_mutex_lock 0000000140046818     pjlib-x86_64-x64-vc14-release:lock.obj
 0004:00001824       $pdata$grp_lock_destroy    0000000140046824     pjlib-x86_64-x64-vc14-release:lock.obj
 0004:00001830       $pdata$0$grp_lock_destroy  0000000140046830     pjlib-x86_64-x64-vc14-release:lock.obj
 0004:0000183c       $pdata$2$grp_lock_destroy  000000014004683c     pjlib-x86_64-x64-vc14-release:lock.obj
 0004:00001848       $pdata$3$grp_lock_destroy  0000000140046848     pjlib-x86_64-x64-vc14-release:lock.obj
 0004:00001854       $pdata$4$grp_lock_destroy  0000000140046854     pjlib-x86_64-x64-vc14-release:lock.obj
 0004:00001860       $pdata$grp_lock_release    0000000140046860     pjlib-x86_64-x64-vc14-release:lock.obj
 0004:0000186c       $pdata$grp_lock_tryacquire 000000014004686c     pjlib-x86_64-x64-vc14-release:lock.obj
 0004:00001878       $pdata$pj_grp_lock_add_ref 0000000140046878     pjlib-x86_64-x64-vc14-release:lock.obj
 0004:00001884       $pdata$pj_grp_lock_dec_ref 0000000140046884     pjlib-x86_64-x64-vc14-release:lock.obj
 0004:00001890       $pdata$pj_get_timestamp    0000000140046890     pjlib-x86_64-x64-vc14-release:os_timestamp_win32.obj
 0004:0000189c       $pdata$pj_get_timestamp_freq 000000014004689c     pjlib-x86_64-x64-vc14-release:os_timestamp_win32.obj
 0004:000018a8       $pdata$pj_gettickcount     00000001400468a8     pjlib-x86_64-x64-vc14-release:os_timestamp_common.obj
 0004:000018b4       $pdata$0$pj_gettickcount   00000001400468b4     pjlib-x86_64-x64-vc14-release:os_timestamp_common.obj
 0004:000018c0       $pdata$1$pj_gettickcount   00000001400468c0     pjlib-x86_64-x64-vc14-release:os_timestamp_common.obj
 0004:000018cc       $pdata$pj_rand             00000001400468cc     pjlib-x86_64-x64-vc14-release:rand.obj
 0004:000018d8       $pdata$pj_generate_unique_string 00000001400468d8     pjlib-x86_64-x64-vc14-release:guid_win32.obj
 0004:000018e4       $pdata$pj_pool_create_on_buf 00000001400468e4     pjlib-x86_64-x64-vc14-release:pool_buf.obj
 0004:000018f0       $pdata$pool_buf_cleanup    00000001400468f0     pjlib-x86_64-x64-vc14-release:pool_buf.obj
 0004:000018fc       $pdata$stack_alloc         00000001400468fc     pjlib-x86_64-x64-vc14-release:pool_buf.obj
 0004:00001908       $pdata$pj_log_write        0000000140046908     pjlib-x86_64-x64-vc14-release:log_writer_stdout.obj
 0004:00001914       $pdata$pj_time_val_normalize 0000000140046914     pjlib-x86_64-x64-vc14-release:types.obj
 0004:00001920       $pdata$PJ_FD_CLR           0000000140046920     pjlib-x86_64-x64-vc14-release:sock_select.obj
 0004:0000192c       $pdata$PJ_FD_ISSET         000000014004692c     pjlib-x86_64-x64-vc14-release:sock_select.obj
 0004:00001938       $pdata$PJ_FD_ZERO          0000000140046938     pjlib-x86_64-x64-vc14-release:sock_select.obj
 0004:00001944       $pdata$pj_sock_select      0000000140046944     pjlib-x86_64-x64-vc14-release:sock_select.obj
 0004:00001950       $pdata$filter_dc_notch16   0000000140046950     libspeex-x86_64-x64-vc14-release:mdf.obj
 0004:0000195c       $pdata$4$filter_dc_notch16 000000014004695c     libspeex-x86_64-x64-vc14-release:mdf.obj
 0004:00001968       $pdata$5$filter_dc_notch16 0000000140046968     libspeex-x86_64-x64-vc14-release:mdf.obj
 0004:00001974       $pdata$mdf_adjust_prop     0000000140046974     libspeex-x86_64-x64-vc14-release:mdf.obj
 0004:00001980       $pdata$3$mdf_adjust_prop   0000000140046980     libspeex-x86_64-x64-vc14-release:mdf.obj
 0004:0000198c       $pdata$7$mdf_adjust_prop   000000014004698c     libspeex-x86_64-x64-vc14-release:mdf.obj
 0004:00001998       $pdata$8$mdf_adjust_prop   0000000140046998     libspeex-x86_64-x64-vc14-release:mdf.obj
 0004:000019a4       $pdata$9$mdf_adjust_prop   00000001400469a4     libspeex-x86_64-x64-vc14-release:mdf.obj
 0004:000019b0       $pdata$10$mdf_adjust_prop  00000001400469b0     libspeex-x86_64-x64-vc14-release:mdf.obj
 0004:000019bc       $pdata$11$mdf_adjust_prop  00000001400469bc     libspeex-x86_64-x64-vc14-release:mdf.obj
 0004:000019c8       $pdata$power_spectrum_accum 00000001400469c8     libspeex-x86_64-x64-vc14-release:mdf.obj
 0004:000019d4       $pdata$spectral_mul_accum  00000001400469d4     libspeex-x86_64-x64-vc14-release:mdf.obj
 0004:000019e0       $pdata$2$spectral_mul_accum 00000001400469e0     libspeex-x86_64-x64-vc14-release:mdf.obj
 0004:000019ec       $pdata$3$spectral_mul_accum 00000001400469ec     libspeex-x86_64-x64-vc14-release:mdf.obj
 0004:000019f8       $pdata$speex_echo_cancellation 00000001400469f8     libspeex-x86_64-x64-vc14-release:mdf.obj
 0004:00001a04       $pdata$speex_echo_capture  0000000140046a04     libspeex-x86_64-x64-vc14-release:mdf.obj
 0004:00001a10       $pdata$speex_echo_ctl      0000000140046a10     libspeex-x86_64-x64-vc14-release:mdf.obj
 0004:00001a1c       $pdata$3$speex_echo_ctl    0000000140046a1c     libspeex-x86_64-x64-vc14-release:mdf.obj
 0004:00001a28       $pdata$4$speex_echo_ctl    0000000140046a28     libspeex-x86_64-x64-vc14-release:mdf.obj
 0004:00001a34       $pdata$speex_echo_get_residual 0000000140046a34     libspeex-x86_64-x64-vc14-release:mdf.obj
 0004:00001a40       $pdata$0$speex_echo_get_residual 0000000140046a40     libspeex-x86_64-x64-vc14-release:mdf.obj
 0004:00001a4c       $pdata$3$speex_echo_get_residual 0000000140046a4c     libspeex-x86_64-x64-vc14-release:mdf.obj
 0004:00001a58       $pdata$4$speex_echo_get_residual 0000000140046a58     libspeex-x86_64-x64-vc14-release:mdf.obj
 0004:00001a64       $pdata$5$speex_echo_get_residual 0000000140046a64     libspeex-x86_64-x64-vc14-release:mdf.obj
 0004:00001a70       $pdata$speex_echo_playback 0000000140046a70     libspeex-x86_64-x64-vc14-release:mdf.obj
 0004:00001a7c       $pdata$0$speex_echo_playback 0000000140046a7c     libspeex-x86_64-x64-vc14-release:mdf.obj
 0004:00001a88       $pdata$1$speex_echo_playback 0000000140046a88     libspeex-x86_64-x64-vc14-release:mdf.obj
 0004:00001a94       $pdata$speex_echo_state_destroy 0000000140046a94     libspeex-x86_64-x64-vc14-release:mdf.obj
 0004:00001aa0       $pdata$speex_echo_state_init_mc 0000000140046aa0     libspeex-x86_64-x64-vc14-release:mdf.obj
 0004:00001aac       $pdata$0$speex_echo_state_init_mc 0000000140046aac     libspeex-x86_64-x64-vc14-release:mdf.obj
 0004:00001ab8       $pdata$1$speex_echo_state_init_mc 0000000140046ab8     libspeex-x86_64-x64-vc14-release:mdf.obj
 0004:00001ac4       $pdata$3$speex_echo_state_init_mc 0000000140046ac4     libspeex-x86_64-x64-vc14-release:mdf.obj
 0004:00001ad0       $pdata$4$speex_echo_state_init_mc 0000000140046ad0     libspeex-x86_64-x64-vc14-release:mdf.obj
 0004:00001adc       $pdata$5$speex_echo_state_init_mc 0000000140046adc     libspeex-x86_64-x64-vc14-release:mdf.obj
 0004:00001ae8       $pdata$6$speex_echo_state_init_mc 0000000140046ae8     libspeex-x86_64-x64-vc14-release:mdf.obj
 0004:00001af4       $pdata$7$speex_echo_state_init_mc 0000000140046af4     libspeex-x86_64-x64-vc14-release:mdf.obj
 0004:00001b00       $pdata$8$speex_echo_state_init_mc 0000000140046b00     libspeex-x86_64-x64-vc14-release:mdf.obj
 0004:00001b0c       $pdata$speex_echo_state_reset 0000000140046b0c     libspeex-x86_64-x64-vc14-release:mdf.obj
 0004:00001b18       $pdata$weighted_spectral_mul_conj 0000000140046b18     libspeex-x86_64-x64-vc14-release:mdf.obj
 0004:00001b24       $pdata$speex_decorrelate   0000000140046b24     libspeex-x86_64-x64-vc14-release:scal.obj
 0004:00001b30       $pdata$14$speex_decorrelate 0000000140046b30     libspeex-x86_64-x64-vc14-release:scal.obj
 0004:00001b3c       $pdata$15$speex_decorrelate 0000000140046b3c     libspeex-x86_64-x64-vc14-release:scal.obj
 0004:00001b48       $pdata$speex_decorrelate_destroy 0000000140046b48     libspeex-x86_64-x64-vc14-release:scal.obj
 0004:00001b54       $pdata$speex_decorrelate_new 0000000140046b54     libspeex-x86_64-x64-vc14-release:scal.obj
 0004:00001b60       $pdata$3$speex_decorrelate_new 0000000140046b60     libspeex-x86_64-x64-vc14-release:scal.obj
 0004:00001b6c       $pdata$7$speex_decorrelate_new 0000000140046b6c     libspeex-x86_64-x64-vc14-release:scal.obj
 0004:00001b78       $pdata$8$speex_decorrelate_new 0000000140046b78     libspeex-x86_64-x64-vc14-release:scal.obj
 0004:00001b84       $pdata$9$speex_decorrelate_new 0000000140046b84     libspeex-x86_64-x64-vc14-release:scal.obj
 0004:00001b90       $pdata$compute_gain_floor  0000000140046b90     libspeex-x86_64-x64-vc14-release:preprocess.obj
 0004:00001b9c       $pdata$1$compute_gain_floor 0000000140046b9c     libspeex-x86_64-x64-vc14-release:preprocess.obj
 0004:00001ba8       $pdata$3$compute_gain_floor 0000000140046ba8     libspeex-x86_64-x64-vc14-release:preprocess.obj
 0004:00001bb4       $pdata$4$compute_gain_floor 0000000140046bb4     libspeex-x86_64-x64-vc14-release:preprocess.obj
 0004:00001bc0       $pdata$5$compute_gain_floor 0000000140046bc0     libspeex-x86_64-x64-vc14-release:preprocess.obj
 0004:00001bcc       $pdata$conj_window         0000000140046bcc     libspeex-x86_64-x64-vc14-release:preprocess.obj
 0004:00001bd8       $pdata$9$conj_window       0000000140046bd8     libspeex-x86_64-x64-vc14-release:preprocess.obj
 0004:00001be4       $pdata$10$conj_window      0000000140046be4     libspeex-x86_64-x64-vc14-release:preprocess.obj
 0004:00001bf0       $pdata$hypergeom_gain      0000000140046bf0     libspeex-x86_64-x64-vc14-release:preprocess.obj
 0004:00001bfc       $pdata$preprocess_analysis 0000000140046bfc     libspeex-x86_64-x64-vc14-release:preprocess.obj
 0004:00001c08       $pdata$1$preprocess_analysis 0000000140046c08     libspeex-x86_64-x64-vc14-release:preprocess.obj
 0004:00001c14       $pdata$2$preprocess_analysis 0000000140046c14     libspeex-x86_64-x64-vc14-release:preprocess.obj
 0004:00001c20       $pdata$3$preprocess_analysis 0000000140046c20     libspeex-x86_64-x64-vc14-release:preprocess.obj
 0004:00001c2c       $pdata$4$preprocess_analysis 0000000140046c2c     libspeex-x86_64-x64-vc14-release:preprocess.obj
 0004:00001c38       $pdata$5$preprocess_analysis 0000000140046c38     libspeex-x86_64-x64-vc14-release:preprocess.obj
 0004:00001c44       $pdata$speex_compute_agc   0000000140046c44     libspeex-x86_64-x64-vc14-release:preprocess.obj
 0004:00001c50       $pdata$0$speex_compute_agc 0000000140046c50     libspeex-x86_64-x64-vc14-release:preprocess.obj
 0004:00001c5c       $pdata$1$speex_compute_agc 0000000140046c5c     libspeex-x86_64-x64-vc14-release:preprocess.obj
 0004:00001c68       $pdata$3$speex_compute_agc 0000000140046c68     libspeex-x86_64-x64-vc14-release:preprocess.obj
 0004:00001c74       $pdata$4$speex_compute_agc 0000000140046c74     libspeex-x86_64-x64-vc14-release:preprocess.obj
 0004:00001c80       $pdata$5$speex_compute_agc 0000000140046c80     libspeex-x86_64-x64-vc14-release:preprocess.obj
 0004:00001c8c       $pdata$6$speex_compute_agc 0000000140046c8c     libspeex-x86_64-x64-vc14-release:preprocess.obj
 0004:00001c98       $pdata$speex_preprocess_ctl 0000000140046c98     libspeex-x86_64-x64-vc14-release:preprocess.obj
 0004:00001ca4       $pdata$speex_preprocess_run 0000000140046ca4     libspeex-x86_64-x64-vc14-release:preprocess.obj
 0004:00001cb0       $pdata$1$speex_preprocess_run 0000000140046cb0     libspeex-x86_64-x64-vc14-release:preprocess.obj
 0004:00001cbc       $pdata$5$speex_preprocess_run 0000000140046cbc     libspeex-x86_64-x64-vc14-release:preprocess.obj
 0004:00001cc8       $pdata$12$speex_preprocess_run 0000000140046cc8     libspeex-x86_64-x64-vc14-release:preprocess.obj
 0004:00001cd4       $pdata$13$speex_preprocess_run 0000000140046cd4     libspeex-x86_64-x64-vc14-release:preprocess.obj
 0004:00001ce0       $pdata$14$speex_preprocess_run 0000000140046ce0     libspeex-x86_64-x64-vc14-release:preprocess.obj
 0004:00001cec       $pdata$15$speex_preprocess_run 0000000140046cec     libspeex-x86_64-x64-vc14-release:preprocess.obj
 0004:00001cf8       $pdata$16$speex_preprocess_run 0000000140046cf8     libspeex-x86_64-x64-vc14-release:preprocess.obj
 0004:00001d04       $pdata$17$speex_preprocess_run 0000000140046d04     libspeex-x86_64-x64-vc14-release:preprocess.obj
 0004:00001d10       $pdata$18$speex_preprocess_run 0000000140046d10     libspeex-x86_64-x64-vc14-release:preprocess.obj
 0004:00001d1c       $pdata$19$speex_preprocess_run 0000000140046d1c     libspeex-x86_64-x64-vc14-release:preprocess.obj
 0004:00001d28       $pdata$20$speex_preprocess_run 0000000140046d28     libspeex-x86_64-x64-vc14-release:preprocess.obj
 0004:00001d34       $pdata$21$speex_preprocess_run 0000000140046d34     libspeex-x86_64-x64-vc14-release:preprocess.obj
 0004:00001d40       $pdata$22$speex_preprocess_run 0000000140046d40     libspeex-x86_64-x64-vc14-release:preprocess.obj
 0004:00001d4c       $pdata$23$speex_preprocess_run 0000000140046d4c     libspeex-x86_64-x64-vc14-release:preprocess.obj
 0004:00001d58       $pdata$speex_preprocess_state_destroy 0000000140046d58     libspeex-x86_64-x64-vc14-release:preprocess.obj
 0004:00001d64       $pdata$speex_preprocess_state_init 0000000140046d64     libspeex-x86_64-x64-vc14-release:preprocess.obj
 0004:00001d70       $pdata$0$speex_preprocess_state_init 0000000140046d70     libspeex-x86_64-x64-vc14-release:preprocess.obj
 0004:00001d7c       $pdata$1$speex_preprocess_state_init 0000000140046d7c     libspeex-x86_64-x64-vc14-release:preprocess.obj
 0004:00001d88       $pdata$9$speex_preprocess_state_init 0000000140046d88     libspeex-x86_64-x64-vc14-release:preprocess.obj
 0004:00001d94       $pdata$10$speex_preprocess_state_init 0000000140046d94     libspeex-x86_64-x64-vc14-release:preprocess.obj
 0004:00001da0       $pdata$11$speex_preprocess_state_init 0000000140046da0     libspeex-x86_64-x64-vc14-release:preprocess.obj
 0004:00001dac       $pdata$update_noise_prob   0000000140046dac     libspeex-x86_64-x64-vc14-release:preprocess.obj
 0004:00001db8       $pdata$5$update_noise_prob 0000000140046db8     libspeex-x86_64-x64-vc14-release:preprocess.obj
 0004:00001dc4       $pdata$6$update_noise_prob 0000000140046dc4     libspeex-x86_64-x64-vc14-release:preprocess.obj
 0004:00001dd0       $pdata$7$update_noise_prob 0000000140046dd0     libspeex-x86_64-x64-vc14-release:preprocess.obj
 0004:00001ddc       $pdata$spx_fft             0000000140046ddc     libspeex-x86_64-x64-vc14-release:fftwrap.obj
 0004:00001de8       $pdata$spx_fft_destroy     0000000140046de8     libspeex-x86_64-x64-vc14-release:fftwrap.obj
 0004:00001df4       $pdata$spx_fft_init        0000000140046df4     libspeex-x86_64-x64-vc14-release:fftwrap.obj
 0004:00001e00       $pdata$spx_ifft            0000000140046e00     libspeex-x86_64-x64-vc14-release:fftwrap.obj
 0004:00001e0c       $pdata$filterbank_compute_bank32 0000000140046e0c     libspeex-x86_64-x64-vc14-release:filterbank.obj
 0004:00001e18       $pdata$filterbank_destroy  0000000140046e18     libspeex-x86_64-x64-vc14-release:filterbank.obj
 0004:00001e24       $pdata$filterbank_new      0000000140046e24     libspeex-x86_64-x64-vc14-release:filterbank.obj
 0004:00001e30       $pdata$dradb2              0000000140046e30     libspeex-x86_64-x64-vc14-release:smallft.obj
 0004:00001e3c       $pdata$dradb3              0000000140046e3c     libspeex-x86_64-x64-vc14-release:smallft.obj
 0004:00001e48       $pdata$0$dradb3            0000000140046e48     libspeex-x86_64-x64-vc14-release:smallft.obj
 0004:00001e54       $pdata$1$dradb3            0000000140046e54     libspeex-x86_64-x64-vc14-release:smallft.obj
 0004:00001e60       $pdata$dradb4              0000000140046e60     libspeex-x86_64-x64-vc14-release:smallft.obj
 0004:00001e6c       $pdata$0$dradb4            0000000140046e6c     libspeex-x86_64-x64-vc14-release:smallft.obj
 0004:00001e78       $pdata$3$dradb4            0000000140046e78     libspeex-x86_64-x64-vc14-release:smallft.obj
 0004:00001e84       $pdata$4$dradb4            0000000140046e84     libspeex-x86_64-x64-vc14-release:smallft.obj
 0004:00001e90       $pdata$5$dradb4            0000000140046e90     libspeex-x86_64-x64-vc14-release:smallft.obj
 0004:00001e9c       $pdata$dradbg              0000000140046e9c     libspeex-x86_64-x64-vc14-release:smallft.obj
 0004:00001ea8       $pdata$dradf2              0000000140046ea8     libspeex-x86_64-x64-vc14-release:smallft.obj
 0004:00001eb4       $pdata$dradf4              0000000140046eb4     libspeex-x86_64-x64-vc14-release:smallft.obj
 0004:00001ec0       $pdata$5$dradf4            0000000140046ec0     libspeex-x86_64-x64-vc14-release:smallft.obj
 0004:00001ecc       $pdata$6$dradf4            0000000140046ecc     libspeex-x86_64-x64-vc14-release:smallft.obj
 0004:00001ed8       $pdata$dradfg              0000000140046ed8     libspeex-x86_64-x64-vc14-release:smallft.obj
 0004:00001ee4       $pdata$3$dradfg            0000000140046ee4     libspeex-x86_64-x64-vc14-release:smallft.obj
 0004:00001ef0       $pdata$4$dradfg            0000000140046ef0     libspeex-x86_64-x64-vc14-release:smallft.obj
 0004:00001efc       $pdata$drftb1              0000000140046efc     libspeex-x86_64-x64-vc14-release:smallft.obj
 0004:00001f08       $pdata$2$drftb1            0000000140046f08     libspeex-x86_64-x64-vc14-release:smallft.obj
 0004:00001f14       $pdata$3$drftb1            0000000140046f14     libspeex-x86_64-x64-vc14-release:smallft.obj
 0004:00001f20       $pdata$drftf1              0000000140046f20     libspeex-x86_64-x64-vc14-release:smallft.obj
 0004:00001f2c       $pdata$1$drftf1            0000000140046f2c     libspeex-x86_64-x64-vc14-release:smallft.obj
 0004:00001f38       $pdata$2$drftf1            0000000140046f38     libspeex-x86_64-x64-vc14-release:smallft.obj
 0004:00001f44       $pdata$drfti1              0000000140046f44     libspeex-x86_64-x64-vc14-release:smallft.obj
 0004:00001f50       $pdata$3$drfti1            0000000140046f50     libspeex-x86_64-x64-vc14-release:smallft.obj
 0004:00001f5c       $pdata$4$drfti1            0000000140046f5c     libspeex-x86_64-x64-vc14-release:smallft.obj
 0004:00001f68       $pdata$spx_drft_backward   0000000140046f68     libspeex-x86_64-x64-vc14-release:smallft.obj
 0004:00001f74       $pdata$spx_drft_clear      0000000140046f74     libspeex-x86_64-x64-vc14-release:smallft.obj
 0004:00001f80       $pdata$spx_drft_forward    0000000140046f80     libspeex-x86_64-x64-vc14-release:smallft.obj
 0004:00001f8c       $pdata$spx_drft_init       0000000140046f8c     libspeex-x86_64-x64-vc14-release:smallft.obj
 0004:00001f98       $pdata$be64_to_cpu         0000000140046f98     libsrtp-x86_64-x64-vc14-release:srtp.obj
 0004:00001fa4       $pdata$srtp_add_stream     0000000140046fa4     libsrtp-x86_64-x64-vc14-release:srtp.obj
 0004:00001fb0       $pdata$1$srtp_add_stream   0000000140046fb0     libsrtp-x86_64-x64-vc14-release:srtp.obj
 0004:00001fbc       $pdata$2$srtp_add_stream   0000000140046fbc     libsrtp-x86_64-x64-vc14-release:srtp.obj
 0004:00001fc8       $pdata$3$srtp_add_stream   0000000140046fc8     libsrtp-x86_64-x64-vc14-release:srtp.obj
 0004:00001fd4       $pdata$4$srtp_add_stream   0000000140046fd4     libsrtp-x86_64-x64-vc14-release:srtp.obj
 0004:00001fe0       $pdata$srtp_calc_aead_iv   0000000140046fe0     libsrtp-x86_64-x64-vc14-release:srtp.obj
 0004:00001fec       $pdata$srtp_calc_aead_iv_srtcp 0000000140046fec     libsrtp-x86_64-x64-vc14-release:srtp.obj
 0004:00001ff8       $pdata$srtp_create         0000000140046ff8     libsrtp-x86_64-x64-vc14-release:srtp.obj
 0004:00002004       $pdata$0$srtp_create       0000000140047004     libsrtp-x86_64-x64-vc14-release:srtp.obj
 0004:00002010       $pdata$4$srtp_create       0000000140047010     libsrtp-x86_64-x64-vc14-release:srtp.obj
 0004:0000201c       $pdata$6$srtp_create       000000014004701c     libsrtp-x86_64-x64-vc14-release:srtp.obj
 0004:00002028       $pdata$srtp_dealloc        0000000140047028     libsrtp-x86_64-x64-vc14-release:srtp.obj
 0004:00002034       $pdata$srtp_event_reporter 0000000140047034     libsrtp-x86_64-x64-vc14-release:srtp.obj
 0004:00002040       $pdata$srtp_get_est_pkt_index 0000000140047040     libsrtp-x86_64-x64-vc14-release:srtp.obj
 0004:0000204c       $pdata$srtp_get_session_keys 000000014004704c     libsrtp-x86_64-x64-vc14-release:srtp.obj
 0004:00002058       $pdata$1$srtp_get_session_keys 0000000140047058     libsrtp-x86_64-x64-vc14-release:srtp.obj
 0004:00002064       $pdata$3$srtp_get_session_keys 0000000140047064     libsrtp-x86_64-x64-vc14-release:srtp.obj
 0004:00002070       $pdata$srtp_inject_mki     0000000140047070     libsrtp-x86_64-x64-vc14-release:srtp.obj
 0004:0000207c       $pdata$0$srtp_inject_mki   000000014004707c     libsrtp-x86_64-x64-vc14-release:srtp.obj
 0004:00002088       $pdata$1$srtp_inject_mki   0000000140047088     libsrtp-x86_64-x64-vc14-release:srtp.obj
 0004:00002094       $pdata$srtp_kdf_generate   0000000140047094     libsrtp-x86_64-x64-vc14-release:srtp.obj
 0004:000020a0       $pdata$srtp_kdf_init       00000001400470a0     libsrtp-x86_64-x64-vc14-release:srtp.obj
 0004:000020ac       $pdata$srtp_process_header_encryption 00000001400470ac     libsrtp-x86_64-x64-vc14-release:srtp.obj
 0004:000020b8       $pdata$srtp_protect        00000001400470b8     libsrtp-x86_64-x64-vc14-release:srtp.obj
 0004:000020c4       $pdata$srtp_protect_aead   00000001400470c4     libsrtp-x86_64-x64-vc14-release:srtp.obj
 0004:000020d0       $pdata$0$srtp_protect_aead 00000001400470d0     libsrtp-x86_64-x64-vc14-release:srtp.obj
 0004:000020dc       $pdata$1$srtp_protect_aead 00000001400470dc     libsrtp-x86_64-x64-vc14-release:srtp.obj
 0004:000020e8       $pdata$2$srtp_protect_aead 00000001400470e8     libsrtp-x86_64-x64-vc14-release:srtp.obj
 0004:000020f4       $pdata$3$srtp_protect_aead 00000001400470f4     libsrtp-x86_64-x64-vc14-release:srtp.obj
 0004:00002100       $pdata$4$srtp_protect_aead 0000000140047100     libsrtp-x86_64-x64-vc14-release:srtp.obj
 0004:0000210c       $pdata$5$srtp_protect_aead 000000014004710c     libsrtp-x86_64-x64-vc14-release:srtp.obj
 0004:00002118       $pdata$srtp_protect_mki    0000000140047118     libsrtp-x86_64-x64-vc14-release:srtp.obj
 0004:00002124       $pdata$0$srtp_protect_mki  0000000140047124     libsrtp-x86_64-x64-vc14-release:srtp.obj
 0004:00002130       $pdata$1$srtp_protect_mki  0000000140047130     libsrtp-x86_64-x64-vc14-release:srtp.obj
 0004:0000213c       $pdata$srtp_protect_rtcp   000000014004713c     libsrtp-x86_64-x64-vc14-release:srtp.obj
 0004:00002148       $pdata$srtp_protect_rtcp_aead 0000000140047148     libsrtp-x86_64-x64-vc14-release:srtp.obj
 0004:00002154       $pdata$srtp_protect_rtcp_mki 0000000140047154     libsrtp-x86_64-x64-vc14-release:srtp.obj
 0004:00002160       $pdata$0$srtp_protect_rtcp_mki 0000000140047160     libsrtp-x86_64-x64-vc14-release:srtp.obj
 0004:0000216c       $pdata$1$srtp_protect_rtcp_mki 000000014004716c     libsrtp-x86_64-x64-vc14-release:srtp.obj
 0004:00002178       $pdata$2$srtp_protect_rtcp_mki 0000000140047178     libsrtp-x86_64-x64-vc14-release:srtp.obj
 0004:00002184       $pdata$3$srtp_protect_rtcp_mki 0000000140047184     libsrtp-x86_64-x64-vc14-release:srtp.obj
 0004:00002190       $pdata$4$srtp_protect_rtcp_mki 0000000140047190     libsrtp-x86_64-x64-vc14-release:srtp.obj
 0004:0000219c       $pdata$5$srtp_protect_rtcp_mki 000000014004719c     libsrtp-x86_64-x64-vc14-release:srtp.obj
 0004:000021a8       $pdata$srtp_stream_alloc   00000001400471a8     libsrtp-x86_64-x64-vc14-release:srtp.obj
 0004:000021b4       $pdata$srtp_stream_clone   00000001400471b4     libsrtp-x86_64-x64-vc14-release:srtp.obj
 0004:000021c0       $pdata$0$srtp_stream_clone 00000001400471c0     libsrtp-x86_64-x64-vc14-release:srtp.obj
 0004:000021cc       $pdata$5$srtp_stream_clone 00000001400471cc     libsrtp-x86_64-x64-vc14-release:srtp.obj
 0004:000021d8       $pdata$srtp_stream_dealloc 00000001400471d8     libsrtp-x86_64-x64-vc14-release:srtp.obj
 0004:000021e4       $pdata$srtp_stream_free    00000001400471e4     libsrtp-x86_64-x64-vc14-release:srtp.obj
 0004:000021f0       $pdata$0$srtp_stream_free  00000001400471f0     libsrtp-x86_64-x64-vc14-release:srtp.obj
 0004:000021fc       $pdata$1$srtp_stream_free  00000001400471fc     libsrtp-x86_64-x64-vc14-release:srtp.obj
 0004:00002208       $pdata$2$srtp_stream_free  0000000140047208     libsrtp-x86_64-x64-vc14-release:srtp.obj
 0004:00002214       $pdata$3$srtp_stream_free  0000000140047214     libsrtp-x86_64-x64-vc14-release:srtp.obj
 0004:00002220       $pdata$srtp_stream_init    0000000140047220     libsrtp-x86_64-x64-vc14-release:srtp.obj
 0004:0000222c       $pdata$0$srtp_stream_init  000000014004722c     libsrtp-x86_64-x64-vc14-release:srtp.obj
 0004:00002238       $pdata$2$srtp_stream_init  0000000140047238     libsrtp-x86_64-x64-vc14-release:srtp.obj
 0004:00002244       $pdata$3$srtp_stream_init  0000000140047244     libsrtp-x86_64-x64-vc14-release:srtp.obj
 0004:00002250       $pdata$4$srtp_stream_init  0000000140047250     libsrtp-x86_64-x64-vc14-release:srtp.obj
 0004:0000225c       $pdata$6$srtp_stream_init  000000014004725c     libsrtp-x86_64-x64-vc14-release:srtp.obj
 0004:00002268       $pdata$7$srtp_stream_init  0000000140047268     libsrtp-x86_64-x64-vc14-release:srtp.obj
 0004:00002274       $pdata$srtp_stream_init_all_master_keys 0000000140047274     libsrtp-x86_64-x64-vc14-release:srtp.obj
 0004:00002280       $pdata$srtp_stream_init_keys 0000000140047280     libsrtp-x86_64-x64-vc14-release:srtp.obj
 0004:0000228c       $pdata$2$srtp_stream_init_keys 000000014004728c     libsrtp-x86_64-x64-vc14-release:srtp.obj
 0004:00002298       $pdata$3$srtp_stream_init_keys 0000000140047298     libsrtp-x86_64-x64-vc14-release:srtp.obj
 0004:000022a4       $pdata$4$srtp_stream_init_keys 00000001400472a4     libsrtp-x86_64-x64-vc14-release:srtp.obj
 0004:000022b0       $pdata$srtp_unprotect_aead 00000001400472b0     libsrtp-x86_64-x64-vc14-release:srtp.obj
 0004:000022bc       $pdata$srtp_unprotect_mki  00000001400472bc     libsrtp-x86_64-x64-vc14-release:srtp.obj
 0004:000022c8       $pdata$1$srtp_unprotect_mki 00000001400472c8     libsrtp-x86_64-x64-vc14-release:srtp.obj
 0004:000022d4       $pdata$2$srtp_unprotect_mki 00000001400472d4     libsrtp-x86_64-x64-vc14-release:srtp.obj
 0004:000022e0       $pdata$srtp_unprotect_rtcp_aead 00000001400472e0     libsrtp-x86_64-x64-vc14-release:srtp.obj
 0004:000022ec       $pdata$srtp_unprotect_rtcp_mki 00000001400472ec     libsrtp-x86_64-x64-vc14-release:srtp.obj
 0004:000022f8       $pdata$0$srtp_unprotect_rtcp_mki 00000001400472f8     libsrtp-x86_64-x64-vc14-release:srtp.obj
 0004:00002304       $pdata$1$srtp_unprotect_rtcp_mki 0000000140047304     libsrtp-x86_64-x64-vc14-release:srtp.obj
 0004:00002310       $pdata$2$srtp_unprotect_rtcp_mki 0000000140047310     libsrtp-x86_64-x64-vc14-release:srtp.obj
 0004:0000231c       $pdata$3$srtp_unprotect_rtcp_mki 000000014004731c     libsrtp-x86_64-x64-vc14-release:srtp.obj
 0004:00002328       $pdata$4$srtp_unprotect_rtcp_mki 0000000140047328     libsrtp-x86_64-x64-vc14-release:srtp.obj
 0004:00002334       $pdata$5$srtp_unprotect_rtcp_mki 0000000140047334     libsrtp-x86_64-x64-vc14-release:srtp.obj
 0004:00002340       $pdata$srtp_validate_rtp_header 0000000140047340     libsrtp-x86_64-x64-vc14-release:srtp.obj
 0004:0000234c       $pdata$0$srtp_validate_rtp_header 000000014004734c     libsrtp-x86_64-x64-vc14-release:srtp.obj
 0004:00002358       $pdata$2$srtp_validate_rtp_header 0000000140047358     libsrtp-x86_64-x64-vc14-release:srtp.obj
 0004:00002364       $pdata$srtp_crypto_alloc   0000000140047364     libsrtp-x86_64-x64-vc14-release:alloc.obj
 0004:00002370       $pdata$srtp_crypto_free    0000000140047370     libsrtp-x86_64-x64-vc14-release:alloc.obj
 0004:0000237c       $pdata$bitvector_alloc     000000014004737c     libsrtp-x86_64-x64-vc14-release:datatypes.obj
 0004:00002388       $pdata$bitvector_dealloc   0000000140047388     libsrtp-x86_64-x64-vc14-release:datatypes.obj
 0004:00002394       $pdata$bitvector_left_shift 0000000140047394     libsrtp-x86_64-x64-vc14-release:datatypes.obj
 0004:000023a0       $pdata$2$bitvector_left_shift 00000001400473a0     libsrtp-x86_64-x64-vc14-release:datatypes.obj
 0004:000023ac       $pdata$3$bitvector_left_shift 00000001400473ac     libsrtp-x86_64-x64-vc14-release:datatypes.obj
 0004:000023b8       $pdata$6$bitvector_left_shift 00000001400473b8     libsrtp-x86_64-x64-vc14-release:datatypes.obj
 0004:000023c4       $pdata$7$bitvector_left_shift 00000001400473c4     libsrtp-x86_64-x64-vc14-release:datatypes.obj
 0004:000023d0       $pdata$8$bitvector_left_shift 00000001400473d0     libsrtp-x86_64-x64-vc14-release:datatypes.obj
 0004:000023dc       $pdata$9$bitvector_left_shift 00000001400473dc     libsrtp-x86_64-x64-vc14-release:datatypes.obj
 0004:000023e8       $pdata$octet_string_is_eq  00000001400473e8     libsrtp-x86_64-x64-vc14-release:datatypes.obj
 0004:000023f4       $pdata$srtp_octet_string_hex_string 00000001400473f4     libsrtp-x86_64-x64-vc14-release:datatypes.obj
 0004:00002400       $pdata$v128_hex_string     0000000140047400     libsrtp-x86_64-x64-vc14-release:datatypes.obj
 0004:0000240c       $pdata$v128_left_shift     000000014004740c     libsrtp-x86_64-x64-vc14-release:datatypes.obj
 0004:00002418       $pdata$2$v128_left_shift   0000000140047418     libsrtp-x86_64-x64-vc14-release:datatypes.obj
 0004:00002424       $pdata$6$v128_left_shift   0000000140047424     libsrtp-x86_64-x64-vc14-release:datatypes.obj
 0004:00002430       $pdata$7$v128_left_shift   0000000140047430     libsrtp-x86_64-x64-vc14-release:datatypes.obj
 0004:0000243c       $pdata$8$v128_left_shift   000000014004743c     libsrtp-x86_64-x64-vc14-release:datatypes.obj
 0004:00002448       $pdata$srtp_err_report     0000000140047448     libsrtp-x86_64-x64-vc14-release:srtp_err.obj
 0004:00002454       $pdata$srtp_rdbx_add_index 0000000140047454     libsrtp-x86_64-x64-vc14-release:rdbx.obj
 0004:00002460       $pdata$0$srtp_rdbx_add_index 0000000140047460     libsrtp-x86_64-x64-vc14-release:rdbx.obj
 0004:0000246c       $pdata$1$srtp_rdbx_add_index 000000014004746c     libsrtp-x86_64-x64-vc14-release:rdbx.obj
 0004:00002478       $pdata$srtp_rdbx_dealloc   0000000140047478     libsrtp-x86_64-x64-vc14-release:rdbx.obj
 0004:00002484       $pdata$srtp_rdbx_init      0000000140047484     libsrtp-x86_64-x64-vc14-release:rdbx.obj
 0004:00002490       $pdata$srtp_rdbx_set_roc   0000000140047490     libsrtp-x86_64-x64-vc14-release:rdbx.obj
 0004:0000249c       $pdata$srtp_rdbx_set_roc_seq 000000014004749c     libsrtp-x86_64-x64-vc14-release:rdbx.obj
 0004:000024a8       $pdata$srtp_rdb_add_index  00000001400474a8     libsrtp-x86_64-x64-vc14-release:rdb.obj
 0004:000024b4       $pdata$srtp_cipher_output  00000001400474b4     libsrtp-x86_64-x64-vc14-release:cipher.obj
 0004:000024c0       $pdata$srtp_crypto_kernel_alloc_auth 00000001400474c0     libsrtp-x86_64-x64-vc14-release:crypto_kernel.obj
 0004:000024cc       $pdata$srtp_crypto_kernel_alloc_cipher 00000001400474cc     libsrtp-x86_64-x64-vc14-release:crypto_kernel.obj
 0004:000024d8       $pdata$srtp_ekt_write_data 00000001400474d8     libsrtp-x86_64-x64-vc14-release:ekt.obj
 0004:000024e4       $pdata$0$srtp_ekt_write_data 00000001400474e4     libsrtp-x86_64-x64-vc14-release:ekt.obj
 0004:000024f0       $pdata$1$srtp_ekt_write_data 00000001400474f0     libsrtp-x86_64-x64-vc14-release:ekt.obj
 0004:000024fc       $pdata$2$srtp_ekt_write_data 00000001400474fc     libsrtp-x86_64-x64-vc14-release:ekt.obj
 0004:00002508       $pdata$3$srtp_ekt_write_data 0000000140047508     libsrtp-x86_64-x64-vc14-release:ekt.obj
 0004:00002514       $pdata$srtp_stream_init_from_ekt 0000000140047514     libsrtp-x86_64-x64-vc14-release:ekt.obj
 0004:00002520       $pdata$srtp_null_cipher_alloc 0000000140047520     libsrtp-x86_64-x64-vc14-release:null_cipher.obj
 0004:0000252c       $pdata$srtp_null_cipher_dealloc 000000014004752c     libsrtp-x86_64-x64-vc14-release:null_cipher.obj
 0004:00002538       $pdata$srtp_null_cipher_init 0000000140047538     libsrtp-x86_64-x64-vc14-release:null_cipher.obj
 0004:00002544       $pdata$srtp_aes_icm_alloc  0000000140047544     libsrtp-x86_64-x64-vc14-release:aes_icm.obj
 0004:00002550       $pdata$0$srtp_aes_icm_alloc 0000000140047550     libsrtp-x86_64-x64-vc14-release:aes_icm.obj
 0004:0000255c       $pdata$2$srtp_aes_icm_alloc 000000014004755c     libsrtp-x86_64-x64-vc14-release:aes_icm.obj
 0004:00002568       $pdata$srtp_aes_icm_dealloc 0000000140047568     libsrtp-x86_64-x64-vc14-release:aes_icm.obj
 0004:00002574       $pdata$srtp_aes_icm_context_init 0000000140047574     libsrtp-x86_64-x64-vc14-release:aes_icm.obj
 0004:00002580       $pdata$4$srtp_aes_icm_context_init 0000000140047580     libsrtp-x86_64-x64-vc14-release:aes_icm.obj
 0004:0000258c       $pdata$5$srtp_aes_icm_context_init 000000014004758c     libsrtp-x86_64-x64-vc14-release:aes_icm.obj
 0004:00002598       $pdata$6$srtp_aes_icm_context_init 0000000140047598     libsrtp-x86_64-x64-vc14-release:aes_icm.obj
 0004:000025a4       $pdata$8$srtp_aes_icm_context_init 00000001400475a4     libsrtp-x86_64-x64-vc14-release:aes_icm.obj
 0004:000025b0       $pdata$srtp_aes_icm_set_iv 00000001400475b0     libsrtp-x86_64-x64-vc14-release:aes_icm.obj
 0004:000025bc       $pdata$srtp_aes_icm_encrypt 00000001400475bc     libsrtp-x86_64-x64-vc14-release:aes_icm.obj
 0004:000025c8       $pdata$0$srtp_aes_icm_encrypt 00000001400475c8     libsrtp-x86_64-x64-vc14-release:aes_icm.obj
 0004:000025d4       $pdata$3$srtp_aes_icm_encrypt 00000001400475d4     libsrtp-x86_64-x64-vc14-release:aes_icm.obj
 0004:000025e0       $pdata$4$srtp_aes_icm_encrypt 00000001400475e0     libsrtp-x86_64-x64-vc14-release:aes_icm.obj
 0004:000025ec       $pdata$5$srtp_aes_icm_encrypt 00000001400475ec     libsrtp-x86_64-x64-vc14-release:aes_icm.obj
 0004:000025f8       $pdata$srtp_aes_icm_advance 00000001400475f8     libsrtp-x86_64-x64-vc14-release:aes_icm.obj
 0004:00002604       $pdata$srtp_null_auth_alloc 0000000140047604     libsrtp-x86_64-x64-vc14-release:null_auth.obj
 0004:00002610       $pdata$srtp_null_auth_dealloc 0000000140047610     libsrtp-x86_64-x64-vc14-release:null_auth.obj
 0004:0000261c       $pdata$srtp_hmac_alloc     000000014004761c     libsrtp-x86_64-x64-vc14-release:hmac.obj
 0004:00002628       $pdata$srtp_hmac_dealloc   0000000140047628     libsrtp-x86_64-x64-vc14-release:hmac.obj
 0004:00002634       $pdata$srtp_hmac_init      0000000140047634     libsrtp-x86_64-x64-vc14-release:hmac.obj
 0004:00002640       $pdata$2$srtp_hmac_init    0000000140047640     libsrtp-x86_64-x64-vc14-release:hmac.obj
 0004:0000264c       $pdata$3$srtp_hmac_init    000000014004764c     libsrtp-x86_64-x64-vc14-release:hmac.obj
 0004:00002658       $pdata$srtp_hmac_update    0000000140047658     libsrtp-x86_64-x64-vc14-release:hmac.obj
 0004:00002664       $pdata$srtp_hmac_compute   0000000140047664     libsrtp-x86_64-x64-vc14-release:hmac.obj
 0004:00002670       $pdata$0$srtp_hmac_compute 0000000140047670     libsrtp-x86_64-x64-vc14-release:hmac.obj
 0004:0000267c       $pdata$1$srtp_hmac_compute 000000014004767c     libsrtp-x86_64-x64-vc14-release:hmac.obj
 0004:00002688       $pdata$aes_128_expand_encryption_key 0000000140047688     libsrtp-x86_64-x64-vc14-release:aes.obj
 0004:00002694       $pdata$aes_256_expand_encryption_key 0000000140047694     libsrtp-x86_64-x64-vc14-release:aes.obj
 0004:000026a0       $pdata$aes_inv_round       00000001400476a0     libsrtp-x86_64-x64-vc14-release:aes.obj
 0004:000026ac       $pdata$aes_round           00000001400476ac     libsrtp-x86_64-x64-vc14-release:aes.obj
 0004:000026b8       $pdata$srtp_aes_decrypt    00000001400476b8     libsrtp-x86_64-x64-vc14-release:aes.obj
 0004:000026c4       $pdata$srtp_aes_encrypt    00000001400476c4     libsrtp-x86_64-x64-vc14-release:aes.obj
 0004:000026d0       $pdata$srtp_aes_expand_decryption_key 00000001400476d0     libsrtp-x86_64-x64-vc14-release:aes.obj
 0004:000026dc       $pdata$0$srtp_aes_expand_decryption_key 00000001400476dc     libsrtp-x86_64-x64-vc14-release:aes.obj
 0004:000026e8       $pdata$1$srtp_aes_expand_decryption_key 00000001400476e8     libsrtp-x86_64-x64-vc14-release:aes.obj
 0004:000026f4       $pdata$srtp_aes_expand_encryption_key 00000001400476f4     libsrtp-x86_64-x64-vc14-release:aes.obj
 0004:00002700       $pdata$srtp_sha1_core      0000000140047700     libsrtp-x86_64-x64-vc14-release:sha1.obj
 0004:0000270c       $pdata$srtp_sha1_final     000000014004770c     libsrtp-x86_64-x64-vc14-release:sha1.obj
 0004:00002718       $pdata$srtp_sha1_update    0000000140047718     libsrtp-x86_64-x64-vc14-release:sha1.obj
 0004:00002724       $pdata$0$srtp_sha1_update  0000000140047724     libsrtp-x86_64-x64-vc14-release:sha1.obj
 0004:00002730       $pdata$1$srtp_sha1_update  0000000140047730     libsrtp-x86_64-x64-vc14-release:sha1.obj
 0004:0000273c       $pdata$__GSHandlerCheck    000000014004773c     MSVCRT:_gshandler_.obj
 0004:00002748       $pdata$__GSHandlerCheckCommon 0000000140047748     MSVCRT:_gshandler_.obj
 0004:00002760       $pdata$?pre_c_initialization@@YAHXZ 0000000140047760     MSVCRT:exe_main.obj
 0004:0000276c       $pdata$?post_pgo_initialization@@YAHXZ 000000014004776c     MSVCRT:exe_main.obj
 0004:00002778       $pdata$?pre_cpp_initialization@@YAXXZ 0000000140047778     MSVCRT:exe_main.obj
 0004:00002784       $pdata$?__scrt_common_main_seh@@YAHXZ 0000000140047784     MSVCRT:exe_main.obj
 0004:00002790       $pdata$mainCRTStartup      0000000140047790     MSVCRT:exe_main.obj
 0004:0000279c       $pdata$__raise_securityfailure 000000014004779c     MSVCRT:gs_report.obj
 0004:000027a8       $pdata$__report_gsfailure  00000001400477a8     MSVCRT:gs_report.obj
 0004:000027b4       $pdata$__report_rangecheckfailure 00000001400477b4     MSVCRT:gs_report.obj
 0004:000027c0       $pdata$__report_securityfailure 00000001400477c0     MSVCRT:gs_report.obj
 0004:000027cc       $pdata$capture_current_context 00000001400477cc     MSVCRT:gs_report.obj
 0004:000027d8       $pdata$capture_previous_context 00000001400477d8     MSVCRT:gs_report.obj
 0004:000027f0       $pdata$__scrt_acquire_startup_lock 00000001400477f0     MSVCRT:utility.obj
 0004:000027fc       $pdata$__scrt_initialize_crt 00000001400477fc     MSVCRT:utility.obj
 0004:00002808       $pdata$__scrt_initialize_onexit_tables 0000000140047808     MSVCRT:utility.obj
 0004:00002814       $pdata$__scrt_is_nonwritable_in_current_image 0000000140047814     MSVCRT:utility.obj
 0004:00002820       $pdata$__scrt_release_startup_lock 0000000140047820     MSVCRT:utility.obj
 0004:0000282c       $pdata$__scrt_uninitialize_crt 000000014004782c     MSVCRT:utility.obj
 0004:00002838       $pdata$_onexit             0000000140047838     MSVCRT:utility.obj
 0004:00002844       $pdata$atexit              0000000140047844     MSVCRT:utility.obj
 0004:00002850       $pdata$__security_init_cookie 0000000140047850     MSVCRT:gs_support.obj
 0004:0000285c       $pdata$__scrt_initialize_default_local_stdio_options 000000014004785c     MSVCRT:default_local_stdio_options.obj
 0004:00002868       $pdata$__scrt_fastfail     0000000140047868     MSVCRT:utility_desktop.obj
 0004:00002874       $pdata$__scrt_is_managed_app 0000000140047874     MSVCRT:utility_desktop.obj
 0004:00002880       $pdata$__scrt_unhandled_exception_filter 0000000140047880     MSVCRT:utility_desktop.obj
 0004:0000288c       $pdata$_RTC_Initialize     000000014004788c     MSVCRT:_initsect_.obj
 0004:00002898       $pdata$_RTC_Terminate      0000000140047898     MSVCRT:_initsect_.obj
 0004:000028d4       $pdata$__isa_available_init 00000001400478d4     MSVCRT:_cpu_disp_.obj
 0004:000028ec       $pdata$?filt$0@?0??__scrt_common_main_seh@@YAHXZ@4HA 00000001400478ec     MSVCRT:exe_main.obj
 0004:000028f8       $pdata$__scrt_is_nonwritable_in_current_image$filt$0 00000001400478f8     MSVCRT:utility.obj
 0005:00000000       __guard_fids__             0000000140048000     MSVCRT:exe_main.obj
 0005:00000004       __guard_fids__             0000000140048004     MSVCRT:exe_main.obj
 0005:00000008       __guard_fids__             0000000140048008     MSVCRT:exe_main.obj
 0005:0000000c       __guard_fids_?pre_c_initialization@@YAHXZ 000000014004800c     MSVCRT:exe_main.obj
 0005:00000014       __guard_fids___scrt_set_unhandled_exception_filter 0000000140048014     MSVCRT:utility_desktop.obj
 0005:00000018       __guard_fids__             0000000140048018     MSVCRT:guard_support.obj
 0006:00000000       __spec_table               0000000140049000     MSVCRT:_svml_dcos2_sse2_.obj
 0006:00000980       dbA1                       0000000140049980     MSVCRT:_svml_dcos2_sse2_.obj
 0006:00000990       dbA2                       0000000140049990     MSVCRT:_svml_dcos2_sse2_.obj
 0006:000009a0       dbA3                       00000001400499a0     MSVCRT:_svml_dcos2_sse2_.obj
 0006:000009b0       dbA4                       00000001400499b0     MSVCRT:_svml_dcos2_sse2_.obj
 0006:000009c0       dbA5                       00000001400499c0     MSVCRT:_svml_dcos2_sse2_.obj
 0006:000009d0       dbA6                       00000001400499d0     MSVCRT:_svml_dcos2_sse2_.obj
 0006:000009e0       dbA7                       00000001400499e0     MSVCRT:_svml_dcos2_sse2_.obj
 0006:000009f0       dbA8                       00000001400499f0     MSVCRT:_svml_dcos2_sse2_.obj
 0006:00000a00       dbPi4                      0000000140049a00     MSVCRT:_svml_dcos2_sse2_.obj
 0006:00000a10       dbPi3                      0000000140049a10     MSVCRT:_svml_dcos2_sse2_.obj
 0006:00000a20       db05                       0000000140049a20     MSVCRT:_svml_dcos2_sse2_.obj
 0006:00000a30       dbHUGE                     0000000140049a30     MSVCRT:_svml_dcos2_sse2_.obj
 0006:00000a40       iABSMASK                   0000000140049a40     MSVCRT:_svml_dcos2_sse2_.obj
 0006:00000a50       dbPi2                      0000000140049a50     MSVCRT:_svml_dcos2_sse2_.obj
 0006:00000a60       dbInvPi                    0000000140049a60     MSVCRT:_svml_dcos2_sse2_.obj
 0006:00000a70       dbPi1                      0000000140049a70     MSVCRT:_svml_dcos2_sse2_.obj
 0006:00000a80       dbNegRS                    0000000140049a80     MSVCRT:_svml_dcos2_sse2_.obj
 0006:00000a90       dbPio2                     0000000140049a90     MSVCRT:_svml_dcos2_sse2_.obj
 0006:00000aa0       MMISIGNMASK                0000000140049aa0     MSVCRT:_svml_dcos2_sse2_.obj
 0006:00000ab0       PI02C_4                    0000000140049ab0     MSVCRT:_svml_dcos2_sse2_.obj
 0006:00000ac0       PI02C_3                    0000000140049ac0     MSVCRT:_svml_dcos2_sse2_.obj
 0006:00000ad0       PI02C_2                    0000000140049ad0     MSVCRT:_svml_dcos2_sse2_.obj
 0006:00000ae0       PI02C_1                    0000000140049ae0     MSVCRT:_svml_dcos2_sse2_.obj
 0006:00000af0       PI02C_0                    0000000140049af0     MSVCRT:_svml_dcos2_sse2_.obj
 0006:00000b00       RS                         0000000140049b00     MSVCRT:_svml_dcos2_sse2_.obj
 0006:00000b10       MMI_ONE                    0000000140049b10     MSVCRT:_svml_dcos2_sse2_.obj
 0006:00000b20       THE_PI02_INV               0000000140049b20     MSVCRT:_svml_dcos2_sse2_.obj
 0006:00000b30       flAllOnes                  0000000140049b30     MSVCRT:_svml_dcos2_sse2_.obj
 0006:00000b40       TWO_POW_30                 0000000140049b40     MSVCRT:_svml_dcos2_sse2_.obj
 0006:00000c00       __spec_table               0000000140049c00     MSVCRT:_svml_dsin2_sse2_.obj
 0006:00001590       MMDA1                      000000014004a590     MSVCRT:_svml_dsin2_sse2_.obj
 0006:000015a0       MMDA2                      000000014004a5a0     MSVCRT:_svml_dsin2_sse2_.obj
 0006:000015b0       MMDA3                      000000014004a5b0     MSVCRT:_svml_dsin2_sse2_.obj
 0006:000015c0       MMDA4                      000000014004a5c0     MSVCRT:_svml_dsin2_sse2_.obj
 0006:000015d0       MMDA5                      000000014004a5d0     MSVCRT:_svml_dsin2_sse2_.obj
 0006:000015e0       MMDA6                      000000014004a5e0     MSVCRT:_svml_dsin2_sse2_.obj
 0006:000015f0       MMDA7                      000000014004a5f0     MSVCRT:_svml_dsin2_sse2_.obj
 0006:00001600       MMDA8                      000000014004a600     MSVCRT:_svml_dsin2_sse2_.obj
 0006:00001610       MMDPI4                     000000014004a610     MSVCRT:_svml_dsin2_sse2_.obj
 0006:00001620       MMDHUGE                    000000014004a620     MSVCRT:_svml_dsin2_sse2_.obj
 0006:00001630       MMDRSHIFT                  000000014004a630     MSVCRT:_svml_dsin2_sse2_.obj
 0006:00001640       MMDPI3                     000000014004a640     MSVCRT:_svml_dsin2_sse2_.obj
 0006:00001650       MMDPI2                     000000014004a650     MSVCRT:_svml_dsin2_sse2_.obj
 0006:00001660       MMIABSMASK                 000000014004a660     MSVCRT:_svml_dsin2_sse2_.obj
 0006:00001670       MMDINVPI                   000000014004a670     MSVCRT:_svml_dsin2_sse2_.obj
 0006:00001680       MMDPI1                     000000014004a680     MSVCRT:_svml_dsin2_sse2_.obj
 0006:00001690       MMISIGNMASK                000000014004a690     MSVCRT:_svml_dsin2_sse2_.obj
 0006:000016a0       PI02C_4                    000000014004a6a0     MSVCRT:_svml_dsin2_sse2_.obj
 0006:000016b0       PI02C_3                    000000014004a6b0     MSVCRT:_svml_dsin2_sse2_.obj
 0006:000016c0       PI02C_2                    000000014004a6c0     MSVCRT:_svml_dsin2_sse2_.obj
 0006:000016d0       PI02C_1                    000000014004a6d0     MSVCRT:_svml_dsin2_sse2_.obj
 0006:000016e0       PI02C_0                    000000014004a6e0     MSVCRT:_svml_dsin2_sse2_.obj
 0006:000016f0       RS                         000000014004a6f0     MSVCRT:_svml_dsin2_sse2_.obj
 0006:00001700       MSK_LOW_BIT                000000014004a700     MSVCRT:_svml_dsin2_sse2_.obj
 0006:00001710       MMI_ONE                    000000014004a710     MSVCRT:_svml_dsin2_sse2_.obj
 0006:00001720       THE_PI02_INV               000000014004a720     MSVCRT:_svml_dsin2_sse2_.obj
 0006:00001730       TWO_POW_30                 000000014004a730     MSVCRT:_svml_dsin2_sse2_.obj
 0006:00001740       flAllOnes                  000000014004a740     MSVCRT:_svml_dsin2_sse2_.obj
