 simpleua

 Timestamp is 60aeb6dd (Wed May 26 23:00:13 2021)

 Preferred load address is 0000000140000000

 Start         Length     Name                   Class
 0001:00000000 0006af00H .text$mn                CODE
 0001:0006af00 00000036H .text$mn$00             CODE
 0001:0006af36 00000036H .text$x                 CODE
 0002:00000000 00000558H .idata$5                DATA
 0002:00000558 00000028H .00cfg                  DATA
 0002:00000580 00000008H .CRT$XCA                DATA
 0002:00000588 00000008H .CRT$XCAA               DATA
 0002:00000590 00000008H .CRT$XCZ                DATA
 0002:00000598 00000008H .CRT$XIA                DATA
 0002:000005a0 00000008H .CRT$XIAA               DATA
 0002:000005a8 00000008H .CRT$XIAC               DATA
 0002:000005b0 00000008H .CRT$XIZ                DATA
 0002:000005b8 00000008H .CRT$XPA                DATA
 0002:000005c0 00000008H .CRT$XPZ                DATA
 0002:000005c8 00000008H .CRT$XTA                DATA
 0002:000005d0 00000010H .CRT$XTZ                DATA
 0002:000005d8 00000000H .gehcont$y              DATA
 0002:000005d8 00000000H .gfids$y                DATA
 0002:000005e0 000188a0H .rdata                  DATA
 0002:00018e80 00000000H .rdata$CastGuardVftablesA DATA
 0002:00018e80 00000000H .rdata$CastGuardVftablesC DATA
 0002:00018e80 00000160H .rdata$voltmd           DATA
 0002:00018fe0 00000260H .rdata$zzzdbg           DATA
 0002:00019240 00000008H .rtc$IAA                DATA
 0002:00019248 00000008H .rtc$IZZ                DATA
 0002:00019250 00000008H .rtc$TAA                DATA
 0002:00019258 00000008H .rtc$TZZ                DATA
 0002:00019260 00007f04H .xdata                  DATA
 0002:00021164 00000000H .edata                  DATA
 0002:00021164 00000104H .idata$2                DATA
 0002:00021268 00000018H .idata$3                DATA
 0002:00021280 00000558H .idata$4                DATA
 0002:000217d8 00000a74H .idata$6                DATA
 0003:00000000 00002260H .data                   DATA
 0003:00002260 000084b8H .bss                    DATA
 0004:00000000 00006870H .pdata                  DATA

  Address         Publics by Value              Rva+Base               Lib:Object

 0000:00000000       __hybrid_code_map          0000000000000000     <absolute>
 0000:00000000       __hybrid_auxiliary_iat     0000000000000000     <absolute>
 0000:00000000       __arm64x_extra_rfe_table_size 0000000000000000     <absolute>
 0000:00000000       ___safe_se_handler_count   0000000000000000     <absolute>
 0000:00000000       __dynamic_value_reloc_table 0000000000000000     <absolute>
 0000:00000000       __arm64x_extra_rfe_table   0000000000000000     <absolute>
 0000:00000000       __guard_longjmp_count      0000000000000000     <absolute>
 0000:00000000       __guard_iat_count          0000000000000000     <absolute>
 0000:00000000       __AbsoluteZero             0000000000000000     <absolute>
 0000:00000000       __guard_fids_count         0000000000000000     <absolute>
 0000:00000000       ___safe_se_handler_table   0000000000000000     <absolute>
 0000:00000000       __guard_check_icall_a64n_fptr 0000000000000000     <absolute>
 0000:00000000       __guard_fids_table         0000000000000000     <absolute>
 0000:00000000       __hybrid_auxiliary_iat_copy 0000000000000000     <absolute>
 0000:00000000       __guard_eh_cont_count      0000000000000000     <absolute>
 0000:00000000       __x64_code_ranges_to_entry_points 0000000000000000     <absolute>
 0000:00000000       __guard_longjmp_table      0000000000000000     <absolute>
 0000:00000000       __guard_iat_table          0000000000000000     <absolute>
 0000:00000000       __x64_code_ranges_to_entry_points_count 0000000000000000     <absolute>
 0000:00000000       __arm64x_redirection_metadata 0000000000000000     <absolute>
 0000:00000000       __arm64x_redirection_metadata_count 0000000000000000     <absolute>
 0000:00000000       __enclave_config           0000000000000000     <absolute>
 0000:00000000       __guard_eh_cont_table      0000000000000000     <absolute>
 0000:00000000       __arm64x_native_entrypoint 0000000000000000     <absolute>
 0000:00000000       __hybrid_code_map_count    0000000000000000     <absolute>
 0000:00000100       __guard_flags              0000000000000100     <absolute>
 0000:00000000       __ImageBase                0000000140000000     <linker-defined>
 0001:000002b0       get_snd_options            00000001400012b0 f   simpleua.obj
 0001:00000630       dump_pool_usage            0000000140001630 f   simpleua.obj
 0001:00000ea0       main                       0000000140001ea0 f   simpleua.obj
 0001:00001580       __local_stdio_printf_options 0000000140002580 f i simpleua.obj
 0001:00001590       sprintf                    0000000140002590 f i simpleua.obj
 0001:000016f0       _get_startup_new_mode      00000001400026f0 f   MSVCRT:new_mode.obj
 0001:000016f0       srtp_ekt_stream_init_from_policy 00000001400026f0 f   libsrtp-x86_64-x64-vc14-release:ekt.obj
 0001:000016f0       _get_startup_thread_locale_mode 00000001400026f0 f   MSVCRT:thread_locale.obj
 0001:000016f0       _get_startup_commit_mode   00000001400026f0 f   MSVCRT:commit_mode.obj
 0001:000016f0       echo_supp_destroy          00000001400026f0 f   pjmedia-x86_64-x64-vc14-release:echo_suppress.obj
 0001:000016f0       pjmedia_wsola_destroy      00000001400026f0 f   pjmedia-x86_64-x64-vc14-release:wsola.obj
 0001:000016f0       __scrt_stub_for_initialize_mta 00000001400026f0 f   MSVCRT:utility_desktop.obj
 0001:000016f0       _matherr                   00000001400026f0 f   MSVCRT:matherr.obj
 0001:000016f0       __scrt_initialize_winrt    00000001400026f0 f   MSVCRT:utility_desktop.obj
 0001:000016f0       __scrt_exe_initialize_mta  00000001400026f0 f   MSVCRT:utility_desktop.obj
 0001:00003ab0       _snprintf                  0000000140004ab0 f i pjsip-ua-x86_64-x64-vc14-release:sip_inv.obj
 0001:00005880       pjsip_create_sdp_body      0000000140006880 f   pjsip-ua-x86_64-x64-vc14-release:sip_inv.obj
 0001:00005940       pjsip_inv_answer           0000000140006940 f   pjsip-ua-x86_64-x64-vc14-release:sip_inv.obj
 0001:00005aa0       pjsip_inv_create_uac       0000000140006aa0 f   pjsip-ua-x86_64-x64-vc14-release:sip_inv.obj
 0001:00005c90       pjsip_inv_create_uas       0000000140006c90 f   pjsip-ua-x86_64-x64-vc14-release:sip_inv.obj
 0001:00005f50       pjsip_inv_dec_ref          0000000140006f50 f   pjsip-ua-x86_64-x64-vc14-release:sip_inv.obj
 0001:00006040       pjsip_inv_end_session      0000000140007040 f   pjsip-ua-x86_64-x64-vc14-release:sip_inv.obj
 0001:00006360       pjsip_inv_initial_answer   0000000140007360 f   pjsip-ua-x86_64-x64-vc14-release:sip_inv.obj
 0001:000064f0       pjsip_inv_invite           00000001400074f0 f   pjsip-ua-x86_64-x64-vc14-release:sip_inv.obj
 0001:000067b0       pjsip_inv_process_redirect 00000001400077b0 f   pjsip-ua-x86_64-x64-vc14-release:sip_inv.obj
 0001:00006bf0       pjsip_inv_send_msg         0000000140007bf0 f   pjsip-ua-x86_64-x64-vc14-release:sip_inv.obj
 0001:00006e90       pjsip_inv_state_name       0000000140007e90 f   pjsip-ua-x86_64-x64-vc14-release:sip_inv.obj
 0001:00006eb0       pjsip_inv_uac_restart      0000000140007eb0 f   pjsip-ua-x86_64-x64-vc14-release:sip_inv.obj
 0001:00006f40       pjsip_inv_update           0000000140007f40 f   pjsip-ua-x86_64-x64-vc14-release:sip_inv.obj
 0001:000071d0       pjsip_inv_usage_init       00000001400081d0 f   pjsip-ua-x86_64-x64-vc14-release:sip_inv.obj
 0001:00007250       pjsip_inv_verify_request   0000000140008250 f   pjsip-ua-x86_64-x64-vc14-release:sip_inv.obj
 0001:00007290       pjsip_inv_verify_request3  0000000140008290 f   pjsip-ua-x86_64-x64-vc14-release:sip_inv.obj
 0001:00007c00       pjsip_rdata_get_sdp_info   0000000140008c00 f   pjsip-ua-x86_64-x64-vc14-release:sip_inv.obj
 0001:000082c0       pjsip_100rel_attach        00000001400092c0 f   pjsip-ua-x86_64-x64-vc14-release:sip_100rel.obj
 0001:00008340       pjsip_100rel_create_prack  0000000140009340 f   pjsip-ua-x86_64-x64-vc14-release:sip_100rel.obj
 0001:00008690       pjsip_100rel_end_session   0000000140009690 f   pjsip-ua-x86_64-x64-vc14-release:sip_100rel.obj
 0001:00008700       pjsip_100rel_init_module   0000000140009700 f   pjsip-ua-x86_64-x64-vc14-release:sip_100rel.obj
 0001:00008720       pjsip_100rel_is_reliable   0000000140009720 f   pjsip-ua-x86_64-x64-vc14-release:sip_100rel.obj
 0001:00008770       pjsip_100rel_on_rx_prack   0000000140009770 f   pjsip-ua-x86_64-x64-vc14-release:sip_100rel.obj
 0001:000089f0       pjsip_100rel_send_prack    00000001400099f0 f   pjsip-ua-x86_64-x64-vc14-release:sip_100rel.obj
 0001:00008a30       pjsip_100rel_tx_response   0000000140009a30 f   pjsip-ua-x86_64-x64-vc14-release:sip_100rel.obj
 0001:00009470       pjsip_timer_end_session    000000014000a470 f   pjsip-ua-x86_64-x64-vc14-release:sip_timer.obj
 0001:000094b0       pjsip_timer_handle_refresh_error 000000014000a4b0 f   pjsip-ua-x86_64-x64-vc14-release:sip_timer.obj
 0001:00009690       pjsip_timer_init_session   000000014000a690 f   pjsip-ua-x86_64-x64-vc14-release:sip_timer.obj
 0001:00009760       pjsip_timer_process_req    000000014000a760 f   pjsip-ua-x86_64-x64-vc14-release:sip_timer.obj
 0001:000099a0       pjsip_timer_process_resp   000000014000a9a0 f   pjsip-ua-x86_64-x64-vc14-release:sip_timer.obj
 0001:00009e00       pjsip_timer_update_req     000000014000ae00 f   pjsip-ua-x86_64-x64-vc14-release:sip_timer.obj
 0001:00009ee0       pjsip_timer_update_resp    000000014000aee0 f   pjsip-ua-x86_64-x64-vc14-release:sip_timer.obj
 0001:0000c6a0       pjsip_accept_hdr_create    000000014000d6a0 f   pjsip-core-x86_64-x64-vc14-release:sip_msg.obj
 0001:0000c6f0       pjsip_allow_hdr_create     000000014000d6f0 f   pjsip-core-x86_64-x64-vc14-release:sip_msg.obj
 0001:0000c740       pjsip_cid_hdr_create       000000014000d740 f   pjsip-core-x86_64-x64-vc14-release:sip_msg.obj
 0001:0000c7a0       pjsip_clen_hdr_create      000000014000d7a0 f   pjsip-core-x86_64-x64-vc14-release:sip_msg.obj
 0001:0000c800       pjsip_clone_text_data      000000014000d800 f   pjsip-core-x86_64-x64-vc14-release:sip_msg.obj
 0001:0000c860       pjsip_contact_hdr_create   000000014000d860 f   pjsip-core-x86_64-x64-vc14-release:sip_msg.obj
 0001:0000c900       pjsip_cseq_hdr_create      000000014000d900 f   pjsip-core-x86_64-x64-vc14-release:sip_msg.obj
 0001:0000c960       pjsip_ctype_hdr_create     000000014000d960 f   pjsip-core-x86_64-x64-vc14-release:sip_msg.obj
 0001:0000c9f0       pjsip_expires_hdr_create   000000014000d9f0 f   pjsip-core-x86_64-x64-vc14-release:sip_msg.obj
 0001:0000ca40       pjsip_from_hdr_create      000000014000da40 f   pjsip-core-x86_64-x64-vc14-release:sip_msg.obj
 0001:0000cad0       pjsip_fromto_hdr_set_from  000000014000dad0 f   pjsip-core-x86_64-x64-vc14-release:sip_msg.obj
 0001:0000cb10       pjsip_fromto_hdr_set_to    000000014000db10 f   pjsip-core-x86_64-x64-vc14-release:sip_msg.obj
 0001:0000cb50       pjsip_generic_array_hdr_init 000000014000db50 f   pjsip-core-x86_64-x64-vc14-release:sip_msg.obj
 0001:0000cbe0       pjsip_generic_string_hdr_create 000000014000dbe0 f   pjsip-core-x86_64-x64-vc14-release:sip_msg.obj
 0001:0000cca0       pjsip_get_ack_method       000000014000dca0 f   pjsip-core-x86_64-x64-vc14-release:sip_msg.obj
 0001:0000ccb0       pjsip_get_bye_method       000000014000dcb0 f   pjsip-core-x86_64-x64-vc14-release:sip_msg.obj
 0001:0000ccc0       pjsip_get_cancel_method    000000014000dcc0 f   pjsip-core-x86_64-x64-vc14-release:sip_msg.obj
 0001:0000ccd0       pjsip_get_invite_method    000000014000dcd0 f   pjsip-core-x86_64-x64-vc14-release:sip_msg.obj
 0001:0000cce0       pjsip_get_status_text      000000014000dce0 f   pjsip-core-x86_64-x64-vc14-release:sip_msg.obj
 0001:0000cd30       pjsip_hdr_clone            000000014000dd30 f   pjsip-core-x86_64-x64-vc14-release:sip_msg.obj
 0001:0000cd40       pjsip_hdr_print_on         000000014000dd40 f   pjsip-core-x86_64-x64-vc14-release:sip_msg.obj
 0001:0000cd60       pjsip_hdr_shallow_clone    000000014000dd60 f   pjsip-core-x86_64-x64-vc14-release:sip_msg.obj
 0001:0000cd70       pjsip_max_fwd_hdr_create   000000014000dd70 f   pjsip-core-x86_64-x64-vc14-release:sip_msg.obj
 0001:0000cdc0       pjsip_media_type_cmp       000000014000ddc0 f   pjsip-core-x86_64-x64-vc14-release:sip_msg.obj
 0001:0000ce40       pjsip_media_type_cp        000000014000de40 f   pjsip-core-x86_64-x64-vc14-release:sip_msg.obj
 0001:0000cea0       pjsip_media_type_init      000000014000dea0 f   pjsip-core-x86_64-x64-vc14-release:sip_msg.obj
 0001:0000cef0       pjsip_media_type_init2     000000014000def0 f   pjsip-core-x86_64-x64-vc14-release:sip_msg.obj
 0001:0000cf70       pjsip_media_type_print     000000014000df70 f   pjsip-core-x86_64-x64-vc14-release:sip_msg.obj
 0001:0000cf80       pjsip_method_cmp           000000014000df80 f   pjsip-core-x86_64-x64-vc14-release:sip_msg.obj
 0001:0000cfb0       pjsip_method_copy          000000014000dfb0 f   pjsip-core-x86_64-x64-vc14-release:sip_msg.obj
 0001:0000cfe0       pjsip_method_init_np       000000014000dfe0 f   pjsip-core-x86_64-x64-vc14-release:sip_msg.obj
 0001:0000d080       pjsip_min_expires_hdr_create 000000014000e080 f   pjsip-core-x86_64-x64-vc14-release:sip_msg.obj
 0001:0000d0d0       pjsip_msg_body_clone       000000014000e0d0 f   pjsip-core-x86_64-x64-vc14-release:sip_msg.obj
 0001:0000d1a0       pjsip_msg_create           000000014000e1a0 f   pjsip-core-x86_64-x64-vc14-release:sip_msg.obj
 0001:0000d1d0       pjsip_msg_find_hdr         000000014000e1d0 f   pjsip-core-x86_64-x64-vc14-release:sip_msg.obj
 0001:0000d200       pjsip_msg_find_hdr_by_name 000000014000e200 f   pjsip-core-x86_64-x64-vc14-release:sip_msg.obj
 0001:0000d270       pjsip_msg_find_hdr_by_names 000000014000e270 f   pjsip-core-x86_64-x64-vc14-release:sip_msg.obj
 0001:0000d300       pjsip_msg_print            000000014000e300 f   pjsip-core-x86_64-x64-vc14-release:sip_msg.obj
 0001:0000d670       pjsip_print_text_body      000000014000e670 f   pjsip-core-x86_64-x64-vc14-release:sip_msg.obj
 0001:0000d6b0       pjsip_require_hdr_create   000000014000e6b0 f   pjsip-core-x86_64-x64-vc14-release:sip_msg.obj
 0001:0000d700       pjsip_retry_after_hdr_create 000000014000e700 f   pjsip-core-x86_64-x64-vc14-release:sip_msg.obj
 0001:0000d770       pjsip_route_hdr_create     000000014000e770 f   pjsip-core-x86_64-x64-vc14-release:sip_msg.obj
 0001:0000d7e0       pjsip_routing_hdr_set_route 000000014000e7e0 f   pjsip-core-x86_64-x64-vc14-release:sip_msg.obj
 0001:0000d810       pjsip_rr_hdr_create        000000014000e810 f   pjsip-core-x86_64-x64-vc14-release:sip_msg.obj
 0001:0000d880       pjsip_supported_hdr_create 000000014000e880 f   pjsip-core-x86_64-x64-vc14-release:sip_msg.obj
 0001:0000d8e0       pjsip_to_hdr_create        000000014000e8e0 f   pjsip-core-x86_64-x64-vc14-release:sip_msg.obj
 0001:0000d970       pjsip_unsupported_hdr_create 000000014000e970 f   pjsip-core-x86_64-x64-vc14-release:sip_msg.obj
 0001:0000d9c0       pjsip_via_hdr_create       000000014000e9c0 f   pjsip-core-x86_64-x64-vc14-release:sip_msg.obj
 0001:0000da50       pjsip_warning_hdr_create   000000014000ea50 f   pjsip-core-x86_64-x64-vc14-release:sip_msg.obj
 0001:0000db60       pjsip_warning_hdr_create_from_status 000000014000eb60 f   pjsip-core-x86_64-x64-vc14-release:sip_msg.obj
 0001:0000e000       pjsip_rx_data_get_info     000000014000f000 f   pjsip-core-x86_64-x64-vc14-release:sip_transport.obj
 0001:0000e0b0       pjsip_tpmgr_acquire_transport2 000000014000f0b0 f   pjsip-core-x86_64-x64-vc14-release:sip_transport.obj
 0001:0000e440       pjsip_tpmgr_create         000000014000f440 f   pjsip-core-x86_64-x64-vc14-release:sip_transport.obj
 0001:0000e5f0       pjsip_tpmgr_destroy        000000014000f5f0 f   pjsip-core-x86_64-x64-vc14-release:sip_transport.obj
 0001:0000e740       pjsip_tpmgr_receive_packet 000000014000f740 f   pjsip-core-x86_64-x64-vc14-release:sip_transport.obj
 0001:0000ec10       pjsip_tpselector_add_ref   000000014000fc10 f   pjsip-core-x86_64-x64-vc14-release:sip_transport.obj
 0001:0000ec30       pjsip_tpselector_dec_ref   000000014000fc30 f   pjsip-core-x86_64-x64-vc14-release:sip_transport.obj
 0001:0000ec50       pjsip_transport_add_ref    000000014000fc50 f   pjsip-core-x86_64-x64-vc14-release:sip_transport.obj
 0001:0000ed70       pjsip_transport_add_state_listener 000000014000fd70 f   pjsip-core-x86_64-x64-vc14-release:sip_transport.obj
 0001:0000ee90       pjsip_transport_dec_ref    000000014000fe90 f   pjsip-core-x86_64-x64-vc14-release:sip_transport.obj
 0001:0000f030       pjsip_transport_destroy    0000000140010030 f   pjsip-core-x86_64-x64-vc14-release:sip_transport.obj
 0001:0000f0a0       pjsip_transport_get_default_port_for_type 00000001400100a0 f   pjsip-core-x86_64-x64-vc14-release:sip_transport.obj
 0001:0000f0e0       pjsip_transport_get_flag_from_type 00000001400100e0 f   pjsip-core-x86_64-x64-vc14-release:sip_transport.obj
 0001:0000f120       pjsip_transport_get_type_desc 0000000140010120 f   pjsip-core-x86_64-x64-vc14-release:sip_transport.obj
 0001:0000f160       pjsip_transport_get_type_from_flag 0000000140010160 f   pjsip-core-x86_64-x64-vc14-release:sip_transport.obj
 0001:0000f1a0       pjsip_transport_get_type_from_name 00000001400101a0 f   pjsip-core-x86_64-x64-vc14-release:sip_transport.obj
 0001:0000f220       pjsip_transport_get_type_name 0000000140010220 f   pjsip-core-x86_64-x64-vc14-release:sip_transport.obj
 0001:0000f260       pjsip_transport_register   0000000140010260 f   pjsip-core-x86_64-x64-vc14-release:sip_transport.obj
 0001:0000f3b0       pjsip_transport_remove_state_listener 00000001400103b0 f   pjsip-core-x86_64-x64-vc14-release:sip_transport.obj
 0001:0000f480       pjsip_transport_send       0000000140010480 f   pjsip-core-x86_64-x64-vc14-release:sip_transport.obj
 0001:0000f670       pjsip_tx_data_add_ref      0000000140010670 f   pjsip-core-x86_64-x64-vc14-release:sip_transport.obj
 0001:0000f680       pjsip_tx_data_clone        0000000140010680 f   pjsip-core-x86_64-x64-vc14-release:sip_transport.obj
 0001:0000f8e0       pjsip_tx_data_create       00000001400108e0 f   pjsip-core-x86_64-x64-vc14-release:sip_transport.obj
 0001:0000fa20       pjsip_tx_data_dec_ref      0000000140010a20 f   pjsip-core-x86_64-x64-vc14-release:sip_transport.obj
 0001:0000fa70       pjsip_tx_data_encode       0000000140010a70 f   pjsip-core-x86_64-x64-vc14-release:sip_transport.obj
 0001:0000fb70       pjsip_tx_data_get_info     0000000140010b70 f   pjsip-core-x86_64-x64-vc14-release:sip_transport.obj
 0001:0000fbe0       pjsip_tx_data_invalidate_msg 0000000140010be0 f   pjsip-core-x86_64-x64-vc14-release:sip_transport.obj
 0001:0000fc00       pjsip_tx_data_set_transport 0000000140010c00 f   pjsip-core-x86_64-x64-vc14-release:sip_transport.obj
 0001:00010280       pjsip_endpt_acquire_transport2 0000000140011280 f   pjsip-core-x86_64-x64-vc14-release:sip_endpoint.obj
 0001:00010290       pjsip_endpt_add_capability 0000000140011290 f   pjsip-core-x86_64-x64-vc14-release:sip_endpoint.obj
 0001:000103b0       pjsip_endpt_atexit         00000001400113b0 f   pjsip-core-x86_64-x64-vc14-release:sip_endpoint.obj
 0001:00010430       pjsip_endpt_cancel_timer   0000000140011430 f   pjsip-core-x86_64-x64-vc14-release:sip_endpoint.obj
 0001:00010460       pjsip_endpt_create         0000000140011460 f   pjsip-core-x86_64-x64-vc14-release:sip_endpoint.obj
 0001:00010760       pjsip_endpt_create_pool    0000000140011760 f   pjsip-core-x86_64-x64-vc14-release:sip_endpoint.obj
 0001:000107c0       pjsip_endpt_create_tdata   00000001400117c0 f   pjsip-core-x86_64-x64-vc14-release:sip_endpoint.obj
 0001:000107d0       pjsip_endpt_destroy        00000001400117d0 f   pjsip-core-x86_64-x64-vc14-release:sip_endpoint.obj
 0001:00010960       pjsip_endpt_get_capability 0000000140011960 f   pjsip-core-x86_64-x64-vc14-release:sip_endpoint.obj
 0001:00010990       pjsip_endpt_get_ioqueue    0000000140011990 f   pjsip-core-x86_64-x64-vc14-release:sip_endpoint.obj
 0001:000109a0       pjsip_endpt_get_request_headers 00000001400119a0 f   pjsip-core-x86_64-x64-vc14-release:sip_endpoint.obj
 0001:000109b0       pjsip_endpt_get_timer_heap 00000001400119b0 f   pjsip-core-x86_64-x64-vc14-release:sip_endpoint.obj
 0001:000109c0       pjsip_endpt_get_tpmgr      00000001400119c0 f   pjsip-core-x86_64-x64-vc14-release:sip_endpoint.obj
 0001:000109d0       pjsip_endpt_handle_events  00000001400119d0 f   pjsip-core-x86_64-x64-vc14-release:sip_endpoint.obj
 0001:00010ab0       pjsip_endpt_has_capability 0000000140011ab0 f   pjsip-core-x86_64-x64-vc14-release:sip_endpoint.obj
 0001:00010b60       pjsip_endpt_log_error      0000000140011b60 f   pjsip-core-x86_64-x64-vc14-release:sip_endpoint.obj
 0001:00010ca0       pjsip_endpt_name           0000000140011ca0 f   pjsip-core-x86_64-x64-vc14-release:sip_endpoint.obj
 0001:00010cb0       pjsip_endpt_register_module 0000000140011cb0 f   pjsip-core-x86_64-x64-vc14-release:sip_endpoint.obj
 0001:00010e00       pjsip_endpt_release_pool   0000000140011e00 f   pjsip-core-x86_64-x64-vc14-release:sip_endpoint.obj
 0001:00010e20       pjsip_endpt_resolve        0000000140011e20 f   pjsip-core-x86_64-x64-vc14-release:sip_endpoint.obj
 0001:00010e30       pjsip_endpt_schedule_timer_dbg 0000000140011e30 f   pjsip-core-x86_64-x64-vc14-release:sip_endpoint.obj
 0001:00010e80       pjsip_endpt_schedule_timer_w_grp_lock_dbg 0000000140011e80 f   pjsip-core-x86_64-x64-vc14-release:sip_endpoint.obj
 0001:00010ed0       pjsip_endpt_unregister_module 0000000140011ed0 f   pjsip-core-x86_64-x64-vc14-release:sip_endpoint.obj
 0001:000112c0       pjsip_endpt_create_ack     00000001400122c0 f   pjsip-core-x86_64-x64-vc14-release:sip_util.obj
 0001:00011530       pjsip_endpt_create_cancel  0000000140012530 f   pjsip-core-x86_64-x64-vc14-release:sip_util.obj
 0001:000118a0       pjsip_endpt_create_request_from_hdr 00000001400128a0 f   pjsip-core-x86_64-x64-vc14-release:sip_util.obj
 0001:00011b30       pjsip_endpt_create_response 0000000140012b30 f   pjsip-core-x86_64-x64-vc14-release:sip_util.obj
 0001:00011df0       pjsip_endpt_respond_stateless 0000000140012df0 f   pjsip-core-x86_64-x64-vc14-release:sip_util.obj
 0001:00011f70       pjsip_endpt_send_request_stateless 0000000140012f70 f   pjsip-core-x86_64-x64-vc14-release:sip_util.obj
 0001:00012090       pjsip_endpt_send_response  0000000140013090 f   pjsip-core-x86_64-x64-vc14-release:sip_util.obj
 0001:000121c0       pjsip_event_str            00000001400131c0 f   pjsip-core-x86_64-x64-vc14-release:sip_util.obj
 0001:000121d0       pjsip_get_dest_info        00000001400131d0 f   pjsip-core-x86_64-x64-vc14-release:sip_util.obj
 0001:000123b0       pjsip_get_request_dest     00000001400133b0 f   pjsip-core-x86_64-x64-vc14-release:sip_util.obj
 0001:00012430       pjsip_get_response_addr    0000000140013430 f   pjsip-core-x86_64-x64-vc14-release:sip_util.obj
 0001:00012590       pjsip_process_route_set    0000000140013590 f   pjsip-core-x86_64-x64-vc14-release:sip_util.obj
 0001:00012830       pjsip_restore_strict_route_set 0000000140013830 f   pjsip-core-x86_64-x64-vc14-release:sip_util.obj
 0001:000128f0       pjsip_target_assign_status 00000001400138f0 f   pjsip-core-x86_64-x64-vc14-release:sip_util.obj
 0001:00012930       pjsip_target_set_add_from_msg 0000000140013930 f   pjsip-core-x86_64-x64-vc14-release:sip_util.obj
 0001:00012aa0       pjsip_target_set_add_uri   0000000140013aa0 f   pjsip-core-x86_64-x64-vc14-release:sip_util.obj
 0001:00012bb0       pjsip_target_set_get_next  0000000140013bb0 f   pjsip-core-x86_64-x64-vc14-release:sip_util.obj
 0001:00012c00       pjsip_target_set_set_current 0000000140013c00 f   pjsip-core-x86_64-x64-vc14-release:sip_util.obj
 0001:00013690       pjsip_udp_transport_restart2 0000000140014690 f   pjsip-core-x86_64-x64-vc14-release:sip_transport_udp.obj
 0001:000138d0       pjsip_udp_transport_start  00000001400148d0 f   pjsip-core-x86_64-x64-vc14-release:sip_transport_udp.obj
 0001:000139a0       pjsip_udp_transport_start2 00000001400149a0 f   pjsip-core-x86_64-x64-vc14-release:sip_transport_udp.obj
 0001:00016c60       pjsip_rdata_get_tsx        0000000140017c60 f   pjsip-core-x86_64-x64-vc14-release:sip_transaction.obj
 0001:00016c70       pjsip_tsx_create_key       0000000140017c70 f   pjsip-core-x86_64-x64-vc14-release:sip_transaction.obj
 0001:00016db0       pjsip_tsx_create_uac       0000000140017db0 f   pjsip-core-x86_64-x64-vc14-release:sip_transaction.obj
 0001:00016dc0       pjsip_tsx_create_uac2      0000000140017dc0 f   pjsip-core-x86_64-x64-vc14-release:sip_transaction.obj
 0001:000170f0       pjsip_tsx_create_uas       00000001400180f0 f   pjsip-core-x86_64-x64-vc14-release:sip_transaction.obj
 0001:00017100       pjsip_tsx_create_uas2      0000000140018100 f   pjsip-core-x86_64-x64-vc14-release:sip_transaction.obj
 0001:00017390       pjsip_tsx_layer_find_tsx2  0000000140018390 f   pjsip-core-x86_64-x64-vc14-release:sip_transaction.obj
 0001:00017420       pjsip_tsx_layer_init_module 0000000140018420 f   pjsip-core-x86_64-x64-vc14-release:sip_transaction.obj
 0001:000175f0       pjsip_tsx_recv_msg         00000001400185f0 f   pjsip-core-x86_64-x64-vc14-release:sip_transaction.obj
 0001:000176a0       pjsip_tsx_retransmit_no_state 00000001400186a0 f   pjsip-core-x86_64-x64-vc14-release:sip_transaction.obj
 0001:00017710       pjsip_tsx_send_msg         0000000140018710 f   pjsip-core-x86_64-x64-vc14-release:sip_transaction.obj
 0001:00017800       pjsip_tsx_set_timeout      0000000140018800 f   pjsip-core-x86_64-x64-vc14-release:sip_transaction.obj
 0001:00017910       pjsip_tsx_set_transport    0000000140018910 f   pjsip-core-x86_64-x64-vc14-release:sip_transaction.obj
 0001:00017990       pjsip_tsx_state_str        0000000140018990 f   pjsip-core-x86_64-x64-vc14-release:sip_transaction.obj
 0001:000179a0       pjsip_tsx_terminate        00000001400189a0 f   pjsip-core-x86_64-x64-vc14-release:sip_transaction.obj
 0001:00019560       pjsip_rdata_get_dlg        000000014001a560 f   pjsip-core-x86_64-x64-vc14-release:sip_ua_layer.obj
 0001:00019570       pjsip_tsx_get_dlg          000000014001a570 f   pjsip-core-x86_64-x64-vc14-release:sip_ua_layer.obj
 0001:00019580       pjsip_ua_get_endpt         000000014001a580 f   pjsip-core-x86_64-x64-vc14-release:sip_ua_layer.obj
 0001:00019590       pjsip_ua_init_module       000000014001a590 f   pjsip-core-x86_64-x64-vc14-release:sip_ua_layer.obj
 0001:000195c0       pjsip_ua_instance          000000014001a5c0 f   pjsip-core-x86_64-x64-vc14-release:sip_ua_layer.obj
 0001:000195d0       pjsip_ua_register_dlg      000000014001a5d0 f   pjsip-core-x86_64-x64-vc14-release:sip_ua_layer.obj
 0001:00019700       pjsip_ua_unregister_dlg    000000014001a700 f   pjsip-core-x86_64-x64-vc14-release:sip_ua_layer.obj
 0001:00019990       create_uas_dialog          000000014001a990 f   pjsip-core-x86_64-x64-vc14-release:sip_dialog.obj
 0001:0001a330       pjsip_dlg_add_usage        000000014001b330 f   pjsip-core-x86_64-x64-vc14-release:sip_dialog.obj
 0001:0001a4d0       pjsip_dlg_create_request   000000014001b4d0 f   pjsip-core-x86_64-x64-vc14-release:sip_dialog.obj
 0001:0001a750       pjsip_dlg_create_response  000000014001b750 f   pjsip-core-x86_64-x64-vc14-release:sip_dialog.obj
 0001:0001a860       pjsip_dlg_create_uac       000000014001b860 f   pjsip-core-x86_64-x64-vc14-release:sip_dialog.obj
 0001:0001a8f0       pjsip_dlg_create_uac2      000000014001b8f0 f   pjsip-core-x86_64-x64-vc14-release:sip_dialog.obj
 0001:0001ada0       pjsip_dlg_create_uas_and_inc_lock 000000014001bda0 f   pjsip-core-x86_64-x64-vc14-release:sip_dialog.obj
 0001:0001adc0       pjsip_dlg_dec_lock         000000014001bdc0 f   pjsip-core-x86_64-x64-vc14-release:sip_dialog.obj
 0001:0001ae30       pjsip_dlg_dec_session      000000014001be30 f   pjsip-core-x86_64-x64-vc14-release:sip_dialog.obj
 0001:0001af10       pjsip_dlg_get_remote_cap_hdr 000000014001bf10 f   pjsip-core-x86_64-x64-vc14-release:sip_dialog.obj
 0001:0001b030       pjsip_dlg_inc_lock         000000014001c030 f   pjsip-core-x86_64-x64-vc14-release:sip_dialog.obj
 0001:0001b060       pjsip_dlg_inc_session      000000014001c060 f   pjsip-core-x86_64-x64-vc14-release:sip_dialog.obj
 0001:0001b140       pjsip_dlg_modify_response  000000014001c140 f   pjsip-core-x86_64-x64-vc14-release:sip_dialog.obj
 0001:0001b260       pjsip_dlg_on_rx_request    000000014001c260 f   pjsip-core-x86_64-x64-vc14-release:sip_dialog.obj
 0001:0001b7f0       pjsip_dlg_on_rx_response   000000014001c7f0 f   pjsip-core-x86_64-x64-vc14-release:sip_dialog.obj
 0001:0001bc10       pjsip_dlg_on_tsx_state     000000014001cc10 f   pjsip-core-x86_64-x64-vc14-release:sip_dialog.obj
 0001:0001bd90       pjsip_dlg_remote_has_cap   000000014001cd90 f   pjsip-core-x86_64-x64-vc14-release:sip_dialog.obj
 0001:0001beb0       pjsip_dlg_send_request     000000014001ceb0 f   pjsip-core-x86_64-x64-vc14-release:sip_dialog.obj
 0001:0001c0d0       pjsip_dlg_send_response    000000014001d0d0 f   pjsip-core-x86_64-x64-vc14-release:sip_dialog.obj
 0001:0001c220       pjsip_dlg_set_remote_cap_hdr 000000014001d220 f   pjsip-core-x86_64-x64-vc14-release:sip_dialog.obj
 0001:0001c3a0       pjsip_dlg_try_inc_lock     000000014001d3a0 f   pjsip-core-x86_64-x64-vc14-release:sip_dialog.obj
 0001:0001c3f0       pjsip_dlg_update_remote_cap 000000014001d3f0 f   pjsip-core-x86_64-x64-vc14-release:sip_dialog.obj
 0001:0001c690       pjsip_method_creates_dialog 000000014001d690 f   pjsip-core-x86_64-x64-vc14-release:sip_dialog.obj
 0001:0001cd20       pjsip_auth_clt_deinit      000000014001dd20 f   pjsip-core-x86_64-x64-vc14-release:sip_auth_client.obj
 0001:0001cd90       pjsip_auth_clt_init        000000014001dd90 f   pjsip-core-x86_64-x64-vc14-release:sip_auth_client.obj
 0001:0001cdd0       pjsip_auth_clt_init_req    000000014001ddd0 f   pjsip-core-x86_64-x64-vc14-release:sip_auth_client.obj
 0001:0001d070       pjsip_auth_clt_reinit_req  000000014001e070 f   pjsip-core-x86_64-x64-vc14-release:sip_auth_client.obj
 0001:0001d3e0       pjsip_auth_create_digest   000000014001e3e0 f   pjsip-core-x86_64-x64-vc14-release:sip_auth_client.obj
 0001:0001dcb0       deinit_sip_parser          000000014001ecb0 f   pjsip-core-x86_64-x64-vc14-release:sip_parser.obj
 0001:0001e6f0       init_sip_parser            000000014001f6f0 f   pjsip-core-x86_64-x64-vc14-release:sip_parser.obj
 0001:00021220       pjsip_find_msg             0000000140022220 f   pjsip-core-x86_64-x64-vc14-release:sip_parser.obj
 0001:000215a0       pjsip_parse_end_hdr_imp    00000001400225a0 f   pjsip-core-x86_64-x64-vc14-release:sip_parser.obj
 0001:000215c0       pjsip_parse_hdr            00000001400225c0 f   pjsip-core-x86_64-x64-vc14-release:sip_parser.obj
 0001:000216e0       pjsip_parse_headers        00000001400226e0 f   pjsip-core-x86_64-x64-vc14-release:sip_parser.obj
 0001:00021950       pjsip_parse_param_imp      0000000140022950 f   pjsip-core-x86_64-x64-vc14-release:sip_parser.obj
 0001:00021a40       pjsip_parse_rdata          0000000140022a40 f   pjsip-core-x86_64-x64-vc14-release:sip_parser.obj
 0001:00021ac0       pjsip_parse_uri            0000000140022ac0 f   pjsip-core-x86_64-x64-vc14-release:sip_parser.obj
 0001:00021ba0       pjsip_parser_const         0000000140022ba0 f   pjsip-core-x86_64-x64-vc14-release:sip_parser.obj
 0001:00021bb0       pjsip_register_hdr_parser  0000000140022bb0 f   pjsip-core-x86_64-x64-vc14-release:sip_parser.obj
 0001:00021c90       pjsip_register_uri_parser  0000000140022c90 f   pjsip-core-x86_64-x64-vc14-release:sip_parser.obj
 0001:00022320       pjsip_multipart_find_part  0000000140023320 f   pjsip-core-x86_64-x64-vc14-release:sip_multipart.obj
 0001:000223c0       pjsip_multipart_parse      00000001400233c0 f   pjsip-core-x86_64-x64-vc14-release:sip_multipart.obj
 0001:00023510       pjsip_name_addr_assign     0000000140024510 f   pjsip-core-x86_64-x64-vc14-release:sip_uri.obj
 0001:00023560       pjsip_name_addr_create     0000000140024560 f   pjsip-core-x86_64-x64-vc14-release:sip_uri.obj
 0001:00023590       pjsip_name_addr_init       0000000140024590 f   pjsip-core-x86_64-x64-vc14-release:sip_uri.obj
 0001:000235b0       pjsip_other_uri_create     00000001400245b0 f   pjsip-core-x86_64-x64-vc14-release:sip_uri.obj
 0001:000235e0       pjsip_param_clone          00000001400245e0 f   pjsip-core-x86_64-x64-vc14-release:sip_uri.obj
 0001:00023680       pjsip_param_cmp            0000000140024680 f   pjsip-core-x86_64-x64-vc14-release:sip_uri.obj
 0001:00023740       pjsip_param_find           0000000140024740 f   pjsip-core-x86_64-x64-vc14-release:sip_uri.obj
 0001:000237a0       pjsip_param_print_on       00000001400247a0 f   pjsip-core-x86_64-x64-vc14-release:sip_uri.obj
 0001:000238e0       pjsip_param_shallow_clone  00000001400248e0 f   pjsip-core-x86_64-x64-vc14-release:sip_uri.obj
 0001:00023960       pjsip_sip_uri_create       0000000140024960 f   pjsip-core-x86_64-x64-vc14-release:sip_uri.obj
 0001:00023d10       pjsip_resolve              0000000140024d10 f   pjsip-core-x86_64-x64-vc14-release:sip_resolve.obj
 0001:000243c0       pjsip_resolver_create      00000001400253c0 f   pjsip-core-x86_64-x64-vc14-release:sip_resolve.obj
 0001:00024400       pjsip_resolver_destroy     0000000140025400 f   pjsip-core-x86_64-x64-vc14-release:sip_resolve.obj
 0001:00024620       pjsip_strerror             0000000140025620 f   pjsip-core-x86_64-x64-vc14-release:sip_errno.obj
 0001:00024ba0       pjsip_tel_nb_cmp           0000000140025ba0 f   pjsip-core-x86_64-x64-vc14-release:sip_tel_uri.obj
 0001:00024ca0       pjsip_tel_uri_subsys_init  0000000140025ca0 f   pjsip-core-x86_64-x64-vc14-release:sip_tel_uri.obj
 0001:000258f0       pjsip_authorization_hdr_create 00000001400268f0 f   pjsip-core-x86_64-x64-vc14-release:sip_auth_msg.obj
 0001:00025970       pjsip_proxy_authenticate_hdr_create 0000000140026970 f   pjsip-core-x86_64-x64-vc14-release:sip_auth_msg.obj
 0001:000259f0       pjsip_proxy_authorization_hdr_create 00000001400269f0 f   pjsip-core-x86_64-x64-vc14-release:sip_auth_msg.obj
 0001:00025a70       pjsip_www_authenticate_hdr_create 0000000140026a70 f   pjsip-core-x86_64-x64-vc14-release:sip_auth_msg.obj
 0001:00026cd0       pjsip_auth_init_parser     0000000140027cd0 f   pjsip-core-x86_64-x64-vc14-release:sip_auth_parser.obj
 0001:00026d40       pjmedia_aud_subsys_init    0000000140027d40 f   pjmedia-audiodev-x86_64-x64-vc14-release:audiodev.obj
 0001:00026df0       pjmedia_aud_subsys_shutdown 0000000140027df0 f   pjmedia-audiodev-x86_64-x64-vc14-release:audiodev.obj
 0001:00026e40       pjmedia_audiodev_strerror  0000000140027e40 f   pjmedia-audiodev-x86_64-x64-vc14-release:errno.obj
 0001:00028710       pjmedia_wmme_factory       0000000140029710 f   pjmedia-audiodev-x86_64-x64-vc14-release:wmme_dev.obj
 0001:00029020       pjmedia_event_init         000000014002a020 f   pjmedia-x86_64-x64-vc14-release:event.obj
 0001:00029060       pjmedia_event_mgr_create   000000014002a060 f   pjmedia-x86_64-x64-vc14-release:event.obj
 0001:00029190       pjmedia_event_mgr_destroy  000000014002a190 f   pjmedia-x86_64-x64-vc14-release:event.obj
 0001:00029230       pjmedia_event_publish      000000014002a230 f   pjmedia-x86_64-x64-vc14-release:event.obj
 0001:00029410       pjmedia_event_subscribe    000000014002a410 f   pjmedia-x86_64-x64-vc14-release:event.obj
 0001:00029520       pjmedia_event_unsubscribe  000000014002a520 f   pjmedia-x86_64-x64-vc14-release:event.obj
 0001:00029630       pjmedia_endpt_create2      000000014002a630 f   pjmedia-x86_64-x64-vc14-release:endpoint.obj
 0001:00029850       pjmedia_endpt_create_audio_sdp 000000014002a850 f   pjmedia-x86_64-x64-vc14-release:endpoint.obj
 0001:0002a080       pjmedia_endpt_create_pool  000000014002b080 f   pjmedia-x86_64-x64-vc14-release:endpoint.obj
 0001:0002a0a0       pjmedia_endpt_create_sdp   000000014002b0a0 f   pjmedia-x86_64-x64-vc14-release:endpoint.obj
 0001:0002a250       pjmedia_endpt_destroy2     000000014002b250 f   pjmedia-x86_64-x64-vc14-release:endpoint.obj
 0001:0002a340       pj_pool_getobjname         000000014002b340 f   pjlib-x86_64-x64-vc14-release:pool.obj
 0001:0002a340       pjmedia_endpt_get_codec_mgr 000000014002b340 f   pjmedia-x86_64-x64-vc14-release:endpoint.obj
 0001:0002a350       pjmedia_endpt_get_ioqueue  000000014002b350 f   pjmedia-x86_64-x64-vc14-release:endpoint.obj
 0001:0002a3c0       pjmedia_codec_g711_deinit  000000014002b3c0 f   pjmedia-x86_64-x64-vc14-release:g711.obj
 0001:0002aba0       pjmedia_codec_g711_init    000000014002bba0 f   pjmedia-x86_64-x64-vc14-release:g711.obj
 0001:0002baf0       pjmedia_sdp_neg_cancel_offer 000000014002caf0 f   pjmedia-x86_64-x64-vc14-release:sdp_neg.obj
 0001:0002bb50       pjmedia_sdp_neg_create_w_local_offer 000000014002cb50 f   pjmedia-x86_64-x64-vc14-release:sdp_neg.obj
 0001:0002bc10       pjmedia_sdp_neg_create_w_remote_offer 000000014002cc10 f   pjmedia-x86_64-x64-vc14-release:sdp_neg.obj
 0001:0002bd10       pjmedia_sdp_neg_fmt_match  000000014002cd10 f   pjmedia-x86_64-x64-vc14-release:sdp_neg.obj
 0001:0002beb0       pjmedia_sdp_neg_get_active_local 000000014002ceb0 f   pjmedia-x86_64-x64-vc14-release:sdp_neg.obj
 0001:0002bee0       pjmedia_sdp_neg_get_active_remote 000000014002cee0 f   pjmedia-x86_64-x64-vc14-release:sdp_neg.obj
 0001:0002bf10       pjmedia_sdp_neg_get_neg_local 000000014002cf10 f   pjmedia-x86_64-x64-vc14-release:sdp_neg.obj
 0001:0002bf40       pjmedia_sdp_neg_get_state  000000014002cf40 f   pjmedia-x86_64-x64-vc14-release:sdp_neg.obj
 0001:0002bf50       pjmedia_sdp_neg_has_local_answer 000000014002cf50 f   pjmedia-x86_64-x64-vc14-release:sdp_neg.obj
 0001:0002bf60       pjmedia_sdp_neg_modify_local_offer2 000000014002cf60 f   pjmedia-x86_64-x64-vc14-release:sdp_neg.obj
 0001:0002c1b0       pjmedia_sdp_neg_negotiate  000000014002d1b0 f   pjmedia-x86_64-x64-vc14-release:sdp_neg.obj
 0001:0002c430       pjmedia_sdp_neg_send_local_offer 000000014002d430 f   pjmedia-x86_64-x64-vc14-release:sdp_neg.obj
 0001:0002c520       pjmedia_sdp_neg_set_local_answer 000000014002d520 f   pjmedia-x86_64-x64-vc14-release:sdp_neg.obj
 0001:0002c5f0       pjmedia_sdp_neg_set_remote_answer 000000014002d5f0 f   pjmedia-x86_64-x64-vc14-release:sdp_neg.obj
 0001:0002c650       pjmedia_sdp_neg_set_remote_offer 000000014002d650 f   pjmedia-x86_64-x64-vc14-release:sdp_neg.obj
 0001:0002c6a0       pjmedia_sdp_neg_state_str  000000014002d6a0 f   pjmedia-x86_64-x64-vc14-release:sdp_neg.obj
 0001:0002ce60       pjmedia_snd_port_connect   000000014002de60 f   pjmedia-x86_64-x64-vc14-release:sound_port.obj
 0001:0002cf40       pjmedia_snd_port_create    000000014002df40 f   pjmedia-x86_64-x64-vc14-release:sound_port.obj
 0001:0002d050       pjmedia_snd_port_create2   000000014002e050 f   pjmedia-x86_64-x64-vc14-release:sound_port.obj
 0001:0002d230       pjmedia_snd_port_destroy   000000014002e230 f   pjmedia-x86_64-x64-vc14-release:sound_port.obj
 0001:0002d2a0       pjmedia_snd_port_set_ec    000000014002e2a0 f   pjmedia-x86_64-x64-vc14-release:sound_port.obj
 0001:0002e110       pjmedia_stream_info_from_sdp 000000014002f110 f   pjmedia-x86_64-x64-vc14-release:stream_info.obj
 0001:0002fea0       pjmedia_stream_create      0000000140030ea0 f   pjmedia-x86_64-x64-vc14-release:stream.obj
 0001:00030a90       pjmedia_stream_destroy     0000000140031a90 f   pjmedia-x86_64-x64-vc14-release:stream.obj
 0001:00030d30       pjmedia_stream_get_port    0000000140031d30 f   pjmedia-x86_64-x64-vc14-release:stream.obj
 0001:00030d40       pjmedia_stream_start       0000000140031d40 f   pjmedia-x86_64-x64-vc14-release:stream.obj
 0001:00032910       pjmedia_transport_udp_attach 0000000140033910 f   pjmedia-x86_64-x64-vc14-release:transport_udp.obj
 0001:00032cf0       pjmedia_transport_udp_create3 0000000140033cf0 f   pjmedia-x86_64-x64-vc14-release:transport_udp.obj
 0001:00033690       pjmedia_sdp_attr_add       0000000140034690 f   pjmedia-x86_64-x64-vc14-release:sdp.obj
 0001:000336c0       pjmedia_sdp_attr_create    00000001400346c0 f   pjmedia-x86_64-x64-vc14-release:sdp.obj
 0001:00033770       pjmedia_sdp_attr_create_rtcp 0000000140034770 f   pjmedia-x86_64-x64-vc14-release:sdp.obj
 0001:00033880       pjmedia_sdp_attr_find      0000000140034880 f   pjmedia-x86_64-x64-vc14-release:sdp.obj
 0001:00033930       pjmedia_sdp_attr_find2     0000000140034930 f   pjmedia-x86_64-x64-vc14-release:sdp.obj
 0001:00033a00       pjmedia_sdp_attr_get_fmtp  0000000140034a00 f   pjmedia-x86_64-x64-vc14-release:sdp.obj
 0001:00033ac0       pjmedia_sdp_attr_get_rtcp  0000000140034ac0 f   pjmedia-x86_64-x64-vc14-release:sdp.obj
 0001:00033c20       pjmedia_sdp_attr_get_rtpmap 0000000140034c20 f   pjmedia-x86_64-x64-vc14-release:sdp.obj
 0001:00033e00       pjmedia_sdp_attr_get_ssrc  0000000140034e00 f   pjmedia-x86_64-x64-vc14-release:sdp.obj
 0001:00033f90       pjmedia_sdp_attr_remove_all 0000000140034f90 f   pjmedia-x86_64-x64-vc14-release:sdp.obj
 0001:00034080       pjmedia_sdp_attr_to_rtpmap 0000000140035080 f   pjmedia-x86_64-x64-vc14-release:sdp.obj
 0001:000340f0       pjmedia_sdp_conn_clone     00000001400350f0 f   pjmedia-x86_64-x64-vc14-release:sdp.obj
 0001:00034180       pjmedia_sdp_media_add_attr 0000000140035180 f   pjmedia-x86_64-x64-vc14-release:sdp.obj
 0001:000341c0       pjmedia_sdp_media_clone    00000001400351c0 f   pjmedia-x86_64-x64-vc14-release:sdp.obj
 0001:000343b0       pjmedia_sdp_media_clone_deactivate 00000001400353b0 f   pjmedia-x86_64-x64-vc14-release:sdp.obj
 0001:00034570       pjmedia_sdp_media_deactivate 0000000140035570 f   pjmedia-x86_64-x64-vc14-release:sdp.obj
 0001:00034590       pjmedia_sdp_media_find_attr 0000000140035590 f   pjmedia-x86_64-x64-vc14-release:sdp.obj
 0001:00034680       pjmedia_sdp_media_find_attr2 0000000140035680 f   pjmedia-x86_64-x64-vc14-release:sdp.obj
 0001:00034780       pjmedia_sdp_media_remove_all_attr 0000000140035780 f   pjmedia-x86_64-x64-vc14-release:sdp.obj
 0001:00034880       pjmedia_sdp_media_remove_attr 0000000140035880 f   pjmedia-x86_64-x64-vc14-release:sdp.obj
 0001:00034930       pjmedia_sdp_parse          0000000140035930 f   pjmedia-x86_64-x64-vc14-release:sdp.obj
 0001:00035280       pjmedia_sdp_print          0000000140036280 f   pjmedia-x86_64-x64-vc14-release:sdp.obj
 0001:00035290       pjmedia_sdp_rtpmap_to_attr 0000000140036290 f   pjmedia-x86_64-x64-vc14-release:sdp.obj
 0001:00035400       pjmedia_sdp_session_clone  0000000140036400 f   pjmedia-x86_64-x64-vc14-release:sdp.obj
 0001:00035640       pjmedia_sdp_transport_cmp  0000000140036640 f   pjmedia-x86_64-x64-vc14-release:sdp.obj
 0001:000356a0       pjmedia_sdp_transport_get_proto 00000001400366a0 f   pjmedia-x86_64-x64-vc14-release:sdp.obj
 0001:00035800       pjmedia_sdp_validate       0000000140036800 f   pjmedia-x86_64-x64-vc14-release:sdp.obj
 0001:00035810       pjmedia_sdp_validate2      0000000140036810 f   pjmedia-x86_64-x64-vc14-release:sdp.obj
 0001:00036390       pjmedia_aud_dev_default_param 0000000140037390 f   pjmedia-x86_64-x64-vc14-release:audiodev.obj
 0001:00036420       pjmedia_aud_dev_get_info   0000000140037420 f   pjmedia-x86_64-x64-vc14-release:audiodev.obj
 0001:00036480       pjmedia_aud_driver_deinit  0000000140037480 f   pjmedia-x86_64-x64-vc14-release:audiodev.obj
 0001:000364f0       pjmedia_aud_driver_init    00000001400374f0 f   pjmedia-x86_64-x64-vc14-release:audiodev.obj
 0001:00036770       pjmedia_aud_stream_create  0000000140037770 f   pjmedia-x86_64-x64-vc14-release:audiodev.obj
 0001:00036930       pjmedia_aud_stream_destroy 0000000140037930 f   pjmedia-x86_64-x64-vc14-release:audiodev.obj
 0001:00036940       pjmedia_aud_stream_get_cap 0000000140037940 f   pjmedia-x86_64-x64-vc14-release:audiodev.obj
 0001:00036950       pjmedia_aud_stream_get_param 0000000140037950 f   pjmedia-x86_64-x64-vc14-release:audiodev.obj
 0001:00036a10       pjmedia_aud_stream_set_cap 0000000140037a10 f   pjmedia-x86_64-x64-vc14-release:audiodev.obj
 0001:00036a20       pjmedia_aud_stream_start   0000000140037a20 f   pjmedia-x86_64-x64-vc14-release:audiodev.obj
 0001:00036a30       pjmedia_aud_stream_stop    0000000140037a30 f   pjmedia-x86_64-x64-vc14-release:audiodev.obj
 0001:00036a40       pjmedia_get_aud_subsys     0000000140037a40 f   pjmedia-x86_64-x64-vc14-release:audiodev.obj
 0001:00036a50       pjmedia_codec_info_to_id   0000000140037a50 f   pjmedia-x86_64-x64-vc14-release:codec.obj
 0001:00036ad0       pjmedia_codec_mgr_alloc_codec 0000000140037ad0 f   pjmedia-x86_64-x64-vc14-release:codec.obj
 0001:00036bb0       pjmedia_codec_mgr_dealloc_codec 0000000140037bb0 f   pjmedia-x86_64-x64-vc14-release:codec.obj
 0001:00036bd0       pjmedia_codec_mgr_destroy  0000000140037bd0 f   pjmedia-x86_64-x64-vc14-release:codec.obj
 0001:00036c80       pjmedia_codec_mgr_find_codecs_by_id 0000000140037c80 f   pjmedia-x86_64-x64-vc14-release:codec.obj
 0001:00036d90       pjmedia_codec_mgr_get_codec_info 0000000140037d90 f   pjmedia-x86_64-x64-vc14-release:codec.obj
 0001:00036e40       pjmedia_codec_mgr_get_default_param 0000000140037e40 f   pjmedia-x86_64-x64-vc14-release:codec.obj
 0001:00037030       pjmedia_codec_mgr_init     0000000140038030 f   pjmedia-x86_64-x64-vc14-release:codec.obj
 0001:000370c0       pjmedia_codec_mgr_register_factory 00000001400380c0 f   pjmedia-x86_64-x64-vc14-release:codec.obj
 0001:00037280       pjmedia_codec_mgr_unregister_factory 0000000140038280 f   pjmedia-x86_64-x64-vc14-release:codec.obj
 0001:00037370       pjmedia_codec_param_clone  0000000140038370 f   pjmedia-x86_64-x64-vc14-release:codec.obj
 0001:000376a0       pjmedia_strerror           00000001400386a0 f   pjmedia-x86_64-x64-vc14-release:errno.obj
 0001:000378d0       pjmedia_plc_create         00000001400388d0 f   pjmedia-x86_64-x64-vc14-release:plc_common.obj
 0001:00037970       pjmedia_plc_generate       0000000140038970 f   pjmedia-x86_64-x64-vc14-release:plc_common.obj
 0001:000379a0       pjmedia_plc_save           00000001400389a0 f   pjmedia-x86_64-x64-vc14-release:plc_common.obj
 0001:000379d0       pjmedia_calc_avg_signal    00000001400389d0 f   pjmedia-x86_64-x64-vc14-release:silencedet.obj
 0001:00037a20       pjmedia_silence_det_apply  0000000140038a20 f   pjmedia-x86_64-x64-vc14-release:silencedet.obj
 0001:00037c10       pjmedia_silence_det_create 0000000140038c10 f   pjmedia-x86_64-x64-vc14-release:silencedet.obj
 0001:00037cd0       pjmedia_silence_det_detect 0000000140038cd0 f   pjmedia-x86_64-x64-vc14-release:silencedet.obj
 0001:00037d30       pjmedia_format_get_audio_format_detail 0000000140038d30 f   pjmedia-x86_64-x64-vc14-release:format.obj
 0001:00037d40       pjmedia_clock_src_init     0000000140038d40 f   pjmedia-x86_64-x64-vc14-release:clock_thread.obj
 0001:00037d80       pjmedia_clock_src_update   0000000140038d80 f   pjmedia-x86_64-x64-vc14-release:clock_thread.obj
 0001:00037db0       pjmedia_port_get_frame     0000000140038db0 f   pjmedia-x86_64-x64-vc14-release:port.obj
 0001:00037de0       pjmedia_port_info_init     0000000140038de0 f   pjmedia-x86_64-x64-vc14-release:port.obj
 0001:00037e80       pjmedia_port_put_frame     0000000140038e80 f   pjmedia-x86_64-x64-vc14-release:port.obj
 0001:00037eb0       pjmedia_echo_capture       0000000140038eb0 f   pjmedia-x86_64-x64-vc14-release:echo_common.obj
 0001:00037fb0       pjmedia_echo_create2       0000000140038fb0 f   pjmedia-x86_64-x64-vc14-release:echo_common.obj
 0001:00038210       pjmedia_echo_destroy       0000000140039210 f   pjmedia-x86_64-x64-vc14-release:echo_common.obj
 0001:00038250       pjmedia_echo_playback      0000000140039250 f   pjmedia-x86_64-x64-vc14-release:echo_common.obj
 0001:00038320       pjmedia_echo_stat_default  0000000140039320 f   pjmedia-x86_64-x64-vc14-release:echo_common.obj
 0001:00038370       pjmedia_get_type           0000000140039370 f   pjmedia-x86_64-x64-vc14-release:types.obj
 0001:000385c0       pjmedia_rtcp_fb_build_nack 00000001400395c0 f   pjmedia-x86_64-x64-vc14-release:rtcp_fb.obj
 0001:000386b0       pjmedia_rtcp_fb_decode_sdp2 00000001400396b0 f   pjmedia-x86_64-x64-vc14-release:rtcp_fb.obj
 0001:00038a00       pjmedia_rtcp_fb_info_dup   0000000140039a00 f   pjmedia-x86_64-x64-vc14-release:rtcp_fb.obj
 0001:00038b10       pjmedia_rtcp_fb_parse_nack 0000000140039b10 f   pjmedia-x86_64-x64-vc14-release:rtcp_fb.obj
 0001:00038c00       pjmedia_rtcp_fb_parse_pli  0000000140039c00 f   pjmedia-x86_64-x64-vc14-release:rtcp_fb.obj
 0001:00038c30       pjmedia_stream_info_parse_fmtp 0000000140039c30 f   pjmedia-x86_64-x64-vc14-release:stream_common.obj
 0001:00038e70       pjmedia_rtp_decode_rtp     0000000140039e70 f   pjmedia-x86_64-x64-vc14-release:rtp.obj
 0001:00038f30       pjmedia_rtp_encode_rtp     0000000140039f30 f   pjmedia-x86_64-x64-vc14-release:rtp.obj
 0001:00038fe0       pjmedia_rtp_seq_init       0000000140039fe0 f   pjmedia-x86_64-x64-vc14-release:rtp.obj
 0001:00039010       pjmedia_rtp_seq_update     000000014003a010 f   pjmedia-x86_64-x64-vc14-release:rtp.obj
 0001:00039130       pjmedia_rtp_session_init2  000000014003a130 f   pjmedia-x86_64-x64-vc14-release:rtp.obj
 0001:00039260       pjmedia_rtp_session_update2 000000014003a260 f   pjmedia-x86_64-x64-vc14-release:rtp.obj
 0001:00039720       pjmedia_rtcp_build_rtcp    000000014003a720 f   pjmedia-x86_64-x64-vc14-release:rtcp.obj
 0001:00039950       pjmedia_rtcp_build_rtcp_bye 000000014003a950 f   pjmedia-x86_64-x64-vc14-release:rtcp.obj
 0001:00039a90       pjmedia_rtcp_build_rtcp_sdes 000000014003aa90 f   pjmedia-x86_64-x64-vc14-release:rtcp.obj
 0001:00039d70       pjmedia_rtcp_get_ntp_time  000000014003ad70 f   pjmedia-x86_64-x64-vc14-release:rtcp.obj
 0001:00039ed0       pjmedia_rtcp_init2         000000014003aed0 f   pjmedia-x86_64-x64-vc14-release:rtcp.obj
 0001:00039ff0       pjmedia_rtcp_rx_rtcp       000000014003aff0 f   pjmedia-x86_64-x64-vc14-release:rtcp.obj
 0001:0003a400       pjmedia_rtcp_rx_rtp2       000000014003b400 f   pjmedia-x86_64-x64-vc14-release:rtcp.obj
 0001:0003a5c0       pjmedia_rtcp_session_setting_default 000000014003b5c0 f   pjmedia-x86_64-x64-vc14-release:rtcp.obj
 0001:0003a5d0       pjmedia_rtcp_tx_rtp        000000014003b5d0 f   pjmedia-x86_64-x64-vc14-release:rtcp.obj
 0001:0003abd0       pjmedia_jbuf_create        000000014003bbd0 f   pjmedia-x86_64-x64-vc14-release:jbuf.obj
 0001:0003ae20       pjmedia_jbuf_destroy       000000014003be20 f   pjmedia-x86_64-x64-vc14-release:jbuf.obj
 0001:0003afa0       pjmedia_jbuf_get_frame2    000000014003bfa0 f   pjmedia-x86_64-x64-vc14-release:jbuf.obj
 0001:0003b1a0       pjmedia_jbuf_get_state     000000014003c1a0 f   pjmedia-x86_64-x64-vc14-release:jbuf.obj
 0001:0003b260       pjmedia_jbuf_put_frame2    000000014003c260 f   pjmedia-x86_64-x64-vc14-release:jbuf.obj
 0001:0003b290       pjmedia_jbuf_put_frame3    000000014003c290 f   pjmedia-x86_64-x64-vc14-release:jbuf.obj
 0001:0003b420       pjmedia_jbuf_reset         000000014003c420 f   pjmedia-x86_64-x64-vc14-release:jbuf.obj
 0001:0003b4b0       pjmedia_jbuf_set_adaptive  000000014003c4b0 f   pjmedia-x86_64-x64-vc14-release:jbuf.obj
 0001:0003b4f0       pjmedia_jbuf_set_ptime     000000014003c4f0 f   pjmedia-x86_64-x64-vc14-release:jbuf.obj
 0001:0003d580       get_libsrtp_errstr         000000014003e580 f   pjmedia-x86_64-x64-vc14-release:transport_srtp.obj
 0001:0003d8a0       pjmedia_transport_srtp_start 000000014003e8a0 f   pjmedia-x86_64-x64-vc14-release:transport_srtp.obj
 0001:0003de40       pjmedia_transport_srtp_stop 000000014003ee40 f   pjmedia-x86_64-x64-vc14-release:transport_srtp.obj
 0001:0003f010       pjmedia_wsola_create       0000000140040010 f   pjmedia-x86_64-x64-vc14-release:wsola.obj
 0001:0003f2d0       pjmedia_wsola_discard      00000001400402d0 f   pjmedia-x86_64-x64-vc14-release:wsola.obj
 0001:0003f520       pjmedia_wsola_generate     0000000140040520 f   pjmedia-x86_64-x64-vc14-release:wsola.obj
 0001:0003f600       pjmedia_wsola_save         0000000140040600 f   pjmedia-x86_64-x64-vc14-release:wsola.obj
 0001:0003fae0       echo_supp_cancel_echo      0000000140040ae0 f   pjmedia-x86_64-x64-vc14-release:echo_suppress.obj
 0001:0003fef0       echo_supp_create           0000000140040ef0 f   pjmedia-x86_64-x64-vc14-release:echo_suppress.obj
 0001:000400e0       echo_supp_get_stat         00000001400410e0 f   pjmedia-x86_64-x64-vc14-release:echo_suppress.obj
 0001:00040270       echo_supp_reset            0000000140041270 f   pjmedia-x86_64-x64-vc14-release:echo_suppress.obj
 0001:000409d0       speex_aec_cancel_echo      00000001400419d0 f   pjmedia-x86_64-x64-vc14-release:echo_speex.obj
 0001:00040b00       speex_aec_capture          0000000140041b00 f   pjmedia-x86_64-x64-vc14-release:echo_speex.obj
 0001:00040c10       speex_aec_create           0000000140041c10 f   pjmedia-x86_64-x64-vc14-release:echo_speex.obj
 0001:00040e00       speex_aec_destroy          0000000140041e00 f   pjmedia-x86_64-x64-vc14-release:echo_speex.obj
 0001:00040ec0       speex_aec_playback         0000000140041ec0 f   pjmedia-x86_64-x64-vc14-release:echo_speex.obj
 0001:00040f30       speex_aec_reset            0000000140041f30 f   pjmedia-x86_64-x64-vc14-release:echo_speex.obj
 0001:00041170       pjmedia_delay_buf_create   0000000140042170 f   pjmedia-x86_64-x64-vc14-release:delaybuf.obj
 0001:00041330       pjmedia_delay_buf_destroy  0000000140042330 f   pjmedia-x86_64-x64-vc14-release:delaybuf.obj
 0001:000413a0       pjmedia_delay_buf_get      00000001400423a0 f   pjmedia-x86_64-x64-vc14-release:delaybuf.obj
 0001:00041510       pjmedia_delay_buf_put      0000000140042510 f   pjmedia-x86_64-x64-vc14-release:delaybuf.obj
 0001:000417e0       pjlib_util_init            00000001400427e0 f   pjlib-util-x86_64-x64-vc14-release:errno.obj
 0001:00041800       pjlib_util_strerror        0000000140042800 f   pjlib-util-x86_64-x64-vc14-release:errno.obj
 0001:00042200       pj_getopt_long             0000000140043200 f   pjlib-util-x86_64-x64-vc14-release:getopt.obj
 0001:00042220       pj_cis_add_alpha           0000000140043220 f   pjlib-util-x86_64-x64-vc14-release:scanner.obj
 0001:00042250       pj_cis_add_cis             0000000140043250 f   pjlib-util-x86_64-x64-vc14-release:scanner.obj
 0001:000422a0       pj_cis_add_num             00000001400432a0 f   pjlib-util-x86_64-x64-vc14-release:scanner.obj
 0001:000422b0       pj_cis_add_range           00000001400432b0 f   pjlib-util-x86_64-x64-vc14-release:scanner.obj
 0001:00042400       pj_cis_add_str             0000000140043400 f   pjlib-util-x86_64-x64-vc14-release:scanner.obj
 0001:00042440       pj_cis_buf_init            0000000140043440 f   pjlib-util-x86_64-x64-vc14-release:scanner.obj
 0001:00042470       pj_cis_del_str             0000000140043470 f   pjlib-util-x86_64-x64-vc14-release:scanner.obj
 0001:000424b0       pj_cis_dup                 00000001400434b0 f   pjlib-util-x86_64-x64-vc14-release:scanner.obj
 0001:00042560       pj_cis_init                0000000140043560 f   pjlib-util-x86_64-x64-vc14-release:scanner.obj
 0001:000425a0       pj_cis_invert              00000001400435a0 f   pjlib-util-x86_64-x64-vc14-release:scanner.obj
 0001:000425f0       pj_scan_advance_n          00000001400435f0 f   pjlib-util-x86_64-x64-vc14-release:scanner.obj
 0001:00042620       pj_scan_fini               0000000140043620 f   pjlib-util-x86_64-x64-vc14-release:scanner.obj
 0001:00042640       pj_scan_get                0000000140043640 f   pjlib-util-x86_64-x64-vc14-release:scanner.obj
 0001:000426b0       pj_scan_get_char           00000001400436b0 f   pjlib-util-x86_64-x64-vc14-release:scanner.obj
 0001:00042700       pj_scan_get_n              0000000140043700 f   pjlib-util-x86_64-x64-vc14-release:scanner.obj
 0001:00042740       pj_scan_get_newline        0000000140043740 f   pjlib-util-x86_64-x64-vc14-release:scanner.obj
 0001:00042780       pj_scan_get_quote          0000000140043780 f   pjlib-util-x86_64-x64-vc14-release:scanner.obj
 0001:00042850       pj_scan_get_until_ch       0000000140043850 f   pjlib-util-x86_64-x64-vc14-release:scanner.obj
 0001:000428a0       pj_scan_get_until_chr      00000001400438a0 f   pjlib-util-x86_64-x64-vc14-release:scanner.obj
 0001:00042950       pj_scan_init               0000000140043950 f   pjlib-util-x86_64-x64-vc14-release:scanner.obj
 0001:000429d0       pj_scan_peek               00000001400439d0 f   pjlib-util-x86_64-x64-vc14-release:scanner.obj
 0001:00042a40       pj_scan_skip_line          0000000140043a40 f   pjlib-util-x86_64-x64-vc14-release:scanner.obj
 0001:00042a80       pj_scan_skip_whitespace    0000000140043a80 f   pjlib-util-x86_64-x64-vc14-release:scanner.obj
 0001:00042b60       pj_str_unescape            0000000140043b60 f   pjlib-util-x86_64-x64-vc14-release:string.obj
 0001:00042c70       pj_strncpy2_escape         0000000140043c70 f   pjlib-util-x86_64-x64-vc14-release:string.obj
 0001:00043020       pj_dns_parse_addr_response 0000000140044020 f   pjlib-util-x86_64-x64-vc14-release:resolver.obj
 0001:00043340       pj_dns_resolver_cancel_query 0000000140044340 f   pjlib-util-x86_64-x64-vc14-release:resolver.obj
 0001:000433e0       pj_dns_resolver_destroy    00000001400443e0 f   pjlib-util-x86_64-x64-vc14-release:resolver.obj
 0001:000435b0       pj_dns_resolver_start_query 00000001400445b0 f   pjlib-util-x86_64-x64-vc14-release:resolver.obj
 0001:00044740       pj_md5_final               0000000140045740 f   pjlib-util-x86_64-x64-vc14-release:md5.obj
 0001:00044800       pj_md5_init                0000000140045800 f   pjlib-util-x86_64-x64-vc14-release:md5.obj
 0001:00044830       pj_md5_update              0000000140045830 f   pjlib-util-x86_64-x64-vc14-release:md5.obj
 0001:00044930       pj_dns_get_type_name       0000000140045930 f   pjlib-util-x86_64-x64-vc14-release:dns.obj
 0001:00044a00       pj_dns_make_query          0000000140045a00 f   pjlib-util-x86_64-x64-vc14-release:dns.obj
 0001:00045d00       pj_dns_srv_resolve         0000000140046d00 f   pjlib-util-x86_64-x64-vc14-release:srv_resolver.obj
 0001:00045f00       pj_base64_decode           0000000140046f00 f   pjlib-util-x86_64-x64-vc14-release:base64.obj
 0001:000460e0       pj_base64_encode           00000001400470e0 f   pjlib-util-x86_64-x64-vc14-release:base64.obj
 0001:00046330       pj_atexit                  0000000140047330 f   pjlib-x86_64-x64-vc14-release:os_core_win32.obj
 0001:00046360       pj_atomic_create           0000000140047360 f   pjlib-x86_64-x64-vc14-release:os_core_win32.obj
 0001:000463a0       pj_atomic_dec_and_get      00000001400473a0 f   pjlib-x86_64-x64-vc14-release:os_core_win32.obj
 0001:00046410       pj_atomic_destroy          0000000140047410 f   pjlib-x86_64-x64-vc14-release:os_core_win32.obj
 0001:00046420       pj_atomic_get              0000000140047420 f   pjlib-x86_64-x64-vc14-release:os_core_win32.obj
 0001:00046490       pj_atomic_inc              0000000140047490 f   pjlib-x86_64-x64-vc14-release:os_core_win32.obj
 0001:000464f0       pj_atomic_inc_and_get      00000001400474f0 f   pjlib-x86_64-x64-vc14-release:os_core_win32.obj
 0001:00046560       pj_atomic_set              0000000140047560 f   pjlib-x86_64-x64-vc14-release:os_core_win32.obj
 0001:000465d0       pj_enter_critical_section  00000001400475d0 f   pjlib-x86_64-x64-vc14-release:os_core_win32.obj
 0001:00046640       pj_init                    0000000140047640 f   pjlib-x86_64-x64-vc14-release:os_core_win32.obj
 0001:00046970       pj_leave_critical_section  0000000140047970 f   pjlib-x86_64-x64-vc14-release:os_core_win32.obj
 0001:000469e0       pj_mutex_create            00000001400479e0 f   pjlib-x86_64-x64-vc14-release:os_core_win32.obj
 0001:00046a60       pj_mutex_create_recursive  0000000140047a60 f   pjlib-x86_64-x64-vc14-release:os_core_win32.obj
 0001:00046a60       pj_mutex_create_simple     0000000140047a60 f   pjlib-x86_64-x64-vc14-release:os_core_win32.obj
 0001:00046ae0       pj_mutex_destroy           0000000140047ae0 f   pjlib-x86_64-x64-vc14-release:os_core_win32.obj
 0001:00046b60       pj_mutex_lock              0000000140047b60 f   pjlib-x86_64-x64-vc14-release:os_core_win32.obj
 0001:00046be0       pj_mutex_trylock           0000000140047be0 f   pjlib-x86_64-x64-vc14-release:os_core_win32.obj
 0001:00046c70       pj_mutex_unlock            0000000140047c70 f   pjlib-x86_64-x64-vc14-release:os_core_win32.obj
 0001:00046cf0       pj_rwmutex_create          0000000140047cf0 f   pjlib-x86_64-x64-vc14-release:os_core_win32.obj
 0001:00046ef0       pj_rwmutex_destroy         0000000140047ef0 f   pjlib-x86_64-x64-vc14-release:os_core_win32.obj
 0001:00047000       pj_rwmutex_lock_read       0000000140048000 f   pjlib-x86_64-x64-vc14-release:os_core_win32.obj
 0001:00047120       pj_rwmutex_lock_write      0000000140048120 f   pjlib-x86_64-x64-vc14-release:os_core_win32.obj
 0001:000471c0       pj_rwmutex_unlock_read     00000001400481c0 f   pjlib-x86_64-x64-vc14-release:os_core_win32.obj
 0001:000472e0       pj_rwmutex_unlock_write    00000001400482e0 f   pjlib-x86_64-x64-vc14-release:os_core_win32.obj
 0001:00047300       pj_sem_create              0000000140048300 f   pjlib-x86_64-x64-vc14-release:os_core_win32.obj
 0001:00047460       pj_sem_destroy             0000000140048460 f   pjlib-x86_64-x64-vc14-release:os_core_win32.obj
 0001:00047510       pj_sem_post                0000000140048510 f   pjlib-x86_64-x64-vc14-release:os_core_win32.obj
 0001:000475d0       pj_sem_trywait             00000001400485d0 f   pjlib-x86_64-x64-vc14-release:os_core_win32.obj
 0001:00047650       pj_sem_wait                0000000140048650 f   pjlib-x86_64-x64-vc14-release:os_core_win32.obj
 0001:000477c0       pj_term_set_color          00000001400487c0 f   pjlib-x86_64-x64-vc14-release:os_core_win32.obj
 0001:000478b0       pj_thread_check_stack      00000001400488b0 f   pjlib-x86_64-x64-vc14-release:os_core_win32.obj
 0001:00047910       pj_thread_create           0000000140048910 f   pjlib-x86_64-x64-vc14-release:os_core_win32.obj
 0001:00047ad0       pj_thread_destroy          0000000140048ad0 f   pjlib-x86_64-x64-vc14-release:os_core_win32.obj
 0001:00047b80       pj_thread_get_name         0000000140048b80 f   pjlib-x86_64-x64-vc14-release:os_core_win32.obj
 0001:00047bf0       pj_thread_join             0000000140048bf0 f   pjlib-x86_64-x64-vc14-release:os_core_win32.obj
 0001:00047cf0       pj_thread_local_alloc      0000000140048cf0 f   pjlib-x86_64-x64-vc14-release:os_core_win32.obj
 0001:00047d60       pj_thread_local_free       0000000140048d60 f   pjlib-x86_64-x64-vc14-release:os_core_win32.obj
 0001:00047dc0       pj_thread_local_get        0000000140048dc0 f   pjlib-x86_64-x64-vc14-release:os_core_win32.obj
 0001:00047dd0       pj_thread_local_set        0000000140048dd0 f   pjlib-x86_64-x64-vc14-release:os_core_win32.obj
 0001:00047e20       pj_thread_sleep            0000000140048e20 f   pjlib-x86_64-x64-vc14-release:os_core_win32.obj
 0001:00047e90       pj_thread_this             0000000140048e90 f   pjlib-x86_64-x64-vc14-release:os_core_win32.obj
 0001:00047f50       pj_perror                  0000000140048f50 f   pjlib-x86_64-x64-vc14-release:errno.obj
 0001:00047f70       pj_perror_1                0000000140048f70 f   pjlib-x86_64-x64-vc14-release:errno.obj
 0001:00047fa0       pj_perror_2                0000000140048fa0 f   pjlib-x86_64-x64-vc14-release:errno.obj
 0001:00047fd0       pj_perror_3                0000000140048fd0 f   pjlib-x86_64-x64-vc14-release:errno.obj
 0001:00048000       pj_perror_4                0000000140049000 f   pjlib-x86_64-x64-vc14-release:errno.obj
 0001:00048030       pj_perror_5                0000000140049030 f   pjlib-x86_64-x64-vc14-release:errno.obj
 0001:00048150       pj_register_strerror       0000000140049150 f   pjlib-x86_64-x64-vc14-release:errno.obj
 0001:00048240       pj_strerror                0000000140049240 f   pjlib-x86_64-x64-vc14-release:errno.obj
 0001:000483d0       pj_addr_str_print          00000001400493d0 f   pjlib-x86_64-x64-vc14-release:sock_common.obj
 0001:000484b0       pj_gethostip               00000001400494b0 f   pjlib-x86_64-x64-vc14-release:sock_common.obj
 0001:00048d90       pj_getipinterface          0000000140049d90 f   pjlib-x86_64-x64-vc14-release:sock_common.obj
 0001:00048fb0       pj_sockaddr_cmp            0000000140049fb0 f   pjlib-x86_64-x64-vc14-release:sock_common.obj
 0001:000490d0       pj_sockaddr_cp             000000014004a0d0 f   pjlib-x86_64-x64-vc14-release:sock_common.obj
 0001:00049110       pj_sockaddr_get_addr       000000014004a110 f   pjlib-x86_64-x64-vc14-release:sock_common.obj
 0001:00049140       pj_sockaddr_get_addr_len   000000014004a140 f   pjlib-x86_64-x64-vc14-release:sock_common.obj
 0001:00049170       pj_sockaddr_get_len        000000014004a170 f   pjlib-x86_64-x64-vc14-release:sock_common.obj
 0001:000491a0       pj_sockaddr_get_port       000000014004a1a0 f   pjlib-x86_64-x64-vc14-release:sock_common.obj
 0001:000491d0       pj_sockaddr_has_addr       000000014004a1d0 f   pjlib-x86_64-x64-vc14-release:sock_common.obj
 0001:00049270       pj_sockaddr_in_init        000000014004a270 f   pjlib-x86_64-x64-vc14-release:sock_common.obj
 0001:000492e0       pj_sockaddr_in_set_str_addr 000000014004a2e0 f   pjlib-x86_64-x64-vc14-release:sock_common.obj
 0001:000493c0       pj_sockaddr_init           000000014004a3c0 f   pjlib-x86_64-x64-vc14-release:sock_common.obj
 0001:00049540       pj_sockaddr_print          000000014004a540 f   pjlib-x86_64-x64-vc14-release:sock_common.obj
 0001:000496a0       pj_sockaddr_set_port       000000014004a6a0 f   pjlib-x86_64-x64-vc14-release:sock_common.obj
 0001:000496f0       pj_sockaddr_synthesize     000000014004a6f0 f   pjlib-x86_64-x64-vc14-release:sock_common.obj
 0001:000498b0       pj_gethostname             000000014004a8b0 f   pjlib-x86_64-x64-vc14-release:sock_bsd.obj
 0001:00049950       pj_htonl                   000000014004a950 f   pjlib-x86_64-x64-vc14-release:sock_bsd.obj
 0001:00049960       pj_htons                   000000014004a960 f   pjlib-x86_64-x64-vc14-release:sock_bsd.obj
 0001:00049970       pj_inet_aton               000000014004a970 f   pjlib-x86_64-x64-vc14-release:sock_bsd.obj
 0001:00049a00       pj_inet_ntop               000000014004aa00 f   pjlib-x86_64-x64-vc14-release:sock_bsd.obj
 0001:00049b30       pj_inet_pton               000000014004ab30 f   pjlib-x86_64-x64-vc14-release:sock_bsd.obj
 0001:00049c70       pj_ntohl                   000000014004ac70 f   pjlib-x86_64-x64-vc14-release:sock_bsd.obj
 0001:00049c80       pj_ntohs                   000000014004ac80 f   pjlib-x86_64-x64-vc14-release:sock_bsd.obj
 0001:00049c90       pj_sock_accept             000000014004ac90 f   pjlib-x86_64-x64-vc14-release:sock_bsd.obj
 0001:00049d30       pj_sock_bind               000000014004ad30 f   pjlib-x86_64-x64-vc14-release:sock_bsd.obj
 0001:00049df0       pj_sock_close              000000014004adf0 f   pjlib-x86_64-x64-vc14-release:sock_bsd.obj
 0001:00049e50       pj_sock_connect            000000014004ae50 f   pjlib-x86_64-x64-vc14-release:sock_bsd.obj
 0001:00049ef0       pj_sock_getsockname        000000014004aef0 f   pjlib-x86_64-x64-vc14-release:sock_bsd.obj
 0001:00049f90       pj_sock_getsockopt         000000014004af90 f   pjlib-x86_64-x64-vc14-release:sock_bsd.obj
 0001:0004a040       pj_sock_recv               000000014004b040 f   pjlib-x86_64-x64-vc14-release:sock_bsd.obj
 0001:0004a0e0       pj_sock_recvfrom           000000014004b0e0 f   pjlib-x86_64-x64-vc14-release:sock_bsd.obj
 0001:0004a1a0       pj_sock_send               000000014004b1a0 f   pjlib-x86_64-x64-vc14-release:sock_bsd.obj
 0001:0004a240       pj_sock_sendto             000000014004b240 f   pjlib-x86_64-x64-vc14-release:sock_bsd.obj
 0001:0004a2f0       pj_sock_setsockopt         000000014004b2f0 f   pjlib-x86_64-x64-vc14-release:sock_bsd.obj
 0001:0004a3a0       pj_sock_setsockopt_params  000000014004b3a0 f   pjlib-x86_64-x64-vc14-release:sock_bsd.obj
 0001:0004a4e0       pj_sock_socket             000000014004b4e0 f   pjlib-x86_64-x64-vc14-release:sock_bsd.obj
 0001:0004a5f0       pj_NO_MEMORY_EXCEPTION     000000014004b5f0 f   pjlib-x86_64-x64-vc14-release:pool.obj
 0001:0004a600       pj_pool_alloc              000000014004b600 f   pjlib-x86_64-x64-vc14-release:pool.obj
 0001:0004a7c0       pj_pool_calloc             000000014004b7c0 f   pjlib-x86_64-x64-vc14-release:pool.obj
 0001:0004a800       pj_pool_create             000000014004b800 f   pjlib-x86_64-x64-vc14-release:pool.obj
 0001:0004a810       pj_pool_create_int         000000014004b810 f   pjlib-x86_64-x64-vc14-release:pool.obj
 0001:0004a970       pj_pool_destroy_int        000000014004b970 f   pjlib-x86_64-x64-vc14-release:pool.obj
 0001:0004a9b0       pj_pool_get_capacity       000000014004b9b0 f   pjlib-x86_64-x64-vc14-release:pool.obj
 0001:0004a9c0       pj_pool_get_used_size      000000014004b9c0 f   pjlib-x86_64-x64-vc14-release:pool.obj
 0001:0004aa00       pj_pool_init_int           000000014004ba00 f   pjlib-x86_64-x64-vc14-release:pool.obj
 0001:0004aaa0       pj_pool_release            000000014004baa0 f   pjlib-x86_64-x64-vc14-release:pool.obj
 0001:0004aac0       pj_pool_reset              000000014004bac0 f   pjlib-x86_64-x64-vc14-release:pool.obj
 0001:0004aae0       pj_pool_safe_release       000000014004bae0 f   pjlib-x86_64-x64-vc14-release:pool.obj
 0001:0004aff0       pj_caching_pool_init       000000014004bff0 f   pjlib-x86_64-x64-vc14-release:pool_caching.obj
 0001:0004b1b0       pj_create_random_string    000000014004c1b0 f   pjlib-x86_64-x64-vc14-release:string.obj
 0001:0004b300       pj_str                     000000014004c300 f   pjlib-x86_64-x64-vc14-release:string.obj
 0001:0004b330       pj_strassign               000000014004c330 f   pjlib-x86_64-x64-vc14-release:string.obj
 0001:0004b350       pj_strcat                  000000014004c350 f   pjlib-x86_64-x64-vc14-release:string.obj
 0001:0004b390       pj_strcat2                 000000014004c390 f   pjlib-x86_64-x64-vc14-release:string.obj
 0001:0004b3e0       pj_strcmp                  000000014004c3e0 f   pjlib-x86_64-x64-vc14-release:string.obj
 0001:0004b460       pj_strcmp2                 000000014004c460 f   pjlib-x86_64-x64-vc14-release:string.obj
 0001:0004b510       pj_strcpy                  000000014004c510 f   pjlib-x86_64-x64-vc14-release:string.obj
 0001:0004b540       pj_strcpy2                 000000014004c540 f   pjlib-x86_64-x64-vc14-release:string.obj
 0001:0004b590       pj_strdup                  000000014004c590 f   pjlib-x86_64-x64-vc14-release:string.obj
 0001:0004b5e0       pj_strdup2                 000000014004c5e0 f   pjlib-x86_64-x64-vc14-release:string.obj
 0001:0004b650       pj_strdup2_with_null       000000014004c650 f   pjlib-x86_64-x64-vc14-release:string.obj
 0001:0004b6c0       pj_strdup3                 000000014004c6c0 f   pjlib-x86_64-x64-vc14-release:string.obj
 0001:0004b730       pj_strdup_with_null        000000014004c730 f   pjlib-x86_64-x64-vc14-release:string.obj
 0001:0004b790       pj_stricmp                 000000014004c790 f   pjlib-x86_64-x64-vc14-release:string.obj
 0001:0004b820       pj_stricmp2                000000014004c820 f   pjlib-x86_64-x64-vc14-release:string.obj
 0001:0004b8d0       pj_strltrim                000000014004c8d0 f   pjlib-x86_64-x64-vc14-release:string.obj
 0001:0004b930       pj_strncpy                 000000014004c930 f   pjlib-x86_64-x64-vc14-release:string.obj
 0001:0004b980       pj_strncpy_with_null       000000014004c980 f   pjlib-x86_64-x64-vc14-release:string.obj
 0001:0004b9d0       pj_strnicmp                000000014004c9d0 f   pjlib-x86_64-x64-vc14-release:string.obj
 0001:0004ba20       pj_strnicmp2               000000014004ca20 f   pjlib-x86_64-x64-vc14-release:string.obj
 0001:0004baa0       pj_strstr                  000000014004caa0 f   pjlib-x86_64-x64-vc14-release:string.obj
 0001:0004bb30       pj_strtok                  000000014004cb30 f   pjlib-x86_64-x64-vc14-release:string.obj
 0001:0004bc40       pj_strtok2                 000000014004cc40 f   pjlib-x86_64-x64-vc14-release:string.obj
 0001:0004bd50       pj_strtol                  000000014004cd50 f   pjlib-x86_64-x64-vc14-release:string.obj
 0001:0004bdc0       pj_strtol2                 000000014004cdc0 f   pjlib-x86_64-x64-vc14-release:string.obj
 0001:0004bf90       pj_strtoul                 000000014004cf90 f   pjlib-x86_64-x64-vc14-release:string.obj
 0001:0004c030       pj_strtoul2                000000014004d030 f   pjlib-x86_64-x64-vc14-release:string.obj
 0001:0004c120       pj_strtoul3                000000014004d120 f   pjlib-x86_64-x64-vc14-release:string.obj
 0001:0004c2a0       pj_strtrim                 000000014004d2a0 f   pjlib-x86_64-x64-vc14-release:string.obj
 0001:0004c340       pj_utoa                    000000014004d340 f   pjlib-x86_64-x64-vc14-release:string.obj
 0001:0004c3e0       pj_utoa_pad                000000014004d3e0 f   pjlib-x86_64-x64-vc14-release:string.obj
 0001:0004c4f0       pj_log                     000000014004d4f0 f   pjlib-x86_64-x64-vc14-release:log.obj
 0001:0004cb30       pj_log_1                   000000014004db30 f   pjlib-x86_64-x64-vc14-release:log.obj
 0001:0004cb60       pj_log_2                   000000014004db60 f   pjlib-x86_64-x64-vc14-release:log.obj
 0001:0004cb90       pj_log_3                   000000014004db90 f   pjlib-x86_64-x64-vc14-release:log.obj
 0001:0004cbc0       pj_log_4                   000000014004dbc0 f   pjlib-x86_64-x64-vc14-release:log.obj
 0001:0004cbf0       pj_log_5                   000000014004dbf0 f   pjlib-x86_64-x64-vc14-release:log.obj
 0001:0004cc20       pj_log_get_color           000000014004dc20 f   pjlib-x86_64-x64-vc14-release:log.obj
 0001:0004cc90       pj_log_get_decor           000000014004dc90 f   pjlib-x86_64-x64-vc14-release:log.obj
 0001:0004cca0       pj_log_get_level           000000014004dca0 f   pjlib-x86_64-x64-vc14-release:log.obj
 0001:0004ccb0       pj_log_init                000000014004dcb0 f   pjlib-x86_64-x64-vc14-release:log.obj
 0001:0004cd20       pj_log_pop_indent          000000014004dd20 f   pjlib-x86_64-x64-vc14-release:log.obj
 0001:0004cd50       pj_log_push_indent         000000014004dd50 f   pjlib-x86_64-x64-vc14-release:log.obj
 0001:0004cd80       pj_log_set_level           000000014004dd80 f   pjlib-x86_64-x64-vc14-release:log.obj
 0001:0004cea0       pj_list_erase              000000014004dea0 f   pjlib-x86_64-x64-vc14-release:list.obj
 0001:0004cec0       pj_list_find_node          000000014004dec0 f   pjlib-x86_64-x64-vc14-release:list.obj
 0001:0004cef0       pj_list_insert_after       000000014004def0 f   pjlib-x86_64-x64-vc14-release:list.obj
 0001:0004cf10       pj_list_insert_before      000000014004df10 f   pjlib-x86_64-x64-vc14-release:list.obj
 0001:0004cf30       pj_list_insert_nodes_before 000000014004df30 f   pjlib-x86_64-x64-vc14-release:list.obj
 0001:0004cf50       pj_list_search             000000014004df50 f   pjlib-x86_64-x64-vc14-release:list.obj
 0001:0004cfb0       pj_list_size               000000014004dfb0 f   pjlib-x86_64-x64-vc14-release:list.obj
 0001:0004d270       pj_grp_lock_acquire        000000014004e270 f   pjlib-x86_64-x64-vc14-release:lock.obj
 0001:0004d280       pj_grp_lock_add_handler    000000014004e280 f   pjlib-x86_64-x64-vc14-release:lock.obj
 0001:0004d300       pj_grp_lock_add_ref        000000014004e300 f   pjlib-x86_64-x64-vc14-release:lock.obj
 0001:0004d320       pj_grp_lock_create         000000014004e320 f   pjlib-x86_64-x64-vc14-release:lock.obj
 0001:0004d4f0       pj_grp_lock_create_w_handler 000000014004e4f0 f   pjlib-x86_64-x64-vc14-release:lock.obj
 0001:0004d700       pj_grp_lock_dec_ref        000000014004e700 f   pjlib-x86_64-x64-vc14-release:lock.obj
 0001:0004d740       pj_grp_lock_release        000000014004e740 f   pjlib-x86_64-x64-vc14-release:lock.obj
 0001:0004d750       pj_grp_lock_tryacquire     000000014004e750 f   pjlib-x86_64-x64-vc14-release:lock.obj
 0001:0004d760       pj_lock_acquire            000000014004e760 f   pjlib-x86_64-x64-vc14-release:lock.obj
 0001:0004d780       pj_lock_create_null_mutex  000000014004e780 f   pjlib-x86_64-x64-vc14-release:lock.obj
 0001:0004d7a0       pj_lock_create_recursive_mutex 000000014004e7a0 f   pjlib-x86_64-x64-vc14-release:lock.obj
 0001:0004d860       pj_lock_create_simple_mutex 000000014004e860 f   pjlib-x86_64-x64-vc14-release:lock.obj
 0001:0004d920       pj_lock_destroy            000000014004e920 f   pjlib-x86_64-x64-vc14-release:lock.obj
 0001:0004d940       pj_lock_release            000000014004e940 f   pjlib-x86_64-x64-vc14-release:lock.obj
 0001:0004d960       pj_lock_tryacquire         000000014004e960 f   pjlib-x86_64-x64-vc14-release:lock.obj
 0001:0004d980       pj_array_erase             000000014004e980 f   pjlib-x86_64-x64-vc14-release:array.obj
 0001:0004d9c0       pj_array_insert            000000014004e9c0 f   pjlib-x86_64-x64-vc14-release:array.obj
 0001:0004da30       pj_rand                    000000014004ea30 f   pjlib-x86_64-x64-vc14-release:rand.obj
 0001:0004da70       pj_time_val_normalize      000000014004ea70 f   pjlib-x86_64-x64-vc14-release:types.obj
 0001:0004dd00       pj_timer_entry_init        000000014004ed00 f   pjlib-x86_64-x64-vc14-release:timer.obj
 0001:0004dd20       pj_timer_entry_running     000000014004ed20 f   pjlib-x86_64-x64-vc14-release:timer.obj
 0001:0004dd30       pj_timer_heap_cancel       000000014004ed30 f   pjlib-x86_64-x64-vc14-release:timer.obj
 0001:0004de10       pj_timer_heap_cancel_if_active 000000014004ee10 f   pjlib-x86_64-x64-vc14-release:timer.obj
 0001:0004df10       pj_timer_heap_create       000000014004ef10 f   pjlib-x86_64-x64-vc14-release:timer.obj
 0001:0004e030       pj_timer_heap_destroy      000000014004f030 f   pjlib-x86_64-x64-vc14-release:timer.obj
 0001:0004e060       pj_timer_heap_dump         000000014004f060 f   pjlib-x86_64-x64-vc14-release:timer.obj
 0001:0004e210       pj_timer_heap_poll         000000014004f210 f   pjlib-x86_64-x64-vc14-release:timer.obj
 0001:0004e450       pj_timer_heap_schedule_dbg 000000014004f450 f   pjlib-x86_64-x64-vc14-release:timer.obj
 0001:0004e5b0       pj_timer_heap_schedule_w_grp_lock_dbg 000000014004f5b0 f   pjlib-x86_64-x64-vc14-release:timer.obj
 0001:0004e730       pj_timer_heap_set_lock     000000014004f730 f   pjlib-x86_64-x64-vc14-release:timer.obj
 0001:0004e780       pj_timer_heap_set_max_timed_out_per_poll 000000014004f780 f   pjlib-x86_64-x64-vc14-release:timer.obj
 0001:0004ea70       pj_gettimeofday            000000014004fa70 f   pjlib-x86_64-x64-vc14-release:os_time_win32.obj
 0001:0004eb80       pj_time_decode             000000014004fb80 f   pjlib-x86_64-x64-vc14-release:os_time_win32.obj
 0001:0004ece0       ioqueue_dispatch_exception_event 000000014004fce0 f   pjlib-x86_64-x64-vc14-release:ioqueue_select.obj
 0001:0004ee40       ioqueue_dispatch_read_event 000000014004fe40 f   pjlib-x86_64-x64-vc14-release:ioqueue_select.obj
 0001:0004f0b0       ioqueue_dispatch_write_event 00000001400500b0 f   pjlib-x86_64-x64-vc14-release:ioqueue_select.obj
 0001:0004f3b0       pj_ioqueue_create          00000001400503b0 f   pjlib-x86_64-x64-vc14-release:ioqueue_select.obj
 0001:0004f590       pj_ioqueue_destroy         0000000140050590 f   pjlib-x86_64-x64-vc14-release:ioqueue_select.obj
 0001:0004f670       pj_ioqueue_get_user_data   0000000140050670 f   pjlib-x86_64-x64-vc14-release:ioqueue_select.obj
 0001:0004f680       pj_ioqueue_is_pending      0000000140050680 f   pjlib-x86_64-x64-vc14-release:ioqueue_select.obj
 0001:0004f690       pj_ioqueue_lock_key        0000000140050690 f   pjlib-x86_64-x64-vc14-release:ioqueue_select.obj
 0001:0004f6b0       pj_ioqueue_op_key_init     00000001400506b0 f   pjlib-x86_64-x64-vc14-release:ioqueue_select.obj
 0001:0004f6c0       pj_ioqueue_poll            00000001400506c0 f   pjlib-x86_64-x64-vc14-release:ioqueue_select.obj
 0001:0004fbe0       pj_ioqueue_post_completion 0000000140050be0 f   pjlib-x86_64-x64-vc14-release:ioqueue_select.obj
 0001:0004fd90       pj_ioqueue_recvfrom        0000000140050d90 f   pjlib-x86_64-x64-vc14-release:ioqueue_select.obj
 0001:0004ff50       pj_ioqueue_register_sock   0000000140050f50 f   pjlib-x86_64-x64-vc14-release:ioqueue_select.obj
 0001:00050120       pj_ioqueue_register_sock2  0000000140051120 f   pjlib-x86_64-x64-vc14-release:ioqueue_select.obj
 0001:00050310       pj_ioqueue_sendto          0000000140051310 f   pjlib-x86_64-x64-vc14-release:ioqueue_select.obj
 0001:00050520       pj_ioqueue_set_concurrency 0000000140051520 f   pjlib-x86_64-x64-vc14-release:ioqueue_select.obj
 0001:00050540       pj_ioqueue_unlock_key      0000000140051540 f   pjlib-x86_64-x64-vc14-release:ioqueue_select.obj
 0001:00050560       pj_ioqueue_unregister      0000000140051560 f   pjlib-x86_64-x64-vc14-release:ioqueue_select.obj
 0001:000507a0       pj_exception_id_alloc      00000001400517a0 f   pjlib-x86_64-x64-vc14-release:except.obj
 0001:00050810       pj_exception_id_free       0000000140051810 f   pjlib-x86_64-x64-vc14-release:except.obj
 0001:00050850       pj_exception_id_name       0000000140051850 f   pjlib-x86_64-x64-vc14-release:except.obj
 0001:000508a0       pj_pop_exception_handler_  00000001400518a0 f   pjlib-x86_64-x64-vc14-release:except.obj
 0001:000508e0       pj_push_exception_handler_ 00000001400518e0 f   pjlib-x86_64-x64-vc14-release:except.obj
 0001:00050940       pj_throw_exception_        0000000140051940 f   pjlib-x86_64-x64-vc14-release:except.obj
 0001:000509a0       pj_get_timestamp           00000001400519a0 f   pjlib-x86_64-x64-vc14-release:os_timestamp_win32.obj
 0001:00050a00       pj_get_timestamp_freq      0000000140051a00 f   pjlib-x86_64-x64-vc14-release:os_timestamp_win32.obj
 0001:00050a60       pj_hash_calc               0000000140051a60 f   pjlib-x86_64-x64-vc14-release:hash.obj
 0001:00050b00       pj_hash_calc_tolower       0000000140051b00 f   pjlib-x86_64-x64-vc14-release:hash.obj
 0001:00050b80       pj_hash_count              0000000140051b80 f   pjlib-x86_64-x64-vc14-release:hash.obj
 0001:00050b80       srtp_rdbx_get_window_size  0000000140051b80 f   libsrtp-x86_64-x64-vc14-release:rdbx.obj
 0001:00050b90       pj_hash_create             0000000140051b90 f   pjlib-x86_64-x64-vc14-release:hash.obj
 0001:00050c00       pj_hash_first              0000000140051c00 f   pjlib-x86_64-x64-vc14-release:hash.obj
 0001:00050c40       pj_hash_get                0000000140051c40 f   pjlib-x86_64-x64-vc14-release:hash.obj
 0001:00050d50       pj_hash_get_lower          0000000140051d50 f   pjlib-x86_64-x64-vc14-release:hash.obj
 0001:00050e80       pj_hash_next               0000000140051e80 f   pjlib-x86_64-x64-vc14-release:hash.obj
 0001:00050ee0       pj_hash_set                0000000140051ee0 f   pjlib-x86_64-x64-vc14-release:hash.obj
 0001:00051080       pj_hash_set_lower          0000000140052080 f   pjlib-x86_64-x64-vc14-release:hash.obj
 0001:00051220       pj_hash_set_np             0000000140052220 f   pjlib-x86_64-x64-vc14-release:hash.obj
 0001:00051380       pj_hash_set_np_lower       0000000140052380 f   pjlib-x86_64-x64-vc14-release:hash.obj
 0001:000514f0       pj_hash_this               00000001400524f0 f   pjlib-x86_64-x64-vc14-release:hash.obj
 0001:00051520       pj_get_netos_error         0000000140052520 f   pjlib-x86_64-x64-vc14-release:os_error_win32.obj
 0001:00051550       pj_get_os_error            0000000140052550 f   pjlib-x86_64-x64-vc14-release:os_error_win32.obj
 0001:00051580       platform_strerror          0000000140052580 f   pjlib-x86_64-x64-vc14-release:os_error_win32.obj
 0001:000518d0       pj_GUID_STRING_LENGTH      00000001400528d0 f   pjlib-x86_64-x64-vc14-release:guid_win32.obj
 0001:000518e0       pj_generate_unique_string  00000001400528e0 f   pjlib-x86_64-x64-vc14-release:guid_win32.obj
 0001:00051940       pj_create_unique_string    0000000140052940 f   pjlib-x86_64-x64-vc14-release:guid.obj
 0001:00051970       pj_qos_get_params          0000000140052970 f   pjlib-x86_64-x64-vc14-release:sock_qos_common.obj
 0001:000519a0       pj_sock_apply_qos2         00000001400529a0 f   pjlib-x86_64-x64-vc14-release:sock_qos_common.obj
 0001:00051aa0       pj_getaddrinfo             0000000140052aa0 f   pjlib-x86_64-x64-vc14-release:addr_resolv_sock.obj
 0001:00051c80       pj_gettickcount            0000000140052c80 f   pjlib-x86_64-x64-vc14-release:os_timestamp_common.obj
 0001:00051d40       pj_pool_create_on_buf      0000000140052d40 f   pjlib-x86_64-x64-vc14-release:pool_buf.obj
 0001:00052420       pj_enum_ip_interface       0000000140053420 f   pjlib-x86_64-x64-vc14-release:ip_helper_win32.obj
 0001:00052510       pj_log_write               0000000140053510 f   pjlib-x86_64-x64-vc14-release:log_writer_stdout.obj
 0001:00052590       printf                     0000000140053590 f i pjlib-x86_64-x64-vc14-release:log_writer_stdout.obj
 0001:000525f0       PJ_FD_CLR                  00000001400535f0 f   pjlib-x86_64-x64-vc14-release:sock_select.obj
 0001:000526b0       srtp_rdbx_get_packet_index 00000001400536b0 f   libsrtp-x86_64-x64-vc14-release:rdbx.obj
 0001:000526b0       PJ_FD_COUNT                00000001400536b0 f   pjlib-x86_64-x64-vc14-release:sock_select.obj
 0001:000526c0       PJ_FD_ISSET                00000001400536c0 f   pjlib-x86_64-x64-vc14-release:sock_select.obj
 0001:00052700       PJ_FD_SET                  0000000140053700 f   pjlib-x86_64-x64-vc14-release:sock_select.obj
 0001:00052790       PJ_FD_ZERO                 0000000140053790 f   pjlib-x86_64-x64-vc14-release:sock_select.obj
 0001:000527c0       pj_sock_select             00000001400537c0 f   pjlib-x86_64-x64-vc14-release:sock_select.obj
 0001:00052860       pj_sock_set_qos_params     0000000140053860 f   pjlib-x86_64-x64-vc14-release:sock_qos_bsd.obj
 0001:00052990       pj_sock_set_qos_type       0000000140053990 f   pjlib-x86_64-x64-vc14-release:sock_qos_bsd.obj
 0001:00053140       speex_echo_cancellation    0000000140054140 f   libspeex-x86_64-x64-vc14-release:mdf.obj
 0001:00055430       speex_echo_capture         0000000140056430 f   libspeex-x86_64-x64-vc14-release:mdf.obj
 0001:00055550       speex_echo_ctl             0000000140056550 f   libspeex-x86_64-x64-vc14-release:mdf.obj
 0001:00055820       speex_echo_get_residual    0000000140056820 f   libspeex-x86_64-x64-vc14-release:mdf.obj
 0001:00055b30       speex_echo_playback        0000000140056b30 f   libspeex-x86_64-x64-vc14-release:mdf.obj
 0001:00055c70       speex_echo_state_destroy   0000000140056c70 f   libspeex-x86_64-x64-vc14-release:mdf.obj
 0001:00055dd0       speex_echo_state_init_mc   0000000140056dd0 f   libspeex-x86_64-x64-vc14-release:mdf.obj
 0001:00056570       speex_echo_state_reset     0000000140057570 f   libspeex-x86_64-x64-vc14-release:mdf.obj
 0001:00056e40       speex_decorrelate          0000000140057e40 f   libspeex-x86_64-x64-vc14-release:scal.obj
 0001:000574c0       speex_decorrelate_destroy  00000001400584c0 f   libspeex-x86_64-x64-vc14-release:scal.obj
 0001:00057520       speex_decorrelate_new      0000000140058520 f   libspeex-x86_64-x64-vc14-release:scal.obj
 0001:00058660       speex_preprocess_ctl       0000000140059660 f   libspeex-x86_64-x64-vc14-release:preprocess.obj
 0001:00058d40       speex_preprocess_run       0000000140059d40 f   libspeex-x86_64-x64-vc14-release:preprocess.obj
 0001:0005ad20       speex_preprocess_state_destroy 000000014005bd20 f   libspeex-x86_64-x64-vc14-release:preprocess.obj
 0001:0005ae60       speex_preprocess_state_init 000000014005be60 f   libspeex-x86_64-x64-vc14-release:preprocess.obj
 0001:0005c760       spx_fft                    000000014005d760 f   libspeex-x86_64-x64-vc14-release:fftwrap.obj
 0001:0005c840       spx_fft_destroy            000000014005d840 f   libspeex-x86_64-x64-vc14-release:fftwrap.obj
 0001:0005c860       spx_fft_init               000000014005d860 f   libspeex-x86_64-x64-vc14-release:fftwrap.obj
 0001:0005c8a0       spx_ifft                   000000014005d8a0 f   libspeex-x86_64-x64-vc14-release:fftwrap.obj
 0001:0005c920       filterbank_compute_bank32  000000014005d920 f   libspeex-x86_64-x64-vc14-release:filterbank.obj
 0001:0005c9c0       filterbank_compute_psd16   000000014005d9c0 f   libspeex-x86_64-x64-vc14-release:filterbank.obj
 0001:0005ca20       filterbank_destroy         000000014005da20 f   libspeex-x86_64-x64-vc14-release:filterbank.obj
 0001:0005ca70       filterbank_new             000000014005da70 f   libspeex-x86_64-x64-vc14-release:filterbank.obj
 0001:000628c0       spx_drft_backward          00000001400638c0 f   libspeex-x86_64-x64-vc14-release:smallft.obj
 0001:000628f0       spx_drft_clear             00000001400638f0 f   libspeex-x86_64-x64-vc14-release:smallft.obj
 0001:00062930       spx_drft_forward           0000000140063930 f   libspeex-x86_64-x64-vc14-release:smallft.obj
 0001:00062960       spx_drft_init              0000000140063960 f   libspeex-x86_64-x64-vc14-release:smallft.obj
 0001:000629c0       srtp_event_reporter        00000001400639c0 f   libsrtp-x86_64-x64-vc14-release:srtp.obj
 0001:00062a70       __local_stdio_scanf_options 0000000140063a70 f i libsrtp-x86_64-x64-vc14-release:srtp.obj
 0001:00062d00       srtp_create                0000000140063d00 f   libsrtp-x86_64-x64-vc14-release:srtp.obj
 0001:00062eb0       srtp_crypto_policy_set_aes_cm_256_hmac_sha1_32 0000000140063eb0 f   libsrtp-x86_64-x64-vc14-release:srtp.obj
 0001:00062ee0       srtp_crypto_policy_set_aes_cm_256_hmac_sha1_80 0000000140063ee0 f   libsrtp-x86_64-x64-vc14-release:srtp.obj
 0001:00062f10       srtp_dealloc               0000000140063f10 f   libsrtp-x86_64-x64-vc14-release:srtp.obj
 0001:000631f0       srtp_get_session_keys      00000001400641f0 f   libsrtp-x86_64-x64-vc14-release:srtp.obj
 0001:000632c0       srtp_inject_mki            00000001400642c0 f   libsrtp-x86_64-x64-vc14-release:srtp.obj
 0001:00063650       srtp_protect               0000000140064650 f   libsrtp-x86_64-x64-vc14-release:srtp.obj
 0001:00063970       srtp_protect_mki           0000000140064970 f   libsrtp-x86_64-x64-vc14-release:srtp.obj
 0001:00063ed0       srtp_protect_rtcp          0000000140064ed0 f   libsrtp-x86_64-x64-vc14-release:srtp.obj
 0001:00064110       srtp_protect_rtcp_mki      0000000140065110 f   libsrtp-x86_64-x64-vc14-release:srtp.obj
 0001:000644b0       srtp_stream_alloc          00000001400654b0 f   libsrtp-x86_64-x64-vc14-release:srtp.obj
 0001:00064740       srtp_stream_clone          0000000140065740 f   libsrtp-x86_64-x64-vc14-release:srtp.obj
 0001:00064980       srtp_stream_dealloc        0000000140065980 f   libsrtp-x86_64-x64-vc14-release:srtp.obj
 0001:00064c10       srtp_stream_init           0000000140065c10 f   libsrtp-x86_64-x64-vc14-release:srtp.obj
 0001:00064da0       srtp_stream_init_keys      0000000140065da0 f   libsrtp-x86_64-x64-vc14-release:srtp.obj
 0001:000656f0       srtp_unprotect             00000001400666f0 f   libsrtp-x86_64-x64-vc14-release:srtp.obj
 0001:00065a00       srtp_unprotect_mki         0000000140066a00 f   libsrtp-x86_64-x64-vc14-release:srtp.obj
 0001:00066010       srtp_unprotect_rtcp        0000000140067010 f   libsrtp-x86_64-x64-vc14-release:srtp.obj
 0001:00066280       srtp_unprotect_rtcp_mki    0000000140067280 f   libsrtp-x86_64-x64-vc14-release:srtp.obj
 0001:000667a0       srtp_crypto_alloc          00000001400677a0 f   libsrtp-x86_64-x64-vc14-release:alloc.obj
 0001:00066810       srtp_crypto_free           0000000140067810 f   libsrtp-x86_64-x64-vc14-release:alloc.obj
 0001:00066850       bitvector_alloc            0000000140067850 f   libsrtp-x86_64-x64-vc14-release:datatypes.obj
 0001:000668c0       bitvector_dealloc          00000001400678c0 f   libsrtp-x86_64-x64-vc14-release:datatypes.obj
 0001:000668f0       bitvector_left_shift       00000001400678f0 f   libsrtp-x86_64-x64-vc14-release:datatypes.obj
 0001:00066ac0       bitvector_set_to_zero      0000000140067ac0 f   libsrtp-x86_64-x64-vc14-release:datatypes.obj
 0001:00066ae0       octet_string_is_eq         0000000140067ae0 f   libsrtp-x86_64-x64-vc14-release:datatypes.obj
 0001:00066bb0       octet_string_set_to_zero   0000000140067bb0 f   libsrtp-x86_64-x64-vc14-release:datatypes.obj
 0001:00066bd0       srtp_octet_string_hex_string 0000000140067bd0 f   libsrtp-x86_64-x64-vc14-release:datatypes.obj
 0001:00066c90       v128_copy_octet_string     0000000140067c90 f   libsrtp-x86_64-x64-vc14-release:datatypes.obj
 0001:00066d00       v128_hex_string            0000000140067d00 f   libsrtp-x86_64-x64-vc14-release:datatypes.obj
 0001:00066ee0       v128_left_shift            0000000140067ee0 f   libsrtp-x86_64-x64-vc14-release:datatypes.obj
 0001:00067000       srtp_err_report            0000000140068000 f   libsrtp-x86_64-x64-vc14-release:srtp_err.obj
 0001:00067040       srtp_rdbx_add_index        0000000140068040 f   libsrtp-x86_64-x64-vc14-release:rdbx.obj
 0001:000670d0       srtp_rdbx_check            00000001400680d0 f   libsrtp-x86_64-x64-vc14-release:rdbx.obj
 0001:00067110       srtp_rdbx_dealloc          0000000140068110 f   libsrtp-x86_64-x64-vc14-release:rdbx.obj
 0001:00067130       srtp_rdbx_estimate_index   0000000140068130 f   libsrtp-x86_64-x64-vc14-release:rdbx.obj
 0001:000671d0       srtp_rdbx_init             00000001400681d0 f   libsrtp-x86_64-x64-vc14-release:rdbx.obj
 0001:00067210       srtp_rdbx_set_roc          0000000140068210 f   libsrtp-x86_64-x64-vc14-release:rdbx.obj
 0001:00067270       srtp_rdbx_set_roc_seq      0000000140068270 f   libsrtp-x86_64-x64-vc14-release:rdbx.obj
 0001:000672b0       srtp_rdb_add_index         00000001400682b0 f   libsrtp-x86_64-x64-vc14-release:rdb.obj
 0001:00067320       srtp_rdb_check             0000000140068320 f   libsrtp-x86_64-x64-vc14-release:rdb.obj
 0001:00067370       srtp_rdb_get_value         0000000140068370 f   libsrtp-x86_64-x64-vc14-release:rdb.obj
 0001:00067380       srtp_rdb_increment         0000000140068380 f   libsrtp-x86_64-x64-vc14-release:rdb.obj
 0001:000673a0       srtp_rdb_init              00000001400683a0 f   libsrtp-x86_64-x64-vc14-release:rdb.obj
 0001:000673b0       srtp_cipher_dealloc        00000001400683b0 f   libsrtp-x86_64-x64-vc14-release:cipher.obj
 0001:000673d0       srtp_cipher_decrypt        00000001400683d0 f   libsrtp-x86_64-x64-vc14-release:cipher.obj
 0001:000673f0       srtp_cipher_encrypt        00000001400683f0 f   libsrtp-x86_64-x64-vc14-release:cipher.obj
 0001:00067410       srtp_auth_get_tag_length   0000000140068410 f   libsrtp-x86_64-x64-vc14-release:auth.obj
 0001:00067410       srtp_cipher_get_key_length 0000000140068410 f   libsrtp-x86_64-x64-vc14-release:cipher.obj
 0001:00067420       srtp_cipher_get_tag        0000000140068420 f   libsrtp-x86_64-x64-vc14-release:cipher.obj
 0001:00067450       srtp_cipher_init           0000000140068450 f   libsrtp-x86_64-x64-vc14-release:cipher.obj
 0001:00067470       srtp_cipher_output         0000000140068470 f   libsrtp-x86_64-x64-vc14-release:cipher.obj
 0001:000674c0       srtp_cipher_set_aad        00000001400684c0 f   libsrtp-x86_64-x64-vc14-release:cipher.obj
 0001:000674f0       srtp_cipher_set_iv         00000001400684f0 f   libsrtp-x86_64-x64-vc14-release:cipher.obj
 0001:00067510       srtp_auth_get_key_length   0000000140068510 f   libsrtp-x86_64-x64-vc14-release:auth.obj
 0001:00067520       srtp_auth_get_prefix_length 0000000140068520 f   libsrtp-x86_64-x64-vc14-release:auth.obj
 0001:00067530       srtp_key_limit_clone       0000000140068530 f   libsrtp-x86_64-x64-vc14-release:key.obj
 0001:00067550       srtp_key_limit_set         0000000140068550 f   libsrtp-x86_64-x64-vc14-release:key.obj
 0001:00067570       srtp_key_limit_update      0000000140068570 f   libsrtp-x86_64-x64-vc14-release:key.obj
 0001:000675b0       srtp_crypto_kernel_alloc_auth 00000001400685b0 f   libsrtp-x86_64-x64-vc14-release:crypto_kernel.obj
 0001:00067610       srtp_crypto_kernel_alloc_cipher 0000000140068610 f   libsrtp-x86_64-x64-vc14-release:crypto_kernel.obj
 0001:00067670       srtp_ekt_alloc             0000000140068670 f   libsrtp-x86_64-x64-vc14-release:ekt.obj
 0001:00067680       srtp_ekt_octets_after_base_tag 0000000140068680 f   libsrtp-x86_64-x64-vc14-release:ekt.obj
 0001:000676a0       srtp_ekt_write_data        00000001400686a0 f   libsrtp-x86_64-x64-vc14-release:ekt.obj
 0001:00067850       srtp_stream_init_from_ekt  0000000140068850 f   libsrtp-x86_64-x64-vc14-release:ekt.obj
 0001:00068be0       srtp_aes_decrypt           0000000140069be0 f   libsrtp-x86_64-x64-vc14-release:aes.obj
 0001:00068d30       srtp_aes_encrypt           0000000140069d30 f   libsrtp-x86_64-x64-vc14-release:aes.obj
 0001:00068e80       srtp_aes_expand_decryption_key 0000000140069e80 f   libsrtp-x86_64-x64-vc14-release:aes.obj
 0001:000690b0       srtp_aes_expand_encryption_key 000000014006a0b0 f   libsrtp-x86_64-x64-vc14-release:aes.obj
 0001:000692c0       srtp_sha1_core             000000014006a2c0 f   libsrtp-x86_64-x64-vc14-release:sha1.obj
 0001:00069820       srtp_sha1_final            000000014006a820 f   libsrtp-x86_64-x64-vc14-release:sha1.obj
 0001:00069ed0       srtp_sha1_init             000000014006aed0 f   libsrtp-x86_64-x64-vc14-release:sha1.obj
 0001:00069f00       srtp_sha1_update           000000014006af00 f   libsrtp-x86_64-x64-vc14-release:sha1.obj
 0001:0006a01e       __WSAFDIsSet               000000014006b01e f   ws2_32:WS2_32.dll
 0001:0006a024       __GSHandlerCheck           000000014006b024 f   MSVCRT:gshandler.obj
 0001:0006a044       __GSHandlerCheckCommon     000000014006b044 f   MSVCRT:gshandler.obj
 0001:0006a0b0       __security_check_cookie    000000014006b0b0 f   MSVCRT:amdsecgs.obj
 0001:0006a330       mainCRTStartup             000000014006b330 f   MSVCRT:exe_main.obj
 0001:0006a344       __raise_securityfailure    000000014006b344 f   MSVCRT:gs_report.obj
 0001:0006a378       __report_gsfailure         000000014006b378 f   MSVCRT:gs_report.obj
 0001:0006a44c       __report_rangecheckfailure 000000014006b44c f   MSVCRT:gs_report.obj
 0001:0006a460       __report_securityfailure   000000014006b460 f   MSVCRT:gs_report.obj
 0001:0006a5e0       __isa_available_init       000000014006b5e0 f   MSVCRT:cpu_disp.obj
 0001:0006a7a0       _alloca_probe              000000014006b7a0 f   MSVCRT:chkstk.obj
 0001:0006a7a0       __chkstk                   000000014006b7a0 f   MSVCRT:chkstk.obj
 0001:0006a7f0       __scrt_acquire_startup_lock 000000014006b7f0 f   MSVCRT:utility.obj
 0001:0006a82c       __scrt_initialize_crt      000000014006b82c f   MSVCRT:utility.obj
 0001:0006a878       __scrt_initialize_onexit_tables 000000014006b878 f   MSVCRT:utility.obj
 0001:0006a904       __scrt_is_nonwritable_in_current_image 000000014006b904 f   MSVCRT:utility.obj
 0001:0006a99c       __scrt_release_startup_lock 000000014006b99c f   MSVCRT:utility.obj
 0001:0006a9c0       __scrt_uninitialize_crt    000000014006b9c0 f   MSVCRT:utility.obj
 0001:0006a9ec       _onexit                    000000014006b9ec f   MSVCRT:utility.obj
 0001:0006aa28       atexit                     000000014006ba28 f   MSVCRT:utility.obj
 0001:0006aa40       __security_init_cookie     000000014006ba40 f   MSVCRT:gs_support.obj
 0001:0006aaec       _get_startup_argv_mode     000000014006baec f   MSVCRT:argv_mode.obj
 0001:0006aaf4       _get_startup_file_mode     000000014006baf4 f   MSVCRT:file_mode.obj
 0001:0006aafc       ?__scrt_initialize_type_info@@YAXXZ 000000014006bafc f   MSVCRT:tncleanup.obj
 0001:0006ab0c       _should_initialize_environment 000000014006bb0c f   MSVCRT:env_mode.obj
 0001:0006ab0c       __acrt_uninitialize        000000014006bb0c f   MSVCRT:ucrt_stubs.obj
 0001:0006ab0c       __scrt_stub_for_acrt_uninitialize 000000014006bb0c f   MSVCRT:ucrt_stubs.obj
 0001:0006ab0c       __vcrt_initialize          000000014006bb0c f   MSVCRT:ucrt_stubs.obj
 0001:0006ab0c       __scrt_stub_for_acrt_initialize 000000014006bb0c f   MSVCRT:ucrt_stubs.obj
 0001:0006ab0c       __vcrt_uninitialize        000000014006bb0c f   MSVCRT:ucrt_stubs.obj
 0001:0006ab0c       __acrt_initialize          000000014006bb0c f   MSVCRT:ucrt_stubs.obj
 0001:0006ab10       _guard_check_icall_nop     000000014006bb10 f   MSVCRT:guard_support.obj
 0001:0006ab10       _initialize_denormal_control 000000014006bb10 f   MSVCRT:denormal_control.obj
 0001:0006ab10       _initialize_invalid_parameter_handler 000000014006bb10 f   MSVCRT:invalid_parameter_handler.obj
 0001:0006ab14       __scrt_initialize_default_local_stdio_options 000000014006bb14 f   MSVCRT:default_local_stdio_options.obj
 0001:0006ab30       __scrt_is_user_matherr_present 000000014006bb30 f   MSVCRT:matherr_detection.obj
 0001:0006ab3c       __scrt_get_dyn_tls_init_callback 000000014006bb3c f   MSVCRT:dyn_tls_init.obj
 0001:0006ab44       __scrt_get_dyn_tls_dtor_callback 000000014006bb44 f   MSVCRT:dyn_tls_dtor.obj
 0001:0006ab4c       __crt_debugger_hook        000000014006bb4c f   MSVCRT:utility_desktop.obj
 0001:0006ab54       __scrt_fastfail            000000014006bb54 f   MSVCRT:utility_desktop.obj
 0001:0006aca0       __scrt_initialize_mta      000000014006bca0 f   MSVCRT:utility_desktop.obj
 0001:0006aca8       __scrt_is_managed_app      000000014006bca8 f   MSVCRT:utility_desktop.obj
 0001:0006acfc       __scrt_set_unhandled_exception_filter 000000014006bcfc f   MSVCRT:utility_desktop.obj
 0001:0006ad0c       __scrt_unhandled_exception_filter 000000014006bd0c f   MSVCRT:utility_desktop.obj
 0001:0006ad68       _RTC_Initialize            000000014006bd68 f   MSVCRT:initsect.obj
 0001:0006ada4       _RTC_Terminate             000000014006bda4 f   MSVCRT:initsect.obj
 0001:0006ade0       __scrt_is_ucrt_dll_in_use  000000014006bde0 f   MSVCRT:ucrt_detection.obj
 0001:0006adf0       memcpy                     000000014006bdf0 f   vcruntime:VCRUNTIME140.dll
 0001:0006adf6       memset                     000000014006bdf6 f   vcruntime:VCRUNTIME140.dll
 0001:0006adfc       memchr                     000000014006bdfc f   vcruntime:VCRUNTIME140.dll
 0001:0006ae02       memcmp                     000000014006be02 f   vcruntime:VCRUNTIME140.dll
 0001:0006ae08       memmove                    000000014006be08 f   vcruntime:VCRUNTIME140.dll
 0001:0006ae0e       strchr                     000000014006be0e f   vcruntime:VCRUNTIME140.dll
 0001:0006ae14       longjmp                    000000014006be14 f   vcruntime:VCRUNTIME140.dll
 0001:0006ae1a       __C_specific_handler       000000014006be1a f   vcruntime:VCRUNTIME140.dll
 0001:0006ae20       _setjmp                    000000014006be20 f   vcruntime:VCRUNTIME140.dll
 0001:0006ae20       __intrinsic_setjmp         000000014006be20 f   vcruntime:VCRUNTIME140.dll
 0001:0006ae26       __current_exception        000000014006be26 f   vcruntime:VCRUNTIME140.dll
 0001:0006ae2c       __current_exception_context 000000014006be2c f   vcruntime:VCRUNTIME140.dll
 0001:0006ae32       cos                        000000014006be32 f   ucrt:api-ms-win-crt-math-l1-1-0.dll
 0001:0006ae38       fmod                       000000014006be38 f   ucrt:api-ms-win-crt-math-l1-1-0.dll
 0001:0006ae3e       exp                        000000014006be3e f   ucrt:api-ms-win-crt-math-l1-1-0.dll
 0001:0006ae44       floor                      000000014006be44 f   ucrt:api-ms-win-crt-math-l1-1-0.dll
 0001:0006ae4a       sqrt                       000000014006be4a f   ucrt:api-ms-win-crt-math-l1-1-0.dll
 0001:0006ae50       pow                        000000014006be50 f   ucrt:api-ms-win-crt-math-l1-1-0.dll
 0001:0006ae56       sin                        000000014006be56 f   ucrt:api-ms-win-crt-math-l1-1-0.dll
 0001:0006ae5c       log                        000000014006be5c f   ucrt:api-ms-win-crt-math-l1-1-0.dll
 0001:0006ae62       atan                       000000014006be62 f   ucrt:api-ms-win-crt-math-l1-1-0.dll
 0001:0006ae68       exit                       000000014006be68 f   ucrt:api-ms-win-crt-runtime-l1-1-0.dll
 0001:0006ae6e       _seh_filter_exe            000000014006be6e f   ucrt:api-ms-win-crt-runtime-l1-1-0.dll
 0001:0006ae74       _set_app_type              000000014006be74 f   ucrt:api-ms-win-crt-runtime-l1-1-0.dll
 0001:0006ae7a       __setusermatherr           000000014006be7a f   ucrt:api-ms-win-crt-math-l1-1-0.dll
 0001:0006ae80       _configure_narrow_argv     000000014006be80 f   ucrt:api-ms-win-crt-runtime-l1-1-0.dll
 0001:0006ae86       _initialize_narrow_environment 000000014006be86 f   ucrt:api-ms-win-crt-runtime-l1-1-0.dll
 0001:0006ae8c       _get_initial_narrow_environment 000000014006be8c f   ucrt:api-ms-win-crt-runtime-l1-1-0.dll
 0001:0006ae92       _initterm                  000000014006be92 f   ucrt:api-ms-win-crt-runtime-l1-1-0.dll
 0001:0006ae98       _initterm_e                000000014006be98 f   ucrt:api-ms-win-crt-runtime-l1-1-0.dll
 0001:0006ae9e       _exit                      000000014006be9e f   ucrt:api-ms-win-crt-runtime-l1-1-0.dll
 0001:0006aea4       _set_fmode                 000000014006bea4 f   ucrt:api-ms-win-crt-stdio-l1-1-0.dll
 0001:0006aeaa       __p___argc                 000000014006beaa f   ucrt:api-ms-win-crt-runtime-l1-1-0.dll
 0001:0006aeb0       __p___argv                 000000014006beb0 f   ucrt:api-ms-win-crt-runtime-l1-1-0.dll
 0001:0006aeb6       _cexit                     000000014006beb6 f   ucrt:api-ms-win-crt-runtime-l1-1-0.dll
 0001:0006aebc       _c_exit                    000000014006bebc f   ucrt:api-ms-win-crt-runtime-l1-1-0.dll
 0001:0006aec2       _register_thread_local_exe_atexit_callback 000000014006bec2 f   ucrt:api-ms-win-crt-runtime-l1-1-0.dll
 0001:0006aec8       _configthreadlocale        000000014006bec8 f   ucrt:api-ms-win-crt-locale-l1-1-0.dll
 0001:0006aece       _set_new_mode              000000014006bece f   ucrt:api-ms-win-crt-heap-l1-1-0.dll
 0001:0006aed4       __p__commode               000000014006bed4 f   ucrt:api-ms-win-crt-stdio-l1-1-0.dll
 0001:0006aeda       _initialize_onexit_table   000000014006beda f   ucrt:api-ms-win-crt-runtime-l1-1-0.dll
 0001:0006aee0       _register_onexit_function  000000014006bee0 f   ucrt:api-ms-win-crt-runtime-l1-1-0.dll
 0001:0006aee6       _crt_atexit                000000014006bee6 f   ucrt:api-ms-win-crt-runtime-l1-1-0.dll
 0001:0006aeec       terminate                  000000014006beec f   ucrt:api-ms-win-crt-runtime-l1-1-0.dll
 0001:0006af10       _guard_dispatch_icall_nop  000000014006bf10 f   MSVCRT:guard_dispatch.obj
 0001:0006af30       _guard_xfg_dispatch_icall_nop 000000014006bf30 f   MSVCRT:guard_xfg_dispatch.obj
 0002:00000000       __imp_GetModuleHandleW     000000014006c000     kernel32:KERNEL32.dll
 0002:00000008       __imp_IsDebuggerPresent    000000014006c008     kernel32:KERNEL32.dll
 0002:00000010       __imp_InitializeSListHead  000000014006c010     kernel32:KERNEL32.dll
 0002:00000018       __imp_GetSystemTimeAsFileTime 000000014006c018     kernel32:KERNEL32.dll
 0002:00000020       __imp_IsProcessorFeaturePresent 000000014006c020     kernel32:KERNEL32.dll
 0002:00000028       __imp_TerminateProcess     000000014006c028     kernel32:KERNEL32.dll
 0002:00000030       __imp_GetCurrentProcess    000000014006c030     kernel32:KERNEL32.dll
 0002:00000038       __imp_SetUnhandledExceptionFilter 000000014006c038     kernel32:KERNEL32.dll
 0002:00000040       __imp_UnhandledExceptionFilter 000000014006c040     kernel32:KERNEL32.dll
 0002:00000048       __imp_RtlVirtualUnwind     000000014006c048     kernel32:KERNEL32.dll
 0002:00000050       __imp_RtlLookupFunctionEntry 000000014006c050     kernel32:KERNEL32.dll
 0002:00000058       __imp_RtlCaptureContext    000000014006c058     kernel32:KERNEL32.dll
 0002:00000060       __imp_LoadLibraryA         000000014006c060     kernel32:KERNEL32.dll
 0002:00000068       __imp_GetProcAddress       000000014006c068     kernel32:KERNEL32.dll
 0002:00000070       __imp_FreeLibrary          000000014006c070     kernel32:KERNEL32.dll
 0002:00000078       __imp_FormatMessageA       000000014006c078     kernel32:KERNEL32.dll
 0002:00000080       __imp_QueryPerformanceFrequency 000000014006c080     kernel32:KERNEL32.dll
 0002:00000088       __imp_QueryPerformanceCounter 000000014006c088     kernel32:KERNEL32.dll
 0002:00000090       __imp_SystemTimeToFileTime 000000014006c090     kernel32:KERNEL32.dll
 0002:00000098       __imp_FileTimeToSystemTime 000000014006c098     kernel32:KERNEL32.dll
 0002:000000a0       __imp_GetLocalTime         000000014006c0a0     kernel32:KERNEL32.dll
 0002:000000a8       __imp_SetConsoleTextAttribute 000000014006c0a8     kernel32:KERNEL32.dll
 0002:000000b0       __imp_CreateSemaphoreA     000000014006c0b0     kernel32:KERNEL32.dll
 0002:000000b8       __imp_TlsFree              000000014006c0b8     kernel32:KERNEL32.dll
 0002:000000c0       __imp_TlsSetValue          000000014006c0c0     kernel32:KERNEL32.dll
 0002:000000c8       __imp_TlsGetValue          000000014006c0c8     kernel32:KERNEL32.dll
 0002:000000d0       __imp_TlsAlloc             000000014006c0d0     kernel32:KERNEL32.dll
 0002:000000d8       __imp_GetCurrentThreadId   000000014006c0d8     kernel32:KERNEL32.dll
 0002:000000e0       __imp_CreateThread         000000014006c0e0     kernel32:KERNEL32.dll
 0002:000000e8       __imp_GetCurrentProcessId  000000014006c0e8     kernel32:KERNEL32.dll
 0002:000000f0       __imp_Sleep                000000014006c0f0     kernel32:KERNEL32.dll
 0002:000000f8       __imp_WaitForSingleObject  000000014006c0f8     kernel32:KERNEL32.dll
 0002:00000100       __imp_ReleaseSemaphore     000000014006c100     kernel32:KERNEL32.dll
 0002:00000108       __imp_DeleteCriticalSection 000000014006c108     kernel32:KERNEL32.dll
 0002:00000110       __imp_TryEnterCriticalSection 000000014006c110     kernel32:KERNEL32.dll
 0002:00000118       __imp_LeaveCriticalSection 000000014006c118     kernel32:KERNEL32.dll
 0002:00000120       __imp_EnterCriticalSection 000000014006c120     kernel32:KERNEL32.dll
 0002:00000128       __imp_InitializeCriticalSection 000000014006c128     kernel32:KERNEL32.dll
 0002:00000130       __imp_GetLastError         000000014006c130     kernel32:KERNEL32.dll
 0002:00000138       __imp_GetStdHandle         000000014006c138     kernel32:KERNEL32.dll
 0002:00000140       __imp_SetThreadPriority    000000014006c140     kernel32:KERNEL32.dll
 0002:00000148       __imp_GetCurrentThread     000000014006c148     kernel32:KERNEL32.dll
 0002:00000150       __imp_WaitForMultipleObjects 000000014006c150     kernel32:KERNEL32.dll
 0002:00000158       __imp_CreateEventA         000000014006c158     kernel32:KERNEL32.dll
 0002:00000160       __imp_SetEvent             000000014006c160     kernel32:KERNEL32.dll
 0002:00000168       __imp_CloseHandle          000000014006c168     kernel32:KERNEL32.dll
 0002:00000170       \177KERNEL32_NULL_THUNK_DATA 000000014006c170     kernel32:KERNEL32.dll
 0002:00000178       __imp___current_exception  000000014006c178     vcruntime:VCRUNTIME140.dll
 0002:00000180       __imp_memcpy               000000014006c180     vcruntime:VCRUNTIME140.dll
 0002:00000188       __imp_memset               000000014006c188     vcruntime:VCRUNTIME140.dll
 0002:00000190       __imp_memchr               000000014006c190     vcruntime:VCRUNTIME140.dll
 0002:00000198       __imp_memcmp               000000014006c198     vcruntime:VCRUNTIME140.dll
 0002:000001a0       __imp___intrinsic_setjmp   000000014006c1a0     vcruntime:VCRUNTIME140.dll
 0002:000001a8       __imp_memmove              000000014006c1a8     vcruntime:VCRUNTIME140.dll
 0002:000001b0       __imp_strchr               000000014006c1b0     vcruntime:VCRUNTIME140.dll
 0002:000001b8       __imp_longjmp              000000014006c1b8     vcruntime:VCRUNTIME140.dll
 0002:000001c0       __imp___C_specific_handler 000000014006c1c0     vcruntime:VCRUNTIME140.dll
 0002:000001c8       __imp___current_exception_context 000000014006c1c8     vcruntime:VCRUNTIME140.dll
 0002:000001d0       \177VCRUNTIME140_NULL_THUNK_DATA 000000014006c1d0     vcruntime:VCRUNTIME140.dll
 0002:000001d8       __imp_waveOutWrite         000000014006c1d8     winmm:WINMM.dll
 0002:000001e0       __imp_waveOutUnprepareHeader 000000014006c1e0     winmm:WINMM.dll
 0002:000001e8       __imp_waveOutPrepareHeader 000000014006c1e8     winmm:WINMM.dll
 0002:000001f0       __imp_waveOutClose         000000014006c1f0     winmm:WINMM.dll
 0002:000001f8       __imp_waveOutOpen          000000014006c1f8     winmm:WINMM.dll
 0002:00000200       __imp_waveOutRestart       000000014006c200     winmm:WINMM.dll
 0002:00000208       __imp_waveOutGetVolume     000000014006c208     winmm:WINMM.dll
 0002:00000210       __imp_waveOutGetDevCapsA   000000014006c210     winmm:WINMM.dll
 0002:00000218       __imp_waveOutGetNumDevs    000000014006c218     winmm:WINMM.dll
 0002:00000220       __imp_waveInGetErrorTextA  000000014006c220     winmm:WINMM.dll
 0002:00000228       __imp_waveOutGetErrorTextA 000000014006c228     winmm:WINMM.dll
 0002:00000230       __imp_waveOutPause         000000014006c230     winmm:WINMM.dll
 0002:00000238       __imp_waveOutReset         000000014006c238     winmm:WINMM.dll
 0002:00000240       __imp_waveInGetNumDevs     000000014006c240     winmm:WINMM.dll
 0002:00000248       __imp_waveInGetDevCapsA    000000014006c248     winmm:WINMM.dll
 0002:00000250       __imp_waveInOpen           000000014006c250     winmm:WINMM.dll
 0002:00000258       __imp_waveInReset          000000014006c258     winmm:WINMM.dll
 0002:00000260       __imp_waveInStop           000000014006c260     winmm:WINMM.dll
 0002:00000268       __imp_waveInStart          000000014006c268     winmm:WINMM.dll
 0002:00000270       __imp_waveInAddBuffer      000000014006c270     winmm:WINMM.dll
 0002:00000278       __imp_waveInUnprepareHeader 000000014006c278     winmm:WINMM.dll
 0002:00000280       __imp_waveInPrepareHeader  000000014006c280     winmm:WINMM.dll
 0002:00000288       __imp_waveInClose          000000014006c288     winmm:WINMM.dll
 0002:00000290       __imp_waveOutSetVolume     000000014006c290     winmm:WINMM.dll
 0002:00000298       \177WINMM_NULL_THUNK_DATA  000000014006c298     winmm:WINMM.dll
 0002:000002a0       __imp_send                 000000014006c2a0     ws2_32:WS2_32.dll
 0002:000002a8       __imp_recvfrom             000000014006c2a8     ws2_32:WS2_32.dll
 0002:000002b0       __imp_recv                 000000014006c2b0     ws2_32:WS2_32.dll
 0002:000002b8       __imp_ntohs                000000014006c2b8     ws2_32:WS2_32.dll
 0002:000002c0       __imp_setsockopt           000000014006c2c0     ws2_32:WS2_32.dll
 0002:000002c8       __imp_ntohl                000000014006c2c8     ws2_32:WS2_32.dll
 0002:000002d0       __imp_inet_addr            000000014006c2d0     ws2_32:WS2_32.dll
 0002:000002d8       __imp_htons                000000014006c2d8     ws2_32:WS2_32.dll
 0002:000002e0       __imp_htonl                000000014006c2e0     ws2_32:WS2_32.dll
 0002:000002e8       __imp_getsockopt           000000014006c2e8     ws2_32:WS2_32.dll
 0002:000002f0       __imp_getsockname          000000014006c2f0     ws2_32:WS2_32.dll
 0002:000002f8       __imp_connect              000000014006c2f8     ws2_32:WS2_32.dll
 0002:00000300       __imp_closesocket          000000014006c300     ws2_32:WS2_32.dll
 0002:00000308       __imp_bind                 000000014006c308     ws2_32:WS2_32.dll
 0002:00000310       __imp_accept               000000014006c310     ws2_32:WS2_32.dll
 0002:00000318       __imp_WSAGetLastError      000000014006c318     ws2_32:WS2_32.dll
 0002:00000320       __imp_WSAStartup           000000014006c320     ws2_32:WS2_32.dll
 0002:00000328       __imp_gethostname          000000014006c328     ws2_32:WS2_32.dll
 0002:00000330       __imp_WSAIoctl             000000014006c330     ws2_32:WS2_32.dll
 0002:00000338       __imp_WSASocketA           000000014006c338     ws2_32:WS2_32.dll
 0002:00000340       __imp_WSAAddressToStringA  000000014006c340     ws2_32:WS2_32.dll
 0002:00000348       __imp_WSAStringToAddressA  000000014006c348     ws2_32:WS2_32.dll
 0002:00000350       __imp_ioctlsocket          000000014006c350     ws2_32:WS2_32.dll
 0002:00000358       __imp_gethostbyname        000000014006c358     ws2_32:WS2_32.dll
 0002:00000360       __imp___WSAFDIsSet         000000014006c360     ws2_32:WS2_32.dll
 0002:00000368       __imp_select               000000014006c368     ws2_32:WS2_32.dll
 0002:00000370       __imp_sendto               000000014006c370     ws2_32:WS2_32.dll
 0002:00000378       \177WS2_32_NULL_THUNK_DATA 000000014006c378     ws2_32:WS2_32.dll
 0002:00000380       __imp_strtol               000000014006c380     ucrt:api-ms-win-crt-convert-l1-1-0.dll
 0002:00000388       \177api-ms-win-crt-convert-l1-1-0_NULL_THUNK_DATA 000000014006c388     ucrt:api-ms-win-crt-convert-l1-1-0.dll
 0002:00000390       __imp_malloc               000000014006c390     ucrt:api-ms-win-crt-heap-l1-1-0.dll
 0002:00000398       __imp__set_new_mode        000000014006c398     ucrt:api-ms-win-crt-heap-l1-1-0.dll
 0002:000003a0       __imp_free                 000000014006c3a0     ucrt:api-ms-win-crt-heap-l1-1-0.dll
 0002:000003a8       __imp_calloc               000000014006c3a8     ucrt:api-ms-win-crt-heap-l1-1-0.dll
 0002:000003b0       \177api-ms-win-crt-heap-l1-1-0_NULL_THUNK_DATA 000000014006c3b0     ucrt:api-ms-win-crt-heap-l1-1-0.dll
 0002:000003b8       __imp__configthreadlocale  000000014006c3b8     ucrt:api-ms-win-crt-locale-l1-1-0.dll
 0002:000003c0       \177api-ms-win-crt-locale-l1-1-0_NULL_THUNK_DATA 000000014006c3c0     ucrt:api-ms-win-crt-locale-l1-1-0.dll
 0002:000003c8       __imp_exp                  000000014006c3c8     ucrt:api-ms-win-crt-math-l1-1-0.dll
 0002:000003d0       __imp_atan                 000000014006c3d0     ucrt:api-ms-win-crt-math-l1-1-0.dll
 0002:000003d8       __imp_cos                  000000014006c3d8     ucrt:api-ms-win-crt-math-l1-1-0.dll
 0002:000003e0       __imp_log                  000000014006c3e0     ucrt:api-ms-win-crt-math-l1-1-0.dll
 0002:000003e8       __imp_sin                  000000014006c3e8     ucrt:api-ms-win-crt-math-l1-1-0.dll
 0002:000003f0       __imp_pow                  000000014006c3f0     ucrt:api-ms-win-crt-math-l1-1-0.dll
 0002:000003f8       __imp_sqrt                 000000014006c3f8     ucrt:api-ms-win-crt-math-l1-1-0.dll
 0002:00000400       __imp_floor                000000014006c400     ucrt:api-ms-win-crt-math-l1-1-0.dll
 0002:00000408       __imp___setusermatherr     000000014006c408     ucrt:api-ms-win-crt-math-l1-1-0.dll
 0002:00000410       __imp_fmod                 000000014006c410     ucrt:api-ms-win-crt-math-l1-1-0.dll
 0002:00000418       \177api-ms-win-crt-math-l1-1-0_NULL_THUNK_DATA 000000014006c418     ucrt:api-ms-win-crt-math-l1-1-0.dll
 0002:00000420       __imp__c_exit              000000014006c420     ucrt:api-ms-win-crt-runtime-l1-1-0.dll
 0002:00000428       __imp__register_thread_local_exe_atexit_callback 000000014006c428     ucrt:api-ms-win-crt-runtime-l1-1-0.dll
 0002:00000430       __imp__initialize_onexit_table 000000014006c430     ucrt:api-ms-win-crt-runtime-l1-1-0.dll
 0002:00000438       __imp__register_onexit_function 000000014006c438     ucrt:api-ms-win-crt-runtime-l1-1-0.dll
 0002:00000440       __imp__crt_atexit          000000014006c440     ucrt:api-ms-win-crt-runtime-l1-1-0.dll
 0002:00000448       __imp_terminate            000000014006c448     ucrt:api-ms-win-crt-runtime-l1-1-0.dll
 0002:00000450       __imp__cexit               000000014006c450     ucrt:api-ms-win-crt-runtime-l1-1-0.dll
 0002:00000458       __imp___p___argv           000000014006c458     ucrt:api-ms-win-crt-runtime-l1-1-0.dll
 0002:00000460       __imp_exit                 000000014006c460     ucrt:api-ms-win-crt-runtime-l1-1-0.dll
 0002:00000468       __imp__seh_filter_exe      000000014006c468     ucrt:api-ms-win-crt-runtime-l1-1-0.dll
 0002:00000470       __imp__set_app_type        000000014006c470     ucrt:api-ms-win-crt-runtime-l1-1-0.dll
 0002:00000478       __imp__get_initial_narrow_environment 000000014006c478     ucrt:api-ms-win-crt-runtime-l1-1-0.dll
 0002:00000480       __imp__configure_narrow_argv 000000014006c480     ucrt:api-ms-win-crt-runtime-l1-1-0.dll
 0002:00000488       __imp__initialize_narrow_environment 000000014006c488     ucrt:api-ms-win-crt-runtime-l1-1-0.dll
 0002:00000490       __imp___p___argc           000000014006c490     ucrt:api-ms-win-crt-runtime-l1-1-0.dll
 0002:00000498       __imp__initterm            000000014006c498     ucrt:api-ms-win-crt-runtime-l1-1-0.dll
 0002:000004a0       __imp__initterm_e          000000014006c4a0     ucrt:api-ms-win-crt-runtime-l1-1-0.dll
 0002:000004a8       __imp__exit                000000014006c4a8     ucrt:api-ms-win-crt-runtime-l1-1-0.dll
 0002:000004b0       \177api-ms-win-crt-runtime-l1-1-0_NULL_THUNK_DATA 000000014006c4b0     ucrt:api-ms-win-crt-runtime-l1-1-0.dll
 0002:000004b8       __imp__set_fmode           000000014006c4b8     ucrt:api-ms-win-crt-stdio-l1-1-0.dll
 0002:000004c0       __imp___stdio_common_vsprintf 000000014006c4c0     ucrt:api-ms-win-crt-stdio-l1-1-0.dll
 0002:000004c8       __imp___acrt_iob_func      000000014006c4c8     ucrt:api-ms-win-crt-stdio-l1-1-0.dll
 0002:000004d0       __imp___stdio_common_vfprintf 000000014006c4d0     ucrt:api-ms-win-crt-stdio-l1-1-0.dll
 0002:000004d8       __imp___p__commode         000000014006c4d8     ucrt:api-ms-win-crt-stdio-l1-1-0.dll
 0002:000004e0       \177api-ms-win-crt-stdio-l1-1-0_NULL_THUNK_DATA 000000014006c4e0     ucrt:api-ms-win-crt-stdio-l1-1-0.dll
 0002:000004e8       __imp_strncpy              000000014006c4e8     ucrt:api-ms-win-crt-string-l1-1-0.dll
 0002:000004f0       __imp_toupper              000000014006c4f0     ucrt:api-ms-win-crt-string-l1-1-0.dll
 0002:000004f8       __imp_isspace              000000014006c4f8     ucrt:api-ms-win-crt-string-l1-1-0.dll
 0002:00000500       __imp_tolower              000000014006c500     ucrt:api-ms-win-crt-string-l1-1-0.dll
 0002:00000508       __imp__strnicmp            000000014006c508     ucrt:api-ms-win-crt-string-l1-1-0.dll
 0002:00000510       __imp_isxdigit             000000014006c510     ucrt:api-ms-win-crt-string-l1-1-0.dll
 0002:00000518       __imp_strncmp              000000014006c518     ucrt:api-ms-win-crt-string-l1-1-0.dll
 0002:00000520       __imp__stricmp             000000014006c520     ucrt:api-ms-win-crt-string-l1-1-0.dll
 0002:00000528       __imp_isdigit              000000014006c528     ucrt:api-ms-win-crt-string-l1-1-0.dll
 0002:00000530       \177api-ms-win-crt-string-l1-1-0_NULL_THUNK_DATA 000000014006c530     ucrt:api-ms-win-crt-string-l1-1-0.dll
 0002:00000538       __imp_rand                 000000014006c538     ucrt:api-ms-win-crt-utility-l1-1-0.dll
 0002:00000540       \177api-ms-win-crt-utility-l1-1-0_NULL_THUNK_DATA 000000014006c540     ucrt:api-ms-win-crt-utility-l1-1-0.dll
 0002:00000548       __imp_CoCreateGuid         000000014006c548     ole32:ole32.dll
 0002:00000550       \177ole32_NULL_THUNK_DATA  000000014006c550     ole32:ole32.dll
 0002:00000558       __guard_check_icall_fptr   000000014006c558     MSVCRT:guard_support.obj
 0002:00000560       __guard_xfg_check_icall_fptr 000000014006c560     MSVCRT:guard_support.obj
 0002:00000568       __guard_dispatch_icall_fptr 000000014006c568     MSVCRT:guard_support.obj
 0002:00000570       __guard_xfg_dispatch_icall_fptr 000000014006c570     MSVCRT:guard_support.obj
 0002:00000578       __guard_xfg_table_dispatch_icall_fptr 000000014006c578     MSVCRT:guard_support.obj
 0002:00000580       __xc_a                     000000014006c580     MSVCRT:initializers.obj
 0002:00000590       __xc_z                     000000014006c590     MSVCRT:initializers.obj
 0002:00000598       __xi_a                     000000014006c598     MSVCRT:initializers.obj
 0002:000005b0       __xi_z                     000000014006c5b0     MSVCRT:initializers.obj
 0002:000005b8       __xp_a                     000000014006c5b8     MSVCRT:initializers.obj
 0002:000005c0       __xp_z                     000000014006c5c0     MSVCRT:initializers.obj
 0002:000005c8       __xt_a                     000000014006c5c8     MSVCRT:initializers.obj
 0002:000005d0       __xt_z                     000000014006c5d0     MSVCRT:initializers.obj
 0002:000005e0       ??_C@_04HIBGFPH@NULL@      000000014006c5e0     pjsip-ua-x86_64-x64-vc14-release:sip_inv.obj
 0002:000005e8       ??_C@_07BJAKIKLF@CALLING@  000000014006c5e8     pjsip-ua-x86_64-x64-vc14-release:sip_inv.obj
 0002:000005f0       ??_C@_08FPHOKLMI@INCOMING@ 000000014006c5f0     pjsip-ua-x86_64-x64-vc14-release:sip_inv.obj
 0002:000005fc       ??_C@_05HMGOBOK@EARLY@     000000014006c5fc     pjsip-ua-x86_64-x64-vc14-release:sip_inv.obj
 0002:00000608       ??_C@_0L@OPGIEADC@CONNECTING@ 000000014006c608     pjsip-ua-x86_64-x64-vc14-release:sip_inv.obj
 0002:00000618       ??_C@_09JCKBPFKF@CONFIRMED@ 000000014006c618     pjsip-ua-x86_64-x64-vc14-release:sip_inv.obj
 0002:00000628       ??_C@_0L@GKFIMDLD@DISCONNCTD@ 000000014006c628     pjsip-ua-x86_64-x64-vc14-release:sip_inv.obj
 0002:00000638       ??_C@_0L@ONMJOFAN@TERMINATED@ 000000014006c638     pjsip-ua-x86_64-x64-vc14-release:sip_inv.obj
 0002:00000660       ??_C@_06HHJABCJL@UPDATE@   000000014006c660     pjsip-ua-x86_64-x64-vc14-release:sip_inv.obj
 0002:00000668       ??_C@_0L@BLDGPIGK@mod?9invite@ 000000014006c668     pjsip-ua-x86_64-x64-vc14-release:sip_inv.obj
 0002:00000674       ??_C@_06DBKGGLMH@INVITE@   000000014006c674     pjsip-ua-x86_64-x64-vc14-release:sip_inv.obj
 0002:0000067c       ??_C@_03JMECLKOM@ACK@      000000014006c67c     pjsip-ua-x86_64-x64-vc14-release:sip_inv.obj
 0002:00000680       ??_C@_03BMFBOCK@BYE@       000000014006c680     pjsip-ua-x86_64-x64-vc14-release:sip_inv.obj
 0002:00000684       ??_C@_06JHILMIHF@CANCEL@   000000014006c684     pjsip-ua-x86_64-x64-vc14-release:sip_inv.obj
 0002:00000690       ??_C@_0BA@MJOOLNNM@application?1sdp@ 000000014006c690     pjsip-ua-x86_64-x64-vc14-release:sip_inv.obj
 0002:000006a0       ??_C@_0BE@OEKCNCCE@Sending?5pending?5BYE@ 000000014006c6a0     pjsip-ua-x86_64-x64-vc14-release:sip_inv.obj
 0002:000006b8       ??_C@_0BL@KNCDOFEH@Failed?5sending?5pending?5BYE@ 000000014006c6b8     pjsip-ua-x86_64-x64-vc14-release:sip_inv.obj
 0002:000006d8       ??_C@_0BJ@DIELNPDA@Received?5?$CFs?0?5sending?5ACK@ 000000014006c6d8     pjsip-ua-x86_64-x64-vc14-release:sip_inv.obj
 0002:000006f8       ??_C@_0CM@GCDEGPO@Received?5?$CFs?0?5notifying?5applicat@ 000000014006c6f8     pjsip-ua-x86_64-x64-vc14-release:sip_inv.obj
 0002:00000728       ??_C@_09LDKIKNFD@sip_inv?4c@ 000000014006c728     pjsip-ua-x86_64-x64-vc14-release:sip_inv.obj
 0002:00000734       ??_C@_04JBGCGIBB@sips@     000000014006c734     pjsip-ua-x86_64-x64-vc14-release:sip_inv.obj
 0002:0000073c       ??_C@_03MPAIKGMI@sip@      000000014006c73c     pjsip-ua-x86_64-x64-vc14-release:sip_inv.obj
 0002:00000740       ??_C@_03HPDJAPFJ@tls@      000000014006c740     pjsip-ua-x86_64-x64-vc14-release:sip_inv.obj
 0002:00000748       ??_C@_0O@BCIKELEF@SIPS?5Required@ 000000014006c748     pjsip-ua-x86_64-x64-vc14-release:sip_inv.obj
 0002:00000758       ??_C@_05MMFAAGKE@early@    000000014006c758     pjsip-ua-x86_64-x64-vc14-release:sip_inv.obj
 0002:00000760       ??_C@_05FPBGKCKL@final@    000000014006c760     pjsip-ua-x86_64-x64-vc14-release:sip_inv.obj
 0002:00000770       ??_C@_0FN@JNKNAMO@Received?5?$CFs?5response?5after?5SDP?5@ 000000014006c770     pjsip-ua-x86_64-x64-vc14-release:sip_inv.obj
 0002:000007d0       ??_C@_0EA@DMMNFDGN@Error?5updating?5local?5offer?5for?5@ 000000014006c7d0     pjsip-ua-x86_64-x64-vc14-release:sip_inv.obj
 0002:00000810       ??_C@_0CO@JFCENHLK@SDP?5negotiation?5done?0?5message?5b@ 000000014006c810     pjsip-ua-x86_64-x64-vc14-release:sip_inv.obj
 0002:00000840       ??_C@_0BI@BGFFELKE@Error?5parsing?5SDP?5in?5?$CFs@ 000000014006c840     pjsip-ua-x86_64-x64-vc14-release:sip_inv.obj
 0002:00000858       ??_C@_0BE@EPLINLEA@Got?5SDP?5offer?5in?5?$CFs@ 000000014006c858     pjsip-ua-x86_64-x64-vc14-release:sip_inv.obj
 0002:00000870       ??_C@_0CA@NKIPLGEL@Error?5processing?5SDP?5offer?5in?5?$CF@ 000000014006c870     pjsip-ua-x86_64-x64-vc14-release:sip_inv.obj
 0002:00000890       ??_C@_0EG@MIAPKNNJ@Ignoring?5on_rx_offer?$CI?$CJ?5status?5b@ 000000014006c890     pjsip-ua-x86_64-x64-vc14-release:sip_inv.obj
 0002:000008d8       ??_C@_0BF@NJIJAPGF@Got?5SDP?5answer?5in?5?$CFs@ 000000014006c8d8     pjsip-ua-x86_64-x64-vc14-release:sip_inv.obj
 0002:000008f0       ??_C@_0CC@MICCHKNP@Error?5processing?5SDP?5answer?5in?5@ 000000014006c8f0     pjsip-ua-x86_64-x64-vc14-release:sip_inv.obj
 0002:00000918       ??_C@_0CK@CNMHAOHC@Ignored?5SDP?5in?5?$CFs?3?5negotiator?5s@ 000000014006c918     pjsip-ua-x86_64-x64-vc14-release:sip_inv.obj
 0002:00000948       ??_C@_0DG@BKONCIHK@Ignored?5message?5body?5in?5?$CFs?5as?5n@ 000000014006c948     pjsip-ua-x86_64-x64-vc14-release:sip_inv.obj
 0002:00000980       ??_C@_0FL@EKGBDOF@Secure?5dialog?5requires?5SIPS?5sch@ 000000014006c980     pjsip-ua-x86_64-x64-vc14-release:sip_inv.obj
 0002:000009e0       ??_C@_0FH@KHNGIOMA@Secure?5dialog?5requires?5SIPS?5sch@ 000000014006c9e0     pjsip-ua-x86_64-x64-vc14-release:sip_inv.obj
 0002:00000a38       ??_C@_0CH@BBKLGGDE@Another?5INVITE?5transaction?5in?5p@ 000000014006ca38     pjsip-ua-x86_64-x64-vc14-release:sip_inv.obj
 0002:00000a60       ??_C@_0BM@KEOGGKDD@on_rx_reinvite?$CI?$CJ?5returns?5?$CFd@ 000000014006ca60     pjsip-ua-x86_64-x64-vc14-release:sip_inv.obj
 0002:00000a80       ??_C@_0BH@GJLJMANH@SDP?5negotiation?5failed@ 000000014006ca80     pjsip-ua-x86_64-x64-vc14-release:sip_inv.obj
 0002:00000a98       ??_C@_0DA@CNKPLCJK@SDP?5offer?1answer?5incomplete?0?5en@ 000000014006ca98     pjsip-ua-x86_64-x64-vc14-release:sip_inv.obj
 0002:00000ac8       ??_C@_0BF@HOOGIPCC@Normal?5call?5clearing@ 000000014006cac8     pjsip-ua-x86_64-x64-vc14-release:sip_inv.obj
 0002:00000ae0       ??_C@_03MHNADFJL@sdp@      000000014006cae0     pjsip-ua-x86_64-x64-vc14-release:sip_inv.obj
 0002:00000ae8       ??_C@_0M@MBDKLJIJ@application@ 000000014006cae8     pjsip-ua-x86_64-x64-vc14-release:sip_inv.obj
 0002:00000af8       ??_C@_09FEKOPBOI@multipart@ 000000014006caf8     pjsip-ua-x86_64-x64-vc14-release:sip_inv.obj
 0002:00000b04       ??_C@_05IPHDHIPP@mixed@    000000014006cb04     pjsip-ua-x86_64-x64-vc14-release:sip_inv.obj
 0002:00000b10       ??_C@_0M@HAJLPECN@alternative@ 000000014006cb10     pjsip-ua-x86_64-x64-vc14-release:sip_inv.obj
 0002:00000b1c       ??_C@_02HHFHKOHM@?$DP?$DP@ 000000014006cb1c     pjsip-ua-x86_64-x64-vc14-release:sip_inv.obj
 0002:00000b20       ??_C@_05BICJMLFP@inv?$CFp@ 000000014006cb20     pjsip-ua-x86_64-x64-vc14-release:sip_inv.obj
 0002:00000b28       ??_C@_0CJ@HLKGBANI@UAC?5invite?5session?5created?5for?5@ 000000014006cb28     pjsip-ua-x86_64-x64-vc14-release:sip_inv.obj
 0002:00000b58       ??_C@_0CC@MAIPFFMN@Error?5parsing?1validating?5SDP?5bo@ 000000014006cb58     pjsip-ua-x86_64-x64-vc14-release:sip_inv.obj
 0002:00000b80       ??_C@_0BL@BJMNFGKN@Bad?1missing?5Contact?5header@ 000000014006cb80     pjsip-ua-x86_64-x64-vc14-release:sip_inv.obj
 0002:00000b9c       ??_C@_06IPLOHEDL@100rel@   000000014006cb9c     pjsip-ua-x86_64-x64-vc14-release:sip_inv.obj
 0002:00000ba4       ??_C@_05NAPFDJNG@timer@    000000014006cba4     pjsip-ua-x86_64-x64-vc14-release:sip_inv.obj
 0002:00000bac       ??_C@_03MKIOHCPB@ice@      000000014006cbac     pjsip-ua-x86_64-x64-vc14-release:sip_inv.obj
 0002:00000bb0       ??_C@_08LDJJEDJ@replaces@  000000014006cbb0     pjsip-ua-x86_64-x64-vc14-release:sip_inv.obj
 0002:00000bc0       ??_C@_0CJ@EIBALPMO@UAS?5invite?5session?5created?5for?5@ 000000014006cbc0     pjsip-ua-x86_64-x64-vc14-release:sip_inv.obj
 0002:00000bec       ??_C@_05ECJJFAAP@PRACK@    000000014006cbec     pjsip-ua-x86_64-x64-vc14-release:sip_inv.obj
 0002:00000bf8       ??_C@_0BF@KBACJJBP@SDP?5negotiation?5done@ 000000014006cbf8     pjsip-ua-x86_64-x64-vc14-release:sip_inv.obj
 0002:00000c10       ??_C@_0BC@DKICHHDF@Initial?5answer?5?$CFs@ 000000014006cc10     pjsip-ua-x86_64-x64-vc14-release:sip_inv.obj
 0002:00000c28       ??_C@_0DO@HEALFLEC@Delaying?5CANCEL?5since?5no?5provis@ 000000014006cc28     pjsip-ua-x86_64-x64-vc14-release:sip_inv.obj
 0002:00000c68       ??_C@_0BI@DIMJOHLK@?$DM?9error?3?5uri?5too?5long?9?$DO@ 000000014006cc68     pjsip-ua-x86_64-x64-vc14-release:sip_inv.obj
 0002:00000c80       ??_C@_07PMMFKIFM@Contact@  000000014006cc80     pjsip-ua-x86_64-x64-vc14-release:sip_inv.obj
 0002:00000c88       ??_C@_0CK@INPGLEAA@Invalid?5SDP?5offer?1answer?5state?5@ 000000014006cc88     pjsip-ua-x86_64-x64-vc14-release:sip_inv.obj
 0002:00000cb8       ??_C@_0L@BPIOADDE@Sending?5?$CFs@ 000000014006ccb8     pjsip-ua-x86_64-x64-vc14-release:sip_inv.obj
 0002:00000cc8       ??_C@_0CL@IIMHLPDD@Delaying?5BYE?5request?5until?5ACK?5@ 000000014006ccc8     pjsip-ua-x86_64-x64-vc14-release:sip_inv.obj
 0002:00000d28       pjsip_prack_method         000000014006cd28     pjsip-ua-x86_64-x64-vc14-release:sip_100rel.obj
 0002:00000d40       ??_C@_04NKIOHFHJ@RSeq@     000000014006cd40     pjsip-ua-x86_64-x64-vc14-release:sip_100rel.obj
 0002:00000d48       ??_C@_04JEDOGMAE@RAck@     000000014006cd48     pjsip-ua-x86_64-x64-vc14-release:sip_100rel.obj
 0002:00000d50       ??_C@_0L@KBAFDJEE@mod?9100rel@ 000000014006cd50     pjsip-ua-x86_64-x64-vc14-release:sip_100rel.obj
 0002:00000d60       ??_C@_0BH@ONPFCEOK@100rel?5module?5attached@ 000000014006cd60     pjsip-ua-x86_64-x64-vc14-release:sip_100rel.obj
 0002:00000d78       ??_C@_0CN@FOEJAHIE@Ignoring?5100rel?5response?5with?5n@ 000000014006cd78     pjsip-ua-x86_64-x64-vc14-release:sip_100rel.obj
 0002:00000db0       ??_C@_0EC@BLMHGGJH@Ignoring?5100rel?5response?5becaus@ 000000014006cdb0     pjsip-ua-x86_64-x64-vc14-release:sip_100rel.obj
 0002:00000df8       ??_C@_0DL@FCLLNCLO@Ignoring?5100rel?5response?5with?5n@ 000000014006cdf8     pjsip-ua-x86_64-x64-vc14-release:sip_100rel.obj
 0002:00000e38       ??_C@_0L@IBEMKGAL@?$CFu?5?$CFu?5?$CF?4?$CKs@ 000000014006ce38     pjsip-ua-x86_64-x64-vc14-release:sip_100rel.obj
 0002:00000e48       ??_C@_0BB@IEDINMFC@Unexpected?5PRACK@ 000000014006ce48     pjsip-ua-x86_64-x64-vc14-release:sip_100rel.obj
 0002:00000e60       ??_C@_0CE@PLNFEICH@PRACK?5ignored?5?9?5no?5pending?5resp@ 000000014006ce60     pjsip-ua-x86_64-x64-vc14-release:sip_100rel.obj
 0002:00000e88       ??_C@_0P@BPOGJPKH@No?5RAck?5header@ 000000014006ce88     pjsip-ua-x86_64-x64-vc14-release:sip_100rel.obj
 0002:00000e98       ??_C@_0CM@DOMMHELC@Rx?5PRACK?5with?5no?5matching?5relia@ 000000014006ce98     pjsip-ua-x86_64-x64-vc14-release:sip_100rel.obj
 0002:00000ec8       ??_C@_0BM@HPALGIGM@Reliable?5response?5timed?5out@ 000000014006cec8     pjsip-ua-x86_64-x64-vc14-release:sip_100rel.obj
 0002:00000ef0       ??_C@_0IB@EEAMMPCM@C?3?2Users?2WerBinIch?2Documents?2gi@ 000000014006cef0     pjsip-ua-x86_64-x64-vc14-release:sip_100rel.obj
 0002:00000f78       ??_C@_0CG@JIMKEDOL@2xx?5response?5will?5be?5sent?5after@ 000000014006cf78     pjsip-ua-x86_64-x64-vc14-release:sip_100rel.obj
 0002:00000fa0       ??_C@_0CE@BEBCMEH@No?5SDP?5sent?5so?5far?0?5sending?52xx@ 000000014006cfa0     pjsip-ua-x86_64-x64-vc14-release:sip_100rel.obj
 0002:00000fc4       ??_C@_02GMHACPFF@?$CFu@    000000014006cfc4     pjsip-ua-x86_64-x64-vc14-release:sip_100rel.obj
 0002:00000fc8       ??_C@_0CL@JLPOAJFO@Reliable?5?$CFd?5response?5enqueued?5?$CI@ 000000014006cfc8     pjsip-ua-x86_64-x64-vc14-release:sip_100rel.obj
 0002:00001068       pjsip_update_method        000000014006d068     pjsip-ua-x86_64-x64-vc14-release:sip_timer.obj
 0002:00001080       ??_C@_0BA@HCNJNBAB@Session?9Expires@ 000000014006d080     pjsip-ua-x86_64-x64-vc14-release:sip_timer.obj
 0002:00001090       ??_C@_01FJMABOPO@x@        000000014006d090     pjsip-ua-x86_64-x64-vc14-release:sip_timer.obj
 0002:00001094       ??_C@_06PPBKPPMM@Min?9SE@  000000014006d094     pjsip-ua-x86_64-x64-vc14-release:sip_timer.obj
 0002:000010a0       ??_C@_09NOICKHFM@refresher@ 000000014006d0a0     pjsip-ua-x86_64-x64-vc14-release:sip_timer.obj
 0002:000010ac       ??_C@_03IFJPOJDO@uac@      000000014006d0ac     pjsip-ua-x86_64-x64-vc14-release:sip_timer.obj
 0002:000010b0       ??_C@_03MPFNPLGP@uas@      000000014006d0b0     pjsip-ua-x86_64-x64-vc14-release:sip_timer.obj
 0002:000010c0       ??_C@_0IA@JCLOFIBI@C?3?2Users?2WerBinIch?2Documents?2gi@ 000000014006d0c0     pjsip-ua-x86_64-x64-vc14-release:sip_timer.obj
 0002:00001140       ??_C@_0DF@MFNPLMLE@Refreshing?5session?5after?5?$CFds?5?$CIe@ 000000014006d140     pjsip-ua-x86_64-x64-vc14-release:sip_timer.obj
 0002:00001178       ??_C@_0BB@FFFNADMG@refresh?5response@ 000000014006d178     pjsip-ua-x86_64-x64-vc14-release:sip_timer.obj
 0002:00001190       ??_C@_07HPCLKEG@refresh@   000000014006d190     pjsip-ua-x86_64-x64-vc14-release:sip_timer.obj
 0002:000011a0       ??_C@_0FA@NNHOKPAC@No?5session?5?$CFs?5received?5after?5?$CFd@ 000000014006d1a0     pjsip-ua-x86_64-x64-vc14-release:sip_timer.obj
 0002:000011f0       ??_C@_0L@BHFFIHLE@refreshing@ 000000014006d1f0     pjsip-ua-x86_64-x64-vc14-release:sip_timer.obj
 0002:00001200       ??_C@_0M@CIHJDPCM@terminating@ 000000014006d200     pjsip-ua-x86_64-x64-vc14-release:sip_timer.obj
 0002:00001210       ??_C@_0BK@JNGKHHHE@Error?5in?5?$CFs?5session?5timer@ 000000014006d210     pjsip-ua-x86_64-x64-vc14-release:sip_timer.obj
 0002:00001230       ??_C@_0EK@JCMLCMLM@Received?5422?5?$CISession?5Interval?5@ 000000014006d230     pjsip-ua-x86_64-x64-vc14-release:sip_timer.obj
 0002:00001280       ??_C@_0IG@FLJLCDDH@Peer?5responds?5with?5bad?5Session?9@ 000000014006d280     pjsip-ua-x86_64-x64-vc14-release:sip_timer.obj
 0002:00001308       ??_C@_0DC@MANPDFEB@Receive?5error?5?$CFd?5for?5refresh?5re@ 000000014006d308     pjsip-ua-x86_64-x64-vc14-release:sip_timer.obj
 0002:00001340       ??_C@_0DH@MMOHCGLD@Scheduling?5to?5retry?5refresh?5req@ 000000014006d340     pjsip-ua-x86_64-x64-vc14-release:sip_timer.obj
 0002:00001378       ??_C@_0BD@KGAJMAJC@Ending?5session?5now@ 000000014006d378     pjsip-ua-x86_64-x64-vc14-release:sip_timer.obj
 0002:00001390       ??_C@_08EINEADGI@REGISTER@ 000000014006d390     pjsip-core-x86_64-x64-vc14-release:sip_msg.obj
 0002:000013a0       ??_C@_07KDKMIPIP@OPTIONS@  000000014006d3a0     pjsip-core-x86_64-x64-vc14-release:sip_msg.obj
 0002:000013a8       ??_C@_06MDEHPNLG@Accept@   000000014006d3a8     pjsip-core-x86_64-x64-vc14-release:sip_msg.obj
 0002:000013b0       ??_C@_0BA@KDJCHKHJ@Accept?9Encoding@ 000000014006d3b0     pjsip-core-x86_64-x64-vc14-release:sip_msg.obj
 0002:000013c0       ??_C@_0BA@POEGPCPD@Accept?9Language@ 000000014006d3c0     pjsip-core-x86_64-x64-vc14-release:sip_msg.obj
 0002:000013d0       ??_C@_0L@DDNEKGOG@Alert?9Info@ 000000014006d3d0     pjsip-core-x86_64-x64-vc14-release:sip_msg.obj
 0002:000013dc       ??_C@_05IEPODGEO@Allow@    000000014006d3dc     pjsip-core-x86_64-x64-vc14-release:sip_msg.obj
 0002:000013e8       ??_C@_0BE@KPJFGFDH@Authentication?9Info@ 000000014006d3e8     pjsip-core-x86_64-x64-vc14-release:sip_msg.obj
 0002:00001400       ??_C@_0O@NAFGPKMI@Authorization@ 000000014006d400     pjsip-core-x86_64-x64-vc14-release:sip_msg.obj
 0002:00001410       ??_C@_07IKPMLMAJ@Call?9ID@ 000000014006d410     pjsip-core-x86_64-x64-vc14-release:sip_msg.obj
 0002:00001418       ??_C@_01KBJDNOO@i@         000000014006d418     pjsip-core-x86_64-x64-vc14-release:sip_msg.obj
 0002:00001420       ??_C@_09HCKFEBLC@Call?9Info@ 000000014006d420     pjsip-core-x86_64-x64-vc14-release:sip_msg.obj
 0002:0000142c       ??_C@_01GOHFPIOK@m@        000000014006d42c     pjsip-core-x86_64-x64-vc14-release:sip_msg.obj
 0002:00001430       ??_C@_0BE@LMOOGHBG@Content?9Disposition@ 000000014006d430     pjsip-core-x86_64-x64-vc14-release:sip_msg.obj
 0002:00001448       ??_C@_0BB@KFPPKJHF@Content?9Encoding@ 000000014006d448     pjsip-core-x86_64-x64-vc14-release:sip_msg.obj
 0002:0000145c       ??_C@_01KGKMHCOC@e@        000000014006d45c     pjsip-core-x86_64-x64-vc14-release:sip_msg.obj
 0002:00001460       ??_C@_0BB@PICLCBPP@Content?9Language@ 000000014006d460     pjsip-core-x86_64-x64-vc14-release:sip_msg.obj
 0002:00001478       ??_C@_0P@HOJGPHBA@Content?9Length@ 000000014006d478     pjsip-core-x86_64-x64-vc14-release:sip_msg.obj
 0002:00001488       ??_C@_01HHGOMJKL@l@        000000014006d488     pjsip-core-x86_64-x64-vc14-release:sip_msg.obj
 0002:00001490       ??_C@_0N@LAFFMKKA@Content?9Type@ 000000014006d490     pjsip-core-x86_64-x64-vc14-release:sip_msg.obj
 0002:000014a0       ??_C@_01PAPGNFGE@c@        000000014006d4a0     pjsip-core-x86_64-x64-vc14-release:sip_msg.obj
 0002:000014a4       ??_C@_04IHAOMLEL@CSeq@     000000014006d4a4     pjsip-core-x86_64-x64-vc14-release:sip_msg.obj
 0002:000014ac       ??_C@_04FMEGDJGD@Date@     000000014006d4ac     pjsip-core-x86_64-x64-vc14-release:sip_msg.obj
 0002:000014b8       ??_C@_0L@PGKFFKEH@Error?9Info@ 000000014006d4b8     pjsip-core-x86_64-x64-vc14-release:sip_msg.obj
 0002:000014c8       ??_C@_07DABPCBEH@Expires@  000000014006d4c8     pjsip-core-x86_64-x64-vc14-release:sip_msg.obj
 0002:000014d0       ??_C@_04LMIAFEOL@From@     000000014006d4d0     pjsip-core-x86_64-x64-vc14-release:sip_msg.obj
 0002:000014d8       ??_C@_01INIBCBCB@f@        000000014006d4d8     pjsip-core-x86_64-x64-vc14-release:sip_msg.obj
 0002:000014e0       ??_C@_0M@OJFKFNND@In?9Reply?9To@ 000000014006d4e0     pjsip-core-x86_64-x64-vc14-release:sip_msg.obj
 0002:000014f0       ??_C@_0N@KAKEBINL@Max?9Forwards@ 000000014006d4f0     pjsip-core-x86_64-x64-vc14-release:sip_msg.obj
 0002:00001500       ??_C@_0N@PNJFOFFK@MIME?9Version@ 000000014006d500     pjsip-core-x86_64-x64-vc14-release:sip_msg.obj
 0002:00001510       ??_C@_0M@BHCNHHNF@Min?9Expires@ 000000014006d510     pjsip-core-x86_64-x64-vc14-release:sip_msg.obj
 0002:00001520       ??_C@_0N@MHPBIIPD@Organization@ 000000014006d520     pjsip-core-x86_64-x64-vc14-release:sip_msg.obj
 0002:00001530       ??_C@_08KGEIBGG@Priority@  000000014006d530     pjsip-core-x86_64-x64-vc14-release:sip_msg.obj
 0002:00001540       ??_C@_0BD@GKJFGNG@Proxy?9Authenticate@ 000000014006d540     pjsip-core-x86_64-x64-vc14-release:sip_msg.obj
 0002:00001558       ??_C@_0BE@DCLKKIPG@Proxy?9Authorization@ 000000014006d558     pjsip-core-x86_64-x64-vc14-release:sip_msg.obj
 0002:00001570       ??_C@_0O@ICDCLCHE@Proxy?9Require@ 000000014006d570     pjsip-core-x86_64-x64-vc14-release:sip_msg.obj
 0002:00001580       ??_C@_0N@KJFPNEHF@Record?9Route@ 000000014006d580     pjsip-core-x86_64-x64-vc14-release:sip_msg.obj
 0002:00001590       ??_C@_08GBENDHCN@Reply?9To@ 000000014006d590     pjsip-core-x86_64-x64-vc14-release:sip_msg.obj
 0002:000015a0       ??_C@_07KMMNJNOB@Require@  000000014006d5a0     pjsip-core-x86_64-x64-vc14-release:sip_msg.obj
 0002:000015a8       ??_C@_0M@CMFFKFHP@Retry?9After@ 000000014006d5a8     pjsip-core-x86_64-x64-vc14-release:sip_msg.obj
 0002:000015b4       ??_C@_05DIKBIPM@Route@     000000014006d5b4     pjsip-core-x86_64-x64-vc14-release:sip_msg.obj
 0002:000015bc       ??_C@_06LGMEBDBC@Server@   000000014006d5bc     pjsip-core-x86_64-x64-vc14-release:sip_msg.obj
 0002:000015c8       ??_C@_07GEKACEDI@Subject@  000000014006d5c8     pjsip-core-x86_64-x64-vc14-release:sip_msg.obj
 0002:000015d0       ??_C@_01LKDEMHDF@s@        000000014006d5d0     pjsip-core-x86_64-x64-vc14-release:sip_msg.obj
 0002:000015d8       ??_C@_09GFDKPDGA@Supported@ 000000014006d5d8     pjsip-core-x86_64-x64-vc14-release:sip_msg.obj
 0002:000015e4       ??_C@_01DICPFPGM@k@        000000014006d5e4     pjsip-core-x86_64-x64-vc14-release:sip_msg.obj
 0002:000015e8       ??_C@_09KDGENIOP@Timestamp@ 000000014006d5e8     pjsip-core-x86_64-x64-vc14-release:sip_msg.obj
 0002:000015f4       ??_C@_02IJGONHOJ@To@       000000014006d5f4     pjsip-core-x86_64-x64-vc14-release:sip_msg.obj
 0002:000015f8       ??_C@_01PFHFFBPC@t@        000000014006d5f8     pjsip-core-x86_64-x64-vc14-release:sip_msg.obj
 0002:00001600       ??_C@_0M@BEECMOIL@Unsupported@ 000000014006d600     pjsip-core-x86_64-x64-vc14-release:sip_msg.obj
 0002:00001610       ??_C@_0L@DMPACEMJ@User?9Agent@ 000000014006d610     pjsip-core-x86_64-x64-vc14-release:sip_msg.obj
 0002:0000161c       ??_C@_03LDNNKNE@Via@       000000014006d61c     pjsip-core-x86_64-x64-vc14-release:sip_msg.obj
 0002:00001620       ??_C@_01MHEDDDHA@v@        000000014006d620     pjsip-core-x86_64-x64-vc14-release:sip_msg.obj
 0002:00001628       ??_C@_07KGMMFLDN@Warning@  000000014006d628     pjsip-core-x86_64-x64-vc14-release:sip_msg.obj
 0002:00001630       ??_C@_0BB@KEDJJIFI@WWW?9Authenticate@ 000000014006d630     pjsip-core-x86_64-x64-vc14-release:sip_msg.obj
 0002:00001648       ??_C@_0BA@MKEDBJEA@_Unknown?9Header@ 000000014006d648     pjsip-core-x86_64-x64-vc14-release:sip_msg.obj
 0002:00001660       pjsip_invite_method        000000014006d660     pjsip-core-x86_64-x64-vc14-release:sip_msg.obj
 0002:00001678       pjsip_cancel_method        000000014006d678     pjsip-core-x86_64-x64-vc14-release:sip_msg.obj
 0002:00001690       pjsip_ack_method           000000014006d690     pjsip-core-x86_64-x64-vc14-release:sip_msg.obj
 0002:000016a8       pjsip_bye_method           000000014006d6a8     pjsip-core-x86_64-x64-vc14-release:sip_msg.obj
 0002:000016c0       pjsip_register_method      000000014006d6c0     pjsip-core-x86_64-x64-vc14-release:sip_msg.obj
 0002:000016d8       pjsip_options_method       000000014006d6d8     pjsip-core-x86_64-x64-vc14-release:sip_msg.obj
 0002:000016f0       pjsip_hdr_names            000000014006d6f0     pjsip-core-x86_64-x64-vc14-release:sip_msg.obj
 0002:00001b28       ??_C@_03MGEKBFJK@?$DLq?$DN@ 000000014006db28     pjsip-core-x86_64-x64-vc14-release:sip_msg.obj
 0002:00001b30       ??_C@_09JFABAEBI@?$DLexpires?$DN@ 000000014006db30     pjsip-core-x86_64-x64-vc14-release:sip_msg.obj
 0002:00001b3c       ??_C@_05IIDIOKEA@?$DLtag?$DN@ 000000014006db3c     pjsip-core-x86_64-x64-vc14-release:sip_msg.obj
 0002:00001b44       ??_C@_04IBOFHAPJ@hide@     000000014006db44     pjsip-core-x86_64-x64-vc14-release:sip_msg.obj
 0002:00001b49       ??_C@_00CNPNBAHC@@         000000014006db49     pjsip-core-x86_64-x64-vc14-release:sip_msg.obj
 0002:00001b4c       ??_C@_05ODKKKCAM@?$DLttl?$DN@ 000000014006db4c     pjsip-core-x86_64-x64-vc14-release:sip_msg.obj
 0002:00001b54       ??_C@_06IKMHKLF@?$DLrport@ 000000014006db54     pjsip-core-x86_64-x64-vc14-release:sip_msg.obj
 0002:00001b60       ??_C@_07IONINLDO@?$DLmaddr?$DN@ 000000014006db60     pjsip-core-x86_64-x64-vc14-release:sip_msg.obj
 0002:00001b68       ??_C@_0L@IMDGLAJB@?$DLreceived?$DN@ 000000014006db68     pjsip-core-x86_64-x64-vc14-release:sip_msg.obj
 0002:00001b78       ??_C@_0BH@JEAOBKFE@Default?5status?5message@ 000000014006db78     pjsip-core-x86_64-x64-vc14-release:sip_msg.obj
 0002:00001b90       ??_C@_06CJPKGAJC@Trying@   000000014006db90     pjsip-core-x86_64-x64-vc14-release:sip_msg.obj
 0002:00001b98       ??_C@_07KEMHLLKP@Ringing@  000000014006db98     pjsip-core-x86_64-x64-vc14-release:sip_msg.obj
 0002:00001ba0       ??_C@_0BI@HBFDMPGA@Call?5Is?5Being?5Forwarded@ 000000014006dba0     pjsip-core-x86_64-x64-vc14-release:sip_msg.obj
 0002:00001bb8       ??_C@_06POGAFBAL@Queued@   000000014006dbb8     pjsip-core-x86_64-x64-vc14-release:sip_msg.obj
 0002:00001bc0       ??_C@_0BB@FKJCNOGD@Session?5Progress@ 000000014006dbc0     pjsip-core-x86_64-x64-vc14-release:sip_msg.obj
 0002:00001bd4       ??_C@_02GIPFHKNO@OK@       000000014006dbd4     pjsip-core-x86_64-x64-vc14-release:sip_msg.obj
 0002:00001bd8       ??_C@_08DOBOODLA@Accepted@ 000000014006dbd8     pjsip-core-x86_64-x64-vc14-release:sip_msg.obj
 0002:00001be8       ??_C@_0BB@HLFEHKPE@Multiple?5Choices@ 000000014006dbe8     pjsip-core-x86_64-x64-vc14-release:sip_msg.obj
 0002:00001c00       ??_C@_0BC@BPBCNFPI@Moved?5Permanently@ 000000014006dc00     pjsip-core-x86_64-x64-vc14-release:sip_msg.obj
 0002:00001c18       ??_C@_0BC@LODIMCJL@Moved?5Temporarily@ 000000014006dc18     pjsip-core-x86_64-x64-vc14-release:sip_msg.obj
 0002:00001c30       ??_C@_09JFBGBFIM@Use?5Proxy@ 000000014006dc30     pjsip-core-x86_64-x64-vc14-release:sip_msg.obj
 0002:00001c40       ??_C@_0BE@MCFGMBHK@Alternative?5Service@ 000000014006dc40     pjsip-core-x86_64-x64-vc14-release:sip_msg.obj
 0002:00001c58       ??_C@_0M@LNAIDEEG@Bad?5Request@ 000000014006dc58     pjsip-core-x86_64-x64-vc14-release:sip_msg.obj
 0002:00001c68       ??_C@_0N@OOAPMOJA@Unauthorized@ 000000014006dc68     pjsip-core-x86_64-x64-vc14-release:sip_msg.obj
 0002:00001c78       ??_C@_0BB@LMPIHCBH@Payment?5Required@ 000000014006dc78     pjsip-core-x86_64-x64-vc14-release:sip_msg.obj
 0002:00001c90       ??_C@_09LMDIMFJD@Forbidden@ 000000014006dc90     pjsip-core-x86_64-x64-vc14-release:sip_msg.obj
 0002:00001ca0       ??_C@_09CFCBFJND@Not?5Found@ 000000014006dca0     pjsip-core-x86_64-x64-vc14-release:sip_msg.obj
 0002:00001cb0       ??_C@_0BD@CCIPIALO@Method?5Not?5Allowed@ 000000014006dcb0     pjsip-core-x86_64-x64-vc14-release:sip_msg.obj
 0002:00001cc8       ??_C@_0P@HHIDFAOI@Not?5Acceptable@ 000000014006dcc8     pjsip-core-x86_64-x64-vc14-release:sip_msg.obj
 0002:00001cd8       ??_C@_0BO@ONPAAOGI@Proxy?5Authentication?5Required@ 000000014006dcd8     pjsip-core-x86_64-x64-vc14-release:sip_msg.obj
 0002:00001cf8       ??_C@_0BA@HALFGGF@Request?5Timeout@ 000000014006dcf8     pjsip-core-x86_64-x64-vc14-release:sip_msg.obj
 0002:00001d08       ??_C@_04OKIIBCCG@Gone@     000000014006dd08     pjsip-core-x86_64-x64-vc14-release:sip_msg.obj
 0002:00001d10       ??_C@_0BJ@MMEIEOIG@Request?5Entity?5Too?5Large@ 000000014006dd10     pjsip-core-x86_64-x64-vc14-release:sip_msg.obj
 0002:00001d30       ??_C@_0BF@LPICFNOC@Request?5URI?5Too?5Long@ 000000014006dd30     pjsip-core-x86_64-x64-vc14-release:sip_msg.obj
 0002:00001d48       ??_C@_0BH@HLJJIAEN@Unsupported?5Media?5Type@ 000000014006dd48     pjsip-core-x86_64-x64-vc14-release:sip_msg.obj
 0002:00001d60       ??_C@_0BH@HMDPMBIK@Unsupported?5URI?5Scheme@ 000000014006dd60     pjsip-core-x86_64-x64-vc14-release:sip_msg.obj
 0002:00001d78       ??_C@_0O@EABFLJJG@Bad?5Extension@ 000000014006dd78     pjsip-core-x86_64-x64-vc14-release:sip_msg.obj
 0002:00001d88       ??_C@_0BD@LEDCNIMD@Extension?5Required@ 000000014006dd88     pjsip-core-x86_64-x64-vc14-release:sip_msg.obj
 0002:00001da0       ??_C@_0BI@DEDCGMIH@Session?5Timer?5Too?5Small@ 000000014006dda0     pjsip-core-x86_64-x64-vc14-release:sip_msg.obj
 0002:00001db8       ??_C@_0BD@NHGMJMLN@Interval?5Too?5Brief@ 000000014006ddb8     pjsip-core-x86_64-x64-vc14-release:sip_msg.obj
 0002:00001dd0       ??_C@_0BI@JBJKOKGE@Temporarily?5Unavailable@ 000000014006ddd0     pjsip-core-x86_64-x64-vc14-release:sip_msg.obj
 0002:00001de8       ??_C@_0CA@DPKMEAMP@Call?1Transaction?5Does?5Not?5Exist@ 000000014006dde8     pjsip-core-x86_64-x64-vc14-release:sip_msg.obj
 0002:00001e08       ??_C@_0O@KJBLEGOO@Loop?5Detected@ 000000014006de08     pjsip-core-x86_64-x64-vc14-release:sip_msg.obj
 0002:00001e18       ??_C@_0O@CFHODMHD@Too?5Many?5Hops@ 000000014006de18     pjsip-core-x86_64-x64-vc14-release:sip_msg.obj
 0002:00001e28       ??_C@_0BD@HOIPLGB@Address?5Incomplete@ 000000014006de28     pjsip-core-x86_64-x64-vc14-release:sip_msg.obj
 0002:00001e40       ??_C@_09FNGPAEJC@Ambiguous@ 000000014006de40     pjsip-core-x86_64-x64-vc14-release:sip_msg.obj
 0002:00001e50       ??_C@_09ELAJPHFG@Busy?5Here@ 000000014006de50     pjsip-core-x86_64-x64-vc14-release:sip_msg.obj
 0002:00001e60       ??_C@_0BD@IGJOBDDO@Request?5Terminated@ 000000014006de60     pjsip-core-x86_64-x64-vc14-release:sip_msg.obj
 0002:00001e78       ??_C@_0BE@HMIMPLAH@Not?5Acceptable?5Here@ 000000014006de78     pjsip-core-x86_64-x64-vc14-release:sip_msg.obj
 0002:00001e90       ??_C@_09HKNLJBHH@Bad?5Event@ 000000014006de90     pjsip-core-x86_64-x64-vc14-release:sip_msg.obj
 0002:00001ea0       ??_C@_0BA@DKJEBJFB@Request?5Updated@ 000000014006dea0     pjsip-core-x86_64-x64-vc14-release:sip_msg.obj
 0002:00001eb0       ??_C@_0BA@KLOCDLCK@Request?5Pending@ 000000014006deb0     pjsip-core-x86_64-x64-vc14-release:sip_msg.obj
 0002:00001ec0       ??_C@_0P@EIPIHDNL@Undecipherable@ 000000014006dec0     pjsip-core-x86_64-x64-vc14-release:sip_msg.obj
 0002:00001ed0       ??_C@_0BG@NJGANGCC@Internal?5Server?5Error@ 000000014006ded0     pjsip-core-x86_64-x64-vc14-release:sip_msg.obj
 0002:00001ee8       ??_C@_0BA@JGKGKAME@Not?5Implemented@ 000000014006dee8     pjsip-core-x86_64-x64-vc14-release:sip_msg.obj
 0002:00001ef8       ??_C@_0M@BNCNLPGM@Bad?5Gateway@ 000000014006def8     pjsip-core-x86_64-x64-vc14-release:sip_msg.obj
 0002:00001f08       ??_C@_0BE@NGHLFKBN@Service?5Unavailable@ 000000014006df08     pjsip-core-x86_64-x64-vc14-release:sip_msg.obj
 0002:00001f20       ??_C@_0P@KPHBHCBP@Server?5Timeout@ 000000014006df20     pjsip-core-x86_64-x64-vc14-release:sip_msg.obj
 0002:00001f30       ??_C@_0BG@DGJHJFEF@Version?5Not?5Supported@ 000000014006df30     pjsip-core-x86_64-x64-vc14-release:sip_msg.obj
 0002:00001f48       ??_C@_0BC@FOIGPIGF@Message?5Too?5Large@ 000000014006df48     pjsip-core-x86_64-x64-vc14-release:sip_msg.obj
 0002:00001f60       ??_C@_0BF@PJIFKKPF@Precondition?5Failure@ 000000014006df60     pjsip-core-x86_64-x64-vc14-release:sip_msg.obj
 0002:00001f78       ??_C@_0BA@BNEEJKIK@Busy?5Everywhere@ 000000014006df78     pjsip-core-x86_64-x64-vc14-release:sip_msg.obj
 0002:00001f88       ??_C@_07CAMLKJDK@Decline@  000000014006df88     pjsip-core-x86_64-x64-vc14-release:sip_msg.obj
 0002:00001f90       ??_C@_0BI@JILKKJAA@Does?5Not?5Exist?5Anywhere@ 000000014006df90     pjsip-core-x86_64-x64-vc14-release:sip_msg.obj
 0002:00001fa8       ??_C@_0CE@LJDLADFN@No?5response?5from?5destination?5se@ 000000014006dfa8     pjsip-core-x86_64-x64-vc14-release:sip_msg.obj
 0002:00001fd0       ??_C@_0CF@KIECMFPG@Unable?5to?5resolve?5destination?5s@ 000000014006dfd0     pjsip-core-x86_64-x64-vc14-release:sip_msg.obj
 0002:00001ff8       ??_C@_0CM@KOHFAKJI@Error?5sending?5message?5to?5destin@ 000000014006dff8     pjsip-core-x86_64-x64-vc14-release:sip_msg.obj
 0002:00002028       ??_C@_0BB@NFGDEPJM@Content?9Length?3?5@ 000000014006e028     pjsip-core-x86_64-x64-vc14-release:sip_msg.obj
 0002:0000203c       ??_C@_03BDDDCMLM@l?3?5@    000000014006e03c     pjsip-core-x86_64-x64-vc14-release:sip_msg.obj
 0002:00002040       ??_C@_0L@GLHKEHNL@?5SIP?12?40?$AN?6@ 000000014006e040     pjsip-core-x86_64-x64-vc14-release:sip_msg.obj
 0002:00002050       ??_C@_0DH@DHKJLILJ@Header?5with?5no?5vptr?5encountered@ 000000014006e050     pjsip-core-x86_64-x64-vc14-release:sip_msg.obj
 0002:00002088       ??_C@_07KCAKOOLP@sip_msg@  000000014006e088     pjsip-core-x86_64-x64-vc14-release:sip_msg.obj
 0002:00002090       ??_C@_0P@GJMOGDPG@Content?9Type?3?5@ 000000014006e090     pjsip-core-x86_64-x64-vc14-release:sip_msg.obj
 0002:000020a0       ??_C@_03ELFADMOK@c?3?5@    000000014006e0a0     pjsip-core-x86_64-x64-vc14-release:sip_msg.obj
 0002:000020a8       ??_C@_0P@DNLLBOJA@?$CFu?5?$CF?4?$CKs?5?$CC?$CF?4?$CKs?$CC@ 000000014006e0a8     pjsip-core-x86_64-x64-vc14-release:sip_msg.obj
 0002:000020b8       ??_C@_0O@EMLDOJH@mod?9msg?9print@ 000000014006e0b8     pjsip-core-x86_64-x64-vc14-release:sip_transport.obj
 0002:000020c8       ??_C@_0M@NNPCGPMF@Unspecified@ 000000014006e0c8     pjsip-core-x86_64-x64-vc14-release:sip_transport.obj
 0002:000020d4       ??_C@_03OPEAKHDL@UDP@      000000014006e0d4     pjsip-core-x86_64-x64-vc14-release:sip_transport.obj
 0002:000020d8       ??_C@_0O@KHAHCMDL@UDP?5transport@ 000000014006e0d8     pjsip-core-x86_64-x64-vc14-release:sip_transport.obj
 0002:000020e8       ??_C@_03FCLDNGNL@TCP@      000000014006e0e8     pjsip-core-x86_64-x64-vc14-release:sip_transport.obj
 0002:000020f0       ??_C@_0O@EHHLMLBF@TCP?5transport@ 000000014006e0f0     pjsip-core-x86_64-x64-vc14-release:sip_transport.obj
 0002:00002100       ??_C@_03HCMCMCCF@TLS@      000000014006e100     pjsip-core-x86_64-x64-vc14-release:sip_transport.obj
 0002:00002108       ??_C@_0O@BHJFMMNA@TLS?5transport@ 000000014006e108     pjsip-core-x86_64-x64-vc14-release:sip_transport.obj
 0002:00002118       ??_C@_04DINHBEKN@DTLS@     000000014006e118     pjsip-core-x86_64-x64-vc14-release:sip_transport.obj
 0002:00002120       ??_C@_0P@FBHKKIOO@DTLS?5transport@ 000000014006e120     pjsip-core-x86_64-x64-vc14-release:sip_transport.obj
 0002:00002130       ??_C@_04BOMBJBBC@SCTP@     000000014006e130     pjsip-core-x86_64-x64-vc14-release:sip_transport.obj
 0002:00002138       ??_C@_0P@BEPMAJFA@SCTP?5transport@ 000000014006e138     pjsip-core-x86_64-x64-vc14-release:sip_transport.obj
 0002:00002148       ??_C@_04KGNEGCGI@LOOP@     000000014006e148     pjsip-core-x86_64-x64-vc14-release:sip_transport.obj
 0002:00002150       ??_C@_0BD@IJLEDLFM@Loopback?5transport@ 000000014006e150     pjsip-core-x86_64-x64-vc14-release:sip_transport.obj
 0002:00002168       ??_C@_0L@PGGNCDOP@LOOP?9DGRAM@ 000000014006e168     pjsip-core-x86_64-x64-vc14-release:sip_transport.obj
 0002:00002178       ??_C@_0BM@JFHDLEFO@Loopback?5datagram?5transport@ 000000014006e178     pjsip-core-x86_64-x64-vc14-release:sip_transport.obj
 0002:00002198       ??_C@_0BD@LIBJHFGK@UDP?5IPv6?5transport@ 000000014006e198     pjsip-core-x86_64-x64-vc14-release:sip_transport.obj
 0002:000021b0       ??_C@_0BD@IONFPPFG@TCP?5IPv6?5transport@ 000000014006e1b0     pjsip-core-x86_64-x64-vc14-release:sip_transport.obj
 0002:000021c8       ??_C@_0BD@CLDAAALK@TLS?5IPv6?5transport@ 000000014006e1c8     pjsip-core-x86_64-x64-vc14-release:sip_transport.obj
 0002:000021e0       ??_C@_0BE@IFPIBJBH@DTLS?5IPv6?5transport@ 000000014006e1e0     pjsip-core-x86_64-x64-vc14-release:sip_transport.obj
 0002:000021f4       ??_C@_06HHKALCGB@tdta?$CFp@ 000000014006e1f4     pjsip-core-x86_64-x64-vc14-release:sip_transport.obj
 0002:00002200       ??_C@_0BF@FNAOFPOF@Destroying?5txdata?5?$CFs@ 000000014006e200     pjsip-core-x86_64-x64-vc14-release:sip_transport.obj
 0002:00002218       ??_C@_0M@JCCICOOO@INVALID?5MSG@ 000000014006e218     pjsip-core-x86_64-x64-vc14-release:sip_transport.obj
 0002:00002228       ??_C@_0BO@FBJFIDDA@Request?5msg?5?$CF?4?$CKs?1cseq?$DN?$CFd?5?$CI?$CFs?$CJ@ 000000014006e228     pjsip-core-x86_64-x64-vc14-release:sip_transport.obj
 0002:00002248       ??_C@_0CC@DIPPPFIF@Response?5msg?5?$CFd?1?$CF?4?$CKs?1cseq?$DN?$CFd?5?$CI?$CF@ 000000014006e248     pjsip-core-x86_64-x64-vc14-release:sip_transport.obj
 0002:00002270       ??_C@_0BC@NHBNMNGO@Tx?5data?5?$CFs?5cloned@ 000000014006e270     pjsip-core-x86_64-x64-vc14-release:sip_transport.obj
 0002:00002288       ??_C@_0BA@BCOMPIDA@sip_transport?4c@ 000000014006e288     pjsip-core-x86_64-x64-vc14-release:sip_transport.obj
 0002:00002298       ??_C@_05MIOBCJBH@rdata@    000000014006e298     pjsip-core-x86_64-x64-vc14-release:sip_transport.obj
 0002:000022a0       ??_C@_02BBAHNLBA@?$CFp@    000000014006e2a0     pjsip-core-x86_64-x64-vc14-release:sip_transport.obj
 0002:000022a4       ??_C@_05KBHICJDA@rtd?$CFp@ 000000014006e2a4     pjsip-core-x86_64-x64-vc14-release:sip_transport.obj
 0002:000022b0       ??_C@_0CG@GHPNJCCG@Unable?5to?5send?5?$CFs?3?5message?5is?5p@ 000000014006e2b0     pjsip-core-x86_64-x64-vc14-release:sip_transport.obj
 0002:000022e0       ??_C@_0IB@PPGFIIKL@C?3?2Users?2WerBinIch?2Documents?2gi@ 000000014006e2e0     pjsip-core-x86_64-x64-vc14-release:sip_transport.obj
 0002:00002368       ??_C@_0DI@CNFAMKAC@Warning?3?5transport?5?$CFs?5being?5des@ 000000014006e368     pjsip-core-x86_64-x64-vc14-release:sip_transport.obj
 0002:000023a0       ??_C@_0EF@KMMKIKKG@Warning?3?5transport?5?$CFs?5being?5des@ 000000014006e3a0     pjsip-core-x86_64-x64-vc14-release:sip_transport.obj
 0002:000023e8       ??_C@_05LOIBBIEL@tpmgr@    000000014006e3e8     pjsip-core-x86_64-x64-vc14-release:sip_transport.obj
 0002:000023f0       ??_C@_06DFEDPGIK@tmgr?$CFp@ 000000014006e3f0     pjsip-core-x86_64-x64-vc14-release:sip_transport.obj
 0002:000023f8       ??_C@_0BL@FCLJOKON@Transport?5manager?5created?4@ 000000014006e3f8     pjsip-core-x86_64-x64-vc14-release:sip_transport.obj
 0002:00002418       ??_C@_0BN@ICLNKKAJ@Destroying?5transport?5manager@ 000000014006e418     pjsip-core-x86_64-x64-vc14-release:sip_transport.obj
 0002:00002438       ??_C@_0CI@HJKHOKAG@Cleaned?5up?5dangling?5transmit?5bu@ 000000014006e438     pjsip-core-x86_64-x64-vc14-release:sip_transport.obj
 0002:00002460       ??_C@_0DM@LJBJFPEI@?3?5?$CFs?5exception?5when?5parsing?5?8?$CF?4@ 000000014006e460     pjsip-core-x86_64-x64-vc14-release:sip_transport.obj
 0002:000024a0       ??_C@_0EM@JMILNFHN@Error?5processing?5?$CFd?5bytes?5packe@ 000000014006e4a0     pjsip-core-x86_64-x64-vc14-release:sip_transport.obj
 0002:000024f0       ??_C@_0DG@FPJFHIHG@Specified?5factory?5for?5creating?5@ 000000014006e4f0     pjsip-core-x86_64-x64-vc14-release:sip_transport.obj
 0002:00002528       ??_C@_01LBDDMOBJ@?$FN@     000000014006e528     pjsip-core-x86_64-x64-vc14-release:sip_transport.obj
 0002:00002530       ??_C@_0BJ@MGECBGBK@Module?5?$CC?$CF?4?$CKs?$CC?5registered@ 000000014006e530     pjsip-core-x86_64-x64-vc14-release:sip_endpoint.obj
 0002:00002550       ??_C@_0P@EGLGAFCL@sip_endpoint?4c@ 000000014006e550     pjsip-core-x86_64-x64-vc14-release:sip_endpoint.obj
 0002:00002560       ??_C@_0CK@DNCAODEI@Module?5?$CC?$CF?4?$CKs?$CC?5can?5not?5be?5unregi@ 000000014006e560     pjsip-core-x86_64-x64-vc14-release:sip_endpoint.obj
 0002:00002590       ??_C@_0BL@HDLPHBNM@Module?5?$CC?$CF?4?$CKs?$CC?5unregistered@ 000000014006e590     pjsip-core-x86_64-x64-vc14-release:sip_endpoint.obj
 0002:000025b0       ??_C@_0BO@COOMMINE@Creating?5endpoint?5instance?4?4?4@ 000000014006e5b0     pjsip-core-x86_64-x64-vc14-release:sip_endpoint.obj
 0002:000025d0       ??_C@_06NKPEEELK@pept?$CFp@ 000000014006e5d0     pjsip-core-x86_64-x64-vc14-release:sip_endpoint.obj
 0002:000025d8       ??_C@_05BKDCOKEM@ept?$CFp@ 000000014006e5d8     pjsip-core-x86_64-x64-vc14-release:sip_endpoint.obj
 0002:000025e0       ??_C@_06CEEOCEHG@edpt?$CFp@ 000000014006e5e0     pjsip-core-x86_64-x64-vc14-release:sip_endpoint.obj
 0002:000025e8       ??_C@_0CB@HGCDKNNC@Error?5creating?5resolver?5instanc@ 000000014006e5e8     pjsip-core-x86_64-x64-vc14-release:sip_endpoint.obj
 0002:00002610       ??_C@_0BI@MLLMLNGM@Error?5creating?5endpoint@ 000000014006e610     pjsip-core-x86_64-x64-vc14-release:sip_endpoint.obj
 0002:00002628       ??_C@_0BP@CHMMIAFL@Destroying?5endpoint?5instance?4?4@ 000000014006e628     pjsip-core-x86_64-x64-vc14-release:sip_endpoint.obj
 0002:00002648       ??_C@_0BG@NIAFLHGE@Endpoint?5?$CFp?5destroyed@ 000000014006e648     pjsip-core-x86_64-x64-vc14-release:sip_endpoint.obj
 0002:00002660       ??_C@_0BK@KKFMILKM@Unable?5to?5create?5pool?5?$CFs?$CB@ 000000014006e660     pjsip-core-x86_64-x64-vc14-release:sip_endpoint.obj
 0002:0000267c       ??_C@_05MMMMAHGD@?5From@   000000014006e67c     pjsip-core-x86_64-x64-vc14-release:sip_endpoint.obj
 0002:00002684       ??_C@_03PHFJHONJ@?5To@     000000014006e684     pjsip-core-x86_64-x64-vc14-release:sip_endpoint.obj
 0002:00002688       ??_C@_04CNJKNNNB@?5Via@    000000014006e688     pjsip-core-x86_64-x64-vc14-release:sip_endpoint.obj
 0002:00002690       ??_C@_05PHECJIMD@?5CSeq@   000000014006e690     pjsip-core-x86_64-x64-vc14-release:sip_endpoint.obj
 0002:000026a0       ??_C@_0EM@MDGMOKGH@Error?5processing?5packet?5from?5?$CFs@ 000000014006e6a0     pjsip-core-x86_64-x64-vc14-release:sip_endpoint.obj
 0002:000026f0       ??_C@_0CA@HOLDFAO@Processing?5incoming?5message?3?5?$CFs@ 000000014006e6f0     pjsip-core-x86_64-x64-vc14-release:sip_endpoint.obj
 0002:00002710       ??_C@_0DD@CJCKLIHE@?$CFs?5from?5?$CFs?3?$CFd?5was?5dropped?1unhan@ 000000014006e710     pjsip-core-x86_64-x64-vc14-release:sip_endpoint.obj
 0002:00002748       ??_C@_0M@HFADNKMO@?3?5?$FLerr?5?$CFd?$FN?5@ 000000014006e748     pjsip-core-x86_64-x64-vc14-release:sip_endpoint.obj
 0002:00002758       ??_C@_0N@IDBMKGKC@UNIDENTIFIED@ 000000014006e758     pjsip-core-x86_64-x64-vc14-release:sip_util.obj
 0002:00002768       ??_C@_05BLGDNOJI@TIMER@    000000014006e768     pjsip-core-x86_64-x64-vc14-release:sip_util.obj
 0002:00002770       ??_C@_06FHCLPGGO@TX_MSG@   000000014006e770     pjsip-core-x86_64-x64-vc14-release:sip_util.obj
 0002:00002778       ??_C@_06DEPLMDFE@RX_MSG@   000000014006e778     pjsip-core-x86_64-x64-vc14-release:sip_util.obj
 0002:00002780       ??_C@_0BA@DJFINPGH@TRANSPORT_ERROR@ 000000014006e780     pjsip-core-x86_64-x64-vc14-release:sip_util.obj
 0002:00002790       ??_C@_09DGJBKMAD@TSX_STATE@ 000000014006e790     pjsip-core-x86_64-x64-vc14-release:sip_util.obj
 0002:0000279c       ??_C@_04OOEKJIOI@USER@     000000014006e79c     pjsip-core-x86_64-x64-vc14-release:sip_util.obj
 0002:000027a4       ??_C@_04CIMGMMMG@text@     000000014006e7a4     pjsip-core-x86_64-x64-vc14-release:sip_util.obj
 0002:000027ac       ??_C@_05CGDPOPDB@plain@    000000014006e7ac     pjsip-core-x86_64-x64-vc14-release:sip_util.obj
 0002:000027b8       ??_C@_0M@PJOLBNIF@?$CFs?5created?4@ 000000014006e7b8     pjsip-core-x86_64-x64-vc14-release:sip_util.obj
 0002:000027c8       ??_C@_08OKOOPKMJ@endpoint@ 000000014006e7c8     pjsip-core-x86_64-x64-vc14-release:sip_util.obj
 0002:000027d8       ??_C@_0L@IOBEOHFD@?$CFs?5created@ 000000014006e7d8     pjsip-core-x86_64-x64-vc14-release:sip_util.obj
 0002:000027f0       ??_C@_0ED@BNKEGDBC@Automatic?5switch?5to?5TLS?5transpo@ 000000014006e7f0     pjsip-core-x86_64-x64-vc14-release:sip_util.obj
 0002:00002838       ??_C@_07LDFFKCFH@z9hG4bK@  000000014006e838     pjsip-core-x86_64-x64-vc14-release:sip_util.obj
 0002:00002840       ??_C@_05NKHOCLEE@alias@    000000014006e840     pjsip-core-x86_64-x64-vc14-release:sip_util.obj
 0002:00002848       ??_C@_0DF@HEHPNNHP@?$CFs?5exceeds?5UDP?5size?5threshold?5?$CI@ 000000014006e848     pjsip-core-x86_64-x64-vc14-release:sip_util.obj
 0002:00002880       ??_C@_0DO@JCGKHENM@?$CFs?3?5skipping?5target?5resolution?5@ 000000014006e880     pjsip-core-x86_64-x64-vc14-release:sip_util.obj
 0002:000028c0       ??_C@_0BN@EPNAIMHL@Restarting?5SIP?5UDP?5transport@ 000000014006e8c0     pjsip-core-x86_64-x64-vc14-release:sip_transport_udp.obj
 0002:000028e0       ??_C@_0CD@IKKKNOLK@Error?5restarting?5SIP?5UDP?5transp@ 000000014006e8e0     pjsip-core-x86_64-x64-vc14-release:sip_transport_udp.obj
 0002:00002908       ??_C@_0BE@KOJAAPOH@sip_transport_udp?4c@ 000000014006e908     pjsip-core-x86_64-x64-vc14-release:sip_transport_udp.obj
 0002:00002920       ??_C@_0BN@BEFELMIM@Warning?3?5pj_ioqueue_recvfrom@ 000000014006e920     pjsip-core-x86_64-x64-vc14-release:sip_transport_udp.obj
 0002:00002940       ??_C@_0EC@ICGMJAB@FATAL?3?5pj_ioqueue_recvfrom?$CI?$CJ?5er@ 000000014006e940     pjsip-core-x86_64-x64-vc14-release:sip_transport_udp.obj
 0002:00002988       ??_C@_0BM@INPFFNPD@SIP?5UDP?5transport?5destroyed@ 000000014006e988     pjsip-core-x86_64-x64-vc14-release:sip_transport_udp.obj
 0002:000029a8       ??_C@_0BJ@MMFAKBFN@udp?5?$CFs?5?$FLpublished?5as?5?$CFs?$FN@ 000000014006e9a8     pjsip-core-x86_64-x64-vc14-release:sip_transport_udp.obj
 0002:000029c8       ??_C@_07LINNJFLK@udpv6?$CFp@ 000000014006e9c8     pjsip-core-x86_64-x64-vc14-release:sip_transport_udp.obj
 0002:000029d0       ??_C@_01OHGJGJJP@?$FL@     000000014006e9d0     pjsip-core-x86_64-x64-vc14-release:sip_transport_udp.obj
 0002:000029d4       ??_C@_05DOGEOMC@udp?$CFp@  000000014006e9d4     pjsip-core-x86_64-x64-vc14-release:sip_transport_udp.obj
 0002:000029e0       ??_C@_07OHKHACFK@0?40?40?40@ 000000014006e9e0     pjsip-core-x86_64-x64-vc14-release:sip_transport_udp.obj
 0002:000029e8       ??_C@_03LHJHGOJD@?3?30@    000000014006e9e8     pjsip-core-x86_64-x64-vc14-release:sip_transport_udp.obj
 0002:000029f0       ??_C@_0DB@MDELAJDF@SIP?5?$CFs?5started?0?5published?5addre@ 000000014006e9f0     pjsip-core-x86_64-x64-vc14-release:sip_transport_udp.obj
 0002:00002a28       ??_C@_0BC@BDGDHMHI@SIP?5UDP?5transport@ 000000014006ea28     pjsip-core-x86_64-x64-vc14-release:sip_transport_udp.obj
 0002:00002a40       ??_C@_0DF@PEKBCPJC@SIP?5UDP?5transport?5restarted?0?5pu@ 000000014006ea40     pjsip-core-x86_64-x64-vc14-release:sip_transport_udp.obj
 0002:00002a78       ??_C@_0O@CDKJIHHI@mod?9tsx?9layer@ 000000014006ea78     pjsip-core-x86_64-x64-vc14-release:sip_transaction.obj
 0002:00002a88       ??_C@_04KHKKIIL@Null@      000000014006ea88     pjsip-core-x86_64-x64-vc14-release:sip_transaction.obj
 0002:00002a90       ??_C@_07BNCBFEGH@Calling@  000000014006ea90     pjsip-core-x86_64-x64-vc14-release:sip_transaction.obj
 0002:00002a98       ??_C@_0L@BKKAFK@Proceeding@ 000000014006ea98     pjsip-core-x86_64-x64-vc14-release:sip_transaction.obj
 0002:00002aa8       ??_C@_09MIJAKHKB@Completed@ 000000014006eaa8     pjsip-core-x86_64-x64-vc14-release:sip_transaction.obj
 0002:00002ab8       ??_C@_09ONANMLIC@Confirmed@ 000000014006eab8     pjsip-core-x86_64-x64-vc14-release:sip_transaction.obj
 0002:00002ac8       ??_C@_0L@NNDINIPK@Terminated@ 000000014006eac8     pjsip-core-x86_64-x64-vc14-release:sip_transaction.obj
 0002:00002ad8       ??_C@_09KDBKJCNL@Destroyed@ 000000014006ead8     pjsip-core-x86_64-x64-vc14-release:sip_transaction.obj
 0002:00002ae4       ??_C@_03IIGECEEC@UAC@      000000014006eae4     pjsip-core-x86_64-x64-vc14-release:sip_transaction.obj
 0002:00002ae8       ??_C@_03MCKGDGBD@UAS@      000000014006eae8     pjsip-core-x86_64-x64-vc14-release:sip_transaction.obj
 0002:00002af0       ??_C@_0BC@LHFGMDJJ@sip_transaction?4c@ 000000014006eaf0     pjsip-core-x86_64-x64-vc14-release:sip_transaction.obj
 0002:00002b08       ??_C@_0CC@CEIKILH@Stopping?5transaction?5layer?5modu@ 000000014006eb08     pjsip-core-x86_64-x64-vc14-release:sip_transaction.obj
 0002:00002b30       ??_C@_0CB@HOMFNBLL@Stopped?5transaction?5layer?5modul@ 000000014006eb30     pjsip-core-x86_64-x64-vc14-release:sip_transaction.obj
 0002:00002b58       ??_C@_0CD@MKMHPCL@Transaction?5layer?5module?5destro@ 000000014006eb58     pjsip-core-x86_64-x64-vc14-release:sip_transaction.obj
 0002:00002b80       ??_C@_0DF@EFJDAPKP@Failed?5to?5register?5transaction?5@ 000000014006eb80     pjsip-core-x86_64-x64-vc14-release:sip_transaction.obj
 0002:00002bb8       ??_C@_0CI@CEFAFFOL@Retransmiting?5?$CFs?0?5count?$DN?$CFd?0?5res@ 000000014006ebb8     pjsip-core-x86_64-x64-vc14-release:sip_transaction.obj
 0002:00002be0       ??_C@_0CK@BFJIAGKI@Received?5illegal?5ACK?5for?5?$CF?4?$CKs?5t@ 000000014006ebe0     pjsip-core-x86_64-x64-vc14-release:sip_transaction.obj
 0002:00002c10       ??_C@_08NHKHBNMC@tsxlayer@ 000000014006ec10     pjsip-core-x86_64-x64-vc14-release:sip_transaction.obj
 0002:00002c20       ??_C@_0DB@ELBLLJGF@Unable?5to?5register?5?$CF?4?$CKs?5transac@ 000000014006ec20     pjsip-core-x86_64-x64-vc14-release:sip_transaction.obj
 0002:00002c54       ??_C@_04CGFJFPFD@none@     000000014006ec54     pjsip-core-x86_64-x64-vc14-release:sip_transaction.obj
 0002:00002c60       ??_C@_0ID@HFOGAMPN@C?3?2Users?2WerBinIch?2Documents?2gi@ 000000014006ec60     pjsip-core-x86_64-x64-vc14-release:sip_transaction.obj
 0002:00002ce4       ??_C@_03ILLHDCNP@tsx@      000000014006ece4     pjsip-core-x86_64-x64-vc14-release:sip_transaction.obj
 0002:00002ce8       ??_C@_05NPMOPOBK@tsx?$CFp@ 000000014006ece8     pjsip-core-x86_64-x64-vc14-release:sip_transaction.obj
 0002:00002cf0       ??_C@_0BH@PDBDIMMK@Transaction?5destroyed?$CB@ 000000014006ecf0     pjsip-core-x86_64-x64-vc14-release:sip_transaction.obj
 0002:00002d08       ??_C@_0DE@PFNICBJL@Will?5destroy?5later?5because?5tran@ 000000014006ed08     pjsip-core-x86_64-x64-vc14-release:sip_transaction.obj
 0002:00002d40       ??_C@_0L@KEAKDBBB@Retransmit@ 000000014006ed40     pjsip-core-x86_64-x64-vc14-release:sip_transaction.obj
 0002:00002d50       ??_C@_07MKALMBDJ@Timeout@  000000014006ed50     pjsip-core-x86_64-x64-vc14-release:sip_transaction.obj
 0002:00002d58       ??_C@_0P@ICKHIBGF@?$CFs?5timer?5event@ 000000014006ed58     pjsip-core-x86_64-x64-vc14-release:sip_transaction.obj
 0002:00002d68       ??_C@_0CG@BHDJKKPD@State?5changed?5from?5?$CFs?5to?5?$CFs?0?5ev@ 000000014006ed68     pjsip-core-x86_64-x64-vc14-release:sip_transaction.obj
 0002:00002d90       ??_C@_0BL@NELPIPFA@Transaction?5created?5for?5?$CFs@ 000000014006ed90     pjsip-core-x86_64-x64-vc14-release:sip_transaction.obj
 0002:00002db0       ??_C@_0ED@IJNOFMME@Error?3?5CSeq?5header?5contains?5dif@ 000000014006edb0     pjsip-core-x86_64-x64-vc14-release:sip_transaction.obj
 0002:00002df8       ??_C@_0CB@LPCILHMH@Request?5to?5terminate?5transactio@ 000000014006edf8     pjsip-core-x86_64-x64-vc14-release:sip_transaction.obj
 0002:00002e20       ??_C@_0BH@NJDAONCL@Sending?5?$CFs?5in?5state?5?$CFs@ 000000014006ee20     pjsip-core-x86_64-x64-vc14-release:sip_transaction.obj
 0002:00002e38       ??_C@_0BI@PADDBGDM@Incoming?5?$CFs?5in?5state?5?$CFs@ 000000014006ee38     pjsip-core-x86_64-x64-vc14-release:sip_transaction.obj
 0002:00002e50       ??_C@_0BP@MFDMMFDJ@Failed?5to?5send?5?$CFs?$CB?5err?$DN?$CFd?5?$CI?$CFs?$CJ@ 000000014006ee50     pjsip-core-x86_64-x64-vc14-release:sip_transaction.obj
 0002:00002e70       ??_C@_0DG@HCJJGEJB@Temporary?5failure?5in?5sending?5?$CFs@ 000000014006ee70     pjsip-core-x86_64-x64-vc14-release:sip_transaction.obj
 0002:00002ea8       ??_C@_0BN@PMBJJBK@Transport?5failed?5to?5send?5?$CFs?$CB@ 000000014006eea8     pjsip-core-x86_64-x64-vc14-release:sip_transaction.obj
 0002:00002ec8       ??_C@_0BB@HMFOJBGF@Error?5sending?5?$CFs@ 000000014006eec8     pjsip-core-x86_64-x64-vc14-release:sip_transaction.obj
 0002:00002ee0       ??_C@_0DG@EDJHIGCF@Transport?5error?0?5terminating?5tr@ 000000014006eee0     pjsip-core-x86_64-x64-vc14-release:sip_transaction.obj
 0002:00002f18       ??_C@_06GBGGOGBI@mod?9ua@  000000014006ef18     pjsip-core-x86_64-x64-vc14-release:sip_ua_layer.obj
 0002:00002f20       ??_C@_04JKMMAKMG@ua?$CFp@  000000014006ef20     pjsip-core-x86_64-x64-vc14-release:sip_ua_layer.obj
 0002:00002f28       ??_C@_05OKIAFJEO@?5ua?$CFp@ 000000014006ef28     pjsip-core-x86_64-x64-vc14-release:sip_ua_layer.obj
 0002:00002f30       ??_C@_0DE@OALAGOOG@Unable?5to?5find?5dialogset?5for?5?$CFs@ 000000014006ef30     pjsip-core-x86_64-x64-vc14-release:sip_ua_layer.obj
 0002:00002f68       ??_C@_0P@JPGJPHAN@sip_ua_layer?4c@ 000000014006ef68     pjsip-core-x86_64-x64-vc14-release:sip_ua_layer.obj
 0002:00002f78       ??_C@_0DB@GAIHGHNL@Unable?5to?5find?5dialog?5for?5?$CFs?0?5a@ 000000014006ef78     pjsip-core-x86_64-x64-vc14-release:sip_ua_layer.obj
 0002:00002fb0       ??_C@_0BN@IDPPCIAF@Unable?5to?5find?5dialog?5for?5?$CFs@ 000000014006efb0     pjsip-core-x86_64-x64-vc14-release:sip_ua_layer.obj
 0002:00002fd0       ??_C@_0EC@DDCMMPIA@Received?5strayed?52xx?5response?5?$CI@ 000000014006efd0     pjsip-core-x86_64-x64-vc14-release:sip_ua_layer.obj
 0002:00003018       ??_C@_0CK@KFGINAJM@Received?5forked?5?$CFs?5for?5existing@ 000000014006f018     pjsip-core-x86_64-x64-vc14-release:sip_ua_layer.obj
 0002:00003050       ??_C@_0FB@ELNGKJEC@Unhandled?5forked?5?$CFs?5from?5?$CFs?3?$CFd?0@ 000000014006f050     pjsip-core-x86_64-x64-vc14-release:sip_ua_layer.obj
 0002:000030a4       ??_C@_02DKCKIIND@?$CFs@    000000014006f0a4     pjsip-core-x86_64-x64-vc14-release:sip_ua_layer.obj
 0002:000030b8       ??_C@_09NMAFIJHB@SUBSCRIBE@ 000000014006f0b8     pjsip-core-x86_64-x64-vc14-release:sip_dialog.obj
 0002:000030c4       ??_C@_05NPMLFHIF@REFER@    000000014006f0c4     pjsip-core-x86_64-x64-vc14-release:sip_dialog.obj
 0002:000030cc       ??_C@_06LMEIPPMP@NOTIFY@   000000014006f0cc     pjsip-core-x86_64-x64-vc14-release:sip_dialog.obj
 0002:000030d8       ??_C@_0BC@JFFBENNO@Dialog?5destroyed?$CB@ 000000014006f0d8     pjsip-core-x86_64-x64-vc14-release:sip_dialog.obj
 0002:000030ec       ??_C@_05DGNCLLBL@dlg?$CFp@ 000000014006f0ec     pjsip-core-x86_64-x64-vc14-release:sip_dialog.obj
 0002:000030f8       ??_C@_0BD@BNDBFEIG@UAC?5dialog?5created@ 000000014006f0f8     pjsip-core-x86_64-x64-vc14-release:sip_dialog.obj
 0002:00003110       ??_C@_0BD@KGAMNPL@UAS?5dialog?5created@ 000000014006f110     pjsip-core-x86_64-x64-vc14-release:sip_dialog.obj
 0002:00003128       ??_C@_0CA@PEKDEADC@Session?5count?5inc?5to?5?$CFd?5by?5?$CF?4?$CKs@ 000000014006f128     pjsip-core-x86_64-x64-vc14-release:sip_dialog.obj
 0002:00003148       ??_C@_0CA@LCICJLMD@Session?5count?5dec?5to?5?$CFd?5by?5?$CF?4?$CKs@ 000000014006f148     pjsip-core-x86_64-x64-vc14-release:sip_dialog.obj
 0002:00003168       ??_C@_0CL@CCAGPMOP@Module?5?$CF?4?$CKs?5added?5as?5dialog?5usa@ 000000014006f168     pjsip-core-x86_64-x64-vc14-release:sip_dialog.obj
 0002:000031a0       ??_C@_0EF@MJEHGCLG@Module?5?$CF?4?$CKs?5already?5registered?5@ 000000014006f1a0     pjsip-core-x86_64-x64-vc14-release:sip_dialog.obj
 0002:000031e8       ??_C@_0N@KJDPOPHI@sip_dialog?4c@ 000000014006f1e8     pjsip-core-x86_64-x64-vc14-release:sip_dialog.obj
 0002:000031f8       ??_C@_0BD@BIMNNBFF@Failed?5to?5send?5?$CFs?$CB@ 000000014006f1f8     pjsip-core-x86_64-x64-vc14-release:sip_dialog.obj
 0002:00003210       ??_C@_0M@LHPMKMAE@Received?5?$CFs@ 000000014006f210     pjsip-core-x86_64-x64-vc14-release:sip_dialog.obj
 0002:00003220       ??_C@_0N@JADHANJP@Invalid?5CSeq@ 000000014006f220     pjsip-core-x86_64-x64-vc14-release:sip_dialog.obj
 0002:00003230       ??_C@_0BL@HAJOOCAF@Unhandled?5by?5dialog?5usages@ 000000014006f230     pjsip-core-x86_64-x64-vc14-release:sip_dialog.obj
 0002:00003250       ??_C@_0DI@GPBFFFGN@?$CFs?5was?5unhandled?5by?5dialog?5usag@ 000000014006f250     pjsip-core-x86_64-x64-vc14-release:sip_dialog.obj
 0002:00003288       ??_C@_0BC@PCHBAKGP@Route?9set?5updated@ 000000014006f288     pjsip-core-x86_64-x64-vc14-release:sip_dialog.obj
 0002:000032a0       ??_C@_0BB@EMPDFCEJ@Route?9set?5frozen@ 000000014006f2a0     pjsip-core-x86_64-x64-vc14-release:sip_dialog.obj
 0002:000032b8       ??_C@_0CD@PIHECLAB@Transaction?5?$CFs?5state?5changed?5to@ 000000014006f2b8     pjsip-core-x86_64-x64-vc14-release:sip_dialog.obj
 0002:000032e0       ??_C@_0BB@JCEFLFJE@0123456789abcdef@ 000000014006f2e0     pjsip-core-x86_64-x64-vc14-release:sip_auth_client.obj
 0002:000032f4       ??_C@_01JLIPDDHJ@?3@       000000014006f2f4     pjsip-core-x86_64-x64-vc14-release:sip_auth_client.obj
 0002:000032f8       ??_C@_09BBOOBJFI@AKAv1?9MD5@ 000000014006f2f8     pjsip-core-x86_64-x64-vc14-release:sip_auth_client.obj
 0002:00003308       ??_C@_0CE@PAGGDDKM@Unsupported?5digest?5algorithm?5?$CC?$CF@ 000000014006f308     pjsip-core-x86_64-x64-vc14-release:sip_auth_client.obj
 0002:00003330       ??_C@_0BC@IFICLNCF@sip_auth_client?4c@ 000000014006f330     pjsip-core-x86_64-x64-vc14-release:sip_auth_client.obj
 0002:00003344       ??_C@_04LIOHGJKM@?$CF08u@  000000014006f344     pjsip-core-x86_64-x64-vc14-release:sip_auth_client.obj
 0002:0000334c       ??_C@_06DKDPJBDF@b39971@   000000014006f34c     pjsip-core-x86_64-x64-vc14-release:sip_auth_client.obj
 0002:00003358       ??_C@_0BL@DHABBKFJ@Unsupported?5qop?5offer?5?$CF?4?$CKs@ 000000014006f358     pjsip-core-x86_64-x64-vc14-release:sip_auth_client.obj
 0002:00003378       ??_C@_0L@OLKLFLHC@auth_cli?$CFp@ 000000014006f378     pjsip-core-x86_64-x64-vc14-release:sip_auth_client.obj
 0002:00003390       ??_C@_0EF@GMAJJJPM@Authorization?5failed?5for?5?$CF?4?$CKs?$EA?$CF@ 000000014006f390     pjsip-core-x86_64-x64-vc14-release:sip_auth_client.obj
 0002:000033e0       ??_C@_0EN@FFFABAE@Authorization?5failed?5for?5?$CF?4?$CKs?$EA?$CF@ 000000014006f3e0     pjsip-core-x86_64-x64-vc14-release:sip_auth_client.obj
 0002:00003430       ??_C@_0EB@PMHMAEL@Unable?5to?5set?5auth?5for?5?$CFs?3?5can?5@ 000000014006f430     pjsip-core-x86_64-x64-vc14-release:sip_auth_client.obj
 0002:00003474       ??_C@_04CCHAHKJA@user@     000000014006f474     pjsip-core-x86_64-x64-vc14-release:sip_parser.obj
 0002:0000347c       ??_C@_06GABBCIBA@method@   000000014006f47c     pjsip-core-x86_64-x64-vc14-release:sip_parser.obj
 0002:00003488       ??_C@_09PBENLGJM@transport@ 000000014006f488     pjsip-core-x86_64-x64-vc14-release:sip_parser.obj
 0002:00003494       ??_C@_05LIJGAEPJ@maddr@    000000014006f494     pjsip-core-x86_64-x64-vc14-release:sip_parser.obj
 0002:0000349c       ??_C@_02FMHKAPNN@lr@       000000014006f49c     pjsip-core-x86_64-x64-vc14-release:sip_parser.obj
 0002:000034a0       ??_C@_03LNLCDKEI@tel@      000000014006f4a0     pjsip-core-x86_64-x64-vc14-release:sip_parser.obj
 0002:000034a4       ??_C@_06KAEOJLJM@branch@   000000014006f4a4     pjsip-core-x86_64-x64-vc14-release:sip_parser.obj
 0002:000034ac       ??_C@_03KAFGPDAP@ttl@      000000014006f4ac     pjsip-core-x86_64-x64-vc14-release:sip_parser.obj
 0002:000034b0       ??_C@_08CIDECLFI@received@ 000000014006f4b0     pjsip-core-x86_64-x64-vc14-release:sip_parser.obj
 0002:000034bc       ??_C@_01IIACKFLH@q@        000000014006f4bc     pjsip-core-x86_64-x64-vc14-release:sip_parser.obj
 0002:000034c0       ??_C@_07MJGJEDBB@expires@  000000014006f4c0     pjsip-core-x86_64-x64-vc14-release:sip_parser.obj
 0002:000034c8       ??_C@_03FJEPELFP@tag@      000000014006f4c8     pjsip-core-x86_64-x64-vc14-release:sip_parser.obj
 0002:000034cc       ??_C@_05IOGGPFMA@rport@    000000014006f4cc     pjsip-core-x86_64-x64-vc14-release:sip_parser.obj
 0002:000034e0       ??_C@_0EG@NDDOOCLK@NULL?5input?5string?0?5invalid?5inpu@ 000000014006f4e0     pjsip-core-x86_64-x64-vc14-release:sip_parser.obj
 0002:00003528       ??_C@_0DG@PAKEPEOC@String?5value?5was?5less?5than?5the?5@ 000000014006f528     pjsip-core-x86_64-x64-vc14-release:sip_parser.obj
 0002:00003560       ??_C@_0DJ@LBDEGIMP@String?5value?5was?5greater?5than?5t@ 000000014006f560     pjsip-core-x86_64-x64-vc14-release:sip_parser.obj
 0002:000035a0       ??_C@_0O@NIPGCINC@Unknown?5error@ 000000014006f5a0     pjsip-core-x86_64-x64-vc14-release:sip_parser.obj
 0002:000035b0       ??_C@_0BJ@JCIGOHAI@Error?5parsing?5?8?$CF?4?$CKs?8?3?5?$CFs@ 000000014006f5b0     pjsip-core-x86_64-x64-vc14-release:sip_parser.obj
 0002:000035d0       ??_C@_0N@CDHGOKB@sip_parser?4c@ 000000014006f5d0     pjsip-core-x86_64-x64-vc14-release:sip_parser.obj
 0002:000035e0       ??_C@_0BN@NMLJIDND@Can?8t?5parse?5input?5string?3?5?$CFs@ 000000014006f5e0     pjsip-core-x86_64-x64-vc14-release:sip_parser.obj
 0002:00003600       ??_C@_0BD@IGJCFAAL@PJSIP?5syntax?5error@ 000000014006f600     pjsip-core-x86_64-x64-vc14-release:sip_parser.obj
 0002:00003618       ??_C@_0BK@PNNGKLIN@PJSIP?5invalid?5value?5error@ 000000014006f618     pjsip-core-x86_64-x64-vc14-release:sip_parser.obj
 0002:00003634       ??_C@_02PCIJFNDE@?$AN?6@   000000014006f634     pjsip-core-x86_64-x64-vc14-release:sip_parser.obj
 0002:00003638       ??_C@_03MGGIELLM@?0?$AN?6@ 000000014006f638     pjsip-core-x86_64-x64-vc14-release:sip_parser.obj
 0002:00003640       ??_C@_0L@LGCFMBHL@?9?4?$CB?$CF?$CK_?$GA?8?$HO?$CL@ 000000014006f640     pjsip-core-x86_64-x64-vc14-release:sip_parser.obj
 0002:0000364c       ??_C@_01FGNFDNOH@?$CF@     000000014006f64c     pjsip-core-x86_64-x64-vc14-release:sip_parser.obj
 0002:00003650       ??_C@_03OEFOOLBP@?$FL?3?$FN@ 000000014006f650     pjsip-core-x86_64-x64-vc14-release:sip_parser.obj
 0002:00003654       ??_C@_03HGEHODII@_?9?4@    000000014006f654     pjsip-core-x86_64-x64-vc14-release:sip_parser.obj
 0002:00003658       ??_C@_0N@INHGOOCE@abcdefABCDEF@ 000000014006f658     pjsip-core-x86_64-x64-vc14-release:sip_parser.obj
 0002:00003668       ??_C@_0BC@EIHPKHIH@?$FL?$FN?1?3?$CG?$CL$?9_?4?$CB?$HO?$CK?8?$CI?$CJ?$CF@ 000000014006f668     pjsip-core-x86_64-x64-vc14-release:sip_parser.obj
 0002:00003680       ??_C@_0BC@DHLPLEEN@?$FL?$FN?1?$DP?3?$CL$?9_?4?$CB?$HO?$CK?8?$CI?$CJ?$CF@ 000000014006f680     pjsip-core-x86_64-x64-vc14-release:sip_parser.obj
 0002:00003698       ??_C@_0BD@FAKEDBHK@?9_?4?$CB?$HO?$CK?8?$CI?$CJ?$CF?$CG?$DN?$CL$?0?$DL?$DP?1@ 000000014006f698     pjsip-core-x86_64-x64-vc14-release:sip_parser.obj
 0002:000036ac       ??_C@_01IPJKGB@?$CD@       000000014006f6ac     pjsip-core-x86_64-x64-vc14-release:sip_parser.obj
 0002:000036b0       ??_C@_0BA@GJPAFF@?9_?4?$CB?$HO?$CK?8?$CI?$CJ?$CF?$CG?$DN?$CL$?0@ 000000014006f6b0     pjsip-core-x86_64-x64-vc14-release:sip_parser.obj
 0002:000036c0       ??_C@_04INEOGBDO@?$EA?5?6?$DO@ 000000014006f6c0     pjsip-core-x86_64-x64-vc14-release:sip_parser.obj
 0002:000036c8       ??_C@_04FOECIMDB@?3?$AN?6?$DM@ 000000014006f6c8     pjsip-core-x86_64-x64-vc14-release:sip_parser.obj
 0002:000036d0       ??_C@_0BH@KMKLEGFJ@?$CD?$DP?$DL?3?$EA?$CG?$DN?$CL?9_?4?$CB?$HO?$CK?8?$CI?$CJ?$CF$?0?1?$CF@ 000000014006f6d0     pjsip-core-x86_64-x64-vc14-release:sip_parser.obj
 0002:000036e8       ??_C@_03EDDBLLFO@?6?$AN?6@ 000000014006f6e8     pjsip-core-x86_64-x64-vc14-release:sip_parser.obj
 0002:000036ec       ??_C@_03MCPDGLLE@SIP@      000000014006f6ec     pjsip-core-x86_64-x64-vc14-release:sip_parser.obj
 0002:000036f0       ??_C@_03GJAMENNA@2?40@     000000014006f6f0     pjsip-core-x86_64-x64-vc14-release:sip_parser.obj
 0002:000036f8       ??_C@_0N@KMCODECP@Request?5Line@ 000000014006f6f8     pjsip-core-x86_64-x64-vc14-release:sip_parser.obj
 0002:00003708       ??_C@_0M@KNCMEJPH@Status?5Line@ 000000014006f708     pjsip-core-x86_64-x64-vc14-release:sip_parser.obj
 0002:00003714       ??_C@_01CLKCMJKC@?5@       000000014006f714     pjsip-core-x86_64-x64-vc14-release:sip_parser.obj
 0002:00003718       ??_C@_0CM@MBFLJJMP@Error?5parsing?5header?3?5?8?$CF?4?$CKs?8?5li@ 000000014006f718     pjsip-core-x86_64-x64-vc14-release:sip_parser.obj
 0002:00003748       ??_C@_08KIKGFOKI@boundary@ 000000014006f748     pjsip-core-x86_64-x64-vc14-release:sip_multipart.obj
 0002:00003758       ??_C@_0CI@MEJEAPPA@Warning?3?5error?5parsing?5multipar@ 000000014006f758     pjsip-core-x86_64-x64-vc14-release:sip_multipart.obj
 0002:00003780       ??_C@_0BA@LBAHDFBC@sip_multipart?4c@ 000000014006f780     pjsip-core-x86_64-x64-vc14-release:sip_multipart.obj
 0002:00003790       ??_C@_06IJPNAHC@digest@    000000014006f790     pjsip-core-x86_64-x64-vc14-release:sip_multipart.obj
 0002:00003798       ??_C@_07ONPBMBOP@message@  000000014006f798     pjsip-core-x86_64-x64-vc14-release:sip_multipart.obj
 0002:000037a0       ??_C@_06OGFLLFJI@rfc822@   000000014006f7a0     pjsip-core-x86_64-x64-vc14-release:sip_multipart.obj
 0002:000037b0       ??_C@_0FD@FFFCNLOH@Warning?3?5boundary?5parameter?5not@ 000000014006f7b0     pjsip-core-x86_64-x64-vc14-release:sip_multipart.obj
 0002:00003810       ??_C@_0EO@HHPEFGCJ@Error?3?5multipart?5boundary?5not?5s@ 000000014006f810     pjsip-core-x86_64-x64-vc14-release:sip_multipart.obj
 0002:00003860       ??_C@_06BMAPCEPF@?$DLuser?$DN@ 000000014006f860     pjsip-core-x86_64-x64-vc14-release:sip_uri.obj
 0002:00003868       ??_C@_0M@OGEJDPOO@?$DLtransport?$DN@ 000000014006f868     pjsip-core-x86_64-x64-vc14-release:sip_uri.obj
 0002:00003874       ??_C@_03KFFFHGHD@?$DLlr@   000000014006f874     pjsip-core-x86_64-x64-vc14-release:sip_uri.obj
 0002:00003880       ??_C@_0FJ@MFGCGKIL@DNS?5resolver?5not?5available?0?5tar@ 000000014006f880     pjsip-core-x86_64-x64-vc14-release:sip_resolve.obj
 0002:000038e0       ??_C@_0O@DMBGNNMG@sip_resolve?4c@ 000000014006f8e0     pjsip-core-x86_64-x64-vc14-release:sip_resolve.obj
 0002:000038f0       ??_C@_0DH@DPGIKKNN@Target?5?8?$CF?4?$CKs?3?$CFd?8?5type?$DN?$CFs?5resolv@ 000000014006f8f0     pjsip-core-x86_64-x64-vc14-release:sip_resolve.obj
 0002:00003928       ??_C@_0M@EKOGDFHO@_sips?4_tcp?4@ 000000014006f928     pjsip-core-x86_64-x64-vc14-release:sip_resolve.obj
 0002:00003938       ??_C@_0L@CGLNHIHI@_sip?4_tcp?4@ 000000014006f938     pjsip-core-x86_64-x64-vc14-release:sip_resolve.obj
 0002:00003948       ??_C@_0L@IGAKGJHB@_sip?4_udp?4@ 000000014006f948     pjsip-core-x86_64-x64-vc14-release:sip_resolve.obj
 0002:00003960       ??_C@_0EE@KKBDDFND@Starting?5async?5DNS?5?$CFs?5query?3?5ta@ 000000014006f960     pjsip-core-x86_64-x64-vc14-release:sip_resolve.obj
 0002:000039a8       ??_C@_0BJ@LIPABGDO@Failed?5to?5resolve?5?8?$CF?4?$CKs?8@ 000000014006f9a8     pjsip-core-x86_64-x64-vc14-release:sip_resolve.obj
 0002:000039c8       ??_C@_0BP@NGGNJHPJ@DNS?5A?5record?5resolution?5failed@ 000000014006f9c8     pjsip-core-x86_64-x64-vc14-release:sip_resolve.obj
 0002:000039e8       ??_C@_0CC@PEAOFPBC@DNS?5AAAA?5record?5resolution?5fail@ 000000014006f9e8     pjsip-core-x86_64-x64-vc14-release:sip_resolve.obj
 0002:00003a10       ??_C@_0CE@PFLKGBGN@DNS?5A?1AAAA?5record?5resolution?5fa@ 000000014006fa10     pjsip-core-x86_64-x64-vc14-release:sip_resolve.obj
 0002:00003f10       ??_C@_0BN@NDHPCAAG@Object?5is?5busy?5?$CIPJSIP_EBUSY?$CJ@ 000000014006ff10     pjsip-core-x86_64-x64-vc14-release:sip_errno.obj
 0002:00003f30       ??_C@_0DF@LHIGDAHP@Object?5with?5the?5same?5type?5exist@ 000000014006ff30     pjsip-core-x86_64-x64-vc14-release:sip_errno.obj
 0002:00003f68       ??_C@_0CK@JJDNDGNE@SIP?5stack?5shutting?5down?5?$CIPJSIP_@ 000000014006ff68     pjsip-core-x86_64-x64-vc14-release:sip_errno.obj
 0002:00003f98       ??_C@_0DH@GEJHNFDM@SIP?5object?5is?5not?5initialized?4?5@ 000000014006ff98     pjsip-core-x86_64-x64-vc14-release:sip_errno.obj
 0002:00003fd0       ??_C@_0DF@DFCKLJD@Missing?5route?5set?5?$CIfor?5tel?3?5URI@ 000000014006ffd0     pjsip-core-x86_64-x64-vc14-release:sip_errno.obj
 0002:00004008       ??_C@_0DB@LNGCHBD@Invalid?5message?1syntax?5error?5?$CIP@ 0000000140070008     pjsip-core-x86_64-x64-vc14-release:sip_errno.obj
 0002:00004040       ??_C@_0DB@NNKMNMEK@Expecting?5request?5message?5?$CIPJSI@ 0000000140070040     pjsip-core-x86_64-x64-vc14-release:sip_errno.obj
 0002:00004078       ??_C@_0DD@MODFKCPK@Expecting?5response?5message?5?$CIPJS@ 0000000140070078     pjsip-core-x86_64-x64-vc14-release:sip_errno.obj
 0002:000040b0       ??_C@_0CF@NOACODOC@Message?5too?5long?5?$CIPJSIP_EMSGTOO@ 00000001400700b0     pjsip-core-x86_64-x64-vc14-release:sip_errno.obj
 0002:000040d8       ??_C@_0CE@FONCLLMK@Partial?5message?5?$CIPJSIP_EPARTIAL@ 00000001400700d8     pjsip-core-x86_64-x64-vc14-release:sip_errno.obj
 0002:00004100       ??_C@_0DK@HMGLEHFD@Invalid?1unexpected?5SIP?5status?5c@ 0000000140070100     pjsip-core-x86_64-x64-vc14-release:sip_errno.obj
 0002:00004140       ??_C@_0CA@ICJGNPBL@Invalid?5URI?5?$CIPJSIP_EINVALIDURI?$CJ@ 0000000140070140     pjsip-core-x86_64-x64-vc14-release:sip_errno.obj
 0002:00004160       ??_C@_0CK@PDIHHAGH@Invalid?5URI?5scheme?5?$CIPJSIP_EINVA@ 0000000140070160     pjsip-core-x86_64-x64-vc14-release:sip_errno.obj
 0002:00004190       ??_C@_0CL@FGPCAKCH@Missing?5Request?9URI?5?$CIPJSIP_EMIS@ 0000000140070190     pjsip-core-x86_64-x64-vc14-release:sip_errno.obj
 0002:000041c0       ??_C@_0CL@JOKFDOLI@Invalid?5Request?5URI?5?$CIPJSIP_EINV@ 00000001400701c0     pjsip-core-x86_64-x64-vc14-release:sip_errno.obj
 0002:000041f0       ??_C@_0CE@NBJPLEOO@URI?5is?5too?5long?5?$CIPJSIP_EURITOOL@ 00000001400701f0     pjsip-core-x86_64-x64-vc14-release:sip_errno.obj
 0002:00004218       ??_C@_0CP@PNHNBIME@Missing?5required?5header?$CIs?$CJ?5?$CIPJS@ 0000000140070218     pjsip-core-x86_64-x64-vc14-release:sip_errno.obj
 0002:00004248       ??_C@_0CJ@GFIBJIAO@Invalid?5header?5field?5?$CIPJSIP_EIN@ 0000000140070248     pjsip-core-x86_64-x64-vc14-release:sip_errno.obj
 0002:00004278       ??_C@_0CH@NDGOCBBP@Invalid?5Via?5header?5?$CIPJSIP_EINVA@ 0000000140070278     pjsip-core-x86_64-x64-vc14-release:sip_errno.obj
 0002:000042a0       ??_C@_0DG@HLMABLPG@Multiple?5Via?5headers?5in?5respons@ 00000001400702a0     pjsip-core-x86_64-x64-vc14-release:sip_errno.obj
 0002:000042d8       ??_C@_0CK@LJCOFGPN@Missing?5message?5body?5?$CIPJSIP_EMI@ 00000001400702d8     pjsip-core-x86_64-x64-vc14-release:sip_errno.obj
 0002:00004308       ??_C@_0DB@NINEONMP@Invalid?1unexpected?5method?5?$CIPJSI@ 0000000140070308     pjsip-core-x86_64-x64-vc14-release:sip_errno.obj
 0002:00004340       ??_C@_0CO@MKNJKJDL@Unsupported?5transport?5?$CIPJSIP_EU@ 0000000140070340     pjsip-core-x86_64-x64-vc14-release:sip_errno.obj
 0002:00004370       ??_C@_0DD@FMJGJHHJ@Transmit?5buffer?5already?5pending@ 0000000140070370     pjsip-core-x86_64-x64-vc14-release:sip_errno.obj
 0002:000043a8       ??_C@_0CH@FGKEPDFL@Rx?5buffer?5overflow?5?$CIPJSIP_ERXOV@ 00000001400703a8     pjsip-core-x86_64-x64-vc14-release:sip_errno.obj
 0002:000043d0       ??_C@_0CH@IPJBAOPN@Buffer?5destroyed?5?$CIPJSIP_EBUFDES@ 00000001400703d0     pjsip-core-x86_64-x64-vc14-release:sip_errno.obj
 0002:000043f8       ??_C@_0DF@PBAMDOH@Unsuitable?5transport?5selected?5?$CI@ 00000001400703f8     pjsip-core-x86_64-x64-vc14-release:sip_errno.obj
 0002:00004430       ??_C@_0DE@NJLNEKOM@Transport?5not?5available?5for?5use@ 0000000140070430     pjsip-core-x86_64-x64-vc14-release:sip_errno.obj
 0002:00004468       ??_C@_0DF@DPMOHHML@Transaction?5has?5been?5destroyed?5@ 0000000140070468     pjsip-core-x86_64-x64-vc14-release:sip_errno.obj
 0002:000044a0       ??_C@_0FM@JGDLJGMK@No?5transaction?5is?5associated?5wi@ 00000001400704a0     pjsip-core-x86_64-x64-vc14-release:sip_errno.obj
 0002:00004500       ??_C@_0CH@EBPFAGMB@URI?5scheme?5mismatch?5?$CIPJSIP_ECMP@ 0000000140070500     pjsip-core-x86_64-x64-vc14-release:sip_errno.obj
 0002:00004528       ??_C@_0CI@DCNDLDIL@URI?5user?5part?5mismatch?5?$CIPJSIP_E@ 0000000140070528     pjsip-core-x86_64-x64-vc14-release:sip_errno.obj
 0002:00004550       ??_C@_0CO@NLCBDNGP@URI?5password?5part?5mismatch?5?$CIPJS@ 0000000140070550     pjsip-core-x86_64-x64-vc14-release:sip_errno.obj
 0002:00004580       ??_C@_0CI@CAAENIBN@URI?5host?5part?5mismatch?5?$CIPJSIP_E@ 0000000140070580     pjsip-core-x86_64-x64-vc14-release:sip_errno.obj
 0002:000045a8       ??_C@_0CD@LGFLCNGN@URI?5port?5mismatch?5?$CIPJSIP_ECMPPO@ 00000001400705a8     pjsip-core-x86_64-x64-vc14-release:sip_errno.obj
 0002:000045d0       ??_C@_0DG@KAIIGJOM@URI?5transport?5param?5mismatch?5?$CIP@ 00000001400705d0     pjsip-core-x86_64-x64-vc14-release:sip_errno.obj
 0002:00004608       ??_C@_0CM@PONOAHFI@URI?5ttl?5param?5mismatch?5?$CIPJSIP_E@ 0000000140070608     pjsip-core-x86_64-x64-vc14-release:sip_errno.obj
 0002:00004638       ??_C@_0CO@PNILAMMK@URI?5user?5param?5mismatch?5?$CIPJSIP_@ 0000000140070638     pjsip-core-x86_64-x64-vc14-release:sip_errno.obj
 0002:00004668       ??_C@_0DC@BPANLPFC@URI?5method?5param?5mismatch?5?$CIPJSI@ 0000000140070668     pjsip-core-x86_64-x64-vc14-release:sip_errno.obj
 0002:000046a0       ??_C@_0DA@HIHPGKKA@URI?5maddr?5param?5mismatch?5?$CIPJSIP@ 00000001400706a0     pjsip-core-x86_64-x64-vc14-release:sip_errno.obj
 0002:000046d0       ??_C@_0DA@DADPPELC@URI?5other?5param?5mismatch?5?$CIPJSIP@ 00000001400706d0     pjsip-core-x86_64-x64-vc14-release:sip_errno.obj
 0002:00004700       ??_C@_0DG@CFNMFPOM@URI?5header?5parameter?5mismatch?5?$CI@ 0000000140070700     pjsip-core-x86_64-x64-vc14-release:sip_errno.obj
 0002:00004738       ??_C@_0DM@LOOBEDNN@Credential?5failed?5to?5authentica@ 0000000140070738     pjsip-core-x86_64-x64-vc14-release:sip_errno.obj
 0002:00004778       ??_C@_0CN@IIEEILJJ@No?5suitable?5credential?5?$CIPJSIP_E@ 0000000140070778     pjsip-core-x86_64-x64-vc14-release:sip_errno.obj
 0002:000047a8       ??_C@_0DP@NGPGIDFF@Invalid?1unsupported?5digest?5algo@ 00000001400707a8     pjsip-core-x86_64-x64-vc14-release:sip_errno.obj
 0002:000047e8       ??_C@_0DD@GJOGBLMF@Invalid?1unsupported?5digest?5qop?5@ 00000001400707e8     pjsip-core-x86_64-x64-vc14-release:sip_errno.obj
 0002:00004820       ??_C@_0DN@GPEKONDD@Unsupported?5authentication?5sche@ 0000000140070820     pjsip-core-x86_64-x64-vc14-release:sip_errno.obj
 0002:00004860       ??_C@_0CO@BMGFFPME@No?5previous?5challenge?5?$CIPJSIP_EA@ 0000000140070860     pjsip-core-x86_64-x64-vc14-release:sip_errno.obj
 0002:00004890       ??_C@_0DF@DNNICPPN@No?5suitable?5authorization?5heade@ 0000000140070890     pjsip-core-x86_64-x64-vc14-release:sip_errno.obj
 0002:000048c8       ??_C@_0DJ@LPEDCKOO@Account?5or?5credential?5not?5found@ 00000001400708c8     pjsip-core-x86_64-x64-vc14-release:sip_errno.obj
 0002:00004908       ??_C@_0DL@CMLHLLPG@Account?5or?5credential?5is?5disabl@ 0000000140070908     pjsip-core-x86_64-x64-vc14-release:sip_errno.obj
 0002:00004948       ??_C@_0DG@HIIKPIBJ@Invalid?5authorization?5realm?5?$CIPJ@ 0000000140070948     pjsip-core-x86_64-x64-vc14-release:sip_errno.obj
 0002:00004980       ??_C@_0DI@MHHCMF@Invalid?5authorization?5digest?5?$CIP@ 0000000140070980     pjsip-core-x86_64-x64-vc14-release:sip_errno.obj
 0002:000049c0       ??_C@_0EB@JCHOOAEG@Maximum?5number?5of?5stale?5retries@ 00000001400709c0     pjsip-core-x86_64-x64-vc14-release:sip_errno.obj
 0002:00004a10       ??_C@_0EF@LIONEPAL@Invalid?5nonce?5value?5in?5authenti@ 0000000140070a10     pjsip-core-x86_64-x64-vc14-release:sip_errno.obj
 0002:00004a58       ??_C@_0CO@PNJFNJKN@Invalid?5AKA?5credential?5?$CIPJSIP_E@ 0000000140070a58     pjsip-core-x86_64-x64-vc14-release:sip_errno.obj
 0002:00004a88       ??_C@_0CK@IIJPHHCN@No?5challenge?5is?5found?5?$CIPJSIP_EA@ 0000000140070a88     pjsip-core-x86_64-x64-vc14-release:sip_errno.obj
 0002:00004ab8       ??_C@_0DC@HLPJEBKI@Missing?5From?1To?5tag?5parameter?5?$CI@ 0000000140070ab8     pjsip-core-x86_64-x64-vc14-release:sip_errno.obj
 0002:00004af0       ??_C@_0CK@NLEHMEII@Expecting?5REFER?5request?5?$CIPJSIP_@ 0000000140070af0     pjsip-core-x86_64-x64-vc14-release:sip_errno.obj
 0002:00004b20       ??_C@_0DP@GMKFENNH@Not?5associated?5with?5REFER?5subsc@ 0000000140070b20     pjsip-core-x86_64-x64-vc14-release:sip_errno.obj
 0002:00004b60       ??_C@_0DN@EOKOKJCK@INVITE?5session?5already?5terminat@ 0000000140070b60     pjsip-core-x86_64-x64-vc14-release:sip_errno.obj
 0002:00004ba0       ??_C@_0DD@DMBFAKPC@Invalid?5INVITE?5session?5state?5?$CIP@ 0000000140070ba0     pjsip-core-x86_64-x64-vc14-release:sip_errno.obj
 0002:00004bd8       ??_C@_0DK@CJAGEDOD@Require?5secure?5session?1transpor@ 0000000140070bd8     pjsip-core-x86_64-x64-vc14-release:sip_errno.obj
 0002:00004c18       ??_C@_0CH@HBADBAEP@Unknown?5TLS?5error?5?$CIPJSIP_TLS_EU@ 0000000140070c18     pjsip-core-x86_64-x64-vc14-release:sip_errno.obj
 0002:00004c40       ??_C@_0DD@NFLPGFPJ@Invalid?5SSL?5protocol?5method?5?$CIPJ@ 0000000140070c40     pjsip-core-x86_64-x64-vc14-release:sip_errno.obj
 0002:00004c78       ??_C@_0DN@LHDHPIOK@Error?5loading?1verifying?5SSL?5CA?5@ 0000000140070c78     pjsip-core-x86_64-x64-vc14-release:sip_errno.obj
 0002:00004cb8       ??_C@_0DP@NPMNFNID@Error?5loading?5SSL?5certificate?5c@ 0000000140070cb8     pjsip-core-x86_64-x64-vc14-release:sip_errno.obj
 0002:00004d00       ??_C@_0EI@PNDINLEB@Error?5adding?5private?5key?5from?5S@ 0000000140070d00     pjsip-core-x86_64-x64-vc14-release:sip_errno.obj
 0002:00004d48       ??_C@_0DC@HMDIEPNK@Error?5setting?5SSL?5cipher?5list?5?$CI@ 0000000140070d48     pjsip-core-x86_64-x64-vc14-release:sip_errno.obj
 0002:00004d80       ??_C@_0CM@KJHKFFIL@Error?5creating?5SSL?5context?5?$CIPJS@ 0000000140070d80     pjsip-core-x86_64-x64-vc14-release:sip_errno.obj
 0002:00004db0       ??_C@_0DK@GBGOJKMK@Error?5creating?5SSL?5connection?5o@ 0000000140070db0     pjsip-core-x86_64-x64-vc14-release:sip_errno.obj
 0002:00004df0       ??_C@_0EB@LOJLDGBN@Unknown?5error?5when?5performing?5S@ 0000000140070df0     pjsip-core-x86_64-x64-vc14-release:sip_errno.obj
 0002:00004e38       ??_C@_0DP@CGFDGHCM@Unknown?5error?5when?5performing?5S@ 0000000140070e38     pjsip-core-x86_64-x64-vc14-release:sip_errno.obj
 0002:00004e78       ??_C@_0DG@LGELLHGA@Unknown?5error?5when?5sending?5SSL?5@ 0000000140070e78     pjsip-core-x86_64-x64-vc14-release:sip_errno.obj
 0002:00004eb0       ??_C@_0DG@GNCBAFL@Unknown?5error?5when?5reading?5SSL?5@ 0000000140070eb0     pjsip-core-x86_64-x64-vc14-release:sip_errno.obj
 0002:00004ee8       ??_C@_0DE@NMMHGAJD@SSL?5negotiation?5has?5timed?5out?5?$CI@ 0000000140070ee8     pjsip-core-x86_64-x64-vc14-release:sip_errno.obj
 0002:00004f20       ??_C@_0DK@PDMPPIHB@SSL?5certificate?5verification?5er@ 0000000140070f20     pjsip-core-x86_64-x64-vc14-release:sip_errno.obj
 0002:00004f60       ??_C@_0BH@IINGFMKF@Unknown?5pjsip?5error?5?$CFd@ 0000000140070f60     pjsip-core-x86_64-x64-vc14-release:sip_errno.obj
 0002:00004f78       ??_C@_04NBIELBDC@isub@     0000000140070f78     pjsip-core-x86_64-x64-vc14-release:sip_tel_uri.obj
 0002:00004f80       ??_C@_03MDPCKCMI@ext@      0000000140070f80     pjsip-core-x86_64-x64-vc14-release:sip_tel_uri.obj
 0002:00004f88       ??_C@_0O@IMLAOJJD@phone?9context@ 0000000140070f88     pjsip-core-x86_64-x64-vc14-release:sip_tel_uri.obj
 0002:00004f98       ??_C@_05OGMJFBEO@?$DLext?$DN@ 0000000140070f98     pjsip-core-x86_64-x64-vc14-release:sip_tel_uri.obj
 0002:00004fa0       ??_C@_06CECEBCPK@?$DLisub?$DN@ 0000000140070fa0     pjsip-core-x86_64-x64-vc14-release:sip_tel_uri.obj
 0002:00004fa8       ??_C@_0BA@JDMJBMEF@?$DLphone?9context?$DN@ 0000000140070fa8     pjsip-core-x86_64-x64-vc14-release:sip_tel_uri.obj
 0002:00004fb8       ??_C@_0P@KBNHNABO@0123456789?9?4?$CI?$CJ@ 0000000140070fb8     pjsip-core-x86_64-x64-vc14-release:sip_tel_uri.obj
 0002:00004fc8       ??_C@_0CM@MMELMJHM@0123456789aAbBcCdDeEfF?$CK?$CD?9?4?$CI?$CJ?$CL01@ 0000000140070fc8     pjsip-core-x86_64-x64-vc14-release:sip_tel_uri.obj
 0002:00004ff4       ??_C@_04DCHJLDOJ@?9?4?$CI?$CJ@ 0000000140070ff4     pjsip-core-x86_64-x64-vc14-release:sip_tel_uri.obj
 0002:00005000       ??_C@_0BA@NHFLMIGM@?$CL0123456789?9?4?$CI?$CJ@ 0000000140071000     pjsip-core-x86_64-x64-vc14-release:sip_tel_uri.obj
 0002:00005010       ??_C@_0BP@LJHGJILO@?1?3?$EA?$CG$?0?$CL0123456789?9_?4?$CB?$HO?$CK?8?$CI?$CJ?$CF?$FL?$FN?$CL@ 0000000140071010     pjsip-core-x86_64-x64-vc14-release:sip_tel_uri.obj
 0002:00005030       ??_C@_01JOAMLHOP@?9@       0000000140071030     pjsip-core-x86_64-x64-vc14-release:sip_tel_uri.obj
 0002:00005038       ??_C@_0BM@IILGPONN@?$FL?$FN?1?3?$CG?$CL$0123456789?9_?4?$CB?$HO?$CK?8?$CI?$CJ?$CF@ 0000000140071038     pjsip-core-x86_64-x64-vc14-release:sip_tel_uri.obj
 0002:00005054       ??_C@_01NEMOKFLO@?$DN@     0000000140071054     pjsip-core-x86_64-x64-vc14-release:sip_tel_uri.obj
 0002:00005058       ??_C@_0BC@OBBFELDN@mod?9stateful?9util@ 0000000140071058     pjsip-core-x86_64-x64-vc14-release:sip_util_statefull.obj
 0002:00005070       ??_C@_09FNNDBHOE@username?$DN@ 0000000140071070     pjsip-core-x86_64-x64-vc14-release:sip_auth_msg.obj
 0002:0000507c       ??_C@_06LAMIMJOG@?0?5uri?$DN@ 000000014007107c     pjsip-core-x86_64-x64-vc14-release:sip_auth_msg.obj
 0002:00005088       ??_C@_0M@LHKMMNIM@?0?5response?$DN@ 0000000140071088     pjsip-core-x86_64-x64-vc14-release:sip_auth_msg.obj
 0002:00005098       ??_C@_0N@CGBNHFEJ@?0?5algorithm?$DN@ 0000000140071098     pjsip-core-x86_64-x64-vc14-release:sip_auth_msg.obj
 0002:000050a8       ??_C@_09JMMPALKP@?0?5cnonce?$DN@ 00000001400710a8     pjsip-core-x86_64-x64-vc14-release:sip_auth_msg.obj
 0002:000050b8       ??_C@_09FBEJJABD@?0?5opaque?$DN@ 00000001400710b8     pjsip-core-x86_64-x64-vc14-release:sip_auth_msg.obj
 0002:000050c4       ??_C@_06PEMMHIJL@?0?5qop?$DN@ 00000001400710c4     pjsip-core-x86_64-x64-vc14-release:sip_auth_msg.obj
 0002:000050cc       ??_C@_05EBCAJOC@?0?5nc?$DN@ 00000001400710cc     pjsip-core-x86_64-x64-vc14-release:sip_auth_msg.obj
 0002:000050d4       ??_C@_06EJKNIGMP@token?$DN@ 00000001400710d4     pjsip-core-x86_64-x64-vc14-release:sip_auth_msg.obj
 0002:000050e0       ??_C@_0M@FOCLKAFD@?0?5username?$DN@ 00000001400710e0     pjsip-core-x86_64-x64-vc14-release:sip_auth_msg.obj
 0002:000050ec       ??_C@_03NHCDCECM@pgp@      00000001400710ec     pjsip-core-x86_64-x64-vc14-release:sip_auth_msg.obj
 0002:000050f0       ??_C@_06LOBIHJOB@realm?$DN@ 00000001400710f0     pjsip-core-x86_64-x64-vc14-release:sip_auth_msg.obj
 0002:000050f8       ??_C@_07DNEKANAM@?0nonce?$DN@ 00000001400710f8     pjsip-core-x86_64-x64-vc14-release:sip_auth_msg.obj
 0002:00005100       ??_C@_04LOAJBDKD@true@     0000000140071100     pjsip-core-x86_64-x64-vc14-release:sip_auth_msg.obj
 0002:00005108       ??_C@_07IIGBIFNN@?0stale?$DN@ 0000000140071108     pjsip-core-x86_64-x64-vc14-release:sip_auth_msg.obj
 0002:00005110       ??_C@_0M@HOHCEKCL@?0algorithm?$DN@ 0000000140071110     pjsip-core-x86_64-x64-vc14-release:sip_auth_msg.obj
 0002:0000511c       ??_C@_05KHLNJFNF@?0qop?$DN@ 000000014007111c     pjsip-core-x86_64-x64-vc14-release:sip_auth_msg.obj
 0002:00005128       pjsip_USERNAME_STR         0000000140071128     pjsip-core-x86_64-x64-vc14-release:sip_auth_parser.obj
 0002:00005138       pjsip_REALM_STR            0000000140071138     pjsip-core-x86_64-x64-vc14-release:sip_auth_parser.obj
 0002:00005148       pjsip_NONCE_STR            0000000140071148     pjsip-core-x86_64-x64-vc14-release:sip_auth_parser.obj
 0002:00005158       pjsip_URI_STR              0000000140071158     pjsip-core-x86_64-x64-vc14-release:sip_auth_parser.obj
 0002:00005168       pjsip_RESPONSE_STR         0000000140071168     pjsip-core-x86_64-x64-vc14-release:sip_auth_parser.obj
 0002:00005178       pjsip_ALGORITHM_STR        0000000140071178     pjsip-core-x86_64-x64-vc14-release:sip_auth_parser.obj
 0002:00005188       pjsip_DOMAIN_STR           0000000140071188     pjsip-core-x86_64-x64-vc14-release:sip_auth_parser.obj
 0002:00005198       pjsip_STALE_STR            0000000140071198     pjsip-core-x86_64-x64-vc14-release:sip_auth_parser.obj
 0002:000051a8       pjsip_QOP_STR              00000001400711a8     pjsip-core-x86_64-x64-vc14-release:sip_auth_parser.obj
 0002:000051b8       pjsip_CNONCE_STR           00000001400711b8     pjsip-core-x86_64-x64-vc14-release:sip_auth_parser.obj
 0002:000051c8       pjsip_OPAQUE_STR           00000001400711c8     pjsip-core-x86_64-x64-vc14-release:sip_auth_parser.obj
 0002:000051d8       pjsip_NC_STR               00000001400711d8     pjsip-core-x86_64-x64-vc14-release:sip_auth_parser.obj
 0002:000051e8       pjsip_TRUE_STR             00000001400711e8     pjsip-core-x86_64-x64-vc14-release:sip_auth_parser.obj
 0002:000051f8       pjsip_FALSE_STR            00000001400711f8     pjsip-core-x86_64-x64-vc14-release:sip_auth_parser.obj
 0002:00005208       pjsip_DIGEST_STR           0000000140071208     pjsip-core-x86_64-x64-vc14-release:sip_auth_parser.obj
 0002:00005218       pjsip_PGP_STR              0000000140071218     pjsip-core-x86_64-x64-vc14-release:sip_auth_parser.obj
 0002:00005228       pjsip_BEARER_STR           0000000140071228     pjsip-core-x86_64-x64-vc14-release:sip_auth_parser.obj
 0002:00005238       pjsip_MD5_STR              0000000140071238     pjsip-core-x86_64-x64-vc14-release:sip_auth_parser.obj
 0002:00005248       pjsip_AUTH_STR             0000000140071248     pjsip-core-x86_64-x64-vc14-release:sip_auth_parser.obj
 0002:00005258       pjsip_QUOTED_TRUE_STR      0000000140071258     pjsip-core-x86_64-x64-vc14-release:sip_auth_parser.obj
 0002:00005268       pjsip_QUOTED_FALSE_STR     0000000140071268     pjsip-core-x86_64-x64-vc14-release:sip_auth_parser.obj
 0002:00005278       pjsip_QUOTED_DIGEST_STR    0000000140071278     pjsip-core-x86_64-x64-vc14-release:sip_auth_parser.obj
 0002:00005288       pjsip_QUOTED_PGP_STR       0000000140071288     pjsip-core-x86_64-x64-vc14-release:sip_auth_parser.obj
 0002:00005298       pjsip_QUOTED_MD5_STR       0000000140071298     pjsip-core-x86_64-x64-vc14-release:sip_auth_parser.obj
 0002:000052a8       pjsip_QUOTED_AUTH_STR      00000001400712a8     pjsip-core-x86_64-x64-vc14-release:sip_auth_parser.obj
 0002:000052b8       ??_C@_08ODGEKKOL@username@ 00000001400712b8     pjsip-core-x86_64-x64-vc14-release:sip_auth_parser.obj
 0002:000052c4       ??_C@_05ELABLNGD@realm@    00000001400712c4     pjsip-core-x86_64-x64-vc14-release:sip_auth_parser.obj
 0002:000052cc       ??_C@_05OOEDLKEB@nonce@    00000001400712cc     pjsip-core-x86_64-x64-vc14-release:sip_auth_parser.obj
 0002:000052d4       ??_C@_03GBBABMJN@uri@      00000001400712d4     pjsip-core-x86_64-x64-vc14-release:sip_auth_parser.obj
 0002:000052d8       ??_C@_08HKMEAON@response@  00000001400712d8     pjsip-core-x86_64-x64-vc14-release:sip_auth_parser.obj
 0002:000052e8       ??_C@_09JPNFBOJG@algorithm@ 00000001400712e8     pjsip-core-x86_64-x64-vc14-release:sip_auth_parser.obj
 0002:000052f4       ??_C@_06LKIIGAOE@domain@   00000001400712f4     pjsip-core-x86_64-x64-vc14-release:sip_auth_parser.obj
 0002:000052fc       ??_C@_05BFAEFKPM@stale@    00000001400712fc     pjsip-core-x86_64-x64-vc14-release:sip_auth_parser.obj
 0002:00005304       ??_C@_03GBIMBCPB@qop@      0000000140071304     pjsip-core-x86_64-x64-vc14-release:sip_auth_parser.obj
 0002:00005308       ??_C@_06HILDJCOE@cnonce@   0000000140071308     pjsip-core-x86_64-x64-vc14-release:sip_auth_parser.obj
 0002:00005310       ??_C@_06CJCOLNBB@opaque@   0000000140071310     pjsip-core-x86_64-x64-vc14-release:sip_auth_parser.obj
 0002:00005318       ??_C@_02MCHPIKD@nc@        0000000140071318     pjsip-core-x86_64-x64-vc14-release:sip_auth_parser.obj
 0002:0000531c       ??_C@_06JMFPOLAJ@?$CCtrue?$CC@ 000000014007131c     pjsip-core-x86_64-x64-vc14-release:sip_auth_parser.obj
 0002:00005324       ??_C@_05LAPONLG@false@     0000000140071324     pjsip-core-x86_64-x64-vc14-release:sip_auth_parser.obj
 0002:00005330       ??_C@_07MGKGDKEI@?$CCfalse?$CC@ 0000000140071330     pjsip-core-x86_64-x64-vc14-release:sip_auth_parser.obj
 0002:00005338       ??_C@_06MHCCOJOO@Digest@   0000000140071338     pjsip-core-x86_64-x64-vc14-release:sip_auth_parser.obj
 0002:00005340       ??_C@_08MPOLMKFE@?$CCDigest?$CC@ 0000000140071340     pjsip-core-x86_64-x64-vc14-release:sip_auth_parser.obj
 0002:0000534c       ??_C@_03NKNIOJFA@PGP@      000000014007134c     pjsip-core-x86_64-x64-vc14-release:sip_auth_parser.obj
 0002:00005350       ??_C@_05PBIHDNLO@?$CCPGP?$CC@ 0000000140071350     pjsip-core-x86_64-x64-vc14-release:sip_auth_parser.obj
 0002:00005358       ??_C@_06NPEPPOGN@Bearer@   0000000140071358     pjsip-core-x86_64-x64-vc14-release:sip_auth_parser.obj
 0002:00005360       ??_C@_03PKBIKOHH@md5@      0000000140071360     pjsip-core-x86_64-x64-vc14-release:sip_auth_parser.obj
 0002:00005364       ??_C@_05FEKNEIJC@?$CCmd5?$CC@ 0000000140071364     pjsip-core-x86_64-x64-vc14-release:sip_auth_parser.obj
 0002:0000536c       ??_C@_04DPLCCHJC@auth@     000000014007136c     pjsip-core-x86_64-x64-vc14-release:sip_auth_parser.obj
 0002:00005374       ??_C@_06MNAAFAAH@?$CCauth?$CC@ 0000000140071374     pjsip-core-x86_64-x64-vc14-release:sip_auth_parser.obj
 0002:00005440       ??_C@_0DC@MHBBCDGM@Unspecified?5audio?5device?5error?5@ 0000000140071440     pjmedia-audiodev-x86_64-x64-vc14-release:errno.obj
 0002:00005478       ??_C@_0DG@FEDKLOFB@Unknown?5error?5from?5audio?5driver@ 0000000140071478     pjmedia-audiodev-x86_64-x64-vc14-release:errno.obj
 0002:000054b0       ??_C@_0DE@DOHCBKFK@Audio?5subsystem?5not?5initialized@ 00000001400714b0     pjmedia-audiodev-x86_64-x64-vc14-release:errno.obj
 0002:000054e8       ??_C@_0CL@NCBJPCNF@Invalid?5audio?5device?5?$CIPJMEDIA_E@ 00000001400714e8     pjmedia-audiodev-x86_64-x64-vc14-release:errno.obj
 0002:00005518       ??_C@_0CM@LOPLLMHO@Found?5no?5audio?5devices?5?$CIPJMEDIA@ 0000000140071518     pjmedia-audiodev-x86_64-x64-vc14-release:errno.obj
 0002:00005548       ??_C@_0DM@DPDKGMIE@Unable?5to?5find?5default?5audio?5de@ 0000000140071548     pjmedia-audiodev-x86_64-x64-vc14-release:errno.obj
 0002:00005588       ??_C@_0CP@JIPJOIMB@Audio?5device?5not?5ready?5?$CIPJMEDIA@ 0000000140071588     pjmedia-audiodev-x86_64-x64-vc14-release:errno.obj
 0002:000055b8       ??_C@_0DO@NMIGLFFA@Invalid?5or?5unsupported?5audio?5ca@ 00000001400715b8     pjmedia-audiodev-x86_64-x64-vc14-release:errno.obj
 0002:00005600       ??_C@_0ED@PLJALPOA@Invalid?5or?5unsupported?5audio?5de@ 0000000140071600     pjmedia-audiodev-x86_64-x64-vc14-release:errno.obj
 0002:00005648       ??_C@_0DM@JKDJGBNG@Bad?5or?5invalid?5audio?5device?5for@ 0000000140071648     pjmedia-audiodev-x86_64-x64-vc14-release:errno.obj
 0002:00005688       ??_C@_0DN@BLAJILEA@Invalid?5audio?5device?5sample?5for@ 0000000140071688     pjmedia-audiodev-x86_64-x64-vc14-release:errno.obj
 0002:000056c8       ??_C@_0DE@LJJGJIEF@Bad?5audio?5latency?5setting?5?$CIPJME@ 00000001400716c8     pjmedia-audiodev-x86_64-x64-vc14-release:errno.obj
 0002:00005700       ??_C@_0BJ@GMHLEOAL@MMSYSTEM?5native?5error?5?$CFd@ 0000000140071700     pjmedia-audiodev-x86_64-x64-vc14-release:errno.obj
 0002:00005720       ??_C@_0CC@MFOJNIAN@Unknown?5pjmedia?9audiodev?5error?5@ 0000000140071720     pjmedia-audiodev-x86_64-x64-vc14-release:errno.obj
 0002:00005748       ??_C@_0M@KBHHDDLP@Wave?5mapper@ 0000000140071748     pjmedia-audiodev-x86_64-x64-vc14-release:wmme_dev.obj
 0002:00005754       ??_C@_04CPNMDOAK@WMME@     0000000140071754     pjmedia-audiodev-x86_64-x64-vc14-release:wmme_dev.obj
 0002:00005760       ??_C@_0BB@EOKKHGLD@WMME?5initialized@ 0000000140071760     pjmedia-audiodev-x86_64-x64-vc14-release:wmme_dev.obj
 0002:00005778       ??_C@_0L@HHCCMOGO@wmme_dev?4c@ 0000000140071778     pjmedia-audiodev-x86_64-x64-vc14-release:wmme_dev.obj
 0002:00005788       ??_C@_0BM@OMJMEAMB@WMME?5found?5no?5sound?5devices@ 0000000140071788     pjmedia-audiodev-x86_64-x64-vc14-release:wmme_dev.obj
 0002:000057a4       ??_C@_11LOCGONAA@@         00000001400717a4     pjmedia-audiodev-x86_64-x64-vc14-release:wmme_dev.obj
 0002:000057a8       ??_C@_0BH@GEMAAOCL@WMME?5found?5?$CFd?5devices?3@ 00000001400717a8     pjmedia-audiodev-x86_64-x64-vc14-release:wmme_dev.obj
 0002:000057c0       ??_C@_0CA@NLJGEGOG@?5dev_id?5?$CFd?3?5?$CFs?5?5?$CIin?$DN?$CFd?0?5out?$DN?$CFd?$CJ@ 00000001400717c0     pjmedia-audiodev-x86_64-x64-vc14-release:wmme_dev.obj
 0002:000057e0       ??_C@_03CCLNCNJA@PCM@      00000001400717e0     pjmedia-audiodev-x86_64-x64-vc14-release:wmme_dev.obj
 0002:000057f0       ??_C@_0HB@MKIBCFPJ@?5WaveAPI?5Sound?5player?5?$CC?$CFs?$CC?5init@ 00000001400717f0     pjmedia-audiodev-x86_64-x64-vc14-release:wmme_dev.obj
 0002:00005870       ??_C@_0HD@PIICIPL@?5WaveAPI?5Sound?5recorder?5?$CC?$CFs?$CC?5in@ 0000000140071870     pjmedia-audiodev-x86_64-x64-vc14-release:wmme_dev.obj
 0002:000058e8       ??_C@_0CJ@BMOAEONK@Failed?5to?5write?5audio?5frame?5for@ 00000001400718e8     pjmedia-audiodev-x86_64-x64-vc14-release:wmme_dev.obj
 0002:00005918       ??_C@_0BP@EAOBDJJO@Failed?5to?5add?5recording?5buffer@ 0000000140071918     pjmedia-audiodev-x86_64-x64-vc14-release:wmme_dev.obj
 0002:00005938       ??_C@_0BI@BEJPJEBJ@WMME?3?5thread?5stopping?4?4@ 0000000140071938     pjmedia-audiodev-x86_64-x64-vc14-release:wmme_dev.obj
 0002:00005950       ??_C@_0CB@JKFANBEJ@WMME?5thread?5stopped?5due?5to?5erro@ 0000000140071950     pjmedia-audiodev-x86_64-x64-vc14-release:wmme_dev.obj
 0002:00005978       ??_C@_08MOOOBPLB@wmme?9dev@ 0000000140071978     pjmedia-audiodev-x86_64-x64-vc14-release:wmme_dev.obj
 0002:00005984       ??_C@_04ODOGNMHC@wmme@     0000000140071984     pjmedia-audiodev-x86_64-x64-vc14-release:wmme_dev.obj
 0002:00005990       ??_C@_0BN@MNACKNIN@WMME?5playback?5stream?5started@ 0000000140071990     pjmedia-audiodev-x86_64-x64-vc14-release:wmme_dev.obj
 0002:000059b0       ??_C@_0BM@NKDLICNM@WMME?5capture?5stream?5started@ 00000001400719b0     pjmedia-audiodev-x86_64-x64-vc14-release:wmme_dev.obj
 0002:000059d0       ??_C@_0BN@FMJNHCPG@Stopped?5WMME?5playback?5stream@ 00000001400719d0     pjmedia-audiodev-x86_64-x64-vc14-release:wmme_dev.obj
 0002:000059f0       ??_C@_0BM@KCHDOGNE@Stopped?5WMME?5capture?5stream@ 00000001400719f0     pjmedia-audiodev-x86_64-x64-vc14-release:wmme_dev.obj
 0002:00005a10       ??_C@_09OFDCJLJM@WMME?5base@ 0000000140071a10     pjmedia-audiodev-x86_64-x64-vc14-release:wmme_dev.obj
 0002:00005a20       ??_C@_0DH@LLDEKPNG@Lost?5event?5?$CFs?5from?5publisher?5?$FL0@ 0000000140071a20     pjmedia-x86_64-x64-vc14-release:event.obj
 0002:00005a58       ??_C@_07GLALFINI@event?4c@ 0000000140071a58     pjmedia-x86_64-x64-vc14-release:event.obj
 0002:00005a60       ??_C@_07EFMBOCIE@evt?5mgr@ 0000000140071a60     pjmedia-x86_64-x64-vc14-release:event.obj
 0002:00005a68       ??_C@_06DLOAOGFG@ev_sem@   0000000140071a68     pjmedia-x86_64-x64-vc14-release:event.obj
 0002:00005a70       ??_C@_09BPOKMBKN@ev_thread@ 0000000140071a70     pjmedia-x86_64-x64-vc14-release:event.obj
 0002:00005a80       ??_C@_08HIFPJADG@ev_mutex@ 0000000140071a80     pjmedia-x86_64-x64-vc14-release:event.obj
 0002:00005af0       ??_C@_07OEHJJJKF@RTP?1AVP@ 0000000140071af0     pjmedia-x86_64-x64-vc14-release:endpoint.obj
 0002:00005af8       ??_C@_02BBAPPCCJ@IN@       0000000140071af8     pjmedia-x86_64-x64-vc14-release:endpoint.obj
 0002:00005afc       ??_C@_03OPDBOKBD@IP4@      0000000140071afc     pjmedia-x86_64-x64-vc14-release:endpoint.obj
 0002:00005b00       ??_C@_03NNAHIIJB@IP6@      0000000140071b00     pjmedia-x86_64-x64-vc14-release:endpoint.obj
 0002:00005b08       ??_C@_07HDFHIMAJ@pjmedia@  0000000140071b08     pjmedia-x86_64-x64-vc14-release:endpoint.obj
 0002:00005b10       ??_C@_08LMCBNPPN@sendrecv@ 0000000140071b10     pjmedia-x86_64-x64-vc14-release:endpoint.obj
 0002:00005b20       ??_C@_07LBNDIDNE@med?9ept@ 0000000140071b20     pjmedia-x86_64-x64-vc14-release:endpoint.obj
 0002:00005b30       ??_C@_0EL@BIFHLACC@Warning?3?5no?5worker?5thread?5is?5cr@ 0000000140071b30     pjmedia-x86_64-x64-vc14-release:endpoint.obj
 0002:00005b80       ??_C@_0L@DLFDMOGF@endpoint?4c@ 0000000140071b80     pjmedia-x86_64-x64-vc14-release:endpoint.obj
 0002:00005b8c       ??_C@_05CECBHAPI@media@    0000000140071b8c     pjmedia-x86_64-x64-vc14-release:endpoint.obj
 0002:00005b94       ??_C@_05KNIAAKIP@audio@    0000000140071b94     pjmedia-x86_64-x64-vc14-release:endpoint.obj
 0002:00005ba0       ??_C@_0DL@JAFAPHLL@Warning?3?5no?5available?5dynamic?5p@ 0000000140071ba0     pjmedia-x86_64-x64-vc14-release:endpoint.obj
 0002:00005bdc       ??_C@_02DPKJAMEF@?$CFd@    0000000140071bdc     pjmedia-x86_64-x64-vc14-release:endpoint.obj
 0002:00005be0       ??_C@_01ICJEACDI@?$DL@     0000000140071be0     pjmedia-x86_64-x64-vc14-release:endpoint.obj
 0002:00005be8       ??_C@_09IKOEDHAN@?$CF?4?$CKs?$DN?$CF?4?$CKs@ 0000000140071be8     pjmedia-x86_64-x64-vc14-release:endpoint.obj
 0002:00005bf4       ??_C@_04EBNJJJJI@?$CF?4?$CKs@ 0000000140071bf4     pjmedia-x86_64-x64-vc14-release:endpoint.obj
 0002:00005bfc       ??_C@_04JKCEBMKL@fmtp@     0000000140071bfc     pjmedia-x86_64-x64-vc14-release:endpoint.obj
 0002:00005c08       ??_C@_0DP@EAJEFHCF@Warning?3?5no?5available?5dynamic?5p@ 0000000140071c08     pjmedia-x86_64-x64-vc14-release:endpoint.obj
 0002:00005c48       ??_C@_06NPGDLJKE@rtpmap@   0000000140071c48     pjmedia-x86_64-x64-vc14-release:endpoint.obj
 0002:00005c50       ??_C@_0BG@FOCJLGKH@?$CFd?5telephone?9event?1?$CFd@ 0000000140071c50     pjmedia-x86_64-x64-vc14-release:endpoint.obj
 0002:00005c68       ??_C@_07MNCPAND@?$CFd?50?916@ 0000000140071c68     pjmedia-x86_64-x64-vc14-release:endpoint.obj
 0002:00005c70       ??_C@_04PCJMJPDO@TIAS@     0000000140071c70     pjmedia-x86_64-x64-vc14-release:endpoint.obj
 0002:00005c78       ??_C@_04DHOBIHHI@PCMU@     0000000140071c78     pjmedia-x86_64-x64-vc14-release:g711.obj
 0002:00005c80       ??_C@_04BJEPFACN@PCMA@     0000000140071c80     pjmedia-x86_64-x64-vc14-release:g711.obj
 0002:00005c88       ??_C@_04JMMHOLLC@g711@     0000000140071c88     pjmedia-x86_64-x64-vc14-release:g711.obj
 0002:00005c90       ??_C@_04CEHLIMNH@g611@     0000000140071c90     pjmedia-x86_64-x64-vc14-release:g711.obj
 0002:00005c98       ??_C@_0L@IOJLEJF@STATE_NULL@ 0000000140071c98     pjmedia-x86_64-x64-vc14-release:sdp_neg.obj
 0002:00005ca8       ??_C@_0BC@LOEMBHAD@STATE_LOCAL_OFFER@ 0000000140071ca8     pjmedia-x86_64-x64-vc14-release:sdp_neg.obj
 0002:00005cc0       ??_C@_0BD@EIDNGBFC@STATE_REMOTE_OFFER@ 0000000140071cc0     pjmedia-x86_64-x64-vc14-release:sdp_neg.obj
 0002:00005cd8       ??_C@_0BA@GHLPEJJC@STATE_WAIT_NEGO@ 0000000140071cd8     pjmedia-x86_64-x64-vc14-release:sdp_neg.obj
 0002:00005ce8       ??_C@_0L@KPLLHEOI@STATE_DONE@ 0000000140071ce8     pjmedia-x86_64-x64-vc14-release:sdp_neg.obj
 0002:00005cf8       ??_C@_0M@GGDBIFHF@?$DM?$DPUNKNOWN?$DP?$DO@ 0000000140071cf8     pjmedia-x86_64-x64-vc14-release:sdp_neg.obj
 0002:00005d08       ??_C@_09PFCHIMEP@127?40?40?41@ 0000000140071d08     pjmedia-x86_64-x64-vc14-release:sdp_neg.obj
 0002:00005d18       ??_C@_08INHMCBAE@inactive@ 0000000140071d18     pjmedia-x86_64-x64-vc14-release:sdp_neg.obj
 0002:00005d28       ??_C@_08HPJEFADN@sendonly@ 0000000140071d28     pjmedia-x86_64-x64-vc14-release:sdp_neg.obj
 0002:00005d38       ??_C@_08EHCGIGCO@recvonly@ 0000000140071d38     pjmedia-x86_64-x64-vc14-release:sdp_neg.obj
 0002:00005d48       ??_C@_0BA@LLGGBELL@telephone?9event@ 0000000140071d48     pjmedia-x86_64-x64-vc14-release:sdp_neg.obj
 0002:00005d58       ??_C@_0N@COEOBFOD@EC?5activated@ 0000000140071d58     pjmedia-x86_64-x64-vc14-release:sound_port.obj
 0002:00005d68       ??_C@_0N@GOCHBLLA@sound_port?4c@ 0000000140071d68     pjmedia-x86_64-x64-vc14-release:sound_port.obj
 0002:00005d78       ??_C@_0CD@IGHBIGGN@EC?5suspended?5because?5of?5inactiv@ 0000000140071d78     pjmedia-x86_64-x64-vc14-release:sound_port.obj
 0002:00005da0       ??_C@_0CB@KICGINBD@AEC?5tail?5is?5set?5to?5default?5?$CFu?5m@ 0000000140071da0     pjmedia-x86_64-x64-vc14-release:sound_port.obj
 0002:00005dc8       ??_C@_0DJ@PNINHBGM@pjmedia_snd_port_set_ec?$CI?$CJ?5ignor@ 0000000140071dc8     pjmedia-x86_64-x64-vc14-release:sound_port.obj
 0002:00005e08       ??_C@_0DB@KDEIEFDK@Echo?5canceller?5is?5now?5disabled?5@ 0000000140071e08     pjmedia-x86_64-x64-vc14-release:sound_port.obj
 0002:00005e90       ??_C@_0BF@BDOEAPGC@sprop?9maxcapturerate@ 0000000140071e90     pjmedia-x86_64-x64-vc14-release:stream_info.obj
 0002:00005ea8       ??_C@_0N@LGCDEDLG@sprop?9stereo@ 0000000140071ea8     pjmedia-x86_64-x64-vc14-release:stream_info.obj
 0002:00005eb8       ??_C@_0BA@PAFFCOOK@maxplaybackrate@ 0000000140071eb8     pjmedia-x86_64-x64-vc14-release:stream_info.obj
 0002:00005ec8       ??_C@_06BDDNELGJ@stereo@   0000000140071ec8     pjmedia-x86_64-x64-vc14-release:stream_info.obj
 0002:00005ed0       ??_C@_04BPKIMIGM@opus@     0000000140071ed0     pjmedia-x86_64-x64-vc14-release:stream_info.obj
 0002:00005ed8       ??_C@_05FHOGGKIK@ptime@    0000000140071ed8     pjmedia-x86_64-x64-vc14-release:stream_info.obj
 0002:00005ee0       ??_C@_08GOMHIHBN@maxptime@ 0000000140071ee0     pjmedia-x86_64-x64-vc14-release:stream_info.obj
 0002:00005ef0       ??_C@_09FMIECHHF@candidate@ 0000000140071ef0     pjmedia-x86_64-x64-vc14-release:stream_info.obj
 0002:00005f00       ??_C@_08BLAEFJPP@rtcp?9mux@ 0000000140071f00     pjmedia-x86_64-x64-vc14-release:stream_info.obj
 0002:00005f0c       ??_C@_04DLDMIAAJ@rtcp@     0000000140071f0c     pjmedia-x86_64-x64-vc14-release:stream_info.obj
 0002:00005f14       ??_C@_04OHIABJNF@ssrc@     0000000140071f14     pjmedia-x86_64-x64-vc14-release:stream_info.obj
 0002:00005f38       ??_C@_0M@NKENPDLK@?0?5recovered@ 0000000140071f38     pjmedia-x86_64-x64-vc14-release:stream.obj
 0002:00005f48       ??_C@_0O@OGIFGJAB@Frame?5lost?$CFs?$CB@ 0000000140071f48     pjmedia-x86_64-x64-vc14-release:stream.obj
 0002:00005f58       ??_C@_0O@MNJAMJOB@?0?5plc?5invoked@ 0000000140071f58     pjmedia-x86_64-x64-vc14-release:stream.obj
 0002:00005f68       ??_C@_0CE@BAFNKJLC@Jitter?5buffer?5empty?5?$CIprefetch?$DN?$CF@ 0000000140071f68     pjmedia-x86_64-x64-vc14-release:stream.obj
 0002:00005f90       ??_C@_0CM@LPGENADE@Jitter?5buffer?5is?5bufferring?5?$CIpr@ 0000000140071f90     pjmedia-x86_64-x64-vc14-release:stream.obj
 0002:00005fc0       ??_C@_0BF@OJPAAFNN@codec?5decode?$CI?$CJ?5error@ 0000000140071fc0     pjmedia-x86_64-x64-vc14-release:stream.obj
 0002:00005fe0       ??_C@_0ED@JAAMDOJM@Jitter?5buffer?5starts?5returning?5@ 0000000140071fe0     pjmedia-x86_64-x64-vc14-release:stream.obj
 0002:00006028       ??_C@_0M@PLDMKLOM@Frame?5lost?$CB@ 0000000140072028     pjmedia-x86_64-x64-vc14-release:stream.obj
 0002:00006038       ??_C@_0CC@JAEPJMKF@Jitter?5buffer?5empty?5?$CIprefetch?$DN?$CF@ 0000000140072038     pjmedia-x86_64-x64-vc14-release:stream.obj
 0002:00006060       ??_C@_0CK@PBJINAMI@Jitter?5buffer?5is?5bufferring?5?$CIpr@ 0000000140072060     pjmedia-x86_64-x64-vc14-release:stream.obj
 0002:00006090       ??_C@_0BJ@COIBCHJA@Sending?5DTMF?5digit?5id?5?$CFc@ 0000000140072090     pjmedia-x86_64-x64-vc14-release:stream.obj
 0002:000060b0       ??_C@_0BL@OPDKFGJP@Error?5generating?5RTCP?5SDES@ 00000001400720b0     pjmedia-x86_64-x64-vc14-release:stream.obj
 0002:000060d0       ??_C@_0BJ@NJKEBKBC@Error?5generating?5RTCP?5FB@ 00000001400720d0     pjmedia-x86_64-x64-vc14-release:stream.obj
 0002:000060f0       ??_C@_0BK@OBHPLFNE@Error?5generating?5RTCP?5BYE@ 00000001400720f0     pjmedia-x86_64-x64-vc14-release:stream.obj
 0002:00006110       ??_C@_0BD@CBPCIFPL@Error?5sending?5RTCP@ 0000000140072110     pjmedia-x86_64-x64-vc14-release:stream.obj
 0002:00006128       ??_C@_0BF@IIPLMAAA@Codec?5encode?$CI?$CJ?5error@ 0000000140072128     pjmedia-x86_64-x64-vc14-release:stream.obj
 0002:00006140       ??_C@_0BH@IJDGDLG@RTP?5encode_rtp?$CI?$CJ?5error@ 0000000140072140     pjmedia-x86_64-x64-vc14-release:stream.obj
 0002:00006158       ??_C@_0BB@DDCHBNNP@Starting?5silence@ 0000000140072158     pjmedia-x86_64-x64-vc14-release:stream.obj
 0002:00006170       ??_C@_0BC@EPKDPAEA@Start?5talksprut?4?4@ 0000000140072170     pjmedia-x86_64-x64-vc14-release:stream.obj
 0002:00006188       ??_C@_0BC@EMPFFOFC@Error?5sending?5RTP@ 0000000140072188     pjmedia-x86_64-x64-vc14-release:stream.obj
 0002:000061a0       ??_C@_0P@ICGHDFAO@VAD?5re?9enabled@ 00000001400721a0     pjmedia-x86_64-x64-vc14-release:stream.obj
 0002:000061b0       ??_C@_0CH@BDBDCHNK@Ignored?5RTP?5pkt?5with?5bad?5DTMF?5e@ 00000001400721b0     pjmedia-x86_64-x64-vc14-release:stream.obj
 0002:000061d8       ??_C@_0BP@ICFENLOG@Received?5DTMF?5digit?5?$CFc?0?5vol?$DN?$CFd@ 00000001400721d8     pjmedia-x86_64-x64-vc14-release:stream.obj
 0002:000061f8       ??_C@_0BN@GDMGIFJA@Unable?5to?5receive?5RTP?5packet@ 00000001400721f8     pjmedia-x86_64-x64-vc14-release:stream.obj
 0002:00006218       ??_C@_0BB@HCGJOLMC@RTP?5decode?5error@ 0000000140072218     pjmedia-x86_64-x64-vc14-release:stream.obj
 0002:00006230       ??_C@_0FA@PMIGIEOC@RTP?5status?3?5badpt?$DN?$CFd?0?5badssrc?$DN?$CF@ 0000000140072230     pjmedia-x86_64-x64-vc14-release:stream.obj
 0002:00006280       ??_C@_0BN@GBIGHOMM@Bad?5RTP?5pt?5?$CFd?5?$CIexpecting?5?$CFd?$CJ@ 0000000140072280     pjmedia-x86_64-x64-vc14-release:stream.obj
 0002:000062a0       ??_C@_0CJ@IOOMBLCB@Changed?5RTP?5peer?5SSRC?5?$CFd?5?$CIprevi@ 00000001400722a0     pjmedia-x86_64-x64-vc14-release:stream.obj
 0002:000062d0       ??_C@_0BE@DIMNLOKG@Jitter?5buffer?5reset@ 00000001400722d0     pjmedia-x86_64-x64-vc14-release:stream.obj
 0002:000062e8       ??_C@_0BE@EEELMADC@Codec?5parse?$CI?$CJ?5error@ 00000001400722e8     pjmedia-x86_64-x64-vc14-release:stream.obj
 0002:00006300       ??_C@_0CD@BPJOJMNK@codec?5decode?5ptime?5change?5detec@ 0000000140072300     pjmedia-x86_64-x64-vc14-release:stream.obj
 0002:00006328       ??_C@_0DI@LLLLCFFB@G722?5codec?5used?0?5remote?5samples@ 0000000140072328     pjmedia-x86_64-x64-vc14-release:stream.obj
 0002:00006360       ??_C@_08MKBBPGGN@stream?4c@ 0000000140072360     pjmedia-x86_64-x64-vc14-release:stream.obj
 0002:00006370       ??_C@_0BK@ECAGOLL@Jitter?5buffer?5put?$CI?$CJ?5error@ 0000000140072370     pjmedia-x86_64-x64-vc14-release:stream.obj
 0002:00006390       ??_C@_0CD@EBKLOEHE@Error?5sending?5RTCP?5FB?5generic?5N@ 0000000140072390     pjmedia-x86_64-x64-vc14-release:stream.obj
 0002:000063b8       ??_C@_0BO@BAKHAHBM@Error?5sending?5initial?5RTCP?5RR@ 00000001400723b8     pjmedia-x86_64-x64-vc14-release:stream.obj
 0002:000063d8       ??_C@_0BO@JDAJCAAP@Unable?5to?5receive?5RTCP?5packet@ 00000001400723d8     pjmedia-x86_64-x64-vc14-release:stream.obj
 0002:000063f8       ??_C@_06HEEHMEGM@strm?$CFp@ 00000001400723f8     pjmedia-x86_64-x64-vc14-release:stream.obj
 0002:00006400       ??_C@_0BJ@GBLBGHNA@VAD?5temporarily?5disabled@ 0000000140072400     pjmedia-x86_64-x64-vc14-release:stream.obj
 0002:00006420       ??_C@_0BK@HICFNOI@Send?5RTCP?9FB?5generic?5NACK@ 0000000140072420     pjmedia-x86_64-x64-vc14-release:stream.obj
 0002:00006440       ??_C@_0BN@JPMKFMPA@Receive?5RTCP?9FB?5generic?5NACK@ 0000000140072440     pjmedia-x86_64-x64-vc14-release:stream.obj
 0002:00006460       ??_C@_0BC@ICNPODMB@Stream?5?$CFs?5created@ 0000000140072460     pjmedia-x86_64-x64-vc14-release:stream.obj
 0002:00006478       ??_C@_0CC@NGEFLMI@Error?5sending?5RTP?1DTMF?5end?5pack@ 0000000140072478     pjmedia-x86_64-x64-vc14-release:stream.obj
 0002:000064a0       ??_C@_0BH@JPIMLCGB@Encoder?5stream?5started@ 00000001400724a0     pjmedia-x86_64-x64-vc14-release:stream.obj
 0002:000064b8       ??_C@_0BG@DCFJEGJD@Encoder?5stream?5paused@ 00000001400724b8     pjmedia-x86_64-x64-vc14-release:stream.obj
 0002:000064d0       ??_C@_0BH@IEMENDPF@Decoder?5stream?5started@ 00000001400724d0     pjmedia-x86_64-x64-vc14-release:stream.obj
 0002:000064e8       ??_C@_0BG@HLJNKJMG@Decoder?5stream?5paused@ 00000001400724e8     pjmedia-x86_64-x64-vc14-release:stream.obj
 0002:00006500       __xmm@00000003000000020000000100000000 0000000140072500     pjmedia-x86_64-x64-vc14-release:stream.obj
 0002:00006520       ??_C@_0DD@JENKINAB@Failed?5to?5synthesize?5the?5correc@ 0000000140072520     pjmedia-x86_64-x64-vc14-release:transport_udp.obj
 0002:00006558       ??_C@_0DE@NDEIKKGG@Failed?5to?5synthesize?5the?5correc@ 0000000140072558     pjmedia-x86_64-x64-vc14-release:transport_udp.obj
 0002:00006590       ??_C@_0DF@MINIEIGK@TX?5RTP?5packet?5dropped?5because?5o@ 0000000140072590     pjmedia-x86_64-x64-vc14-release:transport_udp.obj
 0002:000065c8       ??_C@_0CC@DDPOCJNE@Too?5many?5pending?5write?5operatio@ 00000001400725c8     pjmedia-x86_64-x64-vc14-release:transport_udp.obj
 0002:000065f0       ??_C@_0DF@BFHKOPKN@RX?5RTP?5packet?5dropped?5because?5o@ 00000001400725f0     pjmedia-x86_64-x64-vc14-release:transport_udp.obj
 0002:00006628       ??_C@_0CC@MIINFHKB@Remote?5RTP?5address?5switched?5to?5@ 0000000140072628     pjmedia-x86_64-x64-vc14-release:transport_udp.obj
 0002:00006650       ??_C@_0DF@CBHGCLPC@Remote?5RTCP?5address?5switched?5to@ 0000000140072650     pjmedia-x86_64-x64-vc14-release:transport_udp.obj
 0002:00006688       ??_C@_0CD@KDFPBNLA@Remote?5RTCP?5address?5switched?5to@ 0000000140072688     pjmedia-x86_64-x64-vc14-release:transport_udp.obj
 0002:000066ac       ??_C@_03GOLBDMPC@RTP@      00000001400726ac     pjmedia-x86_64-x64-vc14-release:transport_udp.obj
 0002:000066b0       ??_C@_04PHAGGCHB@RTCP@     00000001400726b0     pjmedia-x86_64-x64-vc14-release:transport_udp.obj
 0002:000066b8       ??_C@_0BI@KFOLLKOA@Restarting?5?$CFs?5transport@ 00000001400726b8     pjmedia-x86_64-x64-vc14-release:transport_udp.obj
 0002:000066d0       ??_C@_0CA@CHIKLPAI@Success?5restarting?5?$CFs?5transport@ 00000001400726d0     pjmedia-x86_64-x64-vc14-release:transport_udp.obj
 0002:000066f0       ??_C@_0BO@MEJMBPFP@Error?5restarting?5?$CFs?5transport@ 00000001400726f0     pjmedia-x86_64-x64-vc14-release:transport_udp.obj
 0002:00006710       ??_C@_0BC@KMLOGCBL@?$CB?$CD$?$CF?$CG?8?$CK?$CL?9?4?$FO_?$GA?$HL?$HM?$HN?$HO@ 0000000140072710     pjmedia-x86_64-x64-vc14-release:sdp.obj
 0002:00006724       ??_C@_05PGDJPCOI@?1?5?7?$AN?6@ 0000000140072724     pjmedia-x86_64-x64-vc14-release:sdp.obj
 0002:00006730       ??_C@_0N@PKDMIJBK@?$CFu?5IN?5IP4?5?$CFs@ 0000000140072730     pjmedia-x86_64-x64-vc14-release:sdp.obj
 0002:00006740       ??_C@_0N@IAPMNKHK@?$CFu?5IN?5IP6?5?$CFs@ 0000000140072740     pjmedia-x86_64-x64-vc14-release:sdp.obj
 0002:00006750       ??_C@_05DNEALNHD@cname@    0000000140072750     pjmedia-x86_64-x64-vc14-release:sdp.obj
 0002:00006758       ??_C@_01KMDKNFGN@?1@       0000000140072758     pjmedia-x86_64-x64-vc14-release:sdp.obj
 0002:00006760       ??_C@_0BD@HEFIBNKB@?$CF?4?$CKs?5?$CF?4?$CKs?1?$CFu?$CFs?$CF?4?$CKs@ 0000000140072760     pjmedia-x86_64-x64-vc14-release:sdp.obj
 0002:00006778       ??_C@_0BD@NGNJPLJA@c?$DN?$CF?4?$CKs?5?$CF?4?$CKs?5?$CF?4?$CKs?$AN?6@ 0000000140072778     pjmedia-x86_64-x64-vc14-release:sdp.obj
 0002:0000678c       ??_C@_05MIOLEPMP@v?$DN0?$AN?6@ 000000014007278c     pjmedia-x86_64-x64-vc14-release:sdp.obj
 0002:00006794       ??_C@_04HHCDBDLF@?5?7?$AN?6@ 0000000140072794     pjmedia-x86_64-x64-vc14-release:sdp.obj
 0002:000067a0       ??_C@_0DG@FMMLOIKL@Error?5adding?5SDP?5media?5format?5?$CF@ 00000001400727a0     pjmedia-x86_64-x64-vc14-release:sdp.obj
 0002:000067d8       ??_C@_05LIAFADKM@sdp?4c@   00000001400727d8     pjmedia-x86_64-x64-vc14-release:sdp.obj
 0002:000067e0       ??_C@_0DD@EJNOLNM@Error?5adding?5media?5attribute?0?5a@ 00000001400727e0     pjmedia-x86_64-x64-vc14-release:sdp.obj
 0002:00006818       ??_C@_0DF@GDECOCN@Error?5adding?5session?5attribute?0@ 0000000140072818     pjmedia-x86_64-x64-vc14-release:sdp.obj
 0002:00006850       ??_C@_0CF@NCOGEPJF@Error?5adding?5media?0?5media?5is?5ig@ 0000000140072850     pjmedia-x86_64-x64-vc14-release:sdp.obj
 0002:00006878       ??_C@_0DD@FDBIEIFP@Error?5adding?5media?5bandwidth?5in@ 0000000140072878     pjmedia-x86_64-x64-vc14-release:sdp.obj
 0002:000068b0       ??_C@_0DF@FBLBINKO@Error?5adding?5session?5bandwidth?5@ 00000001400728b0     pjmedia-x86_64-x64-vc14-release:sdp.obj
 0002:000068e8       ??_C@_0CE@BFJMCBLI@Error?5parsing?5SDP?5in?5line?5?$CFd?5co@ 00000001400728e8     pjmedia-x86_64-x64-vc14-release:sdp.obj
 0002:0000690c       ??_C@_03CPJJBAON@AVP@      000000014007290c     pjmedia-x86_64-x64-vc14-release:sdp.obj
 0002:00006910       ??_C@_04LHEMINPH@SAVP@     0000000140072910     pjmedia-x86_64-x64-vc14-release:sdp.obj
 0002:00006918       ??_C@_04HILHOPFG@AVPF@     0000000140072918     pjmedia-x86_64-x64-vc14-release:sdp.obj
 0002:00006920       ??_C@_05IFENMDLB@SAVPF@    0000000140072920     pjmedia-x86_64-x64-vc14-release:sdp.obj
 0002:00006928       ??_C@_0N@IFKNLCBO@TLS?1RTP?1SAVP@ 0000000140072928     pjmedia-x86_64-x64-vc14-release:sdp.obj
 0002:00006938       ??_C@_0O@FMKJHIFC@TLS?1RTP?1SAVPF@ 0000000140072938     pjmedia-x86_64-x64-vc14-release:sdp.obj
 0002:00006948       ??_C@_07GBKCPIDJ@ext?9fmt@ 0000000140072948     pjmedia-x86_64-x64-vc14-release:audiodev.obj
 0002:00006950       ??_C@_0BI@GGHCECPI@Extended?1non?9PCM?5format@ 0000000140072950     pjmedia-x86_64-x64-vc14-release:audiodev.obj
 0002:00006968       ??_C@_0L@IKNMBADD@latency?9in@ 0000000140072968     pjmedia-x86_64-x64-vc14-release:audiodev.obj
 0002:00006978       ??_C@_0CC@LIGOHOJN@Input?5latency?1buffer?5size?5setti@ 0000000140072978     pjmedia-x86_64-x64-vc14-release:audiodev.obj
 0002:000069a0       ??_C@_0M@MBBBBCLJ@latency?9out@ 00000001400729a0     pjmedia-x86_64-x64-vc14-release:audiodev.obj
 0002:000069b0       ??_C@_0CD@GAINMBC@Output?5latency?1buffer?5size?5sett@ 00000001400729b0     pjmedia-x86_64-x64-vc14-release:audiodev.obj
 0002:000069d4       ??_C@_06KGGLCDDG@vol?9in@  00000001400729d4     pjmedia-x86_64-x64-vc14-release:audiodev.obj
 0002:000069e0       ??_C@_0BF@CCEKOJAN@Input?5volume?5setting@ 00000001400729e0     pjmedia-x86_64-x64-vc14-release:audiodev.obj
 0002:000069f8       ??_C@_07LBFHFBAF@vol?9out@ 00000001400729f8     pjmedia-x86_64-x64-vc14-release:audiodev.obj
 0002:00006a00       ??_C@_0BG@IBEHJHAD@Output?5volume?5setting@ 0000000140072a00     pjmedia-x86_64-x64-vc14-release:audiodev.obj
 0002:00006a18       ??_C@_08BPNDLGG@meter?9in@ 0000000140072a18     pjmedia-x86_64-x64-vc14-release:audiodev.obj
 0002:00006a28       ??_C@_0M@NCGIGNPG@Input?5meter@ 0000000140072a28     pjmedia-x86_64-x64-vc14-release:audiodev.obj
 0002:00006a38       ??_C@_09NKJLJGOJ@meter?9out@ 0000000140072a38     pjmedia-x86_64-x64-vc14-release:audiodev.obj
 0002:00006a48       ??_C@_0N@GBEOEOEP@Output?5meter@ 0000000140072a48     pjmedia-x86_64-x64-vc14-release:audiodev.obj
 0002:00006a58       ??_C@_08FPHJDLBG@route?9in@ 0000000140072a58     pjmedia-x86_64-x64-vc14-release:audiodev.obj
 0002:00006a68       ??_C@_0O@JDPFDDM@Input?5routing@ 0000000140072a68     pjmedia-x86_64-x64-vc14-release:audiodev.obj
 0002:00006a78       ??_C@_09IKMAGDNF@route?9out@ 0000000140072a78     pjmedia-x86_64-x64-vc14-release:audiodev.obj
 0002:00006a88       ??_C@_0P@JOFPIEJJ@Output?5routing@ 0000000140072a88     pjmedia-x86_64-x64-vc14-release:audiodev.obj
 0002:00006a98       ??_C@_03FNONIBCK@aec@      0000000140072a98     pjmedia-x86_64-x64-vc14-release:audiodev.obj
 0002:00006aa0       ??_C@_0BM@HPDLGLFJ@Accoustic?5echo?5cancellation@ 0000000140072aa0     pjmedia-x86_64-x64-vc14-release:audiodev.obj
 0002:00006ac0       ??_C@_08MKAPJCJE@aec?9tail@ 0000000140072ac0     pjmedia-x86_64-x64-vc14-release:audiodev.obj
 0002:00006ad0       ??_C@_0BM@PBLLADJD@Tail?5length?5setting?5for?5AEC@ 0000000140072ad0     pjmedia-x86_64-x64-vc14-release:audiodev.obj
 0002:00006aec       ??_C@_03NIGLNABH@vad@      0000000140072aec     pjmedia-x86_64-x64-vc14-release:audiodev.obj
 0002:00006af0       ??_C@_0BJ@PEELNNPF@Voice?5activity?5detection@ 0000000140072af0     pjmedia-x86_64-x64-vc14-release:audiodev.obj
 0002:00006b0c       ??_C@_03JPNNGDEE@cng@      0000000140072b0c     pjmedia-x86_64-x64-vc14-release:audiodev.obj
 0002:00006b10       ??_C@_0BJ@MNDOFJGN@Comfort?5noise?5generation@ 0000000140072b10     pjmedia-x86_64-x64-vc14-release:audiodev.obj
 0002:00006b2c       ??_C@_03NOPFEPFL@plg@      0000000140072b2c     pjmedia-x86_64-x64-vc14-release:audiodev.obj
 0002:00006b30       ??_C@_0BI@OMEMKBHH@Packet?5loss?5concealment@ 0000000140072b30     pjmedia-x86_64-x64-vc14-release:audiodev.obj
 0002:00006b50       ??_C@_0EF@NLCNMHAD@?$CFd?5device?$CIs?$CJ?5cannot?5be?5register@ 0000000140072b50     pjmedia-x86_64-x64-vc14-release:audiodev.obj
 0002:00006b98       ??_C@_0L@FGHHAHLM@audiodev?4c@ 0000000140072b98     pjmedia-x86_64-x64-vc14-release:audiodev.obj
 0002:00006ba8       ??_C@_09GLMNEMC@codec?9mgr@ 0000000140072ba8     pjmedia-x86_64-x64-vc14-release:codec.obj
 0002:00006bb8       ??_C@_0L@MMBOMEDE@?$CF?4?$CKs?1?$CFu?1?$CFu@ 0000000140072bb8     pjmedia-x86_64-x64-vc14-release:codec.obj
 0002:00007270       ??_C@_0CK@HBHLALIF@Unspecified?5PJMEDIA?5error?5?$CIPJME@ 0000000140073270     pjmedia-x86_64-x64-vc14-release:errno.obj
 0002:000072a0       ??_C@_0CM@KFAONKNJ@Invalid?5SDP?5descriptor?5?$CIPJMEDIA@ 00000001400732a0     pjmedia-x86_64-x64-vc14-release:errno.obj
 0002:000072d0       ??_C@_0CO@ONPCFICA@Invalid?5SDP?5version?5line?5?$CIPJMED@ 00000001400732d0     pjmedia-x86_64-x64-vc14-release:errno.obj
 0002:00007300       ??_C@_0DA@DIKNJOEJ@Invalid?5SDP?5origin?5line?5?$CIPJMEDI@ 0000000140073300     pjmedia-x86_64-x64-vc14-release:errno.obj
 0002:00007330       ??_C@_0CM@DLEAGODI@Invalid?5SDP?5time?5line?5?$CIPJMEDIA_@ 0000000140073330     pjmedia-x86_64-x64-vc14-release:errno.obj
 0002:00007360       ??_C@_0DF@HNDCDPJF@SDP?5name?1subject?5line?5is?5empty?5@ 0000000140073360     pjmedia-x86_64-x64-vc14-release:errno.obj
 0002:00007398       ??_C@_0DC@KNNPDHKA@Invalid?5SDP?5connection?5line?5?$CIPJ@ 0000000140073398     pjmedia-x86_64-x64-vc14-release:errno.obj
 0002:000073d0       ??_C@_0DM@NEDHCJGL@Missing?5SDP?5connection?5info?5lin@ 00000001400733d0     pjmedia-x86_64-x64-vc14-release:errno.obj
 0002:00007410       ??_C@_0CN@JHLMEODJ@Invalid?5SDP?5attributes?5?$CIPJMEDIA@ 0000000140073410     pjmedia-x86_64-x64-vc14-release:errno.obj
 0002:00007440       ??_C@_0DF@BJAALDOM@Invalid?5SDP?5rtpmap?5attribute?5?$CIP@ 0000000140073440     pjmedia-x86_64-x64-vc14-release:errno.obj
 0002:00007478       ??_C@_0DL@HCOGNPAF@SDP?5rtpmap?5attribute?5too?5long?5?$CI@ 0000000140073478     pjmedia-x86_64-x64-vc14-release:errno.obj
 0002:000074c0       ??_C@_0EJ@IDNJACOO@Missing?5SDP?5rtpmap?5for?5dynamic?5@ 00000001400734c0     pjmedia-x86_64-x64-vc14-release:errno.obj
 0002:00007510       ??_C@_0CO@DIKFNJOF@Invalid?5SDP?5media?5line?5?$CIPJMEDIA@ 0000000140073510     pjmedia-x86_64-x64-vc14-release:errno.obj
 0002:00007540       ??_C@_0DN@GADAENKO@No?5SDP?5payload?5format?5in?5the?5me@ 0000000140073540     pjmedia-x86_64-x64-vc14-release:errno.obj
 0002:00007580       ??_C@_0DL@KAILPDC@Invalid?5SDP?5payload?5type?5in?5med@ 0000000140073580     pjmedia-x86_64-x64-vc14-release:errno.obj
 0002:000075c0       ??_C@_0DB@BJCACDID@Invalid?5SDP?5fmtp?5attribute?5?$CIPJM@ 00000001400735c0     pjmedia-x86_64-x64-vc14-release:errno.obj
 0002:000075f8       ??_C@_0DB@GFBENNMO@Invalid?5SDP?5rtcp?5attribute?5?$CIPJM@ 00000001400735f8     pjmedia-x86_64-x64-vc14-release:errno.obj
 0002:00007630       ??_C@_0DM@JFGCNJLM@Invalid?5SDP?5media?5transport?5pro@ 0000000140073630     pjmedia-x86_64-x64-vc14-release:errno.obj
 0002:00007670       ??_C@_0DH@PCNCDMKM@Invalid?5SDP?5bandwidth?5info?5line@ 0000000140073670     pjmedia-x86_64-x64-vc14-release:errno.obj
 0002:000076a8       ??_C@_0DB@POLJHCKE@Invalid?5SDP?5ssrc?5attribute?5?$CIPJM@ 00000001400736a8     pjmedia-x86_64-x64-vc14-release:errno.obj
 0002:000076e0       ??_C@_0EF@CJNFLCEL@Invalid?5SDP?5negotiator?5state?5fo@ 00000001400736e0     pjmedia-x86_64-x64-vc14-release:errno.obj
 0002:00007730       ??_C@_0ED@IFOJJHNO@No?5initial?5local?5SDP?5in?5SDP?5neg@ 0000000140073730     pjmedia-x86_64-x64-vc14-release:errno.obj
 0002:00007778       ??_C@_0DL@MFMHOMBE@No?5active?5SDP?5in?5SDP?5negotiator@ 0000000140073778     pjmedia-x86_64-x64-vc14-release:errno.obj
 0002:000077b8       ??_C@_0DN@JGPGLEOH@No?5current?5local?1remote?5offer?1a@ 00000001400737b8     pjmedia-x86_64-x64-vc14-release:errno.obj
 0002:00007800       ??_C@_0EE@BLNHOMNC@SDP?5media?5count?5mismatch?5in?5off@ 0000000140073800     pjmedia-x86_64-x64-vc14-release:errno.obj
 0002:00007850       ??_C@_0EG@MJOIPNIH@SDP?5media?5type?5mismatch?5in?5offe@ 0000000140073850     pjmedia-x86_64-x64-vc14-release:errno.obj
 0002:000078a0       ??_C@_0EN@OPFCIOMP@SDP?5media?5transport?5type?5mismat@ 00000001400738a0     pjmedia-x86_64-x64-vc14-release:errno.obj
 0002:000078f0       ??_C@_0ED@NGHPALDD@No?5common?5SDP?5media?5payload?5in?5@ 00000001400738f0     pjmedia-x86_64-x64-vc14-release:errno.obj
 0002:00007940       ??_C@_0ED@HELGJJGO@No?5active?5media?5stream?5after?5ne@ 0000000140073940     pjmedia-x86_64-x64-vc14-release:errno.obj
 0002:00007988       ??_C@_0DP@KIMEPBPF@No?5suitable?5codec?5for?5remote?5of@ 0000000140073988     pjmedia-x86_64-x64-vc14-release:errno.obj
 0002:000079d0       ??_C@_0EM@LLMPLGCO@No?5suitable?5telephone?9event?5for@ 00000001400739d0     pjmedia-x86_64-x64-vc14-release:errno.obj
 0002:00007a20       ??_C@_0EK@LPNBCGHG@No?5suitable?5answer?5for?5unknown?5@ 0000000140073a20     pjmedia-x86_64-x64-vc14-release:errno.obj
 0002:00007a70       ??_C@_0DM@JMBBJEKO@SDP?5media?5descriptor?5not?5equal?5@ 0000000140073a70     pjmedia-x86_64-x64-vc14-release:errno.obj
 0002:00007ab0       ??_C@_0ED@KAALGBMF@Port?5in?5SDP?5media?5descriptor?5no@ 0000000140073ab0     pjmedia-x86_64-x64-vc14-release:errno.obj
 0002:00007b00       ??_C@_0EJ@FJOJLJDF@Transport?5in?5SDP?5media?5descript@ 0000000140073b00     pjmedia-x86_64-x64-vc14-release:errno.obj
 0002:00007b50       ??_C@_0EH@FMIFCFBA@Format?5in?5SDP?5media?5descriptor?5@ 0000000140073b50     pjmedia-x86_64-x64-vc14-release:errno.obj
 0002:00007b98       ??_C@_0DK@MAHAOAHF@SDP?5connection?5line?5not?5equal?5?$CI@ 0000000140073b98     pjmedia-x86_64-x64-vc14-release:errno.obj
 0002:00007bd8       ??_C@_0DF@HHCJAGLJ@SDP?5attributes?5not?5equal?5?$CIPJMED@ 0000000140073bd8     pjmedia-x86_64-x64-vc14-release:errno.obj
 0002:00007c10       ??_C@_0DJ@GGABIHGL@SDP?5media?5direction?5not?5equal?5?$CI@ 0000000140073c10     pjmedia-x86_64-x64-vc14-release:errno.obj
 0002:00007c50       ??_C@_0DJ@FFGHKCEG@SDP?5fmtp?5attribute?5not?5equal?5?$CIP@ 0000000140073c50     pjmedia-x86_64-x64-vc14-release:errno.obj
 0002:00007c90       ??_C@_0DN@HLKACHFN@SDP?5rtpmap?5attribute?5not?5equal?5@ 0000000140073c90     pjmedia-x86_64-x64-vc14-release:errno.obj
 0002:00007cd0       ??_C@_0DN@EALGPLFN@SDP?5session?5descriptor?5not?5equa@ 0000000140073cd0     pjmedia-x86_64-x64-vc14-release:errno.obj
 0002:00007d10       ??_C@_0DI@BLKBMMGO@SDP?5origin?5line?5not?5equal?5?$CIPJME@ 0000000140073d10     pjmedia-x86_64-x64-vc14-release:errno.obj
 0002:00007d48       ??_C@_0DM@HCOBINN@SDP?5name?1subject?5line?5not?5equal@ 0000000140073d48     pjmedia-x86_64-x64-vc14-release:errno.obj
 0002:00007d88       ??_C@_0DE@PFJJJNGL@SDP?5time?5line?5not?5equal?5?$CIPJMEDI@ 0000000140073d88     pjmedia-x86_64-x64-vc14-release:errno.obj
 0002:00007dc0       ??_C@_0CP@ODMIIAEN@Unsupported?5media?5codec?5?$CIPJMEDI@ 0000000140073dc0     pjmedia-x86_64-x64-vc14-release:errno.obj
 0002:00007df0       ??_C@_0DG@KJBEJCIE@Codec?5internal?5creation?5error?5?$CI@ 0000000140073df0     pjmedia-x86_64-x64-vc14-release:errno.obj
 0002:00007e28       ??_C@_0DG@FOGENKNL@Codec?5frame?5is?5too?5short?5?$CIPJMED@ 0000000140073e28     pjmedia-x86_64-x64-vc14-release:errno.obj
 0002:00007e60       ??_C@_0DE@OLKJHMCL@PCM?5frame?5is?5too?5short?5?$CIPJMEDIA@ 0000000140073e60     pjmedia-x86_64-x64-vc14-release:errno.obj
 0002:00007e98       ??_C@_0DF@JDAOLAOM@Invalid?5codec?5frame?5length?5?$CIPJM@ 0000000140073e98     pjmedia-x86_64-x64-vc14-release:errno.obj
 0002:00007ed0       ??_C@_0DG@LLBBCNCG@Invalid?5PCM?5frame?5length?5?$CIPJMED@ 0000000140073ed0     pjmedia-x86_64-x64-vc14-release:errno.obj
 0002:00007f08       ??_C@_0DG@EKMGLMFL@Invalid?5codec?5mode?5?$CIno?5fmtp?$DP?$CJ?5?$CI@ 0000000140073f08     pjmedia-x86_64-x64-vc14-release:errno.obj
 0002:00007f40       ??_C@_0DJ@NJFBGAOC@Bad?5or?5corrupted?5bitstream?5?$CIPJM@ 0000000140073f40     pjmedia-x86_64-x64-vc14-release:errno.obj
 0002:00007f80       ??_C@_0DH@KOBKDDJI@Invalid?5remote?5media?5?$CIIP?$CJ?5addre@ 0000000140073f80     pjmedia-x86_64-x64-vc14-release:errno.obj
 0002:00007fb8       ??_C@_0DM@GBJMMNCF@Asymetric?5media?5codec?5is?5not?5su@ 0000000140073fb8     pjmedia-x86_64-x64-vc14-release:errno.obj
 0002:00007ff8       ??_C@_0DA@DKJJFGPE@Invalid?5media?5payload?5type?5?$CIPJM@ 0000000140073ff8     pjmedia-x86_64-x64-vc14-release:errno.obj
 0002:00008028       ??_C@_0DN@IGGOEBDI@Missing?5rtpmap?5in?5media?5descrip@ 0000000140074028     pjmedia-x86_64-x64-vc14-release:errno.obj
 0002:00008068       ??_C@_0CO@MJBLNMMI@Invalid?5media?5type?5?$CIPJMEDIA_EIN@ 0000000140074068     pjmedia-x86_64-x64-vc14-release:errno.obj
 0002:00008098       ??_C@_0DF@NNKPPHHC@Remote?5does?5not?5support?5DTMF?5?$CIP@ 0000000140074098     pjmedia-x86_64-x64-vc14-release:errno.obj
 0002:000080d0       ??_C@_0CJ@ECIKMCPH@Invalid?5DTMF?5digit?5?$CIPJMEDIA_RTP@ 00000001400740d0     pjmedia-x86_64-x64-vc14-release:errno.obj
 0002:00008100       ??_C@_0DN@EHCPFJJN@Remote?5does?5not?5support?5RFC?5283@ 0000000140074100     pjmedia-x86_64-x64-vc14-release:errno.obj
 0002:00008140       ??_C@_0BN@LMCOIKH@Bad?5format?5?$CIPJMEDIA_EBADFMT?$CJ@ 0000000140074140     pjmedia-x86_64-x64-vc14-release:errno.obj
 0002:00008160       ??_C@_0DB@GBKLBGPK@Unsupported?5media?5type?5?$CIPJMEDIA@ 0000000140074160     pjmedia-x86_64-x64-vc14-release:errno.obj
 0002:00008198       ??_C@_0CI@KDAMKHEL@Invalid?5RTP?5packet?5?$CIPJMEDIA_RTP@ 0000000140074198     pjmedia-x86_64-x64-vc14-release:errno.obj
 0002:000081c0       ??_C@_0DL@KLDJIJLI@Invalid?5RTP?5packing?5?$CIinternal?5e@ 00000001400741c0     pjmedia-x86_64-x64-vc14-release:errno.obj
 0002:00008200       ??_C@_0CJ@NGKNCMFA@Invalid?5RTP?5version?5?$CIPJMEDIA_RT@ 0000000140074200     pjmedia-x86_64-x64-vc14-release:errno.obj
 0002:00008230       ??_C@_0DC@PFPAEINL@RTP?5packet?5SSRC?5id?5mismatch?5?$CIPJ@ 0000000140074230     pjmedia-x86_64-x64-vc14-release:errno.obj
 0002:00008268       ??_C@_0DF@KDOADJLK@RTP?5packet?5payload?5type?5mismatc@ 0000000140074268     pjmedia-x86_64-x64-vc14-release:errno.obj
 0002:000082a0       ??_C@_0CP@OBFABIAL@Invalid?5RTP?5packet?5length?5?$CIPJME@ 00000001400742a0     pjmedia-x86_64-x64-vc14-release:errno.obj
 0002:000082d0       ??_C@_0DB@HLHLKEBJ@RTP?5session?5restarted?5?$CIPJMEDIA_@ 00000001400742d0     pjmedia-x86_64-x64-vc14-release:errno.obj
 0002:00008308       ??_C@_0DG@OPPFJBGL@RTP?5session?5in?5probation?5?$CIPJMED@ 0000000140074308     pjmedia-x86_64-x64-vc14-release:errno.obj
 0002:00008340       ??_C@_0DI@LFLLIJCB@Bad?5sequence?5number?5in?5RTP?5pack@ 0000000140074340     pjmedia-x86_64-x64-vc14-release:errno.obj
 0002:00008380       ??_C@_0EE@PHAAOPAG@RTP?5media?5port?5destination?5is?5n@ 0000000140074380     pjmedia-x86_64-x64-vc14-release:errno.obj
 0002:000083c8       ??_C@_0CO@BFKJOFNE@RTP?5is?5not?5configured?5?$CIPJMEDIA_@ 00000001400743c8     pjmedia-x86_64-x64-vc14-release:errno.obj
 0002:000083f8       ??_C@_0DI@MEKDIPIO@Media?5ports?5are?5not?5compatible?5@ 00000001400743f8     pjmedia-x86_64-x64-vc14-release:errno.obj
 0002:00008430       ??_C@_0EA@EJPEOGMK@Media?5ports?5have?5incompatible?5c@ 0000000140074430     pjmedia-x86_64-x64-vc14-release:errno.obj
 0002:00008470       ??_C@_0EL@KOIIKBFP@Media?5ports?5have?5incompatible?5s@ 0000000140074470     pjmedia-x86_64-x64-vc14-release:errno.obj
 0002:000084c0       ??_C@_0DL@FLCJCEPI@Media?5ports?5have?5incompatible?5m@ 00000001400744c0     pjmedia-x86_64-x64-vc14-release:errno.obj
 0002:00008500       ??_C@_0EA@CDICINEI@Media?5ports?5have?5incompatible?5b@ 0000000140074500     pjmedia-x86_64-x64-vc14-release:errno.obj
 0002:00008540       ??_C@_0EB@DHIDGGBD@Media?5ports?5have?5incompatible?5b@ 0000000140074540     pjmedia-x86_64-x64-vc14-release:errno.obj
 0002:00008590       ??_C@_0EG@FBPNENMF@Media?5ports?5have?5incompatible?5n@ 0000000140074590     pjmedia-x86_64-x64-vc14-release:errno.obj
 0002:000085d8       ??_C@_0CO@CKCFJDML@Not?5a?5valid?5WAVE?5file?5?$CIPJMEDIA_@ 00000001400745d8     pjmedia-x86_64-x64-vc14-release:errno.obj
 0002:00008608       ??_C@_0DD@FKNCKLNB@Unsupported?5WAVE?5file?5format?5?$CIP@ 0000000140074608     pjmedia-x86_64-x64-vc14-release:errno.obj
 0002:00008640       ??_C@_0CM@HKHLDPDN@WAVE?5file?5too?5short?5?$CIPJMEDIA_EW@ 0000000140074640     pjmedia-x86_64-x64-vc14-release:errno.obj
 0002:00008670       ??_C@_0DP@HHAKLPGE@Sound?5frame?5too?5large?5for?5file?5@ 0000000140074670     pjmedia-x86_64-x64-vc14-release:errno.obj
 0002:000086b0       ??_C@_0CK@EMOCNCPF@Unsupported?5AVI?5file?5?$CIPJMEDIA_E@ 00000001400746b0     pjmedia-x86_64-x64-vc14-release:errno.obj
 0002:000086e0       ??_C@_0DF@PKIKHNPA@No?5suitable?5sound?5capture?5devic@ 00000001400746e0     pjmedia-x86_64-x64-vc14-release:errno.obj
 0002:00008718       ??_C@_0DH@NACBPKOD@No?5suitable?5sound?5playback?5devi@ 0000000140074718     pjmedia-x86_64-x64-vc14-release:errno.obj
 0002:00008750       ??_C@_0CO@FCJGKBG@Invalid?5sound?5device?5ID?5?$CIPJMEDI@ 0000000140074750     pjmedia-x86_64-x64-vc14-release:errno.obj
 0002:00008780       ??_C@_0EB@GAMOPGD@Invalid?5sample?5format?5for?5sound@ 0000000140074780     pjmedia-x86_64-x64-vc14-release:errno.obj
 0002:000087d0       ??_C@_0FA@HAKEALMK@SRTP?5crypto?9suite?5name?5not?5matc@ 00000001400747d0     pjmedia-x86_64-x64-vc14-release:errno.obj
 0002:00008820       ??_C@_0EF@DCMAHBDI@Invalid?5SRTP?5key?5length?5for?5spe@ 0000000140074820     pjmedia-x86_64-x64-vc14-release:errno.obj
 0002:00008868       ??_C@_0DL@BINEGGLM@Unsupported?5SRTP?5crypto?9suite?5?$CI@ 0000000140074868     pjmedia-x86_64-x64-vc14-release:errno.obj
 0002:000088a8       ??_C@_0DP@DNDEFJI@SRTP?5SDP?5contains?5ambigue?5answe@ 00000001400748a8     pjmedia-x86_64-x64-vc14-release:errno.obj
 0002:000088e8       ??_C@_0DL@PPDCJAFI@Duplicated?5SRTP?5crypto?5tag?5?$CIPJM@ 00000001400748e8     pjmedia-x86_64-x64-vc14-release:errno.obj
 0002:00008928       ??_C@_0DK@EIEPDNB@Invalid?5SRTP?5crypto?5attribute?5?$CI@ 0000000140074928     pjmedia-x86_64-x64-vc14-release:errno.obj
 0002:00008968       ??_C@_0DH@JABOECDK@Invalid?5SRTP?5crypto?5tag?5?$CIPJMEDI@ 0000000140074968     pjmedia-x86_64-x64-vc14-release:errno.obj
 0002:000089a0       ??_C@_0EE@HKDIFKLN@Invalid?5SDP?5media?5transport?5for@ 00000001400749a0     pjmedia-x86_64-x64-vc14-release:errno.obj
 0002:000089e8       ??_C@_0DM@OPHJDJCK@SRTP?5crypto?5attribute?5required?5@ 00000001400749e8     pjmedia-x86_64-x64-vc14-release:errno.obj
 0002:00008a30       ??_C@_0EO@MOMMHEEA@Secure?5transport?5required?5in?5SD@ 0000000140074a30     pjmedia-x86_64-x64-vc14-release:errno.obj
 0002:00008a80       ??_C@_0EK@HIIDIBOJ@SRTP?5parameters?5negotiation?5sti@ 0000000140074a80     pjmedia-x86_64-x64-vc14-release:errno.obj
 0002:00008ad0       ??_C@_0EM@HBHPHIDH@No?5matching?5SRTP?5crypto?9suite?5a@ 0000000140074ad0     pjmedia-x86_64-x64-vc14-release:errno.obj
 0002:00008b20       ??_C@_0EN@OKMMPCBN@No?5certificate?5supplied?5by?5peer@ 0000000140074b20     pjmedia-x86_64-x64-vc14-release:errno.obj
 0002:00008b70       ??_C@_0FM@DHHDFBCG@Fingerprint?5from?5signalling?5not@ 0000000140074b70     pjmedia-x86_64-x64-vc14-release:errno.obj
 0002:00008bd0       ??_C@_0DE@BIABFNHJ@Fingerprint?5not?5found?5?$CIPJMEDIA_@ 0000000140074bd0     pjmedia-x86_64-x64-vc14-release:errno.obj
 0002:00008c10       ??_C@_0EG@NFPDPACI@No?5valid?5SRTP?5protection?5profil@ 0000000140074c10     pjmedia-x86_64-x64-vc14-release:errno.obj
 0002:00008c58       ??_C@_0BJ@JGEGOKIK@Unknown?5pjmedia?5error?5?$CFd@ 0000000140074c58     pjmedia-x86_64-x64-vc14-release:errno.obj
 0002:00008c80       pjmedia_linear2ulaw_tab    0000000140074c80     pjmedia-x86_64-x64-vc14-release:alaw_ulaw_table.obj
 0002:0000cc80       pjmedia_linear2alaw_tab    0000000140078c80     pjmedia-x86_64-x64-vc14-release:alaw_ulaw_table.obj
 0002:00010c80       pjmedia_ulaw2linear_tab    000000014007cc80     pjmedia-x86_64-x64-vc14-release:alaw_ulaw_table.obj
 0002:00010e80       pjmedia_alaw2linear_tab    000000014007ce80     pjmedia-x86_64-x64-vc14-release:alaw_ulaw_table.obj
 0002:00011080       ??_C@_04CCFCAPFE@sd?$CFp@  000000014007d080     pjmedia-x86_64-x64-vc14-release:silencedet.obj
 0002:00011088       ??_C@_0CJ@FEGDIEOD@Re?9adjust?5threshold?5?$CIin?5talk?5bu@ 000000014007d088     pjmedia-x86_64-x64-vc14-release:silencedet.obj
 0002:000110b8       ??_C@_0N@GGOMHLHN@silencedet?4c@ 000000014007d0b8     pjmedia-x86_64-x64-vc14-release:silencedet.obj
 0002:000110c8       ??_C@_0CM@HFHDPICL@Starting?5talk?5burst?5?$CIlevel?$DN?$CFd?5t@ 000000014007d0c8     pjmedia-x86_64-x64-vc14-release:silencedet.obj
 0002:000110f8       ??_C@_0CG@DGOMOKAK@Re?9adjust?5threshold?5?$CIin?5silence@ 000000014007d0f8     pjmedia-x86_64-x64-vc14-release:silencedet.obj
 0002:00011120       ??_C@_0CJ@HMFIAFFP@Starting?5silence?5?$CIlevel?$DN?$CFd?5thre@ 000000014007d120     pjmedia-x86_64-x64-vc14-release:silencedet.obj
 0002:00011150       ??_C@_0BA@LPBIANE@Echo?5suppressor@ 000000014007d150     pjmedia-x86_64-x64-vc14-release:echo_common.obj
 0002:00011160       ??_C@_09FHGNGIJH@Speex?5AEC@ 000000014007d160     pjmedia-x86_64-x64-vc14-release:echo_common.obj
 0002:0001116c       ??_C@_04FACFFFMP@ec?$CFp@  000000014007d16c     pjmedia-x86_64-x64-vc14-release:echo_common.obj
 0002:00011178       ??_C@_0M@KMDBLPFK@Creating?5?$CFs@ 000000014007d178     pjmedia-x86_64-x64-vc14-release:echo_common.obj
 0002:00011190       ??_C@_0FO@FCNNBEFH@?$CFs?5created?0?5clock_rate?$DN?$CFd?0?5chan@ 000000014007d190     pjmedia-x86_64-x64-vc14-release:echo_common.obj
 0002:000111f0       ??_C@_0BM@HOHFIKPJ@Latency?5bufferring?5complete@ 000000014007d1f0     pjmedia-x86_64-x64-vc14-release:echo_common.obj
 0002:00011210       ??_C@_0O@DBBHABPM@Prefetching?4?4@ 000000014007d210     pjmedia-x86_64-x64-vc14-release:echo_common.obj
 0002:00011220       ??_C@_0DG@GACEANMB@No?5frame?5from?5delay?5buffer?5?$CIthi@ 000000014007d220     pjmedia-x86_64-x64-vc14-release:echo_common.obj
 0002:00011258       ??_C@_05BPFJLLEL@video@    000000014007d258     pjmedia-x86_64-x64-vc14-release:types.obj
 0002:00011260       ??_C@_07CIFAGBMG@unknown@  000000014007d260     pjmedia-x86_64-x64-vc14-release:types.obj
 0002:00011268       ??_C@_03JBLJHHJA@ack@      000000014007d268     pjmedia-x86_64-x64-vc14-release:rtcp_fb.obj
 0002:0001126c       ??_C@_04FANNJGLN@nack@     000000014007d26c     pjmedia-x86_64-x64-vc14-release:rtcp_fb.obj
 0002:00011278       ??_C@_07PJLPNLNA@trr?9int@ 000000014007d278     pjmedia-x86_64-x64-vc14-release:rtcp_fb.obj
 0002:00011280       ??_C@_07FCPEBGCM@rtcp?9fb@ 000000014007d280     pjmedia-x86_64-x64-vc14-release:rtcp_fb.obj
 0002:00011288       ??_C@_0N@MLEOMPJK@?$CF?4?$CKs?1?$CFd?1?$CF?4?$CKs@ 000000014007d288     pjmedia-x86_64-x64-vc14-release:rtcp_fb.obj
 0002:00011298       ??_C@_09PENHMDKI@?$CF?4?$CKs?1?$CFd?11@ 000000014007d298     pjmedia-x86_64-x64-vc14-release:rtcp_fb.obj
 0002:000112a8       ??_C@_07GLMKCHOK@?$CF?4?$CKs?1?$CFd@ 000000014007d2a8     pjmedia-x86_64-x64-vc14-release:rtcp_fb.obj
 0002:000112b0       ??_C@_01NBENCBCI@?$CK@     000000014007d2b0     pjmedia-x86_64-x64-vc14-release:rtcp_fb.obj
 0002:000112b4       ??_C@_02OJDBNLEE@?5?7@     000000014007d2b4     pjmedia-x86_64-x64-vc14-release:rtcp_fb.obj
 0002:000112c0       ??_C@_0EB@OHKIBEFG@Warning?3?5fmtp?5parameter?5count?5e@ 000000014007d2c0     pjmedia-x86_64-x64-vc14-release:stream_common.obj
 0002:00011308       ??_C@_0BA@JPAJDJED@stream_common?4c@ 000000014007d308     pjmedia-x86_64-x64-vc14-release:stream_common.obj
 0002:00011318       ??_C@_0DL@OIPEDDCB@pjmedia_rtp_session_init?3?5ses?$DN?$CF@ 000000014007d318     pjmedia-x86_64-x64-vc14-release:rtp.obj
 0002:00011354       ??_C@_05BDLJEHIL@rtp?4c@   000000014007d354     pjmedia-x86_64-x64-vc14-release:rtp.obj
 0002:0001135c       ??_C@_06EAHJFANL@rtcp?4c@  000000014007d35c     pjmedia-x86_64-x64-vc14-release:rtcp.obj
 0002:00011368       ??_C@_0CL@JHAJNKLA@RTT?5value?5?$CFd?5usec?5is?5normalized@ 000000014007d368     pjmedia-x86_64-x64-vc14-release:rtcp.obj
 0002:000113a0       ??_C@_0FE@KPGOGEPL@Internal?5RTCP?5NTP?5clock?5skew?5de@ 000000014007d3a0     pjmedia-x86_64-x64-vc14-release:rtcp.obj
 0002:000113f8       ??_C@_0DD@HBJGFOMH@Unsufficient?5buffer?5to?5save?5RTC@ 000000014007d3f8     pjmedia-x86_64-x64-vc14-release:rtcp.obj
 0002:00011430       ??_C@_0CA@DILGMHIA@Received?5RTCP?5BYE?0?5reason?3?5?$CF?4?$CKs@ 000000014007d430     pjmedia-x86_64-x64-vc14-release:rtcp.obj
 0002:00011450       ??_C@_03EAHGGCNF@pli@      000000014007d450     pjmedia-x86_64-x64-vc14-release:rtcp.obj
 0002:00011458       __real@3fe0000000000000    000000014007d458     pjmedia-x86_64-x64-vc14-release:rtcp.obj
 0002:00011460       __real@408f400000000000    000000014007d460     pjmedia-x86_64-x64-vc14-release:rtcp.obj
 0002:00011468       __real@41efffffffe00000    000000014007d468     pjmedia-x86_64-x64-vc14-release:rtcp.obj
 0002:00011470       ??_C@_0DD@MMICNMEI@Warning?3?5buffer?5too?5small?5for?5t@ 000000014007d470     pjmedia-x86_64-x64-vc14-release:jbuf.obj
 0002:000114a4       ??_C@_06FLBFAJJF@jbuf?4c@  000000014007d4a4     pjmedia-x86_64-x64-vc14-release:jbuf.obj
 0002:000114b0       ??_C@_0KG@FCNLKHHC@JB?5summary?3?6?5?5size?$DN?$CFd?1eff?$DN?$CFd?5pr@ 000000014007d4b0     pjmedia-x86_64-x64-vc14-release:jbuf.obj
 0002:00011560       ??_C@_0EC@GPFNHOGJ@Warning?3?5frame?5too?5large?5for?5ji@ 000000014007d560     pjmedia-x86_64-x64-vc14-release:jbuf.obj
 0002:000115d8       ??_C@_08MPIAKENM@RTP?1SAVP@ 000000014007d5d8     pjmedia-x86_64-x64-vc14-release:transport_srtp.obj
 0002:000115e4       ??_C@_06LAEHEPPF@crypto@   000000014007d5e4     pjmedia-x86_64-x64-vc14-release:transport_srtp.obj
 0002:000115f0       ??_C@_0BI@FCCBBIDC@AES_256_CM_HMAC_SHA1_80@ 000000014007d5f0     pjmedia-x86_64-x64-vc14-release:transport_srtp.obj
 0002:00011608       ??_C@_0BI@GMECJFFB@AES_256_CM_HMAC_SHA1_32@ 000000014007d608     pjmedia-x86_64-x64-vc14-release:transport_srtp.obj
 0002:00011620       ??_C@_0BI@OADHPNHF@AES_CM_128_HMAC_SHA1_80@ 000000014007d620     pjmedia-x86_64-x64-vc14-release:transport_srtp.obj
 0002:00011638       ??_C@_0BI@NOFEHABG@AES_CM_128_HMAC_SHA1_32@ 000000014007d638     pjmedia-x86_64-x64-vc14-release:transport_srtp.obj
 0002:00011650       ??_C@_02MFDMBIJM@ok@       000000014007d650     pjmedia-x86_64-x64-vc14-release:transport_srtp.obj
 0002:00011658       ??_C@_0BE@KFOIPNMM@unspecified?5failure@ 000000014007d658     pjmedia-x86_64-x64-vc14-release:transport_srtp.obj
 0002:00011670       ??_C@_0BG@LENPEKHL@unsupported?5parameter@ 000000014007d670     pjmedia-x86_64-x64-vc14-release:transport_srtp.obj
 0002:00011688       ??_C@_0BJ@DGLNBGGB@couldn?8t?5allocate?5memory@ 000000014007d688     pjmedia-x86_64-x64-vc14-release:transport_srtp.obj
 0002:000116a8       ??_C@_0BN@LJIJFBAJ@couldn?8t?5deallocate?5properly@ 000000014007d6a8     pjmedia-x86_64-x64-vc14-release:transport_srtp.obj
 0002:000116c8       ??_C@_0BE@KBPICNEA@couldn?8t?5initialize@ 000000014007d6c8     pjmedia-x86_64-x64-vc14-release:transport_srtp.obj
 0002:000116e0       ??_C@_0CI@FEPPFOBO@can?8t?5process?5as?5much?5data?5as?5r@ 000000014007d6e0     pjmedia-x86_64-x64-vc14-release:transport_srtp.obj
 0002:00011708       ??_C@_0BH@DJJHFLDI@authentication?5failure@ 000000014007d708     pjmedia-x86_64-x64-vc14-release:transport_srtp.obj
 0002:00011720       ??_C@_0P@MHOCHBCE@cipher?5failure@ 000000014007d720     pjmedia-x86_64-x64-vc14-release:transport_srtp.obj
 0002:00011730       ??_C@_0CA@LIFPFHJ@replay?5check?5failed?5?$CIbad?5index?$CJ@ 000000014007d730     pjmedia-x86_64-x64-vc14-release:transport_srtp.obj
 0002:00011750       ??_C@_0CE@GCMJOMFK@replay?5check?5failed?5?$CIindex?5too?5@ 000000014007d750     pjmedia-x86_64-x64-vc14-release:transport_srtp.obj
 0002:00011778       ??_C@_0BO@KLFALCF@algorithm?5failed?5test?5routine@ 000000014007d778     pjmedia-x86_64-x64-vc14-release:transport_srtp.obj
 0002:00011798       ??_C@_0BG@JKFIFBMN@unsupported?5operation@ 000000014007d798     pjmedia-x86_64-x64-vc14-release:transport_srtp.obj
 0002:000117b0       ??_C@_0BN@PDJKDLOF@no?5appropriate?5context?5found@ 000000014007d7b0     pjmedia-x86_64-x64-vc14-release:transport_srtp.obj
 0002:000117d0       ??_C@_0CF@DOHHPHGD@unable?5to?5perform?5desired?5valid@ 000000014007d7d0     pjmedia-x86_64-x64-vc14-release:transport_srtp.obj
 0002:000117f8       ??_C@_0BH@NKHPNDDN@can?8t?5use?5key?5any?5more@ 000000014007d7f8     pjmedia-x86_64-x64-vc14-release:transport_srtp.obj
 0002:00011810       ??_C@_0BH@CDHGOGDE@error?5in?5use?5of?5socket@ 000000014007d810     pjmedia-x86_64-x64-vc14-release:transport_srtp.obj
 0002:00011828       ??_C@_0BL@DJFHEKEC@error?5in?5use?5POSIX?5signals@ 000000014007d828     pjmedia-x86_64-x64-vc14-release:transport_srtp.obj
 0002:00011848       ??_C@_0BD@HFMCMINA@nonce?5check?5failed@ 000000014007d848     pjmedia-x86_64-x64-vc14-release:transport_srtp.obj
 0002:00011860       ??_C@_0BD@FCFDDPHP@couldn?8t?5read?5data@ 000000014007d860     pjmedia-x86_64-x64-vc14-release:transport_srtp.obj
 0002:00011878       ??_C@_0BE@PIHIJLHG@couldn?8t?5write?5data@ 000000014007d878     pjmedia-x86_64-x64-vc14-release:transport_srtp.obj
 0002:00011890       ??_C@_0BD@PIIFGNCP@error?5pasring?5data@ 000000014007d890     pjmedia-x86_64-x64-vc14-release:transport_srtp.obj
 0002:000118a8       ??_C@_0BE@FFKLLGEP@error?5encoding?5data@ 000000014007d8a8     pjmedia-x86_64-x64-vc14-release:transport_srtp.obj
 0002:000118c0       ??_C@_0BN@OEPMNKMP@error?5while?5using?5semaphores@ 000000014007d8c0     pjmedia-x86_64-x64-vc14-release:transport_srtp.obj
 0002:000118e0       ??_C@_0BI@JNCDFEKK@error?5while?5using?5pfkey@ 000000014007d8e0     pjmedia-x86_64-x64-vc14-release:transport_srtp.obj
 0002:00011900       ??_C@_0EB@EJGHAKCH@Warning?3?5simple?5random?5generato@ 000000014007d900     pjmedia-x86_64-x64-vc14-release:transport_srtp.obj
 0002:00011948       ??_C@_0BB@HGEADDBB@transport_srtp?4c@ 000000014007d948     pjmedia-x86_64-x64-vc14-release:transport_srtp.obj
 0002:00011960       ??_C@_0CE@BAIPFCEP@Failed?5encoding?5plain?5key?5to?5ba@ 000000014007d960     pjmedia-x86_64-x64-vc14-release:transport_srtp.obj
 0002:00011988       ??_C@_0BA@OGAKIHAO@?$CFd?5?$CFs?5inline?3?$CFs@ 000000014007d988     pjmedia-x86_64-x64-vc14-release:transport_srtp.obj
 0002:00011998       ??_C@_0BP@IBJNGPHO@Attribute?5crypto?5expecting?5tag@ 000000014007d998     pjmedia-x86_64-x64-vc14-release:transport_srtp.obj
 0002:000119b8       ??_C@_0CI@IIDGBGP@Attribute?5crypto?5expecting?5cryp@ 000000014007d9b8     pjmedia-x86_64-x64-vc14-release:transport_srtp.obj
 0002:000119e0       ??_C@_02LMMGGCAJ@?3?5@     000000014007d9e0     pjmedia-x86_64-x64-vc14-release:transport_srtp.obj
 0002:000119e8       ??_C@_0CG@JCJFEHFF@Attribute?5crypto?5expecting?5key?5@ 000000014007d9e8     pjmedia-x86_64-x64-vc14-release:transport_srtp.obj
 0002:00011a10       ??_C@_06OGMBMJA@inline@    000000014007da10     pjmedia-x86_64-x64-vc14-release:transport_srtp.obj
 0002:00011a18       ??_C@_0DC@FIGAPMKM@Attribute?5crypto?5key?5method?5?8?$CF?4@ 000000014007da18     pjmedia-x86_64-x64-vc14-release:transport_srtp.obj
 0002:00011a4c       ??_C@_02MINBJDHL@?$HM?5@   000000014007da4c     pjmedia-x86_64-x64-vc14-release:transport_srtp.obj
 0002:00011a50       ??_C@_0BP@FKKPLPLE@Attribute?5crypto?5expecting?5key@ 000000014007da50     pjmedia-x86_64-x64-vc14-release:transport_srtp.obj
 0002:00011a70       ??_C@_0N@FJKIJMGM@Key?5too?5long@ 000000014007da70     pjmedia-x86_64-x64-vc14-release:transport_srtp.obj
 0002:00011a80       ??_C@_0CH@PPONEAL@Failed?5decoding?5crypto?5key?5from@ 000000014007da80     pjmedia-x86_64-x64-vc14-release:transport_srtp.obj
 0002:00011aa8       ??_C@_0BA@CMIKGIPP@SRTP?5not?5active@ 000000014007daa8     pjmedia-x86_64-x64-vc14-release:transport_srtp.obj
 0002:00011ab8       ??_C@_04LFNPDDCP@SDES@     000000014007dab8     pjmedia-x86_64-x64-vc14-release:transport_srtp.obj
 0002:00011ac0       ??_C@_09LMBOLLED@DTLS?9SRTP@ 000000014007dac0     pjmedia-x86_64-x64-vc14-release:transport_srtp.obj
 0002:00011ad0       ??_C@_0CD@NFEKFFAL@SRTP?5started?0?5keying?$DN?$CFs?0?5crypto@ 000000014007dad0     pjmedia-x86_64-x64-vc14-release:transport_srtp.obj
 0002:00011af8       ??_C@_0BP@CAGNCNCA@Failed?5to?5restart?5SRTP?0?5err?$DN?$CFs@ 000000014007daf8     pjmedia-x86_64-x64-vc14-release:transport_srtp.obj
 0002:00011b18       ??_C@_0CO@EDHKLEPP@Failed?5to?5unprotect?5SRTP?0?5pkt?5s@ 000000014007db18     pjmedia-x86_64-x64-vc14-release:transport_srtp.obj
 0002:00011b48       ??_C@_0CP@OAIPELPD@Failed?5to?5unprotect?5SRTCP?0?5pkt?5@ 000000014007db48     pjmedia-x86_64-x64-vc14-release:transport_srtp.obj
 0002:00011b78       ??_C@_0BL@LHHEAKNJ@SRTP?5uses?5keying?5method?5?$CFs@ 000000014007db78     pjmedia-x86_64-x64-vc14-release:transport_srtp.obj
 0002:00011b98       ??_C@_0CN@IMPBKLBH@SRTP?5failed?5stop?5underlying?5med@ 000000014007db98     pjmedia-x86_64-x64-vc14-release:transport_srtp.obj
 0002:00011bc8       ??_C@_0BJ@BOBCJFAN@Unknown?5libsrtp?5error?5?$CFd@ 000000014007dbc8     pjmedia-x86_64-x64-vc14-release:transport_srtp.obj
 0002:00011be8       ??_C@_0BB@JENPEJDI@?9?9key?5too?5long?9?9@ 000000014007dbe8     pjmedia-x86_64-x64-vc14-release:transport_srtp.obj
 0002:00011c00       ??_C@_0O@LPFLKIMI@TX?3?5?$CFs?5key?$DN?$CFs@ 000000014007dc00     pjmedia-x86_64-x64-vc14-release:transport_srtp.obj
 0002:00011c10       ??_C@_05EPPOHEBK@?5auth@   000000014007dc10     pjmedia-x86_64-x64-vc14-release:transport_srtp.obj
 0002:00011c18       ??_C@_04PIHNPOJJ@?5enc@    000000014007dc18     pjmedia-x86_64-x64-vc14-release:transport_srtp.obj
 0002:00011c20       ??_C@_0BA@BONGIHBG@TX?3?5disable?$CFs?$CFs@ 000000014007dc20     pjmedia-x86_64-x64-vc14-release:transport_srtp.obj
 0002:00011c30       ??_C@_0O@EHJJODHO@RX?3?5?$CFs?5key?$DN?$CFs@ 000000014007dc30     pjmedia-x86_64-x64-vc14-release:transport_srtp.obj
 0002:00011c40       ??_C@_0BA@ENEHOOPC@RX?3?5disable?$CFs?$CFs@ 000000014007dc40     pjmedia-x86_64-x64-vc14-release:transport_srtp.obj
 0002:00011c50       ??_C@_0CG@KDAPJFOB@Failed?5to?5dealloc?5RX?5SRTP?5conte@ 000000014007dc50     pjmedia-x86_64-x64-vc14-release:transport_srtp.obj
 0002:00011c78       ??_C@_0CG@CHCMAIDE@Failed?5to?5dealloc?5TX?5SRTP?5conte@ 000000014007dc78     pjmedia-x86_64-x64-vc14-release:transport_srtp.obj
 0002:00011ca0       __real@3f800000            000000014007dca0     pjmedia-x86_64-x64-vc14-release:wsola.obj
 0002:00011ca8       __real@3ff0000000000000    000000014007dca8     pjmedia-x86_64-x64-vc14-release:wsola.obj
 0002:00011cb0       __real@3ff8000000000000    000000014007dcb0     pjmedia-x86_64-x64-vc14-release:wsola.obj
 0002:00011cb8       __real@401921fb54442d18    000000014007dcb8     pjmedia-x86_64-x64-vc14-release:wsola.obj
 0002:00011cc0       __real@bf800000            000000014007dcc0     pjmedia-x86_64-x64-vc14-release:wsola.obj
 0002:00011cc8       ??_C@_0CK@GILFEPIK@Echo?5suppressor?5soft?5reset?4?5Re?9@ 000000014007dcc8     pjmedia-x86_64-x64-vc14-release:echo_suppress.obj
 0002:00011cf8       ??_C@_0BA@GIJBCBML@echo_suppress?4c@ 000000014007dcf8     pjmedia-x86_64-x64-vc14-release:echo_suppress.obj
 0002:00011d10       ??_C@_0FL@JMGHEEIK@Echo?5suppressor?5updated?5at?5t?$DN?$CF0@ 000000014007dd10     pjmedia-x86_64-x64-vc14-release:echo_suppress.obj
 0002:00011d70       ??_C@_0FK@NODMKGEL@Echo?5suppressor?5learning?5done?5a@ 000000014007dd70     pjmedia-x86_64-x64-vc14-release:echo_suppress.obj
 0002:00011dd0       ??_C@_0CC@OBLDMFND@Echo?5suppressor?5residue?5?$DN?5?$CFd?4?$CF0@ 000000014007ddd0     pjmedia-x86_64-x64-vc14-release:echo_suppress.obj
 0002:00011df8       ??_C@_0M@NHLIMPJD@in?5progress@ 000000014007ddf8     pjmedia-x86_64-x64-vc14-release:echo_suppress.obj
 0002:00011e04       ??_C@_04GMOJEHPC@done@     000000014007de04     pjmedia-x86_64-x64-vc14-release:echo_suppress.obj
 0002:00011e10       ??_C@_0GC@GDBJBODO@Echo?5suppressor?5learning?5?$CFs?5at?5@ 000000014007de10     pjmedia-x86_64-x64-vc14-release:echo_suppress.obj
 0002:00011e74       __real@3f000000            000000014007de74     pjmedia-x86_64-x64-vc14-release:echo_suppress.obj
 0002:00011e78       __real@40200000            000000014007de78     pjmedia-x86_64-x64-vc14-release:echo_suppress.obj
 0002:00011e7c       __real@40400000            000000014007de7c     pjmedia-x86_64-x64-vc14-release:echo_suppress.obj
 0002:00011e80       __real@41980000            000000014007de80     pjmedia-x86_64-x64-vc14-release:echo_suppress.obj
 0002:00011e84       __real@41a00000            000000014007de84     pjmedia-x86_64-x64-vc14-release:echo_suppress.obj
 0002:00011e88       __real@447a0000            000000014007de88     pjmedia-x86_64-x64-vc14-release:echo_suppress.obj
 0002:00011e90       __xmm@80000000800000008000000080000000 000000014007de90     pjmedia-x86_64-x64-vc14-release:echo_suppress.obj
 0002:00011ea0       ??_C@_08LLMLEOE@delaybuf@  000000014007dea0     pjmedia-x86_64-x64-vc14-release:delaybuf.obj
 0002:00011eb0       ??_C@_0BP@CKANIKAH@Using?5delay?5buffer?5with?5WSOLA?4@ 000000014007deb0     pjmedia-x86_64-x64-vc14-release:delaybuf.obj
 0002:00011ed0       ??_C@_0CA@BKBNPCON@Using?5simple?5FIFO?5delay?5buffer?4@ 000000014007ded0     pjmedia-x86_64-x64-vc14-release:delaybuf.obj
 0002:00011ef0       ??_C@_0BP@JJBHJNOO@?$CFd?5samples?5reduced?0?5buf_cnt?$DN?$CFd@ 000000014007def0     pjmedia-x86_64-x64-vc14-release:delaybuf.obj
 0002:00011f10       ??_C@_0DA@FPCBOFHC@Buffer?5size?5adjusted?5from?5?$CFd?5to@ 000000014007df10     pjmedia-x86_64-x64-vc14-release:delaybuf.obj
 0002:00011f40       ??_C@_0CD@DJOCKALK@Shrinking?5failed?5or?5insufficien@ 000000014007df40     pjmedia-x86_64-x64-vc14-release:delaybuf.obj
 0002:00011f68       ??_C@_0CJ@KJHKGIAO@?$CFsDropping?5?$CFd?5eldest?5samples?0?5b@ 000000014007df68     pjmedia-x86_64-x64-vc14-release:delaybuf.obj
 0002:00011f98       ??_C@_0CN@FEOJBHHF@Underflow?0?5buf_cnt?$DN?$CFd?0?5will?5gen@ 000000014007df98     pjmedia-x86_64-x64-vc14-release:delaybuf.obj
 0002:00011fc8       ??_C@_0BH@KCPKLNAI@Error?5generating?5frame@ 000000014007dfc8     pjmedia-x86_64-x64-vc14-release:delaybuf.obj
 0002:000123a0       ??_C@_0DI@FPKNFLPC@Unable?5to?5resolve?5STUN?5server?5?$CI@ 000000014007e3a0     pjlib-util-x86_64-x64-vc14-release:errno.obj
 0002:000123d8       ??_C@_0DG@MLIAHJMC@Unknown?5STUN?5message?5type?5?$CIPJLI@ 000000014007e3d8     pjlib-util-x86_64-x64-vc14-release:errno.obj
 0002:00012410       ??_C@_0DH@BGLGMNML@Invalid?5STUN?5message?5length?5?$CIPJ@ 000000014007e410     pjlib-util-x86_64-x64-vc14-release:errno.obj
 0002:00012448       ??_C@_0DI@MNKBLDCO@STUN?5attribute?5length?5error?5?$CIPJ@ 000000014007e448     pjlib-util-x86_64-x64-vc14-release:errno.obj
 0002:00012480       ??_C@_0DJ@GEFJCPHI@Invalid?5STUN?5attribute?5type?5?$CIPJ@ 000000014007e480     pjlib-util-x86_64-x64-vc14-release:errno.obj
 0002:000124c0       ??_C@_0DL@JFEBBJAB@Invalid?5STUN?5server?1socket?5inde@ 000000014007e4c0     pjlib-util-x86_64-x64-vc14-release:errno.obj
 0002:00012500       ??_C@_0EE@OMBAKMPD@No?5STUN?5binding?5response?5in?5the@ 000000014007e500     pjlib-util-x86_64-x64-vc14-release:errno.obj
 0002:00012548       ??_C@_0DM@JJJKHKHH@Received?5STUN?5error?5attribute?5?$CI@ 000000014007e548     pjlib-util-x86_64-x64-vc14-release:errno.obj
 0002:00012588       ??_C@_0DJ@BDPKKDEL@No?5STUN?5mapped?5address?5attribut@ 000000014007e588     pjlib-util-x86_64-x64-vc14-release:errno.obj
 0002:000125d0       ??_C@_0ED@MIOBPJDH@Received?5no?5response?5from?5STUN?5@ 000000014007e5d0     pjlib-util-x86_64-x64-vc14-release:errno.obj
 0002:00012618       ??_C@_0DK@OILEGGA@Symetric?5NAT?5detected?5by?5STUN?5?$CI@ 000000014007e618     pjlib-util-x86_64-x64-vc14-release:errno.obj
 0002:00012658       ??_C@_0CI@OKGDIDF@Invalid?5XML?5message?5?$CIPJLIB_UTIL@ 000000014007e658     pjlib-util-x86_64-x64-vc14-release:errno.obj
 0002:00012680       ??_C@_0CL@IPLFEOJE@Invalid?5JSON?5document?5?$CIPJLIB_UT@ 000000014007e680     pjlib-util-x86_64-x64-vc14-release:errno.obj
 0002:000126b0       ??_C@_0EC@KJLJANIE@DNS?5query?5packet?5buffer?5is?5too?5@ 000000014007e6b0     pjlib-util-x86_64-x64-vc14-release:errno.obj
 0002:000126f8       ??_C@_0DC@JFKHADAC@Invalid?5DNS?5packet?5length?5?$CIPJLI@ 000000014007e6f8     pjlib-util-x86_64-x64-vc14-release:errno.obj
 0002:00012730       ??_C@_0CL@OCFDFFNM@Invalid?5DNS?5class?5?$CIPJLIB_UTIL_E@ 000000014007e730     pjlib-util-x86_64-x64-vc14-release:errno.obj
 0002:00012760       ??_C@_0DE@FIPILDGP@Invalid?5DNS?5name?5pointer?5?$CIPJLIB@ 000000014007e760     pjlib-util-x86_64-x64-vc14-release:errno.obj
 0002:00012798       ??_C@_0DJ@NBOGGJL@Invalid?5DNS?5nameserver?5address?5@ 000000014007e798     pjlib-util-x86_64-x64-vc14-release:errno.obj
 0002:000127d8       ??_C@_0DH@LFJGDOHB@No?5nameserver?5is?5in?5DNS?5resolve@ 000000014007e7d8     pjlib-util-x86_64-x64-vc14-release:errno.obj
 0002:00012810       ??_C@_0DH@PHJBLCKD@No?5working?5DNS?5nameserver?5?$CIPJLI@ 000000014007e810     pjlib-util-x86_64-x64-vc14-release:errno.obj
 0002:00012850       ??_C@_0EC@HJFBNLFC@No?5answer?5record?5in?5the?5DNS?5res@ 000000014007e850     pjlib-util-x86_64-x64-vc14-release:errno.obj
 0002:00012898       ??_C@_0CN@DEFBDJKF@Invalid?5DNS?5answer?5?$CIPJLIB_UTIL_@ 000000014007e898     pjlib-util-x86_64-x64-vc14-release:errno.obj
 0002:000128c8       ??_C@_0CN@BCAAPMPM@DNS?5?$CCFormat?5error?$CC?5?$CIPJLIB_UTIL_@ 000000014007e8c8     pjlib-util-x86_64-x64-vc14-release:errno.obj
 0002:000128f8       ??_C@_0DA@NBPIIAHM@DNS?5?$CCServer?5failure?$CC?5?$CIPJLIB_UTI@ 000000014007e8f8     pjlib-util-x86_64-x64-vc14-release:errno.obj
 0002:00012928       ??_C@_0CM@CNNJNBCA@DNS?5?$CCName?5Error?$CC?5?$CIPJLIB_UTIL_ED@ 000000014007e928     pjlib-util-x86_64-x64-vc14-release:errno.obj
 0002:00012958       ??_C@_0DA@DIMDKHPM@DNS?5?$CCNot?5Implemented?$CC?5?$CIPJLIB_UT@ 000000014007e958     pjlib-util-x86_64-x64-vc14-release:errno.obj
 0002:00012988       ??_C@_0CI@LDMKLLKJ@DNS?5?$CCRefused?$CC?5?$CIPJLIB_UTIL_EDNS_@ 000000014007e988     pjlib-util-x86_64-x64-vc14-release:errno.obj
 0002:000129b0       ??_C@_0DB@PFAMNHPJ@DNS?5?$CCThe?5name?5exists?$CC?5?$CIPJLIB_UT@ 000000014007e9b0     pjlib-util-x86_64-x64-vc14-release:errno.obj
 0002:000129e8       ??_C@_0DO@OIIHMCI@DNS?5?$CCThe?5RRset?5?$CIname?0?5type?$CJ?5exi@ 000000014007e9e8     pjlib-util-x86_64-x64-vc14-release:errno.obj
 0002:00012a30       ??_C@_0EG@OMHMBNML@DNS?5?$CCThe?5RRset?5?$CIname?0?5type?$CJ?5doe@ 000000014007ea30     pjlib-util-x86_64-x64-vc14-release:errno.obj
 0002:00012a78       ??_C@_0CP@HJODAHHO@DNS?5?$CCNot?5authorized?$CC?5?$CIPJLIB_UTI@ 000000014007ea78     pjlib-util-x86_64-x64-vc14-release:errno.obj
 0002:00012ab0       ??_C@_0EB@GKEHOPAE@DNS?5?$CCThe?5zone?5specified?5is?5not?5@ 000000014007eab0     pjlib-util-x86_64-x64-vc14-release:errno.obj
 0002:00012af8       ??_C@_0DH@EMGNELGL@Too?5many?5STUN?5attributes?5?$CIPJLIB@ 000000014007eaf8     pjlib-util-x86_64-x64-vc14-release:errno.obj
 0002:00012b30       ??_C@_0DF@KMIPDCMM@Unknown?5STUN?5attribute?5?$CIPJLIB_U@ 000000014007eb30     pjlib-util-x86_64-x64-vc14-release:errno.obj
 0002:00012b68       ??_C@_0DP@PDBNFLFH@Invalid?5STUN?5socket?5address?5len@ 000000014007eb68     pjlib-util-x86_64-x64-vc14-release:errno.obj
 0002:00012bb0       ??_C@_0EA@NAKPKGDE@STUN?5IPv6?5attribute?5not?5support@ 000000014007ebb0     pjlib-util-x86_64-x64-vc14-release:errno.obj
 0002:00012bf0       ??_C@_0DO@LEKPMIHP@Expecting?5STUN?5response?5message@ 000000014007ebf0     pjlib-util-x86_64-x64-vc14-release:errno.obj
 0002:00012c30       ??_C@_0DJ@DDEJFFIL@STUN?5transaction?5ID?5mismatch?5?$CIP@ 000000014007ec30     pjlib-util-x86_64-x64-vc14-release:errno.obj
 0002:00012c70       ??_C@_0EI@BNLBFIKH@Unable?5to?5find?5STUN?5handler?5for@ 000000014007ec70     pjlib-util-x86_64-x64-vc14-release:errno.obj
 0002:00012cc0       ??_C@_0FA@DIAPLEFD@Found?5non?9FINGERPRINT?5attr?4?5aft@ 000000014007ecc0     pjlib-util-x86_64-x64-vc14-release:errno.obj
 0002:00012d10       ??_C@_0ED@CNMDGMPD@Found?5STUN?5attribute?5after?5FING@ 000000014007ed10     pjlib-util-x86_64-x64-vc14-release:errno.obj
 0002:00012d58       ??_C@_0DN@JLMAJAKN@Missing?5STUN?5USERNAME?5attribute@ 000000014007ed58     pjlib-util-x86_64-x64-vc14-release:errno.obj
 0002:00012da0       ??_C@_0EK@LMHKLKC@Missing?1invalid?5STUN?5MESSAGE?9IN@ 000000014007eda0     pjlib-util-x86_64-x64-vc14-release:errno.obj
 0002:00012df0       ??_C@_0DJ@BCFNCGF@Found?5duplicate?5STUN?5attribute?5@ 000000014007edf0     pjlib-util-x86_64-x64-vc14-release:errno.obj
 0002:00012e30       ??_C@_0DH@MMHMOPBG@Missing?5STUN?5REALM?5attribute?5?$CIP@ 000000014007ee30     pjlib-util-x86_64-x64-vc14-release:errno.obj
 0002:00012e70       ??_C@_0EB@FGOGNHPO@Missing?1stale?5STUN?5NONCE?5attrib@ 000000014007ee70     pjlib-util-x86_64-x64-vc14-release:errno.obj
 0002:00012ec0       ??_C@_0EF@HAPLEMIK@STUN?5transaction?5terminates?5wit@ 000000014007eec0     pjlib-util-x86_64-x64-vc14-release:errno.obj
 0002:00012f08       ??_C@_0CL@GOOAEBLJ@Invalid?5URL?5format?5?$CIPJLIB_UTIL_@ 000000014007ef08     pjlib-util-x86_64-x64-vc14-release:errno.obj
 0002:00012f38       ??_C@_0DB@BDFJPAOA@Invalid?5URL?5port?5number?5?$CIPJLIB_@ 000000014007ef38     pjlib-util-x86_64-x64-vc14-release:errno.obj
 0002:00012f70       ??_C@_0DN@CABCKELB@Incomplete?5response?5header?5rece@ 000000014007ef70     pjlib-util-x86_64-x64-vc14-release:errno.obj
 0002:00012fb0       ??_C@_0CN@MKMAKFDH@Insufficient?5buffer?5?$CIPJLIB_UTIL@ 000000014007efb0     pjlib-util-x86_64-x64-vc14-release:errno.obj
 0002:00012fe0       ??_C@_0CH@JNBFBBKA@Connection?5lost?5?$CIPJLIB_UTIL_EHT@ 000000014007efe0     pjlib-util-x86_64-x64-vc14-release:errno.obj
 0002:00013008       ??_C@_0CE@DHMMOEGP@Exit?5current?5session?5?$CIPJ_CLI_EE@ 000000014007f008     pjlib-util-x86_64-x64-vc14-release:errno.obj
 0002:00013030       ??_C@_0CG@LEDMCEME@Missing?5argument?5?$CIPJ_CLI_EMISSI@ 000000014007f030     pjlib-util-x86_64-x64-vc14-release:errno.obj
 0002:00013058       ??_C@_0CJ@ECODGDHL@Too?5many?5arguments?5?$CIPJ_CLI_ETOO@ 000000014007f058     pjlib-util-x86_64-x64-vc14-release:errno.obj
 0002:00013088       ??_C@_0CC@NLPGOLED@Invalid?5argument?5?$CIPJ_CLI_EINVAR@ 000000014007f088     pjlib-util-x86_64-x64-vc14-release:errno.obj
 0002:000130b0       ??_C@_0CO@OOEOBCH@Command?5name?5already?5exists?5?$CIPJ@ 000000014007f0b0     pjlib-util-x86_64-x64-vc14-release:errno.obj
 0002:000130e0       ??_C@_0CK@MKOACJP@Command?5id?5already?5exists?5?$CIPJ_C@ 000000014007f0e0     pjlib-util-x86_64-x64-vc14-release:errno.obj
 0002:00013110       ??_C@_0CE@LHHCBFML@Invalid?5XML?5format?5?$CIPJ_CLI_EBAD@ 000000014007f110     pjlib-util-x86_64-x64-vc14-release:errno.obj
 0002:00013138       ??_C@_0CF@CKMLJLLP@Connection?5lost?5?$CIPJ_CLI_ETELNET@ 000000014007f138     pjlib-util-x86_64-x64-vc14-release:errno.obj
 0002:00013160       ??_C@_0BM@LDLEGOFO@Unknown?5pjlib?9util?5error?5?$CFd@ 000000014007f160     pjlib-util-x86_64-x64-vc14-release:errno.obj
 0002:00013180       ??_C@_0IF@ECGJNPNE@C?3?2Users?2WerBinIch?2Documents?2gi@ 000000014007f180     pjlib-util-x86_64-x64-vc14-release:scanner.obj
 0002:00013210       __xmm@00000001000000010000000100000001 000000014007f210     pjlib-util-x86_64-x64-vc14-release:scanner.obj
 0002:00013220       __xmm@ffffffffffffffffffffffffffffffff 000000014007f220     pjlib-util-x86_64-x64-vc14-release:scanner.obj
 0002:00013230       ??_C@_07IAIHCIDD@Probing@  000000014007f230     pjlib-util-x86_64-x64-vc14-release:resolver.obj
 0002:00013238       ??_C@_06MAFFGDO@Active@    000000014007f238     pjlib-util-x86_64-x64-vc14-release:resolver.obj
 0002:00013240       ??_C@_03KHCCLPOB@Bad@      000000014007f240     pjlib-util-x86_64-x64-vc14-release:resolver.obj
 0002:00013250       ??_C@_0IG@HEKEAGJP@C?3?2Users?2WerBinIch?2Documents?2gi@ 000000014007f250     pjlib-util-x86_64-x64-vc14-release:resolver.obj
 0002:000132d8       ??_C@_0BH@PPEBBIFJ@?0?5will?5try?5again?5later@ 000000014007f2d8     pjlib-util-x86_64-x64-vc14-release:resolver.obj
 0002:000132f0       ??_C@_0DC@GOFLGJND@Socket?5busy?5in?5transmitting?5DNS@ 000000014007f2f0     pjlib-util-x86_64-x64-vc14-release:resolver.obj
 0002:00013328       ??_C@_0N@IBGJGPJN@Transmitting@ 000000014007f328     pjlib-util-x86_64-x64-vc14-release:resolver.obj
 0002:00013338       ??_C@_0BA@JFAGDHFD@Re?9transmitting@ 000000014007f338     pjlib-util-x86_64-x64-vc14-release:resolver.obj
 0002:00013348       ??_C@_0DC@PBGKNNLN@?$CFs?5?$CFd?5bytes?5to?5NS?5?$CFd?5?$CI?$CFs?3?$CFd?$CJ?3?5D@ 000000014007f348     pjlib-util-x86_64-x64-vc14-release:resolver.obj
 0002:00013380       ??_C@_0DE@LLACOPGB@Picked?5up?5DNS?5?$CFs?5record?5for?5?$CF?4?$CK@ 000000014007f380     pjlib-util-x86_64-x64-vc14-release:resolver.obj
 0002:000133b8       ??_C@_0CJ@MMDCPKPE@Nameserver?5?$CFs?3?$CFd?5state?5changed?5@ 000000014007f3b8     pjlib-util-x86_64-x64-vc14-release:resolver.obj
 0002:000133e8       ??_C@_0BL@DBKKFGCL@Error?5transmitting?5request@ 000000014007f3e8     pjlib-util-x86_64-x64-vc14-release:resolver.obj
 0002:00013404       ??_C@_01FHEEJDEE@A@        000000014007f404     pjlib-util-x86_64-x64-vc14-release:dns.obj
 0002:00013408       ??_C@_04OHNMNPPA@AAAA@     000000014007f408     pjlib-util-x86_64-x64-vc14-release:dns.obj
 0002:00013410       ??_C@_03IENKIAKD@SRV@      000000014007f410     pjlib-util-x86_64-x64-vc14-release:dns.obj
 0002:00013414       ??_C@_02OLCMIILA@NS@       000000014007f414     pjlib-util-x86_64-x64-vc14-release:dns.obj
 0002:00013418       ??_C@_05PGNGFKDN@CNAME@    000000014007f418     pjlib-util-x86_64-x64-vc14-release:dns.obj
 0002:00013420       ??_C@_03PGIOJGPL@PTR@      000000014007f420     pjlib-util-x86_64-x64-vc14-release:dns.obj
 0002:00013424       ??_C@_02KJOOPCC@MX@        000000014007f424     pjlib-util-x86_64-x64-vc14-release:dns.obj
 0002:00013428       ??_C@_03CGKMFPEO@TXT@      000000014007f428     pjlib-util-x86_64-x64-vc14-release:dns.obj
 0002:0001342c       ??_C@_05DGMJPCKB@NAPTR@    000000014007f42c     pjlib-util-x86_64-x64-vc14-release:dns.obj
 0002:00013438       ??_C@_09ONJBBFFA@?$CIUnknown?$CJ@ 000000014007f438     pjlib-util-x86_64-x64-vc14-release:dns.obj
 0002:00013444       ??_C@_01LFCBOECM@?4@       000000014007f444     pjlib-util-x86_64-x64-vc14-release:srv_resolver.obj
 0002:00013448       ??_C@_0DA@GGGKMBOI@Starting?5async?5DNS?5?$CFs?5query_job@ 000000014007f448     pjlib-util-x86_64-x64-vc14-release:srv_resolver.obj
 0002:00013478       ??_C@_0CL@ICCMMEFF@Received?5non?5SRV?5answer?5for?5SRV@ 000000014007f478     pjlib-util-x86_64-x64-vc14-release:srv_resolver.obj
 0002:000134a8       ??_C@_0BG@OENDJHLB@Hostname?5is?5too?5long?$CB@ 000000014007f4a8     pjlib-util-x86_64-x64-vc14-release:srv_resolver.obj
 0002:000134c0       ??_C@_0BD@DHMAIAEI@Hostname?5is?5empty?$CB@ 000000014007f4c0     pjlib-util-x86_64-x64-vc14-release:srv_resolver.obj
 0002:000134d8       ??_C@_0CJ@IGNPBKGN@Could?5not?5find?5SRV?5record?5in?5DN@ 000000014007f4d8     pjlib-util-x86_64-x64-vc14-release:srv_resolver.obj
 0002:00013510       ??_C@_0EE@LPMFAMKM@SRV?5query_job?5for?5?$CF?4?$CKs?5complete@ 000000014007f510     pjlib-util-x86_64-x64-vc14-release:srv_resolver.obj
 0002:00013558       ??_C@_0BM@MJBLDIAG@?5?$CFd?3?5SRV?5?$CFd?5?$CFd?5?$CFd?5?$CF?4?$CKs?5?$CI?$CFs?$CJ@ 000000014007f558     pjlib-util-x86_64-x64-vc14-release:srv_resolver.obj
 0002:00013578       ??_C@_0CI@IBPJGCBL@Starting?5async?5DNS?5A?5query_job?5@ 000000014007f578     pjlib-util-x86_64-x64-vc14-release:srv_resolver.obj
 0002:000135a0       ??_C@_0CM@EKCLKLC@Discard?5truncated?5DNS?5SRV?5respo@ 000000014007f5a0     pjlib-util-x86_64-x64-vc14-release:srv_resolver.obj
 0002:000135d0       ??_C@_0CH@COCLGFLO@DNS?5SRV?5resolution?5failed?5for?5?$CF@ 000000014007f5d0     pjlib-util-x86_64-x64-vc14-release:srv_resolver.obj
 0002:00013600       ??_C@_0EM@PBBBMOKP@DNS?5SRV?5resolution?5failed?5for?5?$CF@ 000000014007f600     pjlib-util-x86_64-x64-vc14-release:srv_resolver.obj
 0002:00013650       ??_C@_0CG@JECPCAPF@DNS?5?$CFs?5record?5parse?5error?5for?5?8@ 000000014007f650     pjlib-util-x86_64-x64-vc14-release:srv_resolver.obj
 0002:00013678       ??_C@_0CM@GNPJLEOH@Bad?5address?5family?5in?5DNS?5?$CFs?5qu@ 000000014007f678     pjlib-util-x86_64-x64-vc14-release:srv_resolver.obj
 0002:000136a8       ??_C@_0BE@BLHHGJAP@DNS?5?$CFs?5for?5?$CF?4?$CKs?3?5?$CFs@ 000000014007f6a8     pjlib-util-x86_64-x64-vc14-release:srv_resolver.obj
 0002:000136c0       ??_C@_0CA@PGHOBDIK@DNS?5?$CFs?5record?5resolution?5failed@ 000000014007f6c0     pjlib-util-x86_64-x64-vc14-release:srv_resolver.obj
 0002:000136e0       ??_C@_0DF@NMOAKAGH@Server?5resolution?5complete?0?5?$CFd?5@ 000000014007f6e0     pjlib-util-x86_64-x64-vc14-release:srv_resolver.obj
 0002:00013718       ??_C@_0CL@MGFFFLJG@DNS?5?$CFs?5record?5resolution?5error?5@ 000000014007f718     pjlib-util-x86_64-x64-vc14-release:srv_resolver.obj
 0002:00013790       ??_C@_04IFCNACLH@pj?$CFp@  000000014007f790     pjlib-x86_64-x64-vc14-release:os_core_win32.obj
 0002:00013798       ??_C@_0BA@NGJFHJA@PJLIB?1No?5memory@ 000000014007f798     pjlib-x86_64-x64-vc14-release:os_core_win32.obj
 0002:000137a8       ??_C@_0BP@NGEKBPIB@pjlib?5?$CFs?5for?5win32?5initialized@ 000000014007f7a8     pjlib-x86_64-x64-vc14-release:os_core_win32.obj
 0002:000137c8       ??_C@_0BA@FNCACAIG@os_core_win32?4c@ 000000014007f7c8     pjlib-x86_64-x64-vc14-release:os_core_win32.obj
 0002:000137e0       ??_C@_0HO@NIBMBENE@C?3?2Users?2WerBinIch?2Documents?2gi@ 000000014007f7e0     pjlib-x86_64-x64-vc14-release:os_core_win32.obj
 0002:00013860       ??_C@_05KHEDLION@thr?$CFp@ 000000014007f860     pjlib-x86_64-x64-vc14-release:os_core_win32.obj
 0002:00013868       ??_C@_0CD@GPHECFNA@Thread?5stack?5max?5usage?$DN?$CFu?5by?5?$CFs@ 000000014007f868     pjlib-x86_64-x64-vc14-release:os_core_win32.obj
 0002:0001388c       ??_C@_05EJDHHBFJ@mtx?$CFp@ 000000014007f88c     pjlib-x86_64-x64-vc14-release:os_core_win32.obj
 0002:00013894       ??_C@_05EKKMALCN@sem?$CFp@ 000000014007f894     pjlib-x86_64-x64-vc14-release:os_core_win32.obj
 0002:00013a20       ??_C@_0BM@FLPPOGAG@Unknown?5Error?5?$CIPJ_EUNKNOWN?$CJ@ 000000014007fa20     pjlib-x86_64-x64-vc14-release:errno.obj
 0002:00013a40       ??_C@_0CA@DCLOOJGD@Pending?5operation?5?$CIPJ_EPENDING?$CJ@ 000000014007fa40     pjlib-x86_64-x64-vc14-release:errno.obj
 0002:00013a60       ??_C@_0CO@GABEOAFF@Too?5many?5connecting?5sockets?5?$CIPJ@ 000000014007fa60     pjlib-x86_64-x64-vc14-release:errno.obj
 0002:00013a90       ??_C@_0CG@CBCJBJGD@Invalid?5value?5or?5argument?5?$CIPJ_E@ 000000014007fa90     pjlib-x86_64-x64-vc14-release:errno.obj
 0002:00013ab8       ??_C@_0CA@GJABNEKD@Name?5too?5long?5?$CIPJ_ENAMETOOLONG?$CJ@ 000000014007fab8     pjlib-x86_64-x64-vc14-release:errno.obj
 0002:00013ad8       ??_C@_0BJ@JNKLPII@Not?5found?5?$CIPJ_ENOTFOUND?$CJ@ 000000014007fad8     pjlib-x86_64-x64-vc14-release:errno.obj
 0002:00013af8       ??_C@_0BO@GOLCMJKK@Not?5enough?5memory?5?$CIPJ_ENOMEM?$CJ@ 000000014007faf8     pjlib-x86_64-x64-vc14-release:errno.obj
 0002:00013b18       ??_C@_0BI@HHGDCAID@BUG?5DETECTED?$CB?5?$CIPJ_EBUG?$CJ@ 000000014007fb18     pjlib-x86_64-x64-vc14-release:errno.obj
 0002:00013b30       ??_C@_0CD@JOGIDHPJ@Operation?5timed?5out?5?$CIPJ_ETIMEDO@ 000000014007fb30     pjlib-x86_64-x64-vc14-release:errno.obj
 0002:00013b58       ??_C@_0DF@MIFNAIHL@Too?5many?5objects?5of?5the?5specifi@ 000000014007fb58     pjlib-x86_64-x64-vc14-release:errno.obj
 0002:00013b90       ??_C@_0BK@OMPILOH@Object?5is?5busy?5?$CIPJ_EBUSY?$CJ@ 000000014007fb90     pjlib-x86_64-x64-vc14-release:errno.obj
 0002:00013bb0       ??_C@_0CP@BAIBJOJE@Option?1operation?5is?5not?5support@ 000000014007fbb0     pjlib-x86_64-x64-vc14-release:errno.obj
 0002:00013be0       ??_C@_0CC@OEEEEEML@Invalid?5operation?5?$CIPJ_EINVALIDO@ 000000014007fbe0     pjlib-x86_64-x64-vc14-release:errno.obj
 0002:00013c08       ??_C@_0CE@KDDMJLGF@Operation?5cancelled?5?$CIPJ_ECANCEL@ 000000014007fc08     pjlib-x86_64-x64-vc14-release:errno.obj
 0002:00013c30       ??_C@_0CD@LODOFNLC@Object?5already?5exists?5?$CIPJ_EEXIS@ 000000014007fc30     pjlib-x86_64-x64-vc14-release:errno.obj
 0002:00013c58       ??_C@_0BG@GMBDFNLN@End?5of?5file?5?$CIPJ_EEOF?$CJ@ 000000014007fc58     pjlib-x86_64-x64-vc14-release:errno.obj
 0002:00013c70       ??_C@_0BN@PCCNBFLN@Size?5is?5too?5big?5?$CIPJ_ETOOBIG?$CJ@ 000000014007fc70     pjlib-x86_64-x64-vc14-release:errno.obj
 0002:00013c90       ??_C@_0DB@FDCHLEID@gethostbyname?$CI?$CJ?5has?5returned?5er@ 000000014007fc90     pjlib-x86_64-x64-vc14-release:errno.obj
 0002:00013cc8       ??_C@_0CB@MGGLJMNO@Size?5is?5too?5short?5?$CIPJ_ETOOSMALL@ 000000014007fcc8     pjlib-x86_64-x64-vc14-release:errno.obj
 0002:00013cf0       ??_C@_0BG@NBDJGAFI@Ignored?5?$CIPJ_EIGNORED?$CJ@ 000000014007fcf0     pjlib-x86_64-x64-vc14-release:errno.obj
 0002:00013d08       ??_C@_0CH@OGOOBJBE@IPv6?5is?5not?5supported?5?$CIPJ_EIPV6@ 000000014007fd08     pjlib-x86_64-x64-vc14-release:errno.obj
 0002:00013d30       ??_C@_0CK@DJAHHNOI@Unsupported?5address?5family?5?$CIPJ_@ 000000014007fd30     pjlib-x86_64-x64-vc14-release:errno.obj
 0002:00013d60       ??_C@_0CD@PDGCJOJH@Object?5no?5longer?5exists?5?$CIPJ_EGO@ 000000014007fd60     pjlib-x86_64-x64-vc14-release:errno.obj
 0002:00013d88       ??_C@_0CI@LBHALONI@Socket?5is?5in?5bad?5state?5?$CIPJ_ESOC@ 000000014007fd88     pjlib-x86_64-x64-vc14-release:errno.obj
 0002:00013db0       ??_C@_0BH@ONDLFCEA@Unknown?5pjlib?5error?5?$CFd@ 000000014007fdb0     pjlib-x86_64-x64-vc14-release:errno.obj
 0002:00013dc8       ??_C@_07PBILKAFL@Success@  000000014007fdc8     pjlib-x86_64-x64-vc14-release:errno.obj
 0002:00013dd0       ??_C@_0BB@BIKLJNJD@Unknown?5error?5?$CFd@ 000000014007fdd0     pjlib-x86_64-x64-vc14-release:errno.obj
 0002:00013de4       ??_C@_05NAOIJFC@Error@     000000014007fde4     pjlib-x86_64-x64-vc14-release:errno.obj
 0002:00013dec       ??_C@_06DJHOIPC@?$CFs?3?5?$CFs@ 000000014007fdec     pjlib-x86_64-x64-vc14-release:errno.obj
 0002:00013df4       ??_C@_03HODKBCIO@?3?$CFd@  000000014007fdf4     pjlib-x86_64-x64-vc14-release:sock_common.obj
 0002:00013df8       ??_C@_08KJEDNCKC@?$CFs?$CFs?$CFs?$CFs@ 000000014007fdf8     pjlib-x86_64-x64-vc14-release:sock_common.obj
 0002:00013e10       ??_C@_0HM@MMOOCFAF@C?3?2Users?2WerBinIch?2Documents?2gi@ 000000014007fe10     pjlib-x86_64-x64-vc14-release:sock_common.obj
 0002:00013e90       ??_C@_07EBPGIHEF@1?41?41?41@ 000000014007fe90     pjlib-x86_64-x64-vc14-release:sock_common.obj
 0002:00013e98       ??_C@_04NFKLOGOF@1?3?31@   000000014007fe98     pjlib-x86_64-x64-vc14-release:sock_common.obj
 0002:00013ea0       ??_C@_0M@HMJLLIPA@?$CFs?$CF?4?$CKs?$CFs?3?$CFd@ 000000014007fea0     pjlib-x86_64-x64-vc14-release:sock_common.obj
 0002:00013eb0       ??_C@_08JLADFOFK@?$CFs?$CF?4?$CKs?$CFs@ 000000014007feb0     pjlib-x86_64-x64-vc14-release:sock_common.obj
 0002:00013ebc       PJ_AF_UNSPEC               000000014007febc     pjlib-x86_64-x64-vc14-release:sock_bsd.obj
 0002:00013ec0       PJ_AF_UNIX                 000000014007fec0     pjlib-x86_64-x64-vc14-release:sock_bsd.obj
 0002:00013ec4       PJ_AF_INET                 000000014007fec4     pjlib-x86_64-x64-vc14-release:sock_bsd.obj
 0002:00013ec8       PJ_AF_INET6                000000014007fec8     pjlib-x86_64-x64-vc14-release:sock_bsd.obj
 0002:00013ecc       PJ_AF_PACKET               000000014007fecc     pjlib-x86_64-x64-vc14-release:sock_bsd.obj
 0002:00013ed0       PJ_AF_IRDA                 000000014007fed0     pjlib-x86_64-x64-vc14-release:sock_bsd.obj
 0002:00013ed4       PJ_SOCK_STREAM             000000014007fed4     pjlib-x86_64-x64-vc14-release:sock_bsd.obj
 0002:00013ed8       PJ_SOCK_DGRAM              000000014007fed8     pjlib-x86_64-x64-vc14-release:sock_bsd.obj
 0002:00013edc       PJ_SOCK_RAW                000000014007fedc     pjlib-x86_64-x64-vc14-release:sock_bsd.obj
 0002:00013ee0       PJ_SOCK_RDM                000000014007fee0     pjlib-x86_64-x64-vc14-release:sock_bsd.obj
 0002:00013ee4       PJ_SOL_SOCKET              000000014007fee4     pjlib-x86_64-x64-vc14-release:sock_bsd.obj
 0002:00013ee8       PJ_SOL_IP                  000000014007fee8     pjlib-x86_64-x64-vc14-release:sock_bsd.obj
 0002:00013eec       PJ_SOL_TCP                 000000014007feec     pjlib-x86_64-x64-vc14-release:sock_bsd.obj
 0002:00013ef0       PJ_SOL_UDP                 000000014007fef0     pjlib-x86_64-x64-vc14-release:sock_bsd.obj
 0002:00013ef4       PJ_SOL_IPV6                000000014007fef4     pjlib-x86_64-x64-vc14-release:sock_bsd.obj
 0002:00013ef8       PJ_IP_TOS                  000000014007fef8     pjlib-x86_64-x64-vc14-release:sock_bsd.obj
 0002:00013efc       PJ_IPTOS_LOWDELAY          000000014007fefc     pjlib-x86_64-x64-vc14-release:sock_bsd.obj
 0002:00013f00       PJ_IPTOS_THROUGHPUT        000000014007ff00     pjlib-x86_64-x64-vc14-release:sock_bsd.obj
 0002:00013f04       PJ_IPTOS_RELIABILITY       000000014007ff04     pjlib-x86_64-x64-vc14-release:sock_bsd.obj
 0002:00013f08       PJ_IPTOS_MINCOST           000000014007ff08     pjlib-x86_64-x64-vc14-release:sock_bsd.obj
 0002:00013f0c       PJ_IPV6_TCLASS             000000014007ff0c     pjlib-x86_64-x64-vc14-release:sock_bsd.obj
 0002:00013f10       PJ_SO_TYPE                 000000014007ff10     pjlib-x86_64-x64-vc14-release:sock_bsd.obj
 0002:00013f14       PJ_SO_RCVBUF               000000014007ff14     pjlib-x86_64-x64-vc14-release:sock_bsd.obj
 0002:00013f18       PJ_SO_SNDBUF               000000014007ff18     pjlib-x86_64-x64-vc14-release:sock_bsd.obj
 0002:00013f1c       PJ_TCP_NODELAY             000000014007ff1c     pjlib-x86_64-x64-vc14-release:sock_bsd.obj
 0002:00013f20       PJ_SO_REUSEADDR            000000014007ff20     pjlib-x86_64-x64-vc14-release:sock_bsd.obj
 0002:00013f24       PJ_SO_NOSIGPIPE            000000014007ff24     pjlib-x86_64-x64-vc14-release:sock_bsd.obj
 0002:00013f28       PJ_SO_PRIORITY             000000014007ff28     pjlib-x86_64-x64-vc14-release:sock_bsd.obj
 0002:00013f2c       PJ_IP_MULTICAST_IF         000000014007ff2c     pjlib-x86_64-x64-vc14-release:sock_bsd.obj
 0002:00013f30       PJ_IP_MULTICAST_TTL        000000014007ff30     pjlib-x86_64-x64-vc14-release:sock_bsd.obj
 0002:00013f34       PJ_IP_MULTICAST_LOOP       000000014007ff34     pjlib-x86_64-x64-vc14-release:sock_bsd.obj
 0002:00013f38       PJ_IP_ADD_MEMBERSHIP       000000014007ff38     pjlib-x86_64-x64-vc14-release:sock_bsd.obj
 0002:00013f3c       PJ_IP_DROP_MEMBERSHIP      000000014007ff3c     pjlib-x86_64-x64-vc14-release:sock_bsd.obj
 0002:00013f40       PJ_MSG_OOB                 000000014007ff40     pjlib-x86_64-x64-vc14-release:sock_bsd.obj
 0002:00013f44       PJ_MSG_PEEK                000000014007ff44     pjlib-x86_64-x64-vc14-release:sock_bsd.obj
 0002:00013f48       PJ_MSG_DONTROUTE           000000014007ff48     pjlib-x86_64-x64-vc14-release:sock_bsd.obj
 0002:00013f50       ??_C@_0HJ@FIMAEFMM@C?3?2Users?2WerBinIch?2Documents?2gi@ 000000014007ff50     pjlib-x86_64-x64-vc14-release:sock_bsd.obj
 0002:00013fd0       ??_C@_0CE@IJGJDCPP@Warning?3?5error?5applying?5sock?5op@ 000000014007ffd0     pjlib-x86_64-x64-vc14-release:sock_bsd.obj
 0002:00013ff8       ??_C@_0L@NNKPLKFK@sock_bsd?4c@ 000000014007fff8     pjlib-x86_64-x64-vc14-release:sock_bsd.obj
 0002:00014010       ??_C@_0HF@IEAAJLHC@C?3?2Users?2WerBinIch?2Documents?2gi@ 0000000140080010     pjlib-x86_64-x64-vc14-release:pool.obj
 0002:00014090       ??_C@_0HN@GFOBEPN@C?3?2Users?2WerBinIch?2Documents?2gi@ 0000000140080090     pjlib-x86_64-x64-vc14-release:pool_caching.obj
 0002:00014110       ??_C@_0M@IGFPEOLJ@cachingpool@ 0000000140080110     pjlib-x86_64-x64-vc14-release:pool_caching.obj
 0002:00014120       ??_C@_0BH@BBPHJKOA@?5Dumping?5caching?5pool?3@ 0000000140080120     pjlib-x86_64-x64-vc14-release:pool_caching.obj
 0002:00014138       ??_C@_08COPEICHG@cachpool@ 0000000140080138     pjlib-x86_64-x64-vc14-release:pool_caching.obj
 0002:00014148       ??_C@_0CN@DOKPIIOH@?5?5?5Capacity?$DN?$CFu?0?5max_capacity?$DN?$CFu@ 0000000140080148     pjlib-x86_64-x64-vc14-release:pool_caching.obj
 0002:00014178       ??_C@_0BM@IDLDGCC@?5?5Dumping?5all?5active?5pools?3@ 0000000140080178     pjlib-x86_64-x64-vc14-release:pool_caching.obj
 0002:00014198       ??_C@_0CA@MMLIKIEG@?5?5?5?$CF16s?3?5?$CF8d?5of?5?$CF8d?5?$CI?$CFd?$CF?$CF?$CJ?5used@ 0000000140080198     pjlib-x86_64-x64-vc14-release:pool_caching.obj
 0002:000141b8       ??_C@_0CB@GKBJPDKG@?5?5Total?5?$CF9d?5of?5?$CF9d?5?$CI?$CFd?5?$CF?$CF?$CJ?5used@ 00000001400801b8     pjlib-x86_64-x64-vc14-release:pool_caching.obj
 0002:000141e0       ??_C@_0HH@JPNODECN@C?3?2Users?2WerBinIch?2Documents?2gi@ 00000001400801e0     pjlib-x86_64-x64-vc14-release:string.obj
 0002:00014258       __real@41200000            0000000140080258     pjlib-x86_64-x64-vc14-release:string.obj
 0002:0001425c       ??_C@_06DDFOEFIF@FATAL?3@  000000014008025c     pjlib-x86_64-x64-vc14-release:log.obj
 0002:00014264       ??_C@_06PONDCDME@ERROR?3@  0000000140080264     pjlib-x86_64-x64-vc14-release:log.obj
 0002:0001426c       ??_C@_06OHJPOJDB@?5WARN?3@ 000000014008026c     pjlib-x86_64-x64-vc14-release:log.obj
 0002:00014274       ??_C@_06ICKKLHPE@?5INFO?3@ 0000000140080274     pjlib-x86_64-x64-vc14-release:log.obj
 0002:0001427c       ??_C@_06DNOFLLB@DEBUG?3@   000000014008027c     pjlib-x86_64-x64-vc14-release:log.obj
 0002:00014284       ??_C@_06ELIFFDKB@TRACE?3@  0000000140080284     pjlib-x86_64-x64-vc14-release:log.obj
 0002:0001428c       ??_C@_06HGKAKJPG@DETRC?3@  000000014008028c     pjlib-x86_64-x64-vc14-release:log.obj
 0002:00014294       ??_C@_03KOEHGMDN@Sun@      0000000140080294     pjlib-x86_64-x64-vc14-release:log.obj
 0002:00014298       ??_C@_03PDAGKDH@Mon@       0000000140080298     pjlib-x86_64-x64-vc14-release:log.obj
 0002:0001429c       ??_C@_03NAGEINEP@Tue@      000000014008029c     pjlib-x86_64-x64-vc14-release:log.obj
 0002:000142a0       ??_C@_03MHOMLAJA@Wed@      00000001400802a0     pjlib-x86_64-x64-vc14-release:log.obj
 0002:000142a4       ??_C@_03IOFIKPDN@Thu@      00000001400802a4     pjlib-x86_64-x64-vc14-release:log.obj
 0002:000142a8       ??_C@_03IDIOELNC@Fri@      00000001400802a8     pjlib-x86_64-x64-vc14-release:log.obj
 0002:000142ac       ??_C@_03FEFJNEK@Sat@       00000001400802ac     pjlib-x86_64-x64-vc14-release:log.obj
 0002:000142b0       ??_C@_0HE@ONAIBOBI@C?3?2Users?2WerBinIch?2Documents?2gi@ 00000001400802b0     pjlib-x86_64-x64-vc14-release:log.obj
 0002:00014328       ??_C@_0BO@BGMDCDKP@?$DMlogging?5error?3?5msg?5too?5long?$DO@ 0000000140080328     pjlib-x86_64-x64-vc14-release:log.obj
 0002:00014350       ??_C@_0ID@HEJLABNJ@C?3?2Users?2WerBinIch?2Documents?2gi@ 0000000140080350     pjlib-x86_64-x64-vc14-release:pool_policy_malloc.obj
 0002:000143d4       ??_C@_06HALIBNKJ@glck?$CFp@ 00000001400803d4     pjlib-x86_64-x64-vc14-release:lock.obj
 0002:000143e0       ??_C@_0HF@NBEBOKHE@C?3?2Users?2WerBinIch?2Documents?2gi@ 00000001400803e0     pjlib-x86_64-x64-vc14-release:rand.obj
 0002:00014460       ??_C@_0HG@MOKOJEDC@C?3?2Users?2WerBinIch?2Documents?2gi@ 0000000140080460     pjlib-x86_64-x64-vc14-release:types.obj
 0002:000144e0       ??_C@_0HG@KOIEHONM@C?3?2Users?2WerBinIch?2Documents?2gi@ 00000001400804e0     pjlib-x86_64-x64-vc14-release:timer.obj
 0002:00014560       ??_C@_0GD@IKDOJBHK@Bug?$CB?5Trying?5to?5remove?5entry?5?$CFp?5@ 0000000140080560     pjlib-x86_64-x64-vc14-release:timer.obj
 0002:000145c8       ??_C@_07PEGEGJOK@timer?4c@ 00000001400805c8     pjlib-x86_64-x64-vc14-release:timer.obj
 0002:000145d0       ??_C@_0CN@BCAOBBMI@Warning?$CB?5Rescheduling?5outstandi@ 00000001400805d0     pjlib-x86_64-x64-vc14-release:timer.obj
 0002:00014600       ??_C@_0FD@OKAOJAGN@Bug?$CB?5Polling?5entry?5?$CFp?5from?5?$CFs?5l@ 0000000140080600     pjlib-x86_64-x64-vc14-release:timer.obj
 0002:00014658       ??_C@_0BE@PEPBNPID@Dumping?5timer?5heap?3@ 0000000140080658     pjlib-x86_64-x64-vc14-release:timer.obj
 0002:00014670       ??_C@_0CA@GBHLCEHA@?5?5Cur?5size?3?5?$CFd?5entries?0?5max?3?5?$CFd@ 0000000140080670     pjlib-x86_64-x64-vc14-release:timer.obj
 0002:00014690       ??_C@_0M@BOIDEIDM@?5?5Entries?3?5@ 0000000140080690     pjlib-x86_64-x64-vc14-release:timer.obj
 0002:000146a0       ??_C@_0BK@HKHOIEEA@?5?5?5?5_id?7Id?7Elapsed?7Source@ 00000001400806a0     pjlib-x86_64-x64-vc14-release:timer.obj
 0002:000146c0       ??_C@_0CH@INDCMHLK@?5?5?5?5?9?9?9?9?9?9?9?9?9?9?9?9?9?9?9?9?9?9?9?9?9?9?9?9?9?9?9@ 00000001400806c0     pjlib-x86_64-x64-vc14-release:timer.obj
 0002:000146e8       ??_C@_0BI@MDGGFDFM@?5?5?5?5?$CFd?7?$CFd?7?$CFd?4?$CF03d?7?$CFs?3?$CFd@ 00000001400806e8     pjlib-x86_64-x64-vc14-release:timer.obj
 0002:00014700       ??_C@_0ID@CCMBIOPL@C?3?2Users?2WerBinIch?2Documents?2gi@ 0000000140080700     pjlib-x86_64-x64-vc14-release:ioqueue_select.obj
 0002:00014784       ??_C@_05LIJONKFG@ioq?$CFp@ 0000000140080784     pjlib-x86_64-x64-vc14-release:ioqueue_select.obj
 0002:00014790       ??_C@_0CA@IMDCINDN@select?$CI?$CJ?5I?1O?5Queue?5created?5?$CI?$CFp?$CJ@ 0000000140080790     pjlib-x86_64-x64-vc14-release:ioqueue_select.obj
 0002:000147b0       ??_C@_05PHKAINEA@pjlib@    00000001400807b0     pjlib-x86_64-x64-vc14-release:ioqueue_select.obj
 0002:000147b8       ??_C@_0CJ@NPMLHLI@Bad?5ioqueue?5count?5in?5key?5unregi@ 00000001400807b8     pjlib-x86_64-x64-vc14-release:ioqueue_select.obj
 0002:000147e8       ??_C@_0L@CAJCIPAG@ioq_select@ 00000001400807e8     pjlib-x86_64-x64-vc14-release:ioqueue_select.obj
 0002:000147f8       ??_C@_0CD@KFHCCJFN@?$CB?$CB?$CBFATAL?3?5unhandled?5exception?5?$CF@ 00000001400807f8     pjlib-x86_64-x64-vc14-release:except.obj
 0002:00014820       ??_C@_08PDFMOJIE@except?4c@ 0000000140080820     pjlib-x86_64-x64-vc14-release:except.obj
 0002:00014830       ??_C@_0N@GJOLEKJC@?$DMInvalid?5ID?$DO@ 0000000140080830     pjlib-x86_64-x64-vc14-release:except.obj
 0002:00014840       ??_C@_0N@LJPLLMIL@exception?5?$CFd@ 0000000140080840     pjlib-x86_64-x64-vc14-release:except.obj
 0002:00014850       ??_C@_0HF@MAEJMFHP@C?3?2Users?2WerBinIch?2Documents?2gi@ 0000000140080850     pjlib-x86_64-x64-vc14-release:hash.obj
 0002:00014bf0       ??_C@_0CD@FNMHLHMI@Interrupted?5system?5call?5?$CIWSAEIN@ 0000000140080bf0     pjlib-x86_64-x64-vc14-release:os_error_win32.obj
 0002:00014c18       ??_C@_0BL@OKPDNKLH@Bad?5file?5number?5?$CIWSAEBADF?$CJ@ 0000000140080c18     pjlib-x86_64-x64-vc14-release:os_error_win32.obj
 0002:00014c38       ??_C@_0BO@BMBEEPBP@Permission?5denied?5?$CIWSAEACCES?$CJ@ 0000000140080c38     pjlib-x86_64-x64-vc14-release:os_error_win32.obj
 0002:00014c58       ??_C@_0BI@LAKHPJJ@Bad?5address?5?$CIWSAEFAULT?$CJ@ 0000000140080c58     pjlib-x86_64-x64-vc14-release:os_error_win32.obj
 0002:00014c70       ??_C@_0BN@FEIDINKH@Invalid?5argument?5?$CIWSAEINVAL?$CJ@ 0000000140080c70     pjlib-x86_64-x64-vc14-release:os_error_win32.obj
 0002:00014c90       ??_C@_0CC@HMKKNDGL@Too?5many?5open?5sockets?5?$CIWSAEMFIL@ 0000000140080c90     pjlib-x86_64-x64-vc14-release:os_error_win32.obj
 0002:00014cb8       ??_C@_0CH@GCPPFMGM@Operation?5would?5block?5?$CIWSAEWOUL@ 0000000140080cb8     pjlib-x86_64-x64-vc14-release:os_error_win32.obj
 0002:00014ce0       ??_C@_0CL@DKGHEPCD@Operation?5now?5in?5progress?5?$CIWSAE@ 0000000140080ce0     pjlib-x86_64-x64-vc14-release:os_error_win32.obj
 0002:00014d10       ??_C@_0CM@BEMCBKDH@Operation?5already?5in?5progress?5?$CI@ 0000000140080d10     pjlib-x86_64-x64-vc14-release:os_error_win32.obj
 0002:00014d40       ??_C@_0CN@PAFKDEBN@Socket?5operation?5on?5non?9socket?5@ 0000000140080d40     pjlib-x86_64-x64-vc14-release:os_error_win32.obj
 0002:00014d70       ??_C@_0CP@HCDICECK@Destination?5address?5required?5?$CIW@ 0000000140080d70     pjlib-x86_64-x64-vc14-release:os_error_win32.obj
 0002:00014da0       ??_C@_0BP@LNFPBFEK@Message?5too?5long?5?$CIWSAEMSGSIZE?$CJ@ 0000000140080da0     pjlib-x86_64-x64-vc14-release:os_error_win32.obj
 0002:00014dc0       ??_C@_0CP@MMIMIEMF@Protocol?5wrong?5type?5for?5socket?5@ 0000000140080dc0     pjlib-x86_64-x64-vc14-release:os_error_win32.obj
 0002:00014df0       ??_C@_0CF@HNFLHOHA@Bad?5protocol?5option?5?$CIWSAENOPROT@ 0000000140080df0     pjlib-x86_64-x64-vc14-release:os_error_win32.obj
 0002:00014e18       ??_C@_0CM@HPGHEHCE@Protocol?5not?5supported?5?$CIWSAEPRO@ 0000000140080e18     pjlib-x86_64-x64-vc14-release:os_error_win32.obj
 0002:00014e48       ??_C@_0CP@JLBNHCOL@Socket?5type?5not?5supported?5?$CIWSAE@ 0000000140080e48     pjlib-x86_64-x64-vc14-release:os_error_win32.obj
 0002:00014e78       ??_C@_0DC@GJMFANID@Operation?5not?5supported?5on?5sock@ 0000000140080e78     pjlib-x86_64-x64-vc14-release:os_error_win32.obj
 0002:00014eb0       ??_C@_0DA@GFNBENIG@Protocol?5family?5not?5supported?5?$CI@ 0000000140080eb0     pjlib-x86_64-x64-vc14-release:os_error_win32.obj
 0002:00014ee0       ??_C@_0CP@MMKHGIFC@Address?5family?5not?5supported?5?$CIW@ 0000000140080ee0     pjlib-x86_64-x64-vc14-release:os_error_win32.obj
 0002:00014f10       ??_C@_0CH@OCKNFBKE@Address?5already?5in?5use?5?$CIWSAEADD@ 0000000140080f10     pjlib-x86_64-x64-vc14-release:os_error_win32.obj
 0002:00014f38       ??_C@_0DC@FJJPJPOD@Can?8t?5assign?5requested?5address?5@ 0000000140080f38     pjlib-x86_64-x64-vc14-release:os_error_win32.obj
 0002:00014f70       ??_C@_0BO@IICKDHLJ@Network?5is?5down?5?$CIWSAENETDOWN?$CJ@ 0000000140080f70     pjlib-x86_64-x64-vc14-release:os_error_win32.obj
 0002:00014f90       ??_C@_0CI@NKJAACME@Network?5is?5unreachable?5?$CIWSAENET@ 0000000140080f90     pjlib-x86_64-x64-vc14-release:os_error_win32.obj
 0002:00014fb8       ??_C@_0CE@LJEEEFEC@Net?5connection?5reset?5?$CIWSAENETRE@ 0000000140080fb8     pjlib-x86_64-x64-vc14-release:os_error_win32.obj
 0002:00014fe0       ??_C@_0DD@PGDIHOBG@Software?5caused?5connection?5abor@ 0000000140080fe0     pjlib-x86_64-x64-vc14-release:os_error_win32.obj
 0002:00015018       ??_C@_0CJ@PJHCFAAN@Connection?5reset?5by?5peer?5?$CIWSAEC@ 0000000140081018     pjlib-x86_64-x64-vc14-release:os_error_win32.obj
 0002:00015048       ??_C@_0CH@EKNGIMKN@No?5buffer?5space?5available?5?$CIWSAE@ 0000000140081048     pjlib-x86_64-x64-vc14-release:os_error_win32.obj
 0002:00015070       ??_C@_0CJ@JOPBNNOD@Socket?5is?5already?5connected?5?$CIWS@ 0000000140081070     pjlib-x86_64-x64-vc14-release:os_error_win32.obj
 0002:000150a0       ??_C@_0CG@CECDMHLL@Socket?5is?5not?5connected?5?$CIWSAENO@ 00000001400810a0     pjlib-x86_64-x64-vc14-release:os_error_win32.obj
 0002:000150c8       ??_C@_0DA@JGJMJPNM@Can?8t?5send?5after?5socket?5shutdow@ 00000001400810c8     pjlib-x86_64-x64-vc14-release:os_error_win32.obj
 0002:000150f8       ??_C@_0DE@CAILNFFE@Too?5many?5references?0?5can?8t?5spli@ 00000001400810f8     pjlib-x86_64-x64-vc14-release:os_error_win32.obj
 0002:00015130       ??_C@_0CE@IIKHBGF@Connection?5timed?5out?5?$CIWSAETIMED@ 0000000140081130     pjlib-x86_64-x64-vc14-release:os_error_win32.obj
 0002:00015158       ??_C@_0CF@JMKFBJH@Connection?5refused?5?$CIWSAECONNREF@ 0000000140081158     pjlib-x86_64-x64-vc14-release:os_error_win32.obj
 0002:00015180       ??_C@_0CN@FCKBNFMB@Too?5many?5levels?5of?5symbolic?5lin@ 0000000140081180     pjlib-x86_64-x64-vc14-release:os_error_win32.obj
 0002:000151b0       ??_C@_0CF@MOFKOMBB@File?5name?5too?5long?5?$CIWSAENAMETOO@ 00000001400811b0     pjlib-x86_64-x64-vc14-release:os_error_win32.obj
 0002:000151d8       ??_C@_0BM@NCJCEEDP@Host?5is?5down?5?$CIWSAEHOSTDOWN?$CJ@ 00000001400811d8     pjlib-x86_64-x64-vc14-release:os_error_win32.obj
 0002:000151f8       ??_C@_0CD@ECJOJHBH@No?5route?5to?5host?5?$CIWSAEHOSTUNREA@ 00000001400811f8     pjlib-x86_64-x64-vc14-release:os_error_win32.obj
 0002:00015220       ??_C@_0CD@NEFLEHEG@Directory?5not?5empty?5?$CIWSAENOTEMP@ 0000000140081220     pjlib-x86_64-x64-vc14-release:os_error_win32.obj
 0002:00015248       ??_C@_0CB@GPCGLHOJ@Too?5many?5processes?5?$CIWSAEPROCLIM@ 0000000140081248     pjlib-x86_64-x64-vc14-release:os_error_win32.obj
 0002:00015270       ??_C@_0BL@IGHJMJKO@Too?5many?5users?5?$CIWSAEUSERS?$CJ@ 0000000140081270     pjlib-x86_64-x64-vc14-release:os_error_win32.obj
 0002:00015290       ??_C@_0CA@MIOFDKMA@Disc?5quota?5exceeded?5?$CIWSAEDQUOT?$CJ@ 0000000140081290     pjlib-x86_64-x64-vc14-release:os_error_win32.obj
 0002:000152b0       ??_C@_0CC@IMLIDHNH@Stale?5NFS?5file?5handle?5?$CIWSAESTAL@ 00000001400812b0     pjlib-x86_64-x64-vc14-release:os_error_win32.obj
 0002:000152d8       ??_C@_0CP@MLAFGPOA@Too?5many?5levels?5of?5remote?5in?5pa@ 00000001400812d8     pjlib-x86_64-x64-vc14-release:os_error_win32.obj
 0002:00015308       ??_C@_0CP@IBAEMKGH@Network?5system?5is?5unavailable?5?$CI@ 0000000140081308     pjlib-x86_64-x64-vc14-release:os_error_win32.obj
 0002:00015338       ??_C@_0DC@BLAKHMMJ@Winsock?5version?5out?5of?5range?5?$CIW@ 0000000140081338     pjlib-x86_64-x64-vc14-release:os_error_win32.obj
 0002:00015370       ??_C@_0CO@HPDHHDHA@WSAStartup?5not?5yet?5called?5?$CIWSAN@ 0000000140081370     pjlib-x86_64-x64-vc14-release:os_error_win32.obj
 0002:000153a0       ??_C@_0CL@GFDHEKLB@Graceful?5shutdown?5in?5progress?5?$CI@ 00000001400813a0     pjlib-x86_64-x64-vc14-release:os_error_win32.obj
 0002:000153d0       ??_C@_0CD@OEALOMDH@Host?5not?5found?5?$CIWSAHOST_NOT_FOU@ 00000001400813d0     pjlib-x86_64-x64-vc14-release:os_error_win32.obj
 0002:000153f8       ??_C@_0DB@KFPHELLI@No?5host?5data?5of?5that?5type?5was?5f@ 00000001400813f8     pjlib-x86_64-x64-vc14-release:os_error_win32.obj
 0002:00015430       ??_C@_0BE@JPHLLAEM@Win32?5error?5code?5?$CFu@ 0000000140081430     pjlib-x86_64-x64-vc14-release:os_error_win32.obj
 0002:00015444       PJ_GUID_STRING_LENGTH      0000000140081444     pjlib-x86_64-x64-vc14-release:guid_win32.obj
 0002:00015450       ??_C@_0HL@CBGAAIJG@C?3?2Users?2WerBinIch?2Documents?2gi@ 0000000140081450     pjlib-x86_64-x64-vc14-release:guid_win32.obj
 0002:00015500       ??_C@_0BC@GPHMAKPK@sock_qos_common?4c@ 0000000140081500     pjlib-x86_64-x64-vc14-release:sock_qos_common.obj
 0002:00015514       ??_C@_06HBELJPBO@socket@   0000000140081514     pjlib-x86_64-x64-vc14-release:sock_qos_common.obj
 0002:00015520       ??_C@_0CA@EBJCMLJI@Error?5setting?5QoS?5type?5?$CFd?5to?5?$CFs@ 0000000140081520     pjlib-x86_64-x64-vc14-release:sock_qos_common.obj
 0002:00015540       ??_C@_0CK@CGDCCPNL@Error?5setting?5QoS?5params?5?$CIflags@ 0000000140081540     pjlib-x86_64-x64-vc14-release:sock_qos_common.obj
 0002:00015570       __real@41cdcd6500000000    0000000140081570     pjlib-x86_64-x64-vc14-release:os_timestamp_common.obj
 0002:00015578       ??_C@_08DOCHLGNA@config?4c@ 0000000140081578     pjlib-x86_64-x64-vc14-release:config.obj
 0002:00015584       ??_C@_04FIDOICFN@2?410@    0000000140081584     pjlib-x86_64-x64-vc14-release:config.obj
 0002:00015590       ??_C@_08PFPBFMIL@IpHlpApi@ 0000000140081590     pjlib-x86_64-x64-vc14-release:ip_helper_win32.obj
 0002:000155a0       ??_C@_0P@PMIJPFPM@GetIpAddrTable@ 00000001400815a0     pjlib-x86_64-x64-vc14-release:ip_helper_win32.obj
 0002:000155b0       ??_C@_0BF@LHFCIIHE@GetAdaptersAddresses@ 00000001400815b0     pjlib-x86_64-x64-vc14-release:ip_helper_win32.obj
 0002:000155c8       ??_C@_0L@BLHMKEDC@GetIfEntry@ 00000001400815c8     pjlib-x86_64-x64-vc14-release:ip_helper_win32.obj
 0002:000155e0       ??_C@_0IC@EGBMPJBH@C?3?2Users?2WerBinIch?2Documents?2gi@ 00000001400815e0     pjlib-x86_64-x64-vc14-release:log_writer_stdout.obj
 0002:00015670       ??_C@_0HM@EBJOKIJP@C?3?2Users?2WerBinIch?2Documents?2gi@ 0000000140081670     pjlib-x86_64-x64-vc14-release:sock_select.obj
 0002:000156f0       ??_C@_0EJ@GHABDNKB@No?5playback?5frame?5available?5?$CIyo@ 00000001400816f0     libspeex-x86_64-x64-vc14-release:mdf.obj
 0002:00015740       ??_C@_0M@FDFEAFGN@warning?3?5?$CFs@ 0000000140081740     libspeex-x86_64-x64-vc14-release:mdf.obj
 0002:0001574c       ??_C@_05JPFLDMPI@speex@    000000014008174c     libspeex-x86_64-x64-vc14-release:mdf.obj
 0002:00015758       ??_C@_0CF@JGKBANKE@internal?5playback?5buffer?5corrup@ 0000000140081758     libspeex-x86_64-x64-vc14-release:mdf.obj
 0002:00015780       ??_C@_0BP@HJHBOHLA@discarded?5first?5playback?5frame@ 0000000140081780     libspeex-x86_64-x64-vc14-release:mdf.obj
 0002:000157a0       ??_C@_0EF@JCPCCFEP@Auto?9filling?5the?5buffer?5?$CIyour?5a@ 00000001400817a0     libspeex-x86_64-x64-vc14-release:mdf.obj
 0002:000157f0       ??_C@_0EN@KMLFENGK@Had?5to?5discard?5a?5playback?5frame@ 00000001400817f0     libspeex-x86_64-x64-vc14-release:mdf.obj
 0002:00015840       ??_C@_0FP@LGAMLFHE@The?5echo?5canceller?5started?5acti@ 0000000140081840     libspeex-x86_64-x64-vc14-release:mdf.obj
 0002:000158a0       ??_C@_0CB@DEGFPNC@Unknown?5speex_echo_ctl?5request?3@ 00000001400818a0     libspeex-x86_64-x64-vc14-release:mdf.obj
 0002:000158c8       ??_C@_0BA@JHIGFAJK@warning?3?5?$CFs?3?5?$CFd@ 00000001400818c8     libspeex-x86_64-x64-vc14-release:mdf.obj
 0002:000158d8       __real@3ba3d70a            00000001400818d8     libspeex-x86_64-x64-vc14-release:mdf.obj
 0002:000158dc       __real@3cf5c28f            00000001400818dc     libspeex-x86_64-x64-vc14-release:mdf.obj
 0002:000158e0       __real@3dcccccd            00000001400818e0     libspeex-x86_64-x64-vc14-release:mdf.obj
 0002:000158e4       __real@3e19999a            00000001400818e4     libspeex-x86_64-x64-vc14-release:mdf.obj
 0002:000158e8       __real@3e800000            00000001400818e8     libspeex-x86_64-x64-vc14-release:mdf.obj
 0002:000158ec       __real@3eb851ec            00000001400818ec     libspeex-x86_64-x64-vc14-release:mdf.obj
 0002:000158f0       __real@3ecccccd            00000001400818f0     libspeex-x86_64-x64-vc14-release:mdf.obj
 0002:000158f4       __real@3f19999a            00000001400818f4     libspeex-x86_64-x64-vc14-release:mdf.obj
 0002:000158f8       __real@3f1a36e2eb1c432d    00000001400818f8     libspeex-x86_64-x64-vc14-release:mdf.obj
 0002:00015900       __real@3f38f5c3            0000000140081900     libspeex-x86_64-x64-vc14-release:mdf.obj
 0002:00015904       __real@3f4ccccd            0000000140081904     libspeex-x86_64-x64-vc14-release:mdf.obj
 0002:00015908       __real@3f59999a            0000000140081908     libspeex-x86_64-x64-vc14-release:mdf.obj
 0002:00015910       __real@3fd0000000000000    0000000140081910     libspeex-x86_64-x64-vc14-release:mdf.obj
 0002:00015918       __real@3fd3333333333333    0000000140081918     libspeex-x86_64-x64-vc14-release:mdf.obj
 0002:00015920       __real@3fd6666666666666    0000000140081920     libspeex-x86_64-x64-vc14-release:mdf.obj
 0002:00015928       __real@3fe6666666666666    0000000140081928     libspeex-x86_64-x64-vc14-release:mdf.obj
 0002:00015930       __real@4008000000000000    0000000140081930     libspeex-x86_64-x64-vc14-release:mdf.obj
 0002:00015938       __real@4019999a            0000000140081938     libspeex-x86_64-x64-vc14-release:mdf.obj
 0002:0001593c       __real@40800000            000000014008193c     libspeex-x86_64-x64-vc14-release:mdf.obj
 0002:00015940       __real@42c80000            0000000140081940     libspeex-x86_64-x64-vc14-release:mdf.obj
 0002:00015944       __real@45fa0000            0000000140081944     libspeex-x86_64-x64-vc14-release:mdf.obj
 0002:00015948       __real@461c4000            0000000140081948     libspeex-x86_64-x64-vc14-release:mdf.obj
 0002:0001594c       __real@467ffc00            000000014008194c     libspeex-x86_64-x64-vc14-release:mdf.obj
 0002:00015950       __real@46fffd00            0000000140081950     libspeex-x86_64-x64-vc14-release:mdf.obj
 0002:00015954       __real@46fffe00            0000000140081954     libspeex-x86_64-x64-vc14-release:mdf.obj
 0002:00015958       __real@c6ffff00            0000000140081958     libspeex-x86_64-x64-vc14-release:mdf.obj
 0002:00015960       __xmm@3f7d70a43f7d70a43f7d70a43f7d70a4 0000000140081960     libspeex-x86_64-x64-vc14-release:mdf.obj
 0002:00015970       __real@3f847ae147ae147b    0000000140081970     libspeex-x86_64-x64-vc14-release:scal.obj
 0002:00015978       __real@3fa47ae147ae147b    0000000140081978     libspeex-x86_64-x64-vc14-release:scal.obj
 0002:00015980       __real@3fd999999999999a    0000000140081980     libspeex-x86_64-x64-vc14-release:scal.obj
 0002:00015988       __real@3fe43d1cc100e6b0    0000000140081988     libspeex-x86_64-x64-vc14-release:scal.obj
 0002:00015990       __real@3feeb851eb851eb8    0000000140081990     libspeex-x86_64-x64-vc14-release:scal.obj
 0002:00015998       __real@3fef5c28f5c28f5c    0000000140081998     libspeex-x86_64-x64-vc14-release:scal.obj
 0002:000159a0       __real@3ff921fb54442d18    00000001400819a0     libspeex-x86_64-x64-vc14-release:scal.obj
 0002:000159a8       __real@400921fb54442d18    00000001400819a8     libspeex-x86_64-x64-vc14-release:scal.obj
 0002:000159b0       __real@c6fffe00            00000001400819b0     libspeex-x86_64-x64-vc14-release:scal.obj
 0002:00015a18       ??_C@_0DP@GLHJBLIP@The?5VAD?5has?5been?5replaced?5by?5a?5@ 0000000140081a18     libspeex-x86_64-x64-vc14-release:preprocess.obj
 0002:00015a58       ??_C@_0CH@BPNBAON@Unknown?5speex_preprocess_ctl?5re@ 0000000140081a58     libspeex-x86_64-x64-vc14-release:preprocess.obj
 0002:00015a80       __real@38d1b717            0000000140081a80     libspeex-x86_64-x64-vc14-release:preprocess.obj
 0002:00015a84       __real@3a83126f            0000000140081a84     libspeex-x86_64-x64-vc14-release:preprocess.obj
 0002:00015a88       __real@3c23d70a            0000000140081a88     libspeex-x86_64-x64-vc14-release:preprocess.obj
 0002:00015a8c       __real@3d4ccccd            0000000140081a8c     libspeex-x86_64-x64-vc14-release:preprocess.obj
 0002:00015a90       __real@3d99999a            0000000140081a90     libspeex-x86_64-x64-vc14-release:preprocess.obj
 0002:00015a94       __real@3debc947            0000000140081a94     libspeex-x86_64-x64-vc14-release:preprocess.obj
 0002:00015a98       __real@3e4bc6a8            0000000140081a98     libspeex-x86_64-x64-vc14-release:preprocess.obj
 0002:00015a9c       __real@3e4ccccd            0000000140081a9c     libspeex-x86_64-x64-vc14-release:preprocess.obj
 0002:00015aa0       __real@3e6bc8e2            0000000140081aa0     libspeex-x86_64-x64-vc14-release:preprocess.obj
 0002:00015aa4       __real@3e99999a            0000000140081aa4     libspeex-x86_64-x64-vc14-release:preprocess.obj
 0002:00015aa8       __real@3eaa7efa            0000000140081aa8     libspeex-x86_64-x64-vc14-release:preprocess.obj
 0002:00015aac       __real@3eb33333            0000000140081aac     libspeex-x86_64-x64-vc14-release:preprocess.obj
 0002:00015ab0       __real@3f333333            0000000140081ab0     libspeex-x86_64-x64-vc14-release:preprocess.obj
 0002:00015ab4       __real@3f63d70a            0000000140081ab4     libspeex-x86_64-x64-vc14-release:preprocess.obj
 0002:00015ab8       __real@3f6624dd            0000000140081ab8     libspeex-x86_64-x64-vc14-release:preprocess.obj
 0002:00015ac0       __real@3f9eb851eb851eb8    0000000140081ac0     libspeex-x86_64-x64-vc14-release:preprocess.obj
 0002:00015ac8       __real@3fa2cdb8            0000000140081ac8     libspeex-x86_64-x64-vc14-release:preprocess.obj
 0002:00015ad0       __real@3fc096bb98c7e282    0000000140081ad0     libspeex-x86_64-x64-vc14-release:preprocess.obj
 0002:00015ad8       __real@3fc999999999999a    0000000140081ad8     libspeex-x86_64-x64-vc14-release:preprocess.obj
 0002:00015ae0       __real@3fe75c2900000000    0000000140081ae0     libspeex-x86_64-x64-vc14-release:preprocess.obj
 0002:00015ae8       __real@3ff61adea8000000    0000000140081ae8     libspeex-x86_64-x64-vc14-release:preprocess.obj
 0002:00015af0       __real@40000000            0000000140081af0     libspeex-x86_64-x64-vc14-release:preprocess.obj
 0002:00015af8       __real@4014000000000000    0000000140081af8     libspeex-x86_64-x64-vc14-release:preprocess.obj
 0002:00015b00       __real@40215f212d773190    0000000140081b00     libspeex-x86_64-x64-vc14-release:preprocess.obj
 0002:00015b08       __real@456d8000            0000000140081b08     libspeex-x86_64-x64-vc14-release:preprocess.obj
 0002:00015b0c       __real@467a0000            0000000140081b0c     libspeex-x86_64-x64-vc14-release:preprocess.obj
 0002:00015b10       __real@46dac000            0000000140081b10     libspeex-x86_64-x64-vc14-release:preprocess.obj
 0002:00015b14       __real@47000000            0000000140081b14     libspeex-x86_64-x64-vc14-release:preprocess.obj
 0002:00015b18       __real@495bba00            0000000140081b18     libspeex-x86_64-x64-vc14-release:preprocess.obj
 0002:00015b1c       __real@4e6e6b28            0000000140081b1c     libspeex-x86_64-x64-vc14-release:preprocess.obj
 0002:00015b20       __real@bf000000            0000000140081b20     libspeex-x86_64-x64-vc14-release:preprocess.obj
 0002:00015b28       __real@bfc99999a0000000    0000000140081b28     libspeex-x86_64-x64-vc14-release:preprocess.obj
 0002:00015b30       __real@c0000000            0000000140081b30     libspeex-x86_64-x64-vc14-release:preprocess.obj
 0002:00015b38       __real@c0126bb98c000000    0000000140081b38     libspeex-x86_64-x64-vc14-release:preprocess.obj
 0002:00015b40       __xmm@3d4ccccd3d4ccccd3d4ccccd3d4ccccd 0000000140081b40     libspeex-x86_64-x64-vc14-release:preprocess.obj
 0002:00015b50       __xmm@3d99999a3d99999a3d99999a3d99999a 0000000140081b50     libspeex-x86_64-x64-vc14-release:preprocess.obj
 0002:00015b60       __xmm@3dcccccd3dcccccd3dcccccd3dcccccd 0000000140081b60     libspeex-x86_64-x64-vc14-release:preprocess.obj
 0002:00015b70       __xmm@3e19999a3e19999a3e19999a3e19999a 0000000140081b70     libspeex-x86_64-x64-vc14-release:preprocess.obj
 0002:00015b80       __xmm@3e99999a3e99999a3e99999a3e99999a 0000000140081b80     libspeex-x86_64-x64-vc14-release:preprocess.obj
 0002:00015b90       __xmm@3f19999a3f19999a3f19999a3f19999a 0000000140081b90     libspeex-x86_64-x64-vc14-release:preprocess.obj
 0002:00015ba0       __xmm@3f3333333f3333333f3333333f333333 0000000140081ba0     libspeex-x86_64-x64-vc14-release:preprocess.obj
 0002:00015bb0       __xmm@3f4ccccd3f4ccccd3f4ccccd3f4ccccd 0000000140081bb0     libspeex-x86_64-x64-vc14-release:preprocess.obj
 0002:00015bc0       __xmm@3f63d70a3f63d70a3f63d70a3f63d70a 0000000140081bc0     libspeex-x86_64-x64-vc14-release:preprocess.obj
 0002:00015bd0       __xmm@3f8000003f8000003f8000003f800000 0000000140081bd0     libspeex-x86_64-x64-vc14-release:preprocess.obj
 0002:00015be0       __xmm@42c8000042c8000042c8000042c80000 0000000140081be0     libspeex-x86_64-x64-vc14-release:preprocess.obj
 0002:00015bf0       __xmm@7fffffff7fffffff7fffffff7fffffff 0000000140081bf0     libspeex-x86_64-x64-vc14-release:preprocess.obj
 0002:00015c00       __xmm@7fffffffffffffff7fffffffffffffff 0000000140081c00     libspeex-x86_64-x64-vc14-release:preprocess.obj
 0002:00015c10       ??_C@_0CA@EIAGMGLH@FFT?5should?5not?5be?5done?5in?9place@ 0000000140081c10     libspeex-x86_64-x64-vc14-release:fftwrap.obj
 0002:00015c30       __real@329ee9ee            0000000140081c30     libspeex-x86_64-x64-vc14-release:filterbank.obj
 0002:00015c34       __real@3a41fc8f            0000000140081c34     libspeex-x86_64-x64-vc14-release:filterbank.obj
 0002:00015c38       __real@4001eb8520000000    0000000140081c38     libspeex-x86_64-x64-vc14-release:filterbank.obj
 0002:00015c40       __real@402a333340000000    0000000140081c40     libspeex-x86_64-x64-vc14-release:filterbank.obj
 0002:00015c48       ??_C@_04DKFOEDJA@srtp@     0000000140081c48     libsrtp-x86_64-x64-vc14-release:srtp.obj
 0002:00015c50       ??_C@_0CD@KFGKPJOG@?$CFs?3?5cloning?5stream?5?$CISSRC?3?50x?$CF08@ 0000000140081c50     libsrtp-x86_64-x64-vc14-release:srtp.obj
 0002:00015c78       ??_C@_0BG@DDGAJBGL@?$CFs?3?5srtp?5key?5len?3?5?$CFd?6@ 0000000140081c78     libsrtp-x86_64-x64-vc14-release:srtp.obj
 0002:00015c90       ??_C@_0BH@DGNFCKJN@?$CFs?3?5srtcp?5key?5len?3?5?$CFd?6@ 0000000140081c90     libsrtp-x86_64-x64-vc14-release:srtp.obj
 0002:00015ca8       ??_C@_0BG@DMEGGANK@?$CFs?3?5base?5key?5len?3?5?$CFd?6@ 0000000140081ca8     libsrtp-x86_64-x64-vc14-release:srtp.obj
 0002:00015cc0       ??_C@_0BF@HLIACONN@?$CFs?3?5kdf?5key?5len?3?5?$CFd?6@ 0000000140081cc0     libsrtp-x86_64-x64-vc14-release:srtp.obj
 0002:00015cd8       ??_C@_0BG@BGKGMHMB@?$CFs?3?5rtp?5salt?5len?3?5?$CFd?6@ 0000000140081cd8     libsrtp-x86_64-x64-vc14-release:srtp.obj
 0002:00015cf0       ??_C@_0BE@PGOGLMMP@?$CFs?3?5cipher?5key?3?5?$CFs?6@ 0000000140081cf0     libsrtp-x86_64-x64-vc14-release:srtp.obj
 0002:00015d08       ??_C@_0CN@BDCDAMHJ@?$CFs?3?5found?5rtp_salt_len?5?$DO?50?0?5gen@ 0000000140081d08     libsrtp-x86_64-x64-vc14-release:srtp.obj
 0002:00015d38       ??_C@_0BF@GHNDNNEA@?$CFs?3?5cipher?5salt?3?5?$CFs?6@ 0000000140081d38     libsrtp-x86_64-x64-vc14-release:srtp.obj
 0002:00015d50       ??_C@_0BP@LJKEDGBP@?$CFs?3?5extensions?5cipher?5key?3?5?$CFs?6@ 0000000140081d50     libsrtp-x86_64-x64-vc14-release:srtp.obj
 0002:00015d70       ??_C@_0DF@NJKDAIDN@?$CFs?3?5found?5rtp_xtn_hdr_salt_len?5@ 0000000140081d70     libsrtp-x86_64-x64-vc14-release:srtp.obj
 0002:00015da8       ??_C@_0CA@OBEPENBO@?$CFs?3?5extensions?5cipher?5salt?3?5?$CFs?6@ 0000000140081da8     libsrtp-x86_64-x64-vc14-release:srtp.obj
 0002:00015dc8       ??_C@_0BE@HGKFNAFC@?$CFs?3?5auth?5key?3?5?5?5?$CFs?6@ 0000000140081dc8     libsrtp-x86_64-x64-vc14-release:srtp.obj
 0002:00015de0       ??_C@_0BH@KOPGGCNO@?$CFs?3?5rtcp?5salt?5len?3?5?$CFd?6@ 0000000140081de0     libsrtp-x86_64-x64-vc14-release:srtp.obj
 0002:00015df8       ??_C@_0DD@DNDBGLG@?$CFs?3?5found?5rtcp_salt_len?5?$DO?50?0?5ge@ 0000000140081df8     libsrtp-x86_64-x64-vc14-release:srtp.obj
 0002:00015e30       ??_C@_0BJ@KAKGCCMO@?$CFs?3?5rtcp?5cipher?5key?3?5?$CFs?6@ 0000000140081e30     libsrtp-x86_64-x64-vc14-release:srtp.obj
 0002:00015e50       ??_C@_0BK@BAICKNEI@?$CFs?3?5rtcp?5cipher?5salt?3?5?$CFs?6@ 0000000140081e50     libsrtp-x86_64-x64-vc14-release:srtp.obj
 0002:00015e70       ??_C@_0BJ@CAOFEOFD@?$CFs?3?5rtcp?5auth?5key?3?5?5?5?$CFs?6@ 0000000140081e70     libsrtp-x86_64-x64-vc14-release:srtp.obj
 0002:00015e90       ??_C@_0CI@PDNDGOMA@?$CFs?3?5initializing?5stream?5?$CISSRC?3?5@ 0000000140081e90     libsrtp-x86_64-x64-vc14-release:srtp.obj
 0002:00015eb8       ??_C@_0BH@GAKJJGLB@srtp?3?5in?5stream?50x?$CFx?3?5@ 0000000140081eb8     libsrtp-x86_64-x64-vc14-release:srtp.obj
 0002:00015ed0       ??_C@_0BB@PPFALDPP@?7SSRC?5collision?6@ 0000000140081ed0     libsrtp-x86_64-x64-vc14-release:srtp.obj
 0002:00015ee8       ??_C@_0BP@HOEKLBIN@?7key?5usage?5soft?5limit?5reached?6@ 0000000140081ee8     libsrtp-x86_64-x64-vc14-release:srtp.obj
 0002:00015f08       ??_C@_0BP@KNJIFCF@?7key?5usage?5hard?5limit?5reached?6@ 0000000140081f08     libsrtp-x86_64-x64-vc14-release:srtp.obj
 0002:00015f28       ??_C@_0BN@MKCGGAOP@?7packet?5index?5limit?5reached?6@ 0000000140081f28     libsrtp-x86_64-x64-vc14-release:srtp.obj
 0002:00015f48       ??_C@_0CE@FFJEPPID@?7unknown?5event?5reported?5to?5hand@ 0000000140081f48     libsrtp-x86_64-x64-vc14-release:srtp.obj
 0002:00015f70       ??_C@_0BN@IJKEFIPG@?$CFs?3?5Pre?9salted?5RTP?5IV?5?$DN?5?$CFs?6?6@ 0000000140081f70     libsrtp-x86_64-x64-vc14-release:srtp.obj
 0002:00015f90       ??_C@_0BE@MNMIOELF@?$CFs?3?5RTP?5SALT?5?$DN?5?$CFs?6?6@ 0000000140081f90     libsrtp-x86_64-x64-vc14-release:srtp.obj
 0002:00015fa8       ??_C@_0CH@MOHBLIMO@?$CFs?3?5estimated?5u_packet?5index?3?5?$CF@ 0000000140081fa8     libsrtp-x86_64-x64-vc14-release:srtp.obj
 0002:00015fd0       ??_C@_0CA@OMJPHCHL@?$CFs?3?5function?5srtp_protect_aead?6@ 0000000140081fd0     libsrtp-x86_64-x64-vc14-release:srtp.obj
 0002:00015ff0       ??_C@_0CF@PEPHCKJP@?$CFs?3?5estimated?5packet?5index?3?5?$CF01@ 0000000140081ff0     libsrtp-x86_64-x64-vc14-release:srtp.obj
 0002:00016018       ??_C@_0CC@KIGABHOG@?$CFs?3?5function?5srtp_unprotect_aea@ 0000000140082018     libsrtp-x86_64-x64-vc14-release:srtp.obj
 0002:00016040       ??_C@_0BL@MADNODBC@?$CFs?3?5function?5srtp_protect?6@ 0000000140082040     libsrtp-x86_64-x64-vc14-release:srtp.obj
 0002:00016060       ??_C@_0BK@KLBGMJPP@?$CFs?3?5keystream?5prefix?3?5?$CFs?6@ 0000000140082060     libsrtp-x86_64-x64-vc14-release:srtp.obj
 0002:00016080       ??_C@_0BK@GCKOFNLP@?$CFs?3?5srtp?5auth?5tag?3?5?5?5?5?$CFs?6@ 0000000140082080     libsrtp-x86_64-x64-vc14-release:srtp.obj
 0002:000160a0       ??_C@_0BN@LADOAJPP@?$CFs?3?5function?5srtp_unprotect?6@ 00000001400820a0     libsrtp-x86_64-x64-vc14-release:srtp.obj
 0002:000160c0       ??_C@_0CN@PJAKIEAG@?$CFs?3?5using?5provisional?5stream?5?$CIS@ 00000001400820c0     libsrtp-x86_64-x64-vc14-release:srtp.obj
 0002:000160f0       ??_C@_0BO@BONEKIBH@?$CFs?3?5computed?5auth?5tag?3?5?5?5?5?$CFs?6@ 00000001400820f0     libsrtp-x86_64-x64-vc14-release:srtp.obj
 0002:00016110       ??_C@_0BO@KMHOFFAA@?$CFs?3?5packet?5auth?5tag?3?5?5?5?5?5?5?$CFs?6@ 0000000140082110     libsrtp-x86_64-x64-vc14-release:srtp.obj
 0002:00016130       ??_C@_0BO@ONKEAFKG@?$CFs?3?5Pre?9salted?5RTCP?5IV?5?$DN?5?$CFs?6?6@ 0000000140082130     libsrtp-x86_64-x64-vc14-release:srtp.obj
 0002:00016150       ??_C@_0BF@FLPIMBMP@?$CFs?3?5RTCP?5SALT?5?$DN?5?$CFs?6?6@ 0000000140082150     libsrtp-x86_64-x64-vc14-release:srtp.obj
 0002:00016168       ??_C@_0BF@JBCKCIAJ@?$CFs?3?5srtcp?5index?3?5?$CFx?6@ 0000000140082168     libsrtp-x86_64-x64-vc14-release:srtp.obj
 0002:00016180       ??_C@_0BL@OBHAKLEH@?$CFs?3?5srtcp?5auth?5tag?3?5?5?5?5?$CFs?6@ 0000000140082180     libsrtp-x86_64-x64-vc14-release:srtp.obj
 0002:000161a0       ??_C@_0DD@HHOLLDKC@?$CFs?3?5srtcp?5using?5provisional?5str@ 00000001400821a0     libsrtp-x86_64-x64-vc14-release:srtp.obj
 0002:000161d8       ??_C@_0CC@IMKDPKDI@?$CFs?3?5srtcp?5computed?5tag?3?5?5?5?5?5?5?5?$CF@ 00000001400821d8     libsrtp-x86_64-x64-vc14-release:srtp.obj
 0002:00016200       ??_C@_0CC@GFCANNPL@?$CFs?3?5srtcp?5tag?5from?5packet?3?5?5?5?5?$CF@ 0000000140082200     libsrtp-x86_64-x64-vc14-release:srtp.obj
 0002:00016224       ??_C@_05KNPMOECN@alloc@    0000000140082224     libsrtp-x86_64-x64-vc14-release:alloc.obj
 0002:00016230       ??_C@_0BO@KJOGHNGM@?$CFs?3?5?$CIlocation?3?5?$CFp?$CJ?5allocated?6@ 0000000140082230     libsrtp-x86_64-x64-vc14-release:alloc.obj
 0002:00016250       ??_C@_0CN@JJLNACEJ@?$CFs?3?5allocation?5failed?5?$CIasked?5fo@ 0000000140082250     libsrtp-x86_64-x64-vc14-release:alloc.obj
 0002:00016280       ??_C@_0BK@BNKOPMHD@?$CFs?3?5?$CIlocation?3?5?$CFp?$CJ?5freed?6@ 0000000140082280     libsrtp-x86_64-x64-vc14-release:alloc.obj
 0002:000162a0       __xmm@66656463626139383736353433323130 00000001400822a0     libsrtp-x86_64-x64-vc14-release:datatypes.obj
 0002:000162b0       ??_C@_07EFAIHJHH@libsrtp@  00000001400822b0     libsrtp-x86_64-x64-vc14-release:srtp_err.obj
 0002:000162b8       ??_C@_06KDGDAFPH@cipher@   00000001400822b8     libsrtp-x86_64-x64-vc14-release:cipher.obj
 0002:000162c0       ??_C@_09EJIBOKIO@auth?5func@ 00000001400822c0     libsrtp-x86_64-x64-vc14-release:auth.obj
 0002:000162d0       ??_C@_0O@MIKIJNFL@crypto?5kernel@ 00000001400822d0     libsrtp-x86_64-x64-vc14-release:crypto_kernel.obj
 0002:000162e0       ??_C@_0BE@ICAFLID@?$CFs?3?5EKT?5not?5in?5use?6@ 00000001400822e0     libsrtp-x86_64-x64-vc14-release:ekt.obj
 0002:000162f8       ??_C@_0BK@CMOOGLJH@?$CFs?3?5writing?5EKT?5EMK?3?5?$CFs?0?6@ 00000001400822f8     libsrtp-x86_64-x64-vc14-release:ekt.obj
 0002:00016318       ??_C@_0BK@BEIPMCDF@?$CFs?3?5writing?5EKT?5ROC?3?5?$CFs?0?6@ 0000000140082318     libsrtp-x86_64-x64-vc14-release:ekt.obj
 0002:00016338       ??_C@_0BK@BKDABMJO@?$CFs?3?5writing?5EKT?5ISN?3?5?$CFs?0?6@ 0000000140082338     libsrtp-x86_64-x64-vc14-release:ekt.obj
 0002:00016358       ??_C@_0BK@BJPEDIGD@?$CFs?3?5writing?5EKT?5SPI?3?5?$CFs?0?6@ 0000000140082358     libsrtp-x86_64-x64-vc14-release:ekt.obj
 0002:00016378       ??_C@_09LCMAEBCF@stat?5test@ 0000000140082378     libsrtp-x86_64-x64-vc14-release:stat.obj
 0002:00016388       ??_C@_0CK@DAFEFAPH@?$CFs?3?5allocating?5cipher?5with?5key?5@ 0000000140082388     libsrtp-x86_64-x64-vc14-release:null_cipher.obj
 0002:000163b8       ??_C@_0BO@HCJFKKEE@?$CFs?3?5initializing?5null?5cipher?6@ 00000001400823b8     libsrtp-x86_64-x64-vc14-release:null_cipher.obj
 0002:00016450       srtp_null_cipher           0000000140082450     libsrtp-x86_64-x64-vc14-release:null_cipher.obj
 0002:000164a8       ??_C@_07MPIJGLIA@aes?5icm@ 00000001400824a8     libsrtp-x86_64-x64-vc14-release:aes_icm.obj
 0002:000164b0       srtp_aes_icm_128           00000001400824b0     libsrtp-x86_64-x64-vc14-release:aes_icm.obj
 0002:00016510       srtp_aes_icm_256           0000000140082510     libsrtp-x86_64-x64-vc14-release:aes_icm.obj
 0002:00016738       ??_C@_0O@GFBJNBAD@?$CFs?3?5key?3?5?5?$CFs?6@ 0000000140082738     libsrtp-x86_64-x64-vc14-release:aes_icm.obj
 0002:00016748       ??_C@_0BA@ILFEGDEM@?$CFs?3?5offset?3?5?$CFs?6@ 0000000140082748     libsrtp-x86_64-x64-vc14-release:aes_icm.obj
 0002:00016758       ??_C@_0BE@ECIFEEKH@?$CFs?3?5setting?5iv?3?5?$CFs?6@ 0000000140082758     libsrtp-x86_64-x64-vc14-release:aes_icm.obj
 0002:00016770       ??_C@_0BF@OAOEHNDM@?$CFs?3?5set_counter?3?5?$CFs?6@ 0000000140082770     libsrtp-x86_64-x64-vc14-release:aes_icm.obj
 0002:00016788       ??_C@_0BE@ENJPOLAG@?$CFs?3?5counter?3?5?5?5?5?$CFs?6@ 0000000140082788     libsrtp-x86_64-x64-vc14-release:aes_icm.obj
 0002:000167a0       ??_C@_0BE@ILCAEFF@?$CFs?3?5ciphertext?3?5?$CFs?6@ 00000001400827a0     libsrtp-x86_64-x64-vc14-release:aes_icm.obj
 0002:000167b8       ??_C@_0BF@BLBMMINO@?$CFs?3?5block?5index?3?5?$CFd?6@ 00000001400827b8     libsrtp-x86_64-x64-vc14-release:aes_icm.obj
 0002:000167d0       ??_C@_0CN@KBEHBKDH@?$CFs?3?5allocating?5auth?5func?5with?5k@ 00000001400827d0     libsrtp-x86_64-x64-vc14-release:null_auth.obj
 0002:00016800       ??_C@_0CN@FDNDBNFI@?$CFs?3?5?5?5?5?5?5?5?5?5?5?5?5?5?5?5?5?5?5?5?5?5?5?5?5?5?5?5t@ 0000000140082800     libsrtp-x86_64-x64-vc14-release:null_auth.obj
 0002:00016890       srtp_null_auth             0000000140082890     libsrtp-x86_64-x64-vc14-release:null_auth.obj
 0002:000168d8       ??_C@_0L@NBBBLMAJ@hmac?5sha?91@ 00000001400828d8     libsrtp-x86_64-x64-vc14-release:hmac.obj
 0002:000168e8       ??_C@_0O@PJECJPIJ@?$CFs?3?5ipad?3?5?$CFs?6@ 00000001400828e8     libsrtp-x86_64-x64-vc14-release:hmac.obj
 0002:000168f8       ??_C@_0P@JHGAOEEF@?$CFs?3?5input?3?5?$CFs?6@ 00000001400828f8     libsrtp-x86_64-x64-vc14-release:hmac.obj
 0002:00016908       ??_C@_0BM@JABNBLDM@?$CFs?3?5intermediate?5state?3?5?$CFs?6@ 0000000140082908     libsrtp-x86_64-x64-vc14-release:hmac.obj
 0002:00016928       ??_C@_0BA@NKCNJNLN@?$CFs?3?5output?3?5?$CFs?6@ 0000000140082928     libsrtp-x86_64-x64-vc14-release:hmac.obj
 0002:000169e0       srtp_hmac                  00000001400829e0     libsrtp-x86_64-x64-vc14-release:hmac.obj
 0002:00016a30       __xmm@36363636363636363636363636363636 0000000140082a30     libsrtp-x86_64-x64-vc14-release:hmac.obj
 0002:00016a40       __xmm@5c5c5c5c5c5c5c5c5c5c5c5c5c5c5c5c 0000000140082a40     libsrtp-x86_64-x64-vc14-release:hmac.obj
 0002:00018c50       ??_C@_05BPJLFPNI@sha?91@   0000000140084c50     libsrtp-x86_64-x64-vc14-release:sha1.obj
 0002:00018c58       ??_C@_0CH@CIFCCFOE@?$CFs?3?5?$CIupdate?$CJ?5running?5srtp_sha1_@ 0000000140084c58     libsrtp-x86_64-x64-vc14-release:sha1.obj
 0002:00018c80       ??_C@_0CL@FECLBICF@?$CFs?3?5?$CIupdate?$CJ?5not?5running?5srtp_s@ 0000000140084c80     libsrtp-x86_64-x64-vc14-release:sha1.obj
 0002:00018cb0       ??_C@_0CG@BBEKCMGE@?$CFs?3?5?$CIfinal?$CJ?5running?5srtp_sha1_c@ 0000000140084cb0     libsrtp-x86_64-x64-vc14-release:sha1.obj
 0002:00018cd8       ??_C@_0CM@HEEFBAKO@?$CFs?3?5?$CIfinal?$CJ?5running?5srtp_sha1_c@ 0000000140084cd8     libsrtp-x86_64-x64-vc14-release:sha1.obj
 0002:00018d40       _load_config_used          0000000140084d40     MSVCRT:loadcfg.obj
 0002:00018e80       __volatile_metadata        0000000140084e80     <linker-defined>
 0002:00019240       __rtc_iaa                  0000000140085240     MSVCRT:initsect.obj
 0002:00019248       __rtc_izz                  0000000140085248     MSVCRT:initsect.obj
 0002:00019250       __rtc_taa                  0000000140085250     MSVCRT:initsect.obj
 0002:00019258       __rtc_tzz                  0000000140085258     MSVCRT:initsect.obj
 0002:00021164       __IMPORT_DESCRIPTOR_ole32  000000014008d164     ole32:ole32.dll
 0002:00021178       __IMPORT_DESCRIPTOR_WS2_32 000000014008d178     ws2_32:WS2_32.dll
 0002:0002118c       __IMPORT_DESCRIPTOR_WINMM  000000014008d18c     winmm:WINMM.dll
 0002:000211a0       __IMPORT_DESCRIPTOR_KERNEL32 000000014008d1a0     kernel32:KERNEL32.dll
 0002:000211b4       __IMPORT_DESCRIPTOR_VCRUNTIME140 000000014008d1b4     vcruntime:VCRUNTIME140.dll
 0002:000211c8       __IMPORT_DESCRIPTOR_api-ms-win-crt-stdio-l1-1-0 000000014008d1c8     ucrt:api-ms-win-crt-stdio-l1-1-0.dll
 0002:000211dc       __IMPORT_DESCRIPTOR_api-ms-win-crt-convert-l1-1-0 000000014008d1dc     ucrt:api-ms-win-crt-convert-l1-1-0.dll
 0002:000211f0       __IMPORT_DESCRIPTOR_api-ms-win-crt-string-l1-1-0 000000014008d1f0     ucrt:api-ms-win-crt-string-l1-1-0.dll
 0002:00021204       __IMPORT_DESCRIPTOR_api-ms-win-crt-math-l1-1-0 000000014008d204     ucrt:api-ms-win-crt-math-l1-1-0.dll
 0002:00021218       __IMPORT_DESCRIPTOR_api-ms-win-crt-heap-l1-1-0 000000014008d218     ucrt:api-ms-win-crt-heap-l1-1-0.dll
 0002:0002122c       __IMPORT_DESCRIPTOR_api-ms-win-crt-utility-l1-1-0 000000014008d22c     ucrt:api-ms-win-crt-utility-l1-1-0.dll
 0002:00021240       __IMPORT_DESCRIPTOR_api-ms-win-crt-runtime-l1-1-0 000000014008d240     ucrt:api-ms-win-crt-runtime-l1-1-0.dll
 0002:00021254       __IMPORT_DESCRIPTOR_api-ms-win-crt-locale-l1-1-0 000000014008d254     ucrt:api-ms-win-crt-locale-l1-1-0.dll
 0002:00021268       __NULL_IMPORT_DESCRIPTOR   000000014008d268     ole32:ole32.dll
 0003:00001028       pjsip_include_allow_hdr_in_dlg 0000000140090028     pjsip-core-x86_64-x64-vc14-release:sip_dialog.obj
 0003:00001030       PJSIP_SYN_ERR_EXCEPTION    0000000140090030     pjsip-core-x86_64-x64-vc14-release:sip_parser.obj
 0003:00001034       PJSIP_EINVAL_ERR_EXCEPTION 0000000140090034     pjsip-core-x86_64-x64-vc14-release:sip_parser.obj
 0003:000012b0       pjsip_sip_cfg_var          00000001400902b0     pjsip-core-x86_64-x64-vc14-release:sip_config.obj
 0003:00001420       mod_stateful_util          0000000140090420     pjsip-core-x86_64-x64-vc14-release:sip_util_statefull.obj
 0003:00001528       pjmedia_add_rtpmap_for_static_pt 0000000140090528     pjmedia-x86_64-x64-vc14-release:endpoint.obj
 0003:0000152c       pjmedia_add_bandwidth_tias_in_sdp 000000014009052c     pjmedia-x86_64-x64-vc14-release:endpoint.obj
 0003:00001810       rtcp_fb_type_name          0000000140090810     pjmedia-x86_64-x64-vc14-release:rtcp_fb.obj
 0003:00001b08       pj_optind                  0000000140090b08     pjlib-util-x86_64-x64-vc14-release:getopt.obj
 0003:00001b0c       pj_optopt                  0000000140090b0c     pjlib-util-x86_64-x64-vc14-release:getopt.obj
 0003:00001c58       pj_pool_factory_default_policy 0000000140090c58     pjlib-x86_64-x64-vc14-release:pool_policy_malloc.obj
 0003:00001d10       PJ_VERSION                 0000000140090d10     pjlib-x86_64-x64-vc14-release:config.obj
 0003:00001d50       mod_srtp                   0000000140090d50     libsrtp-x86_64-x64-vc14-release:srtp.obj
 0003:00001d68       mod_alloc                  0000000140090d68     libsrtp-x86_64-x64-vc14-release:alloc.obj
 0003:00001d80       octet_weight               0000000140090d80     libsrtp-x86_64-x64-vc14-release:datatypes.obj
 0003:00002180       srtp_mod_cipher            0000000140091180     libsrtp-x86_64-x64-vc14-release:cipher.obj
 0003:00002190       srtp_mod_auth              0000000140091190     libsrtp-x86_64-x64-vc14-release:auth.obj
 0003:000021a0       srtp_mod_crypto_kernel     00000001400911a0     libsrtp-x86_64-x64-vc14-release:crypto_kernel.obj
 0003:000021b0       mod_stat                   00000001400911b0     libsrtp-x86_64-x64-vc14-release:stat.obj
 0003:000021c0       srtp_mod_aes_icm           00000001400911c0     libsrtp-x86_64-x64-vc14-release:aes_icm.obj
 0003:000021d0       srtp_mod_hmac              00000001400911d0     libsrtp-x86_64-x64-vc14-release:hmac.obj
 0003:000021e0       srtp_mod_sha1              00000001400911e0     libsrtp-x86_64-x64-vc14-release:sha1.obj
 0003:000021f0       SHA_K0                     00000001400911f0     libsrtp-x86_64-x64-vc14-release:sha1.obj
 0003:000021f4       SHA_K1                     00000001400911f4     libsrtp-x86_64-x64-vc14-release:sha1.obj
 0003:000021f8       SHA_K2                     00000001400911f8     libsrtp-x86_64-x64-vc14-release:sha1.obj
 0003:000021fc       SHA_K3                     00000001400911fc     libsrtp-x86_64-x64-vc14-release:sha1.obj
 0003:00002200       __security_cookie_complement 0000000140091200     MSVCRT:gs_cookie.obj
 0003:00002208       __security_cookie          0000000140091208     MSVCRT:gs_cookie.obj
 0003:00002210       __isa_available            0000000140091210     MSVCRT:cpu_disp.obj
 0003:00002214       __isa_enabled              0000000140091214     MSVCRT:cpu_disp.obj
 0003:00002218       __memcpy_nt_iters          0000000140091218     MSVCRT:cpu_disp.obj
 0003:00002220       __memset_nt_iters          0000000140091220     MSVCRT:cpu_disp.obj
 0003:00002228       _fltused                   0000000140091228     MSVCRT:fltused.obj
 0003:00002230       __scrt_native_dllmain_reason 0000000140091230     MSVCRT:utility.obj
 0003:00002234       __scrt_default_matherr     0000000140091234     MSVCRT:matherr.obj
 0003:00002240       __scrt_ucrt_dll_is_in_use  0000000140091240     MSVCRT:ucrt_stubs.obj
 0003:000097b8       pj_optarg                  00000001400987b8     pjlib-util-x86_64-x64-vc14-release:getopt.obj
 0003:00009cb8       err_level                  0000000140098cb8     libsrtp-x86_64-x64-vc14-release:srtp_err.obj
 0003:00009cc0       crypto_kernel              0000000140098cc0     libsrtp-x86_64-x64-vc14-release:crypto_kernel.obj
 0003:0000a270       __favor                    0000000140099270     MSVCRT:cpu_disp.obj
 0003:0000a278       __scrt_current_native_startup_state 0000000140099278     MSVCRT:utility.obj
 0003:0000a280       __scrt_native_startup_lock 0000000140099280     MSVCRT:utility.obj
 0003:0000a2c0       ?__type_info_root_node@@3U__type_info_node@@A 00000001400992c0     MSVCRT:tncleanup.obj
 0003:0000a2d0       __scrt_debugger_hook_flag  00000001400992d0     MSVCRT:utility_desktop.obj
 0003:0000a2d8       __castguard_check_failure_os_handled_fptr 00000001400992d8     MSVCRT:guard_support.obj
 0003:0000a2e0       ?_OptionsStorage@?1??__local_stdio_printf_options@@9@9 00000001400992e0     <common>
 0003:0000a2e8       pjsip_dlg_lock_tls_id      00000001400992e8     <common>
 0003:0000a2ec       PJ_NO_MEMORY_EXCEPTION     00000001400992ec     <common>
 0003:0000a300       bit_string                 0000000140099300     <common>
 0003:0000a700       ?_OptionsStorage@?1??__local_stdio_scanf_options@@9@9 0000000140099700     <common>
 0003:0000a708       __dyn_tls_dtor_callback    0000000140099708     <common>
 0003:0000a710       __dyn_tls_init_callback    0000000140099710     <common>

 entry point at        0001:0006a330

 Static symbols

 0002:fff94000       .idata$6                   0000000140000000     ucrt:api-ms-win-crt-time-l1-1-0.dll
 0001:00000000       pj_bzero                   0000000140001000 f   simpleua.obj
 0001:00000010       pj_memcpy                  0000000140001010 f   simpleua.obj
 0001:00000030       PJMEDIA_SPF                0000000140001030 f   simpleua.obj
 0001:00000060       PJMEDIA_AFD_SPF            0000000140001060 f   simpleua.obj
 0001:00000090       PJMEDIA_PIA_SRATE          0000000140001090 f   simpleua.obj
 0001:000000a0       PJMEDIA_PIA_CCNT           00000001400010a0 f   simpleua.obj
 0001:000000b0       PJMEDIA_PIA_BITS           00000001400010b0 f   simpleua.obj
 0001:000000c0       PJMEDIA_PIA_SPF            00000001400010c0 f   simpleua.obj
 0001:000000f0       pjmedia_transport_info_init 00000001400010f0 f   simpleua.obj
 0001:00000130       pjmedia_transport_get_info 0000000140001130 f   simpleua.obj
 0001:00000160       pjmedia_transport_media_start 0000000140001160 f   simpleua.obj
 0001:00000170       pjmedia_transport_close    0000000140001170 f   simpleua.obj
 0001:00000190       pjmedia_endpt_create       0000000140001190 f   simpleua.obj
 0001:00000200       pjmedia_endpt_destroy      0000000140001200 f   simpleua.obj
 0001:00000220       app_perror                 0000000140001220 f   simpleua.obj
 0001:000006f0       call_on_media_update       00000001400016f0 f   simpleua.obj
 0001:000009e0       call_on_state_changed      00000001400019e0 f   simpleua.obj
 0001:00000a90       call_on_forked             0000000140001a90 f   simpleua.obj
 0001:00000aa0       on_rx_request              0000000140001aa0 f   simpleua.obj
 0001:00000d40       logging_on_rx_msg          0000000140001d40 f   simpleua.obj
 0001:00000de0       logging_on_tx_msg          0000000140001de0 f   simpleua.obj
 0001:000015f0       mod_inv_load               00000001400025f0 f   pjsip-ua-x86_64-x64-vc14-release:sip_inv.obj
 0001:000016f0       null_op                    00000001400026f0 f   pjlib-x86_64-x64-vc14-release:lock.obj
 0001:000016f0       g711_close                 00000001400026f0 f   pjmedia-x86_64-x64-vc14-release:g711.obj
 0001:000016f0       g711_init                  00000001400026f0 f   pjmedia-x86_64-x64-vc14-release:g711.obj
 0001:000016f0       sdes_media_stop            00000001400026f0 f   pjmedia-x86_64-x64-vc14-release:transport_srtp.obj
 0001:000016f0       mod_tsx_layer_load         00000001400026f0 f   pjsip-core-x86_64-x64-vc14-release:sip_transaction.obj
 0001:000016f0       mod_tsx_layer_start        00000001400026f0 f   pjsip-core-x86_64-x64-vc14-release:sip_transaction.obj
 0001:000016f0       mod_inv_unload             00000001400026f0 f   pjsip-ua-x86_64-x64-vc14-release:sip_inv.obj
 0001:000016f0       srtp_null_auth_compute     00000001400026f0 f   libsrtp-x86_64-x64-vc14-release:null_auth.obj
 0001:000016f0       srtp_null_auth_init        00000001400026f0 f   libsrtp-x86_64-x64-vc14-release:null_auth.obj
 0001:000016f0       srtp_null_auth_start       00000001400026f0 f   libsrtp-x86_64-x64-vc14-release:null_auth.obj
 0001:000016f0       srtp_null_auth_update      00000001400026f0 f   libsrtp-x86_64-x64-vc14-release:null_auth.obj
 0001:000016f0       srtp_null_cipher_encrypt   00000001400026f0 f   libsrtp-x86_64-x64-vc14-release:null_cipher.obj
 0001:000016f0       srtp_null_cipher_set_iv    00000001400026f0 f   libsrtp-x86_64-x64-vc14-release:null_cipher.obj
 0001:00001700       mod_inv_on_rx_request      0000000140002700 f   pjsip-ua-x86_64-x64-vc14-release:sip_inv.obj
 0001:00001910       mod_inv_on_rx_response     0000000140002910 f   pjsip-ua-x86_64-x64-vc14-release:sip_inv.obj
 0001:000019c0       mod_inv_on_tsx_state       00000001400029c0 f   pjsip-ua-x86_64-x64-vc14-release:sip_inv.obj
 0001:00001ac0       inv_on_state_null          0000000140002ac0 f   pjsip-ua-x86_64-x64-vc14-release:sip_inv.obj
 0001:00001d40       inv_on_state_calling       0000000140002d40 f   pjsip-ua-x86_64-x64-vc14-release:sip_inv.obj
 0001:00002220       inv_on_state_incoming      0000000140003220 f   pjsip-ua-x86_64-x64-vc14-release:sip_inv.obj
 0001:00002430       inv_on_state_early         0000000140003430 f   pjsip-ua-x86_64-x64-vc14-release:sip_inv.obj
 0001:00002a20       inv_on_state_connecting    0000000140003a20 f   pjsip-ua-x86_64-x64-vc14-release:sip_inv.obj
 0001:00002e50       inv_on_state_confirmed     0000000140003e50 f   pjsip-ua-x86_64-x64-vc14-release:sip_inv.obj
 0001:000039e0       inv_on_state_disconnected  00000001400049e0 f   pjsip-ua-x86_64-x64-vc14-release:sip_inv.obj
 0001:00003b10       cleanup_allow_sup_hdr      0000000140004b10 f   pjsip-ua-x86_64-x64-vc14-release:sip_inv.obj
 0001:00003ce0       clone_sdp                  0000000140004ce0 f   pjsip-ua-x86_64-x64-vc14-release:sip_inv.obj
 0001:00003cf0       create_sdp_body            0000000140004cf0 f   pjsip-ua-x86_64-x64-vc14-release:sip_inv.obj
 0001:00003d30       handle_uac_call_rejection  0000000140004d30 f   pjsip-ua-x86_64-x64-vc14-release:sip_inv.obj
 0001:00003f40       handle_uac_tsx_response    0000000140004f40 f   pjsip-ua-x86_64-x64-vc14-release:sip_inv.obj
 0001:00004160       inv_check_sdp_in_incoming_msg 0000000140005160 f   pjsip-ua-x86_64-x64-vc14-release:sip_inv.obj
 0001:00004610       inv_check_secure_dlg       0000000140005610 f   pjsip-ua-x86_64-x64-vc14-release:sip_inv.obj
 0001:000048c0       inv_handle_bye_response    00000001400058c0 f   pjsip-ua-x86_64-x64-vc14-release:sip_inv.obj
 0001:00004a00       inv_handle_incoming_reliable_response 0000000140005a00 f   pjsip-ua-x86_64-x64-vc14-release:sip_inv.obj
 0001:00004a90       inv_handle_update_response 0000000140005a90 f   pjsip-ua-x86_64-x64-vc14-release:sip_inv.obj
 0001:00004c60       inv_has_pending_answer     0000000140005c60 f   pjsip-ua-x86_64-x64-vc14-release:sip_inv.obj
 0001:00004d00       inv_negotiate_sdp          0000000140005d00 f   pjsip-ua-x86_64-x64-vc14-release:sip_inv.obj
 0001:00004dd0       inv_perform_pending_bye    0000000140005dd0 f   pjsip-ua-x86_64-x64-vc14-release:sip_inv.obj
 0001:00004e40       inv_respond_incoming_bye   0000000140005e40 f   pjsip-ua-x86_64-x64-vc14-release:sip_inv.obj
 0001:00004f30       inv_respond_incoming_cancel 0000000140005f30 f   pjsip-ua-x86_64-x64-vc14-release:sip_inv.obj
 0001:00005070       inv_respond_incoming_prack 0000000140006070 f   pjsip-ua-x86_64-x64-vc14-release:sip_inv.obj
 0001:00005120       inv_respond_incoming_update 0000000140006120 f   pjsip-ua-x86_64-x64-vc14-release:sip_inv.obj
 0001:000053a0       inv_send_ack               00000001400063a0 f   pjsip-ua-x86_64-x64-vc14-release:sip_inv.obj
 0001:000055c0       inv_set_state              00000001400065c0 f   pjsip-ua-x86_64-x64-vc14-release:sip_inv.obj
 0001:00005700       inv_uac_recurse            0000000140006700 f   pjsip-ua-x86_64-x64-vc14-release:sip_inv.obj
 0001:00006340       $LN62                      0000000140007340     pjsip-ua-x86_64-x64-vc14-release:sip_inv.obj
 0001:00007dc0       print_sdp                  0000000140008dc0 f   pjsip-ua-x86_64-x64-vc14-release:sip_inv.obj
 0001:00007dd0       process_answer             0000000140008dd0 f   pjsip-ua-x86_64-x64-vc14-release:sip_inv.obj
 0001:00007fb0       mod_100rel_load            0000000140008fb0 f   pjsip-ua-x86_64-x64-vc14-release:sip_100rel.obj
 0001:00008020       clear_all_responses        0000000140009020 f   pjsip-ua-x86_64-x64-vc14-release:sip_100rel.obj
 0001:00008070       find_req_hdr               0000000140009070 f   pjsip-ua-x86_64-x64-vc14-release:sip_100rel.obj
 0001:00008110       on_retransmit              0000000140009110 f   pjsip-ua-x86_64-x64-vc14-release:sip_100rel.obj
 0001:00008ec0       se_hdr_print               0000000140009ec0 f   pjsip-ua-x86_64-x64-vc14-release:sip_timer.obj
 0001:00009020       se_hdr_clone               000000014000a020 f   pjsip-ua-x86_64-x64-vc14-release:sip_timer.obj
 0001:000090d0       pjsip_contact_hdr_shallow_clone 000000014000a0d0 f   pjsip-core-x86_64-x64-vc14-release:sip_msg.obj
 0001:000090d0       pjsip_fromto_hdr_shallow_clone 000000014000a0d0 f   pjsip-core-x86_64-x64-vc14-release:sip_msg.obj
 0001:000090d0       se_hdr_shallow_clone       000000014000a0d0 f   pjsip-ua-x86_64-x64-vc14-release:sip_timer.obj
 0001:00009170       min_se_hdr_print           000000014000a170 f   pjsip-ua-x86_64-x64-vc14-release:sip_timer.obj
 0001:00009240       min_se_hdr_clone           000000014000a240 f   pjsip-ua-x86_64-x64-vc14-release:sip_timer.obj
 0001:000092c0       min_se_hdr_shallow_clone   000000014000a2c0 f   pjsip-ua-x86_64-x64-vc14-release:sip_timer.obj
 0001:00009350       add_timer_headers          000000014000a350 f   pjsip-ua-x86_64-x64-vc14-release:sip_timer.obj
 0001:0000a0a0       start_timer                000000014000b0a0 f   pjsip-ua-x86_64-x64-vc14-release:sip_timer.obj
 0001:0000a210       stop_timer                 000000014000b210 f   pjsip-ua-x86_64-x64-vc14-release:sip_timer.obj
 0001:0000a280       timer_cb                   000000014000b280 f   pjsip-ua-x86_64-x64-vc14-release:sip_timer.obj
 0001:0000a5a0       pjsip_generic_string_hdr_print 000000014000b5a0 f   pjsip-core-x86_64-x64-vc14-release:sip_msg.obj
 0001:0000a640       pjsip_generic_string_hdr_clone 000000014000b640 f   pjsip-core-x86_64-x64-vc14-release:sip_msg.obj
 0001:0000a720       pjsip_generic_string_hdr_shallow_clone 000000014000b720 f   pjsip-core-x86_64-x64-vc14-release:sip_msg.obj
 0001:0000a760       pjsip_generic_int_hdr_print 000000014000b760 f   pjsip-core-x86_64-x64-vc14-release:sip_msg.obj
 0001:0000a7f0       pjsip_generic_int_hdr_clone 000000014000b7f0 f   pjsip-core-x86_64-x64-vc14-release:sip_msg.obj
 0001:0000a7f0       pjsip_generic_int_hdr_shallow_clone 000000014000b7f0 f   pjsip-core-x86_64-x64-vc14-release:sip_msg.obj
 0001:0000a840       pjsip_generic_array_hdr_print 000000014000b840 f   pjsip-core-x86_64-x64-vc14-release:sip_msg.obj
 0001:0000a980       pjsip_generic_array_hdr_clone 000000014000b980 f   pjsip-core-x86_64-x64-vc14-release:sip_msg.obj
 0001:0000aa80       pjsip_generic_array_hdr_shallow_clone 000000014000ba80 f   pjsip-core-x86_64-x64-vc14-release:sip_msg.obj
 0001:0000ab30       pjsip_clen_hdr_print       000000014000bb30 f   pjsip-core-x86_64-x64-vc14-release:sip_msg.obj
 0001:0000abd0       pjsip_clen_hdr_clone       000000014000bbd0 f   pjsip-core-x86_64-x64-vc14-release:sip_msg.obj
 0001:0000ac40       pjsip_cseq_hdr_print       000000014000bc40 f   pjsip-core-x86_64-x64-vc14-release:sip_msg.obj
 0001:0000ace0       pjsip_cseq_hdr_clone       000000014000bce0 f   pjsip-core-x86_64-x64-vc14-release:sip_msg.obj
 0001:0000ada0       pjsip_cseq_hdr_shallow_clone 000000014000bda0 f   pjsip-core-x86_64-x64-vc14-release:sip_msg.obj
 0001:0000adf0       pjsip_contact_hdr_print    000000014000bdf0 f   pjsip-core-x86_64-x64-vc14-release:sip_msg.obj
 0001:0000b040       pjsip_contact_hdr_clone    000000014000c040 f   pjsip-core-x86_64-x64-vc14-release:sip_msg.obj
 0001:0000b140       pjsip_ctype_hdr_print      000000014000c140 f   pjsip-core-x86_64-x64-vc14-release:sip_msg.obj
 0001:0000b1e0       pjsip_ctype_hdr_clone      000000014000c1e0 f   pjsip-core-x86_64-x64-vc14-release:sip_msg.obj
 0001:0000b2d0       pjsip_fromto_hdr_print     000000014000c2d0 f   pjsip-core-x86_64-x64-vc14-release:sip_msg.obj
 0001:0000b420       pjsip_fromto_hdr_clone     000000014000c420 f   pjsip-core-x86_64-x64-vc14-release:sip_msg.obj
 0001:0000b520       pjsip_routing_hdr_print    000000014000c520 f   pjsip-core-x86_64-x64-vc14-release:sip_msg.obj
 0001:0000b690       pjsip_routing_hdr_clone    000000014000c690 f   pjsip-core-x86_64-x64-vc14-release:sip_msg.obj
 0001:0000b750       pjsip_routing_hdr_shallow_clone 000000014000c750 f   pjsip-core-x86_64-x64-vc14-release:sip_msg.obj
 0001:0000b7f0       pjsip_retry_after_hdr_print 000000014000c7f0 f   pjsip-core-x86_64-x64-vc14-release:sip_msg.obj
 0001:0000b920       pjsip_retry_after_hdr_clone 000000014000c920 f   pjsip-core-x86_64-x64-vc14-release:sip_msg.obj
 0001:0000b9d0       pjsip_retry_after_hdr_shallow_clone 000000014000c9d0 f   pjsip-core-x86_64-x64-vc14-release:sip_msg.obj
 0001:0000ba70       pjsip_via_hdr_print        000000014000ca70 f   pjsip-core-x86_64-x64-vc14-release:sip_msg.obj
 0001:0000be60       pjsip_via_hdr_clone        000000014000ce60 f   pjsip-core-x86_64-x64-vc14-release:sip_msg.obj
 0001:0000bf90       pjsip_via_hdr_shallow_clone 000000014000cf90 f   pjsip-core-x86_64-x64-vc14-release:sip_msg.obj
 0001:0000c070       init_status_phrase         000000014000d070 f   pjsip-core-x86_64-x64-vc14-release:sip_msg.obj
 0001:0000dca0       print_media_type           000000014000eca0 f   pjsip-core-x86_64-x64-vc14-release:sip_msg.obj
 0001:0000dd40       mod_on_tx_msg              000000014000ed40 f   pjsip-core-x86_64-x64-vc14-release:sip_transport.obj
 0001:0000dd50       destroy_transport          000000014000ed50 f   pjsip-core-x86_64-x64-vc14-release:sip_transport.obj
 0001:0000df00       get_msg_info               000000014000ef00 f   pjsip-core-x86_64-x64-vc14-release:sip_transport.obj
 0001:0000fc90       tp_state_callback          0000000140010c90 f   pjsip-core-x86_64-x64-vc14-release:sip_transport.obj
 0001:0000fd40       transport_idle_callback    0000000140010d40 f   pjsip-core-x86_64-x64-vc14-release:sip_transport.obj
 0001:0000fdc0       transport_send_callback    0000000140010dc0 f   pjsip-core-x86_64-x64-vc14-release:sip_transport.obj
 0001:0000fe10       tx_data_destroy            0000000140010e10 f   pjsip-core-x86_64-x64-vc14-release:sip_transport.obj
 0001:0000fee0       cmp_mod_name               0000000140010ee0 f   pjsip-core-x86_64-x64-vc14-release:sip_endpoint.obj
 0001:0000fef0       endpt_on_rx_msg            0000000140010ef0 f   pjsip-core-x86_64-x64-vc14-release:sip_endpoint.obj
 0001:000101d0       endpt_on_tx_msg            00000001400111d0 f   pjsip-core-x86_64-x64-vc14-release:sip_endpoint.obj
 0001:00010fd0       pool_callback              0000000140011fd0 f   pjsip-core-x86_64-x64-vc14-release:sip_endpoint.obj
 0001:00010ff0       unload_module              0000000140011ff0 f   pjsip-core-x86_64-x64-vc14-release:sip_endpoint.obj
 0001:00011060       init_request_throw         0000000140012060 f   pjsip-core-x86_64-x64-vc14-release:sip_util.obj
 0001:00012c60       send_response_resolver_cb  0000000140013c60 f   pjsip-core-x86_64-x64-vc14-release:sip_util.obj
 0001:00012e10       send_response_transport_cb 0000000140013e10 f   pjsip-core-x86_64-x64-vc14-release:sip_util.obj
 0001:00012e60       stateless_send_resolver_callback 0000000140013e60 f   pjsip-core-x86_64-x64-vc14-release:sip_util.obj
 0001:000130e0       stateless_send_transport_cb 00000001400140e0 f   pjsip-core-x86_64-x64-vc14-release:sip_util.obj
 0001:00013490       create_socket              0000000140014490 f   pjsip-core-x86_64-x64-vc14-release:sip_transport_udp.obj
 0001:00013560       get_published_name         0000000140014560 f   pjsip-core-x86_64-x64-vc14-release:sip_transport_udp.obj
 0001:00013b20       register_to_ioqueue        0000000140014b20 f   pjsip-core-x86_64-x64-vc14-release:sip_transport_udp.obj
 0001:00013c00       start_async_read           0000000140014c00 f   pjsip-core-x86_64-x64-vc14-release:sip_transport_udp.obj
 0001:00013fc0       transport_attach           0000000140014fc0 f   pjsip-core-x86_64-x64-vc14-release:sip_transport_udp.obj
 0001:000143a0       udp_destroy                00000001400153a0 f   pjsip-core-x86_64-x64-vc14-release:sip_transport_udp.obj
 0001:00014510       udp_on_destroy             0000000140015510 f   pjsip-core-x86_64-x64-vc14-release:sip_transport_udp.obj
 0001:000145b0       udp_on_read_complete       00000001400155b0 f   pjsip-core-x86_64-x64-vc14-release:sip_transport_udp.obj
 0001:00014890       udp_on_write_complete      0000000140015890 f   pjsip-core-x86_64-x64-vc14-release:sip_transport_udp.obj
 0001:00014960       udp_send_msg               0000000140015960 f   pjsip-core-x86_64-x64-vc14-release:sip_transport_udp.obj
 0001:00014ac0       udp_set_pub_name           0000000140015ac0 f   pjsip-core-x86_64-x64-vc14-release:sip_transport_udp.obj
 0001:00014bd0       udp_shutdown               0000000140015bd0 f   pjsip-core-x86_64-x64-vc14-release:sip_transport_udp.obj
 0001:00014be0       mod_tsx_layer_stop         0000000140015be0 f   pjsip-core-x86_64-x64-vc14-release:sip_transaction.obj
 0001:00014d80       mod_tsx_layer_unload       0000000140015d80 f   pjsip-core-x86_64-x64-vc14-release:sip_transaction.obj
 0001:00014e20       mod_tsx_layer_on_rx_request 0000000140015e20 f   pjsip-core-x86_64-x64-vc14-release:sip_transaction.obj
 0001:00014fb0       mod_tsx_layer_on_rx_response 0000000140015fb0 f   pjsip-core-x86_64-x64-vc14-release:sip_transaction.obj
 0001:00015140       tsx_on_state_null          0000000140016140 f   pjsip-core-x86_64-x64-vc14-release:sip_transaction.obj
 0001:00015440       tsx_on_state_calling       0000000140016440 f   pjsip-core-x86_64-x64-vc14-release:sip_transaction.obj
 0001:00015640       tsx_on_state_trying        0000000140016640 f   pjsip-core-x86_64-x64-vc14-release:sip_transaction.obj
 0001:00015760       tsx_on_state_proceeding_uas 0000000140016760 f   pjsip-core-x86_64-x64-vc14-release:sip_transaction.obj
 0001:00015e60       tsx_on_state_proceeding_uac 0000000140016e60 f   pjsip-core-x86_64-x64-vc14-release:sip_transaction.obj
 0001:000163f0       tsx_on_state_completed_uas 00000001400173f0 f   pjsip-core-x86_64-x64-vc14-release:sip_transaction.obj
 0001:000167a0       tsx_on_state_completed_uac 00000001400177a0 f   pjsip-core-x86_64-x64-vc14-release:sip_transaction.obj
 0001:00016890       tsx_on_state_confirmed     0000000140017890 f   pjsip-core-x86_64-x64-vc14-release:sip_transaction.obj
 0001:00016900       tsx_on_state_terminated    0000000140017900 f   pjsip-core-x86_64-x64-vc14-release:sip_transaction.obj
 0001:00016940       tsx_on_state_destroyed     0000000140017940 f   pjsip-core-x86_64-x64-vc14-release:sip_transaction.obj
 0001:00016950       create_tsx_key_2543        0000000140017950 f   pjsip-core-x86_64-x64-vc14-release:sip_transaction.obj
 0001:00016b40       mod_tsx_layer_register_tsx 0000000140017b40 f   pjsip-core-x86_64-x64-vc14-release:sip_transaction.obj
 0001:00016bf0       mod_tsx_layer_unregister_tsx 0000000140017bf0 f   pjsip-core-x86_64-x64-vc14-release:sip_transaction.obj
 0001:00017a50       send_msg_callback          0000000140018a50 f   pjsip-core-x86_64-x64-vc14-release:sip_transaction.obj
 0001:00017f60       transport_callback         0000000140018f60 f   pjsip-core-x86_64-x64-vc14-release:sip_transaction.obj
 0001:00018060       tsx_create                 0000000140019060 f   pjsip-core-x86_64-x64-vc14-release:sip_transaction.obj
 0001:000181f0       tsx_layer_destroy          00000001400191f0 f   pjsip-core-x86_64-x64-vc14-release:sip_transaction.obj
 0001:00018250       tsx_on_destroy             0000000140019250 f   pjsip-core-x86_64-x64-vc14-release:sip_transaction.obj
 0001:00018290       tsx_resched_retransmission 0000000140019290 f   pjsip-core-x86_64-x64-vc14-release:sip_transaction.obj
 0001:00018370       tsx_retransmit             0000000140019370 f   pjsip-core-x86_64-x64-vc14-release:sip_transaction.obj
 0001:00018430       tsx_send_msg               0000000140019430 f   pjsip-core-x86_64-x64-vc14-release:sip_transaction.obj
 0001:00018730       tsx_set_state              0000000140019730 f   pjsip-core-x86_64-x64-vc14-release:sip_transaction.obj
 0001:00018990       tsx_shutdown               0000000140019990 f   pjsip-core-x86_64-x64-vc14-release:sip_transaction.obj
 0001:00018a90       tsx_timer_callback         0000000140019a90 f   pjsip-core-x86_64-x64-vc14-release:sip_transaction.obj
 0001:00018cd0       tsx_tp_state_callback      0000000140019cd0 f   pjsip-core-x86_64-x64-vc14-release:sip_transaction.obj
 0001:00018d80       tsx_update_transport       0000000140019d80 f   pjsip-core-x86_64-x64-vc14-release:sip_transaction.obj
 0001:00018ea0       mod_ua_load                0000000140019ea0 f   pjsip-core-x86_64-x64-vc14-release:sip_ua_layer.obj
 0001:00018f50       mod_ua_unload              0000000140019f50 f   pjsip-core-x86_64-x64-vc14-release:sip_ua_layer.obj
 0001:00018f90       mod_ua_on_rx_request       0000000140019f90 f   pjsip-core-x86_64-x64-vc14-release:sip_ua_layer.obj
 0001:00019250       mod_ua_on_rx_response      000000014001a250 f   pjsip-core-x86_64-x64-vc14-release:sip_ua_layer.obj
 0001:000194f0       mod_ua_on_tsx_state        000000014001a4f0 f   pjsip-core-x86_64-x64-vc14-release:sip_ua_layer.obj
 0001:00019520       alloc_dlgset_node          000000014001a520 f   pjsip-core-x86_64-x64-vc14-release:sip_ua_layer.obj
 0001:00019800       create_dialog              000000014001a800 f   pjsip-core-x86_64-x64-vc14-release:sip_dialog.obj
 0001:00019f40       destroy_dialog             000000014001af40 f   pjsip-core-x86_64-x64-vc14-release:sip_dialog.obj
 0001:00019fb0       dlg_beautify_response      000000014001afb0 f   pjsip-core-x86_64-x64-vc14-release:sip_dialog.obj
 0001:0001a190       dlg_on_destroy             000000014001b190 f   pjsip-core-x86_64-x64-vc14-release:sip_dialog.obj
 0001:0001a1d0       dlg_update_routeset        000000014001b1d0 f   pjsip-core-x86_64-x64-vc14-release:sip_dialog.obj
 0001:0001c770       send_ack_callback          000000014001d770 f   pjsip-core-x86_64-x64-vc14-release:sip_dialog.obj
 0001:0001c7c0       unregister_and_destroy_dialog 000000014001d7c0 f   pjsip-core-x86_64-x64-vc14-release:sip_dialog.obj
 0001:0001c820       auth_respond               000000014001d820 f   pjsip-core-x86_64-x64-vc14-release:sip_auth_client.obj
 0001:0001cb30       digest2str                 000000014001db30 f   pjsip-core-x86_64-x64-vc14-release:sip_auth_client.obj
 0001:0001d690       process_auth               000000014001e690 f   pjsip-core-x86_64-x64-vc14-release:sip_auth_client.obj
 0001:0001d960       respond_digest             000000014001e960 f   pjsip-core-x86_64-x64-vc14-release:sip_auth_client.obj
 0001:0001dd50       find_handler               000000014001ed50 f   pjsip-core-x86_64-x64-vc14-release:sip_parser.obj
 0001:0001dde0       find_handler_imp           000000014001ede0 f   pjsip-core-x86_64-x64-vc14-release:sip_parser.obj
 0001:0001dea0       find_uri_handler           000000014001eea0 f   pjsip-core-x86_64-x64-vc14-release:sip_parser.obj
 0001:0001df30       init_parser                000000014001ef30 f   pjsip-core-x86_64-x64-vc14-release:sip_parser.obj
 0001:0001e720       int_parse_contact_param    000000014001f720 f   pjsip-core-x86_64-x64-vc14-release:sip_parser.obj
 0001:0001eaa0       int_parse_msg              000000014001faa0 f   pjsip-core-x86_64-x64-vc14-release:sip_parser.obj
 0001:0001ef80       int_parse_name_addr        000000014001ff80 f   pjsip-core-x86_64-x64-vc14-release:sip_parser.obj
 0001:0001f090       int_parse_other_uri        0000000140020090 f   pjsip-core-x86_64-x64-vc14-release:sip_parser.obj
 0001:0001f110       int_parse_param            0000000140020110 f   pjsip-core-x86_64-x64-vc14-release:sip_parser.obj
 0001:0001f210       int_parse_sip_url          0000000140020210 f   pjsip-core-x86_64-x64-vc14-release:sip_parser.obj
 0001:0001f7f0       int_parse_status_line      00000001400207f0 f   pjsip-core-x86_64-x64-vc14-release:sip_parser.obj
 0001:0001f8e0       int_parse_uri              00000001400208e0 f   pjsip-core-x86_64-x64-vc14-release:sip_parser.obj
 0001:0001f9c0       int_parse_uri_or_name_addr 00000001400209c0 f   pjsip-core-x86_64-x64-vc14-release:sip_parser.obj
 0001:0001fa90       int_parse_via_param        0000000140020a90 f   pjsip-core-x86_64-x64-vc14-release:sip_parser.obj
 0001:0001fdb0       int_register_parser        0000000140020db0 f   pjsip-core-x86_64-x64-vc14-release:sip_parser.obj
 0001:0001ffb0       on_str_parse_error         0000000140020fb0 f   pjsip-core-x86_64-x64-vc14-release:sip_parser.obj
 0001:00020050       parse_pgp_challenge        0000000140021050 f   pjsip-core-x86_64-x64-vc14-release:sip_auth_parser.obj
 0001:00020050       parse_pgp_credential       0000000140021050 f   pjsip-core-x86_64-x64-vc14-release:sip_auth_parser.obj
 0001:00020050       on_syntax_error            0000000140021050 f   pjsip-core-x86_64-x64-vc14-release:sip_parser.obj
 0001:00020060       parse_generic_array_hdr    0000000140021060 f   pjsip-core-x86_64-x64-vc14-release:sip_parser.obj
 0001:00020130       parse_hdr_accept           0000000140021130 f   pjsip-core-x86_64-x64-vc14-release:sip_parser.obj
 0001:00020170       parse_hdr_allow            0000000140021170 f   pjsip-core-x86_64-x64-vc14-release:sip_parser.obj
 0001:000201b0       parse_hdr_call_id          00000001400211b0 f   pjsip-core-x86_64-x64-vc14-release:sip_parser.obj
 0001:00020220       parse_hdr_contact          0000000140021220 f   pjsip-core-x86_64-x64-vc14-release:sip_parser.obj
 0001:000202f0       parse_hdr_content_len      00000001400212f0 f   pjsip-core-x86_64-x64-vc14-release:sip_parser.obj
 0001:00020370       parse_hdr_content_type     0000000140021370 f   pjsip-core-x86_64-x64-vc14-release:sip_parser.obj
 0001:00020470       parse_hdr_cseq             0000000140021470 f   pjsip-core-x86_64-x64-vc14-release:sip_parser.obj
 0001:00020540       parse_hdr_expires          0000000140021540 f   pjsip-core-x86_64-x64-vc14-release:sip_parser.obj
 0001:000205c0       parse_hdr_from             00000001400215c0 f   pjsip-core-x86_64-x64-vc14-release:sip_parser.obj
 0001:00020610       parse_hdr_fromto           0000000140021610 f   pjsip-core-x86_64-x64-vc14-release:sip_parser.obj
 0001:000207a0       parse_hdr_generic_string   00000001400217a0 f   pjsip-core-x86_64-x64-vc14-release:sip_parser.obj
 0001:00020920       parse_hdr_max_forwards     0000000140021920 f   pjsip-core-x86_64-x64-vc14-release:sip_parser.obj
 0001:000209b0       parse_hdr_min_expires      00000001400219b0 f   pjsip-core-x86_64-x64-vc14-release:sip_parser.obj
 0001:00020a30       parse_hdr_require          0000000140021a30 f   pjsip-core-x86_64-x64-vc14-release:sip_parser.obj
 0001:00020ad0       parse_hdr_retry_after      0000000140021ad0 f   pjsip-core-x86_64-x64-vc14-release:sip_parser.obj
 0001:00020c40       parse_hdr_route            0000000140021c40 f   pjsip-core-x86_64-x64-vc14-release:sip_parser.obj
 0001:00020d00       parse_hdr_rr               0000000140021d00 f   pjsip-core-x86_64-x64-vc14-release:sip_parser.obj
 0001:00020dc0       parse_hdr_rr_route         0000000140021dc0 f   pjsip-core-x86_64-x64-vc14-release:sip_parser.obj
 0001:00020e60       parse_hdr_supported        0000000140021e60 f   pjsip-core-x86_64-x64-vc14-release:sip_parser.obj
 0001:00020f00       parse_hdr_to               0000000140021f00 f   pjsip-core-x86_64-x64-vc14-release:sip_parser.obj
 0001:00020f50       parse_hdr_unsupported      0000000140021f50 f   pjsip-core-x86_64-x64-vc14-release:sip_parser.obj
 0001:00020f90       parse_hdr_via              0000000140021f90 f   pjsip-core-x86_64-x64-vc14-release:sip_parser.obj
 0001:00021180       parse_sip_version          0000000140022180 f   pjsip-core-x86_64-x64-vc14-release:sip_parser.obj
 0001:00021cf0       multipart_clone_data       0000000140022cf0 f   pjsip-core-x86_64-x64-vc14-release:sip_multipart.obj
 0001:00021e00       multipart_print_body       0000000140022e00 f   pjsip-core-x86_64-x64-vc14-release:sip_multipart.obj
 0001:000220d0       parse_multipart_part       00000001400230d0 f   pjsip-core-x86_64-x64-vc14-release:sip_multipart.obj
 0001:000227c0       other_uri_get_scheme       00000001400237c0 f   pjsip-core-x86_64-x64-vc14-release:sip_uri.obj
 0001:000227d0       tel_uri_get_uri            00000001400237d0 f   pjsip-core-x86_64-x64-vc14-release:sip_tel_uri.obj
 0001:000227d0       other_uri_get_uri          00000001400237d0 f   pjsip-core-x86_64-x64-vc14-release:sip_uri.obj
 0001:000227d0       pjsip_get_uri              00000001400237d0 f   pjsip-core-x86_64-x64-vc14-release:sip_uri.obj
 0001:000227e0       other_uri_print            00000001400237e0 f   pjsip-core-x86_64-x64-vc14-release:sip_uri.obj
 0001:00022880       other_uri_cmp              0000000140023880 f   pjsip-core-x86_64-x64-vc14-release:sip_uri.obj
 0001:000228f0       other_uri_clone            00000001400238f0 f   pjsip-core-x86_64-x64-vc14-release:sip_uri.obj
 0001:00022960       pjsip_url_get_scheme       0000000140023960 f   pjsip-core-x86_64-x64-vc14-release:sip_uri.obj
 0001:00022970       pjsips_url_get_scheme      0000000140023970 f   pjsip-core-x86_64-x64-vc14-release:sip_uri.obj
 0001:00022980       pjsip_name_addr_get_scheme 0000000140023980 f   pjsip-core-x86_64-x64-vc14-release:sip_uri.obj
 0001:00022990       pjsip_name_addr_get_uri    0000000140023990 f   pjsip-core-x86_64-x64-vc14-release:sip_uri.obj
 0001:000229a0       pjsip_name_addr_clone      00000001400239a0 f   pjsip-core-x86_64-x64-vc14-release:sip_uri.obj
 0001:00022a30       pjsip_name_addr_print      0000000140023a30 f   pjsip-core-x86_64-x64-vc14-release:sip_uri.obj
 0001:00022b70       pjsip_name_addr_compare    0000000140023b70 f   pjsip-core-x86_64-x64-vc14-release:sip_uri.obj
 0001:00022be0       pjsip_url_print            0000000140023be0 f   pjsip-core-x86_64-x64-vc14-release:sip_uri.obj
 0001:00023150       pjsip_url_compare          0000000140024150 f   pjsip-core-x86_64-x64-vc14-release:sip_uri.obj
 0001:000233b0       pjsip_url_clone            00000001400243b0 f   pjsip-core-x86_64-x64-vc14-release:sip_uri.obj
 0001:000239e0       dns_a_callback             00000001400249e0 f   pjsip-core-x86_64-x64-vc14-release:sip_resolve.obj
 0001:00023b70       dns_aaaa_callback          0000000140024b70 f   pjsip-core-x86_64-x64-vc14-release:sip_resolve.obj
 0001:00024430       srv_resolver_cb            0000000140025430 f   pjsip-core-x86_64-x64-vc14-release:sip_resolve.obj
 0001:00024780       tel_uri_get_scheme         0000000140025780 f   pjsip-core-x86_64-x64-vc14-release:sip_tel_uri.obj
 0001:000247a0       tel_uri_print              00000001400257a0 f   pjsip-core-x86_64-x64-vc14-release:sip_tel_uri.obj
 0001:000249b0       tel_uri_cmp                00000001400259b0 f   pjsip-core-x86_64-x64-vc14-release:sip_tel_uri.obj
 0001:00024af0       tel_uri_clone              0000000140025af0 f   pjsip-core-x86_64-x64-vc14-release:sip_tel_uri.obj
 0001:00024f00       tel_uri_parse              0000000140025f00 f   pjsip-core-x86_64-x64-vc14-release:sip_tel_uri.obj
 0001:00025140       mod_util_on_tsx_state      0000000140026140 f   pjsip-core-x86_64-x64-vc14-release:sip_util_statefull.obj
 0001:00025190       pjsip_authorization_hdr_clone 0000000140026190 f   pjsip-core-x86_64-x64-vc14-release:sip_auth_msg.obj
 0001:00025390       pjsip_authorization_hdr_shallow_clone 0000000140026390 f   pjsip-core-x86_64-x64-vc14-release:sip_auth_msg.obj
 0001:00025460       pjsip_authorization_hdr_print 0000000140026460 f   pjsip-core-x86_64-x64-vc14-release:sip_auth_msg.obj
 0001:00025580       pjsip_www_authenticate_hdr_print 0000000140026580 f   pjsip-core-x86_64-x64-vc14-release:sip_auth_msg.obj
 0001:00025670       pjsip_www_authenticate_hdr_clone 0000000140026670 f   pjsip-core-x86_64-x64-vc14-release:sip_auth_msg.obj
 0001:00025820       pjsip_www_authenticate_hdr_shallow_clone 0000000140026820 f   pjsip-core-x86_64-x64-vc14-release:sip_auth_msg.obj
 0001:00025af0       print_digest_challenge     0000000140026af0 f   pjsip-core-x86_64-x64-vc14-release:sip_auth_msg.obj
 0001:00025ea0       print_digest_credential    0000000140026ea0 f   pjsip-core-x86_64-x64-vc14-release:sip_auth_msg.obj
 0001:000263e0       print_oauth_credential     00000001400273e0 f   pjsip-core-x86_64-x64-vc14-release:sip_auth_msg.obj
 0001:000266a0       int_parse_hdr_authenticate 00000001400276a0 f   pjsip-core-x86_64-x64-vc14-release:sip_auth_parser.obj
 0001:00026930       int_parse_hdr_authorization 0000000140027930 f   pjsip-core-x86_64-x64-vc14-release:sip_auth_parser.obj
 0001:00026bd0       parse_hdr_authorization    0000000140027bd0 f   pjsip-core-x86_64-x64-vc14-release:sip_auth_parser.obj
 0001:00026c10       parse_hdr_proxy_authenticate 0000000140027c10 f   pjsip-core-x86_64-x64-vc14-release:sip_auth_parser.obj
 0001:00026c50       parse_hdr_proxy_authorization 0000000140027c50 f   pjsip-core-x86_64-x64-vc14-release:sip_auth_parser.obj
 0001:00026c90       parse_hdr_www_authenticate 0000000140027c90 f   pjsip-core-x86_64-x64-vc14-release:sip_auth_parser.obj
 0001:00027000       factory_init               0000000140028000 f   pjmedia-audiodev-x86_64-x64-vc14-release:wmme_dev.obj
 0001:00027040       factory_destroy            0000000140028040 f   pjmedia-audiodev-x86_64-x64-vc14-release:wmme_dev.obj
 0001:00027080       factory_refresh            0000000140028080 f   pjmedia-audiodev-x86_64-x64-vc14-release:wmme_dev.obj
 0001:000276d0       factory_get_dev_count      00000001400286d0 f   pjmedia-audiodev-x86_64-x64-vc14-release:wmme_dev.obj
 0001:000276e0       factory_get_dev_info       00000001400286e0 f   pjmedia-audiodev-x86_64-x64-vc14-release:wmme_dev.obj
 0001:000277a0       factory_default_param      00000001400287a0 f   pjmedia-audiodev-x86_64-x64-vc14-release:wmme_dev.obj
 0001:00027880       factory_create_stream      0000000140028880 f   pjmedia-audiodev-x86_64-x64-vc14-release:wmme_dev.obj
 0001:00027bc0       stream_get_param           0000000140028bc0 f   pjmedia-audiodev-x86_64-x64-vc14-release:wmme_dev.obj
 0001:00027c90       stream_get_cap             0000000140028c90 f   pjmedia-audiodev-x86_64-x64-vc14-release:wmme_dev.obj
 0001:00027d40       stream_set_cap             0000000140028d40 f   pjmedia-audiodev-x86_64-x64-vc14-release:wmme_dev.obj
 0001:00027df0       stream_start               0000000140028df0 f   pjmedia-audiodev-x86_64-x64-vc14-release:wmme_dev.obj
 0001:00027e80       stream_stop                0000000140028e80 f   pjmedia-audiodev-x86_64-x64-vc14-release:wmme_dev.obj
 0001:00027f20       stream_destroy             0000000140028f20 f   pjmedia-audiodev-x86_64-x64-vc14-release:wmme_dev.obj
 0001:00028120       init_capture_stream        0000000140029120 f   pjmedia-audiodev-x86_64-x64-vc14-release:wmme_dev.obj
 0001:000283a0       init_player_stream         00000001400293a0 f   pjmedia-audiodev-x86_64-x64-vc14-release:wmme_dev.obj
 0001:00028630       init_waveformatex          0000000140029630 f   pjmedia-audiodev-x86_64-x64-vc14-release:wmme_dev.obj
 0001:00028770       wmme_dev_thread            0000000140029770 f   pjmedia-audiodev-x86_64-x64-vc14-release:wmme_dev.obj
 0001:00028de0       event_queue_add_event      0000000140029de0 f   pjmedia-x86_64-x64-vc14-release:event.obj
 0001:00028f00       event_worker_thread        0000000140029f00 f   pjmedia-x86_64-x64-vc14-release:event.obj
 0001:0002a360       worker_proc                000000014002b360 f   pjmedia-x86_64-x64-vc14-release:endpoint.obj
 0001:0002a480       g711_test_alloc            000000014002b480 f   pjmedia-x86_64-x64-vc14-release:g711.obj
 0001:0002a490       g711_default_attr          000000014002b490 f   pjmedia-x86_64-x64-vc14-release:g711.obj
 0001:0002a500       g711_enum_codecs           000000014002b500 f   pjmedia-x86_64-x64-vc14-release:g711.obj
 0001:0002a5b0       g711_alloc_codec           000000014002b5b0 f   pjmedia-x86_64-x64-vc14-release:g711.obj
 0001:0002a710       g711_dealloc_codec         000000014002b710 f   pjmedia-x86_64-x64-vc14-release:g711.obj
 0001:0002a7f0       g711_open                  000000014002b7f0 f   pjmedia-x86_64-x64-vc14-release:g711.obj
 0001:0002a820       g711_modify                000000014002b820 f   pjmedia-x86_64-x64-vc14-release:g711.obj
 0001:0002a850       g711_parse                 000000014002b850 f   pjmedia-x86_64-x64-vc14-release:g711.obj
 0001:0002a8e0       g711_encode                000000014002b8e0 f   pjmedia-x86_64-x64-vc14-release:g711.obj
 0001:0002aa50       g711_decode                000000014002ba50 f   pjmedia-x86_64-x64-vc14-release:g711.obj
 0001:0002ab50       g711_recover               000000014002bb50 f   pjmedia-x86_64-x64-vc14-release:g711.obj
 0001:0002acc0       apply_answer_symmetric_pt  000000014002bcc0 f   pjmedia-x86_64-x64-vc14-release:sdp_neg.obj
 0001:0002af60       create_answer              000000014002bf60 f   pjmedia-x86_64-x64-vc14-release:sdp_neg.obj
 0001:0002b180       custom_fmt_match           000000014002c180 f   pjmedia-x86_64-x64-vc14-release:sdp_neg.obj
 0001:0002b230       match_offer                000000014002c230 f   pjmedia-x86_64-x64-vc14-release:sdp_neg.obj
 0001:0002c6c0       process_m_answer           000000014002d6c0 f   pjmedia-x86_64-x64-vc14-release:sdp_neg.obj
 0001:0002cbd0       sdp_media_clone_deactivate 000000014002dbd0 f   pjmedia-x86_64-x64-vc14-release:sdp_neg.obj
 0001:0002ccd0       update_media_direction     000000014002dcd0 f   pjmedia-x86_64-x64-vc14-release:sdp_neg.obj
 0001:0002d4e0       play_cb                    000000014002e4e0 f   pjmedia-x86_64-x64-vc14-release:sound_port.obj
 0001:0002d620       play_cb_ext                000000014002e620 f   pjmedia-x86_64-x64-vc14-release:sound_port.obj
 0001:0002d680       rec_cb                     000000014002e680 f   pjmedia-x86_64-x64-vc14-release:sound_port.obj
 0001:0002d710       rec_cb_ext                 000000014002e710 f   pjmedia-x86_64-x64-vc14-release:sound_port.obj
 0001:0002d760       start_sound_device         000000014002e760 f   pjmedia-x86_64-x64-vc14-release:sound_port.obj
 0001:0002d980       get_audio_codec_info_param 000000014002e980 f   pjmedia-x86_64-x64-vc14-release:stream_info.obj
 0001:0002e710       check_tx_rtcp              000000014002f710 f   pjmedia-x86_64-x64-vc14-release:stream.obj
 0001:0002e770       create_channel             000000014002f770 f   pjmedia-x86_64-x64-vc14-release:stream.obj
 0001:0002e8d0       get_frame                  000000014002f8d0 f   pjmedia-x86_64-x64-vc14-release:stream.obj
 0001:0002ef50       get_frame_ext              000000014002ff50 f   pjmedia-x86_64-x64-vc14-release:stream.obj
 0001:0002f2b0       on_rx_rtcp                 00000001400302b0 f   pjmedia-x86_64-x64-vc14-release:stream.obj
 0001:0002f330       on_rx_rtp                  0000000140030330 f   pjmedia-x86_64-x64-vc14-release:stream.obj
 0001:00030e30       publish_tp_event           0000000140031e30 f   pjmedia-x86_64-x64-vc14-release:stream.obj
 0001:00030ed0       put_frame                  0000000140031ed0 f   pjmedia-x86_64-x64-vc14-release:stream.obj
 0001:00031140       put_frame_imp              0000000140032140 f   pjmedia-x86_64-x64-vc14-release:stream.obj
 0001:00031630       send_rtcp                  0000000140032630 f   pjmedia-x86_64-x64-vc14-release:stream.obj
 0001:00031890       stream_event_cb            0000000140032890 f   pjmedia-x86_64-x64-vc14-release:stream.obj
 0001:00031900       transport_get_info         0000000140032900 f   pjmedia-x86_64-x64-vc14-release:transport_udp.obj
 0001:000319f0       transport_attach           00000001400329f0 f   pjmedia-x86_64-x64-vc14-release:transport_udp.obj
 0001:00031a30       transport_attach2          0000000140032a30 f   pjmedia-x86_64-x64-vc14-release:transport_udp.obj
 0001:00031a70       transport_detach           0000000140032a70 f   pjmedia-x86_64-x64-vc14-release:transport_udp.obj
 0001:00031b40       transport_send_rtp         0000000140032b40 f   pjmedia-x86_64-x64-vc14-release:transport_udp.obj
 0001:00031cb0       transport_send_rtcp        0000000140032cb0 f   pjmedia-x86_64-x64-vc14-release:transport_udp.obj
 0001:00031d30       transport_send_rtcp2       0000000140032d30 f   pjmedia-x86_64-x64-vc14-release:transport_udp.obj
 0001:00031db0       transport_media_create     0000000140032db0 f   pjmedia-x86_64-x64-vc14-release:transport_udp.obj
 0001:00031de0       transport_encode_sdp       0000000140032de0 f   pjmedia-x86_64-x64-vc14-release:transport_udp.obj
 0001:00031f90       transport_media_start      0000000140032f90 f   pjmedia-x86_64-x64-vc14-release:transport_udp.obj
 0001:00032070       transport_media_stop       0000000140033070 f   pjmedia-x86_64-x64-vc14-release:transport_udp.obj
 0001:000320e0       transport_simulate_lost    00000001400330e0 f   pjmedia-x86_64-x64-vc14-release:transport_udp.obj
 0001:00032110       transport_destroy          0000000140033110 f   pjmedia-x86_64-x64-vc14-release:transport_udp.obj
 0001:000321b0       call_rtp_cb                00000001400331b0 f   pjmedia-x86_64-x64-vc14-release:transport_udp.obj
 0001:00032240       on_rtp_data_sent           0000000140033240 f   pjmedia-x86_64-x64-vc14-release:transport_udp.obj
 0001:000322a0       on_rx_rtcp                 00000001400332a0 f   pjmedia-x86_64-x64-vc14-release:transport_udp.obj
 0001:00032550       on_rx_rtp                  0000000140033550 f   pjmedia-x86_64-x64-vc14-release:transport_udp.obj
 0001:00032ec0       tp_attach                  0000000140033ec0 f   pjmedia-x86_64-x64-vc14-release:transport_udp.obj
 0001:00033100       transport_restart          0000000140034100 f   pjmedia-x86_64-x64-vc14-release:transport_udp.obj
 0001:000333a0       apply_media_direction      00000001400343a0 f   pjmedia-x86_64-x64-vc14-release:sdp.obj
 0001:000335e0       init_sdp_parser            00000001400345e0 f   pjmedia-x86_64-x64-vc14-release:sdp.obj
 0001:00033680       on_scanner_error           0000000140034680 f   pjmedia-x86_64-x64-vc14-release:sdp.obj
 0001:000351e4       $LN187                     00000001400361e4     pjmedia-x86_64-x64-vc14-release:sdp.obj
 0001:0003520c       $LN186                     000000014003620c     pjmedia-x86_64-x64-vc14-release:sdp.obj
 0001:00035b60       print_attr                 0000000140036b60 f   pjmedia-x86_64-x64-vc14-release:sdp.obj
 0001:00035c00       print_bandw                0000000140036c00 f   pjmedia-x86_64-x64-vc14-release:sdp.obj
 0001:00035c90       print_connection_info      0000000140036c90 f   pjmedia-x86_64-x64-vc14-release:sdp.obj
 0001:00035cf0       print_media_desc           0000000140036cf0 f   pjmedia-x86_64-x64-vc14-release:sdp.obj
 0001:00035f60       print_session              0000000140036f60 f   pjmedia-x86_64-x64-vc14-release:sdp.obj
 0001:000361d0       validate_sdp_conn          00000001400371d0 f   pjmedia-x86_64-x64-vc14-release:sdp.obj
 0001:00036250       lookup_dev                 0000000140037250 f   pjmedia-x86_64-x64-vc14-release:audiodev.obj
 0001:00036350       make_global_index          0000000140037350 f   pjmedia-x86_64-x64-vc14-release:audiodev.obj
 0001:00037520       sort_codecs                0000000140038520 f   pjmedia-x86_64-x64-vc14-release:codec.obj
 0001:00037800       plc_wsola_create           0000000140038800 f   pjmedia-x86_64-x64-vc14-release:plc_common.obj
 0001:00037880       plc_wsola_save             0000000140038880 f   pjmedia-x86_64-x64-vc14-release:plc_common.obj
 0001:000378b0       plc_wsola_generate         00000001400388b0 f   pjmedia-x86_64-x64-vc14-release:plc_common.obj
 0001:000383e0       get_codec_info_from_sdp    00000001400393e0 f   pjmedia-x86_64-x64-vc14-release:rtcp_fb.obj
 0001:00039450       parse_rtcp_report          000000014003a450 f   pjmedia-x86_64-x64-vc14-release:rtcp.obj
 0001:000396a0       pj_math_stat_update        000000014003a6a0 f   pjmedia-x86_64-x64-vc14-release:jbuf.obj
 0001:000396a0       pj_math_stat_update        000000014003a6a0 f   pjmedia-x86_64-x64-vc14-release:rtcp.obj
 0001:0003a3bc       $LN77                      000000014003b3bc     pjmedia-x86_64-x64-vc14-release:rtcp.obj
 0001:0003a3dc       $LN76                      000000014003b3dc     pjmedia-x86_64-x64-vc14-release:rtcp.obj
 0001:0003a5e0       jb_framelist_put_at        000000014003b5e0 f   pjmedia-x86_64-x64-vc14-release:jbuf.obj
 0001:0003a770       jb_framelist_remove_head   000000014003b770 f   pjmedia-x86_64-x64-vc14-release:jbuf.obj
 0001:0003a890       jbuf_discard_progressive   000000014003b890 f   pjmedia-x86_64-x64-vc14-release:jbuf.obj
 0001:0003a9a0       jbuf_update                000000014003b9a0 f   pjmedia-x86_64-x64-vc14-release:jbuf.obj
 0001:0003ab70       pj_math_stat_get_stddev    000000014003bb70 f   pjmedia-x86_64-x64-vc14-release:jbuf.obj
 0001:0003b540       transport_get_info         000000014003c540 f   pjmedia-x86_64-x64-vc14-release:transport_srtp.obj
 0001:0003b700       transport_detach           000000014003c700 f   pjmedia-x86_64-x64-vc14-release:transport_srtp.obj
 0001:0003b770       transport_send_rtp         000000014003c770 f   pjmedia-x86_64-x64-vc14-release:transport_srtp.obj
 0001:0003b850       transport_send_rtcp        000000014003c850 f   pjmedia-x86_64-x64-vc14-release:transport_srtp.obj
 0001:0003b950       transport_send_rtcp2       000000014003c950 f   pjmedia-x86_64-x64-vc14-release:transport_srtp.obj
 0001:0003ba70       transport_media_create     000000014003ca70 f   pjmedia-x86_64-x64-vc14-release:transport_srtp.obj
 0001:0003bc50       transport_encode_sdp       000000014003cc50 f   pjmedia-x86_64-x64-vc14-release:transport_srtp.obj
 0001:0003be80       transport_media_start      000000014003ce80 f   pjmedia-x86_64-x64-vc14-release:transport_srtp.obj
 0001:0003c150       transport_media_stop       000000014003d150 f   pjmedia-x86_64-x64-vc14-release:transport_srtp.obj
 0001:0003c300       transport_simulate_lost    000000014003d300 f   pjmedia-x86_64-x64-vc14-release:transport_srtp.obj
 0001:0003c320       transport_destroy          000000014003d320 f   pjmedia-x86_64-x64-vc14-release:transport_srtp.obj
 0001:0003c3d0       transport_attach2          000000014003d3d0 f   pjmedia-x86_64-x64-vc14-release:transport_srtp.obj
 0001:0003c5a0       sdes_media_create          000000014003d5a0 f   pjmedia-x86_64-x64-vc14-release:transport_srtp.obj
 0001:0003c620       sdes_encode_sdp            000000014003d620 f   pjmedia-x86_64-x64-vc14-release:transport_srtp.obj
 0001:0003cb70       sdes_media_start           000000014003db70 f   pjmedia-x86_64-x64-vc14-release:transport_srtp.obj
 0001:0003ce80       fill_local_crypto          000000014003de80 f   pjmedia-x86_64-x64-vc14-release:transport_srtp.obj
 0001:0003d250       generate_crypto_attr_value 000000014003e250 f   pjmedia-x86_64-x64-vc14-release:transport_srtp.obj
 0001:0003d500       get_crypto_idx             000000014003e500 f   pjmedia-x86_64-x64-vc14-release:transport_srtp.obj
 0001:0003d5d0       parse_attr_crypto          000000014003e5d0 f   pjmedia-x86_64-x64-vc14-release:transport_srtp.obj
 0001:0003dfa0       srtp_rtcp_cb               000000014003efa0 f   pjmedia-x86_64-x64-vc14-release:transport_srtp.obj
 0001:0003e0e0       srtp_rtp_cb                000000014003f0e0 f   pjmedia-x86_64-x64-vc14-release:transport_srtp.obj
 0001:0003e450       compress                   000000014003f450 f   pjmedia-x86_64-x64-vc14-release:wsola.obj
 0001:0003e570       expand                     000000014003f570 f   pjmedia-x86_64-x64-vc14-release:wsola.obj
 0001:0003e6b0       fade_in                    000000014003f6b0 f   pjmedia-x86_64-x64-vc14-release:wsola.obj
 0001:0003e750       find_pitch                 000000014003f750 f   pjmedia-x86_64-x64-vc14-release:wsola.obj
 0001:0003ea80       overlapp_add               000000014003fa80 f   pjmedia-x86_64-x64-vc14-release:wsola.obj
 0001:0003ec50       overlapp_add_simple        000000014003fc50 f   pjmedia-x86_64-x64-vc14-release:wsola.obj
 0001:0003ee20       pjmedia_circ_buf_copy      000000014003fe20 f   pjmedia-x86_64-x64-vc14-release:wsola.obj
 0001:0003eef0       pjmedia_circ_buf_pack_buffer 000000014003fef0 f   pjmedia-x86_64-x64-vc14-release:wsola.obj
 0001:0003f9d0       wsola_fade_out             00000001400409d0 f   pjmedia-x86_64-x64-vc14-release:wsola.obj
 0001:00040310       echo_supp_update           0000000140041310 f   pjmedia-x86_64-x64-vc14-release:echo_suppress.obj
 0001:00040f40       pjmedia_circ_buf_adv_read_ptr 0000000140041f40 f   pjmedia-x86_64-x64-vc14-release:delaybuf.obj
 0001:00040fa0       pjmedia_circ_buf_read      0000000140041fa0 f   pjmedia-x86_64-x64-vc14-release:delaybuf.obj
 0001:00041090       pjmedia_circ_buf_write     0000000140042090 f   pjmedia-x86_64-x64-vc14-release:delaybuf.obj
 0001:00041660       shrink_buffer              0000000140042660 f   pjmedia-x86_64-x64-vc14-release:delaybuf.obj
 0001:00041700       update                     0000000140042700 f   pjmedia-x86_64-x64-vc14-release:delaybuf.obj
 0001:00041910       _getopt_internal           0000000140042910 f   pjlib-util-x86_64-x64-vc14-release:getopt.obj
 0001:000420f0       exchange                   00000001400430f0 f   pjlib-util-x86_64-x64-vc14-release:getopt.obj
 0001:00042d30       alloc_qnode                0000000140043d30 f   pjlib-util-x86_64-x64-vc14-release:resolver.obj
 0001:00042df0       init_res_key               0000000140043df0 f   pjlib-util-x86_64-x64-vc14-release:resolver.obj
 0001:00042e80       on_timeout                 0000000140043e80 f   pjlib-util-x86_64-x64-vc14-release:resolver.obj
 0001:00043960       select_nameservers         0000000140044960 f   pjlib-util-x86_64-x64-vc14-release:resolver.obj
 0001:00043ab0       set_nameserver_state       0000000140044ab0 f   pjlib-util-x86_64-x64-vc14-release:resolver.obj
 0001:00043bc0       transmit_query             0000000140044bc0 f   pjlib-util-x86_64-x64-vc14-release:resolver.obj
 0001:00043f50       MD5Transform               0000000140044f50 f   pjlib-util-x86_64-x64-vc14-release:md5.obj
 0001:000449a8       $LN15                      00000001400459a8     pjlib-util-x86_64-x64-vc14-release:dns.obj
 0001:000449d0       $LN14                      00000001400459d0     pjlib-util-x86_64-x64-vc14-release:dns.obj
 0001:00044b40       build_server_entries       0000000140045b40 f   pjlib-util-x86_64-x64-vc14-release:srv_resolver.obj
 0001:000454e0       dns_callback               00000001400464e0 f   pjlib-util-x86_64-x64-vc14-release:srv_resolver.obj
 0001:00046260       init_mutex                 0000000140047260 f   pjlib-x86_64-x64-vc14-release:os_core_win32.obj
 0001:000476d0       pj_sem_wait_for            00000001400486d0 f   pjlib-x86_64-x64-vc14-release:os_core_win32.obj
 0001:00047ea0       thread_main                0000000140048ea0 f   pjlib-x86_64-x64-vc14-release:os_core_win32.obj
 0001:00047f30       invoke_log                 0000000140048f30 f   pjlib-x86_64-x64-vc14-release:errno.obj
 0001:00048060       pj_perror_imp              0000000140049060 f   pjlib-x86_64-x64-vc14-release:errno.obj
 0001:0004ab00       reset_pool                 000000014004bb00 f   pjlib-x86_64-x64-vc14-release:pool.obj
 0001:0004aba0       cpool_create_pool          000000014004bba0 f   pjlib-x86_64-x64-vc14-release:pool_caching.obj
 0001:0004ad30       cpool_dump_status          000000014004bd30 f   pjlib-x86_64-x64-vc14-release:pool_caching.obj
 0001:0004aee0       cpool_on_block_alloc       000000014004bee0 f   pjlib-x86_64-x64-vc14-release:pool_caching.obj
 0001:0004af00       cpool_on_block_free        000000014004bf00 f   pjlib-x86_64-x64-vc14-release:pool_caching.obj
 0001:0004af10       cpool_release_pool         000000014004bf10 f   pjlib-x86_64-x64-vc14-release:pool_caching.obj
 0001:0004c4b0       logging_shutdown           000000014004d4b0 f   pjlib-x86_64-x64-vc14-release:log.obj
 0001:0004cc74       $LN13                      000000014004dc74     pjlib-x86_64-x64-vc14-release:log.obj
 0001:0004cd90       default_block_alloc        000000014004dd90 f   pjlib-x86_64-x64-vc14-release:pool_policy_malloc.obj
 0001:0004ce10       default_block_free         000000014004de10 f   pjlib-x86_64-x64-vc14-release:pool_policy_malloc.obj
 0001:0004ce70       default_pool_callback      000000014004de70 f   pjlib-x86_64-x64-vc14-release:pool_policy_malloc.obj
 0001:0004cfd0       grp_lock_acquire           000000014004dfd0 f   pjlib-x86_64-x64-vc14-release:lock.obj
 0001:0004d040       grp_lock_destroy           000000014004e040 f   pjlib-x86_64-x64-vc14-release:lock.obj
 0001:0004d130       grp_lock_release           000000014004e130 f   pjlib-x86_64-x64-vc14-release:lock.obj
 0001:0004d1c0       grp_lock_tryacquire        000000014004e1c0 f   pjlib-x86_64-x64-vc14-release:lock.obj
 0001:0004db20       insert_node                000000014004eb20 f   pjlib-x86_64-x64-vc14-release:timer.obj
 0001:0004e790       reheap_up                  000000014004f790 f   pjlib-x86_64-x64-vc14-release:timer.obj
 0001:0004e860       remove_node                000000014004f860 f   pjlib-x86_64-x64-vc14-release:timer.obj
 0001:0004ec30       decrement_counter          000000014004fc30 f   pjlib-x86_64-x64-vc14-release:ioqueue_select.obj
 0001:000506a0       scan_closing_keys          00000001400516a0 f   pjlib-x86_64-x64-vc14-release:ioqueue_select.obj
 0001:00050740       exception_cleanup          0000000140051740 f   pjlib-x86_64-x64-vc14-release:except.obj
 0001:000516c0       guid_to_str                00000001400526c0 f   pjlib-x86_64-x64-vc14-release:guid_win32.obj
 0001:00051e20       pool_buf_cleanup           0000000140052e20 f   pjlib-x86_64-x64-vc14-release:pool_buf.obj
 0001:00051e50       stack_alloc                0000000140052e50 f   pjlib-x86_64-x64-vc14-release:pool_buf.obj
 0001:00051eb0       MyGetAdapterAddresses      0000000140052eb0 f   pjlib-x86_64-x64-vc14-release:ip_helper_win32.obj
 0001:00051f80       MyGetIpAddrTable           0000000140052f80 f   pjlib-x86_64-x64-vc14-release:ip_helper_win32.obj
 0001:00052050       enum_ipv4_interface        0000000140053050 f   pjlib-x86_64-x64-vc14-release:ip_helper_win32.obj
 0001:000522a0       enum_ipv4_ipv6_interface   00000001400532a0 f   pjlib-x86_64-x64-vc14-release:ip_helper_win32.obj
 0001:000524d0       unload_iphlp_module        00000001400534d0 f   pjlib-x86_64-x64-vc14-release:ip_helper_win32.obj
 0001:00052af0       filter_dc_notch16          0000000140053af0 f   libspeex-x86_64-x64-vc14-release:mdf.obj
 0001:00052d80       mdf_adjust_prop            0000000140053d80 f   libspeex-x86_64-x64-vc14-release:mdf.obj
 0001:000577c0       compute_gain_floor         00000001400587c0 f   libspeex-x86_64-x64-vc14-release:preprocess.obj
 0001:00057c50       preprocess_analysis        0000000140058c50 f   libspeex-x86_64-x64-vc14-release:preprocess.obj
 0001:00058210       speex_compute_agc          0000000140059210 f   libspeex-x86_64-x64-vc14-release:preprocess.obj
 0001:00058c7c       $LN100                     0000000140059c7c     libspeex-x86_64-x64-vc14-release:preprocess.obj
 0001:0005bcf0       update_noise_prob          000000014005ccf0 f   libspeex-x86_64-x64-vc14-release:preprocess.obj
 0001:0005ce20       dradb2                     000000014005de20 f   libspeex-x86_64-x64-vc14-release:smallft.obj
 0001:0005d2a0       dradb3                     000000014005e2a0 f   libspeex-x86_64-x64-vc14-release:smallft.obj
 0001:0005d7d0       dradb4                     000000014005e7d0 f   libspeex-x86_64-x64-vc14-release:smallft.obj
 0001:0005e140       dradbg                     000000014005f140 f   libspeex-x86_64-x64-vc14-release:smallft.obj
 0001:0005fa80       dradf2                     0000000140060a80 f   libspeex-x86_64-x64-vc14-release:smallft.obj
 0001:0005fe10       dradf4                     0000000140060e10 f   libspeex-x86_64-x64-vc14-release:smallft.obj
 0001:000607c0       dradfg                     00000001400617c0 f   libspeex-x86_64-x64-vc14-release:smallft.obj
 0001:00062170       drftb1                     0000000140063170 f   libspeex-x86_64-x64-vc14-release:smallft.obj
 0001:000623f0       drftf1                     00000001400633f0 f   libspeex-x86_64-x64-vc14-release:smallft.obj
 0001:00062640       drfti1                     0000000140063640 f   libspeex-x86_64-x64-vc14-release:smallft.obj
 0001:00062a80       be64_to_cpu                0000000140063a80 f   libsrtp-x86_64-x64-vc14-release:srtp.obj
 0001:00062ac0       srtp_calc_aead_iv          0000000140063ac0 f   libsrtp-x86_64-x64-vc14-release:srtp.obj
 0001:00062be0       srtp_calc_aead_iv_srtcp    0000000140063be0 f   libsrtp-x86_64-x64-vc14-release:srtp.obj
 0001:00063110       srtp_get_est_pkt_index     0000000140064110 f   libsrtp-x86_64-x64-vc14-release:srtp.obj
 0001:00063300       srtp_kdf_generate          0000000140064300 f   libsrtp-x86_64-x64-vc14-release:srtp.obj
 0001:00063380       srtp_kdf_init              0000000140064380 f   libsrtp-x86_64-x64-vc14-release:srtp.obj
 0001:00063410       srtp_process_header_encryption 0000000140064410 f   libsrtp-x86_64-x64-vc14-release:srtp.obj
 0001:00063670       srtp_protect_aead          0000000140064670 f   libsrtp-x86_64-x64-vc14-release:srtp.obj
 0001:00063ef0       srtp_protect_rtcp_aead     0000000140064ef0 f   libsrtp-x86_64-x64-vc14-release:srtp.obj
 0001:00064b40       srtp_stream_free           0000000140065b40 f   libsrtp-x86_64-x64-vc14-release:srtp.obj
 0001:00065700       srtp_unprotect_aead        0000000140066700 f   libsrtp-x86_64-x64-vc14-release:srtp.obj
 0001:00066020       srtp_unprotect_rtcp_aead   0000000140067020 f   libsrtp-x86_64-x64-vc14-release:srtp.obj
 0001:00066720       srtp_validate_rtp_header   0000000140067720 f   libsrtp-x86_64-x64-vc14-release:srtp.obj
 0001:00067910       srtp_null_cipher_alloc     0000000140068910 f   libsrtp-x86_64-x64-vc14-release:null_cipher.obj
 0001:000679b0       srtp_null_cipher_dealloc   00000001400689b0 f   libsrtp-x86_64-x64-vc14-release:null_cipher.obj
 0001:000679e0       srtp_null_cipher_init      00000001400689e0 f   libsrtp-x86_64-x64-vc14-release:null_cipher.obj
 0001:00067a10       srtp_aes_icm_alloc         0000000140068a10 f   libsrtp-x86_64-x64-vc14-release:aes_icm.obj
 0001:00067b20       srtp_aes_icm_dealloc       0000000140068b20 f   libsrtp-x86_64-x64-vc14-release:aes_icm.obj
 0001:00067b70       srtp_aes_icm_context_init  0000000140068b70 f   libsrtp-x86_64-x64-vc14-release:aes_icm.obj
 0001:00067cc0       srtp_aes_icm_set_iv        0000000140068cc0 f   libsrtp-x86_64-x64-vc14-release:aes_icm.obj
 0001:00067d80       srtp_aes_icm_encrypt       0000000140068d80 f   libsrtp-x86_64-x64-vc14-release:aes_icm.obj
 0001:00067fb0       srtp_aes_icm_advance       0000000140068fb0 f   libsrtp-x86_64-x64-vc14-release:aes_icm.obj
 0001:00068060       srtp_null_auth_alloc       0000000140069060 f   libsrtp-x86_64-x64-vc14-release:null_auth.obj
 0001:00068120       srtp_null_auth_dealloc     0000000140069120 f   libsrtp-x86_64-x64-vc14-release:null_auth.obj
 0001:00068150       srtp_hmac_alloc            0000000140069150 f   libsrtp-x86_64-x64-vc14-release:hmac.obj
 0001:00068240       srtp_hmac_dealloc          0000000140069240 f   libsrtp-x86_64-x64-vc14-release:hmac.obj
 0001:00068270       srtp_hmac_init             0000000140069270 f   libsrtp-x86_64-x64-vc14-release:hmac.obj
 0001:000685c0       srtp_hmac_start            00000001400695c0 f   libsrtp-x86_64-x64-vc14-release:hmac.obj
 0001:00068620       srtp_hmac_update           0000000140069620 f   libsrtp-x86_64-x64-vc14-release:hmac.obj
 0001:00068690       srtp_hmac_compute          0000000140069690 f   libsrtp-x86_64-x64-vc14-release:hmac.obj
 0001:00068800       aes_final_round            0000000140069800 f   libsrtp-x86_64-x64-vc14-release:aes.obj
 0001:000688f0       aes_inv_final_round        00000001400698f0 f   libsrtp-x86_64-x64-vc14-release:aes.obj
 0001:000689e0       aes_inv_round              00000001400699e0 f   libsrtp-x86_64-x64-vc14-release:aes.obj
 0001:00068ae0       aes_round                  0000000140069ae0 f   libsrtp-x86_64-x64-vc14-release:aes.obj
 0001:0006a0a0       $$000000                   000000014006b0a0     MSVCRT:amdsecgs.obj
 0001:0006a0d0       ?pre_c_initialization@@YAHXZ 000000014006b0d0 f   MSVCRT:exe_main.obj
 0001:0006a188       ?post_pgo_initialization@@YAHXZ 000000014006b188 f   MSVCRT:exe_main.obj
 0001:0006a198       ?pre_cpp_initialization@@YAXXZ 000000014006b198 f   MSVCRT:exe_main.obj
 0001:0006a1b4       ?__scrt_common_main_seh@@YAHXZ 000000014006b1b4 f   MSVCRT:exe_main.obj
 0001:0006a4fc       capture_current_context    000000014006b4fc f   MSVCRT:gs_report.obj
 0001:0006a56c       capture_previous_context   000000014006b56c f   MSVCRT:gs_report.obj
 0001:0006a790       $$000000                   000000014006b790     MSVCRT:chkstk.obj
 0001:0006af00       $$000000                   000000014006bf00     MSVCRT:guard_dispatch.obj
 0001:0006af20       $$000000                   000000014006bf20     MSVCRT:guard_xfg_dispatch.obj
 0001:0006af36       ?filt$0@?0??__scrt_common_main_seh@@YAHXZ@4HA 000000014006bf36 f   MSVCRT:exe_main.obj
 0001:0006af54       __scrt_is_nonwritable_in_current_image$filt$0 000000014006bf54 f   MSVCRT:utility.obj
 0002:00000588       ?pre_cpp_initializer@@3P6AXXZEA 000000014006c588     MSVCRT:exe_main.obj
 0002:000005a0       ?pre_c_initializer@@3P6AHXZEA 000000014006c5a0     MSVCRT:exe_main.obj
 0002:000005a8       ?post_pgo_initializer@@3P6AHXZEA 000000014006c5a8     MSVCRT:exe_main.obj
 0002:00000648       pjsip_update_method        000000014006c648     pjsip-ua-x86_64-x64-vc14-release:sip_inv.obj
 0002:00000cf8       tag_100rel                 000000014006ccf8     pjsip-ua-x86_64-x64-vc14-release:sip_100rel.obj
 0002:00000d08       RSEQ                       000000014006cd08     pjsip-ua-x86_64-x64-vc14-release:sip_100rel.obj
 0002:00000d18       RACK                       000000014006cd18     pjsip-ua-x86_64-x64-vc14-release:sip_100rel.obj
 0002:00000ff8       STR_SE                     000000014006cff8     pjsip-ua-x86_64-x64-vc14-release:sip_timer.obj
 0002:00001008       STR_SHORT_SE               000000014006d008     pjsip-ua-x86_64-x64-vc14-release:sip_timer.obj
 0002:00001018       STR_MIN_SE                 000000014006d018     pjsip-ua-x86_64-x64-vc14-release:sip_timer.obj
 0002:00001028       STR_REFRESHER              000000014006d028     pjsip-ua-x86_64-x64-vc14-release:sip_timer.obj
 0002:00001038       STR_UAC                    000000014006d038     pjsip-ua-x86_64-x64-vc14-release:sip_timer.obj
 0002:00001048       STR_UAS                    000000014006d048     pjsip-ua-x86_64-x64-vc14-release:sip_timer.obj
 0002:00001058       STR_TIMER                  000000014006d058     pjsip-ua-x86_64-x64-vc14-release:sip_timer.obj
 0002:000030a8       HCONTACT                   000000014006f0a8     pjsip-core-x86_64-x64-vc14-release:sip_dialog.obj
 0002:00003a40       err_str                    000000014006fa40     pjsip-core-x86_64-x64-vc14-release:sip_errno.obj
 0002:00005380       err_str                    0000000140071380     pjmedia-audiodev-x86_64-x64-vc14-release:errno.obj
 0002:00005a90       STR_RTP_AVP                0000000140071a90     pjmedia-x86_64-x64-vc14-release:endpoint.obj
 0002:00005aa0       STR_IN                     0000000140071aa0     pjmedia-x86_64-x64-vc14-release:endpoint.obj
 0002:00005ab0       STR_IP4                    0000000140071ab0     pjmedia-x86_64-x64-vc14-release:endpoint.obj
 0002:00005ac0       STR_IP6                    0000000140071ac0     pjmedia-x86_64-x64-vc14-release:endpoint.obj
 0002:00005ad0       STR_SDP_NAME               0000000140071ad0     pjmedia-x86_64-x64-vc14-release:endpoint.obj
 0002:00005ae0       STR_SENDRECV               0000000140071ae0     pjmedia-x86_64-x64-vc14-release:endpoint.obj
 0002:00005e40       ID_IN                      0000000140071e40     pjmedia-x86_64-x64-vc14-release:stream_info.obj
 0002:00005e50       ID_IP4                     0000000140071e50     pjmedia-x86_64-x64-vc14-release:stream_info.obj
 0002:00005e60       ID_IP6                     0000000140071e60     pjmedia-x86_64-x64-vc14-release:stream_info.obj
 0002:00005e70       ID_RTPMAP                  0000000140071e70     pjmedia-x86_64-x64-vc14-release:stream_info.obj
 0002:00005e80       ID_TELEPHONE_EVENT         0000000140071e80     pjmedia-x86_64-x64-vc14-release:stream_info.obj
 0002:00005f20       digitmap                   0000000140071f20     pjmedia-x86_64-x64-vc14-release:stream.obj
 0002:00006510       STR_RTCP_MUX               0000000140072510     pjmedia-x86_64-x64-vc14-release:transport_udp.obj
 0002:00006bd0       err_str                    0000000140072bd0     pjmedia-x86_64-x64-vc14-release:errno.obj
 0002:000115a8       ID_RTP_AVP                 000000014007d5a8     pjmedia-x86_64-x64-vc14-release:transport_srtp.obj
 0002:000115b8       ID_RTP_SAVP                000000014007d5b8     pjmedia-x86_64-x64-vc14-release:transport_srtp.obj
 0002:000115c8       ID_CRYPTO                  000000014007d5c8     pjmedia-x86_64-x64-vc14-release:transport_srtp.obj
 0002:00011fe0       err_str                    000000014007dfe0     pjlib-util-x86_64-x64-vc14-release:errno.obj
 0002:00013750       base64_char                000000014007f750     pjlib-util-x86_64-x64-vc14-release:base64.obj
 0002:000138a0       err_str                    000000014007f8a0     pjlib-x86_64-x64-vc14-release:errno.obj
 0002:000148d0       gaErrorList                00000001400808d0     pjlib-x86_64-x64-vc14-release:os_error_win32.obj
 0002:000154d0       qos_map                    00000001400814d0     pjlib-x86_64-x64-vc14-release:sock_qos_common.obj
 0002:000159c0       ?table@?1??hypergeom_gain@@9@9 00000001400819c0     libspeex-x86_64-x64-vc14-release:preprocess.obj
 0002:000163e0       srtp_null_cipher_description 00000001400823e0     libsrtp-x86_64-x64-vc14-release:null_cipher.obj
 0002:000163f0       srtp_null_cipher_test_0    00000001400823f0     libsrtp-x86_64-x64-vc14-release:null_cipher.obj
 0002:00016568       srtp_aes_icm_128_description 0000000140082568     libsrtp-x86_64-x64-vc14-release:aes_icm.obj
 0002:00016588       srtp_aes_icm_256_description 0000000140082588     libsrtp-x86_64-x64-vc14-release:aes_icm.obj
 0002:000165a8       srtp_aes_icm_128_test_case_0_key 00000001400825a8     libsrtp-x86_64-x64-vc14-release:aes_icm.obj
 0002:000165c8       srtp_aes_icm_128_test_case_0_plaintext 00000001400825c8     libsrtp-x86_64-x64-vc14-release:aes_icm.obj
 0002:000165e8       srtp_aes_icm_128_test_case_0_ciphertext 00000001400825e8     libsrtp-x86_64-x64-vc14-release:aes_icm.obj
 0002:00016610       srtp_aes_icm_128_test_case_0 0000000140082610     libsrtp-x86_64-x64-vc14-release:aes_icm.obj
 0002:00016668       srtp_aes_icm_256_test_case_0_key 0000000140082668     libsrtp-x86_64-x64-vc14-release:aes_icm.obj
 0002:00016698       srtp_aes_icm_256_test_case_0_plaintext 0000000140082698     libsrtp-x86_64-x64-vc14-release:aes_icm.obj
 0002:000166b8       srtp_aes_icm_256_test_case_0_ciphertext 00000001400826b8     libsrtp-x86_64-x64-vc14-release:aes_icm.obj
 0002:000166e0       srtp_aes_icm_256_test_case_0 00000001400826e0     libsrtp-x86_64-x64-vc14-release:aes_icm.obj
 0002:00016830       srtp_null_auth_test_case_0 0000000140082830     libsrtp-x86_64-x64-vc14-release:null_auth.obj
 0002:00016868       srtp_null_auth_description 0000000140082868     libsrtp-x86_64-x64-vc14-release:null_auth.obj
 0002:00016940       srtp_hmac_test_case_0_key  0000000140082940     libsrtp-x86_64-x64-vc14-release:hmac.obj
 0002:00016958       srtp_hmac_test_case_0_data 0000000140082958     libsrtp-x86_64-x64-vc14-release:hmac.obj
 0002:00016960       srtp_hmac_test_case_0_tag  0000000140082960     libsrtp-x86_64-x64-vc14-release:hmac.obj
 0002:00016978       srtp_hmac_test_case_0      0000000140082978     libsrtp-x86_64-x64-vc14-release:hmac.obj
 0002:000169b0       srtp_hmac_description      00000001400829b0     libsrtp-x86_64-x64-vc14-release:hmac.obj
 0002:00016a50       T0                         0000000140082a50     libsrtp-x86_64-x64-vc14-release:aes.obj
 0002:00016e50       T1                         0000000140082e50     libsrtp-x86_64-x64-vc14-release:aes.obj
 0002:00017250       T2                         0000000140083250     libsrtp-x86_64-x64-vc14-release:aes.obj
 0002:00017650       T3                         0000000140083650     libsrtp-x86_64-x64-vc14-release:aes.obj
 0002:00017a50       U0                         0000000140083a50     libsrtp-x86_64-x64-vc14-release:aes.obj
 0002:00017e50       U1                         0000000140083e50     libsrtp-x86_64-x64-vc14-release:aes.obj
 0002:00018250       U2                         0000000140084250     libsrtp-x86_64-x64-vc14-release:aes.obj
 0002:00018650       U3                         0000000140084650     libsrtp-x86_64-x64-vc14-release:aes.obj
 0002:00018a50       aes_sbox                   0000000140084a50     libsrtp-x86_64-x64-vc14-release:aes.obj
 0002:00018b50       aes_inv_sbox               0000000140084b50     libsrtp-x86_64-x64-vc14-release:aes.obj
 0002:00018d08       GS_ExceptionPointers       0000000140084d08     MSVCRT:gs_report.obj
 0002:00019260       $unwind$sprintf            0000000140085260     simpleua.obj
 0002:0001926c       $unwind$pj_memcpy          000000014008526c     simpleua.obj
 0002:00019274       $unwind$pjmedia_transport_info_init 0000000140085274     simpleua.obj
 0002:0001927c       $unwind$pjmedia_endpt_create 000000014008527c     simpleua.obj
 0002:00019290       $unwind$pjmedia_endpt_destroy 0000000140085290     simpleua.obj
 0002:00019298       $unwind$app_perror         0000000140085298     simpleua.obj
 0002:000192b0       $unwind$get_snd_options    00000001400852b0     simpleua.obj
 0002:000192d0       $unwind$dump_pool_usage    00000001400852d0     simpleua.obj
 0002:000192e8       $unwind$call_on_media_update 00000001400852e8     simpleua.obj
 0002:00019300       $chain$0$call_on_media_update 0000000140085300     simpleua.obj
 0002:00019314       $chain$1$call_on_media_update 0000000140085314     simpleua.obj
 0002:00019324       $unwind$call_on_state_changed 0000000140085324     simpleua.obj
 0002:0001932c       $unwind$on_rx_request      000000014008532c     simpleua.obj
 0002:00019348       $unwind$logging_on_rx_msg  0000000140085348     simpleua.obj
 0002:00019350       $chain$1$logging_on_rx_msg 0000000140085350     simpleua.obj
 0002:00019368       $chain$2$logging_on_rx_msg 0000000140085368     simpleua.obj
 0002:00019378       $unwind$logging_on_tx_msg  0000000140085378     simpleua.obj
 0002:00019380       $chain$3$logging_on_tx_msg 0000000140085380     simpleua.obj
 0002:000193a0       $chain$4$logging_on_tx_msg 00000001400853a0     simpleua.obj
 0002:000193b0       $unwind$main               00000001400853b0     simpleua.obj
 0002:000193d8       $unwind$pjsip_inv_create_uac 00000001400853d8     pjsip-ua-x86_64-x64-vc14-release:sip_inv.obj
 0002:000193e8       $chain$3$pjsip_inv_create_uac 00000001400853e8     pjsip-ua-x86_64-x64-vc14-release:sip_inv.obj
 0002:00019408       $chain$5$pjsip_inv_create_uac 0000000140085408     pjsip-ua-x86_64-x64-vc14-release:sip_inv.obj
 0002:00019428       $chain$6$pjsip_inv_create_uac 0000000140085428     pjsip-ua-x86_64-x64-vc14-release:sip_inv.obj
 0002:00019438       $unwind$pj_strnicmp        0000000140085438     pjlib-x86_64-x64-vc14-release:string.obj
 0002:00019438       $unwind$pjmedia_jbuf_put_frame2 0000000140085438     pjmedia-x86_64-x64-vc14-release:jbuf.obj
 0002:00019438       $unwind$transport_attach   0000000140085438     pjmedia-x86_64-x64-vc14-release:transport_udp.obj
 0002:00019438       $unwind$transport_attach2  0000000140085438     pjmedia-x86_64-x64-vc14-release:transport_udp.obj
 0002:00019438       $unwind$transport_send_rtcp 0000000140085438     pjmedia-x86_64-x64-vc14-release:transport_udp.obj
 0002:00019438       $unwind$transport_send_rtcp2 0000000140085438     pjmedia-x86_64-x64-vc14-release:transport_udp.obj
 0002:00019438       $unwind$mod_tsx_layer_stop 0000000140085438     pjsip-core-x86_64-x64-vc14-release:sip_transaction.obj
 0002:00019438       $unwind$pjsip_inv_verify_request 0000000140085438     pjsip-ua-x86_64-x64-vc14-release:sip_inv.obj
 0002:00019440       $unwind$pjsip_inv_verify_request3 0000000140085440     pjsip-ua-x86_64-x64-vc14-release:sip_inv.obj
 0002:00019460       $unwind$pjsip_inv_create_uas 0000000140085460     pjsip-ua-x86_64-x64-vc14-release:sip_inv.obj
 0002:00019470       $chain$2$pjsip_inv_create_uas 0000000140085470     pjsip-ua-x86_64-x64-vc14-release:sip_inv.obj
 0002:0001948c       $chain$4$pjsip_inv_create_uas 000000014008548c     pjsip-ua-x86_64-x64-vc14-release:sip_inv.obj
 0002:000194a8       $chain$5$pjsip_inv_create_uas 00000001400854a8     pjsip-ua-x86_64-x64-vc14-release:sip_inv.obj
 0002:000194b8       $unwind$pj_cis_add_alpha   00000001400854b8     pjlib-util-x86_64-x64-vc14-release:scanner.obj
 0002:000194b8       $unwind$pj_cis_buf_init    00000001400854b8     pjlib-util-x86_64-x64-vc14-release:scanner.obj
 0002:000194b8       $unwind$pj_scan_get_char   00000001400854b8     pjlib-util-x86_64-x64-vc14-release:scanner.obj
 0002:000194b8       $unwind$pj_scan_skip_line  00000001400854b8     pjlib-util-x86_64-x64-vc14-release:scanner.obj
 0002:000194b8       $unwind$pj_exception_id_free 00000001400854b8     pjlib-x86_64-x64-vc14-release:except.obj
 0002:000194b8       $unwind$pj_pop_exception_handler_ 00000001400854b8     pjlib-x86_64-x64-vc14-release:except.obj
 0002:000194b8       $unwind$pj_push_exception_handler_ 00000001400854b8     pjlib-x86_64-x64-vc14-release:except.obj
 0002:000194b8       $unwind$pj_create_unique_string 00000001400854b8     pjlib-x86_64-x64-vc14-release:guid.obj
 0002:000194b8       $unwind$pj_hash_this       00000001400854b8     pjlib-x86_64-x64-vc14-release:hash.obj
 0002:000194b8       $unwind$pj_ioqueue_unregister 00000001400854b8     pjlib-x86_64-x64-vc14-release:ioqueue_select.obj
 0002:000194b8       $unwind$pj_grp_lock_dec_ref 00000001400854b8     pjlib-x86_64-x64-vc14-release:lock.obj
 0002:000194b8       $unwind$pj_log_init        00000001400854b8     pjlib-x86_64-x64-vc14-release:log.obj
 0002:000194b8       $unwind$pj_thread_local_alloc 00000001400854b8     pjlib-x86_64-x64-vc14-release:os_core_win32.obj
 0002:000194b8       $unwind$pj_get_timestamp   00000001400854b8     pjlib-x86_64-x64-vc14-release:os_timestamp_win32.obj
 0002:000194b8       $unwind$pj_get_timestamp_freq 00000001400854b8     pjlib-x86_64-x64-vc14-release:os_timestamp_win32.obj
 0002:000194b8       $unwind$pj_pool_destroy_int 00000001400854b8     pjlib-x86_64-x64-vc14-release:pool.obj
 0002:000194b8       $unwind$pj_pool_reset      00000001400854b8     pjlib-x86_64-x64-vc14-release:pool.obj
 0002:000194b8       $unwind$pj_rand            00000001400854b8     pjlib-x86_64-x64-vc14-release:rand.obj
 0002:000194b8       $unwind$pj_sock_close      00000001400854b8     pjlib-x86_64-x64-vc14-release:sock_bsd.obj
 0002:000194b8       $unwind$pj_sockaddr_set_port 00000001400854b8     pjlib-x86_64-x64-vc14-release:sock_common.obj
 0002:000194b8       $unwind$PJ_FD_ZERO         00000001400854b8     pjlib-x86_64-x64-vc14-release:sock_select.obj
 0002:000194b8       $unwind$pj_strcpy          00000001400854b8     pjlib-x86_64-x64-vc14-release:string.obj
 0002:000194b8       $unwind$pj_strcpy2         00000001400854b8     pjlib-x86_64-x64-vc14-release:string.obj
 0002:000194b8       $unwind$pj_timer_heap_destroy 00000001400854b8     pjlib-x86_64-x64-vc14-release:timer.obj
 0002:000194b8       $unwind$pj_time_val_normalize 00000001400854b8     pjlib-x86_64-x64-vc14-release:types.obj
 0002:000194b8       $unwind$stream_get_cap     00000001400854b8     pjmedia-audiodev-x86_64-x64-vc14-release:wmme_dev.obj
 0002:000194b8       $unwind$stream_get_param   00000001400854b8     pjmedia-audiodev-x86_64-x64-vc14-release:wmme_dev.obj
 0002:000194b8       $unwind$stream_start       00000001400854b8     pjmedia-audiodev-x86_64-x64-vc14-release:wmme_dev.obj
 0002:000194b8       $unwind$stream_stop        00000001400854b8     pjmedia-audiodev-x86_64-x64-vc14-release:wmme_dev.obj
 0002:000194b8       $unwind$pjmedia_aud_dev_default_param 00000001400854b8     pjmedia-x86_64-x64-vc14-release:audiodev.obj
 0002:000194b8       $unwind$pjmedia_aud_dev_get_info 00000001400854b8     pjmedia-x86_64-x64-vc14-release:audiodev.obj
 0002:000194b8       $unwind$pjmedia_aud_driver_deinit 00000001400854b8     pjmedia-x86_64-x64-vc14-release:audiodev.obj
 0002:000194b8       $unwind$pjmedia_echo_destroy 00000001400854b8     pjmedia-x86_64-x64-vc14-release:echo_common.obj
 0002:000194b8       $unwind$pjmedia_echo_stat_default 00000001400854b8     pjmedia-x86_64-x64-vc14-release:echo_common.obj
 0002:000194b8       $unwind$speex_aec_destroy  00000001400854b8     pjmedia-x86_64-x64-vc14-release:echo_speex.obj
 0002:000194b8       $unwind$echo_supp_reset    00000001400854b8     pjmedia-x86_64-x64-vc14-release:echo_suppress.obj
 0002:000194b8       $unwind$worker_proc        00000001400854b8     pjmedia-x86_64-x64-vc14-release:endpoint.obj
 0002:000194b8       $unwind$pjmedia_event_mgr_destroy 00000001400854b8     pjmedia-x86_64-x64-vc14-release:event.obj
 0002:000194b8       $unwind$g711_decode        00000001400854b8     pjmedia-x86_64-x64-vc14-release:g711.obj
 0002:000194b8       $unwind$g711_recover       00000001400854b8     pjmedia-x86_64-x64-vc14-release:g711.obj
 0002:000194b8       $unwind$jbuf_update        00000001400854b8     pjmedia-x86_64-x64-vc14-release:jbuf.obj
 0002:000194b8       $unwind$pjmedia_jbuf_reset 00000001400854b8     pjmedia-x86_64-x64-vc14-release:jbuf.obj
 0002:000194b8       $unwind$plc_wsola_generate 00000001400854b8     pjmedia-x86_64-x64-vc14-release:plc_common.obj
 0002:000194b8       $unwind$plc_wsola_save     00000001400854b8     pjmedia-x86_64-x64-vc14-release:plc_common.obj
 0002:000194b8       $unwind$validate_sdp_conn  00000001400854b8     pjmedia-x86_64-x64-vc14-release:sdp.obj
 0002:000194b8       $unwind$pjmedia_sdp_neg_set_remote_answer 00000001400854b8     pjmedia-x86_64-x64-vc14-release:sdp_neg.obj
 0002:000194b8       $unwind$pjmedia_sdp_neg_set_remote_offer 00000001400854b8     pjmedia-x86_64-x64-vc14-release:sdp_neg.obj
 0002:000194b8       $unwind$pjmedia_snd_port_destroy 00000001400854b8     pjmedia-x86_64-x64-vc14-release:sound_port.obj
 0002:000194b8       $unwind$pjmedia_stream_start 00000001400854b8     pjmedia-x86_64-x64-vc14-release:stream.obj
 0002:000194b8       $unwind$sdes_media_create  00000001400854b8     pjmedia-x86_64-x64-vc14-release:transport_srtp.obj
 0002:000194b8       $unwind$transport_send_rtp 00000001400854b8     pjmedia-x86_64-x64-vc14-release:transport_srtp.obj
 0002:000194b8       $unwind$on_rtp_data_sent   00000001400854b8     pjmedia-x86_64-x64-vc14-release:transport_udp.obj
 0002:000194b8       $unwind$transport_destroy  00000001400854b8     pjmedia-x86_64-x64-vc14-release:transport_udp.obj
 0002:000194b8       $unwind$transport_media_stop 00000001400854b8     pjmedia-x86_64-x64-vc14-release:transport_udp.obj
 0002:000194b8       $unwind$wsola_fade_out     00000001400854b8     pjmedia-x86_64-x64-vc14-release:wsola.obj
 0002:000194b8       $unwind$dlg_on_destroy     00000001400854b8     pjsip-core-x86_64-x64-vc14-release:sip_dialog.obj
 0002:000194b8       $unwind$pjsip_dlg_inc_lock 00000001400854b8     pjsip-core-x86_64-x64-vc14-release:sip_dialog.obj
 0002:000194b8       $unwind$pjsip_endpt_release_pool 00000001400854b8     pjsip-core-x86_64-x64-vc14-release:sip_endpoint.obj
 0002:000194b8       $unwind$pjsip_clen_hdr_clone 00000001400854b8     pjsip-core-x86_64-x64-vc14-release:sip_msg.obj
 0002:000194b8       $unwind$pjsip_cseq_hdr_shallow_clone 00000001400854b8     pjsip-core-x86_64-x64-vc14-release:sip_msg.obj
 0002:000194b8       $unwind$pjsip_expires_hdr_create 00000001400854b8     pjsip-core-x86_64-x64-vc14-release:sip_msg.obj
 0002:000194b8       $unwind$pjsip_generic_array_hdr_shallow_clone 00000001400854b8     pjsip-core-x86_64-x64-vc14-release:sip_msg.obj
 0002:000194b8       $unwind$pjsip_generic_int_hdr_clone 00000001400854b8     pjsip-core-x86_64-x64-vc14-release:sip_msg.obj
 0002:000194b8       $unwind$pjsip_generic_int_hdr_shallow_clone 00000001400854b8     pjsip-core-x86_64-x64-vc14-release:sip_msg.obj
 0002:000194b8       $unwind$pjsip_generic_string_hdr_shallow_clone 00000001400854b8     pjsip-core-x86_64-x64-vc14-release:sip_msg.obj
 0002:000194b8       $unwind$pjsip_max_fwd_hdr_create 00000001400854b8     pjsip-core-x86_64-x64-vc14-release:sip_msg.obj
 0002:000194b8       $unwind$pjsip_min_expires_hdr_create 00000001400854b8     pjsip-core-x86_64-x64-vc14-release:sip_msg.obj
 0002:000194b8       $unwind$pjsip_msg_create   00000001400854b8     pjsip-core-x86_64-x64-vc14-release:sip_msg.obj
 0002:000194b8       $unwind$pjsip_print_text_body 00000001400854b8     pjsip-core-x86_64-x64-vc14-release:sip_msg.obj
 0002:000194b8       $unwind$pjsip_retry_after_hdr_create 00000001400854b8     pjsip-core-x86_64-x64-vc14-release:sip_msg.obj
 0002:000194b8       $unwind$pjsip_route_hdr_create 00000001400854b8     pjsip-core-x86_64-x64-vc14-release:sip_msg.obj
 0002:000194b8       $unwind$pjsip_rr_hdr_create 00000001400854b8     pjsip-core-x86_64-x64-vc14-release:sip_msg.obj
 0002:000194b8       $unwind$pjsip_via_hdr_create 00000001400854b8     pjsip-core-x86_64-x64-vc14-release:sip_msg.obj
 0002:000194b8       $unwind$pjsip_resolver_create 00000001400854b8     pjsip-core-x86_64-x64-vc14-release:sip_resolve.obj
 0002:000194b8       $unwind$pjsip_resolver_destroy 00000001400854b8     pjsip-core-x86_64-x64-vc14-release:sip_resolve.obj
 0002:000194b8       $unwind$pjsip_tsx_layer_init_module 00000001400854b8     pjsip-core-x86_64-x64-vc14-release:sip_transaction.obj
 0002:000194b8       $unwind$tsx_on_destroy     00000001400854b8     pjsip-core-x86_64-x64-vc14-release:sip_transaction.obj
 0002:000194b8       $unwind$tsx_shutdown       00000001400854b8     pjsip-core-x86_64-x64-vc14-release:sip_transaction.obj
 0002:000194b8       $unwind$pjsip_tx_data_dec_ref 00000001400854b8     pjsip-core-x86_64-x64-vc14-release:sip_transport.obj
 0002:000194b8       $unwind$pjsip_tx_data_get_info 00000001400854b8     pjsip-core-x86_64-x64-vc14-release:sip_transport.obj
 0002:000194b8       $unwind$transport_send_callback 00000001400854b8     pjsip-core-x86_64-x64-vc14-release:sip_transport.obj
 0002:000194b8       $unwind$tx_data_destroy    00000001400854b8     pjsip-core-x86_64-x64-vc14-release:sip_transport.obj
 0002:000194b8       $unwind$udp_on_destroy     00000001400854b8     pjsip-core-x86_64-x64-vc14-release:sip_transport_udp.obj
 0002:000194b8       $unwind$alloc_dlgset_node  00000001400854b8     pjsip-core-x86_64-x64-vc14-release:sip_ua_layer.obj
 0002:000194b8       $unwind$pjsip_restore_strict_route_set 00000001400854b8     pjsip-core-x86_64-x64-vc14-release:sip_util.obj
 0002:000194b8       $unwind$pjsip_100rel_end_session 00000001400854b8     pjsip-ua-x86_64-x64-vc14-release:sip_100rel.obj
 0002:000194b8       $unwind$create_sdp_body    00000001400854b8     pjsip-ua-x86_64-x64-vc14-release:sip_inv.obj
 0002:000194b8       $unwind$inv_negotiate_sdp  00000001400854b8     pjsip-ua-x86_64-x64-vc14-release:sip_inv.obj
 0002:000194b8       $unwind$pjsip_inv_dec_ref  00000001400854b8     pjsip-ua-x86_64-x64-vc14-release:sip_inv.obj
 0002:000194b8       $unwind$stop_timer         00000001400854b8     pjsip-ua-x86_64-x64-vc14-release:sip_timer.obj
 0002:000194b8       $unwind$spx_fft_destroy    00000001400854b8     libspeex-x86_64-x64-vc14-release:fftwrap.obj
 0002:000194b8       $unwind$filterbank_destroy 00000001400854b8     libspeex-x86_64-x64-vc14-release:filterbank.obj
 0002:000194b8       $unwind$speex_echo_state_destroy 00000001400854b8     libspeex-x86_64-x64-vc14-release:mdf.obj
 0002:000194b8       $unwind$speex_preprocess_state_destroy 00000001400854b8     libspeex-x86_64-x64-vc14-release:preprocess.obj
 0002:000194b8       $unwind$speex_decorrelate_destroy 00000001400854b8     libspeex-x86_64-x64-vc14-release:scal.obj
 0002:000194b8       $unwind$srtp_crypto_free   00000001400854b8     libsrtp-x86_64-x64-vc14-release:alloc.obj
 0002:000194b8       $unwind$bitvector_dealloc  00000001400854b8     libsrtp-x86_64-x64-vc14-release:datatypes.obj
 0002:000194b8       $unwind$srtp_hmac_dealloc  00000001400854b8     libsrtp-x86_64-x64-vc14-release:hmac.obj
 0002:000194b8       $unwind$srtp_null_auth_dealloc 00000001400854b8     libsrtp-x86_64-x64-vc14-release:null_auth.obj
 0002:000194b8       $unwind$srtp_null_cipher_dealloc 00000001400854b8     libsrtp-x86_64-x64-vc14-release:null_cipher.obj
 0002:000194b8       $unwind$srtp_rdbx_init     00000001400854b8     libsrtp-x86_64-x64-vc14-release:rdbx.obj
 0002:000194b8       $unwind$srtp_event_reporter 00000001400854b8     libsrtp-x86_64-x64-vc14-release:srtp.obj
 0002:000194b8       $unwind$?pre_c_initialization@@YAHXZ 00000001400854b8     MSVCRT:exe_main.obj
 0002:000194b8       $unwind$__raise_securityfailure 00000001400854b8     MSVCRT:gs_report.obj
 0002:000194b8       $unwind$__scrt_initialize_crt 00000001400854b8     MSVCRT:utility.obj
 0002:000194b8       $unwind$__scrt_initialize_onexit_tables 00000001400854b8     MSVCRT:utility.obj
 0002:000194b8       $unwind$__scrt_release_startup_lock 00000001400854b8     MSVCRT:utility.obj
 0002:000194b8       $unwind$__scrt_uninitialize_crt 00000001400854b8     MSVCRT:utility.obj
 0002:000194b8       $unwind$_onexit            00000001400854b8     MSVCRT:utility.obj
 0002:000194c0       $chain$0$pjsip_inv_dec_ref 00000001400854c0     pjsip-ua-x86_64-x64-vc14-release:sip_inv.obj
 0002:000194d4       $chain$1$pjsip_inv_dec_ref 00000001400854d4     pjsip-ua-x86_64-x64-vc14-release:sip_inv.obj
 0002:000194e4       $unwind$pj_dns_resolver_cancel_query 00000001400854e4     pjlib-util-x86_64-x64-vc14-release:resolver.obj
 0002:000194e4       $unwind$pj_scan_get_quote  00000001400854e4     pjlib-util-x86_64-x64-vc14-release:scanner.obj
 0002:000194e4       $unwind$pj_exception_id_alloc 00000001400854e4     pjlib-x86_64-x64-vc14-release:except.obj
 0002:000194e4       $unwind$pj_throw_exception_ 00000001400854e4     pjlib-x86_64-x64-vc14-release:except.obj
 0002:000194e4       $unwind$pj_log_write       00000001400854e4     pjlib-x86_64-x64-vc14-release:log_writer_stdout.obj
 0002:000194e4       $unwind$pj_atomic_create   00000001400854e4     pjlib-x86_64-x64-vc14-release:os_core_win32.obj
 0002:000194e4       $unwind$pj_pool_calloc     00000001400854e4     pjlib-x86_64-x64-vc14-release:pool.obj
 0002:000194e4       $unwind$stack_alloc        00000001400854e4     pjlib-x86_64-x64-vc14-release:pool_buf.obj
 0002:000194e4       $unwind$pj_sockaddr_in_init 00000001400854e4     pjlib-x86_64-x64-vc14-release:sock_common.obj
 0002:000194e4       $unwind$PJ_FD_ISSET        00000001400854e4     pjlib-x86_64-x64-vc14-release:sock_select.obj
 0002:000194e4       $unwind$pj_strcat          00000001400854e4     pjlib-x86_64-x64-vc14-release:string.obj
 0002:000194e4       $unwind$pj_strcmp          00000001400854e4     pjlib-x86_64-x64-vc14-release:string.obj
 0002:000194e4       $unwind$pj_strdup          00000001400854e4     pjlib-x86_64-x64-vc14-release:string.obj
 0002:000194e4       $unwind$pj_strdup2         00000001400854e4     pjlib-x86_64-x64-vc14-release:string.obj
 0002:000194e4       $unwind$pj_strdup2_with_null 00000001400854e4     pjlib-x86_64-x64-vc14-release:string.obj
 0002:000194e4       $unwind$pj_strdup_with_null 00000001400854e4     pjlib-x86_64-x64-vc14-release:string.obj
 0002:000194e4       $unwind$pj_stricmp         00000001400854e4     pjlib-x86_64-x64-vc14-release:string.obj
 0002:000194e4       $unwind$pj_strncpy         00000001400854e4     pjlib-x86_64-x64-vc14-release:string.obj
 0002:000194e4       $unwind$pj_strncpy_with_null 00000001400854e4     pjlib-x86_64-x64-vc14-release:string.obj
 0002:000194e4       $unwind$factory_destroy    00000001400854e4     pjmedia-audiodev-x86_64-x64-vc14-release:wmme_dev.obj
 0002:000194e4       $unwind$stream_set_cap     00000001400854e4     pjmedia-audiodev-x86_64-x64-vc14-release:wmme_dev.obj
 0002:000194e4       $unwind$pjmedia_aud_stream_get_param 00000001400854e4     pjmedia-x86_64-x64-vc14-release:audiodev.obj
 0002:000194e4       $unwind$pjmedia_delay_buf_destroy 00000001400854e4     pjmedia-x86_64-x64-vc14-release:delaybuf.obj
 0002:000194e4       $unwind$speex_aec_playback 00000001400854e4     pjmedia-x86_64-x64-vc14-release:echo_speex.obj
 0002:000194e4       $unwind$g711_default_attr  00000001400854e4     pjmedia-x86_64-x64-vc14-release:g711.obj
 0002:000194e4       $unwind$pjmedia_codec_g711_init 00000001400854e4     pjmedia-x86_64-x64-vc14-release:g711.obj
 0002:000194e4       $unwind$pjmedia_sdp_attr_to_rtpmap 00000001400854e4     pjmedia-x86_64-x64-vc14-release:sdp.obj
 0002:000194e4       $unwind$pjmedia_sdp_transport_cmp 00000001400854e4     pjmedia-x86_64-x64-vc14-release:sdp.obj
 0002:000194e4       $unwind$pjmedia_snd_port_connect 00000001400854e4     pjmedia-x86_64-x64-vc14-release:sound_port.obj
 0002:000194e4       $unwind$play_cb_ext        00000001400854e4     pjmedia-x86_64-x64-vc14-release:sound_port.obj
 0002:000194e4       $unwind$rec_cb_ext         00000001400854e4     pjmedia-x86_64-x64-vc14-release:sound_port.obj
 0002:000194e4       $unwind$pjmedia_wsola_generate 00000001400854e4     pjmedia-x86_64-x64-vc14-release:wsola.obj
 0002:000194e4       $unwind$parse_hdr_authorization 00000001400854e4     pjsip-core-x86_64-x64-vc14-release:sip_auth_parser.obj
 0002:000194e4       $unwind$parse_hdr_proxy_authenticate 00000001400854e4     pjsip-core-x86_64-x64-vc14-release:sip_auth_parser.obj
 0002:000194e4       $unwind$parse_hdr_proxy_authorization 00000001400854e4     pjsip-core-x86_64-x64-vc14-release:sip_auth_parser.obj
 0002:000194e4       $unwind$parse_hdr_www_authenticate 00000001400854e4     pjsip-core-x86_64-x64-vc14-release:sip_auth_parser.obj
 0002:000194e4       $unwind$pjsip_dlg_try_inc_lock 00000001400854e4     pjsip-core-x86_64-x64-vc14-release:sip_dialog.obj
 0002:000194e4       $unwind$unregister_and_destroy_dialog 00000001400854e4     pjsip-core-x86_64-x64-vc14-release:sip_dialog.obj
 0002:000194e4       $unwind$pjsip_endpt_cancel_timer 00000001400854e4     pjsip-core-x86_64-x64-vc14-release:sip_endpoint.obj
 0002:000194e4       $unwind$unload_module      00000001400854e4     pjsip-core-x86_64-x64-vc14-release:sip_endpoint.obj
 0002:000194e4       $unwind$pjsip_generic_array_hdr_init 00000001400854e4     pjsip-core-x86_64-x64-vc14-release:sip_msg.obj
 0002:000194e4       $unwind$parse_generic_array_hdr 00000001400854e4     pjsip-core-x86_64-x64-vc14-release:sip_parser.obj
 0002:000194e4       $unwind$parse_hdr_accept   00000001400854e4     pjsip-core-x86_64-x64-vc14-release:sip_parser.obj
 0002:000194e4       $unwind$parse_hdr_allow    00000001400854e4     pjsip-core-x86_64-x64-vc14-release:sip_parser.obj
 0002:000194e4       $unwind$parse_hdr_call_id  00000001400854e4     pjsip-core-x86_64-x64-vc14-release:sip_parser.obj
 0002:000194e4       $unwind$parse_hdr_from     00000001400854e4     pjsip-core-x86_64-x64-vc14-release:sip_parser.obj
 0002:000194e4       $unwind$parse_hdr_to       00000001400854e4     pjsip-core-x86_64-x64-vc14-release:sip_parser.obj
 0002:000194e4       $unwind$parse_hdr_unsupported 00000001400854e4     pjsip-core-x86_64-x64-vc14-release:sip_parser.obj
 0002:000194e4       $unwind$pjsip_tx_data_set_transport 00000001400854e4     pjsip-core-x86_64-x64-vc14-release:sip_transport.obj
 0002:000194e4       $unwind$other_uri_cmp      00000001400854e4     pjsip-core-x86_64-x64-vc14-release:sip_uri.obj
 0002:000194e4       $unwind$pjsip_sip_uri_create 00000001400854e4     pjsip-core-x86_64-x64-vc14-release:sip_uri.obj
 0002:000194e4       $unwind$pjsip_get_request_dest 00000001400854e4     pjsip-core-x86_64-x64-vc14-release:sip_util.obj
 0002:000194e4       $unwind$pjsip_target_set_set_current 00000001400854e4     pjsip-core-x86_64-x64-vc14-release:sip_util.obj
 0002:000194e4       $unwind$clear_all_responses 00000001400854e4     pjsip-ua-x86_64-x64-vc14-release:sip_100rel.obj
 0002:000194e4       $unwind$inv_handle_incoming_reliable_response 00000001400854e4     pjsip-ua-x86_64-x64-vc14-release:sip_inv.obj
 0002:000194e4       $unwind$inv_perform_pending_bye 00000001400854e4     pjsip-ua-x86_64-x64-vc14-release:sip_inv.obj
 0002:000194e4       $unwind$inv_respond_incoming_prack 00000001400854e4     pjsip-ua-x86_64-x64-vc14-release:sip_inv.obj
 0002:000194e4       $unwind$pjsip_inv_uac_restart 00000001400854e4     pjsip-ua-x86_64-x64-vc14-release:sip_inv.obj
 0002:000194e4       $unwind$pjsip_timer_init_session 00000001400854e4     pjsip-ua-x86_64-x64-vc14-release:sip_timer.obj
 0002:000194e4       $unwind$pjsip_timer_update_req 00000001400854e4     pjsip-ua-x86_64-x64-vc14-release:sip_timer.obj
 0002:000194e4       $unwind$spx_fft_init       00000001400854e4     libspeex-x86_64-x64-vc14-release:fftwrap.obj
 0002:000194e4       $unwind$spx_ifft           00000001400854e4     libspeex-x86_64-x64-vc14-release:fftwrap.obj
 0002:000194e4       $unwind$spx_drft_init      00000001400854e4     libspeex-x86_64-x64-vc14-release:smallft.obj
 0002:000194e4       $unwind$srtp_aes_decrypt   00000001400854e4     libsrtp-x86_64-x64-vc14-release:aes.obj
 0002:000194e4       $unwind$srtp_aes_encrypt   00000001400854e4     libsrtp-x86_64-x64-vc14-release:aes.obj
 0002:000194e4       $unwind$srtp_aes_icm_advance 00000001400854e4     libsrtp-x86_64-x64-vc14-release:aes_icm.obj
 0002:000194e4       $unwind$srtp_crypto_alloc  00000001400854e4     libsrtp-x86_64-x64-vc14-release:alloc.obj
 0002:000194e4       $unwind$bitvector_alloc    00000001400854e4     libsrtp-x86_64-x64-vc14-release:datatypes.obj
 0002:000194e4       $unwind$srtp_null_cipher_alloc 00000001400854e4     libsrtp-x86_64-x64-vc14-release:null_cipher.obj
 0002:000194e4       $unwind$srtp_rdb_add_index 00000001400854e4     libsrtp-x86_64-x64-vc14-release:rdb.obj
 0002:000194e4       $unwind$srtp_rdbx_add_index 00000001400854e4     libsrtp-x86_64-x64-vc14-release:rdbx.obj
 0002:000194e4       $unwind$srtp_rdbx_set_roc  00000001400854e4     libsrtp-x86_64-x64-vc14-release:rdbx.obj
 0002:000194e4       $unwind$be64_to_cpu        00000001400854e4     libsrtp-x86_64-x64-vc14-release:srtp.obj
 0002:000194e4       $unwind$srtp_kdf_init      00000001400854e4     libsrtp-x86_64-x64-vc14-release:srtp.obj
 0002:000194e4       $unwind$srtp_validate_rtp_header 00000001400854e4     libsrtp-x86_64-x64-vc14-release:srtp.obj
 0002:000194e4       $unwind$_RTC_Initialize    00000001400854e4     MSVCRT:initsect.obj
 0002:000194e4       $unwind$_RTC_Terminate     00000001400854e4     MSVCRT:initsect.obj
 0002:000194e4       $unwind$__scrt_unhandled_exception_filter 00000001400854e4     MSVCRT:utility_desktop.obj
 0002:000194f0       $unwind$pjsip_inv_process_redirect 00000001400854f0     pjsip-ua-x86_64-x64-vc14-release:sip_inv.obj
 0002:0001950c       $chain$0$pjsip_inv_process_redirect 000000014008550c     pjsip-ua-x86_64-x64-vc14-release:sip_inv.obj
 0002:00019520       $chain$1$pjsip_inv_process_redirect 0000000140085520     pjsip-ua-x86_64-x64-vc14-release:sip_inv.obj
 0002:00019530       $unwind$pjsip_inv_invite   0000000140085530     pjsip-ua-x86_64-x64-vc14-release:sip_inv.obj
 0002:00019540       $chain$0$pjsip_inv_invite  0000000140085540     pjsip-ua-x86_64-x64-vc14-release:sip_inv.obj
 0002:00019554       $chain$1$pjsip_inv_invite  0000000140085554     pjsip-ua-x86_64-x64-vc14-release:sip_inv.obj
 0002:00019564       $unwind$pjsip_inv_initial_answer 0000000140085564     pjsip-ua-x86_64-x64-vc14-release:sip_inv.obj
 0002:00019578       $unwind$pjsip_inv_answer   0000000140085578     pjsip-ua-x86_64-x64-vc14-release:sip_inv.obj
 0002:0001958c       $chain$0$pjsip_inv_answer  000000014008558c     pjsip-ua-x86_64-x64-vc14-release:sip_inv.obj
 0002:000195a0       $chain$1$pjsip_inv_answer  00000001400855a0     pjsip-ua-x86_64-x64-vc14-release:sip_inv.obj
 0002:000195b0       $unwind$pjsip_inv_end_session 00000001400855b0     pjsip-ua-x86_64-x64-vc14-release:sip_inv.obj
 0002:000195c0       $chain$0$pjsip_inv_end_session 00000001400855c0     pjsip-ua-x86_64-x64-vc14-release:sip_inv.obj
 0002:000195d4       $chain$2$pjsip_inv_end_session 00000001400855d4     pjsip-ua-x86_64-x64-vc14-release:sip_inv.obj
 0002:000195e8       $chain$3$pjsip_inv_end_session 00000001400855e8     pjsip-ua-x86_64-x64-vc14-release:sip_inv.obj
 0002:000195f8       $unwind$pjsip_inv_update   00000001400855f8     pjsip-ua-x86_64-x64-vc14-release:sip_inv.obj
 0002:00019608       $chain$0$pjsip_inv_update  0000000140085608     pjsip-ua-x86_64-x64-vc14-release:sip_inv.obj
 0002:0001961c       $chain$2$pjsip_inv_update  000000014008561c     pjsip-ua-x86_64-x64-vc14-release:sip_inv.obj
 0002:00019630       $chain$3$pjsip_inv_update  0000000140085630     pjsip-ua-x86_64-x64-vc14-release:sip_inv.obj
 0002:00019640       $unwind$pjsip_inv_send_msg 0000000140085640     pjsip-ua-x86_64-x64-vc14-release:sip_inv.obj
 0002:0001964c       $chain$3$pjsip_inv_send_msg 000000014008564c     pjsip-ua-x86_64-x64-vc14-release:sip_inv.obj
 0002:0001966c       $chain$4$pjsip_inv_send_msg 000000014008566c     pjsip-ua-x86_64-x64-vc14-release:sip_inv.obj
 0002:0001967c       $unwind$pj_pool_create_on_buf 000000014008567c     pjlib-x86_64-x64-vc14-release:pool_buf.obj
 0002:0001967c       $unwind$tsx_on_state_calling 000000014008567c     pjsip-core-x86_64-x64-vc14-release:sip_transaction.obj
 0002:0001967c       $unwind$pjsip_create_sdp_body 000000014008567c     pjsip-ua-x86_64-x64-vc14-release:sip_inv.obj
 0002:0001968c       $unwind$pjsip_rdata_get_sdp_info 000000014008568c     pjsip-ua-x86_64-x64-vc14-release:sip_inv.obj
 0002:0001969c       $chain$0$pjsip_rdata_get_sdp_info 000000014008569c     pjsip-ua-x86_64-x64-vc14-release:sip_inv.obj
 0002:000196b0       $chain$1$pjsip_rdata_get_sdp_info 00000001400856b0     pjsip-ua-x86_64-x64-vc14-release:sip_inv.obj
 0002:000196c4       $chain$2$pjsip_rdata_get_sdp_info 00000001400856c4     pjsip-ua-x86_64-x64-vc14-release:sip_inv.obj
 0002:000196d4       $chain$3$pjsip_rdata_get_sdp_info 00000001400856d4     pjsip-ua-x86_64-x64-vc14-release:sip_inv.obj
 0002:000196e4       $unwind$_snprintf          00000001400856e4     pjsip-ua-x86_64-x64-vc14-release:sip_inv.obj
 0002:000196f4       $unwind$mod_inv_load       00000001400856f4     pjsip-ua-x86_64-x64-vc14-release:sip_inv.obj
 0002:00019708       $unwind$mod_inv_on_rx_request 0000000140085708     pjsip-ua-x86_64-x64-vc14-release:sip_inv.obj
 0002:00019708       $unwind$mod_inv_on_rx_response 0000000140085708     pjsip-ua-x86_64-x64-vc14-release:sip_inv.obj
 0002:00019714       $unwind$mod_inv_on_tsx_state 0000000140085714     pjsip-ua-x86_64-x64-vc14-release:sip_inv.obj
 0002:00019720       $chain$0$mod_inv_on_tsx_state 0000000140085720     pjsip-ua-x86_64-x64-vc14-release:sip_inv.obj
 0002:00019734       $chain$1$mod_inv_on_tsx_state 0000000140085734     pjsip-ua-x86_64-x64-vc14-release:sip_inv.obj
 0002:00019748       $chain$2$mod_inv_on_tsx_state 0000000140085748     pjsip-ua-x86_64-x64-vc14-release:sip_inv.obj
 0002:00019758       $chain$3$mod_inv_on_tsx_state 0000000140085758     pjsip-ua-x86_64-x64-vc14-release:sip_inv.obj
 0002:00019768       $unwind$init_mutex         0000000140085768     pjlib-x86_64-x64-vc14-release:os_core_win32.obj
 0002:00019768       $unwind$pj_rwmutex_lock_read 0000000140085768     pjlib-x86_64-x64-vc14-release:os_core_win32.obj
 0002:00019768       $unwind$pj_rwmutex_unlock_read 0000000140085768     pjlib-x86_64-x64-vc14-release:os_core_win32.obj
 0002:00019768       $unwind$g711_enum_codecs   0000000140085768     pjmedia-x86_64-x64-vc14-release:g711.obj
 0002:00019768       $unwind$parse_hdr_max_forwards 0000000140085768     pjsip-core-x86_64-x64-vc14-release:sip_parser.obj
 0002:00019768       $unwind$udp_on_write_complete 0000000140085768     pjsip-core-x86_64-x64-vc14-release:sip_transport_udp.obj
 0002:00019768       $unwind$inv_handle_bye_response 0000000140085768     pjsip-ua-x86_64-x64-vc14-release:sip_inv.obj
 0002:00019768       $unwind$inv_on_state_incoming 0000000140085768     pjsip-ua-x86_64-x64-vc14-release:sip_inv.obj
 0002:00019768       $unwind$inv_on_state_null  0000000140085768     pjsip-ua-x86_64-x64-vc14-release:sip_inv.obj
 0002:00019778       $unwind$inv_on_state_calling 0000000140085778     pjsip-ua-x86_64-x64-vc14-release:sip_inv.obj
 0002:00019788       $chain$0$inv_on_state_calling 0000000140085788     pjsip-ua-x86_64-x64-vc14-release:sip_inv.obj
 0002:0001979c       $chain$1$inv_on_state_calling 000000014008579c     pjsip-ua-x86_64-x64-vc14-release:sip_inv.obj
 0002:000197b0       $chain$2$inv_on_state_calling 00000001400857b0     pjsip-ua-x86_64-x64-vc14-release:sip_inv.obj
 0002:000197c0       $chain$3$inv_on_state_calling 00000001400857c0     pjsip-ua-x86_64-x64-vc14-release:sip_inv.obj
 0002:000197d0       $unwind$inv_on_state_early 00000001400857d0     pjsip-ua-x86_64-x64-vc14-release:sip_inv.obj
 0002:000197e0       $unwind$inv_on_state_connecting 00000001400857e0     pjsip-ua-x86_64-x64-vc14-release:sip_inv.obj
 0002:000197f0       $chain$0$inv_on_state_connecting 00000001400857f0     pjsip-ua-x86_64-x64-vc14-release:sip_inv.obj
 0002:00019804       $chain$1$inv_on_state_connecting 0000000140085804     pjsip-ua-x86_64-x64-vc14-release:sip_inv.obj
 0002:00019814       $unwind$inv_on_state_confirmed 0000000140085814     pjsip-ua-x86_64-x64-vc14-release:sip_inv.obj
 0002:00019828       $chain$2$inv_on_state_confirmed 0000000140085828     pjsip-ua-x86_64-x64-vc14-release:sip_inv.obj
 0002:00019844       $chain$3$inv_on_state_confirmed 0000000140085844     pjsip-ua-x86_64-x64-vc14-release:sip_inv.obj
 0002:00019854       $unwind$pj_sock_select     0000000140085854     pjlib-x86_64-x64-vc14-release:sock_select.obj
 0002:00019854       $unwind$inv_on_state_disconnected 0000000140085854     pjsip-ua-x86_64-x64-vc14-release:sip_inv.obj
 0002:00019868       $unwind$inv_check_sdp_in_incoming_msg 0000000140085868     pjsip-ua-x86_64-x64-vc14-release:sip_inv.obj
 0002:00019884       $chain$0$inv_negotiate_sdp 0000000140085884     pjsip-ua-x86_64-x64-vc14-release:sip_inv.obj
 0002:00019898       $chain$2$inv_negotiate_sdp 0000000140085898     pjsip-ua-x86_64-x64-vc14-release:sip_inv.obj
 0002:00019898       $chain$4$inv_negotiate_sdp 0000000140085898     pjsip-ua-x86_64-x64-vc14-release:sip_inv.obj
 0002:000198ac       $unwind$pj_str_unescape    00000001400858ac     pjlib-util-x86_64-x64-vc14-release:string.obj
 0002:000198ac       $unwind$process_answer     00000001400858ac     pjsip-ua-x86_64-x64-vc14-release:sip_inv.obj
 0002:000198ac       $unwind$min_se_hdr_print   00000001400858ac     pjsip-ua-x86_64-x64-vc14-release:sip_timer.obj
 0002:000198c4       $unwind$inv_check_secure_dlg 00000001400858c4     pjsip-ua-x86_64-x64-vc14-release:sip_inv.obj
 0002:000198dc       $unwind$inv_set_state      00000001400858dc     pjsip-ua-x86_64-x64-vc14-release:sip_inv.obj
 0002:000198f4       $unwind$inv_has_pending_answer 00000001400858f4     pjsip-ua-x86_64-x64-vc14-release:sip_inv.obj
 0002:00019900       $unwind$inv_send_ack       0000000140085900     pjsip-ua-x86_64-x64-vc14-release:sip_inv.obj
 0002:00019908       $chain$3$inv_send_ack      0000000140085908     pjsip-ua-x86_64-x64-vc14-release:sip_inv.obj
 0002:00019928       $chain$5$inv_send_ack      0000000140085928     pjsip-ua-x86_64-x64-vc14-release:sip_inv.obj
 0002:00019948       $chain$6$inv_send_ack      0000000140085948     pjsip-ua-x86_64-x64-vc14-release:sip_inv.obj
 0002:00019958       $unwind$cleanup_allow_sup_hdr 0000000140085958     pjsip-ua-x86_64-x64-vc14-release:sip_inv.obj
 0002:0001996c       $chain$0$cleanup_allow_sup_hdr 000000014008596c     pjsip-ua-x86_64-x64-vc14-release:sip_inv.obj
 0002:00019980       $chain$1$cleanup_allow_sup_hdr 0000000140085980     pjsip-ua-x86_64-x64-vc14-release:sip_inv.obj
 0002:00019990       $unwind$pj_md5_final       0000000140085990     pjlib-util-x86_64-x64-vc14-release:md5.obj
 0002:00019990       $unwind$pj_array_insert    0000000140085990     pjlib-x86_64-x64-vc14-release:array.obj
 0002:00019990       $unwind$guid_to_str        0000000140085990     pjlib-x86_64-x64-vc14-release:guid_win32.obj
 0002:00019990       $unwind$pj_hash_calc       0000000140085990     pjlib-x86_64-x64-vc14-release:hash.obj
 0002:00019990       $unwind$pj_hash_create     0000000140085990     pjlib-x86_64-x64-vc14-release:hash.obj
 0002:00019990       $unwind$MyGetIpAddrTable   0000000140085990     pjlib-x86_64-x64-vc14-release:ip_helper_win32.obj
 0002:00019990       $unwind$pj_enum_ip_interface 0000000140085990     pjlib-x86_64-x64-vc14-release:ip_helper_win32.obj
 0002:00019990       $unwind$grp_lock_acquire   0000000140085990     pjlib-x86_64-x64-vc14-release:lock.obj
 0002:00019990       $unwind$grp_lock_release   0000000140085990     pjlib-x86_64-x64-vc14-release:lock.obj
 0002:00019990       $unwind$pj_caching_pool_init 0000000140085990     pjlib-x86_64-x64-vc14-release:pool_caching.obj
 0002:00019990       $unwind$default_block_free 0000000140085990     pjlib-x86_64-x64-vc14-release:pool_policy_malloc.obj
 0002:00019990       $unwind$pj_sock_bind       0000000140085990     pjlib-x86_64-x64-vc14-release:sock_bsd.obj
 0002:00019990       $unwind$pj_sock_connect    0000000140085990     pjlib-x86_64-x64-vc14-release:sock_bsd.obj
 0002:00019990       $unwind$pj_sock_getsockname 0000000140085990     pjlib-x86_64-x64-vc14-release:sock_bsd.obj
 0002:00019990       $unwind$PJ_FD_CLR          0000000140085990     pjlib-x86_64-x64-vc14-release:sock_select.obj
 0002:00019990       $unwind$PJ_FD_SET          0000000140085990     pjlib-x86_64-x64-vc14-release:sock_select.obj
 0002:00019990       $unwind$pj_strcmp2         0000000140085990     pjlib-x86_64-x64-vc14-release:string.obj
 0002:00019990       $unwind$pj_strdup3         0000000140085990     pjlib-x86_64-x64-vc14-release:string.obj
 0002:00019990       $unwind$pj_stricmp2        0000000140085990     pjlib-x86_64-x64-vc14-release:string.obj
 0002:00019990       $unwind$pj_strltrim        0000000140085990     pjlib-x86_64-x64-vc14-release:string.obj
 0002:00019990       $unwind$pj_utoa            0000000140085990     pjlib-x86_64-x64-vc14-release:string.obj
 0002:00019990       $unwind$pj_timer_heap_set_lock 0000000140085990     pjlib-x86_64-x64-vc14-release:timer.obj
 0002:00019990       $unwind$pjmedia_codec_mgr_get_codec_info 0000000140085990     pjmedia-x86_64-x64-vc14-release:codec.obj
 0002:00019990       $unwind$pjmedia_sdp_conn_clone 0000000140085990     pjmedia-x86_64-x64-vc14-release:sdp.obj
 0002:00019990       $unwind$pjmedia_sdp_neg_send_local_offer 0000000140085990     pjmedia-x86_64-x64-vc14-release:sdp_neg.obj
 0002:00019990       $unwind$pjmedia_sdp_neg_set_local_answer 0000000140085990     pjmedia-x86_64-x64-vc14-release:sdp_neg.obj
 0002:00019990       $unwind$play_cb            0000000140085990     pjmedia-x86_64-x64-vc14-release:sound_port.obj
 0002:00019990       $unwind$rec_cb             0000000140085990     pjmedia-x86_64-x64-vc14-release:sound_port.obj
 0002:00019990       $unwind$pjmedia_get_type   0000000140085990     pjmedia-x86_64-x64-vc14-release:types.obj
 0002:00019990       $unwind$pjsip_authorization_hdr_shallow_clone 0000000140085990     pjsip-core-x86_64-x64-vc14-release:sip_auth_msg.obj
 0002:00019990       $unwind$pjsip_www_authenticate_hdr_shallow_clone 0000000140085990     pjsip-core-x86_64-x64-vc14-release:sip_auth_msg.obj
 0002:00019990       $unwind$destroy_dialog     0000000140085990     pjsip-core-x86_64-x64-vc14-release:sip_dialog.obj
 0002:00019990       $unwind$pjsip_dlg_send_response 0000000140085990     pjsip-core-x86_64-x64-vc14-release:sip_dialog.obj
 0002:00019990       $unwind$pjsip_endpt_has_capability 0000000140085990     pjsip-core-x86_64-x64-vc14-release:sip_endpoint.obj
 0002:00019990       $unwind$pjsip_clen_hdr_print 0000000140085990     pjsip-core-x86_64-x64-vc14-release:sip_msg.obj
 0002:00019990       $unwind$pjsip_contact_hdr_shallow_clone 0000000140085990     pjsip-core-x86_64-x64-vc14-release:sip_msg.obj
 0002:00019990       $unwind$pjsip_cseq_hdr_clone 0000000140085990     pjsip-core-x86_64-x64-vc14-release:sip_msg.obj
 0002:00019990       $unwind$pjsip_fromto_hdr_shallow_clone 0000000140085990     pjsip-core-x86_64-x64-vc14-release:sip_msg.obj
 0002:00019990       $unwind$pjsip_generic_int_hdr_print 0000000140085990     pjsip-core-x86_64-x64-vc14-release:sip_msg.obj
 0002:00019990       $unwind$pjsip_generic_string_hdr_print 0000000140085990     pjsip-core-x86_64-x64-vc14-release:sip_msg.obj
 0002:00019990       $unwind$pjsip_media_type_cmp 0000000140085990     pjsip-core-x86_64-x64-vc14-release:sip_msg.obj
 0002:00019990       $unwind$pjsip_msg_find_hdr_by_name 0000000140085990     pjsip-core-x86_64-x64-vc14-release:sip_msg.obj
 0002:00019990       $unwind$pjsip_retry_after_hdr_shallow_clone 0000000140085990     pjsip-core-x86_64-x64-vc14-release:sip_msg.obj
 0002:00019990       $unwind$pjsip_routing_hdr_shallow_clone 0000000140085990     pjsip-core-x86_64-x64-vc14-release:sip_msg.obj
 0002:00019990       $unwind$pjsip_via_hdr_shallow_clone 0000000140085990     pjsip-core-x86_64-x64-vc14-release:sip_msg.obj
 0002:00019990       $unwind$pjsip_multipart_find_part 0000000140085990     pjsip-core-x86_64-x64-vc14-release:sip_multipart.obj
 0002:00019990       $unwind$int_parse_other_uri 0000000140085990     pjsip-core-x86_64-x64-vc14-release:sip_parser.obj
 0002:00019990       $unwind$pjsip_tsx_retransmit_no_state 0000000140085990     pjsip-core-x86_64-x64-vc14-release:sip_transaction.obj
 0002:00019990       $unwind$other_uri_clone    0000000140085990     pjsip-core-x86_64-x64-vc14-release:sip_uri.obj
 0002:00019990       $unwind$pjsip_name_addr_assign 0000000140085990     pjsip-core-x86_64-x64-vc14-release:sip_uri.obj
 0002:00019990       $unwind$pjsip_name_addr_clone 0000000140085990     pjsip-core-x86_64-x64-vc14-release:sip_uri.obj
 0002:00019990       $unwind$pjsip_name_addr_compare 0000000140085990     pjsip-core-x86_64-x64-vc14-release:sip_uri.obj
 0002:00019990       $unwind$pjsip_param_find   0000000140085990     pjsip-core-x86_64-x64-vc14-release:sip_uri.obj
 0002:00019990       $unwind$find_req_hdr       0000000140085990     pjsip-ua-x86_64-x64-vc14-release:sip_100rel.obj
 0002:00019990       $unwind$inv_uac_recurse    0000000140085990     pjsip-ua-x86_64-x64-vc14-release:sip_inv.obj
 0002:00019990       $unwind$add_timer_headers  0000000140085990     pjsip-ua-x86_64-x64-vc14-release:sip_timer.obj
 0002:00019990       $unwind$min_se_hdr_clone   0000000140085990     pjsip-ua-x86_64-x64-vc14-release:sip_timer.obj
 0002:00019990       $unwind$min_se_hdr_shallow_clone 0000000140085990     pjsip-ua-x86_64-x64-vc14-release:sip_timer.obj
 0002:00019990       $unwind$se_hdr_shallow_clone 0000000140085990     pjsip-ua-x86_64-x64-vc14-release:sip_timer.obj
 0002:00019990       $unwind$speex_preprocess_ctl 0000000140085990     libspeex-x86_64-x64-vc14-release:preprocess.obj
 0002:00019990       $unwind$srtp_cipher_output 0000000140085990     libsrtp-x86_64-x64-vc14-release:cipher.obj
 0002:00019990       $unwind$srtp_hmac_alloc    0000000140085990     libsrtp-x86_64-x64-vc14-release:hmac.obj
 0002:00019990       $unwind$srtp_hmac_update   0000000140085990     libsrtp-x86_64-x64-vc14-release:hmac.obj
 0002:00019990       $unwind$srtp_null_auth_alloc 0000000140085990     libsrtp-x86_64-x64-vc14-release:null_auth.obj
 0002:000199a0       $unwind$inv_respond_incoming_cancel 00000001400859a0     pjsip-ua-x86_64-x64-vc14-release:sip_inv.obj
 0002:000199b4       $unwind$transport_callback 00000001400859b4     pjsip-core-x86_64-x64-vc14-release:sip_transaction.obj
 0002:000199b4       $unwind$tsx_update_transport 00000001400859b4     pjsip-core-x86_64-x64-vc14-release:sip_transaction.obj
 0002:000199b4       $unwind$inv_respond_incoming_bye 00000001400859b4     pjsip-ua-x86_64-x64-vc14-release:sip_inv.obj
 0002:000199c4       $unwind$inv_respond_incoming_update 00000001400859c4     pjsip-ua-x86_64-x64-vc14-release:sip_inv.obj
 0002:000199d0       $chain$0$inv_respond_incoming_update 00000001400859d0     pjsip-ua-x86_64-x64-vc14-release:sip_inv.obj
 0002:000199e4       $chain$2$inv_respond_incoming_update 00000001400859e4     pjsip-ua-x86_64-x64-vc14-release:sip_inv.obj
 0002:000199f8       $chain$3$inv_respond_incoming_update 00000001400859f8     pjsip-ua-x86_64-x64-vc14-release:sip_inv.obj
 0002:00019a08       $unwind$pj_timer_heap_schedule_dbg 0000000140085a08     pjlib-x86_64-x64-vc14-release:timer.obj
 0002:00019a08       $unwind$jb_framelist_put_at 0000000140085a08     pjmedia-x86_64-x64-vc14-release:jbuf.obj
 0002:00019a08       $unwind$pjsip_endpt_handle_events 0000000140085a08     pjsip-core-x86_64-x64-vc14-release:sip_endpoint.obj
 0002:00019a08       $unwind$pjsip_get_response_addr 0000000140085a08     pjsip-core-x86_64-x64-vc14-release:sip_util.obj
 0002:00019a08       $unwind$inv_handle_update_response 0000000140085a08     pjsip-ua-x86_64-x64-vc14-release:sip_inv.obj
 0002:00019a08       $unwind$srtp_sha1_update   0000000140085a08     libsrtp-x86_64-x64-vc14-release:sha1.obj
 0002:00019a1c       $unwind$handle_uac_tsx_response 0000000140085a1c     pjsip-ua-x86_64-x64-vc14-release:sip_inv.obj
 0002:00019a2c       $unwind$handle_uac_call_rejection 0000000140085a2c     pjsip-ua-x86_64-x64-vc14-release:sip_inv.obj
 0002:00019a3c       $unwind$pjsip_100rel_attach 0000000140085a3c     pjsip-ua-x86_64-x64-vc14-release:sip_100rel.obj
 0002:00019a48       $unwind$pj_scan_peek       0000000140085a48     pjlib-util-x86_64-x64-vc14-release:scanner.obj
 0002:00019a48       $unwind$exception_cleanup  0000000140085a48     pjlib-x86_64-x64-vc14-release:except.obj
 0002:00019a48       $unwind$pj_exception_id_name 0000000140085a48     pjlib-x86_64-x64-vc14-release:except.obj
 0002:00019a48       $unwind$unload_iphlp_module 0000000140085a48     pjlib-x86_64-x64-vc14-release:ip_helper_win32.obj
 0002:00019a48       $unwind$pj_grp_lock_add_ref 0000000140085a48     pjlib-x86_64-x64-vc14-release:lock.obj
 0002:00019a48       $unwind$logging_shutdown   0000000140085a48     pjlib-x86_64-x64-vc14-release:log.obj
 0002:00019a48       $unwind$pj_log_pop_indent  0000000140085a48     pjlib-x86_64-x64-vc14-release:log.obj
 0002:00019a48       $unwind$pj_log_push_indent 0000000140085a48     pjlib-x86_64-x64-vc14-release:log.obj
 0002:00019a48       $unwind$pj_thread_local_set 0000000140085a48     pjlib-x86_64-x64-vc14-release:os_core_win32.obj
 0002:00019a48       $unwind$pj_get_netos_error 0000000140085a48     pjlib-x86_64-x64-vc14-release:os_error_win32.obj
 0002:00019a48       $unwind$pj_get_os_error    0000000140085a48     pjlib-x86_64-x64-vc14-release:os_error_win32.obj
 0002:00019a48       $unwind$pool_buf_cleanup   0000000140085a48     pjlib-x86_64-x64-vc14-release:pool_buf.obj
 0002:00019a48       $unwind$default_pool_callback 0000000140085a48     pjlib-x86_64-x64-vc14-release:pool_policy_malloc.obj
 0002:00019a48       $unwind$pj_gethostname     0000000140085a48     pjlib-x86_64-x64-vc14-release:sock_bsd.obj
 0002:00019a48       $unwind$factory_init       0000000140085a48     pjmedia-audiodev-x86_64-x64-vc14-release:wmme_dev.obj
 0002:00019a48       $unwind$pjmedia_clock_src_init 0000000140085a48     pjmedia-x86_64-x64-vc14-release:clock_thread.obj
 0002:00019a48       $unwind$pjmedia_clock_src_update 0000000140085a48     pjmedia-x86_64-x64-vc14-release:clock_thread.obj
 0002:00019a48       $unwind$pjmedia_jbuf_get_state 0000000140085a48     pjmedia-x86_64-x64-vc14-release:jbuf.obj
 0002:00019a48       $unwind$pjmedia_plc_generate 0000000140085a48     pjmedia-x86_64-x64-vc14-release:plc_common.obj
 0002:00019a48       $unwind$pjmedia_plc_save   0000000140085a48     pjmedia-x86_64-x64-vc14-release:plc_common.obj
 0002:00019a48       $unwind$init_sdp_parser    0000000140085a48     pjmedia-x86_64-x64-vc14-release:sdp.obj
 0002:00019a48       $unwind$on_scanner_error   0000000140085a48     pjmedia-x86_64-x64-vc14-release:sdp.obj
 0002:00019a48       $unwind$get_libsrtp_errstr 0000000140085a48     pjmedia-x86_64-x64-vc14-release:transport_srtp.obj
 0002:00019a48       $unwind$pjsip_authorization_hdr_create 0000000140085a48     pjsip-core-x86_64-x64-vc14-release:sip_auth_msg.obj
 0002:00019a48       $unwind$pjsip_proxy_authenticate_hdr_create 0000000140085a48     pjsip-core-x86_64-x64-vc14-release:sip_auth_msg.obj
 0002:00019a48       $unwind$pjsip_proxy_authorization_hdr_create 0000000140085a48     pjsip-core-x86_64-x64-vc14-release:sip_auth_msg.obj
 0002:00019a48       $unwind$pjsip_www_authenticate_hdr_create 0000000140085a48     pjsip-core-x86_64-x64-vc14-release:sip_auth_msg.obj
 0002:00019a48       $unwind$parse_pgp_challenge 0000000140085a48     pjsip-core-x86_64-x64-vc14-release:sip_auth_parser.obj
 0002:00019a48       $unwind$parse_pgp_credential 0000000140085a48     pjsip-core-x86_64-x64-vc14-release:sip_auth_parser.obj
 0002:00019a48       $unwind$pjsip_auth_init_parser 0000000140085a48     pjsip-core-x86_64-x64-vc14-release:sip_auth_parser.obj
 0002:00019a48       $unwind$pool_callback      0000000140085a48     pjsip-core-x86_64-x64-vc14-release:sip_endpoint.obj
 0002:00019a48       $unwind$pjsip_accept_hdr_create 0000000140085a48     pjsip-core-x86_64-x64-vc14-release:sip_msg.obj
 0002:00019a48       $unwind$pjsip_allow_hdr_create 0000000140085a48     pjsip-core-x86_64-x64-vc14-release:sip_msg.obj
 0002:00019a48       $unwind$pjsip_cid_hdr_create 0000000140085a48     pjsip-core-x86_64-x64-vc14-release:sip_msg.obj
 0002:00019a48       $unwind$pjsip_clen_hdr_create 0000000140085a48     pjsip-core-x86_64-x64-vc14-release:sip_msg.obj
 0002:00019a48       $unwind$pjsip_contact_hdr_create 0000000140085a48     pjsip-core-x86_64-x64-vc14-release:sip_msg.obj
 0002:00019a48       $unwind$pjsip_cseq_hdr_create 0000000140085a48     pjsip-core-x86_64-x64-vc14-release:sip_msg.obj
 0002:00019a48       $unwind$pjsip_ctype_hdr_create 0000000140085a48     pjsip-core-x86_64-x64-vc14-release:sip_msg.obj
 0002:00019a48       $unwind$pjsip_from_hdr_create 0000000140085a48     pjsip-core-x86_64-x64-vc14-release:sip_msg.obj
 0002:00019a48       $unwind$pjsip_get_status_text 0000000140085a48     pjsip-core-x86_64-x64-vc14-release:sip_msg.obj
 0002:00019a48       $unwind$pjsip_require_hdr_create 0000000140085a48     pjsip-core-x86_64-x64-vc14-release:sip_msg.obj
 0002:00019a48       $unwind$pjsip_supported_hdr_create 0000000140085a48     pjsip-core-x86_64-x64-vc14-release:sip_msg.obj
 0002:00019a48       $unwind$pjsip_to_hdr_create 0000000140085a48     pjsip-core-x86_64-x64-vc14-release:sip_msg.obj
 0002:00019a48       $unwind$pjsip_unsupported_hdr_create 0000000140085a48     pjsip-core-x86_64-x64-vc14-release:sip_msg.obj
 0002:00019a48       $unwind$deinit_sip_parser  0000000140085a48     pjsip-core-x86_64-x64-vc14-release:sip_parser.obj
 0002:00019a48       $unwind$init_sip_parser    0000000140085a48     pjsip-core-x86_64-x64-vc14-release:sip_parser.obj
 0002:00019a48       $unwind$on_syntax_error    0000000140085a48     pjsip-core-x86_64-x64-vc14-release:sip_parser.obj
 0002:00019a48       $unwind$pjsip_tel_uri_subsys_init 0000000140085a48     pjsip-core-x86_64-x64-vc14-release:sip_tel_uri.obj
 0002:00019a48       $unwind$tel_uri_get_scheme 0000000140085a48     pjsip-core-x86_64-x64-vc14-release:sip_tel_uri.obj
 0002:00019a48       $unwind$mod_tsx_layer_unload 0000000140085a48     pjsip-core-x86_64-x64-vc14-release:sip_transaction.obj
 0002:00019a48       $unwind$tsx_layer_destroy  0000000140085a48     pjsip-core-x86_64-x64-vc14-release:sip_transaction.obj
 0002:00019a48       $unwind$mod_ua_load        0000000140085a48     pjsip-core-x86_64-x64-vc14-release:sip_ua_layer.obj
 0002:00019a48       $unwind$mod_ua_unload      0000000140085a48     pjsip-core-x86_64-x64-vc14-release:sip_ua_layer.obj
 0002:00019a48       $unwind$pjsip_name_addr_create 0000000140085a48     pjsip-core-x86_64-x64-vc14-release:sip_uri.obj
 0002:00019a48       $unwind$pjsip_other_uri_create 0000000140085a48     pjsip-core-x86_64-x64-vc14-release:sip_uri.obj
 0002:00019a48       $unwind$pjsip_target_assign_status 0000000140085a48     pjsip-core-x86_64-x64-vc14-release:sip_util.obj
 0002:00019a48       $unwind$pjsip_100rel_is_reliable 0000000140085a48     pjsip-ua-x86_64-x64-vc14-release:sip_100rel.obj
 0002:00019a48       $unwind$pjsip_100rel_send_prack 0000000140085a48     pjsip-ua-x86_64-x64-vc14-release:sip_100rel.obj
 0002:00019a48       $unwind$pjsip_timer_end_session 0000000140085a48     pjsip-ua-x86_64-x64-vc14-release:sip_timer.obj
 0002:00019a48       $unwind$srtp_null_cipher_init 0000000140085a48     libsrtp-x86_64-x64-vc14-release:null_cipher.obj
 0002:00019a48       $unwind$srtp_rdbx_dealloc  0000000140085a48     libsrtp-x86_64-x64-vc14-release:rdbx.obj
 0002:00019a48       $unwind$srtp_rdbx_set_roc_seq 0000000140085a48     libsrtp-x86_64-x64-vc14-release:rdbx.obj
 0002:00019a48       $unwind$srtp_inject_mki    0000000140085a48     libsrtp-x86_64-x64-vc14-release:srtp.obj
 0002:00019a48       $unwind$__scrt_initialize_default_local_stdio_options 0000000140085a48     MSVCRT:default_local_stdio_options.obj
 0002:00019a48       $unwind$?post_pgo_initialization@@YAHXZ 0000000140085a48     MSVCRT:exe_main.obj
 0002:00019a48       $unwind$?pre_cpp_initialization@@YAXXZ 0000000140085a48     MSVCRT:exe_main.obj
 0002:00019a48       $unwind$mainCRTStartup     0000000140085a48     MSVCRT:exe_main.obj
 0002:00019a48       $unwind$__report_rangecheckfailure 0000000140085a48     MSVCRT:gs_report.obj
 0002:00019a48       $unwind$__GSHandlerCheck   0000000140085a48     MSVCRT:gshandler.obj
 0002:00019a48       $unwind$__scrt_acquire_startup_lock 0000000140085a48     MSVCRT:utility.obj
 0002:00019a48       $unwind$atexit             0000000140085a48     MSVCRT:utility.obj
 0002:00019a48       $unwind$__scrt_is_managed_app 0000000140085a48     MSVCRT:utility_desktop.obj
 0002:00019a50       $unwind$pjsip_100rel_create_prack 0000000140085a50     pjsip-ua-x86_64-x64-vc14-release:sip_100rel.obj
 0002:00019a68       $chain$0$pjsip_100rel_create_prack 0000000140085a68     pjsip-ua-x86_64-x64-vc14-release:sip_100rel.obj
 0002:00019a7c       $chain$3$pjsip_100rel_create_prack 0000000140085a7c     pjsip-ua-x86_64-x64-vc14-release:sip_100rel.obj
 0002:00019a98       $chain$4$pjsip_100rel_create_prack 0000000140085a98     pjsip-ua-x86_64-x64-vc14-release:sip_100rel.obj
 0002:00019aa8       $chain$5$pjsip_100rel_create_prack 0000000140085aa8     pjsip-ua-x86_64-x64-vc14-release:sip_100rel.obj
 0002:00019ab8       $chain$6$pjsip_100rel_create_prack 0000000140085ab8     pjsip-ua-x86_64-x64-vc14-release:sip_100rel.obj
 0002:00019ad8       $unwind$mod_tsx_layer_on_rx_request 0000000140085ad8     pjsip-core-x86_64-x64-vc14-release:sip_transaction.obj
 0002:00019ad8       $unwind$mod_tsx_layer_on_rx_response 0000000140085ad8     pjsip-core-x86_64-x64-vc14-release:sip_transaction.obj
 0002:00019ad8       $unwind$pjsip_100rel_on_rx_prack 0000000140085ad8     pjsip-ua-x86_64-x64-vc14-release:sip_100rel.obj
 0002:00019aec       $unwind$pjsip_100rel_tx_response 0000000140085aec     pjsip-ua-x86_64-x64-vc14-release:sip_100rel.obj
 0002:00019b00       $chain$0$pjsip_100rel_tx_response 0000000140085b00     pjsip-ua-x86_64-x64-vc14-release:sip_100rel.obj
 0002:00019b14       $chain$1$pjsip_100rel_tx_response 0000000140085b14     pjsip-ua-x86_64-x64-vc14-release:sip_100rel.obj
 0002:00019b28       $chain$2$pjsip_100rel_tx_response 0000000140085b28     pjsip-ua-x86_64-x64-vc14-release:sip_100rel.obj
 0002:00019b38       $chain$3$pjsip_100rel_tx_response 0000000140085b38     pjsip-ua-x86_64-x64-vc14-release:sip_100rel.obj
 0002:00019b48       $unwind$pj_atomic_dec_and_get 0000000140085b48     pjlib-x86_64-x64-vc14-release:os_core_win32.obj
 0002:00019b48       $unwind$pj_atomic_get      0000000140085b48     pjlib-x86_64-x64-vc14-release:os_core_win32.obj
 0002:00019b48       $unwind$pj_atomic_inc_and_get 0000000140085b48     pjlib-x86_64-x64-vc14-release:os_core_win32.obj
 0002:00019b48       $unwind$pj_mutex_destroy   0000000140085b48     pjlib-x86_64-x64-vc14-release:os_core_win32.obj
 0002:00019b48       $unwind$pj_mutex_lock      0000000140085b48     pjlib-x86_64-x64-vc14-release:os_core_win32.obj
 0002:00019b48       $unwind$pj_mutex_trylock   0000000140085b48     pjlib-x86_64-x64-vc14-release:os_core_win32.obj
 0002:00019b48       $unwind$pj_mutex_unlock    0000000140085b48     pjlib-x86_64-x64-vc14-release:os_core_win32.obj
 0002:00019b48       $unwind$pj_rwmutex_destroy 0000000140085b48     pjlib-x86_64-x64-vc14-release:os_core_win32.obj
 0002:00019b48       $unwind$pj_sem_destroy     0000000140085b48     pjlib-x86_64-x64-vc14-release:os_core_win32.obj
 0002:00019b48       $unwind$pj_sem_post        0000000140085b48     pjlib-x86_64-x64-vc14-release:os_core_win32.obj
 0002:00019b48       $unwind$pj_sem_trywait     0000000140085b48     pjlib-x86_64-x64-vc14-release:os_core_win32.obj
 0002:00019b48       $unwind$pj_sem_wait        0000000140085b48     pjlib-x86_64-x64-vc14-release:os_core_win32.obj
 0002:00019b48       $unwind$pj_thread_destroy  0000000140085b48     pjlib-x86_64-x64-vc14-release:os_core_win32.obj
 0002:00019b48       $unwind$pj_thread_get_name 0000000140085b48     pjlib-x86_64-x64-vc14-release:os_core_win32.obj
 0002:00019b48       $unwind$pj_thread_local_free 0000000140085b48     pjlib-x86_64-x64-vc14-release:os_core_win32.obj
 0002:00019b48       $unwind$pj_thread_sleep    0000000140085b48     pjlib-x86_64-x64-vc14-release:os_core_win32.obj
 0002:00019b48       $unwind$thread_main        0000000140085b48     pjlib-x86_64-x64-vc14-release:os_core_win32.obj
 0002:00019b48       $unwind$pj_gettickcount    0000000140085b48     pjlib-x86_64-x64-vc14-release:os_timestamp_common.obj
 0002:00019b48       $unwind$pj_strtol          0000000140085b48     pjlib-x86_64-x64-vc14-release:string.obj
 0002:00019b48       $unwind$update             0000000140085b48     pjmedia-x86_64-x64-vc14-release:delaybuf.obj
 0002:00019b48       $unwind$event_worker_thread 0000000140085b48     pjmedia-x86_64-x64-vc14-release:event.obj
 0002:00019b48       $unwind$transport_send_rtcp 0000000140085b48     pjmedia-x86_64-x64-vc14-release:transport_srtp.obj
 0002:00019b48       $unwind$pjsip_register_uri_parser 0000000140085b48     pjsip-core-x86_64-x64-vc14-release:sip_parser.obj
 0002:00019b48       $unwind$mod_tsx_layer_register_tsx 0000000140085b48     pjsip-core-x86_64-x64-vc14-release:sip_transaction.obj
 0002:00019b48       $unwind$mod_tsx_layer_unregister_tsx 0000000140085b48     pjsip-core-x86_64-x64-vc14-release:sip_transaction.obj
 0002:00019b48       $unwind$tsx_on_state_completed_uac 0000000140085b48     pjsip-core-x86_64-x64-vc14-release:sip_transaction.obj
 0002:00019b48       $unwind$pjsip_ua_unregister_dlg 0000000140085b48     pjsip-core-x86_64-x64-vc14-release:sip_ua_layer.obj
 0002:00019b48       $unwind$mod_100rel_load    0000000140085b48     pjsip-ua-x86_64-x64-vc14-release:sip_100rel.obj
 0002:00019b50       $unwind$on_retransmit      0000000140085b50     pjsip-ua-x86_64-x64-vc14-release:sip_100rel.obj
 0002:00019b5c       $chain$0$on_retransmit     0000000140085b5c     pjsip-ua-x86_64-x64-vc14-release:sip_100rel.obj
 0002:00019b70       $chain$1$on_retransmit     0000000140085b70     pjsip-ua-x86_64-x64-vc14-release:sip_100rel.obj
 0002:00019b80       $unwind$init_res_key       0000000140085b80     pjlib-util-x86_64-x64-vc14-release:resolver.obj
 0002:00019b80       $unwind$pjsip_timer_process_resp 0000000140085b80     pjsip-ua-x86_64-x64-vc14-release:sip_timer.obj
 0002:00019b90       $chain$0$pjsip_timer_process_resp 0000000140085b90     pjsip-ua-x86_64-x64-vc14-release:sip_timer.obj
 0002:00019ba4       $chain$2$pjsip_timer_process_resp 0000000140085ba4     pjsip-ua-x86_64-x64-vc14-release:sip_timer.obj
 0002:00019bb8       $chain$3$pjsip_timer_process_resp 0000000140085bb8     pjsip-ua-x86_64-x64-vc14-release:sip_timer.obj
 0002:00019bc8       $unwind$ioqueue_dispatch_exception_event 0000000140085bc8     pjlib-x86_64-x64-vc14-release:ioqueue_select.obj
 0002:00019bc8       $unwind$pjsip_timer_handle_refresh_error 0000000140085bc8     pjsip-ua-x86_64-x64-vc14-release:sip_timer.obj
 0002:00019bd4       $chain$0$pjsip_timer_handle_refresh_error 0000000140085bd4     pjsip-ua-x86_64-x64-vc14-release:sip_timer.obj
 0002:00019be8       $chain$2$pjsip_timer_handle_refresh_error 0000000140085be8     pjsip-ua-x86_64-x64-vc14-release:sip_timer.obj
 0002:00019bfc       $chain$3$pjsip_timer_handle_refresh_error 0000000140085bfc     pjsip-ua-x86_64-x64-vc14-release:sip_timer.obj
 0002:00019c0c       $unwind$pjmedia_rtcp_init2 0000000140085c0c     pjmedia-x86_64-x64-vc14-release:rtcp.obj
 0002:00019c0c       $unwind$pjsip_timer_process_req 0000000140085c0c     pjsip-ua-x86_64-x64-vc14-release:sip_timer.obj
 0002:00019c18       $chain$1$pjsip_timer_process_req 0000000140085c18     pjsip-ua-x86_64-x64-vc14-release:sip_timer.obj
 0002:00019c30       $chain$3$pjsip_timer_process_req 0000000140085c30     pjsip-ua-x86_64-x64-vc14-release:sip_timer.obj
 0002:00019c48       $chain$4$pjsip_timer_process_req 0000000140085c48     pjsip-ua-x86_64-x64-vc14-release:sip_timer.obj
 0002:00019c58       $unwind$pj_mutex_create    0000000140085c58     pjlib-x86_64-x64-vc14-release:os_core_win32.obj
 0002:00019c58       $unwind$pj_mutex_create_recursive 0000000140085c58     pjlib-x86_64-x64-vc14-release:os_core_win32.obj
 0002:00019c58       $unwind$pj_mutex_create_simple 0000000140085c58     pjlib-x86_64-x64-vc14-release:os_core_win32.obj
 0002:00019c58       $unwind$pjsip_endpt_atexit 0000000140085c58     pjsip-core-x86_64-x64-vc14-release:sip_endpoint.obj
 0002:00019c58       $unwind$pjsip_tsx_set_transport 0000000140085c58     pjsip-core-x86_64-x64-vc14-release:sip_transaction.obj
 0002:00019c58       $unwind$pjsip_timer_update_resp 0000000140085c58     pjsip-ua-x86_64-x64-vc14-release:sip_timer.obj
 0002:00019c58       $unwind$srtp_aes_expand_decryption_key 0000000140085c58     libsrtp-x86_64-x64-vc14-release:aes.obj
 0002:00019c64       $chain$0$pjsip_timer_update_resp 0000000140085c64     pjsip-ua-x86_64-x64-vc14-release:sip_timer.obj
 0002:00019c78       $chain$2$pjsip_timer_update_resp 0000000140085c78     pjsip-ua-x86_64-x64-vc14-release:sip_timer.obj
 0002:00019c78       $chain$4$pjsip_timer_update_resp 0000000140085c78     pjsip-ua-x86_64-x64-vc14-release:sip_timer.obj
 0002:00019c8c       $chain$5$pjsip_timer_update_resp 0000000140085c8c     pjsip-ua-x86_64-x64-vc14-release:sip_timer.obj
 0002:00019c9c       $unwind$pjmedia_audiodev_strerror 0000000140085c9c     pjmedia-audiodev-x86_64-x64-vc14-release:errno.obj
 0002:00019c9c       $unwind$start_timer        0000000140085c9c     pjsip-ua-x86_64-x64-vc14-release:sip_timer.obj
 0002:00019cb0       $unwind$print_digest_challenge 0000000140085cb0     pjsip-core-x86_64-x64-vc14-release:sip_auth_msg.obj
 0002:00019cb0       $unwind$print_digest_credential 0000000140085cb0     pjsip-core-x86_64-x64-vc14-release:sip_auth_msg.obj
 0002:00019cb0       $unwind$pjsip_contact_hdr_print 0000000140085cb0     pjsip-core-x86_64-x64-vc14-release:sip_msg.obj
 0002:00019cb0       $unwind$se_hdr_print       0000000140085cb0     pjsip-ua-x86_64-x64-vc14-release:sip_timer.obj
 0002:00019ccc       $unwind$pj_ioqueue_post_completion 0000000140085ccc     pjlib-x86_64-x64-vc14-release:ioqueue_select.obj
 0002:00019ccc       $unwind$pj_list_search     0000000140085ccc     pjlib-x86_64-x64-vc14-release:list.obj
 0002:00019ccc       $unwind$grp_lock_tryacquire 0000000140085ccc     pjlib-x86_64-x64-vc14-release:lock.obj
 0002:00019ccc       $unwind$pj_grp_lock_add_handler 0000000140085ccc     pjlib-x86_64-x64-vc14-release:lock.obj
 0002:00019ccc       $unwind$pj_pool_init_int   0000000140085ccc     pjlib-x86_64-x64-vc14-release:pool.obj
 0002:00019ccc       $unwind$pj_sock_accept     0000000140085ccc     pjlib-x86_64-x64-vc14-release:sock_bsd.obj
 0002:00019ccc       $unwind$pj_sock_recv       0000000140085ccc     pjlib-x86_64-x64-vc14-release:sock_bsd.obj
 0002:00019ccc       $unwind$pj_sock_send       0000000140085ccc     pjlib-x86_64-x64-vc14-release:sock_bsd.obj
 0002:00019ccc       $unwind$pj_strtrim         0000000140085ccc     pjlib-x86_64-x64-vc14-release:string.obj
 0002:00019ccc       $unwind$pjmedia_endpt_destroy2 0000000140085ccc     pjmedia-x86_64-x64-vc14-release:endpoint.obj
 0002:00019ccc       $unwind$pjmedia_rtp_encode_rtp 0000000140085ccc     pjmedia-x86_64-x64-vc14-release:rtp.obj
 0002:00019ccc       $unwind$transport_detach   0000000140085ccc     pjmedia-x86_64-x64-vc14-release:transport_udp.obj
 0002:00019ccc       $unwind$pjsip_authorization_hdr_clone 0000000140085ccc     pjsip-core-x86_64-x64-vc14-release:sip_auth_msg.obj
 0002:00019ccc       $unwind$pjsip_www_authenticate_hdr_clone 0000000140085ccc     pjsip-core-x86_64-x64-vc14-release:sip_auth_msg.obj
 0002:00019ccc       $unwind$dlg_beautify_response 0000000140085ccc     pjsip-core-x86_64-x64-vc14-release:sip_dialog.obj
 0002:00019ccc       $unwind$pjsip_dlg_modify_response 0000000140085ccc     pjsip-core-x86_64-x64-vc14-release:sip_dialog.obj
 0002:00019ccc       $unwind$pjsip_dlg_on_tsx_state 0000000140085ccc     pjsip-core-x86_64-x64-vc14-release:sip_dialog.obj
 0002:00019ccc       $unwind$pjsip_endpt_add_capability 0000000140085ccc     pjsip-core-x86_64-x64-vc14-release:sip_endpoint.obj
 0002:00019ccc       $unwind$pjsip_contact_hdr_clone 0000000140085ccc     pjsip-core-x86_64-x64-vc14-release:sip_msg.obj
 0002:00019ccc       $unwind$pjsip_ctype_hdr_clone 0000000140085ccc     pjsip-core-x86_64-x64-vc14-release:sip_msg.obj
 0002:00019ccc       $unwind$pjsip_fromto_hdr_clone 0000000140085ccc     pjsip-core-x86_64-x64-vc14-release:sip_msg.obj
 0002:00019ccc       $unwind$pjsip_generic_array_hdr_clone 0000000140085ccc     pjsip-core-x86_64-x64-vc14-release:sip_msg.obj
 0002:00019ccc       $unwind$pjsip_retry_after_hdr_clone 0000000140085ccc     pjsip-core-x86_64-x64-vc14-release:sip_msg.obj
 0002:00019ccc       $unwind$pjsip_routing_hdr_clone 0000000140085ccc     pjsip-core-x86_64-x64-vc14-release:sip_msg.obj
 0002:00019ccc       $unwind$pjsip_via_hdr_clone 0000000140085ccc     pjsip-core-x86_64-x64-vc14-release:sip_msg.obj
 0002:00019ccc       $unwind$find_uri_handler   0000000140085ccc     pjsip-core-x86_64-x64-vc14-release:sip_parser.obj
 0002:00019ccc       $unwind$tel_uri_clone      0000000140085ccc     pjsip-core-x86_64-x64-vc14-release:sip_tel_uri.obj
 0002:00019ccc       $unwind$pjsip_transport_get_type_from_name 0000000140085ccc     pjsip-core-x86_64-x64-vc14-release:sip_transport.obj
 0002:00019ccc       $unwind$other_uri_print    0000000140085ccc     pjsip-core-x86_64-x64-vc14-release:sip_uri.obj
 0002:00019ccc       $unwind$pjsip_param_shallow_clone 0000000140085ccc     pjsip-core-x86_64-x64-vc14-release:sip_uri.obj
 0002:00019ccc       $unwind$se_hdr_clone       0000000140085ccc     pjsip-ua-x86_64-x64-vc14-release:sip_timer.obj
 0002:00019ce0       $unwind$timer_cb           0000000140085ce0     pjsip-ua-x86_64-x64-vc14-release:sip_timer.obj
 0002:00019cfc       $unwind$pj_hash_get        0000000140085cfc     pjlib-x86_64-x64-vc14-release:hash.obj
 0002:00019cfc       $unwind$pjsip_method_init_np 0000000140085cfc     pjsip-core-x86_64-x64-vc14-release:sip_msg.obj
 0002:00019d14       $unwind$pjsip_media_type_init2 0000000140085d14     pjsip-core-x86_64-x64-vc14-release:sip_msg.obj
 0002:00019d24       $unwind$pjsip_media_type_cp 0000000140085d24     pjsip-core-x86_64-x64-vc14-release:sip_msg.obj
 0002:00019d34       $unwind$pjsip_clone_text_data 0000000140085d34     pjsip-core-x86_64-x64-vc14-release:sip_msg.obj
 0002:00019d34       $unwind$srtp_stream_free   0000000140085d34     libsrtp-x86_64-x64-vc14-release:srtp.obj
 0002:00019d3c       $chain$1$pjsip_clone_text_data 0000000140085d3c     pjsip-core-x86_64-x64-vc14-release:sip_msg.obj
 0002:00019d54       $chain$2$pjsip_clone_text_data 0000000140085d54     pjsip-core-x86_64-x64-vc14-release:sip_msg.obj
 0002:00019d64       $unwind$pjsip_msg_body_clone 0000000140085d64     pjsip-core-x86_64-x64-vc14-release:sip_msg.obj
 0002:00019d78       $unwind$pjsip_msg_find_hdr_by_names 0000000140085d78     pjsip-core-x86_64-x64-vc14-release:sip_msg.obj
 0002:00019d90       $unwind$pjsip_msg_print    0000000140085d90     pjsip-core-x86_64-x64-vc14-release:sip_msg.obj
 0002:00019db8       $unwind$platform_strerror  0000000140085db8     pjlib-x86_64-x64-vc14-release:os_error_win32.obj
 0002:00019db8       $unwind$pjsip_endpt_schedule_timer_w_grp_lock_dbg 0000000140085db8     pjsip-core-x86_64-x64-vc14-release:sip_endpoint.obj
 0002:00019db8       $unwind$pjsip_generic_string_hdr_create 0000000140085db8     pjsip-core-x86_64-x64-vc14-release:sip_msg.obj
 0002:00019dcc       $unwind$pjsip_warning_hdr_create 0000000140085dcc     pjsip-core-x86_64-x64-vc14-release:sip_msg.obj
 0002:00019de0       $unwind$pjsip_warning_hdr_create_from_status 0000000140085de0     pjsip-core-x86_64-x64-vc14-release:sip_msg.obj
 0002:00019df8       $unwind$pj_strerror        0000000140085df8     pjlib-x86_64-x64-vc14-release:errno.obj
 0002:00019df8       $unwind$print_media_type   0000000140085df8     pjsip-core-x86_64-x64-vc14-release:sip_msg.obj
 0002:00019e0c       $unwind$init_status_phrase 0000000140085e0c     pjsip-core-x86_64-x64-vc14-release:sip_msg.obj
 0002:00019e14       $unwind$pjsip_generic_string_hdr_clone 0000000140085e14     pjsip-core-x86_64-x64-vc14-release:sip_msg.obj
 0002:00019e2c       $unwind$pj_hash_set_np     0000000140085e2c     pjlib-x86_64-x64-vc14-release:hash.obj
 0002:00019e2c       $unwind$pj_hash_set_np_lower 0000000140085e2c     pjlib-x86_64-x64-vc14-release:hash.obj
 0002:00019e2c       $unwind$pj_create_random_string 0000000140085e2c     pjlib-x86_64-x64-vc14-release:string.obj
 0002:00019e2c       $unwind$pj_strtol2         0000000140085e2c     pjlib-x86_64-x64-vc14-release:string.obj
 0002:00019e2c       $unwind$pjmedia_sdp_attr_find 0000000140085e2c     pjmedia-x86_64-x64-vc14-release:sdp.obj
 0002:00019e2c       $unwind$update_media_direction 0000000140085e2c     pjmedia-x86_64-x64-vc14-release:sdp_neg.obj
 0002:00019e2c       $unwind$transport_encode_sdp 0000000140085e2c     pjmedia-x86_64-x64-vc14-release:transport_udp.obj
 0002:00019e2c       $unwind$pjsip_generic_array_hdr_print 0000000140085e2c     pjsip-core-x86_64-x64-vc14-release:sip_msg.obj
 0002:00019e2c       $unwind$pjsip_name_addr_print 0000000140085e2c     pjsip-core-x86_64-x64-vc14-release:sip_uri.obj
 0002:00019e48       $unwind$pjsip_cseq_hdr_print 0000000140085e48     pjsip-core-x86_64-x64-vc14-release:sip_msg.obj
 0002:00019e58       $unwind$pj_scan_init       0000000140085e58     pjlib-util-x86_64-x64-vc14-release:scanner.obj
 0002:00019e58       $unwind$pjsip_ctype_hdr_print 0000000140085e58     pjsip-core-x86_64-x64-vc14-release:sip_msg.obj
 0002:00019e58       $unwind$parse_hdr_require  0000000140085e58     pjsip-core-x86_64-x64-vc14-release:sip_parser.obj
 0002:00019e58       $unwind$parse_hdr_route    0000000140085e58     pjsip-core-x86_64-x64-vc14-release:sip_parser.obj
 0002:00019e58       $unwind$parse_hdr_rr       0000000140085e58     pjsip-core-x86_64-x64-vc14-release:sip_parser.obj
 0002:00019e58       $unwind$parse_hdr_supported 0000000140085e58     pjsip-core-x86_64-x64-vc14-release:sip_parser.obj
 0002:00019e58       $unwind$speex_echo_capture 0000000140085e58     libspeex-x86_64-x64-vc14-release:mdf.obj
 0002:00019e6c       $unwind$custom_fmt_match   0000000140085e6c     pjmedia-x86_64-x64-vc14-release:sdp_neg.obj
 0002:00019e6c       $unwind$pjsip_fromto_hdr_print 0000000140085e6c     pjsip-core-x86_64-x64-vc14-release:sip_msg.obj
 0002:00019e88       $unwind$pjsip_routing_hdr_print 0000000140085e88     pjsip-core-x86_64-x64-vc14-release:sip_msg.obj
 0002:00019e88       $unwind$parse_multipart_part 0000000140085e88     pjsip-core-x86_64-x64-vc14-release:sip_multipart.obj
 0002:00019ea4       $unwind$pjsip_retry_after_hdr_print 0000000140085ea4     pjsip-core-x86_64-x64-vc14-release:sip_msg.obj
 0002:00019eb8       $chain$0$pjsip_retry_after_hdr_print 0000000140085eb8     pjsip-core-x86_64-x64-vc14-release:sip_msg.obj
 0002:00019ecc       $chain$1$pjsip_retry_after_hdr_print 0000000140085ecc     pjsip-core-x86_64-x64-vc14-release:sip_msg.obj
 0002:00019edc       $unwind$compress           0000000140085edc     pjmedia-x86_64-x64-vc14-release:wsola.obj
 0002:00019edc       $unwind$expand             0000000140085edc     pjmedia-x86_64-x64-vc14-release:wsola.obj
 0002:00019edc       $unwind$pjsip_via_hdr_print 0000000140085edc     pjsip-core-x86_64-x64-vc14-release:sip_msg.obj
 0002:00019ef8       $unwind$pjsip_rx_data_get_info 0000000140085ef8     pjsip-core-x86_64-x64-vc14-release:sip_transport.obj
 0002:00019f08       $unwind$grp_lock_destroy   0000000140085f08     pjlib-x86_64-x64-vc14-release:lock.obj
 0002:00019f08       $unwind$pjsip_tx_data_create 0000000140085f08     pjsip-core-x86_64-x64-vc14-release:sip_transport.obj
 0002:00019f14       $chain$0$pjsip_tx_data_create 0000000140085f14     pjsip-core-x86_64-x64-vc14-release:sip_transport.obj
 0002:00019f28       $chain$4$pjsip_tx_data_create 0000000140085f28     pjsip-core-x86_64-x64-vc14-release:sip_transport.obj
 0002:00019f44       $chain$6$pjsip_tx_data_create 0000000140085f44     pjsip-core-x86_64-x64-vc14-release:sip_transport.obj
 0002:00019f60       $chain$7$pjsip_tx_data_create 0000000140085f60     pjsip-core-x86_64-x64-vc14-release:sip_transport.obj
 0002:00019f70       $unwind$pjsip_tx_data_encode 0000000140085f70     pjsip-core-x86_64-x64-vc14-release:sip_transport.obj
 0002:00019f84       $unwind$insert_node        0000000140085f84     pjlib-x86_64-x64-vc14-release:timer.obj
 0002:00019f84       $unwind$pjmedia_sdp_media_clone 0000000140085f84     pjmedia-x86_64-x64-vc14-release:sdp.obj
 0002:00019f84       $unwind$pjmedia_sdp_media_clone_deactivate 0000000140085f84     pjmedia-x86_64-x64-vc14-release:sdp.obj
 0002:00019f84       $unwind$pjsip_tx_data_clone 0000000140085f84     pjsip-core-x86_64-x64-vc14-release:sip_transport.obj
 0002:00019f84       $unwind$speex_echo_state_reset 0000000140085f84     libspeex-x86_64-x64-vc14-release:mdf.obj
 0002:00019f84       $unwind$srtp_dealloc       0000000140085f84     libsrtp-x86_64-x64-vc14-release:srtp.obj
 0002:00019fa0       $unwind$pjsip_transport_register 0000000140085fa0     pjsip-core-x86_64-x64-vc14-release:sip_transport.obj
 0002:00019fb8       $unwind$pjmedia_sdp_transport_get_proto 0000000140085fb8     pjmedia-x86_64-x64-vc14-release:sdp.obj
 0002:00019fb8       $unwind$transport_media_start 0000000140085fb8     pjmedia-x86_64-x64-vc14-release:transport_udp.obj
 0002:00019fb8       $unwind$tsx_resched_retransmission 0000000140085fb8     pjsip-core-x86_64-x64-vc14-release:sip_transaction.obj
 0002:00019fb8       $unwind$pjsip_transport_destroy 0000000140085fb8     pjsip-core-x86_64-x64-vc14-release:sip_transport.obj
 0002:00019fb8       $unwind$transport_idle_callback 0000000140085fb8     pjsip-core-x86_64-x64-vc14-release:sip_transport.obj
 0002:00019fc0       $unwind$pjsip_transport_add_ref 0000000140085fc0     pjsip-core-x86_64-x64-vc14-release:sip_transport.obj
 0002:00019fd8       $unwind$pjsip_transport_dec_ref 0000000140085fd8     pjsip-core-x86_64-x64-vc14-release:sip_transport.obj
 0002:00019fe8       $chain$1$pjsip_transport_dec_ref 0000000140085fe8     pjsip-core-x86_64-x64-vc14-release:sip_transport.obj
 0002:0001a000       $chain$2$pjsip_transport_dec_ref 0000000140086000     pjsip-core-x86_64-x64-vc14-release:sip_transport.obj
 0002:0001a010       $unwind$pjsip_tpmgr_receive_packet 0000000140086010     pjsip-core-x86_64-x64-vc14-release:sip_transport.obj
 0002:0001a02c       $chain$1$pjsip_tpmgr_receive_packet 000000014008602c     pjsip-core-x86_64-x64-vc14-release:sip_transport.obj
 0002:0001a044       $chain$2$pjsip_tpmgr_receive_packet 0000000140086044     pjsip-core-x86_64-x64-vc14-release:sip_transport.obj
 0002:0001a054       $chain$3$pjsip_tpmgr_receive_packet 0000000140086054     pjsip-core-x86_64-x64-vc14-release:sip_transport.obj
 0002:0001a06c       $unwind$pjsip_tpmgr_create 000000014008606c     pjsip-core-x86_64-x64-vc14-release:sip_transport.obj
 0002:0001a080       $chain$1$pjsip_tpmgr_create 0000000140086080     pjsip-core-x86_64-x64-vc14-release:sip_transport.obj
 0002:0001a098       $chain$2$pjsip_tpmgr_create 0000000140086098     pjsip-core-x86_64-x64-vc14-release:sip_transport.obj
 0002:0001a098       $chain$4$pjsip_tpmgr_create 0000000140086098     pjsip-core-x86_64-x64-vc14-release:sip_transport.obj
 0002:0001a0a8       $chain$3$pjsip_tpmgr_create 00000001400860a8     pjsip-core-x86_64-x64-vc14-release:sip_transport.obj
 0002:0001a0c0       $unwind$pj_thread_join     00000001400860c0     pjlib-x86_64-x64-vc14-release:os_core_win32.obj
 0002:0001a0c0       $unwind$pjsip_tpmgr_destroy 00000001400860c0     pjsip-core-x86_64-x64-vc14-release:sip_transport.obj
 0002:0001a0c0       $unwind$pjsip_ua_register_dlg 00000001400860c0     pjsip-core-x86_64-x64-vc14-release:sip_ua_layer.obj
 0002:0001a0c0       $unwind$init_request_throw 00000001400860c0     pjsip-core-x86_64-x64-vc14-release:sip_util.obj
 0002:0001a0c8       $chain$0$pjsip_tpmgr_destroy 00000001400860c8     pjsip-core-x86_64-x64-vc14-release:sip_transport.obj
 0002:0001a0dc       $chain$2$pjsip_tpmgr_destroy 00000001400860dc     pjsip-core-x86_64-x64-vc14-release:sip_transport.obj
 0002:0001a0f4       $chain$3$pjsip_tpmgr_destroy 00000001400860f4     pjsip-core-x86_64-x64-vc14-release:sip_transport.obj
 0002:0001a104       $chain$4$pjsip_tpmgr_destroy 0000000140086104     pjsip-core-x86_64-x64-vc14-release:sip_transport.obj
 0002:0001a114       $unwind$pjsip_tpmgr_acquire_transport2 0000000140086114     pjsip-core-x86_64-x64-vc14-release:sip_transport.obj
 0002:0001a130       $chain$0$pjsip_tpmgr_acquire_transport2 0000000140086130     pjsip-core-x86_64-x64-vc14-release:sip_transport.obj
 0002:0001a144       $chain$1$pjsip_tpmgr_acquire_transport2 0000000140086144     pjsip-core-x86_64-x64-vc14-release:sip_transport.obj
 0002:0001a154       $chain$2$pjsip_tpmgr_acquire_transport2 0000000140086154     pjsip-core-x86_64-x64-vc14-release:sip_transport.obj
 0002:0001a168       $unwind$pjlib_util_strerror 0000000140086168     pjlib-util-x86_64-x64-vc14-release:errno.obj
 0002:0001a168       $unwind$pjsip_transport_send 0000000140086168     pjsip-core-x86_64-x64-vc14-release:sip_transport.obj
 0002:0001a17c       $chain$0$pjsip_transport_send 000000014008617c     pjsip-core-x86_64-x64-vc14-release:sip_transport.obj
 0002:0001a190       $chain$1$pjsip_transport_send 0000000140086190     pjsip-core-x86_64-x64-vc14-release:sip_transport.obj
 0002:0001a1a0       $unwind$pjsip_transport_add_state_listener 00000001400861a0     pjsip-core-x86_64-x64-vc14-release:sip_transport.obj
 0002:0001a1b0       $chain$1$pjsip_transport_add_state_listener 00000001400861b0     pjsip-core-x86_64-x64-vc14-release:sip_transport.obj
 0002:0001a1c8       $chain$2$pjsip_transport_add_state_listener 00000001400861c8     pjsip-core-x86_64-x64-vc14-release:sip_transport.obj
 0002:0001a1d8       $unwind$pjmedia_sdp_neg_create_w_local_offer 00000001400861d8     pjmedia-x86_64-x64-vc14-release:sdp_neg.obj
 0002:0001a1d8       $unwind$pjsip_transport_remove_state_listener 00000001400861d8     pjsip-core-x86_64-x64-vc14-release:sip_transport.obj
 0002:0001a1e8       $chain$0$pjsip_transport_remove_state_listener 00000001400861e8     pjsip-core-x86_64-x64-vc14-release:sip_transport.obj
 0002:0001a1fc       $chain$2$pjsip_transport_remove_state_listener 00000001400861fc     pjsip-core-x86_64-x64-vc14-release:sip_transport.obj
 0002:0001a210       $chain$3$pjsip_transport_remove_state_listener 0000000140086210     pjsip-core-x86_64-x64-vc14-release:sip_transport.obj
 0002:0001a220       $unwind$tp_state_callback  0000000140086220     pjsip-core-x86_64-x64-vc14-release:sip_transport.obj
 0002:0001a234       $chain$0$tp_state_callback 0000000140086234     pjsip-core-x86_64-x64-vc14-release:sip_transport.obj
 0002:0001a248       $chain$1$tp_state_callback 0000000140086248     pjsip-core-x86_64-x64-vc14-release:sip_transport.obj
 0002:0001a258       $unwind$get_msg_info       0000000140086258     pjsip-core-x86_64-x64-vc14-release:sip_transport.obj
 0002:0001a270       $unwind$destroy_transport  0000000140086270     pjsip-core-x86_64-x64-vc14-release:sip_transport.obj
 0002:0001a278       $chain$3$destroy_transport 0000000140086278     pjsip-core-x86_64-x64-vc14-release:sip_transport.obj
 0002:0001a298       $chain$5$destroy_transport 0000000140086298     pjsip-core-x86_64-x64-vc14-release:sip_transport.obj
 0002:0001a2b0       $chain$6$destroy_transport 00000001400862b0     pjsip-core-x86_64-x64-vc14-release:sip_transport.obj
 0002:0001a2c0       $chain$7$destroy_transport 00000001400862c0     pjsip-core-x86_64-x64-vc14-release:sip_transport.obj
 0002:0001a2d0       $unwind$pjsip_endpt_create 00000001400862d0     pjsip-core-x86_64-x64-vc14-release:sip_endpoint.obj
 0002:0001a2e0       $chain$1$pjsip_endpt_create 00000001400862e0     pjsip-core-x86_64-x64-vc14-release:sip_endpoint.obj
 0002:0001a2f8       $chain$3$pjsip_endpt_create 00000001400862f8     pjsip-core-x86_64-x64-vc14-release:sip_endpoint.obj
 0002:0001a310       $unwind$decrement_counter  0000000140086310     pjlib-x86_64-x64-vc14-release:ioqueue_select.obj
 0002:0001a310       $unwind$pj_ioqueue_destroy 0000000140086310     pjlib-x86_64-x64-vc14-release:ioqueue_select.obj
 0002:0001a310       $unwind$pjmedia_aud_subsys_shutdown 0000000140086310     pjmedia-audiodev-x86_64-x64-vc14-release:audiodev.obj
 0002:0001a310       $unwind$pjmedia_codec_mgr_destroy 0000000140086310     pjmedia-x86_64-x64-vc14-release:codec.obj
 0002:0001a310       $unwind$pjmedia_echo_playback 0000000140086310     pjmedia-x86_64-x64-vc14-release:echo_common.obj
 0002:0001a310       $unwind$pjsip_auth_clt_deinit 0000000140086310     pjsip-core-x86_64-x64-vc14-release:sip_auth_client.obj
 0002:0001a310       $unwind$pjsip_endpt_destroy 0000000140086310     pjsip-core-x86_64-x64-vc14-release:sip_endpoint.obj
 0002:0001a318       $chain$1$pjsip_endpt_destroy 0000000140086318     pjsip-core-x86_64-x64-vc14-release:sip_endpoint.obj
 0002:0001a330       $chain$2$pjsip_endpt_destroy 0000000140086330     pjsip-core-x86_64-x64-vc14-release:sip_endpoint.obj
 0002:0001a344       $chain$3$pjsip_endpt_destroy 0000000140086344     pjsip-core-x86_64-x64-vc14-release:sip_endpoint.obj
 0002:0001a358       $chain$4$pjsip_endpt_destroy 0000000140086358     pjsip-core-x86_64-x64-vc14-release:sip_endpoint.obj
 0002:0001a368       $chain$5$pjsip_endpt_destroy 0000000140086368     pjsip-core-x86_64-x64-vc14-release:sip_endpoint.obj
 0002:0001a378       $chain$6$pjsip_endpt_destroy 0000000140086378     pjsip-core-x86_64-x64-vc14-release:sip_endpoint.obj
 0002:0001a388       $unwind$MyGetAdapterAddresses 0000000140086388     pjlib-x86_64-x64-vc14-release:ip_helper_win32.obj
 0002:0001a388       $unwind$pj_sock_getsockopt 0000000140086388     pjlib-x86_64-x64-vc14-release:sock_bsd.obj
 0002:0001a388       $unwind$pj_sock_recvfrom   0000000140086388     pjlib-x86_64-x64-vc14-release:sock_bsd.obj
 0002:0001a388       $unwind$pj_sock_sendto     0000000140086388     pjlib-x86_64-x64-vc14-release:sock_bsd.obj
 0002:0001a388       $unwind$pj_sock_setsockopt 0000000140086388     pjlib-x86_64-x64-vc14-release:sock_bsd.obj
 0002:0001a388       $unwind$pjmedia_sdp_attr_get_fmtp 0000000140086388     pjmedia-x86_64-x64-vc14-release:sdp.obj
 0002:0001a388       $unwind$sdp_media_clone_deactivate 0000000140086388     pjmedia-x86_64-x64-vc14-release:sdp_neg.obj
 0002:0001a388       $unwind$pjsip_endpt_schedule_timer_dbg 0000000140086388     pjsip-core-x86_64-x64-vc14-release:sip_endpoint.obj
 0002:0001a388       $unwind$int_parse_param    0000000140086388     pjsip-core-x86_64-x64-vc14-release:sip_parser.obj
 0002:0001a388       $unwind$int_parse_uri_or_name_addr 0000000140086388     pjsip-core-x86_64-x64-vc14-release:sip_parser.obj
 0002:0001a388       $unwind$pjsip_parse_param_imp 0000000140086388     pjsip-core-x86_64-x64-vc14-release:sip_parser.obj
 0002:0001a39c       $unwind$pjsip_endpt_register_module 000000014008639c     pjsip-core-x86_64-x64-vc14-release:sip_endpoint.obj
 0002:0001a3ac       $chain$0$pjsip_endpt_register_module 00000001400863ac     pjsip-core-x86_64-x64-vc14-release:sip_endpoint.obj
 0002:0001a3c0       $chain$1$pjsip_endpt_register_module 00000001400863c0     pjsip-core-x86_64-x64-vc14-release:sip_endpoint.obj
 0002:0001a3d4       $chain$2$pjsip_endpt_register_module 00000001400863d4     pjsip-core-x86_64-x64-vc14-release:sip_endpoint.obj
 0002:0001a3e4       $chain$3$pjsip_endpt_register_module 00000001400863e4     pjsip-core-x86_64-x64-vc14-release:sip_endpoint.obj
 0002:0001a3f4       $unwind$pjsip_endpt_unregister_module 00000001400863f4     pjsip-core-x86_64-x64-vc14-release:sip_endpoint.obj
 0002:0001a410       $unwind$pj_atomic_set      0000000140086410     pjlib-x86_64-x64-vc14-release:os_core_win32.obj
 0002:0001a410       $unwind$pj_sem_wait_for    0000000140086410     pjlib-x86_64-x64-vc14-release:os_core_win32.obj
 0002:0001a410       $unwind$pj_term_set_color  0000000140086410     pjlib-x86_64-x64-vc14-release:os_core_win32.obj
 0002:0001a410       $unwind$pj_thread_check_stack 0000000140086410     pjlib-x86_64-x64-vc14-release:os_core_win32.obj
 0002:0001a410       $unwind$pjmedia_wmme_factory 0000000140086410     pjmedia-audiodev-x86_64-x64-vc14-release:wmme_dev.obj
 0002:0001a410       $unwind$pjmedia_codec_mgr_init 0000000140086410     pjmedia-x86_64-x64-vc14-release:codec.obj
 0002:0001a410       $unwind$check_tx_rtcp      0000000140086410     pjmedia-x86_64-x64-vc14-release:stream.obj
 0002:0001a410       $unwind$on_rx_rtcp         0000000140086410     pjmedia-x86_64-x64-vc14-release:stream.obj
 0002:0001a410       $unwind$pjsip_dlg_dec_session 0000000140086410     pjsip-core-x86_64-x64-vc14-release:sip_dialog.obj
 0002:0001a410       $unwind$pjsip_dlg_inc_session 0000000140086410     pjsip-core-x86_64-x64-vc14-release:sip_dialog.obj
 0002:0001a410       $unwind$pjsip_endpt_create_pool 0000000140086410     pjsip-core-x86_64-x64-vc14-release:sip_endpoint.obj
 0002:0001a410       $unwind$int_parse_status_line 0000000140086410     pjsip-core-x86_64-x64-vc14-release:sip_parser.obj
 0002:0001a410       $unwind$on_str_parse_error 0000000140086410     pjsip-core-x86_64-x64-vc14-release:sip_parser.obj
 0002:0001a410       $unwind$parse_hdr_content_len 0000000140086410     pjsip-core-x86_64-x64-vc14-release:sip_parser.obj
 0002:0001a410       $unwind$parse_hdr_expires  0000000140086410     pjsip-core-x86_64-x64-vc14-release:sip_parser.obj
 0002:0001a410       $unwind$parse_hdr_min_expires 0000000140086410     pjsip-core-x86_64-x64-vc14-release:sip_parser.obj
 0002:0001a410       $unwind$pjsip_tsx_terminate 0000000140086410     pjsip-core-x86_64-x64-vc14-release:sip_transaction.obj
 0002:0001a410       $unwind$tsx_retransmit     0000000140086410     pjsip-core-x86_64-x64-vc14-release:sip_transaction.obj
 0002:0001a41c       $chain$0$pjsip_endpt_atexit 000000014008641c     pjsip-core-x86_64-x64-vc14-release:sip_endpoint.obj
 0002:0001a430       $chain$1$pjsip_endpt_atexit 0000000140086430     pjsip-core-x86_64-x64-vc14-release:sip_endpoint.obj
 0002:0001a440       $unwind$pjsip_endpt_log_error 0000000140086440     pjsip-core-x86_64-x64-vc14-release:sip_endpoint.obj
 0002:0001a45c       $chain$1$pjsip_endpt_log_error 000000014008645c     pjsip-core-x86_64-x64-vc14-release:sip_endpoint.obj
 0002:0001a474       $chain$2$pjsip_endpt_log_error 0000000140086474     pjsip-core-x86_64-x64-vc14-release:sip_endpoint.obj
 0002:0001a484       $unwind$endpt_on_rx_msg    0000000140086484     pjsip-core-x86_64-x64-vc14-release:sip_endpoint.obj
 0002:0001a49c       $chain$1$endpt_on_rx_msg   000000014008649c     pjsip-core-x86_64-x64-vc14-release:sip_endpoint.obj
 0002:0001a4b4       $chain$2$endpt_on_rx_msg   00000001400864b4     pjsip-core-x86_64-x64-vc14-release:sip_endpoint.obj
 0002:0001a4c4       $unwind$alloc_qnode        00000001400864c4     pjlib-util-x86_64-x64-vc14-release:resolver.obj
 0002:0001a4c4       $unwind$pj_utoa_pad        00000001400864c4     pjlib-x86_64-x64-vc14-release:string.obj
 0002:0001a4c4       $unwind$pjsip_authorization_hdr_print 00000001400864c4     pjsip-core-x86_64-x64-vc14-release:sip_auth_msg.obj
 0002:0001a4c4       $unwind$pjsip_www_authenticate_hdr_print 00000001400864c4     pjsip-core-x86_64-x64-vc14-release:sip_auth_msg.obj
 0002:0001a4c4       $unwind$pjsip_dlg_remote_has_cap 00000001400864c4     pjsip-core-x86_64-x64-vc14-release:sip_dialog.obj
 0002:0001a4c4       $unwind$endpt_on_tx_msg    00000001400864c4     pjsip-core-x86_64-x64-vc14-release:sip_endpoint.obj
 0002:0001a4c4       $unwind$parse_hdr_contact  00000001400864c4     pjsip-core-x86_64-x64-vc14-release:sip_parser.obj
 0002:0001a4c4       $unwind$pjsip_tel_nb_cmp   00000001400864c4     pjsip-core-x86_64-x64-vc14-release:sip_tel_uri.obj
 0002:0001a4c4       $unwind$srtp_get_est_pkt_index 00000001400864c4     libsrtp-x86_64-x64-vc14-release:srtp.obj
 0002:0001a4dc       $unwind$pjsip_target_set_add_uri 00000001400864dc     pjsip-core-x86_64-x64-vc14-release:sip_util.obj
 0002:0001a4ec       $chain$1$pjsip_target_set_add_uri 00000001400864ec     pjsip-core-x86_64-x64-vc14-release:sip_util.obj
 0002:0001a504       $chain$3$pjsip_target_set_add_uri 0000000140086504     pjsip-core-x86_64-x64-vc14-release:sip_util.obj
 0002:0001a51c       $chain$4$pjsip_target_set_add_uri 000000014008651c     pjsip-core-x86_64-x64-vc14-release:sip_util.obj
 0002:0001a52c       $unwind$pjsip_target_set_add_from_msg 000000014008652c     pjsip-core-x86_64-x64-vc14-release:sip_util.obj
 0002:0001a538       $chain$1$pjsip_target_set_add_from_msg 0000000140086538     pjsip-core-x86_64-x64-vc14-release:sip_util.obj
 0002:0001a550       $chain$5$pjsip_target_set_add_from_msg 0000000140086550     pjsip-core-x86_64-x64-vc14-release:sip_util.obj
 0002:0001a570       $chain$6$pjsip_target_set_add_from_msg 0000000140086570     pjsip-core-x86_64-x64-vc14-release:sip_util.obj
 0002:0001a580       $chain$7$pjsip_target_set_add_from_msg 0000000140086580     pjsip-core-x86_64-x64-vc14-release:sip_util.obj
 0002:0001a590       $unwind$pjsip_endpt_create_request_from_hdr 0000000140086590     pjsip-core-x86_64-x64-vc14-release:sip_util.obj
 0002:0001a5b0       $unwind$pjsip_endpt_create_response 00000001400865b0     pjsip-core-x86_64-x64-vc14-release:sip_util.obj
 0002:0001a5c0       $chain$0$pjsip_endpt_create_response 00000001400865c0     pjsip-core-x86_64-x64-vc14-release:sip_util.obj
 0002:0001a5d4       $chain$2$pjsip_endpt_create_response 00000001400865d4     pjsip-core-x86_64-x64-vc14-release:sip_util.obj
 0002:0001a5e8       $chain$4$pjsip_endpt_create_response 00000001400865e8     pjsip-core-x86_64-x64-vc14-release:sip_util.obj
 0002:0001a600       $chain$5$pjsip_endpt_create_response 0000000140086600     pjsip-core-x86_64-x64-vc14-release:sip_util.obj
 0002:0001a614       $chain$6$pjsip_endpt_create_response 0000000140086614     pjsip-core-x86_64-x64-vc14-release:sip_util.obj
 0002:0001a624       $chain$7$pjsip_endpt_create_response 0000000140086624     pjsip-core-x86_64-x64-vc14-release:sip_util.obj
 0002:0001a634       $chain$8$pjsip_endpt_create_response 0000000140086634     pjsip-core-x86_64-x64-vc14-release:sip_util.obj
 0002:0001a644       $unwind$pjsip_endpt_create_ack 0000000140086644     pjsip-core-x86_64-x64-vc14-release:sip_util.obj
 0002:0001a658       $chain$0$pjsip_endpt_create_ack 0000000140086658     pjsip-core-x86_64-x64-vc14-release:sip_util.obj
 0002:0001a66c       $chain$1$pjsip_endpt_create_ack 000000014008666c     pjsip-core-x86_64-x64-vc14-release:sip_util.obj
 0002:0001a680       $chain$2$pjsip_endpt_create_ack 0000000140086680     pjsip-core-x86_64-x64-vc14-release:sip_util.obj
 0002:0001a690       $chain$3$pjsip_endpt_create_ack 0000000140086690     pjsip-core-x86_64-x64-vc14-release:sip_util.obj
 0002:0001a6a0       $unwind$pjsip_endpt_create_cancel 00000001400866a0     pjsip-core-x86_64-x64-vc14-release:sip_util.obj
 0002:0001a6ac       $chain$1$pjsip_endpt_create_cancel 00000001400866ac     pjsip-core-x86_64-x64-vc14-release:sip_util.obj
 0002:0001a6c4       $chain$2$pjsip_endpt_create_cancel 00000001400866c4     pjsip-core-x86_64-x64-vc14-release:sip_util.obj
 0002:0001a6d8       $chain$4$pjsip_endpt_create_cancel 00000001400866d8     pjsip-core-x86_64-x64-vc14-release:sip_util.obj
 0002:0001a6f0       $chain$5$pjsip_endpt_create_cancel 00000001400866f0     pjsip-core-x86_64-x64-vc14-release:sip_util.obj
 0002:0001a700       $chain$6$pjsip_endpt_create_cancel 0000000140086700     pjsip-core-x86_64-x64-vc14-release:sip_util.obj
 0002:0001a710       $chain$8$pjsip_endpt_create_cancel 0000000140086710     pjsip-core-x86_64-x64-vc14-release:sip_util.obj
 0002:0001a728       $chain$9$pjsip_endpt_create_cancel 0000000140086728     pjsip-core-x86_64-x64-vc14-release:sip_util.obj
 0002:0001a738       $unwind$pj_strtoul2        0000000140086738     pjlib-x86_64-x64-vc14-release:string.obj
 0002:0001a738       $unwind$g711_encode        0000000140086738     pjmedia-x86_64-x64-vc14-release:g711.obj
 0002:0001a738       $unwind$pjmedia_rtcp_fb_build_nack 0000000140086738     pjmedia-x86_64-x64-vc14-release:rtcp_fb.obj
 0002:0001a738       $unwind$pjsip_get_dest_info 0000000140086738     pjsip-core-x86_64-x64-vc14-release:sip_util.obj
 0002:0001a74c       $chain$0$pjsip_get_dest_info 000000014008674c     pjsip-core-x86_64-x64-vc14-release:sip_util.obj
 0002:0001a760       $chain$1$pjsip_get_dest_info 0000000140086760     pjsip-core-x86_64-x64-vc14-release:sip_util.obj
 0002:0001a770       $unwind$pjsip_process_route_set 0000000140086770     pjsip-core-x86_64-x64-vc14-release:sip_util.obj
 0002:0001a788       $chain$4$pjsip_process_route_set 0000000140086788     pjsip-core-x86_64-x64-vc14-release:sip_util.obj
 0002:0001a7a0       $chain$5$pjsip_process_route_set 00000001400867a0     pjsip-core-x86_64-x64-vc14-release:sip_util.obj
 0002:0001a7b0       $chain$0$pjsip_restore_strict_route_set 00000001400867b0     pjsip-core-x86_64-x64-vc14-release:sip_util.obj
 0002:0001a7c4       $chain$1$pjsip_restore_strict_route_set 00000001400867c4     pjsip-core-x86_64-x64-vc14-release:sip_util.obj
 0002:0001a7d8       $chain$2$pjsip_restore_strict_route_set 00000001400867d8     pjsip-core-x86_64-x64-vc14-release:sip_util.obj
 0002:0001a7e8       $chain$3$pjsip_restore_strict_route_set 00000001400867e8     pjsip-core-x86_64-x64-vc14-release:sip_util.obj
 0002:0001a7f8       $unwind$pjsip_endpt_send_request_stateless 00000001400867f8     pjsip-core-x86_64-x64-vc14-release:sip_util.obj
 0002:0001a80c       $chain$0$pjsip_endpt_send_request_stateless 000000014008680c     pjsip-core-x86_64-x64-vc14-release:sip_util.obj
 0002:0001a820       $chain$2$pjsip_endpt_send_request_stateless 0000000140086820     pjsip-core-x86_64-x64-vc14-release:sip_util.obj
 0002:0001a834       $chain$3$pjsip_endpt_send_request_stateless 0000000140086834     pjsip-core-x86_64-x64-vc14-release:sip_util.obj
 0002:0001a844       $chain$0$pjsip_get_response_addr 0000000140086844     pjsip-core-x86_64-x64-vc14-release:sip_util.obj
 0002:0001a858       $chain$2$pjsip_get_response_addr 0000000140086858     pjsip-core-x86_64-x64-vc14-release:sip_util.obj
 0002:0001a86c       $chain$3$pjsip_get_response_addr 000000014008686c     pjsip-core-x86_64-x64-vc14-release:sip_util.obj
 0002:0001a87c       $unwind$plc_wsola_create   000000014008687c     pjmedia-x86_64-x64-vc14-release:plc_common.obj
 0002:0001a87c       $unwind$pjmedia_rtp_session_init2 000000014008687c     pjmedia-x86_64-x64-vc14-release:rtp.obj
 0002:0001a87c       $unwind$tel_uri_print      000000014008687c     pjsip-core-x86_64-x64-vc14-release:sip_tel_uri.obj
 0002:0001a87c       $unwind$pjsip_endpt_send_response 000000014008687c     pjsip-core-x86_64-x64-vc14-release:sip_util.obj
 0002:0001a894       $unwind$pjsip_endpt_respond_stateless 0000000140086894     pjsip-core-x86_64-x64-vc14-release:sip_util.obj
 0002:0001a8b0       $chain$1$init_request_throw 00000001400868b0     pjsip-core-x86_64-x64-vc14-release:sip_util.obj
 0002:0001a8c8       $chain$3$init_request_throw 00000001400868c8     pjsip-core-x86_64-x64-vc14-release:sip_util.obj
 0002:0001a8e0       $chain$4$init_request_throw 00000001400868e0     pjsip-core-x86_64-x64-vc14-release:sip_util.obj
 0002:0001a8f4       $chain$5$init_request_throw 00000001400868f4     pjsip-core-x86_64-x64-vc14-release:sip_util.obj
 0002:0001a904       $chain$6$init_request_throw 0000000140086904     pjsip-core-x86_64-x64-vc14-release:sip_util.obj
 0002:0001a918       $chain$7$init_request_throw 0000000140086918     pjsip-core-x86_64-x64-vc14-release:sip_util.obj
 0002:0001a928       $unwind$stateless_send_transport_cb 0000000140086928     pjsip-core-x86_64-x64-vc14-release:sip_util.obj
 0002:0001a944       $unwind$stateless_send_resolver_callback 0000000140086944     pjsip-core-x86_64-x64-vc14-release:sip_util.obj
 0002:0001a954       $chain$0$stateless_send_resolver_callback 0000000140086954     pjsip-core-x86_64-x64-vc14-release:sip_util.obj
 0002:0001a968       $chain$1$stateless_send_resolver_callback 0000000140086968     pjsip-core-x86_64-x64-vc14-release:sip_util.obj
 0002:0001a978       $unwind$cpool_release_pool 0000000140086978     pjlib-x86_64-x64-vc14-release:pool_caching.obj
 0002:0001a978       $unwind$pj_timer_heap_cancel 0000000140086978     pjlib-x86_64-x64-vc14-release:timer.obj
 0002:0001a978       $unwind$pjsip_tsx_layer_find_tsx2 0000000140086978     pjsip-core-x86_64-x64-vc14-release:sip_transaction.obj
 0002:0001a978       $unwind$send_response_transport_cb 0000000140086978     pjsip-core-x86_64-x64-vc14-release:sip_util.obj
 0002:0001a978       $unwind$srtp_aes_icm_alloc 0000000140086978     libsrtp-x86_64-x64-vc14-release:aes_icm.obj
 0002:0001a984       $unwind$send_response_resolver_cb 0000000140086984     pjsip-core-x86_64-x64-vc14-release:sip_util.obj
 0002:0001a99c       $unwind$pjsip_udp_transport_start2 000000014008699c     pjsip-core-x86_64-x64-vc14-release:sip_transport_udp.obj
 0002:0001a9b4       $chain$0$pjsip_udp_transport_start2 00000001400869b4     pjsip-core-x86_64-x64-vc14-release:sip_transport_udp.obj
 0002:0001a9c8       $chain$2$pjsip_udp_transport_start2 00000001400869c8     pjsip-core-x86_64-x64-vc14-release:sip_transport_udp.obj
 0002:0001a9e0       $chain$3$pjsip_udp_transport_start2 00000001400869e0     pjsip-core-x86_64-x64-vc14-release:sip_transport_udp.obj
 0002:0001a9f0       $chain$4$pjsip_udp_transport_start2 00000001400869f0     pjsip-core-x86_64-x64-vc14-release:sip_transport_udp.obj
 0002:0001a9f0       $chain$6$pjsip_udp_transport_start2 00000001400869f0     pjsip-core-x86_64-x64-vc14-release:sip_transport_udp.obj
 0002:0001aa00       $chain$5$pjsip_udp_transport_start2 0000000140086a00     pjsip-core-x86_64-x64-vc14-release:sip_transport_udp.obj
 0002:0001aa1c       $unwind$pjsip_udp_transport_start 0000000140086a1c     pjsip-core-x86_64-x64-vc14-release:sip_transport_udp.obj
 0002:0001aa38       $unwind$pjsip_udp_transport_restart2 0000000140086a38     pjsip-core-x86_64-x64-vc14-release:sip_transport_udp.obj
 0002:0001aa54       $unwind$udp_on_read_complete 0000000140086a54     pjsip-core-x86_64-x64-vc14-release:sip_transport_udp.obj
 0002:0001aa60       $chain$4$udp_on_read_complete 0000000140086a60     pjsip-core-x86_64-x64-vc14-release:sip_transport_udp.obj
 0002:0001aa84       $chain$5$udp_on_read_complete 0000000140086a84     pjsip-core-x86_64-x64-vc14-release:sip_transport_udp.obj
 0002:0001aa94       $unwind$udp_send_msg       0000000140086a94     pjsip-core-x86_64-x64-vc14-release:sip_transport_udp.obj
 0002:0001aaa0       $chain$0$udp_send_msg      0000000140086aa0     pjsip-core-x86_64-x64-vc14-release:sip_transport_udp.obj
 0002:0001aab4       $chain$1$udp_send_msg      0000000140086ab4     pjsip-core-x86_64-x64-vc14-release:sip_transport_udp.obj
 0002:0001aac4       $chain$0$udp_on_destroy    0000000140086ac4     pjsip-core-x86_64-x64-vc14-release:sip_transport_udp.obj
 0002:0001aad8       $chain$1$udp_on_destroy    0000000140086ad8     pjsip-core-x86_64-x64-vc14-release:sip_transport_udp.obj
 0002:0001aaec       $chain$2$udp_on_destroy    0000000140086aec     pjsip-core-x86_64-x64-vc14-release:sip_transport_udp.obj
 0002:0001aafc       $chain$3$udp_on_destroy    0000000140086afc     pjsip-core-x86_64-x64-vc14-release:sip_transport_udp.obj
 0002:0001ab0c       $unwind$pjmedia_delay_buf_get 0000000140086b0c     pjmedia-x86_64-x64-vc14-release:delaybuf.obj
 0002:0001ab0c       $unwind$pjmedia_rtcp_build_rtcp 0000000140086b0c     pjmedia-x86_64-x64-vc14-release:rtcp.obj
 0002:0001ab0c       $unwind$udp_destroy        0000000140086b0c     pjsip-core-x86_64-x64-vc14-release:sip_transport_udp.obj
 0002:0001ab0c       $unwind$srtp_aes_expand_encryption_key 0000000140086b0c     libsrtp-x86_64-x64-vc14-release:aes.obj
 0002:0001ab1c       $unwind$create_socket      0000000140086b1c     pjsip-core-x86_64-x64-vc14-release:sip_transport_udp.obj
 0002:0001ab34       $unwind$get_published_name 0000000140086b34     pjsip-core-x86_64-x64-vc14-release:sip_transport_udp.obj
 0002:0001ab48       $unwind$udp_set_pub_name   0000000140086b48     pjsip-core-x86_64-x64-vc14-release:sip_transport_udp.obj
 0002:0001ab64       $unwind$register_to_ioqueue 0000000140086b64     pjsip-core-x86_64-x64-vc14-release:sip_transport_udp.obj
 0002:0001ab74       $unwind$start_async_read   0000000140086b74     pjsip-core-x86_64-x64-vc14-release:sip_transport_udp.obj
 0002:0001ab8c       $unwind$transport_attach   0000000140086b8c     pjsip-core-x86_64-x64-vc14-release:sip_transport_udp.obj
 0002:0001aba8       $chain$2$transport_attach  0000000140086ba8     pjsip-core-x86_64-x64-vc14-release:sip_transport_udp.obj
 0002:0001abc4       $chain$3$transport_attach  0000000140086bc4     pjsip-core-x86_64-x64-vc14-release:sip_transport_udp.obj
 0002:0001abc4       $chain$5$transport_attach  0000000140086bc4     pjsip-core-x86_64-x64-vc14-release:sip_transport_udp.obj
 0002:0001abd4       $chain$4$transport_attach  0000000140086bd4     pjsip-core-x86_64-x64-vc14-release:sip_transport_udp.obj
 0002:0001abf0       $chain$0$pjsip_tsx_layer_init_module 0000000140086bf0     pjsip-core-x86_64-x64-vc14-release:sip_transaction.obj
 0002:0001ac04       $chain$3$pjsip_tsx_layer_init_module 0000000140086c04     pjsip-core-x86_64-x64-vc14-release:sip_transaction.obj
 0002:0001ac1c       $chain$5$pjsip_tsx_layer_init_module 0000000140086c1c     pjsip-core-x86_64-x64-vc14-release:sip_transaction.obj
 0002:0001ac1c       $chain$7$pjsip_tsx_layer_init_module 0000000140086c1c     pjsip-core-x86_64-x64-vc14-release:sip_transaction.obj
 0002:0001ac34       $unwind$pjsip_tsx_create_uac2 0000000140086c34     pjsip-core-x86_64-x64-vc14-release:sip_transaction.obj
 0002:0001ac44       $chain$0$pjsip_tsx_create_uac2 0000000140086c44     pjsip-core-x86_64-x64-vc14-release:sip_transaction.obj
 0002:0001ac58       $chain$1$pjsip_tsx_create_uac2 0000000140086c58     pjsip-core-x86_64-x64-vc14-release:sip_transaction.obj
 0002:0001ac6c       $chain$2$pjsip_tsx_create_uac2 0000000140086c6c     pjsip-core-x86_64-x64-vc14-release:sip_transaction.obj
 0002:0001ac7c       $chain$4$pjsip_tsx_create_uac2 0000000140086c7c     pjsip-core-x86_64-x64-vc14-release:sip_transaction.obj
 0002:0001ac94       $chain$5$pjsip_tsx_create_uac2 0000000140086c94     pjsip-core-x86_64-x64-vc14-release:sip_transaction.obj
 0002:0001aca8       $chain$6$pjsip_tsx_create_uac2 0000000140086ca8     pjsip-core-x86_64-x64-vc14-release:sip_transaction.obj
 0002:0001acb8       $chain$7$pjsip_tsx_create_uac2 0000000140086cb8     pjsip-core-x86_64-x64-vc14-release:sip_transaction.obj
 0002:0001acc8       $unwind$pjsip_tsx_create_uas2 0000000140086cc8     pjsip-core-x86_64-x64-vc14-release:sip_transaction.obj
 0002:0001acd8       $chain$0$pjsip_tsx_create_uas2 0000000140086cd8     pjsip-core-x86_64-x64-vc14-release:sip_transaction.obj
 0002:0001acec       $chain$1$pjsip_tsx_create_uas2 0000000140086cec     pjsip-core-x86_64-x64-vc14-release:sip_transaction.obj
 0002:0001ad00       $chain$2$pjsip_tsx_create_uas2 0000000140086d00     pjsip-core-x86_64-x64-vc14-release:sip_transaction.obj
 0002:0001ad10       $chain$4$pjsip_tsx_create_uas2 0000000140086d10     pjsip-core-x86_64-x64-vc14-release:sip_transaction.obj
 0002:0001ad28       $chain$5$pjsip_tsx_create_uas2 0000000140086d28     pjsip-core-x86_64-x64-vc14-release:sip_transaction.obj
 0002:0001ad38       $chain$0$pjsip_tsx_set_transport 0000000140086d38     pjsip-core-x86_64-x64-vc14-release:sip_transaction.obj
 0002:0001ad4c       $chain$1$pjsip_tsx_set_transport 0000000140086d4c     pjsip-core-x86_64-x64-vc14-release:sip_transaction.obj
 0002:0001ad5c       $unwind$pjsip_tsx_recv_msg 0000000140086d5c     pjsip-core-x86_64-x64-vc14-release:sip_transaction.obj
 0002:0001ad68       $chain$1$pjsip_tsx_recv_msg 0000000140086d68     pjsip-core-x86_64-x64-vc14-release:sip_transaction.obj
 0002:0001ad80       $chain$2$pjsip_tsx_recv_msg 0000000140086d80     pjsip-core-x86_64-x64-vc14-release:sip_transaction.obj
 0002:0001ad90       $unwind$pjsip_tsx_send_msg 0000000140086d90     pjsip-core-x86_64-x64-vc14-release:sip_transaction.obj
 0002:0001ada0       $chain$1$pjsip_tsx_send_msg 0000000140086da0     pjsip-core-x86_64-x64-vc14-release:sip_transaction.obj
 0002:0001adb4       $chain$2$pjsip_tsx_send_msg 0000000140086db4     pjsip-core-x86_64-x64-vc14-release:sip_transaction.obj
 0002:0001adc4       $unwind$pjsip_tsx_create_key 0000000140086dc4     pjsip-core-x86_64-x64-vc14-release:sip_transaction.obj
 0002:0001addc       $unwind$parse_hdr_cseq     0000000140086ddc     pjsip-core-x86_64-x64-vc14-release:sip_parser.obj
 0002:0001addc       $unwind$pjsip_tsx_set_timeout 0000000140086ddc     pjsip-core-x86_64-x64-vc14-release:sip_transaction.obj
 0002:0001ade8       $chain$0$pjsip_tsx_set_timeout 0000000140086de8     pjsip-core-x86_64-x64-vc14-release:sip_transaction.obj
 0002:0001adfc       $chain$1$pjsip_tsx_set_timeout 0000000140086dfc     pjsip-core-x86_64-x64-vc14-release:sip_transaction.obj
 0002:0001ae0c       $chain$0$mod_tsx_layer_stop 0000000140086e0c     pjsip-core-x86_64-x64-vc14-release:sip_transaction.obj
 0002:0001ae20       $chain$2$mod_tsx_layer_stop 0000000140086e20     pjsip-core-x86_64-x64-vc14-release:sip_transaction.obj
 0002:0001ae38       $chain$3$mod_tsx_layer_stop 0000000140086e38     pjsip-core-x86_64-x64-vc14-release:sip_transaction.obj
 0002:0001ae48       $chain$4$mod_tsx_layer_stop 0000000140086e48     pjsip-core-x86_64-x64-vc14-release:sip_transaction.obj
 0002:0001ae58       $unwind$tsx_on_state_null  0000000140086e58     pjsip-core-x86_64-x64-vc14-release:sip_transaction.obj
 0002:0001ae68       $chain$0$tsx_on_state_null 0000000140086e68     pjsip-core-x86_64-x64-vc14-release:sip_transaction.obj
 0002:0001ae7c       $chain$1$tsx_on_state_null 0000000140086e7c     pjsip-core-x86_64-x64-vc14-release:sip_transaction.obj
 0002:0001ae8c       $unwind$tsx_on_state_trying 0000000140086e8c     pjsip-core-x86_64-x64-vc14-release:sip_transaction.obj
 0002:0001ae9c       $unwind$tsx_on_state_proceeding_uas 0000000140086e9c     pjsip-core-x86_64-x64-vc14-release:sip_transaction.obj
 0002:0001aeac       $chain$0$tsx_on_state_proceeding_uas 0000000140086eac     pjsip-core-x86_64-x64-vc14-release:sip_transaction.obj
 0002:0001aec0       $chain$1$tsx_on_state_proceeding_uas 0000000140086ec0     pjsip-core-x86_64-x64-vc14-release:sip_transaction.obj
 0002:0001aec0       $chain$7$tsx_on_state_proceeding_uas 0000000140086ec0     pjsip-core-x86_64-x64-vc14-release:sip_transaction.obj
 0002:0001aed0       $chain$2$tsx_on_state_proceeding_uas 0000000140086ed0     pjsip-core-x86_64-x64-vc14-release:sip_transaction.obj
 0002:0001aee4       $chain$4$tsx_on_state_proceeding_uas 0000000140086ee4     pjsip-core-x86_64-x64-vc14-release:sip_transaction.obj
 0002:0001aefc       $chain$5$tsx_on_state_proceeding_uas 0000000140086efc     pjsip-core-x86_64-x64-vc14-release:sip_transaction.obj
 0002:0001af10       $chain$6$tsx_on_state_proceeding_uas 0000000140086f10     pjsip-core-x86_64-x64-vc14-release:sip_transaction.obj
 0002:0001af20       $unwind$tsx_on_state_proceeding_uac 0000000140086f20     pjsip-core-x86_64-x64-vc14-release:sip_transaction.obj
 0002:0001af38       $unwind$tsx_on_state_completed_uas 0000000140086f38     pjsip-core-x86_64-x64-vc14-release:sip_transaction.obj
 0002:0001af44       $chain$0$tsx_on_state_completed_uas 0000000140086f44     pjsip-core-x86_64-x64-vc14-release:sip_transaction.obj
 0002:0001af58       $chain$1$tsx_on_state_completed_uas 0000000140086f58     pjsip-core-x86_64-x64-vc14-release:sip_transaction.obj
 0002:0001af68       $unwind$pj_getopt_long     0000000140086f68     pjlib-util-x86_64-x64-vc14-release:getopt.obj
 0002:0001af68       $unwind$pj_hash_get_lower  0000000140086f68     pjlib-x86_64-x64-vc14-release:hash.obj
 0002:0001af68       $unwind$pj_enter_critical_section 0000000140086f68     pjlib-x86_64-x64-vc14-release:os_core_win32.obj
 0002:0001af68       $unwind$pj_leave_critical_section 0000000140086f68     pjlib-x86_64-x64-vc14-release:os_core_win32.obj
 0002:0001af68       $unwind$pj_rwmutex_lock_write 0000000140086f68     pjlib-x86_64-x64-vc14-release:os_core_win32.obj
 0002:0001af68       $unwind$pjmedia_endpt_create_pool 0000000140086f68     pjmedia-x86_64-x64-vc14-release:endpoint.obj
 0002:0001af68       $unwind$pjsip_dlg_create_uas_and_inc_lock 0000000140086f68     pjsip-core-x86_64-x64-vc14-release:sip_dialog.obj
 0002:0001af68       $unwind$init_parser        0000000140086f68     pjsip-core-x86_64-x64-vc14-release:sip_parser.obj
 0002:0001af68       $unwind$tsx_on_state_confirmed 0000000140086f68     pjsip-core-x86_64-x64-vc14-release:sip_transaction.obj
 0002:0001af68       $unwind$tsx_on_state_terminated 0000000140086f68     pjsip-core-x86_64-x64-vc14-release:sip_transaction.obj
 0002:0001af68       $unwind$spx_drft_backward  0000000140086f68     libspeex-x86_64-x64-vc14-release:smallft.obj
 0002:0001af68       $unwind$spx_drft_forward   0000000140086f68     libspeex-x86_64-x64-vc14-release:smallft.obj
 0002:0001af68       $unwind$srtp_protect       0000000140086f68     libsrtp-x86_64-x64-vc14-release:srtp.obj
 0002:0001af68       $unwind$srtp_protect_rtcp  0000000140086f68     libsrtp-x86_64-x64-vc14-release:srtp.obj
 0002:0001af70       $unwind$tsx_timer_callback 0000000140086f70     pjsip-core-x86_64-x64-vc14-release:sip_transaction.obj
 0002:0001af88       $chain$0$tsx_timer_callback 0000000140086f88     pjsip-core-x86_64-x64-vc14-release:sip_transaction.obj
 0002:0001af9c       $chain$1$tsx_timer_callback 0000000140086f9c     pjsip-core-x86_64-x64-vc14-release:sip_transaction.obj
 0002:0001afac       $unwind$tsx_tp_state_callback 0000000140086fac     pjsip-core-x86_64-x64-vc14-release:sip_transaction.obj
 0002:0001afb4       $chain$0$tsx_tp_state_callback 0000000140086fb4     pjsip-core-x86_64-x64-vc14-release:sip_transaction.obj
 0002:0001afc8       $chain$1$tsx_tp_state_callback 0000000140086fc8     pjsip-core-x86_64-x64-vc14-release:sip_transaction.obj
 0002:0001afd8       $unwind$tsx_set_state      0000000140086fd8     pjsip-core-x86_64-x64-vc14-release:sip_transaction.obj
 0002:0001aff0       $unwind$tsx_create         0000000140086ff0     pjsip-core-x86_64-x64-vc14-release:sip_transaction.obj
 0002:0001b008       $unwind$tsx_send_msg       0000000140087008     pjsip-core-x86_64-x64-vc14-release:sip_transaction.obj
 0002:0001b024       $chain$0$tsx_send_msg      0000000140087024     pjsip-core-x86_64-x64-vc14-release:sip_transaction.obj
 0002:0001b038       $chain$1$tsx_send_msg      0000000140087038     pjsip-core-x86_64-x64-vc14-release:sip_transaction.obj
 0002:0001b038       $chain$3$tsx_send_msg      0000000140087038     pjsip-core-x86_64-x64-vc14-release:sip_transaction.obj
 0002:0001b048       $chain$2$tsx_send_msg      0000000140087048     pjsip-core-x86_64-x64-vc14-release:sip_transaction.obj
 0002:0001b05c       $unwind$create_tsx_key_2543 000000014008705c     pjsip-core-x86_64-x64-vc14-release:sip_transaction.obj
 0002:0001b06c       $chain$0$create_tsx_key_2543 000000014008706c     pjsip-core-x86_64-x64-vc14-release:sip_transaction.obj
 0002:0001b080       $chain$2$create_tsx_key_2543 0000000140087080     pjsip-core-x86_64-x64-vc14-release:sip_transaction.obj
 0002:0001b098       $chain$3$create_tsx_key_2543 0000000140087098     pjsip-core-x86_64-x64-vc14-release:sip_transaction.obj
 0002:0001b0a8       $chain$5$create_tsx_key_2543 00000001400870a8     pjsip-core-x86_64-x64-vc14-release:sip_transaction.obj
 0002:0001b0bc       $chain$6$create_tsx_key_2543 00000001400870bc     pjsip-core-x86_64-x64-vc14-release:sip_transaction.obj
 0002:0001b0cc       $unwind$send_msg_callback  00000001400870cc     pjsip-core-x86_64-x64-vc14-release:sip_transaction.obj
 0002:0001b0ec       $chain$1$pjsip_ua_register_dlg 00000001400870ec     pjsip-core-x86_64-x64-vc14-release:sip_ua_layer.obj
 0002:0001b104       $chain$3$pjsip_ua_register_dlg 0000000140087104     pjsip-core-x86_64-x64-vc14-release:sip_ua_layer.obj
 0002:0001b118       $chain$4$pjsip_ua_register_dlg 0000000140087118     pjsip-core-x86_64-x64-vc14-release:sip_ua_layer.obj
 0002:0001b128       $chain$1$pjsip_ua_unregister_dlg 0000000140087128     pjsip-core-x86_64-x64-vc14-release:sip_ua_layer.obj
 0002:0001b140       $chain$3$pjsip_ua_unregister_dlg 0000000140087140     pjsip-core-x86_64-x64-vc14-release:sip_ua_layer.obj
 0002:0001b158       $chain$4$pjsip_ua_unregister_dlg 0000000140087158     pjsip-core-x86_64-x64-vc14-release:sip_ua_layer.obj
 0002:0001b168       $unwind$mod_ua_on_rx_request 0000000140087168     pjsip-core-x86_64-x64-vc14-release:sip_ua_layer.obj
 0002:0001b184       $unwind$mod_ua_on_rx_response 0000000140087184     pjsip-core-x86_64-x64-vc14-release:sip_ua_layer.obj
 0002:0001b19c       $unwind$pjsip_method_creates_dialog 000000014008719c     pjsip-core-x86_64-x64-vc14-release:sip_dialog.obj
 0002:0001b1a4       $unwind$pjsip_dlg_create_uac 00000001400871a4     pjsip-core-x86_64-x64-vc14-release:sip_dialog.obj
 0002:0001b1ac       $unwind$pjsip_dlg_create_uac2 00000001400871ac     pjsip-core-x86_64-x64-vc14-release:sip_dialog.obj
 0002:0001b1b8       $chain$4$pjsip_dlg_create_uac2 00000001400871b8     pjsip-core-x86_64-x64-vc14-release:sip_dialog.obj
 0002:0001b1dc       $chain$5$pjsip_dlg_create_uac2 00000001400871dc     pjsip-core-x86_64-x64-vc14-release:sip_dialog.obj
 0002:0001b1dc       $chain$7$pjsip_dlg_create_uac2 00000001400871dc     pjsip-core-x86_64-x64-vc14-release:sip_dialog.obj
 0002:0001b1ec       $chain$6$pjsip_dlg_create_uac2 00000001400871ec     pjsip-core-x86_64-x64-vc14-release:sip_dialog.obj
 0002:0001b210       $unwind$pjsip_dlg_add_usage 0000000140087210     pjsip-core-x86_64-x64-vc14-release:sip_dialog.obj
 0002:0001b21c       $unwind$transport_detach   000000014008721c     pjmedia-x86_64-x64-vc14-release:transport_srtp.obj
 0002:0001b21c       $unwind$pjsip_dlg_dec_lock 000000014008721c     pjsip-core-x86_64-x64-vc14-release:sip_dialog.obj
 0002:0001b21c       $unwind$send_ack_callback  000000014008721c     pjsip-core-x86_64-x64-vc14-release:sip_dialog.obj
 0002:0001b21c       $unwind$spx_drft_clear     000000014008721c     libspeex-x86_64-x64-vc14-release:smallft.obj
 0002:0001b224       $unwind$pjsip_dlg_create_request 0000000140087224     pjsip-core-x86_64-x64-vc14-release:sip_dialog.obj
 0002:0001b240       $unwind$pj_strtoul3        0000000140087240     pjlib-x86_64-x64-vc14-release:string.obj
 0002:0001b240       $unwind$pjsip_dlg_send_request 0000000140087240     pjsip-core-x86_64-x64-vc14-release:sip_dialog.obj
 0002:0001b254       $unwind$pjsip_dlg_create_response 0000000140087254     pjsip-core-x86_64-x64-vc14-release:sip_dialog.obj
 0002:0001b260       $chain$0$pjsip_dlg_create_response 0000000140087260     pjsip-core-x86_64-x64-vc14-release:sip_dialog.obj
 0002:0001b274       $chain$1$pjsip_dlg_create_response 0000000140087274     pjsip-core-x86_64-x64-vc14-release:sip_dialog.obj
 0002:0001b284       $unwind$pj_lock_create_recursive_mutex 0000000140087284     pjlib-x86_64-x64-vc14-release:lock.obj
 0002:0001b284       $unwind$pj_lock_create_simple_mutex 0000000140087284     pjlib-x86_64-x64-vc14-release:lock.obj
 0002:0001b284       $unwind$pjsip_dlg_get_remote_cap_hdr 0000000140087284     pjsip-core-x86_64-x64-vc14-release:sip_dialog.obj
 0002:0001b284       $unwind$srtp_ekt_write_data 0000000140087284     libsrtp-x86_64-x64-vc14-release:ekt.obj
 0002:0001b294       $chain$1$pjsip_dlg_get_remote_cap_hdr 0000000140087294     pjsip-core-x86_64-x64-vc14-release:sip_dialog.obj
 0002:0001b2ac       $chain$3$pjsip_dlg_get_remote_cap_hdr 00000001400872ac     pjsip-core-x86_64-x64-vc14-release:sip_dialog.obj
 0002:0001b2c4       $chain$4$pjsip_dlg_get_remote_cap_hdr 00000001400872c4     pjsip-core-x86_64-x64-vc14-release:sip_dialog.obj
 0002:0001b2d4       $unwind$pjsip_dlg_set_remote_cap_hdr 00000001400872d4     pjsip-core-x86_64-x64-vc14-release:sip_dialog.obj
 0002:0001b2e0       $chain$4$pjsip_dlg_set_remote_cap_hdr 00000001400872e0     pjsip-core-x86_64-x64-vc14-release:sip_dialog.obj
 0002:0001b304       $chain$5$pjsip_dlg_set_remote_cap_hdr 0000000140087304     pjsip-core-x86_64-x64-vc14-release:sip_dialog.obj
 0002:0001b314       $unwind$pjsip_dlg_update_remote_cap 0000000140087314     pjsip-core-x86_64-x64-vc14-release:sip_dialog.obj
 0002:0001b32c       $chain$3$pjsip_dlg_update_remote_cap 000000014008732c     pjsip-core-x86_64-x64-vc14-release:sip_dialog.obj
 0002:0001b34c       $chain$4$pjsip_dlg_update_remote_cap 000000014008734c     pjsip-core-x86_64-x64-vc14-release:sip_dialog.obj
 0002:0001b34c       $chain$6$pjsip_dlg_update_remote_cap 000000014008734c     pjsip-core-x86_64-x64-vc14-release:sip_dialog.obj
 0002:0001b35c       $chain$5$pjsip_dlg_update_remote_cap 000000014008735c     pjsip-core-x86_64-x64-vc14-release:sip_dialog.obj
 0002:0001b37c       $unwind$pjsip_dlg_on_rx_request 000000014008737c     pjsip-core-x86_64-x64-vc14-release:sip_dialog.obj
 0002:0001b394       $chain$0$pjsip_dlg_on_rx_request 0000000140087394     pjsip-core-x86_64-x64-vc14-release:sip_dialog.obj
 0002:0001b3a8       $chain$1$pjsip_dlg_on_rx_request 00000001400873a8     pjsip-core-x86_64-x64-vc14-release:sip_dialog.obj
 0002:0001b3b8       $unwind$pjsip_dlg_on_rx_response 00000001400873b8     pjsip-core-x86_64-x64-vc14-release:sip_dialog.obj
 0002:0001b3c4       $chain$0$pjsip_dlg_on_rx_response 00000001400873c4     pjsip-core-x86_64-x64-vc14-release:sip_dialog.obj
 0002:0001b3d8       $chain$1$pjsip_dlg_on_rx_response 00000001400873d8     pjsip-core-x86_64-x64-vc14-release:sip_dialog.obj
 0002:0001b3ec       $chain$2$pjsip_dlg_on_rx_response 00000001400873ec     pjsip-core-x86_64-x64-vc14-release:sip_dialog.obj
 0002:0001b3fc       $chain$3$pjsip_dlg_on_rx_response 00000001400873fc     pjsip-core-x86_64-x64-vc14-release:sip_dialog.obj
 0002:0001b40c       $unwind$create_dialog      000000014008740c     pjsip-core-x86_64-x64-vc14-release:sip_dialog.obj
 0002:0001b41c       $chain$1$create_dialog     000000014008741c     pjsip-core-x86_64-x64-vc14-release:sip_dialog.obj
 0002:0001b434       $chain$2$create_dialog     0000000140087434     pjsip-core-x86_64-x64-vc14-release:sip_dialog.obj
 0002:0001b448       $chain$3$create_dialog     0000000140087448     pjsip-core-x86_64-x64-vc14-release:sip_dialog.obj
 0002:0001b458       $chain$5$create_dialog     0000000140087458     pjsip-core-x86_64-x64-vc14-release:sip_dialog.obj
 0002:0001b474       $chain$6$create_dialog     0000000140087474     pjsip-core-x86_64-x64-vc14-release:sip_dialog.obj
 0002:0001b48c       $unwind$create_uas_dialog  000000014008748c     pjsip-core-x86_64-x64-vc14-release:sip_dialog.obj
 0002:0001b4a0       $chain$1$create_uas_dialog 00000001400874a0     pjsip-core-x86_64-x64-vc14-release:sip_dialog.obj
 0002:0001b4b8       $chain$2$create_uas_dialog 00000001400874b8     pjsip-core-x86_64-x64-vc14-release:sip_dialog.obj
 0002:0001b4b8       $chain$4$create_uas_dialog 00000001400874b8     pjsip-core-x86_64-x64-vc14-release:sip_dialog.obj
 0002:0001b4c8       $chain$3$create_uas_dialog 00000001400874c8     pjsip-core-x86_64-x64-vc14-release:sip_dialog.obj
 0002:0001b4e0       $unwind$dlg_update_routeset 00000001400874e0     pjsip-core-x86_64-x64-vc14-release:sip_dialog.obj
 0002:0001b4ec       $chain$0$dlg_update_routeset 00000001400874ec     pjsip-core-x86_64-x64-vc14-release:sip_dialog.obj
 0002:0001b500       $chain$3$dlg_update_routeset 0000000140087500     pjsip-core-x86_64-x64-vc14-release:sip_dialog.obj
 0002:0001b51c       $chain$4$dlg_update_routeset 000000014008751c     pjsip-core-x86_64-x64-vc14-release:sip_dialog.obj
 0002:0001b52c       $chain$5$dlg_update_routeset 000000014008752c     pjsip-core-x86_64-x64-vc14-release:sip_dialog.obj
 0002:0001b53c       $chain$1$pjsip_auth_clt_deinit 000000014008753c     pjsip-core-x86_64-x64-vc14-release:sip_auth_client.obj
 0002:0001b554       $chain$2$pjsip_auth_clt_deinit 0000000140087554     pjsip-core-x86_64-x64-vc14-release:sip_auth_client.obj
 0002:0001b564       $unwind$pjsip_auth_clt_init_req 0000000140087564     pjsip-core-x86_64-x64-vc14-release:sip_auth_client.obj
 0002:0001b570       $chain$1$pjsip_auth_clt_init_req 0000000140087570     pjsip-core-x86_64-x64-vc14-release:sip_auth_client.obj
 0002:0001b588       $chain$5$pjsip_auth_clt_init_req 0000000140087588     pjsip-core-x86_64-x64-vc14-release:sip_auth_client.obj
 0002:0001b5a8       $chain$6$pjsip_auth_clt_init_req 00000001400875a8     pjsip-core-x86_64-x64-vc14-release:sip_auth_client.obj
 0002:0001b5b8       $chain$8$pjsip_auth_clt_init_req 00000001400875b8     pjsip-core-x86_64-x64-vc14-release:sip_auth_client.obj
 0002:0001b5d0       $chain$9$pjsip_auth_clt_init_req 00000001400875d0     pjsip-core-x86_64-x64-vc14-release:sip_auth_client.obj
 0002:0001b5e0       $unwind$pjsip_auth_clt_reinit_req 00000001400875e0     pjsip-core-x86_64-x64-vc14-release:sip_auth_client.obj
 0002:0001b5ec       $chain$4$pjsip_auth_clt_reinit_req 00000001400875ec     pjsip-core-x86_64-x64-vc14-release:sip_auth_client.obj
 0002:0001b610       $chain$6$pjsip_auth_clt_reinit_req 0000000140087610     pjsip-core-x86_64-x64-vc14-release:sip_auth_client.obj
 0002:0001b634       $chain$7$pjsip_auth_clt_reinit_req 0000000140087634     pjsip-core-x86_64-x64-vc14-release:sip_auth_client.obj
 0002:0001b644       $unwind$pjsip_auth_create_digest 0000000140087644     pjsip-core-x86_64-x64-vc14-release:sip_auth_client.obj
 0002:0001b664       $unwind$respond_digest     0000000140087664     pjsip-core-x86_64-x64-vc14-release:sip_auth_client.obj
 0002:0001b674       $chain$2$respond_digest    0000000140087674     pjsip-core-x86_64-x64-vc14-release:sip_auth_client.obj
 0002:0001b690       $chain$4$respond_digest    0000000140087690     pjsip-core-x86_64-x64-vc14-release:sip_auth_client.obj
 0002:0001b6ac       $unwind$auth_respond       00000001400876ac     pjsip-core-x86_64-x64-vc14-release:sip_auth_client.obj
 0002:0001b6c8       $chain$0$auth_respond      00000001400876c8     pjsip-core-x86_64-x64-vc14-release:sip_auth_client.obj
 0002:0001b6dc       $chain$1$auth_respond      00000001400876dc     pjsip-core-x86_64-x64-vc14-release:sip_auth_client.obj
 0002:0001b6f0       $chain$2$auth_respond      00000001400876f0     pjsip-core-x86_64-x64-vc14-release:sip_auth_client.obj
 0002:0001b700       $chain$3$auth_respond      0000000140087700     pjsip-core-x86_64-x64-vc14-release:sip_auth_client.obj
 0002:0001b700       $chain$5$auth_respond      0000000140087700     pjsip-core-x86_64-x64-vc14-release:sip_auth_client.obj
 0002:0001b710       $chain$4$auth_respond      0000000140087710     pjsip-core-x86_64-x64-vc14-release:sip_auth_client.obj
 0002:0001b724       $unwind$process_auth       0000000140087724     pjsip-core-x86_64-x64-vc14-release:sip_auth_client.obj
 0002:0001b738       $chain$1$process_auth      0000000140087738     pjsip-core-x86_64-x64-vc14-release:sip_auth_client.obj
 0002:0001b750       $unwind$pjsip_register_hdr_parser 0000000140087750     pjsip-core-x86_64-x64-vc14-release:sip_parser.obj
 0002:0001b768       $chain$0$pjsip_register_hdr_parser 0000000140087768     pjsip-core-x86_64-x64-vc14-release:sip_parser.obj
 0002:0001b77c       $chain$1$pjsip_register_hdr_parser 000000014008777c     pjsip-core-x86_64-x64-vc14-release:sip_parser.obj
 0002:0001b790       $chain$2$pjsip_register_hdr_parser 0000000140087790     pjsip-core-x86_64-x64-vc14-release:sip_parser.obj
 0002:0001b7a0       $chain$3$pjsip_register_hdr_parser 00000001400877a0     pjsip-core-x86_64-x64-vc14-release:sip_parser.obj
 0002:0001b7b0       $unwind$pjsip_parse_uri    00000001400877b0     pjsip-core-x86_64-x64-vc14-release:sip_parser.obj
 0002:0001b7c4       $unwind$pjsip_parse_rdata  00000001400877c4     pjsip-core-x86_64-x64-vc14-release:sip_parser.obj
 0002:0001b7cc       $unwind$pjsip_find_msg     00000001400877cc     pjsip-core-x86_64-x64-vc14-release:sip_parser.obj
 0002:0001b7e4       $unwind$pjsip_parse_hdr    00000001400877e4     pjsip-core-x86_64-x64-vc14-release:sip_parser.obj
 0002:0001b7fc       $unwind$pjsip_parse_headers 00000001400877fc     pjsip-core-x86_64-x64-vc14-release:sip_parser.obj
 0002:0001b814       $unwind$int_parse_msg      0000000140087814     pjsip-core-x86_64-x64-vc14-release:sip_parser.obj
 0002:0001b830       $unwind$int_parse_sip_url  0000000140087830     pjsip-core-x86_64-x64-vc14-release:sip_parser.obj
 0002:0001b840       $chain$2$int_parse_sip_url 0000000140087840     pjsip-core-x86_64-x64-vc14-release:sip_parser.obj
 0002:0001b85c       $chain$3$int_parse_sip_url 000000014008785c     pjsip-core-x86_64-x64-vc14-release:sip_parser.obj
 0002:0001b86c       $chain$4$int_parse_sip_url 000000014008786c     pjsip-core-x86_64-x64-vc14-release:sip_parser.obj
 0002:0001b888       $unwind$int_parse_name_addr 0000000140087888     pjsip-core-x86_64-x64-vc14-release:sip_parser.obj
 0002:0001b898       $chain$0$int_parse_name_addr 0000000140087898     pjsip-core-x86_64-x64-vc14-release:sip_parser.obj
 0002:0001b8ac       $chain$1$int_parse_name_addr 00000001400878ac     pjsip-core-x86_64-x64-vc14-release:sip_parser.obj
 0002:0001b8bc       $unwind$parse_hdr_content_type 00000001400878bc     pjsip-core-x86_64-x64-vc14-release:sip_parser.obj
 0002:0001b8c4       $chain$1$parse_hdr_content_type 00000001400878c4     pjsip-core-x86_64-x64-vc14-release:sip_parser.obj
 0002:0001b8dc       $chain$4$parse_hdr_content_type 00000001400878dc     pjsip-core-x86_64-x64-vc14-release:sip_parser.obj
 0002:0001b8f8       $chain$5$parse_hdr_content_type 00000001400878f8     pjsip-core-x86_64-x64-vc14-release:sip_parser.obj
 0002:0001b908       $chain$6$parse_hdr_content_type 0000000140087908     pjsip-core-x86_64-x64-vc14-release:sip_parser.obj
 0002:0001b91c       $chain$7$parse_hdr_content_type 000000014008791c     pjsip-core-x86_64-x64-vc14-release:sip_parser.obj
 0002:0001b92c       $chain$0$parse_hdr_cseq    000000014008792c     pjsip-core-x86_64-x64-vc14-release:sip_parser.obj
 0002:0001b940       $chain$1$parse_hdr_cseq    0000000140087940     pjsip-core-x86_64-x64-vc14-release:sip_parser.obj
 0002:0001b950       $unwind$parse_rtcp_report  0000000140087950     pjmedia-x86_64-x64-vc14-release:rtcp.obj
 0002:0001b950       $unwind$parse_hdr_retry_after 0000000140087950     pjsip-core-x86_64-x64-vc14-release:sip_parser.obj
 0002:0001b960       $chain$0$parse_hdr_retry_after 0000000140087960     pjsip-core-x86_64-x64-vc14-release:sip_parser.obj
 0002:0001b974       $chain$1$parse_hdr_retry_after 0000000140087974     pjsip-core-x86_64-x64-vc14-release:sip_parser.obj
 0002:0001b984       $chain$2$parse_hdr_retry_after 0000000140087984     pjsip-core-x86_64-x64-vc14-release:sip_parser.obj
 0002:0001b998       $unwind$parse_hdr_via      0000000140087998     pjsip-core-x86_64-x64-vc14-release:sip_parser.obj
 0002:0001b9ac       $unwind$parse_hdr_generic_string 00000001400879ac     pjsip-core-x86_64-x64-vc14-release:sip_parser.obj
 0002:0001b9ac       $unwind$capture_current_context 00000001400879ac     MSVCRT:gs_report.obj
 0002:0001b9b8       $chain$1$parse_hdr_generic_string 00000001400879b8     pjsip-core-x86_64-x64-vc14-release:sip_parser.obj
 0002:0001b9d0       $chain$2$parse_hdr_generic_string 00000001400879d0     pjsip-core-x86_64-x64-vc14-release:sip_parser.obj
 0002:0001b9e4       $chain$3$parse_hdr_generic_string 00000001400879e4     pjsip-core-x86_64-x64-vc14-release:sip_parser.obj
 0002:0001b9f4       $chain$4$parse_hdr_generic_string 00000001400879f4     pjsip-core-x86_64-x64-vc14-release:sip_parser.obj
 0002:0001ba04       $chain$1$init_parser       0000000140087a04     pjsip-core-x86_64-x64-vc14-release:sip_parser.obj
 0002:0001ba1c       $chain$3$init_parser       0000000140087a1c     pjsip-core-x86_64-x64-vc14-release:sip_parser.obj
 0002:0001ba34       $chain$4$init_parser       0000000140087a34     pjsip-core-x86_64-x64-vc14-release:sip_parser.obj
 0002:0001ba44       $unwind$int_register_parser 0000000140087a44     pjsip-core-x86_64-x64-vc14-release:sip_parser.obj
 0002:0001ba54       $chain$5$int_register_parser 0000000140087a54     pjsip-core-x86_64-x64-vc14-release:sip_parser.obj
 0002:0001ba7c       $chain$7$int_register_parser 0000000140087a7c     pjsip-core-x86_64-x64-vc14-release:sip_parser.obj
 0002:0001baa4       $unwind$pj_pool_create_int 0000000140087aa4     pjlib-x86_64-x64-vc14-release:pool.obj
 0002:0001baa4       $unwind$pj_sockaddr_cmp    0000000140087aa4     pjlib-x86_64-x64-vc14-release:sock_common.obj
 0002:0001baa4       $unwind$echo_supp_cancel_echo 0000000140087aa4     pjmedia-x86_64-x64-vc14-release:echo_suppress.obj
 0002:0001baa4       $unwind$print_session      0000000140087aa4     pjmedia-x86_64-x64-vc14-release:sdp.obj
 0002:0001baa4       $unwind$print_oauth_credential 0000000140087aa4     pjsip-core-x86_64-x64-vc14-release:sip_auth_msg.obj
 0002:0001baa4       $unwind$find_handler_imp   0000000140087aa4     pjsip-core-x86_64-x64-vc14-release:sip_parser.obj
 0002:0001baa4       $unwind$tel_uri_cmp        0000000140087aa4     pjsip-core-x86_64-x64-vc14-release:sip_tel_uri.obj
 0002:0001baa4       $unwind$pjsip_param_cmp    0000000140087aa4     pjsip-core-x86_64-x64-vc14-release:sip_uri.obj
 0002:0001baa4       $unwind$srtp_get_session_keys 0000000140087aa4     libsrtp-x86_64-x64-vc14-release:srtp.obj
 0002:0001baa4       $unwind$srtp_stream_dealloc 0000000140087aa4     libsrtp-x86_64-x64-vc14-release:srtp.obj
 0002:0001babc       $unwind$find_handler       0000000140087abc     pjsip-core-x86_64-x64-vc14-release:sip_parser.obj
 0002:0001bacc       $unwind$pjmedia_stream_destroy 0000000140087acc     pjmedia-x86_64-x64-vc14-release:stream.obj
 0002:0001bacc       $unwind$parse_sip_version  0000000140087acc     pjsip-core-x86_64-x64-vc14-release:sip_parser.obj
 0002:0001bad4       $unwind$int_parse_uri      0000000140087ad4     pjsip-core-x86_64-x64-vc14-release:sip_parser.obj
 0002:0001bae0       $chain$2$int_parse_uri     0000000140087ae0     pjsip-core-x86_64-x64-vc14-release:sip_parser.obj
 0002:0001bafc       $chain$4$int_parse_uri     0000000140087afc     pjsip-core-x86_64-x64-vc14-release:sip_parser.obj
 0002:0001bb18       $chain$5$int_parse_uri     0000000140087b18     pjsip-core-x86_64-x64-vc14-release:sip_parser.obj
 0002:0001bb28       $unwind$int_parse_contact_param 0000000140087b28     pjsip-core-x86_64-x64-vc14-release:sip_parser.obj
 0002:0001bb38       $chain$2$int_parse_contact_param 0000000140087b38     pjsip-core-x86_64-x64-vc14-release:sip_parser.obj
 0002:0001bb54       $chain$3$int_parse_contact_param 0000000140087b54     pjsip-core-x86_64-x64-vc14-release:sip_parser.obj
 0002:0001bb64       $chain$4$int_parse_contact_param 0000000140087b64     pjsip-core-x86_64-x64-vc14-release:sip_parser.obj
 0002:0001bb80       $unwind$parse_hdr_fromto   0000000140087b80     pjsip-core-x86_64-x64-vc14-release:sip_parser.obj
 0002:0001bb90       $unwind$int_parse_via_param 0000000140087b90     pjsip-core-x86_64-x64-vc14-release:sip_parser.obj
 0002:0001bba0       $chain$1$int_parse_via_param 0000000140087ba0     pjsip-core-x86_64-x64-vc14-release:sip_parser.obj
 0002:0001bbb8       $chain$2$int_parse_via_param 0000000140087bb8     pjsip-core-x86_64-x64-vc14-release:sip_parser.obj
 0002:0001bbc8       $chain$3$int_parse_via_param 0000000140087bc8     pjsip-core-x86_64-x64-vc14-release:sip_parser.obj
 0002:0001bbe0       $unwind$parse_hdr_rr_route 0000000140087be0     pjsip-core-x86_64-x64-vc14-release:sip_parser.obj
 0002:0001bbf0       $chain$1$parse_hdr_rr_route 0000000140087bf0     pjsip-core-x86_64-x64-vc14-release:sip_parser.obj
 0002:0001bc08       $chain$2$parse_hdr_rr_route 0000000140087c08     pjsip-core-x86_64-x64-vc14-release:sip_parser.obj
 0002:0001bc18       $unwind$pjsip_multipart_parse 0000000140087c18     pjsip-core-x86_64-x64-vc14-release:sip_multipart.obj
 0002:0001bc34       $unwind$multipart_print_body 0000000140087c34     pjsip-core-x86_64-x64-vc14-release:sip_multipart.obj
 0002:0001bc4c       $chain$3$multipart_print_body 0000000140087c4c     pjsip-core-x86_64-x64-vc14-release:sip_multipart.obj
 0002:0001bc6c       $chain$4$multipart_print_body 0000000140087c6c     pjsip-core-x86_64-x64-vc14-release:sip_multipart.obj
 0002:0001bc6c       $chain$6$multipart_print_body 0000000140087c6c     pjsip-core-x86_64-x64-vc14-release:sip_multipart.obj
 0002:0001bc7c       $chain$5$multipart_print_body 0000000140087c7c     pjsip-core-x86_64-x64-vc14-release:sip_multipart.obj
 0002:0001bc9c       $unwind$multipart_clone_data 0000000140087c9c     pjsip-core-x86_64-x64-vc14-release:sip_multipart.obj
 0002:0001bcac       $chain$2$multipart_clone_data 0000000140087cac     pjsip-core-x86_64-x64-vc14-release:sip_multipart.obj
 0002:0001bcc8       $chain$3$multipart_clone_data 0000000140087cc8     pjsip-core-x86_64-x64-vc14-release:sip_multipart.obj
 0002:0001bcd8       $unwind$pj_hash_calc_tolower 0000000140087cd8     pjlib-x86_64-x64-vc14-release:hash.obj
 0002:0001bcd8       $unwind$reheap_up          0000000140087cd8     pjlib-x86_64-x64-vc14-release:timer.obj
 0002:0001bcd8       $unwind$pjsip_param_clone  0000000140087cd8     pjsip-core-x86_64-x64-vc14-release:sip_uri.obj
 0002:0001bcec       $chain$0$pjsip_param_clone 0000000140087cec     pjsip-core-x86_64-x64-vc14-release:sip_uri.obj
 0002:0001bd00       $chain$1$pjsip_param_clone 0000000140087d00     pjsip-core-x86_64-x64-vc14-release:sip_uri.obj
 0002:0001bd10       $unwind$pjsip_param_print_on 0000000140087d10     pjsip-core-x86_64-x64-vc14-release:sip_uri.obj
 0002:0001bd20       $chain$3$pjsip_param_print_on 0000000140087d20     pjsip-core-x86_64-x64-vc14-release:sip_uri.obj
 0002:0001bd40       $chain$5$pjsip_param_print_on 0000000140087d40     pjsip-core-x86_64-x64-vc14-release:sip_uri.obj
 0002:0001bd60       $chain$6$pjsip_param_print_on 0000000140087d60     pjsip-core-x86_64-x64-vc14-release:sip_uri.obj
 0002:0001bd70       $unwind$pjsip_url_print    0000000140087d70     pjsip-core-x86_64-x64-vc14-release:sip_uri.obj
 0002:0001bd88       $unwind$pjsip_url_compare  0000000140087d88     pjsip-core-x86_64-x64-vc14-release:sip_uri.obj
 0002:0001bd94       $chain$3$pjsip_url_compare 0000000140087d94     pjsip-core-x86_64-x64-vc14-release:sip_uri.obj
 0002:0001bdb4       $unwind$pjsip_url_clone    0000000140087db4     pjsip-core-x86_64-x64-vc14-release:sip_uri.obj
 0002:0001bdcc       $unwind$pjsip_resolve      0000000140087dcc     pjsip-core-x86_64-x64-vc14-release:sip_resolve.obj
 0002:0001bde8       $chain$2$pjsip_resolve     0000000140087de8     pjsip-core-x86_64-x64-vc14-release:sip_resolve.obj
 0002:0001be04       $chain$3$pjsip_resolve     0000000140087e04     pjsip-core-x86_64-x64-vc14-release:sip_resolve.obj
 0002:0001be14       $unwind$srv_resolver_cb    0000000140087e14     pjsip-core-x86_64-x64-vc14-release:sip_resolve.obj
 0002:0001be2c       $chain$0$srv_resolver_cb   0000000140087e2c     pjsip-core-x86_64-x64-vc14-release:sip_resolve.obj
 0002:0001be40       $chain$3$srv_resolver_cb   0000000140087e40     pjsip-core-x86_64-x64-vc14-release:sip_resolve.obj
 0002:0001be5c       $chain$4$srv_resolver_cb   0000000140087e5c     pjsip-core-x86_64-x64-vc14-release:sip_resolve.obj
 0002:0001be6c       $chain$5$srv_resolver_cb   0000000140087e6c     pjsip-core-x86_64-x64-vc14-release:sip_resolve.obj
 0002:0001be7c       $unwind$dns_a_callback     0000000140087e7c     pjsip-core-x86_64-x64-vc14-release:sip_resolve.obj
 0002:0001be90       $chain$1$dns_a_callback    0000000140087e90     pjsip-core-x86_64-x64-vc14-release:sip_resolve.obj
 0002:0001bea8       $chain$2$dns_a_callback    0000000140087ea8     pjsip-core-x86_64-x64-vc14-release:sip_resolve.obj
 0002:0001bebc       $chain$3$dns_a_callback    0000000140087ebc     pjsip-core-x86_64-x64-vc14-release:sip_resolve.obj
 0002:0001bed0       $chain$4$dns_a_callback    0000000140087ed0     pjsip-core-x86_64-x64-vc14-release:sip_resolve.obj
 0002:0001bee0       $chain$5$dns_a_callback    0000000140087ee0     pjsip-core-x86_64-x64-vc14-release:sip_resolve.obj
 0002:0001bef0       $chain$6$dns_a_callback    0000000140087ef0     pjsip-core-x86_64-x64-vc14-release:sip_resolve.obj
 0002:0001bf00       $unwind$dns_aaaa_callback  0000000140087f00     pjsip-core-x86_64-x64-vc14-release:sip_resolve.obj
 0002:0001bf14       $chain$1$dns_aaaa_callback 0000000140087f14     pjsip-core-x86_64-x64-vc14-release:sip_resolve.obj
 0002:0001bf2c       $chain$2$dns_aaaa_callback 0000000140087f2c     pjsip-core-x86_64-x64-vc14-release:sip_resolve.obj
 0002:0001bf40       $chain$3$dns_aaaa_callback 0000000140087f40     pjsip-core-x86_64-x64-vc14-release:sip_resolve.obj
 0002:0001bf54       $chain$4$dns_aaaa_callback 0000000140087f54     pjsip-core-x86_64-x64-vc14-release:sip_resolve.obj
 0002:0001bf64       $chain$5$dns_aaaa_callback 0000000140087f64     pjsip-core-x86_64-x64-vc14-release:sip_resolve.obj
 0002:0001bf74       $chain$6$dns_aaaa_callback 0000000140087f74     pjsip-core-x86_64-x64-vc14-release:sip_resolve.obj
 0002:0001bf84       $unwind$pjsip_strerror     0000000140087f84     pjsip-core-x86_64-x64-vc14-release:sip_errno.obj
 0002:0001bf98       $chain$1$pjsip_strerror    0000000140087f98     pjsip-core-x86_64-x64-vc14-release:sip_errno.obj
 0002:0001bfac       $chain$2$pjsip_strerror    0000000140087fac     pjsip-core-x86_64-x64-vc14-release:sip_errno.obj
 0002:0001bfbc       $unwind$tel_uri_parse      0000000140087fbc     pjsip-core-x86_64-x64-vc14-release:sip_tel_uri.obj
 0002:0001bfcc       $chain$2$tel_uri_parse     0000000140087fcc     pjsip-core-x86_64-x64-vc14-release:sip_tel_uri.obj
 0002:0001bfe8       $chain$3$tel_uri_parse     0000000140087fe8     pjsip-core-x86_64-x64-vc14-release:sip_tel_uri.obj
 0002:0001c000       $chain$4$tel_uri_parse     0000000140088000     pjsip-core-x86_64-x64-vc14-release:sip_tel_uri.obj
 0002:0001c010       $unwind$int_parse_hdr_authorization 0000000140088010     pjsip-core-x86_64-x64-vc14-release:sip_auth_parser.obj
 0002:0001c028       $unwind$int_parse_hdr_authenticate 0000000140088028     pjsip-core-x86_64-x64-vc14-release:sip_auth_parser.obj
 0002:0001c03c       $chain$0$int_parse_hdr_authenticate 000000014008803c     pjsip-core-x86_64-x64-vc14-release:sip_auth_parser.obj
 0002:0001c050       $chain$1$int_parse_hdr_authenticate 0000000140088050     pjsip-core-x86_64-x64-vc14-release:sip_auth_parser.obj
 0002:0001c064       $chain$3$int_parse_hdr_authenticate 0000000140088064     pjsip-core-x86_64-x64-vc14-release:sip_auth_parser.obj
 0002:0001c074       $unwind$pjmedia_aud_subsys_init 0000000140088074     pjmedia-audiodev-x86_64-x64-vc14-release:audiodev.obj
 0002:0001c088       $chain$0$pjmedia_aud_subsys_shutdown 0000000140088088     pjmedia-audiodev-x86_64-x64-vc14-release:audiodev.obj
 0002:0001c09c       $chain$1$pjmedia_aud_subsys_shutdown 000000014008809c     pjmedia-audiodev-x86_64-x64-vc14-release:audiodev.obj
 0002:0001c0ac       $chain$0$pjmedia_audiodev_strerror 00000001400880ac     pjmedia-audiodev-x86_64-x64-vc14-release:errno.obj
 0002:0001c0c0       $chain$1$pjmedia_audiodev_strerror 00000001400880c0     pjmedia-audiodev-x86_64-x64-vc14-release:errno.obj
 0002:0001c0c0       $chain$3$pjmedia_audiodev_strerror 00000001400880c0     pjmedia-audiodev-x86_64-x64-vc14-release:errno.obj
 0002:0001c0d0       $chain$2$pjmedia_audiodev_strerror 00000001400880d0     pjmedia-audiodev-x86_64-x64-vc14-release:errno.obj
 0002:0001c0e4       $unwind$factory_refresh    00000001400880e4     pjmedia-audiodev-x86_64-x64-vc14-release:wmme_dev.obj
 0002:0001c10c       $unwind$factory_create_stream 000000014008810c     pjmedia-audiodev-x86_64-x64-vc14-release:wmme_dev.obj
 0002:0001c120       $chain$0$factory_create_stream 0000000140088120     pjmedia-audiodev-x86_64-x64-vc14-release:wmme_dev.obj
 0002:0001c134       $chain$1$factory_create_stream 0000000140088134     pjmedia-audiodev-x86_64-x64-vc14-release:wmme_dev.obj
 0002:0001c148       $chain$2$factory_create_stream 0000000140088148     pjmedia-audiodev-x86_64-x64-vc14-release:wmme_dev.obj
 0002:0001c158       $chain$3$factory_create_stream 0000000140088158     pjmedia-audiodev-x86_64-x64-vc14-release:wmme_dev.obj
 0002:0001c168       $chain$0$stream_get_param  0000000140088168     pjmedia-audiodev-x86_64-x64-vc14-release:wmme_dev.obj
 0002:0001c17c       $chain$2$stream_get_param  000000014008817c     pjmedia-audiodev-x86_64-x64-vc14-release:wmme_dev.obj
 0002:0001c190       $chain$3$stream_get_param  0000000140088190     pjmedia-audiodev-x86_64-x64-vc14-release:wmme_dev.obj
 0002:0001c1a0       $unwind$stream_destroy     00000001400881a0     pjmedia-audiodev-x86_64-x64-vc14-release:wmme_dev.obj
 0002:0001c1ac       $chain$1$stream_destroy    00000001400881ac     pjmedia-audiodev-x86_64-x64-vc14-release:wmme_dev.obj
 0002:0001c1c0       $chain$2$stream_destroy    00000001400881c0     pjmedia-audiodev-x86_64-x64-vc14-release:wmme_dev.obj
 0002:0001c1d0       $unwind$init_player_stream 00000001400881d0     pjmedia-audiodev-x86_64-x64-vc14-release:wmme_dev.obj
 0002:0001c1ec       $chain$0$init_player_stream 00000001400881ec     pjmedia-audiodev-x86_64-x64-vc14-release:wmme_dev.obj
 0002:0001c200       $chain$1$init_player_stream 0000000140088200     pjmedia-audiodev-x86_64-x64-vc14-release:wmme_dev.obj
 0002:0001c214       $chain$2$init_player_stream 0000000140088214     pjmedia-audiodev-x86_64-x64-vc14-release:wmme_dev.obj
 0002:0001c224       $chain$3$init_player_stream 0000000140088224     pjmedia-audiodev-x86_64-x64-vc14-release:wmme_dev.obj
 0002:0001c234       $chain$4$init_player_stream 0000000140088234     pjmedia-audiodev-x86_64-x64-vc14-release:wmme_dev.obj
 0002:0001c24c       $unwind$init_capture_stream 000000014008824c     pjmedia-audiodev-x86_64-x64-vc14-release:wmme_dev.obj
 0002:0001c268       $chain$0$init_capture_stream 0000000140088268     pjmedia-audiodev-x86_64-x64-vc14-release:wmme_dev.obj
 0002:0001c27c       $chain$1$init_capture_stream 000000014008827c     pjmedia-audiodev-x86_64-x64-vc14-release:wmme_dev.obj
 0002:0001c290       $chain$2$init_capture_stream 0000000140088290     pjmedia-audiodev-x86_64-x64-vc14-release:wmme_dev.obj
 0002:0001c2a0       $chain$3$init_capture_stream 00000001400882a0     pjmedia-audiodev-x86_64-x64-vc14-release:wmme_dev.obj
 0002:0001c2b0       $chain$4$init_capture_stream 00000001400882b0     pjmedia-audiodev-x86_64-x64-vc14-release:wmme_dev.obj
 0002:0001c2c8       $unwind$wmme_dev_thread    00000001400882c8     pjmedia-audiodev-x86_64-x64-vc14-release:wmme_dev.obj
 0002:0001c2f0       $unwind$pjmedia_event_mgr_create 00000001400882f0     pjmedia-x86_64-x64-vc14-release:event.obj
 0002:0001c304       $chain$0$pjmedia_event_mgr_destroy 0000000140088304     pjmedia-x86_64-x64-vc14-release:event.obj
 0002:0001c318       $chain$1$pjmedia_event_mgr_destroy 0000000140088318     pjmedia-x86_64-x64-vc14-release:event.obj
 0002:0001c328       $unwind$pjmedia_event_subscribe 0000000140088328     pjmedia-x86_64-x64-vc14-release:event.obj
 0002:0001c338       $chain$0$pjmedia_event_subscribe 0000000140088338     pjmedia-x86_64-x64-vc14-release:event.obj
 0002:0001c34c       $chain$1$pjmedia_event_subscribe 000000014008834c     pjmedia-x86_64-x64-vc14-release:event.obj
 0002:0001c360       $chain$2$pjmedia_event_subscribe 0000000140088360     pjmedia-x86_64-x64-vc14-release:event.obj
 0002:0001c370       $chain$4$pjmedia_event_subscribe 0000000140088370     pjmedia-x86_64-x64-vc14-release:event.obj
 0002:0001c388       $chain$6$pjmedia_event_subscribe 0000000140088388     pjmedia-x86_64-x64-vc14-release:event.obj
 0002:0001c398       $unwind$pjmedia_event_unsubscribe 0000000140088398     pjmedia-x86_64-x64-vc14-release:event.obj
 0002:0001c3a8       $chain$1$pjmedia_event_unsubscribe 00000001400883a8     pjmedia-x86_64-x64-vc14-release:event.obj
 0002:0001c3c0       $chain$2$pjmedia_event_unsubscribe 00000001400883c0     pjmedia-x86_64-x64-vc14-release:event.obj
 0002:0001c3d4       $chain$3$pjmedia_event_unsubscribe 00000001400883d4     pjmedia-x86_64-x64-vc14-release:event.obj
 0002:0001c3e4       $chain$4$pjmedia_event_unsubscribe 00000001400883e4     pjmedia-x86_64-x64-vc14-release:event.obj
 0002:0001c3f4       $unwind$pjmedia_event_publish 00000001400883f4     pjmedia-x86_64-x64-vc14-release:event.obj
 0002:0001c408       $chain$1$pjmedia_event_publish 0000000140088408     pjmedia-x86_64-x64-vc14-release:event.obj
 0002:0001c420       $chain$2$pjmedia_event_publish 0000000140088420     pjmedia-x86_64-x64-vc14-release:event.obj
 0002:0001c430       $unwind$event_queue_add_event 0000000140088430     pjmedia-x86_64-x64-vc14-release:event.obj
 0002:0001c440       $chain$4$event_worker_thread 0000000140088440     pjmedia-x86_64-x64-vc14-release:event.obj
 0002:0001c464       $chain$5$event_worker_thread 0000000140088464     pjmedia-x86_64-x64-vc14-release:event.obj
 0002:0001c474       $unwind$pjmedia_endpt_create2 0000000140088474     pjmedia-x86_64-x64-vc14-release:endpoint.obj
 0002:0001c484       $chain$1$pjmedia_endpt_create2 0000000140088484     pjmedia-x86_64-x64-vc14-release:endpoint.obj
 0002:0001c49c       $chain$3$pjmedia_endpt_create2 000000014008849c     pjmedia-x86_64-x64-vc14-release:endpoint.obj
 0002:0001c4b4       $chain$4$pjmedia_endpt_create2 00000001400884b4     pjmedia-x86_64-x64-vc14-release:endpoint.obj
 0002:0001c4c4       $chain$6$pjmedia_endpt_create2 00000001400884c4     pjmedia-x86_64-x64-vc14-release:endpoint.obj
 0002:0001c4e4       $chain$7$pjmedia_endpt_create2 00000001400884e4     pjmedia-x86_64-x64-vc14-release:endpoint.obj
 0002:0001c4f4       $unwind$pjmedia_endpt_create_sdp 00000001400884f4     pjmedia-x86_64-x64-vc14-release:endpoint.obj
 0002:0001c50c       $chain$1$pjmedia_endpt_create_sdp 000000014008850c     pjmedia-x86_64-x64-vc14-release:endpoint.obj
 0002:0001c524       $chain$2$pjmedia_endpt_create_sdp 0000000140088524     pjmedia-x86_64-x64-vc14-release:endpoint.obj
 0002:0001c524       $chain$4$pjmedia_endpt_create_sdp 0000000140088524     pjmedia-x86_64-x64-vc14-release:endpoint.obj
 0002:0001c534       $chain$3$pjmedia_endpt_create_sdp 0000000140088534     pjmedia-x86_64-x64-vc14-release:endpoint.obj
 0002:0001c54c       $unwind$pjmedia_endpt_create_audio_sdp 000000014008854c     pjmedia-x86_64-x64-vc14-release:endpoint.obj
 0002:0001c568       $chain$2$pjmedia_endpt_create_audio_sdp 0000000140088568     pjmedia-x86_64-x64-vc14-release:endpoint.obj
 0002:0001c584       $chain$3$pjmedia_endpt_create_audio_sdp 0000000140088584     pjmedia-x86_64-x64-vc14-release:endpoint.obj
 0002:0001c594       $chain$0$worker_proc       0000000140088594     pjmedia-x86_64-x64-vc14-release:endpoint.obj
 0002:0001c5a8       $chain$1$worker_proc       00000001400885a8     pjmedia-x86_64-x64-vc14-release:endpoint.obj
 0002:0001c5b8       $unwind$pjmedia_codec_g711_deinit 00000001400885b8     pjmedia-x86_64-x64-vc14-release:g711.obj
 0002:0001c5c4       $unwind$g711_alloc_codec   00000001400885c4     pjmedia-x86_64-x64-vc14-release:g711.obj
 0002:0001c5dc       $unwind$g711_dealloc_codec 00000001400885dc     pjmedia-x86_64-x64-vc14-release:g711.obj
 0002:0001c5f4       $chain$0$g711_dealloc_codec 00000001400885f4     pjmedia-x86_64-x64-vc14-release:g711.obj
 0002:0001c608       $chain$1$g711_dealloc_codec 0000000140088608     pjmedia-x86_64-x64-vc14-release:g711.obj
 0002:0001c618       $unwind$lookup_dev         0000000140088618     pjmedia-x86_64-x64-vc14-release:audiodev.obj
 0002:0001c618       $unwind$g711_parse         0000000140088618     pjmedia-x86_64-x64-vc14-release:g711.obj
 0002:0001c618       $unwind$aes_inv_round      0000000140088618     libsrtp-x86_64-x64-vc14-release:aes.obj
 0002:0001c618       $unwind$aes_round          0000000140088618     libsrtp-x86_64-x64-vc14-release:aes.obj
 0002:0001c618       $unwind$srtp_rdbx_estimate_index 0000000140088618     libsrtp-x86_64-x64-vc14-release:rdbx.obj
 0002:0001c624       $chain$0$g711_encode       0000000140088624     pjmedia-x86_64-x64-vc14-release:g711.obj
 0002:0001c638       $chain$1$g711_encode       0000000140088638     pjmedia-x86_64-x64-vc14-release:g711.obj
 0002:0001c648       $chain$0$pjmedia_sdp_neg_create_w_local_offer 0000000140088648     pjmedia-x86_64-x64-vc14-release:sdp_neg.obj
 0002:0001c65c       $chain$1$pjmedia_sdp_neg_create_w_local_offer 000000014008865c     pjmedia-x86_64-x64-vc14-release:sdp_neg.obj
 0002:0001c65c       $chain$3$pjmedia_sdp_neg_create_w_local_offer 000000014008865c     pjmedia-x86_64-x64-vc14-release:sdp_neg.obj
 0002:0001c66c       $chain$2$pjmedia_sdp_neg_create_w_local_offer 000000014008866c     pjmedia-x86_64-x64-vc14-release:sdp_neg.obj
 0002:0001c680       $unwind$echo_supp_create   0000000140088680     pjmedia-x86_64-x64-vc14-release:echo_suppress.obj
 0002:0001c680       $unwind$pjmedia_plc_create 0000000140088680     pjmedia-x86_64-x64-vc14-release:plc_common.obj
 0002:0001c680       $unwind$pjmedia_sdp_neg_create_w_remote_offer 0000000140088680     pjmedia-x86_64-x64-vc14-release:sdp_neg.obj
 0002:0001c694       $chain$0$pjmedia_sdp_neg_create_w_remote_offer 0000000140088694     pjmedia-x86_64-x64-vc14-release:sdp_neg.obj
 0002:0001c6a8       $chain$1$pjmedia_sdp_neg_create_w_remote_offer 00000001400886a8     pjmedia-x86_64-x64-vc14-release:sdp_neg.obj
 0002:0001c6a8       $chain$3$pjmedia_sdp_neg_create_w_remote_offer 00000001400886a8     pjmedia-x86_64-x64-vc14-release:sdp_neg.obj
 0002:0001c6b8       $chain$2$pjmedia_sdp_neg_create_w_remote_offer 00000001400886b8     pjmedia-x86_64-x64-vc14-release:sdp_neg.obj
 0002:0001c6cc       $unwind$pjmedia_sdp_neg_modify_local_offer2 00000001400886cc     pjmedia-x86_64-x64-vc14-release:sdp_neg.obj
 0002:0001c6dc       $chain$2$pjmedia_sdp_neg_modify_local_offer2 00000001400886dc     pjmedia-x86_64-x64-vc14-release:sdp_neg.obj
 0002:0001c6f8       $chain$3$pjmedia_sdp_neg_modify_local_offer2 00000001400886f8     pjmedia-x86_64-x64-vc14-release:sdp_neg.obj
 0002:0001c70c       $chain$5$pjmedia_sdp_neg_modify_local_offer2 000000014008870c     pjmedia-x86_64-x64-vc14-release:sdp_neg.obj
 0002:0001c720       $chain$6$pjmedia_sdp_neg_modify_local_offer2 0000000140088720     pjmedia-x86_64-x64-vc14-release:sdp_neg.obj
 0002:0001c730       $chain$7$pjmedia_sdp_neg_modify_local_offer2 0000000140088730     pjmedia-x86_64-x64-vc14-release:sdp_neg.obj
 0002:0001c740       $unwind$pjmedia_sdp_neg_negotiate 0000000140088740     pjmedia-x86_64-x64-vc14-release:sdp_neg.obj
 0002:0001c74c       $chain$0$pjmedia_sdp_neg_negotiate 000000014008874c     pjmedia-x86_64-x64-vc14-release:sdp_neg.obj
 0002:0001c760       $chain$7$pjmedia_sdp_neg_negotiate 0000000140088760     pjmedia-x86_64-x64-vc14-release:sdp_neg.obj
 0002:0001c788       $chain$9$pjmedia_sdp_neg_negotiate 0000000140088788     pjmedia-x86_64-x64-vc14-release:sdp_neg.obj
 0002:0001c7b0       $chain$10$pjmedia_sdp_neg_negotiate 00000001400887b0     pjmedia-x86_64-x64-vc14-release:sdp_neg.obj
 0002:0001c7c0       $unwind$pjmedia_sdp_neg_fmt_match 00000001400887c0     pjmedia-x86_64-x64-vc14-release:sdp_neg.obj
 0002:0001c7e0       $unwind$process_m_answer   00000001400887e0     pjmedia-x86_64-x64-vc14-release:sdp_neg.obj
 0002:0001c7f8       $chain$3$process_m_answer  00000001400887f8     pjmedia-x86_64-x64-vc14-release:sdp_neg.obj
 0002:0001c818       $chain$4$process_m_answer  0000000140088818     pjmedia-x86_64-x64-vc14-release:sdp_neg.obj
 0002:0001c828       $unwind$apply_answer_symmetric_pt 0000000140088828     pjmedia-x86_64-x64-vc14-release:sdp_neg.obj
 0002:0001c840       $chain$0$apply_answer_symmetric_pt 0000000140088840     pjmedia-x86_64-x64-vc14-release:sdp_neg.obj
 0002:0001c854       $chain$4$apply_answer_symmetric_pt 0000000140088854     pjmedia-x86_64-x64-vc14-release:sdp_neg.obj
 0002:0001c874       $chain$5$apply_answer_symmetric_pt 0000000140088874     pjmedia-x86_64-x64-vc14-release:sdp_neg.obj
 0002:0001c888       $chain$6$apply_answer_symmetric_pt 0000000140088888     pjmedia-x86_64-x64-vc14-release:sdp_neg.obj
 0002:0001c898       $unwind$match_offer        0000000140088898     pjmedia-x86_64-x64-vc14-release:sdp_neg.obj
 0002:0001c8b4       $chain$1$match_offer       00000001400888b4     pjmedia-x86_64-x64-vc14-release:sdp_neg.obj
 0002:0001c8cc       $chain$2$match_offer       00000001400888cc     pjmedia-x86_64-x64-vc14-release:sdp_neg.obj
 0002:0001c8dc       $unwind$create_answer      00000001400888dc     pjmedia-x86_64-x64-vc14-release:sdp_neg.obj
 0002:0001c8f8       $chain$0$create_answer     00000001400888f8     pjmedia-x86_64-x64-vc14-release:sdp_neg.obj
 0002:0001c90c       $chain$1$create_answer     000000014008890c     pjmedia-x86_64-x64-vc14-release:sdp_neg.obj
 0002:0001c920       $chain$2$create_answer     0000000140088920     pjmedia-x86_64-x64-vc14-release:sdp_neg.obj
 0002:0001c934       $chain$3$create_answer     0000000140088934     pjmedia-x86_64-x64-vc14-release:sdp_neg.obj
 0002:0001c944       $chain$4$create_answer     0000000140088944     pjmedia-x86_64-x64-vc14-release:sdp_neg.obj
 0002:0001c954       $chain$5$create_answer     0000000140088954     pjmedia-x86_64-x64-vc14-release:sdp_neg.obj
 0002:0001c964       $unwind$pjmedia_snd_port_create 0000000140088964     pjmedia-x86_64-x64-vc14-release:sound_port.obj
 0002:0001c980       $unwind$reset_pool         0000000140088980     pjlib-x86_64-x64-vc14-release:pool.obj
 0002:0001c980       $unwind$pjmedia_snd_port_create2 0000000140088980     pjmedia-x86_64-x64-vc14-release:sound_port.obj
 0002:0001c990       $chain$0$pjmedia_snd_port_create2 0000000140088990     pjmedia-x86_64-x64-vc14-release:sound_port.obj
 0002:0001c9a4       $chain$2$pjmedia_snd_port_create2 00000001400889a4     pjmedia-x86_64-x64-vc14-release:sound_port.obj
 0002:0001c9b8       $chain$3$pjmedia_snd_port_create2 00000001400889b8     pjmedia-x86_64-x64-vc14-release:sound_port.obj
 0002:0001c9c8       $unwind$pjmedia_snd_port_set_ec 00000001400889c8     pjmedia-x86_64-x64-vc14-release:sound_port.obj
 0002:0001c9e0       $chain$0$pjmedia_snd_port_set_ec 00000001400889e0     pjmedia-x86_64-x64-vc14-release:sound_port.obj
 0002:0001c9f4       $chain$1$pjmedia_snd_port_set_ec 00000001400889f4     pjmedia-x86_64-x64-vc14-release:sound_port.obj
 0002:0001ca04       $unwind$start_sound_device 0000000140088a04     pjmedia-x86_64-x64-vc14-release:sound_port.obj
 0002:0001ca20       $unwind$pjmedia_stream_info_from_sdp 0000000140088a20     pjmedia-x86_64-x64-vc14-release:stream_info.obj
 0002:0001ca38       $chain$3$pjmedia_stream_info_from_sdp 0000000140088a38     pjmedia-x86_64-x64-vc14-release:stream_info.obj
 0002:0001ca58       $chain$4$pjmedia_stream_info_from_sdp 0000000140088a58     pjmedia-x86_64-x64-vc14-release:stream_info.obj
 0002:0001ca6c       $chain$5$pjmedia_stream_info_from_sdp 0000000140088a6c     pjmedia-x86_64-x64-vc14-release:stream_info.obj
 0002:0001ca7c       $chain$6$pjmedia_stream_info_from_sdp 0000000140088a7c     pjmedia-x86_64-x64-vc14-release:stream_info.obj
 0002:0001ca7c       $chain$9$pjmedia_stream_info_from_sdp 0000000140088a7c     pjmedia-x86_64-x64-vc14-release:stream_info.obj
 0002:0001ca8c       $chain$7$pjmedia_stream_info_from_sdp 0000000140088a8c     pjmedia-x86_64-x64-vc14-release:stream_info.obj
 0002:0001cab0       $chain$8$pjmedia_stream_info_from_sdp 0000000140088ab0     pjmedia-x86_64-x64-vc14-release:stream_info.obj
 0002:0001cad0       $unwind$get_audio_codec_info_param 0000000140088ad0     pjmedia-x86_64-x64-vc14-release:stream_info.obj
 0002:0001caf0       $unwind$pjmedia_stream_create 0000000140088af0     pjmedia-x86_64-x64-vc14-release:stream.obj
 0002:0001cb0c       $chain$0$pjmedia_stream_create 0000000140088b0c     pjmedia-x86_64-x64-vc14-release:stream.obj
 0002:0001cb20       $chain$1$pjmedia_stream_create 0000000140088b20     pjmedia-x86_64-x64-vc14-release:stream.obj
 0002:0001cb34       $chain$2$pjmedia_stream_create 0000000140088b34     pjmedia-x86_64-x64-vc14-release:stream.obj
 0002:0001cb48       $chain$3$pjmedia_stream_create 0000000140088b48     pjmedia-x86_64-x64-vc14-release:stream.obj
 0002:0001cb58       $chain$4$pjmedia_stream_create 0000000140088b58     pjmedia-x86_64-x64-vc14-release:stream.obj
 0002:0001cb58       $chain$6$pjmedia_stream_create 0000000140088b58     pjmedia-x86_64-x64-vc14-release:stream.obj
 0002:0001cb68       $chain$5$pjmedia_stream_create 0000000140088b68     pjmedia-x86_64-x64-vc14-release:stream.obj
 0002:0001cb84       $chain$0$pjmedia_stream_destroy 0000000140088b84     pjmedia-x86_64-x64-vc14-release:stream.obj
 0002:0001cb98       $chain$1$pjmedia_stream_destroy 0000000140088b98     pjmedia-x86_64-x64-vc14-release:stream.obj
 0002:0001cbac       $chain$4$pjmedia_stream_destroy 0000000140088bac     pjmedia-x86_64-x64-vc14-release:stream.obj
 0002:0001cbc8       $chain$5$pjmedia_stream_destroy 0000000140088bc8     pjmedia-x86_64-x64-vc14-release:stream.obj
 0002:0001cbd8       $chain$6$pjmedia_stream_destroy 0000000140088bd8     pjmedia-x86_64-x64-vc14-release:stream.obj
 0002:0001cbe8       $chain$7$pjmedia_stream_destroy 0000000140088be8     pjmedia-x86_64-x64-vc14-release:stream.obj
 0002:0001cbf8       $unwind$send_rtcp          0000000140088bf8     pjmedia-x86_64-x64-vc14-release:stream.obj
 0002:0001cc08       $chain$3$send_rtcp         0000000140088c08     pjmedia-x86_64-x64-vc14-release:stream.obj
 0002:0001cc28       $chain$4$send_rtcp         0000000140088c28     pjmedia-x86_64-x64-vc14-release:stream.obj
 0002:0001cc3c       $chain$5$send_rtcp         0000000140088c3c     pjmedia-x86_64-x64-vc14-release:stream.obj
 0002:0001cc4c       $chain$6$send_rtcp         0000000140088c4c     pjmedia-x86_64-x64-vc14-release:stream.obj
 0002:0001cc5c       $unwind$get_frame          0000000140088c5c     pjmedia-x86_64-x64-vc14-release:stream.obj
 0002:0001cc74       $chain$1$get_frame         0000000140088c74     pjmedia-x86_64-x64-vc14-release:stream.obj
 0002:0001cc8c       $chain$4$get_frame         0000000140088c8c     pjmedia-x86_64-x64-vc14-release:stream.obj
 0002:0001cca8       $chain$5$get_frame         0000000140088ca8     pjmedia-x86_64-x64-vc14-release:stream.obj
 0002:0001ccb8       $chain$6$get_frame         0000000140088cb8     pjmedia-x86_64-x64-vc14-release:stream.obj
 0002:0001ccc8       $unwind$get_frame_ext      0000000140088cc8     pjmedia-x86_64-x64-vc14-release:stream.obj
 0002:0001cce4       $chain$1$get_frame_ext     0000000140088ce4     pjmedia-x86_64-x64-vc14-release:stream.obj
 0002:0001ccfc       $chain$2$get_frame_ext     0000000140088cfc     pjmedia-x86_64-x64-vc14-release:stream.obj
 0002:0001cd0c       $unwind$publish_tp_event   0000000140088d0c     pjmedia-x86_64-x64-vc14-release:stream.obj
 0002:0001cd28       $unwind$put_frame_imp      0000000140088d28     pjmedia-x86_64-x64-vc14-release:stream.obj
 0002:0001cd48       $unwind$put_frame          0000000140088d48     pjmedia-x86_64-x64-vc14-release:stream.obj
 0002:0001cd5c       $chain$0$put_frame         0000000140088d5c     pjmedia-x86_64-x64-vc14-release:stream.obj
 0002:0001cd70       $chain$1$put_frame         0000000140088d70     pjmedia-x86_64-x64-vc14-release:stream.obj
 0002:0001cd80       $unwind$on_rx_rtp          0000000140088d80     pjmedia-x86_64-x64-vc14-release:stream.obj
 0002:0001cda4       $chain$0$on_rx_rtp         0000000140088da4     pjmedia-x86_64-x64-vc14-release:stream.obj
 0002:0001cdb8       $chain$1$on_rx_rtp         0000000140088db8     pjmedia-x86_64-x64-vc14-release:stream.obj
 0002:0001cdcc       $chain$2$on_rx_rtp         0000000140088dcc     pjmedia-x86_64-x64-vc14-release:stream.obj
 0002:0001cddc       $chain$3$on_rx_rtp         0000000140088ddc     pjmedia-x86_64-x64-vc14-release:stream.obj
 0002:0001cdec       $unwind$create_channel     0000000140088dec     pjmedia-x86_64-x64-vc14-release:stream.obj
 0002:0001ce04       $unwind$pjmedia_transport_udp_create3 0000000140088e04     pjmedia-x86_64-x64-vc14-release:transport_udp.obj
 0002:0001ce20       $chain$0$pjmedia_transport_udp_create3 0000000140088e20     pjmedia-x86_64-x64-vc14-release:transport_udp.obj
 0002:0001ce34       $chain$1$pjmedia_transport_udp_create3 0000000140088e34     pjmedia-x86_64-x64-vc14-release:transport_udp.obj
 0002:0001ce34       $chain$3$pjmedia_transport_udp_create3 0000000140088e34     pjmedia-x86_64-x64-vc14-release:transport_udp.obj
 0002:0001ce44       $chain$2$pjmedia_transport_udp_create3 0000000140088e44     pjmedia-x86_64-x64-vc14-release:transport_udp.obj
 0002:0001ce58       $unwind$pjmedia_transport_udp_attach 0000000140088e58     pjmedia-x86_64-x64-vc14-release:transport_udp.obj
 0002:0001ce74       $chain$1$pjmedia_transport_udp_attach 0000000140088e74     pjmedia-x86_64-x64-vc14-release:transport_udp.obj
 0002:0001ce8c       $chain$2$pjmedia_transport_udp_attach 0000000140088e8c     pjmedia-x86_64-x64-vc14-release:transport_udp.obj
 0002:0001cea0       $chain$3$pjmedia_transport_udp_attach 0000000140088ea0     pjmedia-x86_64-x64-vc14-release:transport_udp.obj
 0002:0001ceb0       $chain$4$pjmedia_transport_udp_attach 0000000140088eb0     pjmedia-x86_64-x64-vc14-release:transport_udp.obj
 0002:0001ceb0       $chain$6$pjmedia_transport_udp_attach 0000000140088eb0     pjmedia-x86_64-x64-vc14-release:transport_udp.obj
 0002:0001cec0       $chain$5$pjmedia_transport_udp_attach 0000000140088ec0     pjmedia-x86_64-x64-vc14-release:transport_udp.obj
 0002:0001cedc       $unwind$on_rx_rtp          0000000140088edc     pjmedia-x86_64-x64-vc14-release:transport_udp.obj
 0002:0001cef8       $chain$0$on_rx_rtp         0000000140088ef8     pjmedia-x86_64-x64-vc14-release:transport_udp.obj
 0002:0001cf0c       $chain$2$on_rx_rtp         0000000140088f0c     pjmedia-x86_64-x64-vc14-release:transport_udp.obj
 0002:0001cf24       $chain$3$on_rx_rtp         0000000140088f24     pjmedia-x86_64-x64-vc14-release:transport_udp.obj
 0002:0001cf34       $chain$4$on_rx_rtp         0000000140088f34     pjmedia-x86_64-x64-vc14-release:transport_udp.obj
 0002:0001cf44       $unwind$on_rx_rtcp         0000000140088f44     pjmedia-x86_64-x64-vc14-release:transport_udp.obj
 0002:0001cf5c       $chain$0$on_rx_rtcp        0000000140088f5c     pjmedia-x86_64-x64-vc14-release:transport_udp.obj
 0002:0001cf70       $chain$4$on_rx_rtcp        0000000140088f70     pjmedia-x86_64-x64-vc14-release:transport_udp.obj
 0002:0001cf90       $chain$5$on_rx_rtcp        0000000140088f90     pjmedia-x86_64-x64-vc14-release:transport_udp.obj
 0002:0001cfa0       $chain$6$on_rx_rtcp        0000000140088fa0     pjmedia-x86_64-x64-vc14-release:transport_udp.obj
 0002:0001cfb0       $unwind$transport_send_rtp 0000000140088fb0     pjmedia-x86_64-x64-vc14-release:transport_udp.obj
 0002:0001cfc4       $unwind$transport_restart  0000000140088fc4     pjmedia-x86_64-x64-vc14-release:transport_udp.obj
 0002:0001cfdc       $unwind$print_connection_info 0000000140088fdc     pjmedia-x86_64-x64-vc14-release:sdp.obj
 0002:0001cfdc       $unwind$call_rtp_cb        0000000140088fdc     pjmedia-x86_64-x64-vc14-release:transport_udp.obj
 0002:0001cfe4       $unwind$tp_attach          0000000140088fe4     pjmedia-x86_64-x64-vc14-release:transport_udp.obj
 0002:0001cffc       $chain$1$tp_attach         0000000140088ffc     pjmedia-x86_64-x64-vc14-release:transport_udp.obj
 0002:0001d014       $chain$2$tp_attach         0000000140089014     pjmedia-x86_64-x64-vc14-release:transport_udp.obj
 0002:0001d024       $unwind$pjmedia_sdp_attr_create 0000000140089024     pjmedia-x86_64-x64-vc14-release:sdp.obj
 0002:0001d024       $unwind$pjmedia_silence_det_create 0000000140089024     pjmedia-x86_64-x64-vc14-release:silencedet.obj
 0002:0001d034       $chain$0$pjmedia_sdp_attr_create 0000000140089034     pjmedia-x86_64-x64-vc14-release:sdp.obj
 0002:0001d048       $chain$2$pjmedia_sdp_attr_create 0000000140089048     pjmedia-x86_64-x64-vc14-release:sdp.obj
 0002:0001d05c       $chain$3$pjmedia_sdp_attr_create 000000014008905c     pjmedia-x86_64-x64-vc14-release:sdp.obj
 0002:0001d06c       $unwind$pjmedia_sdp_attr_find2 000000014008906c     pjmedia-x86_64-x64-vc14-release:sdp.obj
 0002:0001d07c       $chain$1$pjmedia_sdp_attr_find2 000000014008907c     pjmedia-x86_64-x64-vc14-release:sdp.obj
 0002:0001d094       $chain$3$pjmedia_sdp_attr_find2 0000000140089094     pjmedia-x86_64-x64-vc14-release:sdp.obj
 0002:0001d0ac       $unwind$pjmedia_sdp_attr_remove_all 00000001400890ac     pjmedia-x86_64-x64-vc14-release:sdp.obj
 0002:0001d0ac       $unwind$pjmedia_sdp_media_remove_all_attr 00000001400890ac     pjmedia-x86_64-x64-vc14-release:sdp.obj
 0002:0001d0bc       $chain$0$pjmedia_sdp_attr_remove_all 00000001400890bc     pjmedia-x86_64-x64-vc14-release:sdp.obj
 0002:0001d0d0       $chain$1$pjmedia_sdp_attr_remove_all 00000001400890d0     pjmedia-x86_64-x64-vc14-release:sdp.obj
 0002:0001d0e0       $unwind$pjmedia_sdp_attr_get_rtpmap 00000001400890e0     pjmedia-x86_64-x64-vc14-release:sdp.obj
 0002:0001d0fc       $unwind$pjmedia_sdp_rtpmap_to_attr 00000001400890fc     pjmedia-x86_64-x64-vc14-release:sdp.obj
 0002:0001d114       $chain$0$pjmedia_sdp_rtpmap_to_attr 0000000140089114     pjmedia-x86_64-x64-vc14-release:sdp.obj
 0002:0001d128       $chain$1$pjmedia_sdp_rtpmap_to_attr 0000000140089128     pjmedia-x86_64-x64-vc14-release:sdp.obj
 0002:0001d128       $chain$3$pjmedia_sdp_rtpmap_to_attr 0000000140089128     pjmedia-x86_64-x64-vc14-release:sdp.obj
 0002:0001d138       $chain$2$pjmedia_sdp_rtpmap_to_attr 0000000140089138     pjmedia-x86_64-x64-vc14-release:sdp.obj
 0002:0001d14c       $unwind$pjmedia_sdp_attr_get_rtcp 000000014008914c     pjmedia-x86_64-x64-vc14-release:sdp.obj
 0002:0001d164       $unwind$pjmedia_sdp_attr_create_rtcp 0000000140089164     pjmedia-x86_64-x64-vc14-release:sdp.obj
 0002:0001d17c       $unwind$pjmedia_sdp_attr_get_ssrc 000000014008917c     pjmedia-x86_64-x64-vc14-release:sdp.obj
 0002:0001d194       $unwind$pjmedia_sdp_media_find_attr 0000000140089194     pjmedia-x86_64-x64-vc14-release:sdp.obj
 0002:0001d1a0       $chain$3$pjmedia_sdp_media_find_attr 00000001400891a0     pjmedia-x86_64-x64-vc14-release:sdp.obj
 0002:0001d1c0       $chain$5$pjmedia_sdp_media_find_attr 00000001400891c0     pjmedia-x86_64-x64-vc14-release:sdp.obj
 0002:0001d1d8       $chain$6$pjmedia_sdp_media_find_attr 00000001400891d8     pjmedia-x86_64-x64-vc14-release:sdp.obj
 0002:0001d1e8       $chain$7$pjmedia_sdp_media_find_attr 00000001400891e8     pjmedia-x86_64-x64-vc14-release:sdp.obj
 0002:0001d1f8       $unwind$pjmedia_sdp_media_find_attr2 00000001400891f8     pjmedia-x86_64-x64-vc14-release:sdp.obj
 0002:0001d200       $chain$3$pjmedia_sdp_media_find_attr2 0000000140089200     pjmedia-x86_64-x64-vc14-release:sdp.obj
 0002:0001d220       $chain$5$pjmedia_sdp_media_find_attr2 0000000140089220     pjmedia-x86_64-x64-vc14-release:sdp.obj
 0002:0001d238       $chain$6$pjmedia_sdp_media_find_attr2 0000000140089238     pjmedia-x86_64-x64-vc14-release:sdp.obj
 0002:0001d248       $chain$7$pjmedia_sdp_media_find_attr2 0000000140089248     pjmedia-x86_64-x64-vc14-release:sdp.obj
 0002:0001d258       $chain$0$pjmedia_sdp_media_remove_all_attr 0000000140089258     pjmedia-x86_64-x64-vc14-release:sdp.obj
 0002:0001d26c       $chain$1$pjmedia_sdp_media_remove_all_attr 000000014008926c     pjmedia-x86_64-x64-vc14-release:sdp.obj
 0002:0001d27c       $unwind$pjmedia_sdp_media_remove_attr 000000014008927c     pjmedia-x86_64-x64-vc14-release:sdp.obj
 0002:0001d290       $chain$0$pjmedia_sdp_media_remove_attr 0000000140089290     pjmedia-x86_64-x64-vc14-release:sdp.obj
 0002:0001d2a4       $chain$1$pjmedia_sdp_media_remove_attr 00000001400892a4     pjmedia-x86_64-x64-vc14-release:sdp.obj
 0002:0001d2b4       $unwind$pjmedia_sdp_parse  00000001400892b4     pjmedia-x86_64-x64-vc14-release:sdp.obj
 0002:0001d2d4       $unwind$pjmedia_sdp_validate2 00000001400892d4     pjmedia-x86_64-x64-vc14-release:sdp.obj
 0002:0001d2e0       $chain$0$pjmedia_sdp_validate2 00000001400892e0     pjmedia-x86_64-x64-vc14-release:sdp.obj
 0002:0001d2f4       $chain$11$pjmedia_sdp_validate2 00000001400892f4     pjmedia-x86_64-x64-vc14-release:sdp.obj
 0002:0001d2f4       $chain$2$pjmedia_sdp_validate2 00000001400892f4     pjmedia-x86_64-x64-vc14-release:sdp.obj
 0002:0001d308       $chain$7$pjmedia_sdp_validate2 0000000140089308     pjmedia-x86_64-x64-vc14-release:sdp.obj
 0002:0001d32c       $chain$8$pjmedia_sdp_validate2 000000014008932c     pjmedia-x86_64-x64-vc14-release:sdp.obj
 0002:0001d33c       $chain$10$pjmedia_sdp_validate2 000000014008933c     pjmedia-x86_64-x64-vc14-release:sdp.obj
 0002:0001d364       $unwind$pjmedia_sdp_session_clone 0000000140089364     pjmedia-x86_64-x64-vc14-release:sdp.obj
 0002:0001d370       $chain$1$pjmedia_sdp_session_clone 0000000140089370     pjmedia-x86_64-x64-vc14-release:sdp.obj
 0002:0001d388       $chain$4$pjmedia_sdp_session_clone 0000000140089388     pjmedia-x86_64-x64-vc14-release:sdp.obj
 0002:0001d3a4       $chain$5$pjmedia_sdp_session_clone 00000001400893a4     pjmedia-x86_64-x64-vc14-release:sdp.obj
 0002:0001d3b4       $chain$6$pjmedia_sdp_session_clone 00000001400893b4     pjmedia-x86_64-x64-vc14-release:sdp.obj
 0002:0001d3c4       $unwind$print_bandw        00000001400893c4     pjmedia-x86_64-x64-vc14-release:sdp.obj
 0002:0001d3d4       $unwind$print_attr         00000001400893d4     pjmedia-x86_64-x64-vc14-release:sdp.obj
 0002:0001d3e4       $unwind$print_media_desc   00000001400893e4     pjmedia-x86_64-x64-vc14-release:sdp.obj
 0002:0001d400       $unwind$apply_media_direction 0000000140089400     pjmedia-x86_64-x64-vc14-release:sdp.obj
 0002:0001d410       $chain$0$apply_media_direction 0000000140089410     pjmedia-x86_64-x64-vc14-release:sdp.obj
 0002:0001d424       $chain$1$apply_media_direction 0000000140089424     pjmedia-x86_64-x64-vc14-release:sdp.obj
 0002:0001d438       $chain$2$apply_media_direction 0000000140089438     pjmedia-x86_64-x64-vc14-release:sdp.obj
 0002:0001d44c       $chain$3$apply_media_direction 000000014008944c     pjmedia-x86_64-x64-vc14-release:sdp.obj
 0002:0001d45c       $chain$4$apply_media_direction 000000014008945c     pjmedia-x86_64-x64-vc14-release:sdp.obj
 0002:0001d46c       $chain$5$apply_media_direction 000000014008946c     pjmedia-x86_64-x64-vc14-release:sdp.obj
 0002:0001d47c       $chain$0$validate_sdp_conn 000000014008947c     pjmedia-x86_64-x64-vc14-release:sdp.obj
 0002:0001d490       $chain$2$validate_sdp_conn 0000000140089490     pjmedia-x86_64-x64-vc14-release:sdp.obj
 0002:0001d4a4       $unwind$pjmedia_aud_driver_init 00000001400894a4     pjmedia-x86_64-x64-vc14-release:audiodev.obj
 0002:0001d4c0       $chain$2$pjmedia_aud_driver_init 00000001400894c0     pjmedia-x86_64-x64-vc14-release:audiodev.obj
 0002:0001d4dc       $chain$3$pjmedia_aud_driver_init 00000001400894dc     pjmedia-x86_64-x64-vc14-release:audiodev.obj
 0002:0001d4dc       $chain$5$pjmedia_aud_driver_init 00000001400894dc     pjmedia-x86_64-x64-vc14-release:audiodev.obj
 0002:0001d4ec       $chain$4$pjmedia_aud_driver_init 00000001400894ec     pjmedia-x86_64-x64-vc14-release:audiodev.obj
 0002:0001d508       $chain$0$pjmedia_aud_dev_default_param 0000000140089508     pjmedia-x86_64-x64-vc14-release:audiodev.obj
 0002:0001d51c       $chain$1$pjmedia_aud_dev_default_param 000000014008951c     pjmedia-x86_64-x64-vc14-release:audiodev.obj
 0002:0001d52c       $unwind$pjmedia_aud_stream_create 000000014008952c     pjmedia-x86_64-x64-vc14-release:audiodev.obj
 0002:0001d54c       $chain$0$pjmedia_aud_stream_create 000000014008954c     pjmedia-x86_64-x64-vc14-release:audiodev.obj
 0002:0001d560       $chain$1$pjmedia_aud_stream_create 0000000140089560     pjmedia-x86_64-x64-vc14-release:audiodev.obj
 0002:0001d560       $chain$3$pjmedia_aud_stream_create 0000000140089560     pjmedia-x86_64-x64-vc14-release:audiodev.obj
 0002:0001d570       $chain$2$pjmedia_aud_stream_create 0000000140089570     pjmedia-x86_64-x64-vc14-release:audiodev.obj
 0002:0001d584       $unwind$pjmedia_codec_param_clone 0000000140089584     pjmedia-x86_64-x64-vc14-release:codec.obj
 0002:0001d584       $unwind$srtp_aes_icm_context_init 0000000140089584     libsrtp-x86_64-x64-vc14-release:aes_icm.obj
 0002:0001d590       $chain$3$pjmedia_codec_param_clone 0000000140089590     pjmedia-x86_64-x64-vc14-release:codec.obj
 0002:0001d5b0       $chain$4$pjmedia_codec_param_clone 00000001400895b0     pjmedia-x86_64-x64-vc14-release:codec.obj
 0002:0001d5c4       $chain$5$pjmedia_codec_param_clone 00000001400895c4     pjmedia-x86_64-x64-vc14-release:codec.obj
 0002:0001d5d4       $chain$6$pjmedia_codec_param_clone 00000001400895d4     pjmedia-x86_64-x64-vc14-release:codec.obj
 0002:0001d5f0       $chain$7$pjmedia_codec_param_clone 00000001400895f0     pjmedia-x86_64-x64-vc14-release:codec.obj
 0002:0001d600       $chain$0$pjmedia_codec_mgr_destroy 0000000140089600     pjmedia-x86_64-x64-vc14-release:codec.obj
 0002:0001d614       $chain$1$pjmedia_codec_mgr_destroy 0000000140089614     pjmedia-x86_64-x64-vc14-release:codec.obj
 0002:0001d628       $chain$2$pjmedia_codec_mgr_destroy 0000000140089628     pjmedia-x86_64-x64-vc14-release:codec.obj
 0002:0001d638       $chain$3$pjmedia_codec_mgr_destroy 0000000140089638     pjmedia-x86_64-x64-vc14-release:codec.obj
 0002:0001d648       $unwind$pjmedia_codec_mgr_register_factory 0000000140089648     pjmedia-x86_64-x64-vc14-release:codec.obj
 0002:0001d65c       $chain$0$pjmedia_codec_mgr_register_factory 000000014008965c     pjmedia-x86_64-x64-vc14-release:codec.obj
 0002:0001d670       $chain$1$pjmedia_codec_mgr_register_factory 0000000140089670     pjmedia-x86_64-x64-vc14-release:codec.obj
 0002:0001d684       $chain$2$pjmedia_codec_mgr_register_factory 0000000140089684     pjmedia-x86_64-x64-vc14-release:codec.obj
 0002:0001d694       $chain$3$pjmedia_codec_mgr_register_factory 0000000140089694     pjmedia-x86_64-x64-vc14-release:codec.obj
 0002:0001d6a4       $unwind$pj_strstr          00000001400896a4     pjlib-x86_64-x64-vc14-release:string.obj
 0002:0001d6a4       $unwind$pjmedia_codec_mgr_unregister_factory 00000001400896a4     pjmedia-x86_64-x64-vc14-release:codec.obj
 0002:0001d6a4       $unwind$speex_aec_cancel_echo 00000001400896a4     pjmedia-x86_64-x64-vc14-release:echo_speex.obj
 0002:0001d6a4       $unwind$speex_aec_capture  00000001400896a4     pjmedia-x86_64-x64-vc14-release:echo_speex.obj
 0002:0001d6a4       $unwind$speex_echo_playback 00000001400896a4     libspeex-x86_64-x64-vc14-release:mdf.obj
 0002:0001d6b0       $chain$0$pjmedia_codec_mgr_unregister_factory 00000001400896b0     pjmedia-x86_64-x64-vc14-release:codec.obj
 0002:0001d6c4       $chain$1$pjmedia_codec_mgr_unregister_factory 00000001400896c4     pjmedia-x86_64-x64-vc14-release:codec.obj
 0002:0001d6d4       $unwind$pjmedia_codec_info_to_id 00000001400896d4     pjmedia-x86_64-x64-vc14-release:codec.obj
 0002:0001d6e0       $unwind$pjmedia_codec_mgr_find_codecs_by_id 00000001400896e0     pjmedia-x86_64-x64-vc14-release:codec.obj
 0002:0001d6f4       $chain$0$pjmedia_codec_mgr_find_codecs_by_id 00000001400896f4     pjmedia-x86_64-x64-vc14-release:codec.obj
 0002:0001d708       $chain$1$pjmedia_codec_mgr_find_codecs_by_id 0000000140089708     pjmedia-x86_64-x64-vc14-release:codec.obj
 0002:0001d71c       $chain$2$pjmedia_codec_mgr_find_codecs_by_id 000000014008971c     pjmedia-x86_64-x64-vc14-release:codec.obj
 0002:0001d72c       $chain$3$pjmedia_codec_mgr_find_codecs_by_id 000000014008972c     pjmedia-x86_64-x64-vc14-release:codec.obj
 0002:0001d73c       $unwind$pjmedia_codec_mgr_get_default_param 000000014008973c     pjmedia-x86_64-x64-vc14-release:codec.obj
 0002:0001d750       $chain$1$pjmedia_codec_mgr_get_default_param 0000000140089750     pjmedia-x86_64-x64-vc14-release:codec.obj
 0002:0001d768       $chain$2$pjmedia_codec_mgr_get_default_param 0000000140089768     pjmedia-x86_64-x64-vc14-release:codec.obj
 0002:0001d768       $chain$4$pjmedia_codec_mgr_get_default_param 0000000140089768     pjmedia-x86_64-x64-vc14-release:codec.obj
 0002:0001d778       $chain$3$pjmedia_codec_mgr_get_default_param 0000000140089778     pjmedia-x86_64-x64-vc14-release:codec.obj
 0002:0001d790       $unwind$pj_timer_heap_cancel_if_active 0000000140089790     pjlib-x86_64-x64-vc14-release:timer.obj
 0002:0001d790       $unwind$pjmedia_codec_mgr_alloc_codec 0000000140089790     pjmedia-x86_64-x64-vc14-release:codec.obj
 0002:0001d790       $unwind$pjmedia_rtcp_build_rtcp_bye 0000000140089790     pjmedia-x86_64-x64-vc14-release:rtcp.obj
 0002:0001d7a0       $chain$1$pjmedia_codec_mgr_alloc_codec 00000001400897a0     pjmedia-x86_64-x64-vc14-release:codec.obj
 0002:0001d7b8       $chain$3$pjmedia_codec_mgr_alloc_codec 00000001400897b8     pjmedia-x86_64-x64-vc14-release:codec.obj
 0002:0001d7d0       $chain$4$pjmedia_codec_mgr_alloc_codec 00000001400897d0     pjmedia-x86_64-x64-vc14-release:codec.obj
 0002:0001d7e0       $unwind$sort_codecs        00000001400897e0     pjmedia-x86_64-x64-vc14-release:codec.obj
 0002:0001d7e0       $unwind$?filt$0@?0??__scrt_common_main_seh@@YAHXZ@4HA 00000001400897e0     MSVCRT:exe_main.obj
 0002:0001d7e8       $chain$1$sort_codecs       00000001400897e8     pjmedia-x86_64-x64-vc14-release:codec.obj
 0002:0001d800       $chain$4$sort_codecs       0000000140089800     pjmedia-x86_64-x64-vc14-release:codec.obj
 0002:0001d81c       $chain$5$sort_codecs       000000014008981c     pjmedia-x86_64-x64-vc14-release:codec.obj
 0002:0001d82c       $chain$6$sort_codecs       000000014008982c     pjmedia-x86_64-x64-vc14-release:codec.obj
 0002:0001d83c       $unwind$pjmedia_strerror   000000014008983c     pjmedia-x86_64-x64-vc14-release:errno.obj
 0002:0001d850       $chain$1$pjmedia_strerror  0000000140089850     pjmedia-x86_64-x64-vc14-release:errno.obj
 0002:0001d864       $chain$2$pjmedia_strerror  0000000140089864     pjmedia-x86_64-x64-vc14-release:errno.obj
 0002:0001d874       $chain$0$pjmedia_plc_create 0000000140089874     pjmedia-x86_64-x64-vc14-release:plc_common.obj
 0002:0001d888       $chain$1$pjmedia_plc_create 0000000140089888     pjmedia-x86_64-x64-vc14-release:plc_common.obj
 0002:0001d898       $chain$0$pjmedia_silence_det_create 0000000140089898     pjmedia-x86_64-x64-vc14-release:silencedet.obj
 0002:0001d8ac       $chain$1$pjmedia_silence_det_create 00000001400898ac     pjmedia-x86_64-x64-vc14-release:silencedet.obj
 0002:0001d8bc       $unwind$pjmedia_silence_det_detect 00000001400898bc     pjmedia-x86_64-x64-vc14-release:silencedet.obj
 0002:0001d8c8       $unwind$jb_framelist_remove_head 00000001400898c8     pjmedia-x86_64-x64-vc14-release:jbuf.obj
 0002:0001d8c8       $unwind$pjmedia_silence_det_apply 00000001400898c8     pjmedia-x86_64-x64-vc14-release:silencedet.obj
 0002:0001d8d4       $chain$0$pjmedia_silence_det_apply 00000001400898d4     pjmedia-x86_64-x64-vc14-release:silencedet.obj
 0002:0001d8e8       $chain$3$pjmedia_silence_det_apply 00000001400898e8     pjmedia-x86_64-x64-vc14-release:silencedet.obj
 0002:0001d900       $unwind$pjmedia_echo_create2 0000000140089900     pjmedia-x86_64-x64-vc14-release:echo_common.obj
 0002:0001d918       $chain$0$pjmedia_echo_playback 0000000140089918     pjmedia-x86_64-x64-vc14-release:echo_common.obj
 0002:0001d92c       $chain$2$pjmedia_echo_playback 000000014008992c     pjmedia-x86_64-x64-vc14-release:echo_common.obj
 0002:0001d940       $chain$3$pjmedia_echo_playback 0000000140089940     pjmedia-x86_64-x64-vc14-release:echo_common.obj
 0002:0001d950       $unwind$pjmedia_echo_capture 0000000140089950     pjmedia-x86_64-x64-vc14-release:echo_common.obj
 0002:0001d968       $unwind$pjmedia_rtcp_fb_info_dup 0000000140089968     pjmedia-x86_64-x64-vc14-release:rtcp_fb.obj
 0002:0001d978       $chain$1$pjmedia_rtcp_fb_info_dup 0000000140089978     pjmedia-x86_64-x64-vc14-release:rtcp_fb.obj
 0002:0001d990       $chain$2$pjmedia_rtcp_fb_info_dup 0000000140089990     pjmedia-x86_64-x64-vc14-release:rtcp_fb.obj
 0002:0001d9a0       $unwind$pjmedia_rtcp_fb_decode_sdp2 00000001400899a0     pjmedia-x86_64-x64-vc14-release:rtcp_fb.obj
 0002:0001d9b8       $chain$0$pjmedia_rtcp_fb_decode_sdp2 00000001400899b8     pjmedia-x86_64-x64-vc14-release:rtcp_fb.obj
 0002:0001d9cc       $chain$1$pjmedia_rtcp_fb_decode_sdp2 00000001400899cc     pjmedia-x86_64-x64-vc14-release:rtcp_fb.obj
 0002:0001d9e0       $chain$4$pjmedia_rtcp_fb_decode_sdp2 00000001400899e0     pjmedia-x86_64-x64-vc14-release:rtcp_fb.obj
 0002:0001d9fc       $chain$5$pjmedia_rtcp_fb_decode_sdp2 00000001400899fc     pjmedia-x86_64-x64-vc14-release:rtcp_fb.obj
 0002:0001da0c       $chain$6$pjmedia_rtcp_fb_decode_sdp2 0000000140089a0c     pjmedia-x86_64-x64-vc14-release:rtcp_fb.obj
 0002:0001da1c       $chain$7$pjmedia_rtcp_fb_decode_sdp2 0000000140089a1c     pjmedia-x86_64-x64-vc14-release:rtcp_fb.obj
 0002:0001da2c       $chain$0$pjmedia_rtcp_fb_build_nack 0000000140089a2c     pjmedia-x86_64-x64-vc14-release:rtcp_fb.obj
 0002:0001da40       $chain$1$pjmedia_rtcp_fb_build_nack 0000000140089a40     pjmedia-x86_64-x64-vc14-release:rtcp_fb.obj
 0002:0001da40       $chain$3$pjmedia_rtcp_fb_build_nack 0000000140089a40     pjmedia-x86_64-x64-vc14-release:rtcp_fb.obj
 0002:0001da50       $chain$2$pjmedia_rtcp_fb_build_nack 0000000140089a50     pjmedia-x86_64-x64-vc14-release:rtcp_fb.obj
 0002:0001da64       $unwind$pjmedia_rtcp_fb_parse_nack 0000000140089a64     pjmedia-x86_64-x64-vc14-release:rtcp_fb.obj
 0002:0001da78       $chain$0$pjmedia_rtcp_fb_parse_nack 0000000140089a78     pjmedia-x86_64-x64-vc14-release:rtcp_fb.obj
 0002:0001da8c       $chain$1$pjmedia_rtcp_fb_parse_nack 0000000140089a8c     pjmedia-x86_64-x64-vc14-release:rtcp_fb.obj
 0002:0001da9c       $unwind$get_codec_info_from_sdp 0000000140089a9c     pjmedia-x86_64-x64-vc14-release:rtcp_fb.obj
 0002:0001dab0       $chain$1$get_codec_info_from_sdp 0000000140089ab0     pjmedia-x86_64-x64-vc14-release:rtcp_fb.obj
 0002:0001dac8       $chain$2$get_codec_info_from_sdp 0000000140089ac8     pjmedia-x86_64-x64-vc14-release:rtcp_fb.obj
 0002:0001dad8       $unwind$pjmedia_stream_info_parse_fmtp 0000000140089ad8     pjmedia-x86_64-x64-vc14-release:stream_common.obj
 0002:0001daf0       $chain$0$pjmedia_stream_info_parse_fmtp 0000000140089af0     pjmedia-x86_64-x64-vc14-release:stream_common.obj
 0002:0001db04       $chain$3$pjmedia_stream_info_parse_fmtp 0000000140089b04     pjmedia-x86_64-x64-vc14-release:stream_common.obj
 0002:0001db20       $chain$4$pjmedia_stream_info_parse_fmtp 0000000140089b20     pjmedia-x86_64-x64-vc14-release:stream_common.obj
 0002:0001db30       $chain$5$pjmedia_stream_info_parse_fmtp 0000000140089b30     pjmedia-x86_64-x64-vc14-release:stream_common.obj
 0002:0001db40       $unwind$pjmedia_rtp_decode_rtp 0000000140089b40     pjmedia-x86_64-x64-vc14-release:rtp.obj
 0002:0001db54       $unwind$pjmedia_rtp_session_update2 0000000140089b54     pjmedia-x86_64-x64-vc14-release:rtp.obj
 0002:0001db68       $unwind$pjmedia_rtp_seq_update 0000000140089b68     pjmedia-x86_64-x64-vc14-release:rtp.obj
 0002:0001db74       $unwind$pjmedia_rtcp_get_ntp_time 0000000140089b74     pjmedia-x86_64-x64-vc14-release:rtcp.obj
 0002:0001db88       $unwind$pjmedia_rtcp_rx_rtp2 0000000140089b88     pjmedia-x86_64-x64-vc14-release:rtcp.obj
 0002:0001db9c       $unwind$pjmedia_rtcp_rx_rtcp 0000000140089b9c     pjmedia-x86_64-x64-vc14-release:rtcp.obj
 0002:0001dbb4       $chain$4$pjmedia_rtcp_rx_rtcp 0000000140089bb4     pjmedia-x86_64-x64-vc14-release:rtcp.obj
 0002:0001dbd8       $chain$5$pjmedia_rtcp_rx_rtcp 0000000140089bd8     pjmedia-x86_64-x64-vc14-release:rtcp.obj
 0002:0001dbe8       $unwind$pjmedia_rtcp_build_rtcp_sdes 0000000140089be8     pjmedia-x86_64-x64-vc14-release:rtcp.obj
 0002:0001dbfc       $chain$0$pjmedia_rtcp_build_rtcp_sdes 0000000140089bfc     pjmedia-x86_64-x64-vc14-release:rtcp.obj
 0002:0001dc10       $chain$1$pjmedia_rtcp_build_rtcp_sdes 0000000140089c10     pjmedia-x86_64-x64-vc14-release:rtcp.obj
 0002:0001dc10       $chain$3$pjmedia_rtcp_build_rtcp_sdes 0000000140089c10     pjmedia-x86_64-x64-vc14-release:rtcp.obj
 0002:0001dc20       $chain$2$pjmedia_rtcp_build_rtcp_sdes 0000000140089c20     pjmedia-x86_64-x64-vc14-release:rtcp.obj
 0002:0001dc34       $chain$0$pjmedia_rtcp_build_rtcp_bye 0000000140089c34     pjmedia-x86_64-x64-vc14-release:rtcp.obj
 0002:0001dc48       $chain$2$pjmedia_rtcp_build_rtcp_bye 0000000140089c48     pjmedia-x86_64-x64-vc14-release:rtcp.obj
 0002:0001dc5c       $chain$3$pjmedia_rtcp_build_rtcp_bye 0000000140089c5c     pjmedia-x86_64-x64-vc14-release:rtcp.obj
 0002:0001dc70       $chain$5$pjmedia_rtcp_build_rtcp_bye 0000000140089c70     pjmedia-x86_64-x64-vc14-release:rtcp.obj
 0002:0001dc80       $chain$0$parse_rtcp_report 0000000140089c80     pjmedia-x86_64-x64-vc14-release:rtcp.obj
 0002:0001dc94       $chain$1$parse_rtcp_report 0000000140089c94     pjmedia-x86_64-x64-vc14-release:rtcp.obj
 0002:0001dca4       $unwind$pjmedia_jbuf_create 0000000140089ca4     pjmedia-x86_64-x64-vc14-release:jbuf.obj
 0002:0001dcb8       $chain$1$pjmedia_jbuf_create 0000000140089cb8     pjmedia-x86_64-x64-vc14-release:jbuf.obj
 0002:0001dcd0       $chain$2$pjmedia_jbuf_create 0000000140089cd0     pjmedia-x86_64-x64-vc14-release:jbuf.obj
 0002:0001dce0       $unwind$pjmedia_jbuf_destroy 0000000140089ce0     pjmedia-x86_64-x64-vc14-release:jbuf.obj
 0002:0001dcec       $unwind$pjmedia_jbuf_put_frame3 0000000140089cec     pjmedia-x86_64-x64-vc14-release:jbuf.obj
 0002:0001dd08       $unwind$pjmedia_jbuf_get_frame2 0000000140089d08     pjmedia-x86_64-x64-vc14-release:jbuf.obj
 0002:0001dd1c       $chain$1$pjmedia_jbuf_get_frame2 0000000140089d1c     pjmedia-x86_64-x64-vc14-release:jbuf.obj
 0002:0001dd34       $chain$2$pjmedia_jbuf_get_frame2 0000000140089d34     pjmedia-x86_64-x64-vc14-release:jbuf.obj
 0002:0001dd44       $chain$1$jb_framelist_remove_head 0000000140089d44     pjmedia-x86_64-x64-vc14-release:jbuf.obj
 0002:0001dd5c       $chain$2$jb_framelist_remove_head 0000000140089d5c     pjmedia-x86_64-x64-vc14-release:jbuf.obj
 0002:0001dd6c       $chain$0$jb_framelist_put_at 0000000140089d6c     pjmedia-x86_64-x64-vc14-release:jbuf.obj
 0002:0001dd80       $chain$1$jb_framelist_put_at 0000000140089d80     pjmedia-x86_64-x64-vc14-release:jbuf.obj
 0002:0001dd90       $unwind$pjmedia_transport_srtp_start 0000000140089d90     pjmedia-x86_64-x64-vc14-release:transport_srtp.obj
 0002:0001ddac       $chain$2$pjmedia_transport_srtp_start 0000000140089dac     pjmedia-x86_64-x64-vc14-release:transport_srtp.obj
 0002:0001ddc8       $chain$3$pjmedia_transport_srtp_start 0000000140089dc8     pjmedia-x86_64-x64-vc14-release:transport_srtp.obj
 0002:0001ddd8       $chain$4$pjmedia_transport_srtp_start 0000000140089dd8     pjmedia-x86_64-x64-vc14-release:transport_srtp.obj
 0002:0001ddf4       $unwind$pjmedia_transport_srtp_stop 0000000140089df4     pjmedia-x86_64-x64-vc14-release:transport_srtp.obj
 0002:0001de08       $unwind$srtp_rtp_cb        0000000140089e08     pjmedia-x86_64-x64-vc14-release:transport_srtp.obj
 0002:0001de18       $chain$0$srtp_rtp_cb       0000000140089e18     pjmedia-x86_64-x64-vc14-release:transport_srtp.obj
 0002:0001de2c       $chain$2$srtp_rtp_cb       0000000140089e2c     pjmedia-x86_64-x64-vc14-release:transport_srtp.obj
 0002:0001de44       $chain$3$srtp_rtp_cb       0000000140089e44     pjmedia-x86_64-x64-vc14-release:transport_srtp.obj
 0002:0001de54       $chain$4$srtp_rtp_cb       0000000140089e54     pjmedia-x86_64-x64-vc14-release:transport_srtp.obj
 0002:0001de64       $unwind$srtp_rtcp_cb       0000000140089e64     pjmedia-x86_64-x64-vc14-release:transport_srtp.obj
 0002:0001de74       $chain$0$srtp_rtcp_cb      0000000140089e74     pjmedia-x86_64-x64-vc14-release:transport_srtp.obj
 0002:0001de88       $chain$1$srtp_rtcp_cb      0000000140089e88     pjmedia-x86_64-x64-vc14-release:transport_srtp.obj
 0002:0001de98       $unwind$transport_get_info 0000000140089e98     pjmedia-x86_64-x64-vc14-release:transport_srtp.obj
 0002:0001dea4       $chain$0$transport_get_info 0000000140089ea4     pjmedia-x86_64-x64-vc14-release:transport_srtp.obj
 0002:0001deb8       $chain$1$transport_get_info 0000000140089eb8     pjmedia-x86_64-x64-vc14-release:transport_srtp.obj
 0002:0001dec8       $chain$0$transport_detach  0000000140089ec8     pjmedia-x86_64-x64-vc14-release:transport_srtp.obj
 0002:0001dedc       $chain$1$transport_detach  0000000140089edc     pjmedia-x86_64-x64-vc14-release:transport_srtp.obj
 0002:0001deec       $chain$0$transport_send_rtp 0000000140089eec     pjmedia-x86_64-x64-vc14-release:transport_srtp.obj
 0002:0001df00       $chain$3$transport_send_rtp 0000000140089f00     pjmedia-x86_64-x64-vc14-release:transport_srtp.obj
 0002:0001df18       $chain$5$transport_send_rtp 0000000140089f18     pjmedia-x86_64-x64-vc14-release:transport_srtp.obj
 0002:0001df30       $chain$0$transport_send_rtcp 0000000140089f30     pjmedia-x86_64-x64-vc14-release:transport_srtp.obj
 0002:0001df44       $chain$3$transport_send_rtcp 0000000140089f44     pjmedia-x86_64-x64-vc14-release:transport_srtp.obj
 0002:0001df5c       $chain$5$transport_send_rtcp 0000000140089f5c     pjmedia-x86_64-x64-vc14-release:transport_srtp.obj
 0002:0001df74       $unwind$transport_send_rtcp2 0000000140089f74     pjmedia-x86_64-x64-vc14-release:transport_srtp.obj
 0002:0001df88       $chain$1$transport_send_rtcp2 0000000140089f88     pjmedia-x86_64-x64-vc14-release:transport_srtp.obj
 0002:0001df9c       $chain$2$transport_send_rtcp2 0000000140089f9c     pjmedia-x86_64-x64-vc14-release:transport_srtp.obj
 0002:0001dfac       $unwind$transport_media_create 0000000140089fac     pjmedia-x86_64-x64-vc14-release:transport_srtp.obj
 0002:0001dfc4       $chain$1$transport_media_create 0000000140089fc4     pjmedia-x86_64-x64-vc14-release:transport_srtp.obj
 0002:0001dfd8       $chain$2$transport_media_create 0000000140089fd8     pjmedia-x86_64-x64-vc14-release:transport_srtp.obj
 0002:0001dfe8       $unwind$transport_encode_sdp 0000000140089fe8     pjmedia-x86_64-x64-vc14-release:transport_srtp.obj
 0002:0001dff8       $chain$0$transport_encode_sdp 0000000140089ff8     pjmedia-x86_64-x64-vc14-release:transport_srtp.obj
 0002:0001e00c       $chain$2$transport_encode_sdp 000000014008a00c     pjmedia-x86_64-x64-vc14-release:transport_srtp.obj
 0002:0001e024       $chain$3$transport_encode_sdp 000000014008a024     pjmedia-x86_64-x64-vc14-release:transport_srtp.obj
 0002:0001e034       $chain$5$transport_encode_sdp 000000014008a034     pjmedia-x86_64-x64-vc14-release:transport_srtp.obj
 0002:0001e050       $chain$6$transport_encode_sdp 000000014008a050     pjmedia-x86_64-x64-vc14-release:transport_srtp.obj
 0002:0001e060       $unwind$transport_media_start 000000014008a060     pjmedia-x86_64-x64-vc14-release:transport_srtp.obj
 0002:0001e074       $chain$2$transport_media_start 000000014008a074     pjmedia-x86_64-x64-vc14-release:transport_srtp.obj
 0002:0001e08c       $chain$3$transport_media_start 000000014008a08c     pjmedia-x86_64-x64-vc14-release:transport_srtp.obj
 0002:0001e09c       $unwind$transport_media_stop 000000014008a09c     pjmedia-x86_64-x64-vc14-release:transport_srtp.obj
 0002:0001e0a8       $chain$2$transport_media_stop 000000014008a0a8     pjmedia-x86_64-x64-vc14-release:transport_srtp.obj
 0002:0001e0c0       $chain$3$transport_media_stop 000000014008a0c0     pjmedia-x86_64-x64-vc14-release:transport_srtp.obj
 0002:0001e0d0       $unwind$transport_destroy  000000014008a0d0     pjmedia-x86_64-x64-vc14-release:transport_srtp.obj
 0002:0001e0dc       $unwind$transport_attach2  000000014008a0dc     pjmedia-x86_64-x64-vc14-release:transport_srtp.obj
 0002:0001e0f0       $chain$1$transport_attach2 000000014008a0f0     pjmedia-x86_64-x64-vc14-release:transport_srtp.obj
 0002:0001e108       $chain$2$transport_attach2 000000014008a108     pjmedia-x86_64-x64-vc14-release:transport_srtp.obj
 0002:0001e108       $chain$4$transport_attach2 000000014008a108     pjmedia-x86_64-x64-vc14-release:transport_srtp.obj
 0002:0001e118       $chain$3$transport_attach2 000000014008a118     pjmedia-x86_64-x64-vc14-release:transport_srtp.obj
 0002:0001e130       $unwind$get_crypto_idx     000000014008a130     pjmedia-x86_64-x64-vc14-release:transport_srtp.obj
 0002:0001e144       $unwind$sdes_encode_sdp    000000014008a144     pjmedia-x86_64-x64-vc14-release:transport_srtp.obj
 0002:0001e16c       $unwind$sdes_media_start   000000014008a16c     pjmedia-x86_64-x64-vc14-release:transport_srtp.obj
 0002:0001e188       $chain$1$sdes_media_start  000000014008a188     pjmedia-x86_64-x64-vc14-release:transport_srtp.obj
 0002:0001e1a0       $chain$2$sdes_media_start  000000014008a1a0     pjmedia-x86_64-x64-vc14-release:transport_srtp.obj
 0002:0001e1b0       $unwind$generate_crypto_attr_value 000000014008a1b0     pjmedia-x86_64-x64-vc14-release:transport_srtp.obj
 0002:0001e1c8       $chain$3$generate_crypto_attr_value 000000014008a1c8     pjmedia-x86_64-x64-vc14-release:transport_srtp.obj
 0002:0001e1e8       $chain$4$generate_crypto_attr_value 000000014008a1e8     pjmedia-x86_64-x64-vc14-release:transport_srtp.obj
 0002:0001e1f8       $chain$5$generate_crypto_attr_value 000000014008a1f8     pjmedia-x86_64-x64-vc14-release:transport_srtp.obj
 0002:0001e218       $unwind$parse_attr_crypto  000000014008a218     pjmedia-x86_64-x64-vc14-release:transport_srtp.obj
 0002:0001e230       $unwind$fill_local_crypto  000000014008a230     pjmedia-x86_64-x64-vc14-release:transport_srtp.obj
 0002:0001e250       $unwind$pjmedia_wsola_create 000000014008a250     pjmedia-x86_64-x64-vc14-release:wsola.obj
 0002:0001e260       $chain$4$pjmedia_wsola_create 000000014008a260     pjmedia-x86_64-x64-vc14-release:wsola.obj
 0002:0001e284       $chain$5$pjmedia_wsola_create 000000014008a284     pjmedia-x86_64-x64-vc14-release:wsola.obj
 0002:0001e298       $chain$6$pjmedia_wsola_create 000000014008a298     pjmedia-x86_64-x64-vc14-release:wsola.obj
 0002:0001e2a8       $chain$7$pjmedia_wsola_create 000000014008a2a8     pjmedia-x86_64-x64-vc14-release:wsola.obj
 0002:0001e2bc       $chain$8$pjmedia_wsola_create 000000014008a2bc     pjmedia-x86_64-x64-vc14-release:wsola.obj
 0002:0001e2cc       $unwind$pjmedia_wsola_save 000000014008a2cc     pjmedia-x86_64-x64-vc14-release:wsola.obj
 0002:0001e2e0       $chain$1$pjmedia_wsola_save 000000014008a2e0     pjmedia-x86_64-x64-vc14-release:wsola.obj
 0002:0001e2f8       $chain$2$pjmedia_wsola_save 000000014008a2f8     pjmedia-x86_64-x64-vc14-release:wsola.obj
 0002:0001e308       $unwind$pjmedia_wsola_discard 000000014008a308     pjmedia-x86_64-x64-vc14-release:wsola.obj
 0002:0001e320       $chain$0$pjmedia_wsola_discard 000000014008a320     pjmedia-x86_64-x64-vc14-release:wsola.obj
 0002:0001e334       $chain$1$pjmedia_wsola_discard 000000014008a334     pjmedia-x86_64-x64-vc14-release:wsola.obj
 0002:0001e344       $unwind$pjmedia_circ_buf_copy 000000014008a344     pjmedia-x86_64-x64-vc14-release:wsola.obj
 0002:0001e358       $unwind$pjmedia_circ_buf_pack_buffer 000000014008a358     pjmedia-x86_64-x64-vc14-release:wsola.obj
 0002:0001e36c       $chain$1$pjmedia_circ_buf_pack_buffer 000000014008a36c     pjmedia-x86_64-x64-vc14-release:wsola.obj
 0002:0001e384       $chain$2$pjmedia_circ_buf_pack_buffer 000000014008a384     pjmedia-x86_64-x64-vc14-release:wsola.obj
 0002:0001e394       $unwind$find_pitch         000000014008a394     pjmedia-x86_64-x64-vc14-release:wsola.obj
 0002:0001e3a4       $chain$4$find_pitch        000000014008a3a4     pjmedia-x86_64-x64-vc14-release:wsola.obj
 0002:0001e3c8       $chain$5$find_pitch        000000014008a3c8     pjmedia-x86_64-x64-vc14-release:wsola.obj
 0002:0001e3d8       $unwind$overlapp_add       000000014008a3d8     pjmedia-x86_64-x64-vc14-release:wsola.obj
 0002:0001e3e4       $chain$3$overlapp_add      000000014008a3e4     pjmedia-x86_64-x64-vc14-release:wsola.obj
 0002:0001e404       $chain$4$overlapp_add      000000014008a404     pjmedia-x86_64-x64-vc14-release:wsola.obj
 0002:0001e414       $unwind$overlapp_add_simple 000000014008a414     pjmedia-x86_64-x64-vc14-release:wsola.obj
 0002:0001e414       $unwind$__scrt_is_nonwritable_in_current_image$filt$0 000000014008a414     MSVCRT:utility.obj
 0002:0001e41c       $chain$2$overlapp_add_simple 000000014008a41c     pjmedia-x86_64-x64-vc14-release:wsola.obj
 0002:0001e438       $chain$3$overlapp_add_simple 000000014008a438     pjmedia-x86_64-x64-vc14-release:wsola.obj
 0002:0001e448       $chain$0$echo_supp_create  000000014008a448     pjmedia-x86_64-x64-vc14-release:echo_suppress.obj
 0002:0001e45c       $chain$1$echo_supp_create  000000014008a45c     pjmedia-x86_64-x64-vc14-release:echo_suppress.obj
 0002:0001e46c       $unwind$echo_supp_get_stat 000000014008a46c     pjmedia-x86_64-x64-vc14-release:echo_suppress.obj
 0002:0001e484       $unwind$echo_supp_update   000000014008a484     pjmedia-x86_64-x64-vc14-release:echo_suppress.obj
 0002:0001e494       $chain$1$echo_supp_update  000000014008a494     pjmedia-x86_64-x64-vc14-release:echo_suppress.obj
 0002:0001e4ac       $chain$2$echo_supp_update  000000014008a4ac     pjmedia-x86_64-x64-vc14-release:echo_suppress.obj
 0002:0001e4c0       $chain$3$echo_supp_update  000000014008a4c0     pjmedia-x86_64-x64-vc14-release:echo_suppress.obj
 0002:0001e4d4       $chain$4$echo_supp_update  000000014008a4d4     pjmedia-x86_64-x64-vc14-release:echo_suppress.obj
 0002:0001e4e4       $chain$5$echo_supp_update  000000014008a4e4     pjmedia-x86_64-x64-vc14-release:echo_suppress.obj
 0002:0001e4f4       $chain$6$echo_supp_update  000000014008a4f4     pjmedia-x86_64-x64-vc14-release:echo_suppress.obj
 0002:0001e504       $chain$7$echo_supp_update  000000014008a504     pjmedia-x86_64-x64-vc14-release:echo_suppress.obj
 0002:0001e520       $unwind$speex_aec_create   000000014008a520     pjmedia-x86_64-x64-vc14-release:echo_speex.obj
 0002:0001e534       $chain$1$speex_aec_create  000000014008a534     pjmedia-x86_64-x64-vc14-release:echo_speex.obj
 0002:0001e54c       $chain$3$speex_aec_create  000000014008a54c     pjmedia-x86_64-x64-vc14-release:echo_speex.obj
 0002:0001e564       $chain$4$speex_aec_create  000000014008a564     pjmedia-x86_64-x64-vc14-release:echo_speex.obj
 0002:0001e574       $chain$0$speex_aec_destroy 000000014008a574     pjmedia-x86_64-x64-vc14-release:echo_speex.obj
 0002:0001e588       $chain$1$speex_aec_destroy 000000014008a588     pjmedia-x86_64-x64-vc14-release:echo_speex.obj
 0002:0001e59c       $chain$2$speex_aec_destroy 000000014008a59c     pjmedia-x86_64-x64-vc14-release:echo_speex.obj
 0002:0001e5b0       $chain$3$speex_aec_destroy 000000014008a5b0     pjmedia-x86_64-x64-vc14-release:echo_speex.obj
 0002:0001e5c0       $chain$4$speex_aec_destroy 000000014008a5c0     pjmedia-x86_64-x64-vc14-release:echo_speex.obj
 0002:0001e5d0       $chain$5$speex_aec_destroy 000000014008a5d0     pjmedia-x86_64-x64-vc14-release:echo_speex.obj
 0002:0001e5e0       $chain$0$speex_aec_cancel_echo 000000014008a5e0     pjmedia-x86_64-x64-vc14-release:echo_speex.obj
 0002:0001e5f4       $chain$1$speex_aec_cancel_echo 000000014008a5f4     pjmedia-x86_64-x64-vc14-release:echo_speex.obj
 0002:0001e604       $chain$0$speex_aec_capture 000000014008a604     pjmedia-x86_64-x64-vc14-release:echo_speex.obj
 0002:0001e618       $chain$1$speex_aec_capture 000000014008a618     pjmedia-x86_64-x64-vc14-release:echo_speex.obj
 0002:0001e628       $unwind$pjmedia_delay_buf_create 000000014008a628     pjmedia-x86_64-x64-vc14-release:delaybuf.obj
 0002:0001e640       $chain$0$pjmedia_delay_buf_create 000000014008a640     pjmedia-x86_64-x64-vc14-release:delaybuf.obj
 0002:0001e654       $chain$1$pjmedia_delay_buf_create 000000014008a654     pjmedia-x86_64-x64-vc14-release:delaybuf.obj
 0002:0001e664       $unwind$pjmedia_delay_buf_put 000000014008a664     pjmedia-x86_64-x64-vc14-release:delaybuf.obj
 0002:0001e670       $chain$0$pjmedia_delay_buf_put 000000014008a670     pjmedia-x86_64-x64-vc14-release:delaybuf.obj
 0002:0001e684       $chain$2$pjmedia_delay_buf_put 000000014008a684     pjmedia-x86_64-x64-vc14-release:delaybuf.obj
 0002:0001e698       $chain$3$pjmedia_delay_buf_put 000000014008a698     pjmedia-x86_64-x64-vc14-release:delaybuf.obj
 0002:0001e6a8       $chain$0$pjmedia_delay_buf_get 000000014008a6a8     pjmedia-x86_64-x64-vc14-release:delaybuf.obj
 0002:0001e6bc       $chain$1$pjmedia_delay_buf_get 000000014008a6bc     pjmedia-x86_64-x64-vc14-release:delaybuf.obj
 0002:0001e6cc       $unwind$pjmedia_circ_buf_read 000000014008a6cc     pjmedia-x86_64-x64-vc14-release:delaybuf.obj
 0002:0001e6e0       $chain$1$pjmedia_circ_buf_read 000000014008a6e0     pjmedia-x86_64-x64-vc14-release:delaybuf.obj
 0002:0001e6f4       $chain$2$pjmedia_circ_buf_read 000000014008a6f4     pjmedia-x86_64-x64-vc14-release:delaybuf.obj
 0002:0001e704       $unwind$pjmedia_circ_buf_write 000000014008a704     pjmedia-x86_64-x64-vc14-release:delaybuf.obj
 0002:0001e718       $chain$0$pjmedia_circ_buf_write 000000014008a718     pjmedia-x86_64-x64-vc14-release:delaybuf.obj
 0002:0001e72c       $chain$1$pjmedia_circ_buf_write 000000014008a72c     pjmedia-x86_64-x64-vc14-release:delaybuf.obj
 0002:0001e73c       $unwind$shrink_buffer      000000014008a73c     pjmedia-x86_64-x64-vc14-release:delaybuf.obj
 0002:0001e744       $chain$0$update            000000014008a744     pjmedia-x86_64-x64-vc14-release:delaybuf.obj
 0002:0001e758       $chain$1$update            000000014008a758     pjmedia-x86_64-x64-vc14-release:delaybuf.obj
 0002:0001e768       $chain$0$pjlib_util_strerror 000000014008a768     pjlib-util-x86_64-x64-vc14-release:errno.obj
 0002:0001e77c       $chain$1$pjlib_util_strerror 000000014008a77c     pjlib-util-x86_64-x64-vc14-release:errno.obj
 0002:0001e78c       $unwind$_getopt_internal   000000014008a78c     pjlib-util-x86_64-x64-vc14-release:getopt.obj
 0002:0001e79c       $chain$2$_getopt_internal  000000014008a79c     pjlib-util-x86_64-x64-vc14-release:getopt.obj
 0002:0001e7b8       $chain$4$_getopt_internal  000000014008a7b8     pjlib-util-x86_64-x64-vc14-release:getopt.obj
 0002:0001e7d4       $chain$5$_getopt_internal  000000014008a7d4     pjlib-util-x86_64-x64-vc14-release:getopt.obj
 0002:0001e7e4       $unwind$exchange           000000014008a7e4     pjlib-util-x86_64-x64-vc14-release:getopt.obj
 0002:0001e7f8       $chain$0$exchange          000000014008a7f8     pjlib-util-x86_64-x64-vc14-release:getopt.obj
 0002:0001e80c       $chain$1$exchange          000000014008a80c     pjlib-util-x86_64-x64-vc14-release:getopt.obj
 0002:0001e81c       $unwind$pj_cis_add_cis     000000014008a81c     pjlib-util-x86_64-x64-vc14-release:scanner.obj
 0002:0001e81c       $unwind$pj_cis_dup         000000014008a81c     pjlib-util-x86_64-x64-vc14-release:scanner.obj
 0002:0001e81c       $unwind$filterbank_compute_bank32 000000014008a81c     libspeex-x86_64-x64-vc14-release:filterbank.obj
 0002:0001e824       $unwind$pj_cis_add_range   000000014008a824     pjlib-util-x86_64-x64-vc14-release:scanner.obj
 0002:0001e82c       $chain$2$pj_cis_add_range  000000014008a82c     pjlib-util-x86_64-x64-vc14-release:scanner.obj
 0002:0001e848       $chain$3$pj_cis_add_range  000000014008a848     pjlib-util-x86_64-x64-vc14-release:scanner.obj
 0002:0001e858       $unwind$pj_scan_get        000000014008a858     pjlib-util-x86_64-x64-vc14-release:scanner.obj
 0002:0001e858       $unwind$srtp_crypto_kernel_alloc_auth 000000014008a858     libsrtp-x86_64-x64-vc14-release:crypto_kernel.obj
 0002:0001e858       $unwind$srtp_crypto_kernel_alloc_cipher 000000014008a858     libsrtp-x86_64-x64-vc14-release:crypto_kernel.obj
 0002:0001e858       $unwind$__GSHandlerCheckCommon 000000014008a858     MSVCRT:gshandler.obj
 0002:0001e860       $unwind$pj_scan_get_until_chr 000000014008a860     pjlib-util-x86_64-x64-vc14-release:scanner.obj
 0002:0001e878       $chain$0$pj_scan_get_until_chr 000000014008a878     pjlib-util-x86_64-x64-vc14-release:scanner.obj
 0002:0001e88c       $chain$1$pj_scan_get_until_chr 000000014008a88c     pjlib-util-x86_64-x64-vc14-release:scanner.obj
 0002:0001e89c       $unwind$pj_strncpy2_escape 000000014008a89c     pjlib-util-x86_64-x64-vc14-release:string.obj
 0002:0001e8b0       $unwind$pj_dns_resolver_destroy 000000014008a8b0     pjlib-util-x86_64-x64-vc14-release:resolver.obj
 0002:0001e8b8       $chain$1$pj_dns_resolver_destroy 000000014008a8b8     pjlib-util-x86_64-x64-vc14-release:resolver.obj
 0002:0001e8d0       $chain$2$pj_dns_resolver_destroy 000000014008a8d0     pjlib-util-x86_64-x64-vc14-release:resolver.obj
 0002:0001e8e4       $chain$3$pj_dns_resolver_destroy 000000014008a8e4     pjlib-util-x86_64-x64-vc14-release:resolver.obj
 0002:0001e8f4       $chain$4$pj_dns_resolver_destroy 000000014008a8f4     pjlib-util-x86_64-x64-vc14-release:resolver.obj
 0002:0001e908       $unwind$pj_dns_resolver_start_query 000000014008a908     pjlib-util-x86_64-x64-vc14-release:resolver.obj
 0002:0001e924       $chain$1$pj_dns_resolver_start_query 000000014008a924     pjlib-util-x86_64-x64-vc14-release:resolver.obj
 0002:0001e93c       $chain$2$pj_dns_resolver_start_query 000000014008a93c     pjlib-util-x86_64-x64-vc14-release:resolver.obj
 0002:0001e93c       $chain$4$pj_dns_resolver_start_query 000000014008a93c     pjlib-util-x86_64-x64-vc14-release:resolver.obj
 0002:0001e94c       $chain$3$pj_dns_resolver_start_query 000000014008a94c     pjlib-util-x86_64-x64-vc14-release:resolver.obj
 0002:0001e964       $unwind$pj_dns_parse_addr_response 000000014008a964     pjlib-util-x86_64-x64-vc14-release:resolver.obj
 0002:0001e974       $chain$3$pj_dns_parse_addr_response 000000014008a974     pjlib-util-x86_64-x64-vc14-release:resolver.obj
 0002:0001e994       $chain$5$pj_dns_parse_addr_response 000000014008a994     pjlib-util-x86_64-x64-vc14-release:resolver.obj
 0002:0001e9b4       $chain$6$pj_dns_parse_addr_response 000000014008a9b4     pjlib-util-x86_64-x64-vc14-release:resolver.obj
 0002:0001e9c4       $unwind$on_timeout         000000014008a9c4     pjlib-util-x86_64-x64-vc14-release:resolver.obj
 0002:0001e9d4       $chain$0$on_timeout        000000014008a9d4     pjlib-util-x86_64-x64-vc14-release:resolver.obj
 0002:0001e9e8       $chain$1$on_timeout        000000014008a9e8     pjlib-util-x86_64-x64-vc14-release:resolver.obj
 0002:0001e9fc       $chain$2$on_timeout        000000014008a9fc     pjlib-util-x86_64-x64-vc14-release:resolver.obj
 0002:0001ea0c       $chain$3$on_timeout        000000014008aa0c     pjlib-util-x86_64-x64-vc14-release:resolver.obj
 0002:0001ea1c       $unwind$select_nameservers 000000014008aa1c     pjlib-util-x86_64-x64-vc14-release:resolver.obj
 0002:0001ea30       $chain$0$select_nameservers 000000014008aa30     pjlib-util-x86_64-x64-vc14-release:resolver.obj
 0002:0001ea44       $chain$1$select_nameservers 000000014008aa44     pjlib-util-x86_64-x64-vc14-release:resolver.obj
 0002:0001ea54       $unwind$transmit_query     000000014008aa54     pjlib-util-x86_64-x64-vc14-release:resolver.obj
 0002:0001ea68       $chain$0$transmit_query    000000014008aa68     pjlib-util-x86_64-x64-vc14-release:resolver.obj
 0002:0001ea7c       $chain$1$transmit_query    000000014008aa7c     pjlib-util-x86_64-x64-vc14-release:resolver.obj
 0002:0001ea90       $chain$3$transmit_query    000000014008aa90     pjlib-util-x86_64-x64-vc14-release:resolver.obj
 0002:0001eaa8       $chain$4$transmit_query    000000014008aaa8     pjlib-util-x86_64-x64-vc14-release:resolver.obj
 0002:0001eabc       $chain$5$transmit_query    000000014008aabc     pjlib-util-x86_64-x64-vc14-release:resolver.obj
 0002:0001ead0       $chain$6$transmit_query    000000014008aad0     pjlib-util-x86_64-x64-vc14-release:resolver.obj
 0002:0001eae0       $chain$7$transmit_query    000000014008aae0     pjlib-util-x86_64-x64-vc14-release:resolver.obj
 0002:0001eaf0       $chain$8$transmit_query    000000014008aaf0     pjlib-util-x86_64-x64-vc14-release:resolver.obj
 0002:0001eb00       $chain$9$transmit_query    000000014008ab00     pjlib-util-x86_64-x64-vc14-release:resolver.obj
 0002:0001eb10       $chain$10$transmit_query   000000014008ab10     pjlib-util-x86_64-x64-vc14-release:resolver.obj
 0002:0001eb20       $chain$0$init_res_key      000000014008ab20     pjlib-util-x86_64-x64-vc14-release:resolver.obj
 0002:0001eb34       $chain$1$init_res_key      000000014008ab34     pjlib-util-x86_64-x64-vc14-release:resolver.obj
 0002:0001eb44       $unwind$set_nameserver_state 000000014008ab44     pjlib-util-x86_64-x64-vc14-release:resolver.obj
 0002:0001eb5c       $chain$1$set_nameserver_state 000000014008ab5c     pjlib-util-x86_64-x64-vc14-release:resolver.obj
 0002:0001eb74       $chain$2$set_nameserver_state 000000014008ab74     pjlib-util-x86_64-x64-vc14-release:resolver.obj
 0002:0001eb84       $unwind$pj_md5_update      000000014008ab84     pjlib-util-x86_64-x64-vc14-release:md5.obj
 0002:0001eb9c       $unwind$MD5Transform       000000014008ab9c     pjlib-util-x86_64-x64-vc14-release:md5.obj
 0002:0001ebb4       $unwind$pj_dns_make_query  000000014008abb4     pjlib-util-x86_64-x64-vc14-release:dns.obj
 0002:0001ebc0       $chain$1$pj_dns_make_query 000000014008abc0     pjlib-util-x86_64-x64-vc14-release:dns.obj
 0002:0001ebd8       $chain$3$pj_dns_make_query 000000014008abd8     pjlib-util-x86_64-x64-vc14-release:dns.obj
 0002:0001ebf0       $chain$4$pj_dns_make_query 000000014008abf0     pjlib-util-x86_64-x64-vc14-release:dns.obj
 0002:0001ec00       $chain$5$pj_dns_make_query 000000014008ac00     pjlib-util-x86_64-x64-vc14-release:dns.obj
 0002:0001ec10       $unwind$pj_dns_srv_resolve 000000014008ac10     pjlib-util-x86_64-x64-vc14-release:srv_resolver.obj
 0002:0001ec28       $unwind$dns_callback       000000014008ac28     pjlib-util-x86_64-x64-vc14-release:srv_resolver.obj
 0002:0001ec44       $chain$1$dns_callback      000000014008ac44     pjlib-util-x86_64-x64-vc14-release:srv_resolver.obj
 0002:0001ec5c       $chain$2$dns_callback      000000014008ac5c     pjlib-util-x86_64-x64-vc14-release:srv_resolver.obj
 0002:0001ec6c       $unwind$build_server_entries 000000014008ac6c     pjlib-util-x86_64-x64-vc14-release:srv_resolver.obj
 0002:0001ec88       $chain$0$build_server_entries 000000014008ac88     pjlib-util-x86_64-x64-vc14-release:srv_resolver.obj
 0002:0001ec9c       $chain$1$build_server_entries 000000014008ac9c     pjlib-util-x86_64-x64-vc14-release:srv_resolver.obj
 0002:0001ecb0       $chain$2$build_server_entries 000000014008acb0     pjlib-util-x86_64-x64-vc14-release:srv_resolver.obj
 0002:0001ecc0       $unwind$pj_base64_encode   000000014008acc0     pjlib-util-x86_64-x64-vc14-release:base64.obj
 0002:0001ecd0       $chain$2$pj_base64_encode  000000014008acd0     pjlib-util-x86_64-x64-vc14-release:base64.obj
 0002:0001ecec       $chain$3$pj_base64_encode  000000014008acec     pjlib-util-x86_64-x64-vc14-release:base64.obj
 0002:0001ecfc       $unwind$pj_base64_decode   000000014008acfc     pjlib-util-x86_64-x64-vc14-release:base64.obj
 0002:0001ed10       $chain$0$pj_base64_decode  000000014008ad10     pjlib-util-x86_64-x64-vc14-release:base64.obj
 0002:0001ed24       $chain$2$pj_base64_decode  000000014008ad24     pjlib-util-x86_64-x64-vc14-release:base64.obj
 0002:0001ed3c       $chain$3$pj_base64_decode  000000014008ad3c     pjlib-util-x86_64-x64-vc14-release:base64.obj
 0002:0001ed4c       $chain$4$pj_base64_decode  000000014008ad4c     pjlib-util-x86_64-x64-vc14-release:base64.obj
 0002:0001ed5c       $unwind$pj_init            000000014008ad5c     pjlib-x86_64-x64-vc14-release:os_core_win32.obj
 0002:0001ed70       $unwind$pj_thread_create   000000014008ad70     pjlib-x86_64-x64-vc14-release:os_core_win32.obj
 0002:0001ed88       $chain$1$pj_thread_create  000000014008ad88     pjlib-x86_64-x64-vc14-release:os_core_win32.obj
 0002:0001ed9c       $chain$2$pj_thread_create  000000014008ad9c     pjlib-x86_64-x64-vc14-release:os_core_win32.obj
 0002:0001ed9c       $chain$4$pj_thread_create  000000014008ad9c     pjlib-x86_64-x64-vc14-release:os_core_win32.obj
 0002:0001edac       $chain$3$pj_thread_create  000000014008adac     pjlib-x86_64-x64-vc14-release:os_core_win32.obj
 0002:0001edc0       $chain$0$pj_thread_join    000000014008adc0     pjlib-x86_64-x64-vc14-release:os_core_win32.obj
 0002:0001edd4       $chain$2$pj_thread_join    000000014008add4     pjlib-x86_64-x64-vc14-release:os_core_win32.obj
 0002:0001edd4       $chain$4$pj_thread_join    000000014008add4     pjlib-x86_64-x64-vc14-release:os_core_win32.obj
 0002:0001edd4       $chain$6$pj_thread_join    000000014008add4     pjlib-x86_64-x64-vc14-release:os_core_win32.obj
 0002:0001ede8       $unwind$pj_atomic_inc      000000014008ade8     pjlib-x86_64-x64-vc14-release:os_core_win32.obj
 0002:0001edf0       $chain$0$pj_mutex_create   000000014008adf0     pjlib-x86_64-x64-vc14-release:os_core_win32.obj
 0002:0001ee04       $chain$2$pj_mutex_create   000000014008ae04     pjlib-x86_64-x64-vc14-release:os_core_win32.obj
 0002:0001ee18       $chain$3$pj_mutex_create   000000014008ae18     pjlib-x86_64-x64-vc14-release:os_core_win32.obj
 0002:0001ee28       $chain$0$pj_mutex_create_recursive 000000014008ae28     pjlib-x86_64-x64-vc14-release:os_core_win32.obj
 0002:0001ee28       $chain$0$pj_mutex_create_simple 000000014008ae28     pjlib-x86_64-x64-vc14-release:os_core_win32.obj
 0002:0001ee3c       $chain$2$pj_mutex_create_recursive 000000014008ae3c     pjlib-x86_64-x64-vc14-release:os_core_win32.obj
 0002:0001ee3c       $chain$2$pj_mutex_create_simple 000000014008ae3c     pjlib-x86_64-x64-vc14-release:os_core_win32.obj
 0002:0001ee50       $chain$3$pj_mutex_create_recursive 000000014008ae50     pjlib-x86_64-x64-vc14-release:os_core_win32.obj
 0002:0001ee50       $chain$3$pj_mutex_create_simple 000000014008ae50     pjlib-x86_64-x64-vc14-release:os_core_win32.obj
 0002:0001ee60       $unwind$pj_rwmutex_create  000000014008ae60     pjlib-x86_64-x64-vc14-release:os_core_win32.obj
 0002:0001ee70       $chain$1$pj_rwmutex_create 000000014008ae70     pjlib-x86_64-x64-vc14-release:os_core_win32.obj
 0002:0001ee88       $chain$2$pj_rwmutex_create 000000014008ae88     pjlib-x86_64-x64-vc14-release:os_core_win32.obj
 0002:0001ee9c       $chain$3$pj_rwmutex_create 000000014008ae9c     pjlib-x86_64-x64-vc14-release:os_core_win32.obj
 0002:0001eeac       $chain$5$pj_rwmutex_create 000000014008aeac     pjlib-x86_64-x64-vc14-release:os_core_win32.obj
 0002:0001eec8       $chain$6$pj_rwmutex_create 000000014008aec8     pjlib-x86_64-x64-vc14-release:os_core_win32.obj
 0002:0001eee0       $chain$7$pj_rwmutex_create 000000014008aee0     pjlib-x86_64-x64-vc14-release:os_core_win32.obj
 0002:0001eef0       $chain$0$pj_rwmutex_lock_write 000000014008aef0     pjlib-x86_64-x64-vc14-release:os_core_win32.obj
 0002:0001ef04       $chain$2$pj_rwmutex_lock_write 000000014008af04     pjlib-x86_64-x64-vc14-release:os_core_win32.obj
 0002:0001ef18       $chain$0$pj_rwmutex_destroy 000000014008af18     pjlib-x86_64-x64-vc14-release:os_core_win32.obj
 0002:0001ef2c       $chain$1$pj_rwmutex_destroy 000000014008af2c     pjlib-x86_64-x64-vc14-release:os_core_win32.obj
 0002:0001ef40       $chain$2$pj_rwmutex_destroy 000000014008af40     pjlib-x86_64-x64-vc14-release:os_core_win32.obj
 0002:0001ef50       $chain$3$pj_rwmutex_destroy 000000014008af50     pjlib-x86_64-x64-vc14-release:os_core_win32.obj
 0002:0001ef60       $unwind$pj_sem_create      000000014008af60     pjlib-x86_64-x64-vc14-release:os_core_win32.obj
 0002:0001ef78       $unwind$pj_perror          000000014008af78     pjlib-x86_64-x64-vc14-release:errno.obj
 0002:0001ef78       $unwind$__report_gsfailure 000000014008af78     MSVCRT:gs_report.obj
 0002:0001ef80       $unwind$pj_register_strerror 000000014008af80     pjlib-x86_64-x64-vc14-release:errno.obj
 0002:0001ef88       $chain$0$pj_register_strerror 000000014008af88     pjlib-x86_64-x64-vc14-release:errno.obj
 0002:0001ef9c       $chain$2$pj_register_strerror 000000014008af9c     pjlib-x86_64-x64-vc14-release:errno.obj
 0002:0001efb0       $chain$3$pj_register_strerror 000000014008afb0     pjlib-x86_64-x64-vc14-release:errno.obj
 0002:0001efc0       $unwind$pj_perror_1        000000014008afc0     pjlib-x86_64-x64-vc14-release:errno.obj
 0002:0001efc0       $unwind$pj_perror_2        000000014008afc0     pjlib-x86_64-x64-vc14-release:errno.obj
 0002:0001efc0       $unwind$pj_perror_3        000000014008afc0     pjlib-x86_64-x64-vc14-release:errno.obj
 0002:0001efc0       $unwind$pj_perror_4        000000014008afc0     pjlib-x86_64-x64-vc14-release:errno.obj
 0002:0001efc0       $unwind$pj_perror_5        000000014008afc0     pjlib-x86_64-x64-vc14-release:errno.obj
 0002:0001efc8       $unwind$invoke_log         000000014008afc8     pjlib-x86_64-x64-vc14-release:errno.obj
 0002:0001efd0       $unwind$pj_perror_imp      000000014008afd0     pjlib-x86_64-x64-vc14-release:errno.obj
 0002:0001efec       $unwind$pj_sockaddr_print  000000014008afec     pjlib-x86_64-x64-vc14-release:sock_common.obj
 0002:0001f008       $chain$1$pj_sockaddr_print 000000014008b008     pjlib-x86_64-x64-vc14-release:sock_common.obj
 0002:0001f01c       $chain$2$pj_sockaddr_print 000000014008b01c     pjlib-x86_64-x64-vc14-release:sock_common.obj
 0002:0001f02c       $unwind$pj_sockaddr_init   000000014008b02c     pjlib-x86_64-x64-vc14-release:sock_common.obj
 0002:0001f044       $chain$0$pj_sockaddr_init  000000014008b044     pjlib-x86_64-x64-vc14-release:sock_common.obj
 0002:0001f058       $chain$1$pj_sockaddr_init  000000014008b058     pjlib-x86_64-x64-vc14-release:sock_common.obj
 0002:0001f068       $unwind$pj_sockaddr_has_addr 000000014008b068     pjlib-x86_64-x64-vc14-release:sock_common.obj
 0002:0001f078       $unwind$pj_sockaddr_synthesize 000000014008b078     pjlib-x86_64-x64-vc14-release:sock_common.obj
 0002:0001f090       $unwind$pj_sockaddr_in_set_str_addr 000000014008b090     pjlib-x86_64-x64-vc14-release:sock_common.obj
 0002:0001f0a8       $unwind$pj_addr_str_print  000000014008b0a8     pjlib-x86_64-x64-vc14-release:sock_common.obj
 0002:0001f0c0       $unwind$pj_gethostip       000000014008b0c0     pjlib-x86_64-x64-vc14-release:sock_common.obj
 0002:0001f0e4       $unwind$pj_getipinterface  000000014008b0e4     pjlib-x86_64-x64-vc14-release:sock_common.obj
 0002:0001f104       $unwind$pj_inet_aton       000000014008b104     pjlib-x86_64-x64-vc14-release:sock_bsd.obj
 0002:0001f118       $unwind$pj_inet_pton       000000014008b118     pjlib-x86_64-x64-vc14-release:sock_bsd.obj
 0002:0001f12c       $chain$0$pj_inet_pton      000000014008b12c     pjlib-x86_64-x64-vc14-release:sock_bsd.obj
 0002:0001f140       $chain$1$pj_inet_pton      000000014008b140     pjlib-x86_64-x64-vc14-release:sock_bsd.obj
 0002:0001f150       $chain$2$pj_inet_pton      000000014008b150     pjlib-x86_64-x64-vc14-release:sock_bsd.obj
 0002:0001f164       $unwind$pj_inet_ntop       000000014008b164     pjlib-x86_64-x64-vc14-release:sock_bsd.obj
 0002:0001f174       $chain$0$pj_gethostname    000000014008b174     pjlib-x86_64-x64-vc14-release:sock_bsd.obj
 0002:0001f188       $chain$2$pj_gethostname    000000014008b188     pjlib-x86_64-x64-vc14-release:sock_bsd.obj
 0002:0001f19c       $chain$3$pj_gethostname    000000014008b19c     pjlib-x86_64-x64-vc14-release:sock_bsd.obj
 0002:0001f1ac       $unwind$pj_sock_socket     000000014008b1ac     pjlib-x86_64-x64-vc14-release:sock_bsd.obj
 0002:0001f1c0       $unwind$pj_sock_setsockopt_params 000000014008b1c0     pjlib-x86_64-x64-vc14-release:sock_bsd.obj
 0002:0001f1cc       $chain$4$pj_sock_setsockopt_params 000000014008b1cc     pjlib-x86_64-x64-vc14-release:sock_bsd.obj
 0002:0001f1f0       $chain$5$pj_sock_setsockopt_params 000000014008b1f0     pjlib-x86_64-x64-vc14-release:sock_bsd.obj
 0002:0001f200       $unwind$pj_pool_alloc      000000014008b200     pjlib-x86_64-x64-vc14-release:pool.obj
 0002:0001f210       $chain$1$pj_pool_alloc     000000014008b210     pjlib-x86_64-x64-vc14-release:pool.obj
 0002:0001f228       $chain$2$pj_pool_alloc     000000014008b228     pjlib-x86_64-x64-vc14-release:pool.obj
 0002:0001f23c       $chain$3$pj_pool_alloc     000000014008b23c     pjlib-x86_64-x64-vc14-release:pool.obj
 0002:0001f24c       $chain$5$pj_pool_alloc     000000014008b24c     pjlib-x86_64-x64-vc14-release:pool.obj
 0002:0001f268       $chain$0$reset_pool        000000014008b268     pjlib-x86_64-x64-vc14-release:pool.obj
 0002:0001f27c       $chain$1$reset_pool        000000014008b27c     pjlib-x86_64-x64-vc14-release:pool.obj
 0002:0001f28c       $unwind$cpool_create_pool  000000014008b28c     pjlib-x86_64-x64-vc14-release:pool_caching.obj
 0002:0001f2a4       $chain$0$cpool_release_pool 000000014008b2a4     pjlib-x86_64-x64-vc14-release:pool_caching.obj
 0002:0001f2b8       $chain$1$cpool_release_pool 000000014008b2b8     pjlib-x86_64-x64-vc14-release:pool_caching.obj
 0002:0001f2b8       $chain$3$cpool_release_pool 000000014008b2b8     pjlib-x86_64-x64-vc14-release:pool_caching.obj
 0002:0001f2c8       $chain$2$cpool_release_pool 000000014008b2c8     pjlib-x86_64-x64-vc14-release:pool_caching.obj
 0002:0001f2dc       $unwind$cpool_dump_status  000000014008b2dc     pjlib-x86_64-x64-vc14-release:pool_caching.obj
 0002:0001f2e8       $chain$2$cpool_dump_status 000000014008b2e8     pjlib-x86_64-x64-vc14-release:pool_caching.obj
 0002:0001f304       $chain$5$cpool_dump_status 000000014008b304     pjlib-x86_64-x64-vc14-release:pool_caching.obj
 0002:0001f320       $chain$6$cpool_dump_status 000000014008b320     pjlib-x86_64-x64-vc14-release:pool_caching.obj
 0002:0001f330       $chain$7$cpool_dump_status 000000014008b330     pjlib-x86_64-x64-vc14-release:pool_caching.obj
 0002:0001f340       $unwind$pj_strnicmp2       000000014008b340     pjlib-x86_64-x64-vc14-release:string.obj
 0002:0001f340       $unwind$pj_timer_heap_dump 000000014008b340     pjlib-x86_64-x64-vc14-release:timer.obj
 0002:0001f348       $unwind$pj_strcat2         000000014008b348     pjlib-x86_64-x64-vc14-release:string.obj
 0002:0001f350       $chain$0$pj_strcat2        000000014008b350     pjlib-x86_64-x64-vc14-release:string.obj
 0002:0001f364       $chain$1$pj_strcat2        000000014008b364     pjlib-x86_64-x64-vc14-release:string.obj
 0002:0001f374       $unwind$pj_strtok          000000014008b374     pjlib-x86_64-x64-vc14-release:string.obj
 0002:0001f388       $chain$0$pj_strtok         000000014008b388     pjlib-x86_64-x64-vc14-release:string.obj
 0002:0001f39c       $chain$1$pj_strtok         000000014008b39c     pjlib-x86_64-x64-vc14-release:string.obj
 0002:0001f3ac       $unwind$pj_strtok2         000000014008b3ac     pjlib-x86_64-x64-vc14-release:string.obj
 0002:0001f3c0       $chain$0$pj_strtok2        000000014008b3c0     pjlib-x86_64-x64-vc14-release:string.obj
 0002:0001f3d4       $chain$1$pj_strtok2        000000014008b3d4     pjlib-x86_64-x64-vc14-release:string.obj
 0002:0001f3e4       $chain$0$pj_strstr         000000014008b3e4     pjlib-x86_64-x64-vc14-release:string.obj
 0002:0001f3f8       $chain$2$pj_strstr         000000014008b3f8     pjlib-x86_64-x64-vc14-release:string.obj
 0002:0001f40c       $unwind$pj_strtoul         000000014008b40c     pjlib-x86_64-x64-vc14-release:string.obj
 0002:0001f41c       $chain$0$pj_strtoul        000000014008b41c     pjlib-x86_64-x64-vc14-release:string.obj
 0002:0001f430       $chain$1$pj_strtoul        000000014008b430     pjlib-x86_64-x64-vc14-release:string.obj
 0002:0001f440       $chain$0$pj_strtoul2       000000014008b440     pjlib-x86_64-x64-vc14-release:string.obj
 0002:0001f454       $chain$1$pj_strtoul2       000000014008b454     pjlib-x86_64-x64-vc14-release:string.obj
 0002:0001f464       $chain$0$pj_strtoul3       000000014008b464     pjlib-x86_64-x64-vc14-release:string.obj
 0002:0001f478       $chain$1$pj_strtoul3       000000014008b478     pjlib-x86_64-x64-vc14-release:string.obj
 0002:0001f488       $unwind$pj_log             000000014008b488     pjlib-x86_64-x64-vc14-release:log.obj
 0002:0001f4a4       $chain$2$pj_log            000000014008b4a4     pjlib-x86_64-x64-vc14-release:log.obj
 0002:0001f4c0       $chain$3$pj_log            000000014008b4c0     pjlib-x86_64-x64-vc14-release:log.obj
 0002:0001f4c0       $chain$5$pj_log            000000014008b4c0     pjlib-x86_64-x64-vc14-release:log.obj
 0002:0001f4d4       $chain$4$pj_log            000000014008b4d4     pjlib-x86_64-x64-vc14-release:log.obj
 0002:0001f4e4       $unwind$pj_log_1           000000014008b4e4     pjlib-x86_64-x64-vc14-release:log.obj
 0002:0001f4e4       $unwind$pj_log_2           000000014008b4e4     pjlib-x86_64-x64-vc14-release:log.obj
 0002:0001f4e4       $unwind$pj_log_3           000000014008b4e4     pjlib-x86_64-x64-vc14-release:log.obj
 0002:0001f4e4       $unwind$pj_log_4           000000014008b4e4     pjlib-x86_64-x64-vc14-release:log.obj
 0002:0001f4e4       $unwind$pj_log_5           000000014008b4e4     pjlib-x86_64-x64-vc14-release:log.obj
 0002:0001f4e4       $unwind$srtp_err_report    000000014008b4e4     libsrtp-x86_64-x64-vc14-release:srtp_err.obj
 0002:0001f4ec       $unwind$default_block_alloc 000000014008b4ec     pjlib-x86_64-x64-vc14-release:pool_policy_malloc.obj
 0002:0001f4fc       $chain$0$pj_lock_create_simple_mutex 000000014008b4fc     pjlib-x86_64-x64-vc14-release:lock.obj
 0002:0001f510       $chain$2$pj_lock_create_simple_mutex 000000014008b510     pjlib-x86_64-x64-vc14-release:lock.obj
 0002:0001f524       $chain$3$pj_lock_create_simple_mutex 000000014008b524     pjlib-x86_64-x64-vc14-release:lock.obj
 0002:0001f534       $chain$0$pj_lock_create_recursive_mutex 000000014008b534     pjlib-x86_64-x64-vc14-release:lock.obj
 0002:0001f548       $chain$2$pj_lock_create_recursive_mutex 000000014008b548     pjlib-x86_64-x64-vc14-release:lock.obj
 0002:0001f55c       $chain$3$pj_lock_create_recursive_mutex 000000014008b55c     pjlib-x86_64-x64-vc14-release:lock.obj
 0002:0001f56c       $unwind$pj_grp_lock_create 000000014008b56c     pjlib-x86_64-x64-vc14-release:lock.obj
 0002:0001f578       $chain$0$pj_grp_lock_create 000000014008b578     pjlib-x86_64-x64-vc14-release:lock.obj
 0002:0001f58c       $chain$6$pj_grp_lock_create 000000014008b58c     pjlib-x86_64-x64-vc14-release:lock.obj
 0002:0001f5b0       $chain$8$pj_grp_lock_create 000000014008b5b0     pjlib-x86_64-x64-vc14-release:lock.obj
 0002:0001f5d4       $chain$9$pj_grp_lock_create 000000014008b5d4     pjlib-x86_64-x64-vc14-release:lock.obj
 0002:0001f5e4       $unwind$pj_grp_lock_create_w_handler 000000014008b5e4     pjlib-x86_64-x64-vc14-release:lock.obj
 0002:0001f5f0       $chain$1$pj_grp_lock_create_w_handler 000000014008b5f0     pjlib-x86_64-x64-vc14-release:lock.obj
 0002:0001f608       $chain$4$pj_grp_lock_create_w_handler 000000014008b608     pjlib-x86_64-x64-vc14-release:lock.obj
 0002:0001f624       $chain$5$pj_grp_lock_create_w_handler 000000014008b624     pjlib-x86_64-x64-vc14-release:lock.obj
 0002:0001f634       $chain$6$pj_grp_lock_create_w_handler 000000014008b634     pjlib-x86_64-x64-vc14-release:lock.obj
 0002:0001f644       $chain$0$grp_lock_destroy  000000014008b644     pjlib-x86_64-x64-vc14-release:lock.obj
 0002:0001f658       $chain$2$grp_lock_destroy  000000014008b658     pjlib-x86_64-x64-vc14-release:lock.obj
 0002:0001f670       $chain$3$grp_lock_destroy  000000014008b670     pjlib-x86_64-x64-vc14-release:lock.obj
 0002:0001f684       $chain$4$grp_lock_destroy  000000014008b684     pjlib-x86_64-x64-vc14-release:lock.obj
 0002:0001f694       $unwind$pj_timer_heap_create 000000014008b694     pjlib-x86_64-x64-vc14-release:timer.obj
 0002:0001f6a4       $chain$1$pj_timer_heap_create 000000014008b6a4     pjlib-x86_64-x64-vc14-release:timer.obj
 0002:0001f6bc       $chain$3$pj_timer_heap_create 000000014008b6bc     pjlib-x86_64-x64-vc14-release:timer.obj
 0002:0001f6d4       $chain$4$pj_timer_heap_create 000000014008b6d4     pjlib-x86_64-x64-vc14-release:timer.obj
 0002:0001f6e4       $unwind$pj_timer_heap_schedule_w_grp_lock_dbg 000000014008b6e4     pjlib-x86_64-x64-vc14-release:timer.obj
 0002:0001f6f4       $chain$0$pj_timer_heap_schedule_w_grp_lock_dbg 000000014008b6f4     pjlib-x86_64-x64-vc14-release:timer.obj
 0002:0001f708       $chain$1$pj_timer_heap_schedule_w_grp_lock_dbg 000000014008b708     pjlib-x86_64-x64-vc14-release:timer.obj
 0002:0001f718       $chain$0$pj_timer_heap_cancel 000000014008b718     pjlib-x86_64-x64-vc14-release:timer.obj
 0002:0001f72c       $chain$1$pj_timer_heap_cancel 000000014008b72c     pjlib-x86_64-x64-vc14-release:timer.obj
 0002:0001f73c       $chain$0$pj_timer_heap_cancel_if_active 000000014008b73c     pjlib-x86_64-x64-vc14-release:timer.obj
 0002:0001f750       $chain$1$pj_timer_heap_cancel_if_active 000000014008b750     pjlib-x86_64-x64-vc14-release:timer.obj
 0002:0001f764       $chain$2$pj_timer_heap_cancel_if_active 000000014008b764     pjlib-x86_64-x64-vc14-release:timer.obj
 0002:0001f774       $chain$3$pj_timer_heap_cancel_if_active 000000014008b774     pjlib-x86_64-x64-vc14-release:timer.obj
 0002:0001f784       $unwind$pj_timer_heap_poll 000000014008b784     pjlib-x86_64-x64-vc14-release:timer.obj
 0002:0001f790       $chain$5$pj_timer_heap_poll 000000014008b790     pjlib-x86_64-x64-vc14-release:timer.obj
 0002:0001f7b8       $chain$6$pj_timer_heap_poll 000000014008b7b8     pjlib-x86_64-x64-vc14-release:timer.obj
 0002:0001f7cc       $chain$0$pj_timer_heap_dump 000000014008b7cc     pjlib-x86_64-x64-vc14-release:timer.obj
 0002:0001f7e0       $chain$2$pj_timer_heap_dump 000000014008b7e0     pjlib-x86_64-x64-vc14-release:timer.obj
 0002:0001f7f8       $chain$3$pj_timer_heap_dump 000000014008b7f8     pjlib-x86_64-x64-vc14-release:timer.obj
 0002:0001f80c       $chain$4$pj_timer_heap_dump 000000014008b80c     pjlib-x86_64-x64-vc14-release:timer.obj
 0002:0001f81c       $chain$5$pj_timer_heap_dump 000000014008b81c     pjlib-x86_64-x64-vc14-release:timer.obj
 0002:0001f82c       $chain$6$pj_timer_heap_dump 000000014008b82c     pjlib-x86_64-x64-vc14-release:timer.obj
 0002:0001f83c       $chain$0$reheap_up         000000014008b83c     pjlib-x86_64-x64-vc14-release:timer.obj
 0002:0001f850       $chain$1$reheap_up         000000014008b850     pjlib-x86_64-x64-vc14-release:timer.obj
 0002:0001f860       $unwind$remove_node        000000014008b860     pjlib-x86_64-x64-vc14-release:timer.obj
 0002:0001f874       $chain$0$remove_node       000000014008b874     pjlib-x86_64-x64-vc14-release:timer.obj
 0002:0001f888       $chain$1$remove_node       000000014008b888     pjlib-x86_64-x64-vc14-release:timer.obj
 0002:0001f898       $unwind$pj_gettimeofday    000000014008b898     pjlib-x86_64-x64-vc14-release:os_time_win32.obj
 0002:0001f8ac       $unwind$pj_time_decode     000000014008b8ac     pjlib-x86_64-x64-vc14-release:os_time_win32.obj
 0002:0001f8c0       $unwind$pj_ioqueue_create  000000014008b8c0     pjlib-x86_64-x64-vc14-release:ioqueue_select.obj
 0002:0001f8d8       $chain$1$pj_ioqueue_destroy 000000014008b8d8     pjlib-x86_64-x64-vc14-release:ioqueue_select.obj
 0002:0001f8f0       $chain$2$pj_ioqueue_destroy 000000014008b8f0     pjlib-x86_64-x64-vc14-release:ioqueue_select.obj
 0002:0001f900       $unwind$pj_ioqueue_register_sock 000000014008b900     pjlib-x86_64-x64-vc14-release:ioqueue_select.obj
 0002:0001f900       $unwind$pj_ioqueue_register_sock2 000000014008b900     pjlib-x86_64-x64-vc14-release:ioqueue_select.obj
 0002:0001f918       $chain$0$pj_ioqueue_unregister 000000014008b918     pjlib-x86_64-x64-vc14-release:ioqueue_select.obj
 0002:0001f92c       $chain$2$pj_ioqueue_unregister 000000014008b92c     pjlib-x86_64-x64-vc14-release:ioqueue_select.obj
 0002:0001f940       $unwind$pj_ioqueue_poll    000000014008b940     pjlib-x86_64-x64-vc14-release:ioqueue_select.obj
 0002:0001f954       $chain$0$pj_ioqueue_poll   000000014008b954     pjlib-x86_64-x64-vc14-release:ioqueue_select.obj
 0002:0001f968       $chain$2$pj_ioqueue_poll   000000014008b968     pjlib-x86_64-x64-vc14-release:ioqueue_select.obj
 0002:0001f980       $chain$4$pj_ioqueue_poll   000000014008b980     pjlib-x86_64-x64-vc14-release:ioqueue_select.obj
 0002:0001f998       $chain$5$pj_ioqueue_poll   000000014008b998     pjlib-x86_64-x64-vc14-release:ioqueue_select.obj
 0002:0001f9ac       $chain$6$pj_ioqueue_poll   000000014008b9ac     pjlib-x86_64-x64-vc14-release:ioqueue_select.obj
 0002:0001f9bc       $chain$7$pj_ioqueue_poll   000000014008b9bc     pjlib-x86_64-x64-vc14-release:ioqueue_select.obj
 0002:0001f9cc       $chain$8$pj_ioqueue_poll   000000014008b9cc     pjlib-x86_64-x64-vc14-release:ioqueue_select.obj
 0002:0001f9dc       $chain$9$pj_ioqueue_poll   000000014008b9dc     pjlib-x86_64-x64-vc14-release:ioqueue_select.obj
 0002:0001f9ec       $unwind$pj_ioqueue_recvfrom 000000014008b9ec     pjlib-x86_64-x64-vc14-release:ioqueue_select.obj
 0002:0001f9fc       $chain$2$pj_ioqueue_recvfrom 000000014008b9fc     pjlib-x86_64-x64-vc14-release:ioqueue_select.obj
 0002:0001fa18       $chain$4$pj_ioqueue_recvfrom 000000014008ba18     pjlib-x86_64-x64-vc14-release:ioqueue_select.obj
 0002:0001fa34       $chain$5$pj_ioqueue_recvfrom 000000014008ba34     pjlib-x86_64-x64-vc14-release:ioqueue_select.obj
 0002:0001fa44       $unwind$pj_ioqueue_sendto  000000014008ba44     pjlib-x86_64-x64-vc14-release:ioqueue_select.obj
 0002:0001fa54       $chain$3$pj_ioqueue_sendto 000000014008ba54     pjlib-x86_64-x64-vc14-release:ioqueue_select.obj
 0002:0001fa74       $chain$5$pj_ioqueue_sendto 000000014008ba74     pjlib-x86_64-x64-vc14-release:ioqueue_select.obj
 0002:0001fa94       $chain$6$pj_ioqueue_sendto 000000014008ba94     pjlib-x86_64-x64-vc14-release:ioqueue_select.obj
 0002:0001faa4       $unwind$ioqueue_dispatch_write_event 000000014008baa4     pjlib-x86_64-x64-vc14-release:ioqueue_select.obj
 0002:0001fabc       $unwind$ioqueue_dispatch_read_event 000000014008babc     pjlib-x86_64-x64-vc14-release:ioqueue_select.obj
 0002:0001fad4       $chain$0$ioqueue_dispatch_exception_event 000000014008bad4     pjlib-x86_64-x64-vc14-release:ioqueue_select.obj
 0002:0001fae8       $chain$1$ioqueue_dispatch_exception_event 000000014008bae8     pjlib-x86_64-x64-vc14-release:ioqueue_select.obj
 0002:0001faf8       $unwind$scan_closing_keys  000000014008baf8     pjlib-x86_64-x64-vc14-release:ioqueue_select.obj
 0002:0001fb08       $chain$0$scan_closing_keys 000000014008bb08     pjlib-x86_64-x64-vc14-release:ioqueue_select.obj
 0002:0001fb1c       $chain$1$scan_closing_keys 000000014008bb1c     pjlib-x86_64-x64-vc14-release:ioqueue_select.obj
 0002:0001fb2c       $chain$0$decrement_counter 000000014008bb2c     pjlib-x86_64-x64-vc14-release:ioqueue_select.obj
 0002:0001fb40       $chain$1$decrement_counter 000000014008bb40     pjlib-x86_64-x64-vc14-release:ioqueue_select.obj
 0002:0001fb50       $chain$0$pj_hash_calc_tolower 000000014008bb50     pjlib-x86_64-x64-vc14-release:hash.obj
 0002:0001fb64       $chain$1$pj_hash_calc_tolower 000000014008bb64     pjlib-x86_64-x64-vc14-release:hash.obj
 0002:0001fb74       $chain$2$pj_hash_get_lower 000000014008bb74     pjlib-x86_64-x64-vc14-release:hash.obj
 0002:0001fb90       $chain$5$pj_hash_get_lower 000000014008bb90     pjlib-x86_64-x64-vc14-release:hash.obj
 0002:0001fbac       $chain$6$pj_hash_get_lower 000000014008bbac     pjlib-x86_64-x64-vc14-release:hash.obj
 0002:0001fbc0       $chain$7$pj_hash_get_lower 000000014008bbc0     pjlib-x86_64-x64-vc14-release:hash.obj
 0002:0001fbd0       $chain$8$pj_hash_get_lower 000000014008bbd0     pjlib-x86_64-x64-vc14-release:hash.obj
 0002:0001fbe8       $chain$9$pj_hash_get_lower 000000014008bbe8     pjlib-x86_64-x64-vc14-release:hash.obj
 0002:0001fbf8       $unwind$pj_hash_set        000000014008bbf8     pjlib-x86_64-x64-vc14-release:hash.obj
 0002:0001fc14       $unwind$pj_hash_set_lower  000000014008bc14     pjlib-x86_64-x64-vc14-release:hash.obj
 0002:0001fc2c       $unwind$pj_generate_unique_string 000000014008bc2c     pjlib-x86_64-x64-vc14-release:guid_win32.obj
 0002:0001fc2c       $unwind$srtp_aes_icm_set_iv 000000014008bc2c     libsrtp-x86_64-x64-vc14-release:aes_icm.obj
 0002:0001fc3c       $unwind$pj_sock_apply_qos2 000000014008bc3c     pjlib-x86_64-x64-vc14-release:sock_qos_common.obj
 0002:0001fc54       $unwind$pj_getaddrinfo     000000014008bc54     pjlib-x86_64-x64-vc14-release:addr_resolv_sock.obj
 0002:0001fc68       $chain$0$pj_getaddrinfo    000000014008bc68     pjlib-x86_64-x64-vc14-release:addr_resolv_sock.obj
 0002:0001fc7c       $chain$1$pj_getaddrinfo    000000014008bc7c     pjlib-x86_64-x64-vc14-release:addr_resolv_sock.obj
 0002:0001fc7c       $chain$9$pj_getaddrinfo    000000014008bc7c     pjlib-x86_64-x64-vc14-release:addr_resolv_sock.obj
 0002:0001fc8c       $chain$10$pj_getaddrinfo   000000014008bc8c     pjlib-x86_64-x64-vc14-release:addr_resolv_sock.obj
 0002:0001fc8c       $chain$2$pj_getaddrinfo    000000014008bc8c     pjlib-x86_64-x64-vc14-release:addr_resolv_sock.obj
 0002:0001fca0       $chain$7$pj_getaddrinfo    000000014008bca0     pjlib-x86_64-x64-vc14-release:addr_resolv_sock.obj
 0002:0001fcc4       $chain$0$pj_gettickcount   000000014008bcc4     pjlib-x86_64-x64-vc14-release:os_timestamp_common.obj
 0002:0001fcd8       $chain$2$pj_gettickcount   000000014008bcd8     pjlib-x86_64-x64-vc14-release:os_timestamp_common.obj
 0002:0001fcec       $chain$3$pj_gettickcount   000000014008bcec     pjlib-x86_64-x64-vc14-release:os_timestamp_common.obj
 0002:0001fcfc       $unwind$enum_ipv4_interface 000000014008bcfc     pjlib-x86_64-x64-vc14-release:ip_helper_win32.obj
 0002:0001fd14       $chain$0$enum_ipv4_interface 000000014008bd14     pjlib-x86_64-x64-vc14-release:ip_helper_win32.obj
 0002:0001fd28       $chain$1$enum_ipv4_interface 000000014008bd28     pjlib-x86_64-x64-vc14-release:ip_helper_win32.obj
 0002:0001fd28       $chain$8$enum_ipv4_interface 000000014008bd28     pjlib-x86_64-x64-vc14-release:ip_helper_win32.obj
 0002:0001fd38       $chain$2$enum_ipv4_interface 000000014008bd38     pjlib-x86_64-x64-vc14-release:ip_helper_win32.obj
 0002:0001fd4c       $chain$5$enum_ipv4_interface 000000014008bd4c     pjlib-x86_64-x64-vc14-release:ip_helper_win32.obj
 0002:0001fd68       $chain$6$enum_ipv4_interface 000000014008bd68     pjlib-x86_64-x64-vc14-release:ip_helper_win32.obj
 0002:0001fd7c       $unwind$enum_ipv4_ipv6_interface 000000014008bd7c     pjlib-x86_64-x64-vc14-release:ip_helper_win32.obj
 0002:0001fd9c       $unwind$printf             000000014008bd9c     pjlib-x86_64-x64-vc14-release:log_writer_stdout.obj
 0002:0001fda8       $unwind$pj_sock_set_qos_type 000000014008bda8     pjlib-x86_64-x64-vc14-release:sock_qos_bsd.obj
 0002:0001fdb8       $chain$0$pj_sock_set_qos_type 000000014008bdb8     pjlib-x86_64-x64-vc14-release:sock_qos_bsd.obj
 0002:0001fdcc       $chain$1$pj_sock_set_qos_type 000000014008bdcc     pjlib-x86_64-x64-vc14-release:sock_qos_bsd.obj
 0002:0001fddc       $unwind$pj_sock_set_qos_params 000000014008bddc     pjlib-x86_64-x64-vc14-release:sock_qos_bsd.obj
 0002:0001fdf4       $unwind$speex_echo_state_init_mc 000000014008bdf4     libspeex-x86_64-x64-vc14-release:mdf.obj
 0002:0001fe04       $chain$0$speex_echo_state_init_mc 000000014008be04     libspeex-x86_64-x64-vc14-release:mdf.obj
 0002:0001fe18       $chain$1$speex_echo_state_init_mc 000000014008be18     libspeex-x86_64-x64-vc14-release:mdf.obj
 0002:0001fe2c       $chain$2$speex_echo_state_init_mc 000000014008be2c     libspeex-x86_64-x64-vc14-release:mdf.obj
 0002:0001fe40       $chain$3$speex_echo_state_init_mc 000000014008be40     libspeex-x86_64-x64-vc14-release:mdf.obj
 0002:0001fe54       $chain$7$speex_echo_state_init_mc 000000014008be54     libspeex-x86_64-x64-vc14-release:mdf.obj
 0002:0001fe70       $chain$4$speex_echo_state_init_mc 000000014008be70     libspeex-x86_64-x64-vc14-release:mdf.obj
 0002:0001fe80       $chain$8$speex_echo_state_init_mc 000000014008be80     libspeex-x86_64-x64-vc14-release:mdf.obj
 0002:0001fe90       $chain$9$speex_echo_state_init_mc 000000014008be90     libspeex-x86_64-x64-vc14-release:mdf.obj
 0002:0001fea0       $chain$10$speex_echo_state_init_mc 000000014008bea0     libspeex-x86_64-x64-vc14-release:mdf.obj
 0002:0001feb0       $unwind$speex_echo_cancellation 000000014008beb0     libspeex-x86_64-x64-vc14-release:mdf.obj
 0002:0001fef4       $chain$0$speex_echo_playback 000000014008bef4     libspeex-x86_64-x64-vc14-release:mdf.obj
 0002:0001ff08       $chain$1$speex_echo_playback 000000014008bf08     libspeex-x86_64-x64-vc14-release:mdf.obj
 0002:0001ff18       $unwind$speex_echo_ctl     000000014008bf18     libspeex-x86_64-x64-vc14-release:mdf.obj
 0002:0001ff24       $chain$5$speex_echo_ctl    000000014008bf24     libspeex-x86_64-x64-vc14-release:mdf.obj
 0002:0001ff4c       $chain$6$speex_echo_ctl    000000014008bf4c     libspeex-x86_64-x64-vc14-release:mdf.obj
 0002:0001ff5c       $unwind$speex_echo_get_residual 000000014008bf5c     libspeex-x86_64-x64-vc14-release:mdf.obj
 0002:0001ff5c       $unwind$srtp_aes_icm_encrypt 000000014008bf5c     libsrtp-x86_64-x64-vc14-release:aes_icm.obj
 0002:0001ff68       $chain$0$speex_echo_get_residual 000000014008bf68     libspeex-x86_64-x64-vc14-release:mdf.obj
 0002:0001ff7c       $chain$1$speex_echo_get_residual 000000014008bf7c     libspeex-x86_64-x64-vc14-release:mdf.obj
 0002:0001ff90       $chain$3$speex_echo_get_residual 000000014008bf90     libspeex-x86_64-x64-vc14-release:mdf.obj
 0002:0001ffa8       $chain$4$speex_echo_get_residual 000000014008bfa8     libspeex-x86_64-x64-vc14-release:mdf.obj
 0002:0001ffb8       $chain$5$speex_echo_get_residual 000000014008bfb8     libspeex-x86_64-x64-vc14-release:mdf.obj
 0002:0001ffc8       $chain$6$speex_echo_get_residual 000000014008bfc8     libspeex-x86_64-x64-vc14-release:mdf.obj
 0002:0001ffd8       $unwind$filter_dc_notch16  000000014008bfd8     libspeex-x86_64-x64-vc14-release:mdf.obj
 0002:0001ffe4       $chain$4$filter_dc_notch16 000000014008bfe4     libspeex-x86_64-x64-vc14-release:mdf.obj
 0002:00020008       $chain$5$filter_dc_notch16 000000014008c008     libspeex-x86_64-x64-vc14-release:mdf.obj
 0002:00020018       $unwind$mdf_adjust_prop    000000014008c018     libspeex-x86_64-x64-vc14-release:mdf.obj
 0002:00020028       $chain$4$mdf_adjust_prop   000000014008c028     libspeex-x86_64-x64-vc14-release:mdf.obj
 0002:0002004c       $chain$7$mdf_adjust_prop   000000014008c04c     libspeex-x86_64-x64-vc14-release:mdf.obj
 0002:00020068       $chain$8$mdf_adjust_prop   000000014008c068     libspeex-x86_64-x64-vc14-release:mdf.obj
 0002:00020078       $chain$9$mdf_adjust_prop   000000014008c078     libspeex-x86_64-x64-vc14-release:mdf.obj
 0002:00020094       $chain$10$mdf_adjust_prop  000000014008c094     libspeex-x86_64-x64-vc14-release:mdf.obj
 0002:000200a4       $unwind$speex_decorrelate_new 000000014008c0a4     libspeex-x86_64-x64-vc14-release:scal.obj
 0002:000200b0       $chain$3$speex_decorrelate_new 000000014008c0b0     libspeex-x86_64-x64-vc14-release:scal.obj
 0002:000200d0       $chain$6$speex_decorrelate_new 000000014008c0d0     libspeex-x86_64-x64-vc14-release:scal.obj
 0002:000200ec       $chain$7$speex_decorrelate_new 000000014008c0ec     libspeex-x86_64-x64-vc14-release:scal.obj
 0002:000200fc       $chain$8$speex_decorrelate_new 000000014008c0fc     libspeex-x86_64-x64-vc14-release:scal.obj
 0002:0002010c       $unwind$speex_decorrelate  000000014008c10c     libspeex-x86_64-x64-vc14-release:scal.obj
 0002:0002011c       $chain$14$speex_decorrelate 000000014008c11c     libspeex-x86_64-x64-vc14-release:scal.obj
 0002:00020168       $chain$15$speex_decorrelate 000000014008c168     libspeex-x86_64-x64-vc14-release:scal.obj
 0002:00020178       $unwind$speex_preprocess_state_init 000000014008c178     libspeex-x86_64-x64-vc14-release:preprocess.obj
 0002:000201b0       $chain$2$speex_preprocess_state_init 000000014008c1b0     libspeex-x86_64-x64-vc14-release:preprocess.obj
 0002:000201cc       $chain$3$speex_preprocess_state_init 000000014008c1cc     libspeex-x86_64-x64-vc14-release:preprocess.obj
 0002:000201dc       $chain$4$speex_preprocess_state_init 000000014008c1dc     libspeex-x86_64-x64-vc14-release:preprocess.obj
 0002:000201f0       $chain$5$speex_preprocess_state_init 000000014008c1f0     libspeex-x86_64-x64-vc14-release:preprocess.obj
 0002:00020200       $unwind$speex_preprocess_run 000000014008c200     libspeex-x86_64-x64-vc14-release:preprocess.obj
 0002:00020210       $chain$1$speex_preprocess_run 000000014008c210     libspeex-x86_64-x64-vc14-release:preprocess.obj
 0002:00020228       $chain$13$speex_preprocess_run 000000014008c228     libspeex-x86_64-x64-vc14-release:preprocess.obj
 0002:00020268       $chain$14$speex_preprocess_run 000000014008c268     libspeex-x86_64-x64-vc14-release:preprocess.obj
 0002:0002027c       $chain$15$speex_preprocess_run 000000014008c27c     libspeex-x86_64-x64-vc14-release:preprocess.obj
 0002:0002029c       $chain$16$speex_preprocess_run 000000014008c29c     libspeex-x86_64-x64-vc14-release:preprocess.obj
 0002:000202b8       $chain$17$speex_preprocess_run 000000014008c2b8     libspeex-x86_64-x64-vc14-release:preprocess.obj
 0002:000202d0       $chain$18$speex_preprocess_run 000000014008c2d0     libspeex-x86_64-x64-vc14-release:preprocess.obj
 0002:000202e4       $chain$19$speex_preprocess_run 000000014008c2e4     libspeex-x86_64-x64-vc14-release:preprocess.obj
 0002:000202f8       $chain$20$speex_preprocess_run 000000014008c2f8     libspeex-x86_64-x64-vc14-release:preprocess.obj
 0002:00020308       $unwind$compute_gain_floor 000000014008c308     libspeex-x86_64-x64-vc14-release:preprocess.obj
 0002:00020330       $chain$1$compute_gain_floor 000000014008c330     libspeex-x86_64-x64-vc14-release:preprocess.obj
 0002:00020348       $chain$2$compute_gain_floor 000000014008c348     libspeex-x86_64-x64-vc14-release:preprocess.obj
 0002:0002035c       $chain$3$compute_gain_floor 000000014008c35c     libspeex-x86_64-x64-vc14-release:preprocess.obj
 0002:00020370       $chain$4$compute_gain_floor 000000014008c370     libspeex-x86_64-x64-vc14-release:preprocess.obj
 0002:00020380       $chain$5$compute_gain_floor 000000014008c380     libspeex-x86_64-x64-vc14-release:preprocess.obj
 0002:00020390       $chain$6$compute_gain_floor 000000014008c390     libspeex-x86_64-x64-vc14-release:preprocess.obj
 0002:000203a0       $unwind$speex_compute_agc  000000014008c3a0     libspeex-x86_64-x64-vc14-release:preprocess.obj
 0002:000203b0       $chain$0$speex_compute_agc 000000014008c3b0     libspeex-x86_64-x64-vc14-release:preprocess.obj
 0002:000203c4       $chain$1$speex_compute_agc 000000014008c3c4     libspeex-x86_64-x64-vc14-release:preprocess.obj
 0002:000203d8       $chain$3$speex_compute_agc 000000014008c3d8     libspeex-x86_64-x64-vc14-release:preprocess.obj
 0002:000203f0       $chain$4$speex_compute_agc 000000014008c3f0     libspeex-x86_64-x64-vc14-release:preprocess.obj
 0002:00020400       $chain$5$speex_compute_agc 000000014008c400     libspeex-x86_64-x64-vc14-release:preprocess.obj
 0002:00020410       $chain$6$speex_compute_agc 000000014008c410     libspeex-x86_64-x64-vc14-release:preprocess.obj
 0002:00020420       $unwind$preprocess_analysis 000000014008c420     libspeex-x86_64-x64-vc14-release:preprocess.obj
 0002:0002042c       $chain$1$preprocess_analysis 000000014008c42c     libspeex-x86_64-x64-vc14-release:preprocess.obj
 0002:00020444       $chain$2$preprocess_analysis 000000014008c444     libspeex-x86_64-x64-vc14-release:preprocess.obj
 0002:00020458       $chain$5$preprocess_analysis 000000014008c458     libspeex-x86_64-x64-vc14-release:preprocess.obj
 0002:00020474       $chain$6$preprocess_analysis 000000014008c474     libspeex-x86_64-x64-vc14-release:preprocess.obj
 0002:0002048c       $chain$7$preprocess_analysis 000000014008c48c     libspeex-x86_64-x64-vc14-release:preprocess.obj
 0002:000204a4       $chain$8$preprocess_analysis 000000014008c4a4     libspeex-x86_64-x64-vc14-release:preprocess.obj
 0002:000204b4       $unwind$update_noise_prob  000000014008c4b4     libspeex-x86_64-x64-vc14-release:preprocess.obj
 0002:000204c4       $chain$2$update_noise_prob 000000014008c4c4     libspeex-x86_64-x64-vc14-release:preprocess.obj
 0002:000204e0       $chain$3$update_noise_prob 000000014008c4e0     libspeex-x86_64-x64-vc14-release:preprocess.obj
 0002:000204f4       $chain$4$update_noise_prob 000000014008c4f4     libspeex-x86_64-x64-vc14-release:preprocess.obj
 0002:00020504       $unwind$spx_fft            000000014008c504     libspeex-x86_64-x64-vc14-release:fftwrap.obj
 0002:00020518       $unwind$filterbank_new     000000014008c518     libspeex-x86_64-x64-vc14-release:filterbank.obj
 0002:00020528       $chain$11$filterbank_new   000000014008c528     libspeex-x86_64-x64-vc14-release:filterbank.obj
 0002:00020568       $chain$12$filterbank_new   000000014008c568     libspeex-x86_64-x64-vc14-release:filterbank.obj
 0002:0002057c       $chain$13$filterbank_new   000000014008c57c     libspeex-x86_64-x64-vc14-release:filterbank.obj
 0002:0002058c       $chain$14$filterbank_new   000000014008c58c     libspeex-x86_64-x64-vc14-release:filterbank.obj
 0002:0002059c       $unwind$drfti1             000000014008c59c     libspeex-x86_64-x64-vc14-release:smallft.obj
 0002:000205b8       $chain$3$drfti1            000000014008c5b8     libspeex-x86_64-x64-vc14-release:smallft.obj
 0002:000205d8       $chain$4$drfti1            000000014008c5d8     libspeex-x86_64-x64-vc14-release:smallft.obj
 0002:000205e8       $unwind$dradf2             000000014008c5e8     libspeex-x86_64-x64-vc14-release:smallft.obj
 0002:00020600       $unwind$dradf4             000000014008c600     libspeex-x86_64-x64-vc14-release:smallft.obj
 0002:00020618       $chain$0$dradf4            000000014008c618     libspeex-x86_64-x64-vc14-release:smallft.obj
 0002:0002062c       $chain$5$dradf4            000000014008c62c     libspeex-x86_64-x64-vc14-release:smallft.obj
 0002:00020650       $chain$6$dradf4            000000014008c650     libspeex-x86_64-x64-vc14-release:smallft.obj
 0002:00020660       $chain$7$dradf4            000000014008c660     libspeex-x86_64-x64-vc14-release:smallft.obj
 0002:00020670       $chain$8$dradf4            000000014008c670     libspeex-x86_64-x64-vc14-release:smallft.obj
 0002:00020684       $unwind$dradfg             000000014008c684     libspeex-x86_64-x64-vc14-release:smallft.obj
 0002:0002069c       $chain$2$dradfg            000000014008c69c     libspeex-x86_64-x64-vc14-release:smallft.obj
 0002:000206b8       $chain$3$dradfg            000000014008c6b8     libspeex-x86_64-x64-vc14-release:smallft.obj
 0002:000206cc       $chain$4$dradfg            000000014008c6cc     libspeex-x86_64-x64-vc14-release:smallft.obj
 0002:000206dc       $chain$5$dradfg            000000014008c6dc     libspeex-x86_64-x64-vc14-release:smallft.obj
 0002:000206ec       $unwind$drftf1             000000014008c6ec     libspeex-x86_64-x64-vc14-release:smallft.obj
 0002:00020700       $chain$1$drftf1            000000014008c700     libspeex-x86_64-x64-vc14-release:smallft.obj
 0002:00020718       $chain$2$drftf1            000000014008c718     libspeex-x86_64-x64-vc14-release:smallft.obj
 0002:00020728       $unwind$dradb2             000000014008c728     libspeex-x86_64-x64-vc14-release:smallft.obj
 0002:00020744       $unwind$dradb3             000000014008c744     libspeex-x86_64-x64-vc14-release:smallft.obj
 0002:00020764       $chain$0$dradb3            000000014008c764     libspeex-x86_64-x64-vc14-release:smallft.obj
 0002:00020778       $chain$1$dradb3            000000014008c778     libspeex-x86_64-x64-vc14-release:smallft.obj
 0002:00020788       $unwind$dradb4             000000014008c788     libspeex-x86_64-x64-vc14-release:smallft.obj
 0002:000207a0       $chain$1$dradb4            000000014008c7a0     libspeex-x86_64-x64-vc14-release:smallft.obj
 0002:000207b8       $chain$3$dradb4            000000014008c7b8     libspeex-x86_64-x64-vc14-release:smallft.obj
 0002:000207d0       $chain$4$dradb4            000000014008c7d0     libspeex-x86_64-x64-vc14-release:smallft.obj
 0002:000207e0       $chain$5$dradb4            000000014008c7e0     libspeex-x86_64-x64-vc14-release:smallft.obj
 0002:000207e0       $chain$7$dradb4            000000014008c7e0     libspeex-x86_64-x64-vc14-release:smallft.obj
 0002:000207f0       $chain$6$dradb4            000000014008c7f0     libspeex-x86_64-x64-vc14-release:smallft.obj
 0002:00020808       $unwind$dradbg             000000014008c808     libspeex-x86_64-x64-vc14-release:smallft.obj
 0002:00020820       $chain$2$dradbg            000000014008c820     libspeex-x86_64-x64-vc14-release:smallft.obj
 0002:0002083c       $chain$3$dradbg            000000014008c83c     libspeex-x86_64-x64-vc14-release:smallft.obj
 0002:00020850       $chain$4$dradbg            000000014008c850     libspeex-x86_64-x64-vc14-release:smallft.obj
 0002:00020860       $chain$5$dradbg            000000014008c860     libspeex-x86_64-x64-vc14-release:smallft.obj
 0002:00020870       $unwind$drftb1             000000014008c870     libspeex-x86_64-x64-vc14-release:smallft.obj
 0002:00020880       $chain$3$drftb1            000000014008c880     libspeex-x86_64-x64-vc14-release:smallft.obj
 0002:000208a0       $chain$4$drftb1            000000014008c8a0     libspeex-x86_64-x64-vc14-release:smallft.obj
 0002:000208b0       $unwind$srtp_protect_mki   000000014008c8b0     libsrtp-x86_64-x64-vc14-release:srtp.obj
 0002:000208cc       $chain$0$srtp_protect_mki  000000014008c8cc     libsrtp-x86_64-x64-vc14-release:srtp.obj
 0002:000208e0       $chain$1$srtp_protect_mki  000000014008c8e0     libsrtp-x86_64-x64-vc14-release:srtp.obj
 0002:000208f0       $unwind$srtp_unprotect_mki 000000014008c8f0     libsrtp-x86_64-x64-vc14-release:srtp.obj
 0002:0002090c       $chain$1$srtp_unprotect_mki 000000014008c90c     libsrtp-x86_64-x64-vc14-release:srtp.obj
 0002:00020924       $chain$2$srtp_unprotect_mki 000000014008c924     libsrtp-x86_64-x64-vc14-release:srtp.obj
 0002:00020934       $unwind$srtp_create        000000014008c934     libsrtp-x86_64-x64-vc14-release:srtp.obj
 0002:00020940       $chain$0$srtp_create       000000014008c940     libsrtp-x86_64-x64-vc14-release:srtp.obj
 0002:00020954       $chain$5$srtp_create       000000014008c954     libsrtp-x86_64-x64-vc14-release:srtp.obj
 0002:00020974       $chain$7$srtp_create       000000014008c974     libsrtp-x86_64-x64-vc14-release:srtp.obj
 0002:00020994       $unwind$srtp_protect_rtcp_mki 000000014008c994     libsrtp-x86_64-x64-vc14-release:srtp.obj
 0002:000209ac       $chain$0$srtp_protect_rtcp_mki 000000014008c9ac     libsrtp-x86_64-x64-vc14-release:srtp.obj
 0002:000209c0       $chain$2$srtp_protect_rtcp_mki 000000014008c9c0     libsrtp-x86_64-x64-vc14-release:srtp.obj
 0002:000209d8       $chain$3$srtp_protect_rtcp_mki 000000014008c9d8     libsrtp-x86_64-x64-vc14-release:srtp.obj
 0002:000209e8       $chain$4$srtp_protect_rtcp_mki 000000014008c9e8     libsrtp-x86_64-x64-vc14-release:srtp.obj
 0002:000209f8       $chain$5$srtp_protect_rtcp_mki 000000014008c9f8     libsrtp-x86_64-x64-vc14-release:srtp.obj
 0002:00020a14       $chain$6$srtp_protect_rtcp_mki 000000014008ca14     libsrtp-x86_64-x64-vc14-release:srtp.obj
 0002:00020a28       $unwind$srtp_unprotect_rtcp_mki 000000014008ca28     libsrtp-x86_64-x64-vc14-release:srtp.obj
 0002:00020a4c       $unwind$srtp_stream_init_keys 000000014008ca4c     libsrtp-x86_64-x64-vc14-release:srtp.obj
 0002:00020a70       $unwind$srtp_stream_init   000000014008ca70     libsrtp-x86_64-x64-vc14-release:srtp.obj
 0002:00020a7c       $chain$1$srtp_stream_init  000000014008ca7c     libsrtp-x86_64-x64-vc14-release:srtp.obj
 0002:00020a94       $chain$5$srtp_stream_init  000000014008ca94     libsrtp-x86_64-x64-vc14-release:srtp.obj
 0002:00020ab4       $chain$6$srtp_stream_init  000000014008cab4     libsrtp-x86_64-x64-vc14-release:srtp.obj
 0002:00020ac8       $chain$8$srtp_stream_init  000000014008cac8     libsrtp-x86_64-x64-vc14-release:srtp.obj
 0002:00020ae8       $chain$9$srtp_stream_init  000000014008cae8     libsrtp-x86_64-x64-vc14-release:srtp.obj
 0002:00020af8       $chain$0$srtp_stream_free  000000014008caf8     libsrtp-x86_64-x64-vc14-release:srtp.obj
 0002:00020b0c       $chain$1$srtp_stream_free  000000014008cb0c     libsrtp-x86_64-x64-vc14-release:srtp.obj
 0002:00020b20       $chain$2$srtp_stream_free  000000014008cb20     libsrtp-x86_64-x64-vc14-release:srtp.obj
 0002:00020b30       $chain$3$srtp_stream_free  000000014008cb30     libsrtp-x86_64-x64-vc14-release:srtp.obj
 0002:00020b40       $unwind$srtp_stream_alloc  000000014008cb40     libsrtp-x86_64-x64-vc14-release:srtp.obj
 0002:00020b58       $unwind$srtp_stream_clone  000000014008cb58     libsrtp-x86_64-x64-vc14-release:srtp.obj
 0002:00020b68       $chain$0$srtp_stream_clone 000000014008cb68     libsrtp-x86_64-x64-vc14-release:srtp.obj
 0002:00020b7c       $chain$5$srtp_stream_clone 000000014008cb7c     libsrtp-x86_64-x64-vc14-release:srtp.obj
 0002:00020b9c       $unwind$srtp_kdf_generate  000000014008cb9c     libsrtp-x86_64-x64-vc14-release:srtp.obj
 0002:00020bb0       $chain$0$srtp_inject_mki   000000014008cbb0     libsrtp-x86_64-x64-vc14-release:srtp.obj
 0002:00020bc4       $chain$1$srtp_inject_mki   000000014008cbc4     libsrtp-x86_64-x64-vc14-release:srtp.obj
 0002:00020bd4       $unwind$srtp_process_header_encryption 000000014008cbd4     libsrtp-x86_64-x64-vc14-release:srtp.obj
 0002:00020bf8       $unwind$srtp_calc_aead_iv  000000014008cbf8     libsrtp-x86_64-x64-vc14-release:srtp.obj
 0002:00020c10       $unwind$srtp_protect_aead  000000014008cc10     libsrtp-x86_64-x64-vc14-release:srtp.obj
 0002:00020c2c       $chain$0$srtp_protect_aead 000000014008cc2c     libsrtp-x86_64-x64-vc14-release:srtp.obj
 0002:00020c40       $chain$1$srtp_protect_aead 000000014008cc40     libsrtp-x86_64-x64-vc14-release:srtp.obj
 0002:00020c54       $chain$2$srtp_protect_aead 000000014008cc54     libsrtp-x86_64-x64-vc14-release:srtp.obj
 0002:00020c64       $chain$3$srtp_protect_aead 000000014008cc64     libsrtp-x86_64-x64-vc14-release:srtp.obj
 0002:00020c74       $chain$4$srtp_protect_aead 000000014008cc74     libsrtp-x86_64-x64-vc14-release:srtp.obj
 0002:00020c8c       $chain$5$srtp_protect_aead 000000014008cc8c     libsrtp-x86_64-x64-vc14-release:srtp.obj
 0002:00020ca0       $unwind$srtp_unprotect_aead 000000014008cca0     libsrtp-x86_64-x64-vc14-release:srtp.obj
 0002:00020cc0       $unwind$srtp_calc_aead_iv_srtcp 000000014008ccc0     libsrtp-x86_64-x64-vc14-release:srtp.obj
 0002:00020cd4       $unwind$srtp_protect_rtcp_aead 000000014008ccd4     libsrtp-x86_64-x64-vc14-release:srtp.obj
 0002:00020cf4       $unwind$srtp_unprotect_rtcp_aead 000000014008ccf4     libsrtp-x86_64-x64-vc14-release:srtp.obj
 0002:00020d14       $unwind$srtp_octet_string_hex_string 000000014008cd14     libsrtp-x86_64-x64-vc14-release:datatypes.obj
 0002:00020d14       $unwind$v128_hex_string    000000014008cd14     libsrtp-x86_64-x64-vc14-release:datatypes.obj
 0002:00020d24       $unwind$v128_left_shift    000000014008cd24     libsrtp-x86_64-x64-vc14-release:datatypes.obj
 0002:00020d30       $chain$1$v128_left_shift   000000014008cd30     libsrtp-x86_64-x64-vc14-release:datatypes.obj
 0002:00020d44       $chain$5$v128_left_shift   000000014008cd44     libsrtp-x86_64-x64-vc14-release:datatypes.obj
 0002:00020d64       $chain$6$v128_left_shift   000000014008cd64     libsrtp-x86_64-x64-vc14-release:datatypes.obj
 0002:00020d74       $chain$7$v128_left_shift   000000014008cd74     libsrtp-x86_64-x64-vc14-release:datatypes.obj
 0002:00020d84       $unwind$bitvector_left_shift 000000014008cd84     libsrtp-x86_64-x64-vc14-release:datatypes.obj
 0002:00020d90       $chain$2$bitvector_left_shift 000000014008cd90     libsrtp-x86_64-x64-vc14-release:datatypes.obj
 0002:00020dac       $chain$5$bitvector_left_shift 000000014008cdac     libsrtp-x86_64-x64-vc14-release:datatypes.obj
 0002:00020dc8       $chain$6$bitvector_left_shift 000000014008cdc8     libsrtp-x86_64-x64-vc14-release:datatypes.obj
 0002:00020dd8       $chain$7$bitvector_left_shift 000000014008cdd8     libsrtp-x86_64-x64-vc14-release:datatypes.obj
 0002:00020dec       $unwind$srtp_stream_init_from_ekt 000000014008cdec     libsrtp-x86_64-x64-vc14-release:ekt.obj
 0002:00020e04       $chain$0$srtp_ekt_write_data 000000014008ce04     libsrtp-x86_64-x64-vc14-release:ekt.obj
 0002:00020e18       $chain$1$srtp_ekt_write_data 000000014008ce18     libsrtp-x86_64-x64-vc14-release:ekt.obj
 0002:00020e2c       $chain$2$srtp_ekt_write_data 000000014008ce2c     libsrtp-x86_64-x64-vc14-release:ekt.obj
 0002:00020e3c       $chain$3$srtp_ekt_write_data 000000014008ce3c     libsrtp-x86_64-x64-vc14-release:ekt.obj
 0002:00020e4c       $chain$0$srtp_aes_icm_alloc 000000014008ce4c     libsrtp-x86_64-x64-vc14-release:aes_icm.obj
 0002:00020e60       $chain$2$srtp_aes_icm_alloc 000000014008ce60     libsrtp-x86_64-x64-vc14-release:aes_icm.obj
 0002:00020e74       $unwind$srtp_aes_icm_dealloc 000000014008ce74     libsrtp-x86_64-x64-vc14-release:aes_icm.obj
 0002:00020e80       $chain$4$srtp_aes_icm_context_init 000000014008ce80     libsrtp-x86_64-x64-vc14-release:aes_icm.obj
 0002:00020ea4       $chain$5$srtp_aes_icm_context_init 000000014008cea4     libsrtp-x86_64-x64-vc14-release:aes_icm.obj
 0002:00020ec0       $chain$6$srtp_aes_icm_context_init 000000014008cec0     libsrtp-x86_64-x64-vc14-release:aes_icm.obj
 0002:00020ec0       $chain$8$srtp_aes_icm_context_init 000000014008cec0     libsrtp-x86_64-x64-vc14-release:aes_icm.obj
 0002:00020ed8       $chain$0$srtp_aes_icm_encrypt 000000014008ced8     libsrtp-x86_64-x64-vc14-release:aes_icm.obj
 0002:00020eec       $chain$3$srtp_aes_icm_encrypt 000000014008ceec     libsrtp-x86_64-x64-vc14-release:aes_icm.obj
 0002:00020f04       $chain$4$srtp_aes_icm_encrypt 000000014008cf04     libsrtp-x86_64-x64-vc14-release:aes_icm.obj
 0002:00020f18       $chain$5$srtp_aes_icm_encrypt 000000014008cf18     libsrtp-x86_64-x64-vc14-release:aes_icm.obj
 0002:00020f28       $unwind$srtp_hmac_init     000000014008cf28     libsrtp-x86_64-x64-vc14-release:hmac.obj
 0002:00020f38       $chain$0$srtp_hmac_init    000000014008cf38     libsrtp-x86_64-x64-vc14-release:hmac.obj
 0002:00020f4c       $chain$2$srtp_hmac_init    000000014008cf4c     libsrtp-x86_64-x64-vc14-release:hmac.obj
 0002:00020f64       $chain$3$srtp_hmac_init    000000014008cf64     libsrtp-x86_64-x64-vc14-release:hmac.obj
 0002:00020f78       $chain$4$srtp_hmac_init    000000014008cf78     libsrtp-x86_64-x64-vc14-release:hmac.obj
 0002:00020f88       $chain$5$srtp_hmac_init    000000014008cf88     libsrtp-x86_64-x64-vc14-release:hmac.obj
 0002:00020f9c       $chain$6$srtp_hmac_init    000000014008cf9c     libsrtp-x86_64-x64-vc14-release:hmac.obj
 0002:00020fac       $chain$7$srtp_hmac_init    000000014008cfac     libsrtp-x86_64-x64-vc14-release:hmac.obj
 0002:00020fbc       $unwind$srtp_hmac_compute  000000014008cfbc     libsrtp-x86_64-x64-vc14-release:hmac.obj
 0002:00020fd4       $chain$0$srtp_hmac_compute 000000014008cfd4     libsrtp-x86_64-x64-vc14-release:hmac.obj
 0002:00020fe8       $chain$1$srtp_hmac_compute 000000014008cfe8     libsrtp-x86_64-x64-vc14-release:hmac.obj
 0002:00020ff8       $chain$0$srtp_aes_expand_encryption_key 000000014008cff8     libsrtp-x86_64-x64-vc14-release:aes.obj
 0002:0002100c       $chain$1$srtp_aes_expand_encryption_key 000000014008d00c     libsrtp-x86_64-x64-vc14-release:aes.obj
 0002:0002101c       $chain$0$srtp_aes_expand_decryption_key 000000014008d01c     libsrtp-x86_64-x64-vc14-release:aes.obj
 0002:00021030       $chain$1$srtp_aes_expand_decryption_key 000000014008d030     libsrtp-x86_64-x64-vc14-release:aes.obj
 0002:00021040       $chain$0$srtp_sha1_update  000000014008d040     libsrtp-x86_64-x64-vc14-release:sha1.obj
 0002:00021054       $chain$1$srtp_sha1_update  000000014008d054     libsrtp-x86_64-x64-vc14-release:sha1.obj
 0002:00021064       $unwind$srtp_sha1_final    000000014008d064     libsrtp-x86_64-x64-vc14-release:sha1.obj
 0002:00021088       $unwind$srtp_sha1_core     000000014008d088     libsrtp-x86_64-x64-vc14-release:sha1.obj
 0002:000210b0       $xdatasym                  000000014008d0b0     MSVCRT:amdsecgs.obj
 0002:000210b4       $unwind$?__scrt_common_main_seh@@YAHXZ 000000014008d0b4     MSVCRT:exe_main.obj
 0002:000210ec       $unwind$__report_securityfailure 000000014008d0ec     MSVCRT:gs_report.obj
 0002:000210f4       $unwind$capture_previous_context 000000014008d0f4     MSVCRT:gs_report.obj
 0002:00021100       $unwind$__isa_available_init 000000014008d100     MSVCRT:cpu_disp.obj
 0002:00021110       $xdatasym                  000000014008d110     MSVCRT:chkstk.obj
 0002:00021118       $unwind$__scrt_is_nonwritable_in_current_image 000000014008d118     MSVCRT:utility.obj
 0002:00021138       $unwind$__security_init_cookie 000000014008d138     MSVCRT:gs_support.obj
 0002:00021144       $unwind$__scrt_fastfail    000000014008d144     MSVCRT:utility_desktop.obj
 0002:00021158       $xdatasym                  000000014008d158     MSVCRT:guard_dispatch.obj
 0002:00021160       $xdatasym                  000000014008d160     MSVCRT:guard_xfg_dispatch.obj
 0002:000217e8       .idata$6                   000000014008d7e8     ole32:ole32.dll
 0002:00021838       .idata$6                   000000014008d838     ws2_32:WS2_32.dll
 0002:00021a04       .idata$6                   000000014008da04     winmm:WINMM.dll
 0002:00021db6       .idata$6                   000000014008ddb6     kernel32:KERNEL32.dll
 0002:00021e6c       .idata$6                   000000014008de6c     vcruntime:VCRUNTIME140.dll
 0002:00022142       .idata$6                   000000014008e142     ucrt:api-ms-win-crt-stdio-l1-1-0.dll
 0002:00022162       .idata$6                   000000014008e162     ucrt:api-ms-win-crt-convert-l1-1-0.dll
 0002:00022184       .idata$6                   000000014008e184     ucrt:api-ms-win-crt-string-l1-1-0.dll
 0002:000221a6       .idata$6                   000000014008e1a6     ucrt:api-ms-win-crt-math-l1-1-0.dll
 0002:000221c6       .idata$6                   000000014008e1c6     ucrt:api-ms-win-crt-heap-l1-1-0.dll
 0002:000221e6       .idata$6                   000000014008e1e6     ucrt:api-ms-win-crt-utility-l1-1-0.dll
 0002:00022208       .idata$6                   000000014008e208     ucrt:api-ms-win-crt-runtime-l1-1-0.dll
 0002:0002222a       .idata$6                   000000014008e22a     ucrt:api-ms-win-crt-locale-l1-1-0.dll
 0003:00000000       $SG32231                   000000014008f000     simpleua.obj
 0003:00000010       $SG32262                   000000014008f010     simpleua.obj
 0003:0000001c       $SG32140                   000000014008f01c     simpleua.obj
 0003:00000020       $SG32092                   000000014008f020     simpleua.obj
 0003:00000034       $SG32142                   000000014008f034     simpleua.obj
 0003:0000003c       $SG32146                   000000014008f03c     simpleua.obj
 0003:00000044       $SG32148                   000000014008f044     simpleua.obj
 0003:00000048       $SG32144                   000000014008f048     simpleua.obj
 0003:00000050       $SG32149                   000000014008f050     simpleua.obj
 0003:00000060       $SG32153                   000000014008f060     simpleua.obj
 0003:00000088       $SG32157                   000000014008f088     simpleua.obj
 0003:000000b0       $SG32161                   000000014008f0b0     simpleua.obj
 0003:000000d0       $SG32165                   000000014008f0d0     simpleua.obj
 0003:000000f8       $SG32169                   000000014008f0f8     simpleua.obj
 0003:00000120       $SG32172                   000000014008f120     simpleua.obj
 0003:00000140       $SG32191                   000000014008f140     simpleua.obj
 0003:00000170       mod_simpleua               000000014008f170     simpleua.obj
 0003:000001e0       $SG32241                   000000014008f1e0     simpleua.obj
 0003:00000210       $SG32242                   000000014008f210     simpleua.obj
 0003:00000220       $SG32252                   000000014008f220     simpleua.obj
 0003:00000250       $SG32253                   000000014008f250     simpleua.obj
 0003:00000260       msg_logger                 000000014008f260     simpleua.obj
 0003:000002d0       $SG32383                   000000014008f2d0     simpleua.obj
 0003:000002f0       $SG32384                   000000014008f2f0     simpleua.obj
 0003:00000300       $SG32395                   000000014008f300     simpleua.obj
 0003:00000328       $SG32396                   000000014008f328     simpleua.obj
 0003:00000338       $SG32400                   000000014008f338     simpleua.obj
 0003:00000360       $SG32401                   000000014008f360     simpleua.obj
 0003:00000370       $SG32402                   000000014008f370     simpleua.obj
 0003:00000388       $SG32404                   000000014008f388     simpleua.obj
 0003:000003a8       $SG32405                   000000014008f3a8     simpleua.obj
 0003:000003b8       $SG32411                   000000014008f3b8     simpleua.obj
 0003:000003e0       $SG32412                   000000014008f3e0     simpleua.obj
 0003:000003f0       $SG32413                   000000014008f3f0     simpleua.obj
 0003:00000400       $SG32438                   000000014008f400     simpleua.obj
 0003:00000428       $SG32439                   000000014008f428     simpleua.obj
 0003:00000438       $SG32441                   000000014008f438     simpleua.obj
 0003:00000468       $SG32442                   000000014008f468     simpleua.obj
 0003:00000478       $SG32444                   000000014008f478     simpleua.obj
 0003:00000498       $SG32445                   000000014008f498     simpleua.obj
 0003:000004a8       $SG32504                   000000014008f4a8     simpleua.obj
 0003:000004d0       $SG32506                   000000014008f4d0     simpleua.obj
 0003:000004f0       $SG32508                   000000014008f4f0     simpleua.obj
 0003:00000520       $SG32510                   000000014008f520     simpleua.obj
 0003:00000548       $SG32511                   000000014008f548     simpleua.obj
 0003:00000558       $SG32512                   000000014008f558     simpleua.obj
 0003:00000570       $SG32534                   000000014008f570     simpleua.obj
 0003:00000590       $SG32535                   000000014008f590     simpleua.obj
 0003:000005a0       $SG32537                   000000014008f5a0     simpleua.obj
 0003:000005c8       $SG32538                   000000014008f5c8     simpleua.obj
 0003:000005d8       $SG32540                   000000014008f5d8     simpleua.obj
 0003:000005f8       $SG32541                   000000014008f5f8     simpleua.obj
 0003:00000608       $SG32543                   000000014008f608     simpleua.obj
 0003:00000628       $SG32544                   000000014008f628     simpleua.obj
 0003:00000640       inv_state_handler          000000014008f640     pjsip-ua-x86_64-x64-vc14-release:sip_inv.obj
 0003:00000680       mod_inv                    000000014008f680     pjsip-ua-x86_64-x64-vc14-release:sip_inv.obj
 0003:00000750       inv_state_names            000000014008f750     pjsip-ua-x86_64-x64-vc14-release:sip_inv.obj
 0003:00000790       mod_100rel                 000000014008f790     pjsip-ua-x86_64-x64-vc14-release:sip_100rel.obj
 0003:00000808       se_hdr_vptr                000000014008f808     pjsip-ua-x86_64-x64-vc14-release:sip_timer.obj
 0003:00000820       min_se_hdr_vptr            000000014008f820     pjsip-ua-x86_64-x64-vc14-release:sip_timer.obj
 0003:00000838       method_names               000000014008f838     pjsip-core-x86_64-x64-vc14-release:sip_msg.obj
 0003:00000868       generic_hdr_vptr           000000014008f868     pjsip-core-x86_64-x64-vc14-release:sip_msg.obj
 0003:00000880       generic_int_hdr_vptr       000000014008f880     pjsip-core-x86_64-x64-vc14-release:sip_msg.obj
 0003:00000898       generic_array_hdr_vptr     000000014008f898     pjsip-core-x86_64-x64-vc14-release:sip_msg.obj
 0003:000008b0       clen_hdr_vptr              000000014008f8b0     pjsip-core-x86_64-x64-vc14-release:sip_msg.obj
 0003:000008c8       cseq_hdr_vptr              000000014008f8c8     pjsip-core-x86_64-x64-vc14-release:sip_msg.obj
 0003:000008e0       contact_hdr_vptr           000000014008f8e0     pjsip-core-x86_64-x64-vc14-release:sip_msg.obj
 0003:000008f8       ctype_hdr_vptr             000000014008f8f8     pjsip-core-x86_64-x64-vc14-release:sip_msg.obj
 0003:00000910       fromto_hdr_vptr            000000014008f910     pjsip-core-x86_64-x64-vc14-release:sip_msg.obj
 0003:00000928       routing_hdr_vptr           000000014008f928     pjsip-core-x86_64-x64-vc14-release:sip_msg.obj
 0003:00000940       retry_after_hdr_vptr       000000014008f940     pjsip-core-x86_64-x64-vc14-release:sip_msg.obj
 0003:00000958       via_hdr_vptr               000000014008f958     pjsip-core-x86_64-x64-vc14-release:sip_msg.obj
 0003:00000970       mod_msg_print              000000014008f970     pjsip-core-x86_64-x64-vc14-release:sip_transport.obj
 0003:000009e0       transport_names            000000014008f9e0     pjsip-core-x86_64-x64-vc14-release:sip_transport.obj
 0003:00000d60       event_str                  000000014008fd60     pjsip-core-x86_64-x64-vc14-release:sip_util.obj
 0003:00000d98       str_TEXT                   000000014008fd98     pjsip-core-x86_64-x64-vc14-release:sip_util.obj
 0003:00000da8       str_PLAIN                  000000014008fda8     pjsip-core-x86_64-x64-vc14-release:sip_util.obj
 0003:00000dc0       mod_tsx_layer              000000014008fdc0     pjsip-core-x86_64-x64-vc14-release:sip_transaction.obj
 0003:00000e50       t1_timer_val               000000014008fe50     pjsip-core-x86_64-x64-vc14-release:sip_transaction.obj
 0003:00000e58       t2_timer_val               000000014008fe58     pjsip-core-x86_64-x64-vc14-release:sip_transaction.obj
 0003:00000e60       t4_timer_val               000000014008fe60     pjsip-core-x86_64-x64-vc14-release:sip_transaction.obj
 0003:00000e68       td_timer_val               000000014008fe68     pjsip-core-x86_64-x64-vc14-release:sip_transaction.obj
 0003:00000e70       timeout_timer_val          000000014008fe70     pjsip-core-x86_64-x64-vc14-release:sip_transaction.obj
 0003:00000e80       state_str                  000000014008fe80     pjsip-core-x86_64-x64-vc14-release:sip_transaction.obj
 0003:00000ec0       role_name                  000000014008fec0     pjsip-core-x86_64-x64-vc14-release:sip_transaction.obj
 0003:00000ed0       tsx_state_handler_uac      000000014008fed0     pjsip-core-x86_64-x64-vc14-release:sip_transaction.obj
 0003:00000f10       tsx_state_handler_uas      000000014008ff10     pjsip-core-x86_64-x64-vc14-release:sip_transaction.obj
 0003:00000f50       mod_ua                     000000014008ff50     pjsip-core-x86_64-x64-vc14-release:sip_ua_layer.obj
 0003:00001040       pconst                     0000000140090040     pjsip-core-x86_64-x64-vc14-release:sip_parser.obj
 0003:00001308       sip_str                    0000000140090308     pjsip-core-x86_64-x64-vc14-release:sip_uri.obj
 0003:00001318       sips_str                   0000000140090318     pjsip-core-x86_64-x64-vc14-release:sip_uri.obj
 0003:00001328       sips_url_vptr              0000000140090328     pjsip-core-x86_64-x64-vc14-release:sip_uri.obj
 0003:00001350       sip_url_vptr               0000000140090350     pjsip-core-x86_64-x64-vc14-release:sip_uri.obj
 0003:00001378       name_addr_vptr             0000000140090378     pjsip-core-x86_64-x64-vc14-release:sip_uri.obj
 0003:000013a0       other_uri_vptr             00000001400903a0     pjsip-core-x86_64-x64-vc14-release:sip_uri.obj
 0003:000013c8       pjsip_ISUB_STR             00000001400903c8     pjsip-core-x86_64-x64-vc14-release:sip_tel_uri.obj
 0003:000013d8       pjsip_EXT_STR              00000001400903d8     pjsip-core-x86_64-x64-vc14-release:sip_tel_uri.obj
 0003:000013e8       pjsip_PH_CTX_STR           00000001400903e8     pjsip-core-x86_64-x64-vc14-release:sip_tel_uri.obj
 0003:000013f8       tel_uri_vptr               00000001400903f8     pjsip-core-x86_64-x64-vc14-release:sip_tel_uri.obj
 0003:00001490       authorization_hdr_vptr     0000000140090490     pjsip-core-x86_64-x64-vc14-release:sip_auth_msg.obj
 0003:000014a8       www_authenticate_hdr_vptr  00000001400904a8     pjsip-core-x86_64-x64-vc14-release:sip_auth_msg.obj
 0003:000014c0       stream_op                  00000001400904c0     pjmedia-audiodev-x86_64-x64-vc14-release:wmme_dev.obj
 0003:000014f0       factory_op                 00000001400904f0     pjmedia-audiodev-x86_64-x64-vc14-release:wmme_dev.obj
 0003:00001530       g711_op                    0000000140090530     pjmedia-x86_64-x64-vc14-release:g711.obj
 0003:00001570       g711_factory_op            0000000140090570     pjmedia-x86_64-x64-vc14-release:g711.obj
 0003:000015a0       state_str                  00000001400905a0     pjmedia-x86_64-x64-vc14-release:sdp_neg.obj
 0003:000015d0       transport_udp_op           00000001400905d0     pjmedia-x86_64-x64-vc14-release:transport_udp.obj
 0003:00001640       cap_infos                  0000000140090640     pjmedia-x86_64-x64-vc14-release:audiodev.obj
 0003:00001720       plc_wsola                  0000000140090720     pjmedia-x86_64-x64-vc14-release:plc_common.obj
 0003:00001740       echo_supp_op               0000000140090740     pjmedia-x86_64-x64-vc14-release:echo_common.obj
 0003:00001780       speex_aec_op               0000000140090780     pjmedia-x86_64-x64-vc14-release:echo_common.obj
 0003:000017c0       media_type_names           00000001400907c0     pjmedia-x86_64-x64-vc14-release:types.obj
 0003:00001840       crypto_suites              0000000140090840     pjmedia-x86_64-x64-vc14-release:transport_srtp.obj
 0003:00001960       transport_srtp_op          0000000140090960     pjmedia-x86_64-x64-vc14-release:transport_srtp.obj
 0003:000019d0       ?liberr@?1??get_libsrtp_errstr@@9@9 00000001400909d0     pjmedia-x86_64-x64-vc14-release:transport_srtp.obj
 0003:00001aa0       sdes_op                    0000000140090aa0     pjmedia-x86_64-x64-vc14-release:transport_srtp.obj
 0003:00001b10       state_names                0000000140090b10     pjlib-util-x86_64-x64-vc14-release:resolver.obj
 0003:00001b28       thread_tls_id              0000000140090b28     pjlib-x86_64-x64-vc14-release:os_core_win32.obj
 0003:00001b30       pool_sizes                 0000000140090b30     pjlib-x86_64-x64-vc14-release:pool_caching.obj
 0003:00001bb0       pj_log_max_level           0000000140090bb0     pjlib-x86_64-x64-vc14-release:log.obj
 0003:00001bb4       thread_suspended_tls_id    0000000140090bb4     pjlib-x86_64-x64-vc14-release:log.obj
 0003:00001bb8       thread_indent_tls_id       0000000140090bb8     pjlib-x86_64-x64-vc14-release:log.obj
 0003:00001bbc       log_decor                  0000000140090bbc     pjlib-x86_64-x64-vc14-release:log.obj
 0003:00001bc0       log_writer                 0000000140090bc0     pjlib-x86_64-x64-vc14-release:log.obj
 0003:00001bc8       PJ_LOG_COLOR_0             0000000140090bc8     pjlib-x86_64-x64-vc14-release:log.obj
 0003:00001bcc       PJ_LOG_COLOR_1             0000000140090bcc     pjlib-x86_64-x64-vc14-release:log.obj
 0003:00001bd0       PJ_LOG_COLOR_2             0000000140090bd0     pjlib-x86_64-x64-vc14-release:log.obj
 0003:00001bd4       PJ_LOG_COLOR_3             0000000140090bd4     pjlib-x86_64-x64-vc14-release:log.obj
 0003:00001bd8       PJ_LOG_COLOR_4             0000000140090bd8     pjlib-x86_64-x64-vc14-release:log.obj
 0003:00001bdc       PJ_LOG_COLOR_5             0000000140090bdc     pjlib-x86_64-x64-vc14-release:log.obj
 0003:00001be0       PJ_LOG_COLOR_6             0000000140090be0     pjlib-x86_64-x64-vc14-release:log.obj
 0003:00001be4       PJ_LOG_COLOR_77            0000000140090be4     pjlib-x86_64-x64-vc14-release:log.obj
 0003:00001be8       ?ltexts@?2??pj_log@@9@9    0000000140090be8     pjlib-x86_64-x64-vc14-release:log.obj
 0003:00001c20       ?wdays@?3??pj_log@@9@9     0000000140090c20     pjlib-x86_64-x64-vc14-release:log.obj
 0003:00001c78       mutex_lock_template        0000000140090c78     pjlib-x86_64-x64-vc14-release:lock.obj
 0003:00001ca0       null_lock_template         0000000140090ca0     pjlib-x86_64-x64-vc14-release:lock.obj
 0003:00001cc8       sem_lock_template          0000000140090cc8     pjlib-x86_64-x64-vc14-release:lock.obj
 0003:00001cf0       thread_local_id            0000000140090cf0     pjlib-x86_64-x64-vc14-release:except.obj
 0003:00001cf8       ?hex@?1??hex2digit@@9@9    0000000140090cf8     pjlib-x86_64-x64-vc14-release:guid_win32.obj
 0003:00001d08       tls                        0000000140090d08     pjlib-x86_64-x64-vc14-release:pool_buf.obj
 0003:00001d18       id                         0000000140090d18     pjlib-x86_64-x64-vc14-release:config.obj
 0003:00001d20       ?ntryh@?1??drfti1@@9@9     0000000140090d20     libspeex-x86_64-x64-vc14-release:smallft.obj
 0003:00001d30       ?tpi@?1??drfti1@@9@9       0000000140090d30     libspeex-x86_64-x64-vc14-release:smallft.obj
 0003:00001d34       ?hsqt2@?1??dradf4@@9@9     0000000140090d34     libspeex-x86_64-x64-vc14-release:smallft.obj
 0003:00001d38       ?tpi@?1??dradfg@@9@9       0000000140090d38     libspeex-x86_64-x64-vc14-release:smallft.obj
 0003:00001d3c       ?taur@?1??dradb3@@9@9      0000000140090d3c     libspeex-x86_64-x64-vc14-release:smallft.obj
 0003:00001d40       ?taui@?1??dradb3@@9@9      0000000140090d40     libspeex-x86_64-x64-vc14-release:smallft.obj
 0003:00001d44       ?sqrt2@?1??dradb4@@9@9     0000000140090d44     libspeex-x86_64-x64-vc14-release:smallft.obj
 0003:00001d48       ?tpi@?1??dradbg@@9@9       0000000140090d48     libspeex-x86_64-x64-vc14-release:smallft.obj
 0003:00001d60       srtp_event_handler         0000000140090d60     libsrtp-x86_64-x64-vc14-release:srtp.obj
 0003:00002260       g_complete                 0000000140091260     simpleua.obj
 0003:00002268       g_endpt                    0000000140091268     simpleua.obj
 0003:00002270       cp                         0000000140091270     simpleua.obj
 0003:000025f8       g_med_endpt                00000001400915f8     simpleua.obj
 0003:00002600       g_med_tpinfo               0000000140091600     simpleua.obj
 0003:00002be0       g_med_transport            0000000140091be0     simpleua.obj
 0003:00002bf0       g_sock_info                0000000140091bf0     simpleua.obj
 0003:00002c90       g_inv                      0000000140091c90     simpleua.obj
 0003:00002c98       g_med_stream               0000000140091c98     simpleua.obj
 0003:00002ca0       g_snd_port                 0000000140091ca0     simpleua.obj
 0003:00002ca8       is_initialized             0000000140091ca8     pjsip-ua-x86_64-x64-vc14-release:sip_timer.obj
 0003:00002cb0       status_phrase              0000000140091cb0     pjsip-core-x86_64-x64-vc14-release:sip_msg.obj
 0003:00005910       ?is_initialized@?1??pjsip_get_status_text@@9@9 0000000140094910     pjsip-core-x86_64-x64-vc14-release:sip_msg.obj
 0003:00005920       handler                    0000000140094920     pjsip-core-x86_64-x64-vc14-release:sip_parser.obj
 0003:00007420       handler_count              0000000140096420     pjsip-core-x86_64-x64-vc14-release:sip_parser.obj
 0003:00007424       parser_is_initialized      0000000140096424     pjsip-core-x86_64-x64-vc14-release:sip_parser.obj
 0003:00007428       uri_handler_count          0000000140096428     pjsip-core-x86_64-x64-vc14-release:sip_parser.obj
 0003:00007430       uri_handler                0000000140096430     pjsip-core-x86_64-x64-vc14-release:sip_parser.obj
 0003:00007490       cis_buf                    0000000140096490     pjsip-core-x86_64-x64-vc14-release:sip_parser.obj
 0003:000078a0       pjsip_TEL_NUMBER_SPEC      00000001400968a0     pjsip-core-x86_64-x64-vc14-release:sip_tel_uri.obj
 0003:000078b0       pjsip_TEL_EXT_VALUE_SPEC   00000001400968b0     pjsip-core-x86_64-x64-vc14-release:sip_tel_uri.obj
 0003:000078c0       pjsip_TEL_PHONE_CONTEXT_SPEC 00000001400968c0     pjsip-core-x86_64-x64-vc14-release:sip_tel_uri.obj
 0003:000078d0       pjsip_TEL_URIC_SPEC        00000001400968d0     pjsip-core-x86_64-x64-vc14-release:sip_tel_uri.obj
 0003:000078e0       pjsip_TEL_PNAME_SPEC       00000001400968e0     pjsip-core-x86_64-x64-vc14-release:sip_tel_uri.obj
 0003:000078f0       pjsip_TEL_PVALUE_SPEC      00000001400968f0     pjsip-core-x86_64-x64-vc14-release:sip_tel_uri.obj
 0003:00007900       cis_buf                    0000000140096900     pjsip-core-x86_64-x64-vc14-release:sip_tel_uri.obj
 0003:00007d08       pjsip_TEL_VISUAL_SEP_SPEC  0000000140096d08     pjsip-core-x86_64-x64-vc14-release:sip_tel_uri.obj
 0003:00007d18       pjsip_TEL_PVALUE_SPEC_ESC  0000000140096d18     pjsip-core-x86_64-x64-vc14-release:sip_tel_uri.obj
 0003:00007d28       pjsip_TEL_PARSING_PVALUE_SPEC 0000000140096d28     pjsip-core-x86_64-x64-vc14-release:sip_tel_uri.obj
 0003:00007d38       pjsip_TEL_PARSING_PVALUE_SPEC_ESC 0000000140096d38     pjsip-core-x86_64-x64-vc14-release:sip_tel_uri.obj
 0003:00007d48       ?name@?1??get_fmt_name@@9@9 0000000140096d48     pjmedia-audiodev-x86_64-x64-vc14-release:wmme_dev.obj
 0003:00007d50       ?rec_cnt@?1??wmme_dev_thread@@9@9 0000000140096d50     pjmedia-audiodev-x86_64-x64-vc14-release:wmme_dev.obj
 0003:00007d54       ?play_cnt@?1??wmme_dev_thread@@9@9 0000000140096d54     pjmedia-audiodev-x86_64-x64-vc14-release:wmme_dev.obj
 0003:00007d60       event_manager_instance     0000000140096d60     pjmedia-x86_64-x64-vc14-release:event.obj
 0003:00007d70       ?ev_queue@?9??pjmedia_event_publish@@9@9 0000000140096d70     pjmedia-x86_64-x64-vc14-release:event.obj
 0003:00008500       g711_factory               0000000140097500     pjmedia-x86_64-x64-vc14-release:g711.obj
 0003:00008560       fmt_match_cb_cnt           0000000140097560     pjmedia-x86_64-x64-vc14-release:sdp_neg.obj
 0003:00008570       fmt_match_cb               0000000140097570     pjmedia-x86_64-x64-vc14-release:sdp_neg.obj
 0003:00008630       zero_frame                 0000000140097630     pjmedia-x86_64-x64-vc14-release:stream.obj
 0003:00008db0       is_initialized             0000000140097db0     pjmedia-x86_64-x64-vc14-release:sdp.obj
 0003:00008dc0       cis_buf                    0000000140097dc0     pjmedia-x86_64-x64-vc14-release:sdp.obj
 0003:000091c8       cs_digit                   00000001400981c8     pjmedia-x86_64-x64-vc14-release:sdp.obj
 0003:000091d8       cs_token                   00000001400981d8     pjmedia-x86_64-x64-vc14-release:sdp.obj
 0003:000091f0       aud_subsys                 00000001400981f0     pjmedia-x86_64-x64-vc14-release:audiodev.obj
 0003:00009790       ?msg@?3??get_libsrtp_errstr@@9@9 0000000140098790     pjmedia-x86_64-x64-vc14-release:transport_srtp.obj
 0003:000097b0       libsrtp_initialized        00000001400987b0     pjmedia-x86_64-x64-vc14-release:transport_srtp.obj
 0003:000097c0       __getopt_initialized       00000001400987c0     pjlib-util-x86_64-x64-vc14-release:getopt.obj
 0003:000097c4       ordering                   00000001400987c4     pjlib-util-x86_64-x64-vc14-release:getopt.obj
 0003:000097c8       nextchar                   00000001400987c8     pjlib-util-x86_64-x64-vc14-release:getopt.obj
 0003:000097d0       posixly_correct            00000001400987d0     pjlib-util-x86_64-x64-vc14-release:getopt.obj
 0003:000097d8       first_nonopt               00000001400987d8     pjlib-util-x86_64-x64-vc14-release:getopt.obj
 0003:000097dc       last_nonopt                00000001400987dc     pjlib-util-x86_64-x64-vc14-release:getopt.obj
 0003:000097e0       initialized                00000001400987e0     pjlib-x86_64-x64-vc14-release:os_core_win32.obj
 0003:000097e4       atexit_count               00000001400987e4     pjlib-x86_64-x64-vc14-release:os_core_win32.obj
 0003:000097f0       main_thread                00000001400987f0     pjlib-x86_64-x64-vc14-release:os_core_win32.obj
 0003:000098f0       critical_section_mutex     00000001400988f0     pjlib-x86_64-x64-vc14-release:os_core_win32.obj
 0003:00009940       atexit_func                0000000140098940     pjlib-x86_64-x64-vc14-release:os_core_win32.obj
 0003:00009a40       err_msg_hnd_cnt            0000000140098a40     pjlib-x86_64-x64-vc14-release:errno.obj
 0003:00009a50       err_msg_hnd                0000000140098a50     pjlib-x86_64-x64-vc14-release:errno.obj
 0003:00009af0       ?buf@?1??pj_gethostname@@9@9 0000000140098af0     pjlib-x86_64-x64-vc14-release:sock_bsd.obj
 0003:00009b70       ?hostname@?1??pj_gethostname@@9@9 0000000140098b70     pjlib-x86_64-x64-vc14-release:sock_bsd.obj
 0003:00009b80       g_last_thread              0000000140098b80     pjlib-x86_64-x64-vc14-release:log.obj
 0003:00009b88       base_time                  0000000140098b88     pjlib-x86_64-x64-vc14-release:os_time_win32.obj
 0003:00009b90       exception_id_names         0000000140098b90     pjlib-x86_64-x64-vc14-release:except.obj
 0003:00009c10       ?unknown_name@?1??pj_exception_id_name@@9@9 0000000140098c10     pjlib-x86_64-x64-vc14-release:except.obj
 0003:00009c30       stack_based_factory        0000000140098c30     pjlib-x86_64-x64-vc14-release:pool_buf.obj
 0003:00009c78       is_initialized             0000000140098c78     pjlib-x86_64-x64-vc14-release:pool_buf.obj
 0003:00009c80       s_hDLL                     0000000140098c80     pjlib-x86_64-x64-vc14-release:ip_helper_win32.obj
 0003:00009c88       s_pfnGetIpAddrTable        0000000140098c88     pjlib-x86_64-x64-vc14-release:ip_helper_win32.obj
 0003:00009c90       s_pfnGetAdapterAddresses   0000000140098c90     pjlib-x86_64-x64-vc14-release:ip_helper_win32.obj
 0003:00009c98       s_pfnGetIpForwardTable     0000000140098c98     pjlib-x86_64-x64-vc14-release:ip_helper_win32.obj
 0003:00009ca0       s_pfnGetIfEntry            0000000140098ca0     pjlib-x86_64-x64-vc14-release:ip_helper_win32.obj
 0003:00009ca8       srtp_log_handler           0000000140098ca8     libsrtp-x86_64-x64-vc14-release:srtp.obj
 0003:00009cb0       srtp_log_handler_data      0000000140098cb0     libsrtp-x86_64-x64-vc14-release:srtp.obj
 0003:00009ce0       srtp_aes_icm_128_test_case_0_nonce 0000000140098ce0     libsrtp-x86_64-x64-vc14-release:aes_icm.obj
 0003:00009cf0       srtp_aes_icm_256_test_case_0_nonce 0000000140098cf0     libsrtp-x86_64-x64-vc14-release:aes_icm.obj
 0003:00009d00       GS_ExceptionRecord         0000000140098d00     MSVCRT:gs_report.obj
 0003:00009da0       GS_ContextRecord           0000000140098da0     MSVCRT:gs_report.obj
 0003:0000a288       ?is_initialized_as_dll@@3_NA 0000000140099288     MSVCRT:utility.obj
 0003:0000a289       ?module_local_atexit_table_initialized@@3_NA 0000000140099289     MSVCRT:utility.obj
 0003:0000a290       ?module_local_atexit_table@@3U_onexit_table_t@@A 0000000140099290     MSVCRT:utility.obj
 0003:0000a2a8       ?module_local_at_quick_exit_table@@3U_onexit_table_t@@A 00000001400992a8     MSVCRT:utility.obj
