 sipecho

 Timestamp is 5f95b149 (Sun Oct 25 18:09:29 2020)

 Preferred load address is 0000000140000000

 Start         Length     Name                   Class
 0001:00000000 0003e7f0H .text$mn                CODE
 0001:0003e7f0 00000012H .text$mn$00             CODE
 0001:0003e802 00000036H .text$x                 CODE
 0002:00000000 00000430H .idata$5                DATA
 0002:00000430 00000010H .00cfg                  DATA
 0002:00000440 00000008H .CRT$XCA                DATA
 0002:00000448 00000008H .CRT$XCAA               DATA
 0002:00000450 00000008H .CRT$XCZ                DATA
 0002:00000458 00000008H .CRT$XIA                DATA
 0002:00000460 00000008H .CRT$XIAA               DATA
 0002:00000468 00000008H .CRT$XIAC               DATA
 0002:00000470 00000008H .CRT$XIZ                DATA
 0002:00000478 00000008H .CRT$XPA                DATA
 0002:00000480 00000008H .CRT$XPZ                DATA
 0002:00000488 00000008H .CRT$XTA                DATA
 0002:00000490 00000010H .CRT$XTZ                DATA
 0002:000004a0 00008404H .rdata                  DATA
 0002:000088a4 0000025cH .rdata$zzzdbg           DATA
 0002:00008b00 00000008H .rtc$IAA                DATA
 0002:00008b08 00000008H .rtc$IZZ                DATA
 0002:00008b10 00000008H .rtc$TAA                DATA
 0002:00008b18 00000008H .rtc$TZZ                DATA
 0002:00008b20 0000584cH .xdata                  DATA
 0002:0000e36c 00000000H .edata                  DATA
 0002:0000e36c 000000f0H .idata$2                DATA
 0002:0000e45c 00000014H .idata$3                DATA
 0002:0000e470 00000430H .idata$4                DATA
 0002:0000e8a0 000007f8H .idata$6                DATA
 0003:00000000 00001a50H .data                   DATA
 0003:00001a50 000064c0H .bss                    DATA
 0004:00000000 00004d7cH .pdata                  DATA
 0005:00000000 0000001cH .gfids$y                DATA

  Address         Publics by Value              Rva+Base               Lib:Object

 0000:00000000       __guard_fids_count         0000000000000000     <absolute>
 0000:00000000       __guard_longjmp_table      0000000000000000     <absolute>
 0000:00000000       __guard_iat_table          0000000000000000     <absolute>
 0000:00000000       ___safe_se_handler_table   0000000000000000     <absolute>
 0000:00000000       __guard_longjmp_count      0000000000000000     <absolute>
 0000:00000000       ___safe_se_handler_count   0000000000000000     <absolute>
 0000:00000000       __guard_iat_count          0000000000000000     <absolute>
 0000:00000000       __guard_fids_table         0000000000000000     <absolute>
 0000:00000000       __dynamic_value_reloc_table 0000000000000000     <absolute>
 0000:00000100       __guard_flags              0000000000000100     <absolute>
 0000:00000000       __ImageBase                0000000140000000     <linker-defined>
 0001:000000e0       get_snd_options            00000001400010e0 f   sipecho.obj
 0001:00000460       dump_pool_usage            0000000140001460 f   sipecho.obj
 0001:00001680       main                       0000000140002680 f   sipecho.obj
 0001:00001a80       __local_stdio_printf_options 0000000140002a80 f i sipecho.obj
 0001:00001a90       printf                     0000000140002a90 f i sipecho.obj
 0001:00001af0       sprintf                    0000000140002af0 f i sipecho.obj
 0001:00001c50       _matherr                   0000000140002c50 f   MSVCRT:matherr.obj
 0001:00001c50       _get_startup_commit_mode   0000000140002c50 f   MSVCRT:commit_mode.obj
 0001:00001c50       __scrt_initialize_winrt    0000000140002c50 f   MSVCRT:utility_desktop.obj
 0001:00001c50       _get_startup_new_mode      0000000140002c50 f   MSVCRT:new_mode.obj
 0001:00001c50       _get_startup_thread_locale_mode 0000000140002c50 f   MSVCRT:thread_locale.obj
 0001:000038c0       _snprintf                  00000001400048c0 f i pjsip-ua-x86_64-x64-vc14-release:sip_inv.obj
 0001:00005790       pjsip_create_sdp_body      0000000140006790 f   pjsip-ua-x86_64-x64-vc14-release:sip_inv.obj
 0001:00005850       pjsip_inv_add_ref          0000000140006850 f   pjsip-ua-x86_64-x64-vc14-release:sip_inv.obj
 0001:00005880       pjsip_inv_answer           0000000140006880 f   pjsip-ua-x86_64-x64-vc14-release:sip_inv.obj
 0001:000059e0       pjsip_inv_cancel_reinvite  00000001400069e0 f   pjsip-ua-x86_64-x64-vc14-release:sip_inv.obj
 0001:00005af0       pjsip_inv_create_ack       0000000140006af0 f   pjsip-ua-x86_64-x64-vc14-release:sip_inv.obj
 0001:00005c10       pjsip_inv_create_uac       0000000140006c10 f   pjsip-ua-x86_64-x64-vc14-release:sip_inv.obj
 0001:00005df0       pjsip_inv_create_uas       0000000140006df0 f   pjsip-ua-x86_64-x64-vc14-release:sip_inv.obj
 0001:000060a0       pjsip_inv_end_session      00000001400070a0 f   pjsip-ua-x86_64-x64-vc14-release:sip_inv.obj
 0001:00006250       pjsip_inv_initial_answer   0000000140007250 f   pjsip-ua-x86_64-x64-vc14-release:sip_inv.obj
 0001:000063e0       pjsip_inv_invite           00000001400073e0 f   pjsip-ua-x86_64-x64-vc14-release:sip_inv.obj
 0001:000066a0       pjsip_inv_process_redirect 00000001400076a0 f   pjsip-ua-x86_64-x64-vc14-release:sip_inv.obj
 0001:00006a60       pjsip_inv_send_msg         0000000140007a60 f   pjsip-ua-x86_64-x64-vc14-release:sip_inv.obj
 0001:00006c50       pjsip_inv_set_sdp_answer   0000000140007c50 f   pjsip-ua-x86_64-x64-vc14-release:sip_inv.obj
 0001:00006cb0       pjsip_inv_state_name       0000000140007cb0 f   pjsip-ua-x86_64-x64-vc14-release:sip_inv.obj
 0001:00006cd0       pjsip_inv_uac_restart      0000000140007cd0 f   pjsip-ua-x86_64-x64-vc14-release:sip_inv.obj
 0001:00006d60       pjsip_inv_update           0000000140007d60 f   pjsip-ua-x86_64-x64-vc14-release:sip_inv.obj
 0001:00006fe0       pjsip_inv_usage_init       0000000140007fe0 f   pjsip-ua-x86_64-x64-vc14-release:sip_inv.obj
 0001:00007060       pjsip_rdata_get_sdp_info   0000000140008060 f   pjsip-ua-x86_64-x64-vc14-release:sip_inv.obj
 0001:000077f0       pjsip_100rel_attach        00000001400087f0 f   pjsip-ua-x86_64-x64-vc14-release:sip_100rel.obj
 0001:00007870       pjsip_100rel_create_prack  0000000140008870 f   pjsip-ua-x86_64-x64-vc14-release:sip_100rel.obj
 0001:00007bb0       pjsip_100rel_end_session   0000000140008bb0 f   pjsip-ua-x86_64-x64-vc14-release:sip_100rel.obj
 0001:00007c20       pjsip_100rel_init_module   0000000140008c20 f   pjsip-ua-x86_64-x64-vc14-release:sip_100rel.obj
 0001:00007c40       pjsip_100rel_is_reliable   0000000140008c40 f   pjsip-ua-x86_64-x64-vc14-release:sip_100rel.obj
 0001:00007c90       pjsip_100rel_on_rx_prack   0000000140008c90 f   pjsip-ua-x86_64-x64-vc14-release:sip_100rel.obj
 0001:00007f10       pjsip_100rel_send_prack    0000000140008f10 f   pjsip-ua-x86_64-x64-vc14-release:sip_100rel.obj
 0001:00007f50       pjsip_100rel_tx_response   0000000140008f50 f   pjsip-ua-x86_64-x64-vc14-release:sip_100rel.obj
 0001:000088f0       pjsip_timer_end_session    00000001400098f0 f   pjsip-ua-x86_64-x64-vc14-release:sip_timer.obj
 0001:00008930       pjsip_timer_handle_refresh_error 0000000140009930 f   pjsip-ua-x86_64-x64-vc14-release:sip_timer.obj
 0001:00008b00       pjsip_timer_init_session   0000000140009b00 f   pjsip-ua-x86_64-x64-vc14-release:sip_timer.obj
 0001:00008bc0       pjsip_timer_process_req    0000000140009bc0 f   pjsip-ua-x86_64-x64-vc14-release:sip_timer.obj
 0001:00008e10       pjsip_timer_process_resp   0000000140009e10 f   pjsip-ua-x86_64-x64-vc14-release:sip_timer.obj
 0001:00009240       pjsip_timer_update_req     000000014000a240 f   pjsip-ua-x86_64-x64-vc14-release:sip_timer.obj
 0001:000092f0       pjsip_timer_update_resp    000000014000a2f0 f   pjsip-ua-x86_64-x64-vc14-release:sip_timer.obj
 0001:0000b8c0       pjsip_accept_hdr_create    000000014000c8c0 f   pjsip-core-x86_64-x64-vc14-release:sip_msg.obj
 0001:0000b910       pjsip_allow_hdr_create     000000014000c910 f   pjsip-core-x86_64-x64-vc14-release:sip_msg.obj
 0001:0000b960       pjsip_cid_hdr_create       000000014000c960 f   pjsip-core-x86_64-x64-vc14-release:sip_msg.obj
 0001:0000b9d0       pjsip_clen_hdr_create      000000014000c9d0 f   pjsip-core-x86_64-x64-vc14-release:sip_msg.obj
 0001:0000ba40       pjsip_clone_text_data      000000014000ca40 f   pjsip-core-x86_64-x64-vc14-release:sip_msg.obj
 0001:0000baa0       pjsip_contact_hdr_create   000000014000caa0 f   pjsip-core-x86_64-x64-vc14-release:sip_msg.obj
 0001:0000bad0       pjsip_contact_hdr_init     000000014000cad0 f   pjsip-core-x86_64-x64-vc14-release:sip_msg.obj
 0001:0000bb60       pjsip_cseq_hdr_create      000000014000cb60 f   pjsip-core-x86_64-x64-vc14-release:sip_msg.obj
 0001:0000bbc0       pjsip_ctype_hdr_create     000000014000cbc0 f   pjsip-core-x86_64-x64-vc14-release:sip_msg.obj
 0001:0000bbf0       pjsip_ctype_hdr_init       000000014000cbf0 f   pjsip-core-x86_64-x64-vc14-release:sip_msg.obj
 0001:0000bc70       pjsip_expires_hdr_create   000000014000cc70 f   pjsip-core-x86_64-x64-vc14-release:sip_msg.obj
 0001:0000bcc0       pjsip_from_hdr_create      000000014000ccc0 f   pjsip-core-x86_64-x64-vc14-release:sip_msg.obj
 0001:0000bcf0       pjsip_from_hdr_init        000000014000ccf0 f   pjsip-core-x86_64-x64-vc14-release:sip_msg.obj
 0001:0000bd70       pjsip_fromto_hdr_set_from  000000014000cd70 f   pjsip-core-x86_64-x64-vc14-release:sip_msg.obj
 0001:0000bdb0       pjsip_fromto_hdr_set_to    000000014000cdb0 f   pjsip-core-x86_64-x64-vc14-release:sip_msg.obj
 0001:0000bdf0       pjsip_generic_array_hdr_init 000000014000cdf0 f   pjsip-core-x86_64-x64-vc14-release:sip_msg.obj
 0001:0000be80       pjsip_generic_string_hdr_create 000000014000ce80 f   pjsip-core-x86_64-x64-vc14-release:sip_msg.obj
 0001:0000bed0       pjsip_generic_string_hdr_init 000000014000ced0 f   pjsip-core-x86_64-x64-vc14-release:sip_msg.obj
 0001:0000bf70       pjsip_get_ack_method       000000014000cf70 f   pjsip-core-x86_64-x64-vc14-release:sip_msg.obj
 0001:0000bf80       pjsip_get_bye_method       000000014000cf80 f   pjsip-core-x86_64-x64-vc14-release:sip_msg.obj
 0001:0000bf90       pjsip_get_cancel_method    000000014000cf90 f   pjsip-core-x86_64-x64-vc14-release:sip_msg.obj
 0001:0000bfa0       pjsip_get_invite_method    000000014000cfa0 f   pjsip-core-x86_64-x64-vc14-release:sip_msg.obj
 0001:0000bfb0       pjsip_get_status_text      000000014000cfb0 f   pjsip-core-x86_64-x64-vc14-release:sip_msg.obj
 0001:0000c000       pjsip_hdr_clone            000000014000d000 f   pjsip-core-x86_64-x64-vc14-release:sip_msg.obj
 0001:0000c010       pjsip_hdr_print_on         000000014000d010 f   pjsip-core-x86_64-x64-vc14-release:sip_msg.obj
 0001:0000c030       pjsip_hdr_shallow_clone    000000014000d030 f   pjsip-core-x86_64-x64-vc14-release:sip_msg.obj
 0001:0000c040       pjsip_max_fwd_hdr_create   000000014000d040 f   pjsip-core-x86_64-x64-vc14-release:sip_msg.obj
 0001:0000c090       pjsip_media_type_cmp       000000014000d090 f   pjsip-core-x86_64-x64-vc14-release:sip_msg.obj
 0001:0000c110       pjsip_media_type_cp        000000014000d110 f   pjsip-core-x86_64-x64-vc14-release:sip_msg.obj
 0001:0000c170       pjsip_media_type_init      000000014000d170 f   pjsip-core-x86_64-x64-vc14-release:sip_msg.obj
 0001:0000c1d0       pjsip_media_type_init2     000000014000d1d0 f   pjsip-core-x86_64-x64-vc14-release:sip_msg.obj
 0001:0000c250       pjsip_media_type_print     000000014000d250 f   pjsip-core-x86_64-x64-vc14-release:sip_msg.obj
 0001:0000c260       pjsip_method_cmp           000000014000d260 f   pjsip-core-x86_64-x64-vc14-release:sip_msg.obj
 0001:0000c290       pjsip_method_copy          000000014000d290 f   pjsip-core-x86_64-x64-vc14-release:sip_msg.obj
 0001:0000c2c0       pjsip_method_init_np       000000014000d2c0 f   pjsip-core-x86_64-x64-vc14-release:sip_msg.obj
 0001:0000c360       pjsip_min_expires_hdr_create 000000014000d360 f   pjsip-core-x86_64-x64-vc14-release:sip_msg.obj
 0001:0000c3b0       pjsip_msg_body_clone       000000014000d3b0 f   pjsip-core-x86_64-x64-vc14-release:sip_msg.obj
 0001:0000c410       pjsip_msg_body_copy        000000014000d410 f   pjsip-core-x86_64-x64-vc14-release:sip_msg.obj
 0001:0000c4b0       pjsip_msg_create           000000014000d4b0 f   pjsip-core-x86_64-x64-vc14-release:sip_msg.obj
 0001:0000c4e0       pjsip_msg_find_hdr         000000014000d4e0 f   pjsip-core-x86_64-x64-vc14-release:sip_msg.obj
 0001:0000c510       pjsip_msg_find_hdr_by_name 000000014000d510 f   pjsip-core-x86_64-x64-vc14-release:sip_msg.obj
 0001:0000c580       pjsip_msg_find_hdr_by_names 000000014000d580 f   pjsip-core-x86_64-x64-vc14-release:sip_msg.obj
 0001:0000c610       pjsip_msg_print            000000014000d610 f   pjsip-core-x86_64-x64-vc14-release:sip_msg.obj
 0001:0000c970       pjsip_print_text_body      000000014000d970 f   pjsip-core-x86_64-x64-vc14-release:sip_msg.obj
 0001:0000c9b0       pjsip_require_hdr_create   000000014000d9b0 f   pjsip-core-x86_64-x64-vc14-release:sip_msg.obj
 0001:0000ca00       pjsip_retry_after_hdr_create 000000014000da00 f   pjsip-core-x86_64-x64-vc14-release:sip_msg.obj
 0001:0000ca70       pjsip_route_hdr_create     000000014000da70 f   pjsip-core-x86_64-x64-vc14-release:sip_msg.obj
 0001:0000cae0       pjsip_routing_hdr_set_route 000000014000dae0 f   pjsip-core-x86_64-x64-vc14-release:sip_msg.obj
 0001:0000cb10       pjsip_rr_hdr_create        000000014000db10 f   pjsip-core-x86_64-x64-vc14-release:sip_msg.obj
 0001:0000cb80       pjsip_supported_hdr_create 000000014000db80 f   pjsip-core-x86_64-x64-vc14-release:sip_msg.obj
 0001:0000cbf0       pjsip_to_hdr_create        000000014000dbf0 f   pjsip-core-x86_64-x64-vc14-release:sip_msg.obj
 0001:0000cc20       pjsip_to_hdr_init          000000014000dc20 f   pjsip-core-x86_64-x64-vc14-release:sip_msg.obj
 0001:0000cca0       pjsip_unsupported_hdr_create 000000014000dca0 f   pjsip-core-x86_64-x64-vc14-release:sip_msg.obj
 0001:0000ccf0       pjsip_via_hdr_create       000000014000dcf0 f   pjsip-core-x86_64-x64-vc14-release:sip_msg.obj
 0001:0000cd20       pjsip_via_hdr_init         000000014000dd20 f   pjsip-core-x86_64-x64-vc14-release:sip_msg.obj
 0001:0000cdb0       pjsip_warning_hdr_create   000000014000ddb0 f   pjsip-core-x86_64-x64-vc14-release:sip_msg.obj
 0001:0000cec0       pjsip_warning_hdr_create_from_status 000000014000dec0 f   pjsip-core-x86_64-x64-vc14-release:sip_msg.obj
 0001:0000d2a0       pjsip_rx_data_get_info     000000014000e2a0 f   pjsip-core-x86_64-x64-vc14-release:sip_transport.obj
 0001:0000d350       pjsip_tpmgr_acquire_transport2 000000014000e350 f   pjsip-core-x86_64-x64-vc14-release:sip_transport.obj
 0001:0000d700       pjsip_tpmgr_create         000000014000e700 f   pjsip-core-x86_64-x64-vc14-release:sip_transport.obj
 0001:0000d8b0       pjsip_tpmgr_destroy        000000014000e8b0 f   pjsip-core-x86_64-x64-vc14-release:sip_transport.obj
 0001:0000da00       pjsip_tpmgr_get_state_cb   000000014000ea00 f   pjsip-core-x86_64-x64-vc14-release:sip_transport.obj
 0001:0000da10       pjsip_tpmgr_receive_packet 000000014000ea10 f   pjsip-core-x86_64-x64-vc14-release:sip_transport.obj
 0001:0000df10       pjsip_tpmgr_register_tpfactory 000000014000ef10 f   pjsip-core-x86_64-x64-vc14-release:sip_transport.obj
 0001:0000df80       pjsip_tpmgr_unregister_tpfactory 000000014000ef80 f   pjsip-core-x86_64-x64-vc14-release:sip_transport.obj
 0001:0000dfc0       pjsip_tpselector_add_ref   000000014000efc0 f   pjsip-core-x86_64-x64-vc14-release:sip_transport.obj
 0001:0000dfe0       pjsip_tpselector_dec_ref   000000014000efe0 f   pjsip-core-x86_64-x64-vc14-release:sip_transport.obj
 0001:0000e000       pjsip_transport_add_ref    000000014000f000 f   pjsip-core-x86_64-x64-vc14-release:sip_transport.obj
 0001:0000e120       pjsip_transport_add_state_listener 000000014000f120 f   pjsip-core-x86_64-x64-vc14-release:sip_transport.obj
 0001:0000e240       pjsip_transport_dec_ref    000000014000f240 f   pjsip-core-x86_64-x64-vc14-release:sip_transport.obj
 0001:0000e3e0       pjsip_transport_destroy    000000014000f3e0 f   pjsip-core-x86_64-x64-vc14-release:sip_transport.obj
 0001:0000e450       pjsip_transport_get_default_port_for_type 000000014000f450 f   pjsip-core-x86_64-x64-vc14-release:sip_transport.obj
 0001:0000e480       pjsip_transport_get_flag_from_type 000000014000f480 f   pjsip-core-x86_64-x64-vc14-release:sip_transport.obj
 0001:0000e4b0       pjsip_transport_get_type_desc 000000014000f4b0 f   pjsip-core-x86_64-x64-vc14-release:sip_transport.obj
 0001:0000e4f0       pjsip_transport_get_type_from_flag 000000014000f4f0 f   pjsip-core-x86_64-x64-vc14-release:sip_transport.obj
 0001:0000e530       pjsip_transport_get_type_from_name 000000014000f530 f   pjsip-core-x86_64-x64-vc14-release:sip_transport.obj
 0001:0000e5b0       pjsip_transport_get_type_name 000000014000f5b0 f   pjsip-core-x86_64-x64-vc14-release:sip_transport.obj
 0001:0000e5f0       pjsip_transport_register   000000014000f5f0 f   pjsip-core-x86_64-x64-vc14-release:sip_transport.obj
 0001:0000e740       pjsip_transport_remove_state_listener 000000014000f740 f   pjsip-core-x86_64-x64-vc14-release:sip_transport.obj
 0001:0000e810       pjsip_transport_send       000000014000f810 f   pjsip-core-x86_64-x64-vc14-release:sip_transport.obj
 0001:0000e9b0       pjsip_transport_shutdown   000000014000f9b0 f   pjsip-core-x86_64-x64-vc14-release:sip_transport.obj
 0001:0000e9c0       pjsip_transport_shutdown2  000000014000f9c0 f   pjsip-core-x86_64-x64-vc14-release:sip_transport.obj
 0001:0000eaf0       pjsip_transport_type_get_af 000000014000faf0 f   pjsip-core-x86_64-x64-vc14-release:sip_transport.obj
 0001:0000eb10       pjsip_tx_data_add_ref      000000014000fb10 f   pjsip-core-x86_64-x64-vc14-release:sip_transport.obj
 0001:0000eb20       pjsip_tx_data_clone        000000014000fb20 f   pjsip-core-x86_64-x64-vc14-release:sip_transport.obj
 0001:0000ec90       pjsip_tx_data_create       000000014000fc90 f   pjsip-core-x86_64-x64-vc14-release:sip_transport.obj
 0001:0000edd0       pjsip_tx_data_dec_ref      000000014000fdd0 f   pjsip-core-x86_64-x64-vc14-release:sip_transport.obj
 0001:0000ee20       pjsip_tx_data_encode       000000014000fe20 f   pjsip-core-x86_64-x64-vc14-release:sip_transport.obj
 0001:0000ef20       pjsip_tx_data_get_info     000000014000ff20 f   pjsip-core-x86_64-x64-vc14-release:sip_transport.obj
 0001:0000ef90       pjsip_tx_data_invalidate_msg 000000014000ff90 f   pjsip-core-x86_64-x64-vc14-release:sip_transport.obj
 0001:0000efb0       pjsip_tx_data_set_transport 000000014000ffb0 f   pjsip-core-x86_64-x64-vc14-release:sip_transport.obj
 0001:0000f540       pjsip_endpt_acquire_transport2 0000000140010540 f   pjsip-core-x86_64-x64-vc14-release:sip_endpoint.obj
 0001:0000f550       pjsip_endpt_add_capability 0000000140010550 f   pjsip-core-x86_64-x64-vc14-release:sip_endpoint.obj
 0001:0000f6a0       pjsip_endpt_atexit         00000001400106a0 f   pjsip-core-x86_64-x64-vc14-release:sip_endpoint.obj
 0001:0000f720       pjsip_endpt_cancel_timer   0000000140010720 f   pjsip-core-x86_64-x64-vc14-release:sip_endpoint.obj
 0001:0000f750       pjsip_endpt_create         0000000140010750 f   pjsip-core-x86_64-x64-vc14-release:sip_endpoint.obj
 0001:0000fa50       pjsip_endpt_create_pool    0000000140010a50 f   pjsip-core-x86_64-x64-vc14-release:sip_endpoint.obj
 0001:0000fab0       pjsip_endpt_create_tdata   0000000140010ab0 f   pjsip-core-x86_64-x64-vc14-release:sip_endpoint.obj
 0001:0000fac0       pjsip_endpt_destroy        0000000140010ac0 f   pjsip-core-x86_64-x64-vc14-release:sip_endpoint.obj
 0001:0000fc40       pjsip_endpt_get_capability 0000000140010c40 f   pjsip-core-x86_64-x64-vc14-release:sip_endpoint.obj
 0001:0000fc70       pjsip_endpt_get_ioqueue    0000000140010c70 f   pjsip-core-x86_64-x64-vc14-release:sip_endpoint.obj
 0001:0000fc80       pjsip_endpt_get_request_headers 0000000140010c80 f   pjsip-core-x86_64-x64-vc14-release:sip_endpoint.obj
 0001:0000fc90       pjsip_endpt_get_timer_heap 0000000140010c90 f   pjsip-core-x86_64-x64-vc14-release:sip_endpoint.obj
 0001:0000fca0       pjsip_endpt_get_tpmgr      0000000140010ca0 f   pjsip-core-x86_64-x64-vc14-release:sip_endpoint.obj
 0001:0000fcb0       pjsip_endpt_handle_events  0000000140010cb0 f   pjsip-core-x86_64-x64-vc14-release:sip_endpoint.obj
 0001:0000fcc0       pjsip_endpt_handle_events2 0000000140010cc0 f   pjsip-core-x86_64-x64-vc14-release:sip_endpoint.obj
 0001:0000fdc0       pjsip_endpt_log_error      0000000140010dc0 f   pjsip-core-x86_64-x64-vc14-release:sip_endpoint.obj
 0001:0000ff00       pjsip_endpt_name           0000000140010f00 f   pjsip-core-x86_64-x64-vc14-release:sip_endpoint.obj
 0001:0000ff10       pjsip_endpt_process_rx_data 0000000140010f10 f   pjsip-core-x86_64-x64-vc14-release:sip_endpoint.obj
 0001:000100e0       pjsip_endpt_register_module 00000001400110e0 f   pjsip-core-x86_64-x64-vc14-release:sip_endpoint.obj
 0001:00010230       pjsip_endpt_release_pool   0000000140011230 f   pjsip-core-x86_64-x64-vc14-release:sip_endpoint.obj
 0001:00010250       pjsip_endpt_resolve        0000000140011250 f   pjsip-core-x86_64-x64-vc14-release:sip_endpoint.obj
 0001:00010260       pjsip_endpt_schedule_timer_dbg 0000000140011260 f   pjsip-core-x86_64-x64-vc14-release:sip_endpoint.obj
 0001:000102b0       pjsip_endpt_schedule_timer_w_grp_lock_dbg 00000001400112b0 f   pjsip-core-x86_64-x64-vc14-release:sip_endpoint.obj
 0001:00010300       pjsip_endpt_unregister_module 0000000140011300 f   pjsip-core-x86_64-x64-vc14-release:sip_endpoint.obj
 0001:000106f0       pjsip_endpt_create_ack     00000001400116f0 f   pjsip-core-x86_64-x64-vc14-release:sip_util.obj
 0001:00010960       pjsip_endpt_create_cancel  0000000140011960 f   pjsip-core-x86_64-x64-vc14-release:sip_util.obj
 0001:00010cd0       pjsip_endpt_create_request_from_hdr 0000000140011cd0 f   pjsip-core-x86_64-x64-vc14-release:sip_util.obj
 0001:00010f60       pjsip_endpt_create_response 0000000140011f60 f   pjsip-core-x86_64-x64-vc14-release:sip_util.obj
 0001:00011220       pjsip_endpt_respond_stateless 0000000140012220 f   pjsip-core-x86_64-x64-vc14-release:sip_util.obj
 0001:000113a0       pjsip_endpt_send_request_stateless 00000001400123a0 f   pjsip-core-x86_64-x64-vc14-release:sip_util.obj
 0001:000114c0       pjsip_endpt_send_response  00000001400124c0 f   pjsip-core-x86_64-x64-vc14-release:sip_util.obj
 0001:000115f0       pjsip_event_str            00000001400125f0 f   pjsip-core-x86_64-x64-vc14-release:sip_util.obj
 0001:00011600       pjsip_get_dest_info        0000000140012600 f   pjsip-core-x86_64-x64-vc14-release:sip_util.obj
 0001:000117c0       pjsip_get_request_dest     00000001400127c0 f   pjsip-core-x86_64-x64-vc14-release:sip_util.obj
 0001:00011850       pjsip_get_response_addr    0000000140012850 f   pjsip-core-x86_64-x64-vc14-release:sip_util.obj
 0001:000119a0       pjsip_process_route_set    00000001400129a0 f   pjsip-core-x86_64-x64-vc14-release:sip_util.obj
 0001:00011bd0       pjsip_restore_strict_route_set 0000000140012bd0 f   pjsip-core-x86_64-x64-vc14-release:sip_util.obj
 0001:00011c90       pjsip_target_assign_status 0000000140012c90 f   pjsip-core-x86_64-x64-vc14-release:sip_util.obj
 0001:00011cd0       pjsip_target_set_add_from_msg 0000000140012cd0 f   pjsip-core-x86_64-x64-vc14-release:sip_util.obj
 0001:00011d80       pjsip_target_set_add_uri   0000000140012d80 f   pjsip-core-x86_64-x64-vc14-release:sip_util.obj
 0001:00011e90       pjsip_target_set_get_next  0000000140012e90 f   pjsip-core-x86_64-x64-vc14-release:sip_util.obj
 0001:00011ee0       pjsip_target_set_set_current 0000000140012ee0 f   pjsip-core-x86_64-x64-vc14-release:sip_util.obj
 0001:000127f0       pjsip_endpt_respond        00000001400137f0 f   pjsip-core-x86_64-x64-vc14-release:sip_util_statefull.obj
 0001:00012bf0       pjsip_udp_transport_restart2 0000000140013bf0 f   pjsip-core-x86_64-x64-vc14-release:sip_transport_udp.obj
 0001:00012e30       pjsip_udp_transport_start  0000000140013e30 f   pjsip-core-x86_64-x64-vc14-release:sip_transport_udp.obj
 0001:00012f00       pjsip_udp_transport_start2 0000000140013f00 f   pjsip-core-x86_64-x64-vc14-release:sip_transport_udp.obj
 0001:00013080       pjsip_udp_transport_start6 0000000140014080 f   pjsip-core-x86_64-x64-vc14-release:sip_transport_udp.obj
 0001:00014d60       pjsip_tcp_transport_lis_start 0000000140015d60 f   pjsip-core-x86_64-x64-vc14-release:sip_transport_tcp.obj
 0001:00014fe0       pjsip_tcp_transport_start  0000000140015fe0 f   pjsip-core-x86_64-x64-vc14-release:sip_transport_tcp.obj
 0001:00015000       pjsip_tcp_transport_start2 0000000140016000 f   pjsip-core-x86_64-x64-vc14-release:sip_transport_tcp.obj
 0001:00015100       pjsip_tcp_transport_start3 0000000140016100 f   pjsip-core-x86_64-x64-vc14-release:sip_transport_tcp.obj
 0001:00016ea0       pjsip_rdata_get_tsx        0000000140017ea0 f   pjsip-core-x86_64-x64-vc14-release:sip_transaction.obj
 0001:00016eb0       pjsip_tsx_create_key       0000000140017eb0 f   pjsip-core-x86_64-x64-vc14-release:sip_transaction.obj
 0001:00016f60       pjsip_tsx_create_uac       0000000140017f60 f   pjsip-core-x86_64-x64-vc14-release:sip_transaction.obj
 0001:00016f70       pjsip_tsx_create_uac2      0000000140017f70 f   pjsip-core-x86_64-x64-vc14-release:sip_transaction.obj
 0001:00017240       pjsip_tsx_create_uas       0000000140018240 f   pjsip-core-x86_64-x64-vc14-release:sip_transaction.obj
 0001:00017250       pjsip_tsx_create_uas2      0000000140018250 f   pjsip-core-x86_64-x64-vc14-release:sip_transaction.obj
 0001:000174e0       pjsip_tsx_layer_find_tsx2  00000001400184e0 f   pjsip-core-x86_64-x64-vc14-release:sip_transaction.obj
 0001:00017560       pjsip_tsx_layer_init_module 0000000140018560 f   pjsip-core-x86_64-x64-vc14-release:sip_transaction.obj
 0001:00017730       pjsip_tsx_recv_msg         0000000140018730 f   pjsip-core-x86_64-x64-vc14-release:sip_transaction.obj
 0001:000177e0       pjsip_tsx_retransmit_no_state 00000001400187e0 f   pjsip-core-x86_64-x64-vc14-release:sip_transaction.obj
 0001:00017850       pjsip_tsx_send_msg         0000000140018850 f   pjsip-core-x86_64-x64-vc14-release:sip_transaction.obj
 0001:00017940       pjsip_tsx_set_timeout      0000000140018940 f   pjsip-core-x86_64-x64-vc14-release:sip_transaction.obj
 0001:00017a50       pjsip_tsx_set_transport    0000000140018a50 f   pjsip-core-x86_64-x64-vc14-release:sip_transaction.obj
 0001:00017ad0       pjsip_tsx_state_str        0000000140018ad0 f   pjsip-core-x86_64-x64-vc14-release:sip_transaction.obj
 0001:00017ae0       pjsip_tsx_terminate        0000000140018ae0 f   pjsip-core-x86_64-x64-vc14-release:sip_transaction.obj
 0001:0001ae90       pjsip_rdata_get_dlg        000000014001be90 f   pjsip-core-x86_64-x64-vc14-release:sip_ua_layer.obj
 0001:0001aea0       pjsip_tsx_get_dlg          000000014001bea0 f   pjsip-core-x86_64-x64-vc14-release:sip_ua_layer.obj
 0001:0001aeb0       pjsip_ua_get_endpt         000000014001beb0 f   pjsip-core-x86_64-x64-vc14-release:sip_ua_layer.obj
 0001:0001aec0       pjsip_ua_init_module       000000014001bec0 f   pjsip-core-x86_64-x64-vc14-release:sip_ua_layer.obj
 0001:0001aef0       pjsip_ua_instance          000000014001bef0 f   pjsip-core-x86_64-x64-vc14-release:sip_ua_layer.obj
 0001:0001af00       pjsip_ua_register_dlg      000000014001bf00 f   pjsip-core-x86_64-x64-vc14-release:sip_ua_layer.obj
 0001:0001b030       pjsip_ua_unregister_dlg    000000014001c030 f   pjsip-core-x86_64-x64-vc14-release:sip_ua_layer.obj
 0001:0001b2c0       create_uas_dialog          000000014001c2c0 f   pjsip-core-x86_64-x64-vc14-release:sip_dialog.obj
 0001:0001bdd0       pjsip_dlg_add_usage        000000014001cdd0 f   pjsip-core-x86_64-x64-vc14-release:sip_dialog.obj
 0001:0001bf30       pjsip_dlg_create_request   000000014001cf30 f   pjsip-core-x86_64-x64-vc14-release:sip_dialog.obj
 0001:0001c050       pjsip_dlg_create_response  000000014001d050 f   pjsip-core-x86_64-x64-vc14-release:sip_dialog.obj
 0001:0001c130       pjsip_dlg_create_uac       000000014001d130 f   pjsip-core-x86_64-x64-vc14-release:sip_dialog.obj
 0001:0001c1f0       pjsip_dlg_create_uac2      000000014001d1f0 f   pjsip-core-x86_64-x64-vc14-release:sip_dialog.obj
 0001:0001c6a0       pjsip_dlg_create_uas_and_inc_lock 000000014001d6a0 f   pjsip-core-x86_64-x64-vc14-release:sip_dialog.obj
 0001:0001c6c0       pjsip_dlg_dec_lock         000000014001d6c0 f   pjsip-core-x86_64-x64-vc14-release:sip_dialog.obj
 0001:0001c730       pjsip_dlg_dec_session      000000014001d730 f   pjsip-core-x86_64-x64-vc14-release:sip_dialog.obj
 0001:0001c7d0       pjsip_dlg_get_remote_cap_hdr 000000014001d7d0 f   pjsip-core-x86_64-x64-vc14-release:sip_dialog.obj
 0001:0001c8a0       pjsip_dlg_inc_lock         000000014001d8a0 f   pjsip-core-x86_64-x64-vc14-release:sip_dialog.obj
 0001:0001c8d0       pjsip_dlg_inc_session      000000014001d8d0 f   pjsip-core-x86_64-x64-vc14-release:sip_dialog.obj
 0001:0001c970       pjsip_dlg_modify_response  000000014001d970 f   pjsip-core-x86_64-x64-vc14-release:sip_dialog.obj
 0001:0001ca90       pjsip_dlg_on_rx_request    000000014001da90 f   pjsip-core-x86_64-x64-vc14-release:sip_dialog.obj
 0001:0001ced0       pjsip_dlg_on_rx_response   000000014001ded0 f   pjsip-core-x86_64-x64-vc14-release:sip_dialog.obj
 0001:0001d2f0       pjsip_dlg_on_tsx_state     000000014001e2f0 f   pjsip-core-x86_64-x64-vc14-release:sip_dialog.obj
 0001:0001d470       pjsip_dlg_remote_has_cap   000000014001e470 f   pjsip-core-x86_64-x64-vc14-release:sip_dialog.obj
 0001:0001d590       pjsip_dlg_remove_remote_cap_hdr 000000014001e590 f   pjsip-core-x86_64-x64-vc14-release:sip_dialog.obj
 0001:0001d640       pjsip_dlg_send_request     000000014001e640 f   pjsip-core-x86_64-x64-vc14-release:sip_dialog.obj
 0001:0001d860       pjsip_dlg_send_response    000000014001e860 f   pjsip-core-x86_64-x64-vc14-release:sip_dialog.obj
 0001:0001d9b0       pjsip_dlg_set_remote_cap_hdr 000000014001e9b0 f   pjsip-core-x86_64-x64-vc14-release:sip_dialog.obj
 0001:0001dad0       pjsip_dlg_try_inc_lock     000000014001ead0 f   pjsip-core-x86_64-x64-vc14-release:sip_dialog.obj
 0001:0001db20       pjsip_dlg_update_remote_cap 000000014001eb20 f   pjsip-core-x86_64-x64-vc14-release:sip_dialog.obj
 0001:0001dd70       pjsip_method_creates_dialog 000000014001ed70 f   pjsip-core-x86_64-x64-vc14-release:sip_dialog.obj
 0001:0001e220       pjsip_auth_clt_deinit      000000014001f220 f   pjsip-core-x86_64-x64-vc14-release:sip_auth_client.obj
 0001:0001e290       pjsip_auth_clt_init        000000014001f290 f   pjsip-core-x86_64-x64-vc14-release:sip_auth_client.obj
 0001:0001e2d0       pjsip_auth_clt_init_req    000000014001f2d0 f   pjsip-core-x86_64-x64-vc14-release:sip_auth_client.obj
 0001:0001e560       pjsip_auth_clt_reinit_req  000000014001f560 f   pjsip-core-x86_64-x64-vc14-release:sip_auth_client.obj
 0001:0001e810       pjsip_auth_create_digest   000000014001f810 f   pjsip-core-x86_64-x64-vc14-release:sip_auth_client.obj
 0001:0001f2b0       deinit_sip_parser          00000001400202b0 f   pjsip-core-x86_64-x64-vc14-release:sip_parser.obj
 0001:0001fcc0       init_sip_parser            0000000140020cc0 f   pjsip-core-x86_64-x64-vc14-release:sip_parser.obj
 0001:00022870       pjsip_find_msg             0000000140023870 f   pjsip-core-x86_64-x64-vc14-release:sip_parser.obj
 0001:00022bf0       pjsip_parse_end_hdr_imp    0000000140023bf0 f   pjsip-core-x86_64-x64-vc14-release:sip_parser.obj
 0001:00022c10       pjsip_parse_hdr            0000000140023c10 f   pjsip-core-x86_64-x64-vc14-release:sip_parser.obj
 0001:00022d50       pjsip_parse_headers        0000000140023d50 f   pjsip-core-x86_64-x64-vc14-release:sip_parser.obj
 0001:00022fe0       pjsip_parse_param_imp      0000000140023fe0 f   pjsip-core-x86_64-x64-vc14-release:sip_parser.obj
 0001:000230d0       pjsip_parse_rdata          00000001400240d0 f   pjsip-core-x86_64-x64-vc14-release:sip_parser.obj
 0001:00023150       pjsip_parse_uri            0000000140024150 f   pjsip-core-x86_64-x64-vc14-release:sip_parser.obj
 0001:00023230       pjsip_parser_const         0000000140024230 f   pjsip-core-x86_64-x64-vc14-release:sip_parser.obj
 0001:00023240       pjsip_register_hdr_parser  0000000140024240 f   pjsip-core-x86_64-x64-vc14-release:sip_parser.obj
 0001:00023330       pjsip_register_uri_parser  0000000140024330 f   pjsip-core-x86_64-x64-vc14-release:sip_parser.obj
 0001:000239b0       pjsip_multipart_add_part   00000001400249b0 f   pjsip-core-x86_64-x64-vc14-release:sip_multipart.obj
 0001:00023a10       pjsip_multipart_create     0000000140024a10 f   pjsip-core-x86_64-x64-vc14-release:sip_multipart.obj
 0001:00023b80       pjsip_multipart_find_part  0000000140024b80 f   pjsip-core-x86_64-x64-vc14-release:sip_multipart.obj
 0001:00023c20       pjsip_multipart_parse      0000000140024c20 f   pjsip-core-x86_64-x64-vc14-release:sip_multipart.obj
 0001:00024bb0       pjsip_name_addr_assign     0000000140025bb0 f   pjsip-core-x86_64-x64-vc14-release:sip_uri.obj
 0001:00024c00       pjsip_name_addr_create     0000000140025c00 f   pjsip-core-x86_64-x64-vc14-release:sip_uri.obj
 0001:00024c30       pjsip_name_addr_init       0000000140025c30 f   pjsip-core-x86_64-x64-vc14-release:sip_uri.obj
 0001:00024c50       pjsip_other_uri_create     0000000140025c50 f   pjsip-core-x86_64-x64-vc14-release:sip_uri.obj
 0001:00024c80       pjsip_param_clone          0000000140025c80 f   pjsip-core-x86_64-x64-vc14-release:sip_uri.obj
 0001:00024d20       pjsip_param_cmp            0000000140025d20 f   pjsip-core-x86_64-x64-vc14-release:sip_uri.obj
 0001:00024e00       pjsip_param_find           0000000140025e00 f   pjsip-core-x86_64-x64-vc14-release:sip_uri.obj
 0001:00024e60       pjsip_param_print_on       0000000140025e60 f   pjsip-core-x86_64-x64-vc14-release:sip_uri.obj
 0001:00024fa0       pjsip_param_shallow_clone  0000000140025fa0 f   pjsip-core-x86_64-x64-vc14-release:sip_uri.obj
 0001:00025020       pjsip_sip_uri_assign       0000000140026020 f   pjsip-core-x86_64-x64-vc14-release:sip_uri.obj
 0001:00025100       pjsip_sip_uri_create       0000000140026100 f   pjsip-core-x86_64-x64-vc14-release:sip_uri.obj
 0001:00025520       pjsip_resolve              0000000140026520 f   pjsip-core-x86_64-x64-vc14-release:sip_resolve.obj
 0001:00025ba0       pjsip_resolver_create      0000000140026ba0 f   pjsip-core-x86_64-x64-vc14-release:sip_resolve.obj
 0001:00025be0       pjsip_resolver_destroy     0000000140026be0 f   pjsip-core-x86_64-x64-vc14-release:sip_resolve.obj
 0001:00025df0       pjsip_strerror             0000000140026df0 f   pjsip-core-x86_64-x64-vc14-release:sip_errno.obj
 0001:00026380       pjsip_tel_nb_cmp           0000000140027380 f   pjsip-core-x86_64-x64-vc14-release:sip_tel_uri.obj
 0001:00026490       pjsip_tel_uri_subsys_init  0000000140027490 f   pjsip-core-x86_64-x64-vc14-release:sip_tel_uri.obj
 0001:00026f60       pjsip_authorization_hdr_create 0000000140027f60 f   pjsip-core-x86_64-x64-vc14-release:sip_auth_msg.obj
 0001:00026fe0       pjsip_proxy_authenticate_hdr_create 0000000140027fe0 f   pjsip-core-x86_64-x64-vc14-release:sip_auth_msg.obj
 0001:00027060       pjsip_proxy_authorization_hdr_create 0000000140028060 f   pjsip-core-x86_64-x64-vc14-release:sip_auth_msg.obj
 0001:000270e0       pjsip_www_authenticate_hdr_create 00000001400280e0 f   pjsip-core-x86_64-x64-vc14-release:sip_auth_msg.obj
 0001:00028320       pjsip_auth_init_parser     0000000140029320 f   pjsip-core-x86_64-x64-vc14-release:sip_auth_parser.obj
 0001:000288d0       pjmedia_sdp_attr_create    00000001400298d0 f   pjmedia-x86_64-x64-vc14-release:sdp.obj
 0001:00028980       pjmedia_sdp_attr_find      0000000140029980 f   pjmedia-x86_64-x64-vc14-release:sdp.obj
 0001:00028a30       pjmedia_sdp_attr_find2     0000000140029a30 f   pjmedia-x86_64-x64-vc14-release:sdp.obj
 0001:00028b00       pjmedia_sdp_attr_get_rtpmap 0000000140029b00 f   pjmedia-x86_64-x64-vc14-release:sdp.obj
 0001:00028ce0       pjmedia_sdp_attr_remove    0000000140029ce0 f   pjmedia-x86_64-x64-vc14-release:sdp.obj
 0001:00028d90       pjmedia_sdp_attr_remove_all 0000000140029d90 f   pjmedia-x86_64-x64-vc14-release:sdp.obj
 0001:00028e70       pjmedia_sdp_conn_clone     0000000140029e70 f   pjmedia-x86_64-x64-vc14-release:sdp.obj
 0001:00028f00       pjmedia_sdp_media_add_attr 0000000140029f00 f   pjmedia-x86_64-x64-vc14-release:sdp.obj
 0001:00028f40       pjmedia_sdp_media_clone    0000000140029f40 f   pjmedia-x86_64-x64-vc14-release:sdp.obj
 0001:00029130       pjmedia_sdp_media_clone_deactivate 000000014002a130 f   pjmedia-x86_64-x64-vc14-release:sdp.obj
 0001:00029320       pjmedia_sdp_media_deactivate 000000014002a320 f   pjmedia-x86_64-x64-vc14-release:sdp.obj
 0001:00029340       pjmedia_sdp_media_find_attr2 000000014002a340 f   pjmedia-x86_64-x64-vc14-release:sdp.obj
 0001:00029370       pjmedia_sdp_media_remove_all_attr 000000014002a370 f   pjmedia-x86_64-x64-vc14-release:sdp.obj
 0001:00029390       pjmedia_sdp_media_remove_attr 000000014002a390 f   pjmedia-x86_64-x64-vc14-release:sdp.obj
 0001:000293b0       pjmedia_sdp_parse          000000014002a3b0 f   pjmedia-x86_64-x64-vc14-release:sdp.obj
 0001:00029af0       pjmedia_sdp_print          000000014002aaf0 f   pjmedia-x86_64-x64-vc14-release:sdp.obj
 0001:00029b00       pjmedia_sdp_session_add_attr 000000014002ab00 f   pjmedia-x86_64-x64-vc14-release:sdp.obj
 0001:00029b40       pjmedia_sdp_session_clone  000000014002ab40 f   pjmedia-x86_64-x64-vc14-release:sdp.obj
 0001:00029d90       pjmedia_sdp_transport_cmp  000000014002ad90 f   pjmedia-x86_64-x64-vc14-release:sdp.obj
 0001:00029df0       pjmedia_sdp_transport_get_proto 000000014002adf0 f   pjmedia-x86_64-x64-vc14-release:sdp.obj
 0001:00029f50       pjmedia_sdp_validate       000000014002af50 f   pjmedia-x86_64-x64-vc14-release:sdp.obj
 0001:00029f60       pjmedia_sdp_validate2      000000014002af60 f   pjmedia-x86_64-x64-vc14-release:sdp.obj
 0001:0002b620       pjmedia_sdp_neg_cancel_offer 000000014002c620 f   pjmedia-x86_64-x64-vc14-release:sdp_neg.obj
 0001:0002b670       pjmedia_sdp_neg_create_w_local_offer 000000014002c670 f   pjmedia-x86_64-x64-vc14-release:sdp_neg.obj
 0001:0002b730       pjmedia_sdp_neg_create_w_remote_offer 000000014002c730 f   pjmedia-x86_64-x64-vc14-release:sdp_neg.obj
 0001:0002b830       pjmedia_sdp_neg_get_active_local 000000014002c830 f   pjmedia-x86_64-x64-vc14-release:sdp_neg.obj
 0001:0002b860       pjmedia_sdp_neg_get_neg_local 000000014002c860 f   pjmedia-x86_64-x64-vc14-release:sdp_neg.obj
 0001:0002b890       pjmedia_sdp_neg_get_state  000000014002c890 f   pjmedia-x86_64-x64-vc14-release:sdp_neg.obj
 0001:0002b8a0       pjmedia_sdp_neg_has_local_answer 000000014002c8a0 f   pjmedia-x86_64-x64-vc14-release:sdp_neg.obj
 0001:0002b8b0       pjmedia_sdp_neg_modify_local_offer2 000000014002c8b0 f   pjmedia-x86_64-x64-vc14-release:sdp_neg.obj
 0001:0002bb00       pjmedia_sdp_neg_negotiate  000000014002cb00 f   pjmedia-x86_64-x64-vc14-release:sdp_neg.obj
 0001:0002bc10       pjmedia_sdp_neg_send_local_offer 000000014002cc10 f   pjmedia-x86_64-x64-vc14-release:sdp_neg.obj
 0001:0002bd00       pjmedia_sdp_neg_set_local_answer 000000014002cd00 f   pjmedia-x86_64-x64-vc14-release:sdp_neg.obj
 0001:0002bdd0       pjmedia_sdp_neg_set_remote_answer 000000014002cdd0 f   pjmedia-x86_64-x64-vc14-release:sdp_neg.obj
 0001:0002be30       pjmedia_sdp_neg_set_remote_offer 000000014002ce30 f   pjmedia-x86_64-x64-vc14-release:sdp_neg.obj
 0001:0002be80       pjmedia_sdp_neg_state_str  000000014002ce80 f   pjmedia-x86_64-x64-vc14-release:sdp_neg.obj
 0001:0002c7d0       pjlib_util_init            000000014002d7d0 f   pjlib-util-x86_64-x64-vc14-release:errno.obj
 0001:0002c7f0       pjlib_util_strerror        000000014002d7f0 f   pjlib-util-x86_64-x64-vc14-release:errno.obj
 0001:0002d200       pj_getopt_long             000000014002e200 f   pjlib-util-x86_64-x64-vc14-release:getopt.obj
 0001:0002d220       pj_cis_add_alpha           000000014002e220 f   pjlib-util-x86_64-x64-vc14-release:scanner.obj
 0001:0002d250       pj_cis_add_cis             000000014002e250 f   pjlib-util-x86_64-x64-vc14-release:scanner.obj
 0001:0002d2a0       pj_cis_add_num             000000014002e2a0 f   pjlib-util-x86_64-x64-vc14-release:scanner.obj
 0001:0002d2b0       pj_cis_add_range           000000014002e2b0 f   pjlib-util-x86_64-x64-vc14-release:scanner.obj
 0001:0002d3c0       pj_cis_add_str             000000014002e3c0 f   pjlib-util-x86_64-x64-vc14-release:scanner.obj
 0001:0002d400       pj_cis_buf_init            000000014002e400 f   pjlib-util-x86_64-x64-vc14-release:scanner.obj
 0001:0002d430       pj_cis_del_str             000000014002e430 f   pjlib-util-x86_64-x64-vc14-release:scanner.obj
 0001:0002d470       pj_cis_dup                 000000014002e470 f   pjlib-util-x86_64-x64-vc14-release:scanner.obj
 0001:0002d510       pj_cis_init                000000014002e510 f   pjlib-util-x86_64-x64-vc14-release:scanner.obj
 0001:0002d550       pj_cis_invert              000000014002e550 f   pjlib-util-x86_64-x64-vc14-release:scanner.obj
 0001:0002d5a0       pj_scan_advance_n          000000014002e5a0 f   pjlib-util-x86_64-x64-vc14-release:scanner.obj
 0001:0002d5d0       pj_scan_fini               000000014002e5d0 f   pjlib-util-x86_64-x64-vc14-release:scanner.obj
 0001:0002d5f0       pj_scan_get                000000014002e5f0 f   pjlib-util-x86_64-x64-vc14-release:scanner.obj
 0001:0002d660       pj_scan_get_char           000000014002e660 f   pjlib-util-x86_64-x64-vc14-release:scanner.obj
 0001:0002d6b0       pj_scan_get_n              000000014002e6b0 f   pjlib-util-x86_64-x64-vc14-release:scanner.obj
 0001:0002d6f0       pj_scan_get_newline        000000014002e6f0 f   pjlib-util-x86_64-x64-vc14-release:scanner.obj
 0001:0002d740       pj_scan_get_quote          000000014002e740 f   pjlib-util-x86_64-x64-vc14-release:scanner.obj
 0001:0002d850       pj_scan_get_until_ch       000000014002e850 f   pjlib-util-x86_64-x64-vc14-release:scanner.obj
 0001:0002d8a0       pj_scan_get_until_chr      000000014002e8a0 f   pjlib-util-x86_64-x64-vc14-release:scanner.obj
 0001:0002d940       pj_scan_init               000000014002e940 f   pjlib-util-x86_64-x64-vc14-release:scanner.obj
 0001:0002d9c0       pj_scan_peek               000000014002e9c0 f   pjlib-util-x86_64-x64-vc14-release:scanner.obj
 0001:0002da30       pj_scan_skip_line          000000014002ea30 f   pjlib-util-x86_64-x64-vc14-release:scanner.obj
 0001:0002da70       pj_scan_skip_whitespace    000000014002ea70 f   pjlib-util-x86_64-x64-vc14-release:scanner.obj
 0001:0002db60       pj_str_unescape            000000014002eb60 f   pjlib-util-x86_64-x64-vc14-release:string.obj
 0001:0002dc90       pj_strncpy2_escape         000000014002ec90 f   pjlib-util-x86_64-x64-vc14-release:string.obj
 0001:0002e060       pj_dns_parse_addr_response 000000014002f060 f   pjlib-util-x86_64-x64-vc14-release:resolver.obj
 0001:0002e380       pj_dns_resolver_cancel_query 000000014002f380 f   pjlib-util-x86_64-x64-vc14-release:resolver.obj
 0001:0002e420       pj_dns_resolver_destroy    000000014002f420 f   pjlib-util-x86_64-x64-vc14-release:resolver.obj
 0001:0002e5f0       pj_dns_resolver_start_query 000000014002f5f0 f   pjlib-util-x86_64-x64-vc14-release:resolver.obj
 0001:0002f790       pj_md5_final               0000000140030790 f   pjlib-util-x86_64-x64-vc14-release:md5.obj
 0001:0002f850       pj_md5_init                0000000140030850 f   pjlib-util-x86_64-x64-vc14-release:md5.obj
 0001:0002f880       pj_md5_update              0000000140030880 f   pjlib-util-x86_64-x64-vc14-release:md5.obj
 0001:0002f970       pj_dns_get_type_name       0000000140030970 f   pjlib-util-x86_64-x64-vc14-release:dns.obj
 0001:0002fa40       pj_dns_make_query          0000000140030a40 f   pjlib-util-x86_64-x64-vc14-release:dns.obj
 0001:00030be0       pj_dns_srv_cancel_query    0000000140031be0 f   pjlib-util-x86_64-x64-vc14-release:srv_resolver.obj
 0001:00030cc0       pj_dns_srv_resolve         0000000140031cc0 f   pjlib-util-x86_64-x64-vc14-release:srv_resolver.obj
 0001:000310f0       pj_atexit                  00000001400320f0 f   pjlib-x86_64-x64-vc14-release:os_core_win32.obj
 0001:00031120       pj_atomic_create           0000000140032120 f   pjlib-x86_64-x64-vc14-release:os_core_win32.obj
 0001:00031160       pj_atomic_dec_and_get      0000000140032160 f   pjlib-x86_64-x64-vc14-release:os_core_win32.obj
 0001:000311c0       pj_atomic_destroy          00000001400321c0 f   pjlib-x86_64-x64-vc14-release:os_core_win32.obj
 0001:000311d0       pj_atomic_get              00000001400321d0 f   pjlib-x86_64-x64-vc14-release:os_core_win32.obj
 0001:00031240       pj_atomic_inc              0000000140032240 f   pjlib-x86_64-x64-vc14-release:os_core_win32.obj
 0001:00031250       pj_atomic_inc_and_get      0000000140032250 f   pjlib-x86_64-x64-vc14-release:os_core_win32.obj
 0001:000312c0       pj_atomic_set              00000001400322c0 f   pjlib-x86_64-x64-vc14-release:os_core_win32.obj
 0001:00031330       pj_enter_critical_section  0000000140032330 f   pjlib-x86_64-x64-vc14-release:os_core_win32.obj
 0001:000313a0       pj_init                    00000001400323a0 f   pjlib-x86_64-x64-vc14-release:os_core_win32.obj
 0001:00031500       pj_leave_critical_section  0000000140032500 f   pjlib-x86_64-x64-vc14-release:os_core_win32.obj
 0001:00031570       pj_mutex_create            0000000140032570 f   pjlib-x86_64-x64-vc14-release:os_core_win32.obj
 0001:000315f0       pj_mutex_create_simple     00000001400325f0 f   pjlib-x86_64-x64-vc14-release:os_core_win32.obj
 0001:000315f0       pj_mutex_create_recursive  00000001400325f0 f   pjlib-x86_64-x64-vc14-release:os_core_win32.obj
 0001:00031670       pj_mutex_destroy           0000000140032670 f   pjlib-x86_64-x64-vc14-release:os_core_win32.obj
 0001:000316f0       pj_mutex_lock              00000001400326f0 f   pjlib-x86_64-x64-vc14-release:os_core_win32.obj
 0001:00031770       pj_mutex_trylock           0000000140032770 f   pjlib-x86_64-x64-vc14-release:os_core_win32.obj
 0001:00031800       pj_mutex_unlock            0000000140032800 f   pjlib-x86_64-x64-vc14-release:os_core_win32.obj
 0001:00031880       pj_rwmutex_create          0000000140032880 f   pjlib-x86_64-x64-vc14-release:os_core_win32.obj
 0001:00031940       pj_rwmutex_destroy         0000000140032940 f   pjlib-x86_64-x64-vc14-release:os_core_win32.obj
 0001:00031980       pj_rwmutex_lock_read       0000000140032980 f   pjlib-x86_64-x64-vc14-release:os_core_win32.obj
 0001:000319d0       pj_rwmutex_lock_write      00000001400329d0 f   pjlib-x86_64-x64-vc14-release:os_core_win32.obj
 0001:000319f0       pj_rwmutex_unlock_read     00000001400329f0 f   pjlib-x86_64-x64-vc14-release:os_core_win32.obj
 0001:00031a40       pj_rwmutex_unlock_write    0000000140032a40 f   pjlib-x86_64-x64-vc14-release:os_core_win32.obj
 0001:00031a60       pj_sem_create              0000000140032a60 f   pjlib-x86_64-x64-vc14-release:os_core_win32.obj
 0001:00031bc0       pj_sem_destroy             0000000140032bc0 f   pjlib-x86_64-x64-vc14-release:os_core_win32.obj
 0001:00031c70       pj_sem_post                0000000140032c70 f   pjlib-x86_64-x64-vc14-release:os_core_win32.obj
 0001:00031d20       pj_sem_trywait             0000000140032d20 f   pjlib-x86_64-x64-vc14-release:os_core_win32.obj
 0001:00031d90       pj_sem_wait                0000000140032d90 f   pjlib-x86_64-x64-vc14-release:os_core_win32.obj
 0001:00031f00       pj_term_set_color          0000000140032f00 f   pjlib-x86_64-x64-vc14-release:os_core_win32.obj
 0001:00031ff0       pj_thread_check_stack      0000000140032ff0 f   pjlib-x86_64-x64-vc14-release:os_core_win32.obj
 0001:00032050       pj_thread_create           0000000140033050 f   pjlib-x86_64-x64-vc14-release:os_core_win32.obj
 0001:00032210       pj_thread_get_name         0000000140033210 f   pjlib-x86_64-x64-vc14-release:os_core_win32.obj
 0001:00032280       pj_thread_init             0000000140033280 f   pjlib-x86_64-x64-vc14-release:os_core_win32.obj
 0001:000322e0       pj_thread_join             00000001400332e0 f   pjlib-x86_64-x64-vc14-release:os_core_win32.obj
 0001:000323e0       pj_thread_local_alloc      00000001400333e0 f   pjlib-x86_64-x64-vc14-release:os_core_win32.obj
 0001:00032450       pj_thread_local_free       0000000140033450 f   pjlib-x86_64-x64-vc14-release:os_core_win32.obj
 0001:000324b0       pj_thread_local_get        00000001400334b0 f   pjlib-x86_64-x64-vc14-release:os_core_win32.obj
 0001:000324c0       pj_thread_local_set        00000001400334c0 f   pjlib-x86_64-x64-vc14-release:os_core_win32.obj
 0001:00032510       pj_thread_register         0000000140033510 f   pjlib-x86_64-x64-vc14-release:os_core_win32.obj
 0001:00032620       pj_thread_sleep            0000000140033620 f   pjlib-x86_64-x64-vc14-release:os_core_win32.obj
 0001:00032680       pj_thread_this             0000000140033680 f   pjlib-x86_64-x64-vc14-release:os_core_win32.obj
 0001:00032740       pj_perror                  0000000140033740 f   pjlib-x86_64-x64-vc14-release:errno.obj
 0001:00032760       pj_perror_1                0000000140033760 f   pjlib-x86_64-x64-vc14-release:errno.obj
 0001:00032790       pj_perror_2                0000000140033790 f   pjlib-x86_64-x64-vc14-release:errno.obj
 0001:000327c0       pj_perror_3                00000001400337c0 f   pjlib-x86_64-x64-vc14-release:errno.obj
 0001:000327f0       pj_perror_4                00000001400337f0 f   pjlib-x86_64-x64-vc14-release:errno.obj
 0001:00032900       pj_register_strerror       0000000140033900 f   pjlib-x86_64-x64-vc14-release:errno.obj
 0001:00032a20       pj_strerror                0000000140033a20 f   pjlib-x86_64-x64-vc14-release:errno.obj
 0001:00032be0       pj_list_erase              0000000140033be0 f   pjlib-x86_64-x64-vc14-release:list.obj
 0001:00032c00       pj_list_find_node          0000000140033c00 f   pjlib-x86_64-x64-vc14-release:list.obj
 0001:00032c30       pj_list_insert_after       0000000140033c30 f   pjlib-x86_64-x64-vc14-release:list.obj
 0001:00032c50       pj_list_insert_before      0000000140033c50 f   pjlib-x86_64-x64-vc14-release:list.obj
 0001:00032c70       pj_list_insert_nodes_before 0000000140033c70 f   pjlib-x86_64-x64-vc14-release:list.obj
 0001:00032c90       pj_list_search             0000000140033c90 f   pjlib-x86_64-x64-vc14-release:list.obj
 0001:00032cf0       pj_list_size               0000000140033cf0 f   pjlib-x86_64-x64-vc14-release:list.obj
 0001:00032d10       pj_addr_str_print          0000000140033d10 f   pjlib-x86_64-x64-vc14-release:sock_common.obj
 0001:00032e00       pj_gethostip               0000000140033e00 f   pjlib-x86_64-x64-vc14-release:sock_common.obj
 0001:00033690       pj_getipinterface          0000000140034690 f   pjlib-x86_64-x64-vc14-release:sock_common.obj
 0001:00033940       pj_sockaddr_cmp            0000000140034940 f   pjlib-x86_64-x64-vc14-release:sock_common.obj
 0001:00033a90       pj_sockaddr_copy_addr      0000000140034a90 f   pjlib-x86_64-x64-vc14-release:sock_common.obj
 0001:00033b10       pj_sockaddr_cp             0000000140034b10 f   pjlib-x86_64-x64-vc14-release:sock_common.obj
 0001:00033b60       pj_sockaddr_get_addr       0000000140034b60 f   pjlib-x86_64-x64-vc14-release:sock_common.obj
 0001:00033b90       pj_sockaddr_get_len        0000000140034b90 f   pjlib-x86_64-x64-vc14-release:sock_common.obj
 0001:00033bc0       pj_sockaddr_get_port       0000000140034bc0 f   pjlib-x86_64-x64-vc14-release:sock_common.obj
 0001:00033bf0       pj_sockaddr_has_addr       0000000140034bf0 f   pjlib-x86_64-x64-vc14-release:sock_common.obj
 0001:00033c80       pj_sockaddr_in_init        0000000140034c80 f   pjlib-x86_64-x64-vc14-release:sock_common.obj
 0001:00033cf0       pj_sockaddr_in_set_str_addr 0000000140034cf0 f   pjlib-x86_64-x64-vc14-release:sock_common.obj
 0001:00033dd0       pj_sockaddr_init           0000000140034dd0 f   pjlib-x86_64-x64-vc14-release:sock_common.obj
 0001:00033eb0       pj_sockaddr_print          0000000140034eb0 f   pjlib-x86_64-x64-vc14-release:sock_common.obj
 0001:00034020       pj_sockaddr_set_port       0000000140035020 f   pjlib-x86_64-x64-vc14-release:sock_common.obj
 0001:00034070       pj_sockaddr_set_str_addr   0000000140035070 f   pjlib-x86_64-x64-vc14-release:sock_common.obj
 0001:00034160       pj_NO_MEMORY_EXCEPTION     0000000140035160 f   pjlib-x86_64-x64-vc14-release:pool.obj
 0001:00034170       pj_pool_alloc              0000000140035170 f   pjlib-x86_64-x64-vc14-release:pool.obj
 0001:000341c0       pj_pool_allocate_find      00000001400351c0 f   pjlib-x86_64-x64-vc14-release:pool.obj
 0001:00034300       pj_pool_calloc             0000000140035300 f   pjlib-x86_64-x64-vc14-release:pool.obj
 0001:00034370       pj_pool_create             0000000140035370 f   pjlib-x86_64-x64-vc14-release:pool.obj
 0001:00034430       pj_pool_create_int         0000000140035430 f   pjlib-x86_64-x64-vc14-release:pool.obj
 0001:00034520       pj_pool_destroy_int        0000000140035520 f   pjlib-x86_64-x64-vc14-release:pool.obj
 0001:00034560       pj_pool_get_capacity       0000000140035560 f   pjlib-x86_64-x64-vc14-release:pool.obj
 0001:00034570       pj_pool_get_used_size      0000000140035570 f   pjlib-x86_64-x64-vc14-release:pool.obj
 0001:000345b0       pj_pool_getobjname         00000001400355b0 f   pjlib-x86_64-x64-vc14-release:pool.obj
 0001:000345c0       pj_pool_init_int           00000001400355c0 f   pjlib-x86_64-x64-vc14-release:pool.obj
 0001:00034660       pj_pool_release            0000000140035660 f   pjlib-x86_64-x64-vc14-release:pool.obj
 0001:00034680       pj_pool_reset              0000000140035680 f   pjlib-x86_64-x64-vc14-release:pool.obj
 0001:000346a0       pj_pool_safe_release       00000001400356a0 f   pjlib-x86_64-x64-vc14-release:pool.obj
 0001:00034bb0       pj_caching_pool_destroy    0000000140035bb0 f   pjlib-x86_64-x64-vc14-release:pool_caching.obj
 0001:00034cc0       pj_caching_pool_init       0000000140035cc0 f   pjlib-x86_64-x64-vc14-release:pool_caching.obj
 0001:00034dd0       pj_str                     0000000140035dd0 f   pjlib-x86_64-x64-vc14-release:string.obj
 0001:00034e00       pj_strassign               0000000140035e00 f   pjlib-x86_64-x64-vc14-release:string.obj
 0001:00034e20       pj_strcat                  0000000140035e20 f   pjlib-x86_64-x64-vc14-release:string.obj
 0001:00034e60       pj_strcat2                 0000000140035e60 f   pjlib-x86_64-x64-vc14-release:string.obj
 0001:00034eb0       pj_strcmp                  0000000140035eb0 f   pjlib-x86_64-x64-vc14-release:string.obj
 0001:00034f30       pj_strcmp2                 0000000140035f30 f   pjlib-x86_64-x64-vc14-release:string.obj
 0001:00034fd0       pj_strcpy                  0000000140035fd0 f   pjlib-x86_64-x64-vc14-release:string.obj
 0001:00035000       pj_strcpy2                 0000000140036000 f   pjlib-x86_64-x64-vc14-release:string.obj
 0001:00035040       pj_strcspn2                0000000140036040 f   pjlib-x86_64-x64-vc14-release:string.obj
 0001:000350a0       pj_strdup                  00000001400360a0 f   pjlib-x86_64-x64-vc14-release:string.obj
 0001:000350f0       pj_strdup2                 00000001400360f0 f   pjlib-x86_64-x64-vc14-release:string.obj
 0001:00035170       pj_strdup2_with_null       0000000140036170 f   pjlib-x86_64-x64-vc14-release:string.obj
 0001:000351e0       pj_strdup_with_null        00000001400361e0 f   pjlib-x86_64-x64-vc14-release:string.obj
 0001:00035230       pj_stricmp                 0000000140036230 f   pjlib-x86_64-x64-vc14-release:string.obj
 0001:000352c0       pj_stricmp2                00000001400362c0 f   pjlib-x86_64-x64-vc14-release:string.obj
 0001:00035370       pj_strncpy                 0000000140036370 f   pjlib-x86_64-x64-vc14-release:string.obj
 0001:000353c0       pj_strncpy_with_null       00000001400363c0 f   pjlib-x86_64-x64-vc14-release:string.obj
 0001:00035410       pj_strnicmp                0000000140036410 f   pjlib-x86_64-x64-vc14-release:string.obj
 0001:00035460       pj_strspn2                 0000000140036460 f   pjlib-x86_64-x64-vc14-release:string.obj
 0001:000354e0       pj_strstr                  00000001400364e0 f   pjlib-x86_64-x64-vc14-release:string.obj
 0001:00035570       pj_strtok2                 0000000140036570 f   pjlib-x86_64-x64-vc14-release:string.obj
 0001:00035610       pj_strtol                  0000000140036610 f   pjlib-x86_64-x64-vc14-release:string.obj
 0001:00035680       pj_strtol2                 0000000140036680 f   pjlib-x86_64-x64-vc14-release:string.obj
 0001:00035860       pj_strtoul                 0000000140036860 f   pjlib-x86_64-x64-vc14-release:string.obj
 0001:000358f0       pj_strtoul2                00000001400368f0 f   pjlib-x86_64-x64-vc14-release:string.obj
 0001:000359e0       pj_strtoul3                00000001400369e0 f   pjlib-x86_64-x64-vc14-release:string.obj
 0001:00035b80       pj_strtrim                 0000000140036b80 f   pjlib-x86_64-x64-vc14-release:string.obj
 0001:00035c20       pj_utoa                    0000000140036c20 f   pjlib-x86_64-x64-vc14-release:string.obj
 0001:00035c30       pj_utoa_pad                0000000140036c30 f   pjlib-x86_64-x64-vc14-release:string.obj
 0001:00035cf0       pj_array_erase             0000000140036cf0 f   pjlib-x86_64-x64-vc14-release:array.obj
 0001:00035d30       pj_array_insert            0000000140036d30 f   pjlib-x86_64-x64-vc14-release:array.obj
 0001:00035de0       pj_log                     0000000140036de0 f   pjlib-x86_64-x64-vc14-release:log.obj
 0001:00036370       pj_log_1                   0000000140037370 f   pjlib-x86_64-x64-vc14-release:log.obj
 0001:000363a0       pj_log_2                   00000001400373a0 f   pjlib-x86_64-x64-vc14-release:log.obj
 0001:000363d0       pj_log_3                   00000001400373d0 f   pjlib-x86_64-x64-vc14-release:log.obj
 0001:00036400       pj_log_4                   0000000140037400 f   pjlib-x86_64-x64-vc14-release:log.obj
 0001:00036430       pj_log_5                   0000000140037430 f   pjlib-x86_64-x64-vc14-release:log.obj
 0001:00036460       pj_log_get_color           0000000140037460 f   pjlib-x86_64-x64-vc14-release:log.obj
 0001:000364d0       pj_log_get_decor           00000001400374d0 f   pjlib-x86_64-x64-vc14-release:log.obj
 0001:000364e0       pj_log_get_level           00000001400374e0 f   pjlib-x86_64-x64-vc14-release:log.obj
 0001:000364f0       pj_log_init                00000001400374f0 f   pjlib-x86_64-x64-vc14-release:log.obj
 0001:00036560       pj_log_pop_indent          0000000140037560 f   pjlib-x86_64-x64-vc14-release:log.obj
 0001:00036590       pj_log_push_indent         0000000140037590 f   pjlib-x86_64-x64-vc14-release:log.obj
 0001:000365c0       pj_log_set_level           00000001400375c0 f   pjlib-x86_64-x64-vc14-release:log.obj
 0001:000365d0       pj_gethostname             00000001400375d0 f   pjlib-x86_64-x64-vc14-release:sock_bsd.obj
 0001:00036670       pj_htonl                   0000000140037670 f   pjlib-x86_64-x64-vc14-release:sock_bsd.obj
 0001:00036680       pj_htons                   0000000140037680 f   pjlib-x86_64-x64-vc14-release:sock_bsd.obj
 0001:00036690       pj_inet_aton               0000000140037690 f   pjlib-x86_64-x64-vc14-release:sock_bsd.obj
 0001:00036720       pj_inet_ntop               0000000140037720 f   pjlib-x86_64-x64-vc14-release:sock_bsd.obj
 0001:00036850       pj_inet_pton               0000000140037850 f   pjlib-x86_64-x64-vc14-release:sock_bsd.obj
 0001:00036980       pj_ntohl                   0000000140037980 f   pjlib-x86_64-x64-vc14-release:sock_bsd.obj
 0001:00036990       pj_ntohs                   0000000140037990 f   pjlib-x86_64-x64-vc14-release:sock_bsd.obj
 0001:000369a0       pj_sock_accept             00000001400379a0 f   pjlib-x86_64-x64-vc14-release:sock_bsd.obj
 0001:00036a40       pj_sock_bind               0000000140037a40 f   pjlib-x86_64-x64-vc14-release:sock_bsd.obj
 0001:00036af0       pj_sock_close              0000000140037af0 f   pjlib-x86_64-x64-vc14-release:sock_bsd.obj
 0001:00036b50       pj_sock_connect            0000000140037b50 f   pjlib-x86_64-x64-vc14-release:sock_bsd.obj
 0001:00036be0       pj_sock_getsockname        0000000140037be0 f   pjlib-x86_64-x64-vc14-release:sock_bsd.obj
 0001:00036c70       pj_sock_getsockopt         0000000140037c70 f   pjlib-x86_64-x64-vc14-release:sock_bsd.obj
 0001:00036d20       pj_sock_listen             0000000140037d20 f   pjlib-x86_64-x64-vc14-release:sock_bsd.obj
 0001:00036da0       pj_sock_recv               0000000140037da0 f   pjlib-x86_64-x64-vc14-release:sock_bsd.obj
 0001:00036e40       pj_sock_recvfrom           0000000140037e40 f   pjlib-x86_64-x64-vc14-release:sock_bsd.obj
 0001:00036ef0       pj_sock_send               0000000140037ef0 f   pjlib-x86_64-x64-vc14-release:sock_bsd.obj
 0001:00036f90       pj_sock_sendto             0000000140037f90 f   pjlib-x86_64-x64-vc14-release:sock_bsd.obj
 0001:00037040       pj_sock_setsockopt         0000000140038040 f   pjlib-x86_64-x64-vc14-release:sock_bsd.obj
 0001:000370f0       pj_sock_setsockopt_params  00000001400380f0 f   pjlib-x86_64-x64-vc14-release:sock_bsd.obj
 0001:00037230       pj_sock_socket             0000000140038230 f   pjlib-x86_64-x64-vc14-release:sock_bsd.obj
 0001:00037690       pj_grp_lock_acquire        0000000140038690 f   pjlib-x86_64-x64-vc14-release:lock.obj
 0001:000376a0       pj_grp_lock_add_handler    00000001400386a0 f   pjlib-x86_64-x64-vc14-release:lock.obj
 0001:00037720       pj_grp_lock_add_ref        0000000140038720 f   pjlib-x86_64-x64-vc14-release:lock.obj
 0001:00037740       pj_grp_lock_create         0000000140038740 f   pjlib-x86_64-x64-vc14-release:lock.obj
 0001:000378a0       pj_grp_lock_create_w_handler 00000001400388a0 f   pjlib-x86_64-x64-vc14-release:lock.obj
 0001:00037930       pj_grp_lock_dec_ref        0000000140038930 f   pjlib-x86_64-x64-vc14-release:lock.obj
 0001:00037970       pj_grp_lock_get_ref        0000000140038970 f   pjlib-x86_64-x64-vc14-release:lock.obj
 0001:00037980       pj_grp_lock_release        0000000140038980 f   pjlib-x86_64-x64-vc14-release:lock.obj
 0001:00037990       pj_grp_lock_tryacquire     0000000140038990 f   pjlib-x86_64-x64-vc14-release:lock.obj
 0001:000379a0       pj_lock_acquire            00000001400389a0 f   pjlib-x86_64-x64-vc14-release:lock.obj
 0001:000379c0       pj_lock_create_null_mutex  00000001400389c0 f   pjlib-x86_64-x64-vc14-release:lock.obj
 0001:000379e0       pj_lock_create_recursive_mutex 00000001400389e0 f   pjlib-x86_64-x64-vc14-release:lock.obj
 0001:000379f0       pj_lock_create_simple_mutex 00000001400389f0 f   pjlib-x86_64-x64-vc14-release:lock.obj
 0001:00037a00       pj_lock_destroy            0000000140038a00 f   pjlib-x86_64-x64-vc14-release:lock.obj
 0001:00037a20       pj_lock_release            0000000140038a20 f   pjlib-x86_64-x64-vc14-release:lock.obj
 0001:00037a40       pj_lock_tryacquire         0000000140038a40 f   pjlib-x86_64-x64-vc14-release:lock.obj
 0001:00037a60       pj_rand                    0000000140038a60 f   pjlib-x86_64-x64-vc14-release:rand.obj
 0001:00037aa0       pj_time_val_normalize      0000000140038aa0 f   pjlib-x86_64-x64-vc14-release:types.obj
 0001:00037e00       pj_timer_entry_init        0000000140038e00 f   pjlib-x86_64-x64-vc14-release:timer.obj
 0001:00037e20       pj_timer_entry_running     0000000140038e20 f   pjlib-x86_64-x64-vc14-release:timer.obj
 0001:00037e30       pj_timer_heap_cancel       0000000140038e30 f   pjlib-x86_64-x64-vc14-release:timer.obj
 0001:00037e40       pj_timer_heap_cancel_if_active 0000000140038e40 f   pjlib-x86_64-x64-vc14-release:timer.obj
 0001:00037e50       pj_timer_heap_create       0000000140038e50 f   pjlib-x86_64-x64-vc14-release:timer.obj
 0001:00037f70       pj_timer_heap_destroy      0000000140038f70 f   pjlib-x86_64-x64-vc14-release:timer.obj
 0001:00037fa0       pj_timer_heap_dump         0000000140038fa0 f   pjlib-x86_64-x64-vc14-release:timer.obj
 0001:00038150       pj_timer_heap_poll         0000000140039150 f   pjlib-x86_64-x64-vc14-release:timer.obj
 0001:00038370       pj_timer_heap_schedule_dbg 0000000140039370 f   pjlib-x86_64-x64-vc14-release:timer.obj
 0001:000383a0       pj_timer_heap_schedule_w_grp_lock_dbg 00000001400393a0 f   pjlib-x86_64-x64-vc14-release:timer.obj
 0001:000383e0       pj_timer_heap_set_lock     00000001400393e0 f   pjlib-x86_64-x64-vc14-release:timer.obj
 0001:00038430       pj_timer_heap_set_max_timed_out_per_poll 0000000140039430 f   pjlib-x86_64-x64-vc14-release:timer.obj
 0001:00038a30       pj_gettimeofday            0000000140039a30 f   pjlib-x86_64-x64-vc14-release:os_time_win32.obj
 0001:00038ad0       pj_time_decode             0000000140039ad0 f   pjlib-x86_64-x64-vc14-release:os_time_win32.obj
 0001:00038c70       ioqueue_dispatch_exception_event 0000000140039c70 f   pjlib-x86_64-x64-vc14-release:ioqueue_select.obj
 0001:00038dd0       ioqueue_dispatch_read_event 0000000140039dd0 f   pjlib-x86_64-x64-vc14-release:ioqueue_select.obj
 0001:00039060       ioqueue_dispatch_write_event 000000014003a060 f   pjlib-x86_64-x64-vc14-release:ioqueue_select.obj
 0001:00039470       pj_ioqueue_accept          000000014003a470 f   pjlib-x86_64-x64-vc14-release:ioqueue_select.obj
 0001:00039650       pj_ioqueue_connect         000000014003a650 f   pjlib-x86_64-x64-vc14-release:ioqueue_select.obj
 0001:00039790       pj_ioqueue_create          000000014003a790 f   pjlib-x86_64-x64-vc14-release:ioqueue_select.obj
 0001:00039990       pj_ioqueue_destroy         000000014003a990 f   pjlib-x86_64-x64-vc14-release:ioqueue_select.obj
 0001:00039a70       pj_ioqueue_get_user_data   000000014003aa70 f   pjlib-x86_64-x64-vc14-release:ioqueue_select.obj
 0001:00039a80       pj_ioqueue_is_pending      000000014003aa80 f   pjlib-x86_64-x64-vc14-release:ioqueue_select.obj
 0001:00039a90       pj_ioqueue_lock_key        000000014003aa90 f   pjlib-x86_64-x64-vc14-release:ioqueue_select.obj
 0001:00039ab0       pj_ioqueue_op_key_init     000000014003aab0 f   pjlib-x86_64-x64-vc14-release:ioqueue_select.obj
 0001:00039ac0       pj_ioqueue_poll            000000014003aac0 f   pjlib-x86_64-x64-vc14-release:ioqueue_select.obj
 0001:00039f60       pj_ioqueue_recv            000000014003af60 f   pjlib-x86_64-x64-vc14-release:ioqueue_select.obj
 0001:0003a110       pj_ioqueue_recvfrom        000000014003b110 f   pjlib-x86_64-x64-vc14-release:ioqueue_select.obj
 0001:0003a2f0       pj_ioqueue_register_sock2  000000014003b2f0 f   pjlib-x86_64-x64-vc14-release:ioqueue_select.obj
 0001:0003a460       pj_ioqueue_send            000000014003b460 f   pjlib-x86_64-x64-vc14-release:ioqueue_select.obj
 0001:0003a630       pj_ioqueue_sendto          000000014003b630 f   pjlib-x86_64-x64-vc14-release:ioqueue_select.obj
 0001:0003a850       pj_ioqueue_set_concurrency 000000014003b850 f   pjlib-x86_64-x64-vc14-release:ioqueue_select.obj
 0001:0003a870       pj_ioqueue_set_lock        000000014003b870 f   pjlib-x86_64-x64-vc14-release:ioqueue_select.obj
 0001:0003a8e0       pj_ioqueue_unlock_key      000000014003b8e0 f   pjlib-x86_64-x64-vc14-release:ioqueue_select.obj
 0001:0003a900       pj_ioqueue_unregister      000000014003b900 f   pjlib-x86_64-x64-vc14-release:ioqueue_select.obj
 0001:0003ab40       pj_exception_id_alloc      000000014003bb40 f   pjlib-x86_64-x64-vc14-release:except.obj
 0001:0003abb0       pj_exception_id_free       000000014003bbb0 f   pjlib-x86_64-x64-vc14-release:except.obj
 0001:0003abf0       pj_exception_id_name       000000014003bbf0 f   pjlib-x86_64-x64-vc14-release:except.obj
 0001:0003ac40       pj_pop_exception_handler_  000000014003bc40 f   pjlib-x86_64-x64-vc14-release:except.obj
 0001:0003ac80       pj_push_exception_handler_ 000000014003bc80 f   pjlib-x86_64-x64-vc14-release:except.obj
 0001:0003ace0       pj_throw_exception_        000000014003bce0 f   pjlib-x86_64-x64-vc14-release:except.obj
 0001:0003ada0       pj_get_timestamp           000000014003bda0 f   pjlib-x86_64-x64-vc14-release:os_timestamp_win32.obj
 0001:0003ae00       pj_get_timestamp_freq      000000014003be00 f   pjlib-x86_64-x64-vc14-release:os_timestamp_win32.obj
 0001:0003ae60       pj_hash_calc               000000014003be60 f   pjlib-x86_64-x64-vc14-release:hash.obj
 0001:0003af10       pj_hash_calc_tolower       000000014003bf10 f   pjlib-x86_64-x64-vc14-release:hash.obj
 0001:0003af90       pj_hash_count              000000014003bf90 f   pjlib-x86_64-x64-vc14-release:hash.obj
 0001:0003afa0       pj_hash_create             000000014003bfa0 f   pjlib-x86_64-x64-vc14-release:hash.obj
 0001:0003b010       pj_hash_first              000000014003c010 f   pjlib-x86_64-x64-vc14-release:hash.obj
 0001:0003b050       pj_hash_get                000000014003c050 f   pjlib-x86_64-x64-vc14-release:hash.obj
 0001:0003b170       pj_hash_get_lower          000000014003c170 f   pjlib-x86_64-x64-vc14-release:hash.obj
 0001:0003b2b0       pj_hash_next               000000014003c2b0 f   pjlib-x86_64-x64-vc14-release:hash.obj
 0001:0003b310       pj_hash_set                000000014003c310 f   pjlib-x86_64-x64-vc14-release:hash.obj
 0001:0003b4a0       pj_hash_set_lower          000000014003c4a0 f   pjlib-x86_64-x64-vc14-release:hash.obj
 0001:0003b650       pj_hash_set_np             000000014003c650 f   pjlib-x86_64-x64-vc14-release:hash.obj
 0001:0003b7c0       pj_hash_set_np_lower       000000014003c7c0 f   pjlib-x86_64-x64-vc14-release:hash.obj
 0001:0003b940       pj_hash_this               000000014003c940 f   pjlib-x86_64-x64-vc14-release:hash.obj
 0001:0003b970       pj_get_netos_error         000000014003c970 f   pjlib-x86_64-x64-vc14-release:os_error_win32.obj
 0001:0003b9a0       platform_strerror          000000014003c9a0 f   pjlib-x86_64-x64-vc14-release:os_error_win32.obj
 0001:0003bad0       pj_GUID_STRING_LENGTH      000000014003cad0 f   pjlib-x86_64-x64-vc14-release:guid_win32.obj
 0001:0003bae0       pj_generate_unique_string  000000014003cae0 f   pjlib-x86_64-x64-vc14-release:guid_win32.obj
 0001:0003bbb0       pj_create_unique_string    000000014003cbb0 f   pjlib-x86_64-x64-vc14-release:guid.obj
 0001:0003bbe0       pj_qos_get_params          000000014003cbe0 f   pjlib-x86_64-x64-vc14-release:sock_qos_common.obj
 0001:0003bc10       pj_sock_apply_qos          000000014003cc10 f   pjlib-x86_64-x64-vc14-release:sock_qos_common.obj
 0001:0003bd00       pj_sock_apply_qos2         000000014003cd00 f   pjlib-x86_64-x64-vc14-release:sock_qos_common.obj
 0001:0003c1f0       pj_activesock_cfg_default  000000014003d1f0 f   pjlib-x86_64-x64-vc14-release:activesock.obj
 0001:0003c220       pj_activesock_close        000000014003d220 f   pjlib-x86_64-x64-vc14-release:activesock.obj
 0001:0003c290       pj_activesock_create       000000014003d290 f   pjlib-x86_64-x64-vc14-release:activesock.obj
 0001:0003c480       pj_activesock_get_user_data 000000014003d480 f   pjlib-x86_64-x64-vc14-release:activesock.obj
 0001:0003c490       pj_activesock_send         000000014003d490 f   pjlib-x86_64-x64-vc14-release:activesock.obj
 0001:0003c590       pj_activesock_start_accept 000000014003d590 f   pjlib-x86_64-x64-vc14-release:activesock.obj
 0001:0003c6a0       pj_activesock_start_connect 000000014003d6a0 f   pjlib-x86_64-x64-vc14-release:activesock.obj
 0001:0003c6c0       pj_activesock_start_read2  000000014003d6c0 f   pjlib-x86_64-x64-vc14-release:activesock.obj
 0001:0003c870       pj_gettickcount            000000014003d870 f   pjlib-x86_64-x64-vc14-release:os_timestamp_common.obj
 0001:0003c930       pj_getaddrinfo             000000014003d930 f   pjlib-x86_64-x64-vc14-release:addr_resolv_sock.obj
 0001:0003cab0       pj_gethostbyname           000000014003dab0 f   pjlib-x86_64-x64-vc14-release:addr_resolv_sock.obj
 0001:0003cb70       pj_pool_create_on_buf      000000014003db70 f   pjlib-x86_64-x64-vc14-release:pool_buf.obj
 0001:0003d2b0       pj_enum_ip_interface       000000014003e2b0 f   pjlib-x86_64-x64-vc14-release:ip_helper_win32.obj
 0001:0003d4b0       pj_log_write               000000014003e4b0 f   pjlib-x86_64-x64-vc14-release:log_writer_stdout.obj
 0001:0003d530       PJ_FD_CLR                  000000014003e530 f   pjlib-x86_64-x64-vc14-release:sock_select.obj
 0001:0003d5e0       PJ_FD_COUNT                000000014003e5e0 f   pjlib-x86_64-x64-vc14-release:sock_select.obj
 0001:0003d5f0       PJ_FD_ISSET                000000014003e5f0 f   pjlib-x86_64-x64-vc14-release:sock_select.obj
 0001:0003d630       PJ_FD_SET                  000000014003e630 f   pjlib-x86_64-x64-vc14-release:sock_select.obj
 0001:0003d6c0       PJ_FD_ZERO                 000000014003e6c0 f   pjlib-x86_64-x64-vc14-release:sock_select.obj
 0001:0003d6f0       pj_sock_select             000000014003e6f0 f   pjlib-x86_64-x64-vc14-release:sock_select.obj
 0001:0003d790       pj_sock_set_qos_params     000000014003e790 f   pjlib-x86_64-x64-vc14-release:sock_qos_bsd.obj
 0001:0003d8c0       pj_sock_set_qos_type       000000014003e8c0 f   pjlib-x86_64-x64-vc14-release:sock_qos_bsd.obj
 0001:0003d8ee       __WSAFDIsSet               000000014003e8ee f   ws2_32:WS2_32.dll
 0001:0003d8f4       __GSHandlerCheck           000000014003e8f4 f   MSVCRT:_gshandler_.obj
 0001:0003d914       __GSHandlerCheckCommon     000000014003e914 f   MSVCRT:_gshandler_.obj
 0001:0003d980       __security_check_cookie    000000014003e980 f   MSVCRT:_amdsecgs_.obj
 0001:0003dc04       mainCRTStartup             000000014003ec04 f   MSVCRT:exe_main.obj
 0001:0003dc18       __raise_securityfailure    000000014003ec18 f   MSVCRT:gs_report.obj
 0001:0003dc4c       __report_gsfailure         000000014003ec4c f   MSVCRT:gs_report.obj
 0001:0003dd20       __report_rangecheckfailure 000000014003ed20 f   MSVCRT:gs_report.obj
 0001:0003dd34       __report_securityfailure   000000014003ed34 f   MSVCRT:gs_report.obj
 0001:0003deb4       __isa_available_init       000000014003eeb4 f   MSVCRT:_cpu_disp_.obj
 0001:0003e090       _alloca_probe              000000014003f090 f   MSVCRT:_chkstk_.obj
 0001:0003e090       __chkstk                   000000014003f090 f   MSVCRT:_chkstk_.obj
 0001:0003e0e4       __scrt_acquire_startup_lock 000000014003f0e4 f   MSVCRT:utility.obj
 0001:0003e120       __scrt_initialize_crt      000000014003f120 f   MSVCRT:utility.obj
 0001:0003e16c       __scrt_initialize_onexit_tables 000000014003f16c f   MSVCRT:utility.obj
 0001:0003e238       __scrt_is_nonwritable_in_current_image 000000014003f238 f   MSVCRT:utility.obj
 0001:0003e2d4       __scrt_release_startup_lock 000000014003f2d4 f   MSVCRT:utility.obj
 0001:0003e2f8       __scrt_uninitialize_crt    000000014003f2f8 f   MSVCRT:utility.obj
 0001:0003e324       _onexit                    000000014003f324 f   MSVCRT:utility.obj
 0001:0003e374       atexit                     000000014003f374 f   MSVCRT:utility.obj
 0001:0003e38c       __security_init_cookie     000000014003f38c f   MSVCRT:gs_support.obj
 0001:0003e438       _get_startup_argv_mode     000000014003f438 f   MSVCRT:argv_mode.obj
 0001:0003e440       _get_startup_file_mode     000000014003f440 f   MSVCRT:file_mode.obj
 0001:0003e448       ?__scrt_initialize_type_info@@YAXXZ 000000014003f448 f   MSVCRT:tncleanup.obj
 0001:0003e458       _guard_check_icall_nop     000000014003f458 f   MSVCRT:guard_support.obj
 0001:0003e458       _initialize_denormal_control 000000014003f458 f   MSVCRT:denormal_control.obj
 0001:0003e458       _initialize_invalid_parameter_handler 000000014003f458 f   MSVCRT:invalid_parameter_handler.obj
 0001:0003e45c       __local_stdio_scanf_options 000000014003f45c f i MSVCRT:default_local_stdio_options.obj
 0001:0003e464       __scrt_initialize_default_local_stdio_options 000000014003f464 f   MSVCRT:default_local_stdio_options.obj
 0001:0003e480       __scrt_is_user_matherr_present 000000014003f480 f   MSVCRT:matherr_detection.obj
 0001:0003e48c       __scrt_get_dyn_tls_init_callback 000000014003f48c f   MSVCRT:dyn_tls_init.obj
 0001:0003e494       __scrt_get_dyn_tls_dtor_callback 000000014003f494 f   MSVCRT:dyn_tls_dtor.obj
 0001:0003e49c       __scrt_fastfail            000000014003f49c f   MSVCRT:utility_desktop.obj
 0001:0003e5e4       __scrt_is_managed_app      000000014003f5e4 f   MSVCRT:utility_desktop.obj
 0001:0003e638       __scrt_set_unhandled_exception_filter 000000014003f638 f   MSVCRT:utility_desktop.obj
 0001:0003e648       __scrt_unhandled_exception_filter 000000014003f648 f   MSVCRT:utility_desktop.obj
 0001:0003e680       _RTC_Initialize            000000014003f680 f   MSVCRT:_initsect_.obj
 0001:0003e6cc       _RTC_Terminate             000000014003f6cc f   MSVCRT:_initsect_.obj
 0001:0003e718       _guard_check_icall         000000014003f718 f i MSVCRT:checkcfg.obj
 0001:0003e720       __scrt_is_ucrt_dll_in_use  000000014003f720 f   MSVCRT:ucrt_detection.obj
 0001:0003e730       IsProcessorFeaturePresent  000000014003f730 f   kernel32:KERNEL32.dll
 0001:0003e736       memset                     000000014003f736 f   vcruntime:VCRUNTIME140.dll
 0001:0003e73c       memcpy                     000000014003f73c f   vcruntime:VCRUNTIME140.dll
 0001:0003e742       memcmp                     000000014003f742 f   vcruntime:VCRUNTIME140.dll
 0001:0003e748       longjmp                    000000014003f748 f   vcruntime:VCRUNTIME140.dll
 0001:0003e74e       __C_specific_handler       000000014003f74e f   vcruntime:VCRUNTIME140.dll
 0001:0003e754       __intrinsic_setjmp         000000014003f754 f   vcruntime:VCRUNTIME140.dll
 0001:0003e754       _setjmp                    000000014003f754 f   vcruntime:VCRUNTIME140.dll
 0001:0003e75a       fmod                       000000014003f75a f   ucrt:api-ms-win-crt-math-l1-1-0.dll
 0001:0003e760       _seh_filter_exe            000000014003f760 f   ucrt:api-ms-win-crt-runtime-l1-1-0.dll
 0001:0003e766       _set_app_type              000000014003f766 f   ucrt:api-ms-win-crt-runtime-l1-1-0.dll
 0001:0003e76c       __setusermatherr           000000014003f76c f   ucrt:api-ms-win-crt-math-l1-1-0.dll
 0001:0003e772       _configure_narrow_argv     000000014003f772 f   ucrt:api-ms-win-crt-runtime-l1-1-0.dll
 0001:0003e778       _initialize_narrow_environment 000000014003f778 f   ucrt:api-ms-win-crt-runtime-l1-1-0.dll
 0001:0003e77e       _get_initial_narrow_environment 000000014003f77e f   ucrt:api-ms-win-crt-runtime-l1-1-0.dll
 0001:0003e784       _initterm                  000000014003f784 f   ucrt:api-ms-win-crt-runtime-l1-1-0.dll
 0001:0003e78a       _initterm_e                000000014003f78a f   ucrt:api-ms-win-crt-runtime-l1-1-0.dll
 0001:0003e790       exit                       000000014003f790 f   ucrt:api-ms-win-crt-runtime-l1-1-0.dll
 0001:0003e796       _exit                      000000014003f796 f   ucrt:api-ms-win-crt-runtime-l1-1-0.dll
 0001:0003e79c       _set_fmode                 000000014003f79c f   ucrt:api-ms-win-crt-stdio-l1-1-0.dll
 0001:0003e7a2       __p___argc                 000000014003f7a2 f   ucrt:api-ms-win-crt-runtime-l1-1-0.dll
 0001:0003e7a8       __p___argv                 000000014003f7a8 f   ucrt:api-ms-win-crt-runtime-l1-1-0.dll
 0001:0003e7ae       _cexit                     000000014003f7ae f   ucrt:api-ms-win-crt-runtime-l1-1-0.dll
 0001:0003e7b4       _c_exit                    000000014003f7b4 f   ucrt:api-ms-win-crt-runtime-l1-1-0.dll
 0001:0003e7ba       _register_thread_local_exe_atexit_callback 000000014003f7ba f   ucrt:api-ms-win-crt-runtime-l1-1-0.dll
 0001:0003e7c0       _configthreadlocale        000000014003f7c0 f   ucrt:api-ms-win-crt-locale-l1-1-0.dll
 0001:0003e7c6       _set_new_mode              000000014003f7c6 f   ucrt:api-ms-win-crt-heap-l1-1-0.dll
 0001:0003e7cc       __p__commode               000000014003f7cc f   ucrt:api-ms-win-crt-stdio-l1-1-0.dll
 0001:0003e7d2       _initialize_onexit_table   000000014003f7d2 f   ucrt:api-ms-win-crt-runtime-l1-1-0.dll
 0001:0003e7d8       _register_onexit_function  000000014003f7d8 f   ucrt:api-ms-win-crt-runtime-l1-1-0.dll
 0001:0003e7de       _crt_atexit                000000014003f7de f   ucrt:api-ms-win-crt-runtime-l1-1-0.dll
 0001:0003e7e4       terminate                  000000014003f7e4 f   ucrt:api-ms-win-crt-runtime-l1-1-0.dll
 0001:0003e7ec       __acrt_initialize          000000014003f7ec f   MSVCRT:ucrt_stubs.obj
 0001:0003e7ec       __vcrt_uninitialize        000000014003f7ec f   MSVCRT:ucrt_stubs.obj
 0001:0003e7ec       __vcrt_initialize          000000014003f7ec f   MSVCRT:ucrt_stubs.obj
 0001:0003e7ec       __acrt_uninitialize        000000014003f7ec f   MSVCRT:ucrt_stubs.obj
 0001:0003e7ec       _should_initialize_environment 000000014003f7ec f   MSVCRT:env_mode.obj
 0001:0003e7ec       __scrt_stub_for_acrt_uninitialize 000000014003f7ec f   MSVCRT:ucrt_stubs.obj
 0001:0003e7ec       __scrt_stub_for_acrt_initialize 000000014003f7ec f   MSVCRT:ucrt_stubs.obj
 0001:0003e800       _guard_dispatch_icall_nop  000000014003f800 f   MSVCRT:_guard_dispatch_.obj
 0002:00000000       __imp_RtlVirtualUnwind     0000000140040000     kernel32:KERNEL32.dll
 0002:00000008       __imp_GetModuleHandleW     0000000140040008     kernel32:KERNEL32.dll
 0002:00000010       __imp_IsDebuggerPresent    0000000140040010     kernel32:KERNEL32.dll
 0002:00000018       __imp_InitializeSListHead  0000000140040018     kernel32:KERNEL32.dll
 0002:00000020       __imp_GetSystemTimeAsFileTime 0000000140040020     kernel32:KERNEL32.dll
 0002:00000028       __imp_IsProcessorFeaturePresent 0000000140040028     kernel32:KERNEL32.dll
 0002:00000030       __imp_TerminateProcess     0000000140040030     kernel32:KERNEL32.dll
 0002:00000038       __imp_GetCurrentProcess    0000000140040038     kernel32:KERNEL32.dll
 0002:00000040       __imp_SetUnhandledExceptionFilter 0000000140040040     kernel32:KERNEL32.dll
 0002:00000048       __imp_UnhandledExceptionFilter 0000000140040048     kernel32:KERNEL32.dll
 0002:00000050       __imp_RtlLookupFunctionEntry 0000000140040050     kernel32:KERNEL32.dll
 0002:00000058       __imp_RtlCaptureContext    0000000140040058     kernel32:KERNEL32.dll
 0002:00000060       __imp_LoadLibraryA         0000000140040060     kernel32:KERNEL32.dll
 0002:00000068       __imp_GetProcAddress       0000000140040068     kernel32:KERNEL32.dll
 0002:00000070       __imp_FreeLibrary          0000000140040070     kernel32:KERNEL32.dll
 0002:00000078       __imp_FormatMessageA       0000000140040078     kernel32:KERNEL32.dll
 0002:00000080       __imp_QueryPerformanceFrequency 0000000140040080     kernel32:KERNEL32.dll
 0002:00000088       __imp_QueryPerformanceCounter 0000000140040088     kernel32:KERNEL32.dll
 0002:00000090       __imp_SystemTimeToFileTime 0000000140040090     kernel32:KERNEL32.dll
 0002:00000098       __imp_FileTimeToSystemTime 0000000140040098     kernel32:KERNEL32.dll
 0002:000000a0       __imp_GetLocalTime         00000001400400a0     kernel32:KERNEL32.dll
 0002:000000a8       __imp_SetConsoleTextAttribute 00000001400400a8     kernel32:KERNEL32.dll
 0002:000000b0       __imp_CreateSemaphoreA     00000001400400b0     kernel32:KERNEL32.dll
 0002:000000b8       __imp_TlsFree              00000001400400b8     kernel32:KERNEL32.dll
 0002:000000c0       __imp_TlsSetValue          00000001400400c0     kernel32:KERNEL32.dll
 0002:000000c8       __imp_TlsGetValue          00000001400400c8     kernel32:KERNEL32.dll
 0002:000000d0       __imp_TlsAlloc             00000001400400d0     kernel32:KERNEL32.dll
 0002:000000d8       __imp_GetCurrentThreadId   00000001400400d8     kernel32:KERNEL32.dll
 0002:000000e0       __imp_GetStdHandle         00000001400400e0     kernel32:KERNEL32.dll
 0002:000000e8       __imp_CloseHandle          00000001400400e8     kernel32:KERNEL32.dll
 0002:000000f0       __imp_GetLastError         00000001400400f0     kernel32:KERNEL32.dll
 0002:000000f8       __imp_InitializeCriticalSection 00000001400400f8     kernel32:KERNEL32.dll
 0002:00000100       __imp_EnterCriticalSection 0000000140040100     kernel32:KERNEL32.dll
 0002:00000108       __imp_LeaveCriticalSection 0000000140040108     kernel32:KERNEL32.dll
 0002:00000110       __imp_TryEnterCriticalSection 0000000140040110     kernel32:KERNEL32.dll
 0002:00000118       __imp_DeleteCriticalSection 0000000140040118     kernel32:KERNEL32.dll
 0002:00000120       __imp_ReleaseSemaphore     0000000140040120     kernel32:KERNEL32.dll
 0002:00000128       __imp_WaitForSingleObject  0000000140040128     kernel32:KERNEL32.dll
 0002:00000130       __imp_Sleep                0000000140040130     kernel32:KERNEL32.dll
 0002:00000138       __imp_GetCurrentProcessId  0000000140040138     kernel32:KERNEL32.dll
 0002:00000140       __imp_CreateThread         0000000140040140     kernel32:KERNEL32.dll
 0002:00000148       __imp_GetCurrentThread     0000000140040148     kernel32:KERNEL32.dll
 0002:00000150       \177KERNEL32_NULL_THUNK_DATA 0000000140040150     kernel32:KERNEL32.dll
 0002:00000158       __imp___intrinsic_setjmp   0000000140040158     vcruntime:VCRUNTIME140.dll
 0002:00000160       __imp_longjmp              0000000140040160     vcruntime:VCRUNTIME140.dll
 0002:00000168       __imp_strchr               0000000140040168     vcruntime:VCRUNTIME140.dll
 0002:00000170       __imp_memmove              0000000140040170     vcruntime:VCRUNTIME140.dll
 0002:00000178       __imp_memcmp               0000000140040178     vcruntime:VCRUNTIME140.dll
 0002:00000180       __imp_memchr               0000000140040180     vcruntime:VCRUNTIME140.dll
 0002:00000188       __imp_memcpy               0000000140040188     vcruntime:VCRUNTIME140.dll
 0002:00000190       __imp_memset               0000000140040190     vcruntime:VCRUNTIME140.dll
 0002:00000198       __imp___C_specific_handler 0000000140040198     vcruntime:VCRUNTIME140.dll
 0002:000001a0       \177VCRUNTIME140_NULL_THUNK_DATA 00000001400401a0     vcruntime:VCRUNTIME140.dll
 0002:000001a8       __imp_setsockopt           00000001400401a8     ws2_32:WS2_32.dll
 0002:000001b0       __imp_sendto               00000001400401b0     ws2_32:WS2_32.dll
 0002:000001b8       __imp_send                 00000001400401b8     ws2_32:WS2_32.dll
 0002:000001c0       __imp_recvfrom             00000001400401c0     ws2_32:WS2_32.dll
 0002:000001c8       __imp_recv                 00000001400401c8     ws2_32:WS2_32.dll
 0002:000001d0       __imp_ntohs                00000001400401d0     ws2_32:WS2_32.dll
 0002:000001d8       __imp_ntohl                00000001400401d8     ws2_32:WS2_32.dll
 0002:000001e0       __imp_listen               00000001400401e0     ws2_32:WS2_32.dll
 0002:000001e8       __imp_inet_addr            00000001400401e8     ws2_32:WS2_32.dll
 0002:000001f0       __imp_gethostname          00000001400401f0     ws2_32:WS2_32.dll
 0002:000001f8       __imp_htonl                00000001400401f8     ws2_32:WS2_32.dll
 0002:00000200       __imp_WSAIoctl             0000000140040200     ws2_32:WS2_32.dll
 0002:00000208       __imp_getsockopt           0000000140040208     ws2_32:WS2_32.dll
 0002:00000210       __imp_getsockname          0000000140040210     ws2_32:WS2_32.dll
 0002:00000218       __imp_connect              0000000140040218     ws2_32:WS2_32.dll
 0002:00000220       __imp_closesocket          0000000140040220     ws2_32:WS2_32.dll
 0002:00000228       __imp_bind                 0000000140040228     ws2_32:WS2_32.dll
 0002:00000230       __imp_accept               0000000140040230     ws2_32:WS2_32.dll
 0002:00000238       __imp_WSAGetLastError      0000000140040238     ws2_32:WS2_32.dll
 0002:00000240       __imp_WSAStartup           0000000140040240     ws2_32:WS2_32.dll
 0002:00000248       __imp_WSASocketA           0000000140040248     ws2_32:WS2_32.dll
 0002:00000250       __imp_WSAAddressToStringA  0000000140040250     ws2_32:WS2_32.dll
 0002:00000258       __imp_WSAStringToAddressA  0000000140040258     ws2_32:WS2_32.dll
 0002:00000260       __imp_ioctlsocket          0000000140040260     ws2_32:WS2_32.dll
 0002:00000268       __imp_gethostbyname        0000000140040268     ws2_32:WS2_32.dll
 0002:00000270       __imp___WSAFDIsSet         0000000140040270     ws2_32:WS2_32.dll
 0002:00000278       __imp_select               0000000140040278     ws2_32:WS2_32.dll
 0002:00000280       __imp_htons                0000000140040280     ws2_32:WS2_32.dll
 0002:00000288       \177WS2_32_NULL_THUNK_DATA 0000000140040288     ws2_32:WS2_32.dll
 0002:00000290       __imp_atoi                 0000000140040290     ucrt:api-ms-win-crt-convert-l1-1-0.dll
 0002:00000298       __imp_strtol               0000000140040298     ucrt:api-ms-win-crt-convert-l1-1-0.dll
 0002:000002a0       \177api-ms-win-crt-convert-l1-1-0_NULL_THUNK_DATA 00000001400402a0     ucrt:api-ms-win-crt-convert-l1-1-0.dll
 0002:000002a8       __imp__set_new_mode        00000001400402a8     ucrt:api-ms-win-crt-heap-l1-1-0.dll
 0002:000002b0       __imp_malloc               00000001400402b0     ucrt:api-ms-win-crt-heap-l1-1-0.dll
 0002:000002b8       __imp_free                 00000001400402b8     ucrt:api-ms-win-crt-heap-l1-1-0.dll
 0002:000002c0       \177api-ms-win-crt-heap-l1-1-0_NULL_THUNK_DATA 00000001400402c0     ucrt:api-ms-win-crt-heap-l1-1-0.dll
 0002:000002c8       __imp__configthreadlocale  00000001400402c8     ucrt:api-ms-win-crt-locale-l1-1-0.dll
 0002:000002d0       \177api-ms-win-crt-locale-l1-1-0_NULL_THUNK_DATA 00000001400402d0     ucrt:api-ms-win-crt-locale-l1-1-0.dll
 0002:000002d8       __imp___setusermatherr     00000001400402d8     ucrt:api-ms-win-crt-math-l1-1-0.dll
 0002:000002e0       __imp_fmod                 00000001400402e0     ucrt:api-ms-win-crt-math-l1-1-0.dll
 0002:000002e8       \177api-ms-win-crt-math-l1-1-0_NULL_THUNK_DATA 00000001400402e8     ucrt:api-ms-win-crt-math-l1-1-0.dll
 0002:000002f0       __imp__crt_atexit          00000001400402f0     ucrt:api-ms-win-crt-runtime-l1-1-0.dll
 0002:000002f8       __imp_terminate            00000001400402f8     ucrt:api-ms-win-crt-runtime-l1-1-0.dll
 0002:00000300       __imp__register_onexit_function 0000000140040300     ucrt:api-ms-win-crt-runtime-l1-1-0.dll
 0002:00000308       __imp__initialize_onexit_table 0000000140040308     ucrt:api-ms-win-crt-runtime-l1-1-0.dll
 0002:00000310       __imp__c_exit              0000000140040310     ucrt:api-ms-win-crt-runtime-l1-1-0.dll
 0002:00000318       __imp__cexit               0000000140040318     ucrt:api-ms-win-crt-runtime-l1-1-0.dll
 0002:00000320       __imp___p___argv           0000000140040320     ucrt:api-ms-win-crt-runtime-l1-1-0.dll
 0002:00000328       __imp__seh_filter_exe      0000000140040328     ucrt:api-ms-win-crt-runtime-l1-1-0.dll
 0002:00000330       __imp__set_app_type        0000000140040330     ucrt:api-ms-win-crt-runtime-l1-1-0.dll
 0002:00000338       __imp__initterm_e          0000000140040338     ucrt:api-ms-win-crt-runtime-l1-1-0.dll
 0002:00000340       __imp__configure_narrow_argv 0000000140040340     ucrt:api-ms-win-crt-runtime-l1-1-0.dll
 0002:00000348       __imp__initialize_narrow_environment 0000000140040348     ucrt:api-ms-win-crt-runtime-l1-1-0.dll
 0002:00000350       __imp__get_initial_narrow_environment 0000000140040350     ucrt:api-ms-win-crt-runtime-l1-1-0.dll
 0002:00000358       __imp__initterm            0000000140040358     ucrt:api-ms-win-crt-runtime-l1-1-0.dll
 0002:00000360       __imp___p___argc           0000000140040360     ucrt:api-ms-win-crt-runtime-l1-1-0.dll
 0002:00000368       __imp_exit                 0000000140040368     ucrt:api-ms-win-crt-runtime-l1-1-0.dll
 0002:00000370       __imp__exit                0000000140040370     ucrt:api-ms-win-crt-runtime-l1-1-0.dll
 0002:00000378       __imp__register_thread_local_exe_atexit_callback 0000000140040378     ucrt:api-ms-win-crt-runtime-l1-1-0.dll
 0002:00000380       \177api-ms-win-crt-runtime-l1-1-0_NULL_THUNK_DATA 0000000140040380     ucrt:api-ms-win-crt-runtime-l1-1-0.dll
 0002:00000388       __imp___stdio_common_vsprintf 0000000140040388     ucrt:api-ms-win-crt-stdio-l1-1-0.dll
 0002:00000390       __imp___stdio_common_vfprintf 0000000140040390     ucrt:api-ms-win-crt-stdio-l1-1-0.dll
 0002:00000398       __imp__set_fmode           0000000140040398     ucrt:api-ms-win-crt-stdio-l1-1-0.dll
 0002:000003a0       __imp_puts                 00000001400403a0     ucrt:api-ms-win-crt-stdio-l1-1-0.dll
 0002:000003a8       __imp_fgets                00000001400403a8     ucrt:api-ms-win-crt-stdio-l1-1-0.dll
 0002:000003b0       __imp___p__commode         00000001400403b0     ucrt:api-ms-win-crt-stdio-l1-1-0.dll
 0002:000003b8       __imp___acrt_iob_func      00000001400403b8     ucrt:api-ms-win-crt-stdio-l1-1-0.dll
 0002:000003c0       \177api-ms-win-crt-stdio-l1-1-0_NULL_THUNK_DATA 00000001400403c0     ucrt:api-ms-win-crt-stdio-l1-1-0.dll
 0002:000003c8       __imp_isxdigit             00000001400403c8     ucrt:api-ms-win-crt-string-l1-1-0.dll
 0002:000003d0       __imp_strncmp              00000001400403d0     ucrt:api-ms-win-crt-string-l1-1-0.dll
 0002:000003d8       __imp_isspace              00000001400403d8     ucrt:api-ms-win-crt-string-l1-1-0.dll
 0002:000003e0       __imp__strnicmp            00000001400403e0     ucrt:api-ms-win-crt-string-l1-1-0.dll
 0002:000003e8       __imp_tolower              00000001400403e8     ucrt:api-ms-win-crt-string-l1-1-0.dll
 0002:000003f0       __imp_toupper              00000001400403f0     ucrt:api-ms-win-crt-string-l1-1-0.dll
 0002:000003f8       __imp_strncpy              00000001400403f8     ucrt:api-ms-win-crt-string-l1-1-0.dll
 0002:00000400       __imp_isdigit              0000000140040400     ucrt:api-ms-win-crt-string-l1-1-0.dll
 0002:00000408       \177api-ms-win-crt-string-l1-1-0_NULL_THUNK_DATA 0000000140040408     ucrt:api-ms-win-crt-string-l1-1-0.dll
 0002:00000410       __imp_rand                 0000000140040410     ucrt:api-ms-win-crt-utility-l1-1-0.dll
 0002:00000418       \177api-ms-win-crt-utility-l1-1-0_NULL_THUNK_DATA 0000000140040418     ucrt:api-ms-win-crt-utility-l1-1-0.dll
 0002:00000420       __imp_CoCreateGuid         0000000140040420     ole32:ole32.dll
 0002:00000428       \177ole32_NULL_THUNK_DATA  0000000140040428     ole32:ole32.dll
 0002:00000430       __guard_check_icall_fptr   0000000140040430     MSVCRT:guard_support.obj
 0002:00000438       __guard_dispatch_icall_fptr 0000000140040438     MSVCRT:guard_support.obj
 0002:00000440       __xc_a                     0000000140040440     MSVCRT:initializers.obj
 0002:00000450       __xc_z                     0000000140040450     MSVCRT:initializers.obj
 0002:00000458       __xi_a                     0000000140040458     MSVCRT:initializers.obj
 0002:00000470       __xi_z                     0000000140040470     MSVCRT:initializers.obj
 0002:00000478       __xp_a                     0000000140040478     MSVCRT:initializers.obj
 0002:00000480       __xp_z                     0000000140040480     MSVCRT:initializers.obj
 0002:00000488       __xt_a                     0000000140040488     MSVCRT:initializers.obj
 0002:00000490       __xt_z                     0000000140040490     MSVCRT:initializers.obj
 0002:000004a0       ??_C@_05MMFAAGKE@early?$AA@ 00000001400404a0     pjsip-ua-x86_64-x64-vc14-release:sip_inv.obj
 0002:000004a8       ??_C@_05FPBGKCKL@final?$AA@ 00000001400404a8     pjsip-ua-x86_64-x64-vc14-release:sip_inv.obj
 0002:000004b0       ??_C@_0FN@JNKNAMO@Received?5?$CFs?5response?5after?5SDP?5n@ 00000001400404b0     pjsip-ua-x86_64-x64-vc14-release:sip_inv.obj
 0002:00000510       ??_C@_0EA@DMMNFDGN@Error?5updating?5local?5offer?5for?5f@ 0000000140040510     pjsip-ua-x86_64-x64-vc14-release:sip_inv.obj
 0002:00000550       ??_C@_0CO@JFCENHLK@SDP?5negotiation?5done?0?5message?5bo@ 0000000140040550     pjsip-ua-x86_64-x64-vc14-release:sip_inv.obj
 0002:00000580       ??_C@_0BI@BGFFELKE@Error?5parsing?5SDP?5in?5?$CFs?$AA@ 0000000140040580     pjsip-ua-x86_64-x64-vc14-release:sip_inv.obj
 0002:00000598       ??_C@_0BE@EPLINLEA@Got?5SDP?5offer?5in?5?$CFs?$AA@ 0000000140040598     pjsip-ua-x86_64-x64-vc14-release:sip_inv.obj
 0002:000005b0       ??_C@_0CA@NKIPLGEL@Error?5processing?5SDP?5offer?5in?5?$CF?$AA@ 00000001400405b0     pjsip-ua-x86_64-x64-vc14-release:sip_inv.obj
 0002:000005d0       ??_C@_0L@BLDGPIGK@mod?9invite?$AA@ 00000001400405d0     pjsip-ua-x86_64-x64-vc14-release:sip_inv.obj
 0002:000005e0       ??_C@_0EG@MIAPKNNJ@Ignoring?5on_rx_offer?$CI?$CJ?5status?5be@ 00000001400405e0     pjsip-ua-x86_64-x64-vc14-release:sip_inv.obj
 0002:00000628       ??_C@_0BF@NJIJAPGF@Got?5SDP?5answer?5in?5?$CFs?$AA@ 0000000140040628     pjsip-ua-x86_64-x64-vc14-release:sip_inv.obj
 0002:00000640       ??_C@_0CC@MICCHKNP@Error?5processing?5SDP?5answer?5in?5?$CF@ 0000000140040640     pjsip-ua-x86_64-x64-vc14-release:sip_inv.obj
 0002:00000668       ??_C@_0CK@CNMHAOHC@Ignored?5SDP?5in?5?$CFs?3?5negotiator?5st@ 0000000140040668     pjsip-ua-x86_64-x64-vc14-release:sip_inv.obj
 0002:00000694       ??_C@_06DBKGGLMH@INVITE?$AA@ 0000000140040694     pjsip-ua-x86_64-x64-vc14-release:sip_inv.obj
 0002:0000069c       ??_C@_03JMECLKOM@ACK?$AA@  000000014004069c     pjsip-ua-x86_64-x64-vc14-release:sip_inv.obj
 0002:000006a0       ??_C@_03BMFBOCK@BYE?$AA@   00000001400406a0     pjsip-ua-x86_64-x64-vc14-release:sip_inv.obj
 0002:000006a4       ??_C@_06JHILMIHF@CANCEL?$AA@ 00000001400406a4     pjsip-ua-x86_64-x64-vc14-release:sip_inv.obj
 0002:000006b0       ??_C@_0BA@MJOOLNNM@application?1sdp?$AA@ 00000001400406b0     pjsip-ua-x86_64-x64-vc14-release:sip_inv.obj
 0002:000006c0       ??_C@_0CH@BBKLGGDE@Another?5INVITE?5transaction?5in?5pr@ 00000001400406c0     pjsip-ua-x86_64-x64-vc14-release:sip_inv.obj
 0002:000006e8       ??_C@_0BM@KEOGGKDD@on_rx_reinvite?$CI?$CJ?5returns?5?$CFd?$AA@ 00000001400406e8     pjsip-ua-x86_64-x64-vc14-release:sip_inv.obj
 0002:00000708       ??_C@_0BH@GJLJMANH@SDP?5negotiation?5failed?$AA@ 0000000140040708     pjsip-ua-x86_64-x64-vc14-release:sip_inv.obj
 0002:00000720       ??_C@_0BE@OEKCNCCE@Sending?5pending?5BYE?$AA@ 0000000140040720     pjsip-ua-x86_64-x64-vc14-release:sip_inv.obj
 0002:00000738       ??_C@_0BL@KNCDOFEH@Failed?5sending?5pending?5BYE?$AA@ 0000000140040738     pjsip-ua-x86_64-x64-vc14-release:sip_inv.obj
 0002:00000758       ??_C@_0BJ@DIELNPDA@Received?5?$CFs?0?5sending?5ACK?$AA@ 0000000140040758     pjsip-ua-x86_64-x64-vc14-release:sip_inv.obj
 0002:00000778       ??_C@_0CM@GCDEGPO@Received?5?$CFs?0?5notifying?5applicati@ 0000000140040778     pjsip-ua-x86_64-x64-vc14-release:sip_inv.obj
 0002:000007a8       ??_C@_09LDKIKNFD@sip_inv?4c?$AA@ 00000001400407a8     pjsip-ua-x86_64-x64-vc14-release:sip_inv.obj
 0002:000007b4       ??_C@_04JBGCGIBB@sips?$AA@ 00000001400407b4     pjsip-ua-x86_64-x64-vc14-release:sip_inv.obj
 0002:000007bc       ??_C@_03MPAIKGMI@sip?$AA@  00000001400407bc     pjsip-ua-x86_64-x64-vc14-release:sip_inv.obj
 0002:000007c0       ??_C@_03HPDJAPFJ@tls?$AA@  00000001400407c0     pjsip-ua-x86_64-x64-vc14-release:sip_inv.obj
 0002:000007c8       ??_C@_0O@BCIKELEF@SIPS?5Required?$AA@ 00000001400407c8     pjsip-ua-x86_64-x64-vc14-release:sip_inv.obj
 0002:000007d8       ??_C@_0DG@BKONCIHK@Ignored?5message?5body?5in?5?$CFs?5as?5no@ 00000001400407d8     pjsip-ua-x86_64-x64-vc14-release:sip_inv.obj
 0002:00000810       ??_C@_0FL@EKGBDOF@Secure?5dialog?5requires?5SIPS?5sche@ 0000000140040810     pjsip-ua-x86_64-x64-vc14-release:sip_inv.obj
 0002:00000870       ??_C@_0FH@KHNGIOMA@Secure?5dialog?5requires?5SIPS?5sche@ 0000000140040870     pjsip-ua-x86_64-x64-vc14-release:sip_inv.obj
 0002:000008e0       ??_C@_06HHJABCJL@UPDATE?$AA@ 00000001400408e0     pjsip-ua-x86_64-x64-vc14-release:sip_inv.obj
 0002:000008e8       ??_C@_04HIBGFPH@NULL?$AA@  00000001400408e8     pjsip-ua-x86_64-x64-vc14-release:sip_inv.obj
 0002:000008f0       ??_C@_07BJAKIKLF@CALLING?$AA@ 00000001400408f0     pjsip-ua-x86_64-x64-vc14-release:sip_inv.obj
 0002:000008f8       ??_C@_08FPHOKLMI@INCOMING?$AA@ 00000001400408f8     pjsip-ua-x86_64-x64-vc14-release:sip_inv.obj
 0002:00000904       ??_C@_05HMGOBOK@EARLY?$AA@ 0000000140040904     pjsip-ua-x86_64-x64-vc14-release:sip_inv.obj
 0002:00000910       ??_C@_0L@OPGIEADC@CONNECTING?$AA@ 0000000140040910     pjsip-ua-x86_64-x64-vc14-release:sip_inv.obj
 0002:00000920       ??_C@_09JCKBPFKF@CONFIRMED?$AA@ 0000000140040920     pjsip-ua-x86_64-x64-vc14-release:sip_inv.obj
 0002:00000930       ??_C@_0L@GKFIMDLD@DISCONNCTD?$AA@ 0000000140040930     pjsip-ua-x86_64-x64-vc14-release:sip_inv.obj
 0002:00000940       ??_C@_0L@ONMJOFAN@TERMINATED?$AA@ 0000000140040940     pjsip-ua-x86_64-x64-vc14-release:sip_inv.obj
 0002:00000950       ??_C@_0DA@CNKPLCJK@SDP?5offer?1answer?5incomplete?0?5end@ 0000000140040950     pjsip-ua-x86_64-x64-vc14-release:sip_inv.obj
 0002:00000980       ??_C@_0BF@HOOGIPCC@Normal?5call?5clearing?$AA@ 0000000140040980     pjsip-ua-x86_64-x64-vc14-release:sip_inv.obj
 0002:00000998       ??_C@_03MHNADFJL@sdp?$AA@  0000000140040998     pjsip-ua-x86_64-x64-vc14-release:sip_inv.obj
 0002:000009a0       ??_C@_0M@MBDKLJIJ@application?$AA@ 00000001400409a0     pjsip-ua-x86_64-x64-vc14-release:sip_inv.obj
 0002:000009b0       ??_C@_09FEKOPBOI@multipart?$AA@ 00000001400409b0     pjsip-ua-x86_64-x64-vc14-release:sip_inv.obj
 0002:000009bc       ??_C@_05IPHDHIPP@mixed?$AA@ 00000001400409bc     pjsip-ua-x86_64-x64-vc14-release:sip_inv.obj
 0002:000009c8       ??_C@_0M@HAJLPECN@alternative?$AA@ 00000001400409c8     pjsip-ua-x86_64-x64-vc14-release:sip_inv.obj
 0002:000009d4       ??_C@_02HHFHKOHM@?$DP?$DP?$AA@ 00000001400409d4     pjsip-ua-x86_64-x64-vc14-release:sip_inv.obj
 0002:000009d8       ??_C@_05BICJMLFP@inv?$CFp?$AA@ 00000001400409d8     pjsip-ua-x86_64-x64-vc14-release:sip_inv.obj
 0002:000009e0       ??_C@_0CJ@HLKGBANI@UAC?5invite?5session?5created?5for?5d@ 00000001400409e0     pjsip-ua-x86_64-x64-vc14-release:sip_inv.obj
 0002:00000a10       ??_C@_0CC@MAIPFFMN@Error?5parsing?1validating?5SDP?5bod@ 0000000140040a10     pjsip-ua-x86_64-x64-vc14-release:sip_inv.obj
 0002:00000a34       ??_C@_06IPLOHEDL@100rel?$AA@ 0000000140040a34     pjsip-ua-x86_64-x64-vc14-release:sip_inv.obj
 0002:00000a3c       ??_C@_05NAPFDJNG@timer?$AA@ 0000000140040a3c     pjsip-ua-x86_64-x64-vc14-release:sip_inv.obj
 0002:00000a48       ??_C@_0CJ@EIBALPMO@UAS?5invite?5session?5created?5for?5d@ 0000000140040a48     pjsip-ua-x86_64-x64-vc14-release:sip_inv.obj
 0002:00000a74       ??_C@_05ECJJFAAP@PRACK?$AA@ 0000000140040a74     pjsip-ua-x86_64-x64-vc14-release:sip_inv.obj
 0002:00000a80       ??_C@_0BF@KBACJJBP@SDP?5negotiation?5done?$AA@ 0000000140040a80     pjsip-ua-x86_64-x64-vc14-release:sip_inv.obj
 0002:00000a98       ??_C@_0BC@DKICHHDF@Initial?5answer?5?$CFs?$AA@ 0000000140040a98     pjsip-ua-x86_64-x64-vc14-release:sip_inv.obj
 0002:00000ab0       ??_C@_0DO@HEALFLEC@Delaying?5CANCEL?5since?5no?5provisi@ 0000000140040ab0     pjsip-ua-x86_64-x64-vc14-release:sip_inv.obj
 0002:00000af0       ??_C@_0BI@DIMJOHLK@?$DM?9error?3?5uri?5too?5long?9?$DO?$AA@ 0000000140040af0     pjsip-ua-x86_64-x64-vc14-release:sip_inv.obj
 0002:00000b08       ??_C@_07PMMFKIFM@Contact?$AA@ 0000000140040b08     pjsip-ua-x86_64-x64-vc14-release:sip_inv.obj
 0002:00000b10       ??_C@_0CK@INPGLEAA@Invalid?5SDP?5offer?1answer?5state?5f@ 0000000140040b10     pjsip-ua-x86_64-x64-vc14-release:sip_inv.obj
 0002:00000b40       ??_C@_0L@BPIOADDE@Sending?5?$CFs?$AA@ 0000000140040b40     pjsip-ua-x86_64-x64-vc14-release:sip_inv.obj
 0002:00000b50       ??_C@_0CL@IIMHLPDD@Delaying?5BYE?5request?5until?5ACK?5i@ 0000000140040b50     pjsip-ua-x86_64-x64-vc14-release:sip_inv.obj
 0002:00000bb0       pjsip_prack_method         0000000140040bb0     pjsip-ua-x86_64-x64-vc14-release:sip_100rel.obj
 0002:00000bc8       ??_C@_04NKIOHFHJ@RSeq?$AA@ 0000000140040bc8     pjsip-ua-x86_64-x64-vc14-release:sip_100rel.obj
 0002:00000bd0       ??_C@_04JEDOGMAE@RAck?$AA@ 0000000140040bd0     pjsip-ua-x86_64-x64-vc14-release:sip_100rel.obj
 0002:00000bd8       ??_C@_0L@KBAFDJEE@mod?9100rel?$AA@ 0000000140040bd8     pjsip-ua-x86_64-x64-vc14-release:sip_100rel.obj
 0002:00000be8       ??_C@_0BH@ONPFCEOK@100rel?5module?5attached?$AA@ 0000000140040be8     pjsip-ua-x86_64-x64-vc14-release:sip_100rel.obj
 0002:00000c00       ??_C@_0CN@FOEJAHIE@Ignoring?5100rel?5response?5with?5no@ 0000000140040c00     pjsip-ua-x86_64-x64-vc14-release:sip_100rel.obj
 0002:00000c30       ??_C@_0EC@BLMHGGJH@Ignoring?5100rel?5response?5because@ 0000000140040c30     pjsip-ua-x86_64-x64-vc14-release:sip_100rel.obj
 0002:00000c78       ??_C@_0DL@FCLLNCLO@Ignoring?5100rel?5response?5with?5no@ 0000000140040c78     pjsip-ua-x86_64-x64-vc14-release:sip_100rel.obj
 0002:00000cb8       ??_C@_0L@IBEMKGAL@?$CFu?5?$CFu?5?$CF?4?$CKs?$AA@ 0000000140040cb8     pjsip-ua-x86_64-x64-vc14-release:sip_100rel.obj
 0002:00000cc8       ??_C@_0BB@IEDINMFC@Unexpected?5PRACK?$AA@ 0000000140040cc8     pjsip-ua-x86_64-x64-vc14-release:sip_100rel.obj
 0002:00000ce0       ??_C@_0CE@PLNFEICH@PRACK?5ignored?5?9?5no?5pending?5respo@ 0000000140040ce0     pjsip-ua-x86_64-x64-vc14-release:sip_100rel.obj
 0002:00000d08       ??_C@_0P@BPOGJPKH@No?5RAck?5header?$AA@ 0000000140040d08     pjsip-ua-x86_64-x64-vc14-release:sip_100rel.obj
 0002:00000d18       ??_C@_0CM@DOMMHELC@Rx?5PRACK?5with?5no?5matching?5reliab@ 0000000140040d18     pjsip-ua-x86_64-x64-vc14-release:sip_100rel.obj
 0002:00000d48       ??_C@_0BM@HPALGIGM@Reliable?5response?5timed?5out?$AA@ 0000000140040d48     pjsip-ua-x86_64-x64-vc14-release:sip_100rel.obj
 0002:00000d68       ??_C@_0BN@BIEECPPD@?4?4?2src?2pjsip?9ua?2sip_100rel?4c?$AA@ 0000000140040d68     pjsip-ua-x86_64-x64-vc14-release:sip_100rel.obj
 0002:00000d88       ??_C@_0CG@JIMKEDOL@2xx?5response?5will?5be?5sent?5after?5@ 0000000140040d88     pjsip-ua-x86_64-x64-vc14-release:sip_100rel.obj
 0002:00000db0       ??_C@_0CE@BEBCMEH@No?5SDP?5sent?5so?5far?0?5sending?52xx?5@ 0000000140040db0     pjsip-ua-x86_64-x64-vc14-release:sip_100rel.obj
 0002:00000dd4       ??_C@_02GMHACPFF@?$CFu?$AA@ 0000000140040dd4     pjsip-ua-x86_64-x64-vc14-release:sip_100rel.obj
 0002:00000dd8       ??_C@_0CL@JLPOAJFO@Reliable?5?$CFd?5response?5enqueued?5?$CI?$CF@ 0000000140040dd8     pjsip-ua-x86_64-x64-vc14-release:sip_100rel.obj
 0002:00000e78       pjsip_update_method        0000000140040e78     pjsip-ua-x86_64-x64-vc14-release:sip_timer.obj
 0002:00000e90       ??_C@_0BA@HCNJNBAB@Session?9Expires?$AA@ 0000000140040e90     pjsip-ua-x86_64-x64-vc14-release:sip_timer.obj
 0002:00000ea0       ??_C@_01FJMABOPO@x?$AA@    0000000140040ea0     pjsip-ua-x86_64-x64-vc14-release:sip_timer.obj
 0002:00000ea4       ??_C@_06PPBKPPMM@Min?9SE?$AA@ 0000000140040ea4     pjsip-ua-x86_64-x64-vc14-release:sip_timer.obj
 0002:00000eb0       ??_C@_09NOICKHFM@refresher?$AA@ 0000000140040eb0     pjsip-ua-x86_64-x64-vc14-release:sip_timer.obj
 0002:00000ebc       ??_C@_03IFJPOJDO@uac?$AA@  0000000140040ebc     pjsip-ua-x86_64-x64-vc14-release:sip_timer.obj
 0002:00000ec0       ??_C@_03MPFNPLGP@uas?$AA@  0000000140040ec0     pjsip-ua-x86_64-x64-vc14-release:sip_timer.obj
 0002:00000ec8       ??_C@_0BM@GJDEIDKD@?4?4?2src?2pjsip?9ua?2sip_timer?4c?$AA@ 0000000140040ec8     pjsip-ua-x86_64-x64-vc14-release:sip_timer.obj
 0002:00000ee8       ??_C@_0DF@MFNPLMLE@Refreshing?5session?5after?5?$CFds?5?$CIex@ 0000000140040ee8     pjsip-ua-x86_64-x64-vc14-release:sip_timer.obj
 0002:00000f20       ??_C@_0BB@FFFNADMG@refresh?5response?$AA@ 0000000140040f20     pjsip-ua-x86_64-x64-vc14-release:sip_timer.obj
 0002:00000f38       ??_C@_07HPCLKEG@refresh?$AA@ 0000000140040f38     pjsip-ua-x86_64-x64-vc14-release:sip_timer.obj
 0002:00000f40       ??_C@_0FA@NNHOKPAC@No?5session?5?$CFs?5received?5after?5?$CFds@ 0000000140040f40     pjsip-ua-x86_64-x64-vc14-release:sip_timer.obj
 0002:00000f90       ??_C@_0L@BHFFIHLE@refreshing?$AA@ 0000000140040f90     pjsip-ua-x86_64-x64-vc14-release:sip_timer.obj
 0002:00000fa0       ??_C@_0M@CIHJDPCM@terminating?$AA@ 0000000140040fa0     pjsip-ua-x86_64-x64-vc14-release:sip_timer.obj
 0002:00000fb0       ??_C@_0BK@JNGKHHHE@Error?5in?5?$CFs?5session?5timer?$AA@ 0000000140040fb0     pjsip-ua-x86_64-x64-vc14-release:sip_timer.obj
 0002:00000fd0       ??_C@_0EK@JCMLCMLM@Received?5422?5?$CISession?5Interval?5T@ 0000000140040fd0     pjsip-ua-x86_64-x64-vc14-release:sip_timer.obj
 0002:00001020       ??_C@_0IG@FLJLCDDH@Peer?5responds?5with?5bad?5Session?9E@ 0000000140041020     pjsip-ua-x86_64-x64-vc14-release:sip_timer.obj
 0002:000010a8       ??_C@_0DC@MANPDFEB@Receive?5error?5?$CFd?5for?5refresh?5req@ 00000001400410a8     pjsip-ua-x86_64-x64-vc14-release:sip_timer.obj
 0002:000010e0       ??_C@_0DH@MMOHCGLD@Scheduling?5to?5retry?5refresh?5requ@ 00000001400410e0     pjsip-ua-x86_64-x64-vc14-release:sip_timer.obj
 0002:00001118       ??_C@_0BD@KGAJMAJC@Ending?5session?5now?$AA@ 0000000140041118     pjsip-ua-x86_64-x64-vc14-release:sip_timer.obj
 0002:00001130       ??_C@_08BMKPPPGG@SIP?12?40?1?$AA@ 0000000140041130     pjsip-core-x86_64-x64-vc14-release:sip_msg.obj
 0002:00001139       ??_C@_00CNPNBAHC@?$AA@     0000000140041139     pjsip-core-x86_64-x64-vc14-release:sip_msg.obj
 0002:0000113c       ??_C@_05ODKKKCAM@?$DLttl?$DN?$AA@ 000000014004113c     pjsip-core-x86_64-x64-vc14-release:sip_msg.obj
 0002:00001144       ??_C@_06IKMHKLF@?$DLrport?$AA@ 0000000140041144     pjsip-core-x86_64-x64-vc14-release:sip_msg.obj
 0002:00001150       ??_C@_07IONINLDO@?$DLmaddr?$DN?$AA@ 0000000140041150     pjsip-core-x86_64-x64-vc14-release:sip_msg.obj
 0002:00001158       ??_C@_0L@IMDGLAJB@?$DLreceived?$DN?$AA@ 0000000140041158     pjsip-core-x86_64-x64-vc14-release:sip_msg.obj
 0002:00001168       ??_C@_08LMLOEMIC@?$DLbranch?$DN?$AA@ 0000000140041168     pjsip-core-x86_64-x64-vc14-release:sip_msg.obj
 0002:00001174       ??_C@_02KEGNLNML@?0?5?$AA@ 0000000140041174     pjsip-core-x86_64-x64-vc14-release:sip_msg.obj
 0002:00001178       ??_C@_03MGEKBFJK@?$DLq?$DN?$AA@ 0000000140041178     pjsip-core-x86_64-x64-vc14-release:sip_msg.obj
 0002:00001180       ??_C@_09JFABAEBI@?$DLexpires?$DN?$AA@ 0000000140041180     pjsip-core-x86_64-x64-vc14-release:sip_msg.obj
 0002:00001190       ??_C@_08EINEADGI@REGISTER?$AA@ 0000000140041190     pjsip-core-x86_64-x64-vc14-release:sip_msg.obj
 0002:000011a0       ??_C@_07KDKMIPIP@OPTIONS?$AA@ 00000001400411a0     pjsip-core-x86_64-x64-vc14-release:sip_msg.obj
 0002:000011a8       ??_C@_06MDEHPNLG@Accept?$AA@ 00000001400411a8     pjsip-core-x86_64-x64-vc14-release:sip_msg.obj
 0002:000011b0       ??_C@_0BA@KDJCHKHJ@Accept?9Encoding?$AA@ 00000001400411b0     pjsip-core-x86_64-x64-vc14-release:sip_msg.obj
 0002:000011c0       ??_C@_0BA@POEGPCPD@Accept?9Language?$AA@ 00000001400411c0     pjsip-core-x86_64-x64-vc14-release:sip_msg.obj
 0002:000011d0       ??_C@_0L@DDNEKGOG@Alert?9Info?$AA@ 00000001400411d0     pjsip-core-x86_64-x64-vc14-release:sip_msg.obj
 0002:000011dc       ??_C@_05IEPODGEO@Allow?$AA@ 00000001400411dc     pjsip-core-x86_64-x64-vc14-release:sip_msg.obj
 0002:000011e8       ??_C@_0BE@KPJFGFDH@Authentication?9Info?$AA@ 00000001400411e8     pjsip-core-x86_64-x64-vc14-release:sip_msg.obj
 0002:00001200       ??_C@_0O@NAFGPKMI@Authorization?$AA@ 0000000140041200     pjsip-core-x86_64-x64-vc14-release:sip_msg.obj
 0002:00001210       ??_C@_07IKPMLMAJ@Call?9ID?$AA@ 0000000140041210     pjsip-core-x86_64-x64-vc14-release:sip_msg.obj
 0002:00001218       ??_C@_01KBJDNOO@i?$AA@     0000000140041218     pjsip-core-x86_64-x64-vc14-release:sip_msg.obj
 0002:00001220       ??_C@_09HCKFEBLC@Call?9Info?$AA@ 0000000140041220     pjsip-core-x86_64-x64-vc14-release:sip_msg.obj
 0002:0000122c       ??_C@_01GOHFPIOK@m?$AA@    000000014004122c     pjsip-core-x86_64-x64-vc14-release:sip_msg.obj
 0002:00001230       ??_C@_0BE@LMOOGHBG@Content?9Disposition?$AA@ 0000000140041230     pjsip-core-x86_64-x64-vc14-release:sip_msg.obj
 0002:00001248       ??_C@_0BB@KFPPKJHF@Content?9Encoding?$AA@ 0000000140041248     pjsip-core-x86_64-x64-vc14-release:sip_msg.obj
 0002:0000125c       ??_C@_01KGKMHCOC@e?$AA@    000000014004125c     pjsip-core-x86_64-x64-vc14-release:sip_msg.obj
 0002:00001260       ??_C@_0BB@PICLCBPP@Content?9Language?$AA@ 0000000140041260     pjsip-core-x86_64-x64-vc14-release:sip_msg.obj
 0002:00001278       ??_C@_0P@HOJGPHBA@Content?9Length?$AA@ 0000000140041278     pjsip-core-x86_64-x64-vc14-release:sip_msg.obj
 0002:00001288       ??_C@_01HHGOMJKL@l?$AA@    0000000140041288     pjsip-core-x86_64-x64-vc14-release:sip_msg.obj
 0002:00001290       ??_C@_0N@LAFFMKKA@Content?9Type?$AA@ 0000000140041290     pjsip-core-x86_64-x64-vc14-release:sip_msg.obj
 0002:000012a0       ??_C@_01PAPGNFGE@c?$AA@    00000001400412a0     pjsip-core-x86_64-x64-vc14-release:sip_msg.obj
 0002:000012a4       ??_C@_04IHAOMLEL@CSeq?$AA@ 00000001400412a4     pjsip-core-x86_64-x64-vc14-release:sip_msg.obj
 0002:000012ac       ??_C@_04FMEGDJGD@Date?$AA@ 00000001400412ac     pjsip-core-x86_64-x64-vc14-release:sip_msg.obj
 0002:000012b8       ??_C@_0L@PGKFFKEH@Error?9Info?$AA@ 00000001400412b8     pjsip-core-x86_64-x64-vc14-release:sip_msg.obj
 0002:000012c8       ??_C@_07DABPCBEH@Expires?$AA@ 00000001400412c8     pjsip-core-x86_64-x64-vc14-release:sip_msg.obj
 0002:000012d0       ??_C@_04LMIAFEOL@From?$AA@ 00000001400412d0     pjsip-core-x86_64-x64-vc14-release:sip_msg.obj
 0002:000012d8       ??_C@_01INIBCBCB@f?$AA@    00000001400412d8     pjsip-core-x86_64-x64-vc14-release:sip_msg.obj
 0002:000012e0       ??_C@_0M@OJFKFNND@In?9Reply?9To?$AA@ 00000001400412e0     pjsip-core-x86_64-x64-vc14-release:sip_msg.obj
 0002:000012f0       ??_C@_0N@KAKEBINL@Max?9Forwards?$AA@ 00000001400412f0     pjsip-core-x86_64-x64-vc14-release:sip_msg.obj
 0002:00001300       ??_C@_0N@PNJFOFFK@MIME?9Version?$AA@ 0000000140041300     pjsip-core-x86_64-x64-vc14-release:sip_msg.obj
 0002:00001310       ??_C@_0M@BHCNHHNF@Min?9Expires?$AA@ 0000000140041310     pjsip-core-x86_64-x64-vc14-release:sip_msg.obj
 0002:00001320       ??_C@_0N@MHPBIIPD@Organization?$AA@ 0000000140041320     pjsip-core-x86_64-x64-vc14-release:sip_msg.obj
 0002:00001330       ??_C@_08KGEIBGG@Priority?$AA@ 0000000140041330     pjsip-core-x86_64-x64-vc14-release:sip_msg.obj
 0002:00001340       ??_C@_0BD@GKJFGNG@Proxy?9Authenticate?$AA@ 0000000140041340     pjsip-core-x86_64-x64-vc14-release:sip_msg.obj
 0002:00001358       ??_C@_0BE@DCLKKIPG@Proxy?9Authorization?$AA@ 0000000140041358     pjsip-core-x86_64-x64-vc14-release:sip_msg.obj
 0002:00001370       ??_C@_0O@ICDCLCHE@Proxy?9Require?$AA@ 0000000140041370     pjsip-core-x86_64-x64-vc14-release:sip_msg.obj
 0002:00001380       ??_C@_0N@KJFPNEHF@Record?9Route?$AA@ 0000000140041380     pjsip-core-x86_64-x64-vc14-release:sip_msg.obj
 0002:00001390       ??_C@_08GBENDHCN@Reply?9To?$AA@ 0000000140041390     pjsip-core-x86_64-x64-vc14-release:sip_msg.obj
 0002:000013a0       ??_C@_07KMMNJNOB@Require?$AA@ 00000001400413a0     pjsip-core-x86_64-x64-vc14-release:sip_msg.obj
 0002:000013a8       ??_C@_0M@CMFFKFHP@Retry?9After?$AA@ 00000001400413a8     pjsip-core-x86_64-x64-vc14-release:sip_msg.obj
 0002:000013b4       ??_C@_05DIKBIPM@Route?$AA@ 00000001400413b4     pjsip-core-x86_64-x64-vc14-release:sip_msg.obj
 0002:000013bc       ??_C@_06LGMEBDBC@Server?$AA@ 00000001400413bc     pjsip-core-x86_64-x64-vc14-release:sip_msg.obj
 0002:000013c8       ??_C@_07GEKACEDI@Subject?$AA@ 00000001400413c8     pjsip-core-x86_64-x64-vc14-release:sip_msg.obj
 0002:000013d0       ??_C@_01LKDEMHDF@s?$AA@    00000001400413d0     pjsip-core-x86_64-x64-vc14-release:sip_msg.obj
 0002:000013d8       ??_C@_09GFDKPDGA@Supported?$AA@ 00000001400413d8     pjsip-core-x86_64-x64-vc14-release:sip_msg.obj
 0002:000013e4       ??_C@_01DICPFPGM@k?$AA@    00000001400413e4     pjsip-core-x86_64-x64-vc14-release:sip_msg.obj
 0002:000013e8       ??_C@_09KDGENIOP@Timestamp?$AA@ 00000001400413e8     pjsip-core-x86_64-x64-vc14-release:sip_msg.obj
 0002:000013f4       ??_C@_05IIDIOKEA@?$DLtag?$DN?$AA@ 00000001400413f4     pjsip-core-x86_64-x64-vc14-release:sip_msg.obj
 0002:000013fc       ??_C@_02IJGONHOJ@To?$AA@   00000001400413fc     pjsip-core-x86_64-x64-vc14-release:sip_msg.obj
 0002:00001400       ??_C@_01PFHFFBPC@t?$AA@    0000000140041400     pjsip-core-x86_64-x64-vc14-release:sip_msg.obj
 0002:00001408       ??_C@_0M@BEECMOIL@Unsupported?$AA@ 0000000140041408     pjsip-core-x86_64-x64-vc14-release:sip_msg.obj
 0002:00001418       ??_C@_0L@DMPACEMJ@User?9Agent?$AA@ 0000000140041418     pjsip-core-x86_64-x64-vc14-release:sip_msg.obj
 0002:00001424       ??_C@_03LDNNKNE@Via?$AA@   0000000140041424     pjsip-core-x86_64-x64-vc14-release:sip_msg.obj
 0002:00001428       ??_C@_01MHEDDDHA@v?$AA@    0000000140041428     pjsip-core-x86_64-x64-vc14-release:sip_msg.obj
 0002:00001430       ??_C@_07KGMMFLDN@Warning?$AA@ 0000000140041430     pjsip-core-x86_64-x64-vc14-release:sip_msg.obj
 0002:00001438       ??_C@_0BB@KEDJJIFI@WWW?9Authenticate?$AA@ 0000000140041438     pjsip-core-x86_64-x64-vc14-release:sip_msg.obj
 0002:00001450       ??_C@_0BA@MKEDBJEA@_Unknown?9Header?$AA@ 0000000140041450     pjsip-core-x86_64-x64-vc14-release:sip_msg.obj
 0002:00001460       pjsip_invite_method        0000000140041460     pjsip-core-x86_64-x64-vc14-release:sip_msg.obj
 0002:00001478       pjsip_cancel_method        0000000140041478     pjsip-core-x86_64-x64-vc14-release:sip_msg.obj
 0002:00001490       pjsip_ack_method           0000000140041490     pjsip-core-x86_64-x64-vc14-release:sip_msg.obj
 0002:000014a8       pjsip_bye_method           00000001400414a8     pjsip-core-x86_64-x64-vc14-release:sip_msg.obj
 0002:000014c0       pjsip_register_method      00000001400414c0     pjsip-core-x86_64-x64-vc14-release:sip_msg.obj
 0002:000014d8       pjsip_options_method       00000001400414d8     pjsip-core-x86_64-x64-vc14-release:sip_msg.obj
 0002:000014f0       pjsip_hdr_names            00000001400414f0     pjsip-core-x86_64-x64-vc14-release:sip_msg.obj
 0002:00001928       ??_C@_04IBOFHAPJ@hide?$AA@ 0000000140041928     pjsip-core-x86_64-x64-vc14-release:sip_msg.obj
 0002:00001930       ??_C@_0BH@JEAOBKFE@Default?5status?5message?$AA@ 0000000140041930     pjsip-core-x86_64-x64-vc14-release:sip_msg.obj
 0002:00001948       ??_C@_06CJPKGAJC@Trying?$AA@ 0000000140041948     pjsip-core-x86_64-x64-vc14-release:sip_msg.obj
 0002:00001950       ??_C@_07KEMHLLKP@Ringing?$AA@ 0000000140041950     pjsip-core-x86_64-x64-vc14-release:sip_msg.obj
 0002:00001958       ??_C@_0BI@HBFDMPGA@Call?5Is?5Being?5Forwarded?$AA@ 0000000140041958     pjsip-core-x86_64-x64-vc14-release:sip_msg.obj
 0002:00001970       ??_C@_06POGAFBAL@Queued?$AA@ 0000000140041970     pjsip-core-x86_64-x64-vc14-release:sip_msg.obj
 0002:00001978       ??_C@_0BB@FKJCNOGD@Session?5Progress?$AA@ 0000000140041978     pjsip-core-x86_64-x64-vc14-release:sip_msg.obj
 0002:0000198c       ??_C@_02GIPFHKNO@OK?$AA@   000000014004198c     pjsip-core-x86_64-x64-vc14-release:sip_msg.obj
 0002:00001990       ??_C@_08DOBOODLA@Accepted?$AA@ 0000000140041990     pjsip-core-x86_64-x64-vc14-release:sip_msg.obj
 0002:000019a0       ??_C@_0BB@HLFEHKPE@Multiple?5Choices?$AA@ 00000001400419a0     pjsip-core-x86_64-x64-vc14-release:sip_msg.obj
 0002:000019b8       ??_C@_0BC@BPBCNFPI@Moved?5Permanently?$AA@ 00000001400419b8     pjsip-core-x86_64-x64-vc14-release:sip_msg.obj
 0002:000019d0       ??_C@_0BC@LODIMCJL@Moved?5Temporarily?$AA@ 00000001400419d0     pjsip-core-x86_64-x64-vc14-release:sip_msg.obj
 0002:000019e8       ??_C@_09JFBGBFIM@Use?5Proxy?$AA@ 00000001400419e8     pjsip-core-x86_64-x64-vc14-release:sip_msg.obj
 0002:000019f8       ??_C@_0BE@MCFGMBHK@Alternative?5Service?$AA@ 00000001400419f8     pjsip-core-x86_64-x64-vc14-release:sip_msg.obj
 0002:00001a10       ??_C@_0M@LNAIDEEG@Bad?5Request?$AA@ 0000000140041a10     pjsip-core-x86_64-x64-vc14-release:sip_msg.obj
 0002:00001a20       ??_C@_0N@OOAPMOJA@Unauthorized?$AA@ 0000000140041a20     pjsip-core-x86_64-x64-vc14-release:sip_msg.obj
 0002:00001a30       ??_C@_0BB@LMPIHCBH@Payment?5Required?$AA@ 0000000140041a30     pjsip-core-x86_64-x64-vc14-release:sip_msg.obj
 0002:00001a48       ??_C@_09LMDIMFJD@Forbidden?$AA@ 0000000140041a48     pjsip-core-x86_64-x64-vc14-release:sip_msg.obj
 0002:00001a58       ??_C@_09CFCBFJND@Not?5Found?$AA@ 0000000140041a58     pjsip-core-x86_64-x64-vc14-release:sip_msg.obj
 0002:00001a68       ??_C@_0BD@CCIPIALO@Method?5Not?5Allowed?$AA@ 0000000140041a68     pjsip-core-x86_64-x64-vc14-release:sip_msg.obj
 0002:00001a80       ??_C@_0P@HHIDFAOI@Not?5Acceptable?$AA@ 0000000140041a80     pjsip-core-x86_64-x64-vc14-release:sip_msg.obj
 0002:00001a90       ??_C@_0BO@ONPAAOGI@Proxy?5Authentication?5Required?$AA@ 0000000140041a90     pjsip-core-x86_64-x64-vc14-release:sip_msg.obj
 0002:00001ab0       ??_C@_0BA@HALFGGF@Request?5Timeout?$AA@ 0000000140041ab0     pjsip-core-x86_64-x64-vc14-release:sip_msg.obj
 0002:00001ac0       ??_C@_04OKIIBCCG@Gone?$AA@ 0000000140041ac0     pjsip-core-x86_64-x64-vc14-release:sip_msg.obj
 0002:00001ac8       ??_C@_0BJ@MMEIEOIG@Request?5Entity?5Too?5Large?$AA@ 0000000140041ac8     pjsip-core-x86_64-x64-vc14-release:sip_msg.obj
 0002:00001ae8       ??_C@_0BF@LPICFNOC@Request?5URI?5Too?5Long?$AA@ 0000000140041ae8     pjsip-core-x86_64-x64-vc14-release:sip_msg.obj
 0002:00001b00       ??_C@_0BH@HLJJIAEN@Unsupported?5Media?5Type?$AA@ 0000000140041b00     pjsip-core-x86_64-x64-vc14-release:sip_msg.obj
 0002:00001b18       ??_C@_0BH@HMDPMBIK@Unsupported?5URI?5Scheme?$AA@ 0000000140041b18     pjsip-core-x86_64-x64-vc14-release:sip_msg.obj
 0002:00001b30       ??_C@_0O@EABFLJJG@Bad?5Extension?$AA@ 0000000140041b30     pjsip-core-x86_64-x64-vc14-release:sip_msg.obj
 0002:00001b40       ??_C@_0BD@LEDCNIMD@Extension?5Required?$AA@ 0000000140041b40     pjsip-core-x86_64-x64-vc14-release:sip_msg.obj
 0002:00001b58       ??_C@_0BI@DEDCGMIH@Session?5Timer?5Too?5Small?$AA@ 0000000140041b58     pjsip-core-x86_64-x64-vc14-release:sip_msg.obj
 0002:00001b70       ??_C@_0BD@NHGMJMLN@Interval?5Too?5Brief?$AA@ 0000000140041b70     pjsip-core-x86_64-x64-vc14-release:sip_msg.obj
 0002:00001b88       ??_C@_0BI@JBJKOKGE@Temporarily?5Unavailable?$AA@ 0000000140041b88     pjsip-core-x86_64-x64-vc14-release:sip_msg.obj
 0002:00001ba0       ??_C@_0CA@DPKMEAMP@Call?1Transaction?5Does?5Not?5Exist?$AA@ 0000000140041ba0     pjsip-core-x86_64-x64-vc14-release:sip_msg.obj
 0002:00001bc0       ??_C@_0O@KJBLEGOO@Loop?5Detected?$AA@ 0000000140041bc0     pjsip-core-x86_64-x64-vc14-release:sip_msg.obj
 0002:00001bd0       ??_C@_0O@CFHODMHD@Too?5Many?5Hops?$AA@ 0000000140041bd0     pjsip-core-x86_64-x64-vc14-release:sip_msg.obj
 0002:00001be0       ??_C@_0BD@HOIPLGB@Address?5Incomplete?$AA@ 0000000140041be0     pjsip-core-x86_64-x64-vc14-release:sip_msg.obj
 0002:00001bf8       ??_C@_09FNGPAEJC@Ambiguous?$AA@ 0000000140041bf8     pjsip-core-x86_64-x64-vc14-release:sip_msg.obj
 0002:00001c08       ??_C@_09ELAJPHFG@Busy?5Here?$AA@ 0000000140041c08     pjsip-core-x86_64-x64-vc14-release:sip_msg.obj
 0002:00001c18       ??_C@_0BD@IGJOBDDO@Request?5Terminated?$AA@ 0000000140041c18     pjsip-core-x86_64-x64-vc14-release:sip_msg.obj
 0002:00001c30       ??_C@_0BE@HMIMPLAH@Not?5Acceptable?5Here?$AA@ 0000000140041c30     pjsip-core-x86_64-x64-vc14-release:sip_msg.obj
 0002:00001c48       ??_C@_09HKNLJBHH@Bad?5Event?$AA@ 0000000140041c48     pjsip-core-x86_64-x64-vc14-release:sip_msg.obj
 0002:00001c58       ??_C@_0BA@DKJEBJFB@Request?5Updated?$AA@ 0000000140041c58     pjsip-core-x86_64-x64-vc14-release:sip_msg.obj
 0002:00001c68       ??_C@_0BA@KLOCDLCK@Request?5Pending?$AA@ 0000000140041c68     pjsip-core-x86_64-x64-vc14-release:sip_msg.obj
 0002:00001c78       ??_C@_0P@EIPIHDNL@Undecipherable?$AA@ 0000000140041c78     pjsip-core-x86_64-x64-vc14-release:sip_msg.obj
 0002:00001c88       ??_C@_0BG@NJGANGCC@Internal?5Server?5Error?$AA@ 0000000140041c88     pjsip-core-x86_64-x64-vc14-release:sip_msg.obj
 0002:00001ca0       ??_C@_0BA@JGKGKAME@Not?5Implemented?$AA@ 0000000140041ca0     pjsip-core-x86_64-x64-vc14-release:sip_msg.obj
 0002:00001cb0       ??_C@_0M@BNCNLPGM@Bad?5Gateway?$AA@ 0000000140041cb0     pjsip-core-x86_64-x64-vc14-release:sip_msg.obj
 0002:00001cc0       ??_C@_0BE@NGHLFKBN@Service?5Unavailable?$AA@ 0000000140041cc0     pjsip-core-x86_64-x64-vc14-release:sip_msg.obj
 0002:00001cd8       ??_C@_0P@KPHBHCBP@Server?5Timeout?$AA@ 0000000140041cd8     pjsip-core-x86_64-x64-vc14-release:sip_msg.obj
 0002:00001ce8       ??_C@_0BG@DGJHJFEF@Version?5Not?5Supported?$AA@ 0000000140041ce8     pjsip-core-x86_64-x64-vc14-release:sip_msg.obj
 0002:00001d00       ??_C@_0BC@FOIGPIGF@Message?5Too?5Large?$AA@ 0000000140041d00     pjsip-core-x86_64-x64-vc14-release:sip_msg.obj
 0002:00001d18       ??_C@_0BF@PJIFKKPF@Precondition?5Failure?$AA@ 0000000140041d18     pjsip-core-x86_64-x64-vc14-release:sip_msg.obj
 0002:00001d30       ??_C@_0BA@BNEEJKIK@Busy?5Everywhere?$AA@ 0000000140041d30     pjsip-core-x86_64-x64-vc14-release:sip_msg.obj
 0002:00001d40       ??_C@_07CAMLKJDK@Decline?$AA@ 0000000140041d40     pjsip-core-x86_64-x64-vc14-release:sip_msg.obj
 0002:00001d48       ??_C@_0BI@JILKKJAA@Does?5Not?5Exist?5Anywhere?$AA@ 0000000140041d48     pjsip-core-x86_64-x64-vc14-release:sip_msg.obj
 0002:00001d60       ??_C@_0CE@LJDLADFN@No?5response?5from?5destination?5ser@ 0000000140041d60     pjsip-core-x86_64-x64-vc14-release:sip_msg.obj
 0002:00001d88       ??_C@_0CF@KIECMFPG@Unable?5to?5resolve?5destination?5se@ 0000000140041d88     pjsip-core-x86_64-x64-vc14-release:sip_msg.obj
 0002:00001db0       ??_C@_0CM@KOHFAKJI@Error?5sending?5message?5to?5destina@ 0000000140041db0     pjsip-core-x86_64-x64-vc14-release:sip_msg.obj
 0002:00001de0       ??_C@_0BB@NFGDEPJM@Content?9Length?3?5?$AA@ 0000000140041de0     pjsip-core-x86_64-x64-vc14-release:sip_msg.obj
 0002:00001df4       ??_C@_03BDDDCMLM@l?3?5?$AA@ 0000000140041df4     pjsip-core-x86_64-x64-vc14-release:sip_msg.obj
 0002:00001df8       ??_C@_0L@GLHKEHNL@?5SIP?12?40?$AN?6?$AA@ 0000000140041df8     pjsip-core-x86_64-x64-vc14-release:sip_msg.obj
 0002:00001e08       ??_C@_08JLDHODKJ@SIP?12?40?5?$AA@ 0000000140041e08     pjsip-core-x86_64-x64-vc14-release:sip_msg.obj
 0002:00001e18       ??_C@_0DH@DHKJLILJ@Header?5with?5no?5vptr?5encountered?$CB@ 0000000140041e18     pjsip-core-x86_64-x64-vc14-release:sip_msg.obj
 0002:00001e50       ??_C@_07KCAKOOLP@sip_msg?$AA@ 0000000140041e50     pjsip-core-x86_64-x64-vc14-release:sip_msg.obj
 0002:00001e58       ??_C@_0P@GJMOGDPG@Content?9Type?3?5?$AA@ 0000000140041e58     pjsip-core-x86_64-x64-vc14-release:sip_msg.obj
 0002:00001e68       ??_C@_03ELFADMOK@c?3?5?$AA@ 0000000140041e68     pjsip-core-x86_64-x64-vc14-release:sip_msg.obj
 0002:00001e70       ??_C@_0P@DNLLBOJA@?$CFu?5?$CF?4?$CKs?5?$CC?$CF?4?$CKs?$CC?$AA@ 0000000140041e70     pjsip-core-x86_64-x64-vc14-release:sip_msg.obj
 0002:00001e80       ??_C@_0O@EMLDOJH@mod?9msg?9print?$AA@ 0000000140041e80     pjsip-core-x86_64-x64-vc14-release:sip_transport.obj
 0002:00001e90       ??_C@_0M@NNPCGPMF@Unspecified?$AA@ 0000000140041e90     pjsip-core-x86_64-x64-vc14-release:sip_transport.obj
 0002:00001e9c       ??_C@_03OPEAKHDL@UDP?$AA@  0000000140041e9c     pjsip-core-x86_64-x64-vc14-release:sip_transport.obj
 0002:00001ea0       ??_C@_0O@KHAHCMDL@UDP?5transport?$AA@ 0000000140041ea0     pjsip-core-x86_64-x64-vc14-release:sip_transport.obj
 0002:00001eb0       ??_C@_03FCLDNGNL@TCP?$AA@  0000000140041eb0     pjsip-core-x86_64-x64-vc14-release:sip_transport.obj
 0002:00001eb8       ??_C@_0O@EHHLMLBF@TCP?5transport?$AA@ 0000000140041eb8     pjsip-core-x86_64-x64-vc14-release:sip_transport.obj
 0002:00001ec8       ??_C@_03HCMCMCCF@TLS?$AA@  0000000140041ec8     pjsip-core-x86_64-x64-vc14-release:sip_transport.obj
 0002:00001ed0       ??_C@_0O@BHJFMMNA@TLS?5transport?$AA@ 0000000140041ed0     pjsip-core-x86_64-x64-vc14-release:sip_transport.obj
 0002:00001ee0       ??_C@_04DINHBEKN@DTLS?$AA@ 0000000140041ee0     pjsip-core-x86_64-x64-vc14-release:sip_transport.obj
 0002:00001ee8       ??_C@_0P@FBHKKIOO@DTLS?5transport?$AA@ 0000000140041ee8     pjsip-core-x86_64-x64-vc14-release:sip_transport.obj
 0002:00001ef8       ??_C@_04BOMBJBBC@SCTP?$AA@ 0000000140041ef8     pjsip-core-x86_64-x64-vc14-release:sip_transport.obj
 0002:00001f00       ??_C@_0P@BEPMAJFA@SCTP?5transport?$AA@ 0000000140041f00     pjsip-core-x86_64-x64-vc14-release:sip_transport.obj
 0002:00001f10       ??_C@_04KGNEGCGI@LOOP?$AA@ 0000000140041f10     pjsip-core-x86_64-x64-vc14-release:sip_transport.obj
 0002:00001f18       ??_C@_0BD@IJLEDLFM@Loopback?5transport?$AA@ 0000000140041f18     pjsip-core-x86_64-x64-vc14-release:sip_transport.obj
 0002:00001f30       ??_C@_0L@PGGNCDOP@LOOP?9DGRAM?$AA@ 0000000140041f30     pjsip-core-x86_64-x64-vc14-release:sip_transport.obj
 0002:00001f40       ??_C@_0BM@JFHDLEFO@Loopback?5datagram?5transport?$AA@ 0000000140041f40     pjsip-core-x86_64-x64-vc14-release:sip_transport.obj
 0002:00001f60       ??_C@_0BD@LIBJHFGK@UDP?5IPv6?5transport?$AA@ 0000000140041f60     pjsip-core-x86_64-x64-vc14-release:sip_transport.obj
 0002:00001f78       ??_C@_0BD@IONFPPFG@TCP?5IPv6?5transport?$AA@ 0000000140041f78     pjsip-core-x86_64-x64-vc14-release:sip_transport.obj
 0002:00001f90       ??_C@_0BD@CLDAAALK@TLS?5IPv6?5transport?$AA@ 0000000140041f90     pjsip-core-x86_64-x64-vc14-release:sip_transport.obj
 0002:00001fa8       ??_C@_0BE@IFPIBJBH@DTLS?5IPv6?5transport?$AA@ 0000000140041fa8     pjsip-core-x86_64-x64-vc14-release:sip_transport.obj
 0002:00001fbc       ??_C@_06HHKALCGB@tdta?$CFp?$AA@ 0000000140041fbc     pjsip-core-x86_64-x64-vc14-release:sip_transport.obj
 0002:00001fc8       ??_C@_0BF@FNAOFPOF@Destroying?5txdata?5?$CFs?$AA@ 0000000140041fc8     pjsip-core-x86_64-x64-vc14-release:sip_transport.obj
 0002:00001fe0       ??_C@_0M@JCCICOOO@INVALID?5MSG?$AA@ 0000000140041fe0     pjsip-core-x86_64-x64-vc14-release:sip_transport.obj
 0002:00001ff0       ??_C@_0BO@FBJFIDDA@Request?5msg?5?$CF?4?$CKs?1cseq?$DN?$CFd?5?$CI?$CFs?$CJ?$AA@ 0000000140041ff0     pjsip-core-x86_64-x64-vc14-release:sip_transport.obj
 0002:00002010       ??_C@_0CC@DIPPPFIF@Response?5msg?5?$CFd?1?$CF?4?$CKs?1cseq?$DN?$CFd?5?$CI?$CFs@ 0000000140042010     pjsip-core-x86_64-x64-vc14-release:sip_transport.obj
 0002:00002038       ??_C@_0BC@NHBNMNGO@Tx?5data?5?$CFs?5cloned?$AA@ 0000000140042038     pjsip-core-x86_64-x64-vc14-release:sip_transport.obj
 0002:00002050       ??_C@_0BA@BCOMPIDA@sip_transport?4c?$AA@ 0000000140042050     pjsip-core-x86_64-x64-vc14-release:sip_transport.obj
 0002:00002060       ??_C@_05MIOBCJBH@rdata?$AA@ 0000000140042060     pjsip-core-x86_64-x64-vc14-release:sip_transport.obj
 0002:00002068       ??_C@_02BBAHNLBA@?$CFp?$AA@ 0000000140042068     pjsip-core-x86_64-x64-vc14-release:sip_transport.obj
 0002:0000206c       ??_C@_05KBHICJDA@rtd?$CFp?$AA@ 000000014004206c     pjsip-core-x86_64-x64-vc14-release:sip_transport.obj
 0002:00002078       ??_C@_0CG@GHPNJCCG@Unable?5to?5send?5?$CFs?3?5message?5is?5pe@ 0000000140042078     pjsip-core-x86_64-x64-vc14-release:sip_transport.obj
 0002:000020a0       ??_C@_0BN@KDCNGIHE@?4?4?2src?2pjsip?2sip_transport?4c?$AA@ 00000001400420a0     pjsip-core-x86_64-x64-vc14-release:sip_transport.obj
 0002:000020c0       ??_C@_0DI@CNFAMKAC@Warning?3?5transport?5?$CFs?5being?5dest@ 00000001400420c0     pjsip-core-x86_64-x64-vc14-release:sip_transport.obj
 0002:00002100       ??_C@_0EF@KMMKIKKG@Warning?3?5transport?5?$CFs?5being?5dest@ 0000000140042100     pjsip-core-x86_64-x64-vc14-release:sip_transport.obj
 0002:00002148       ??_C@_0CF@OPJOJNIN@Transport?5?$CFs?5shutting?5down?0?5forc@ 0000000140042148     pjsip-core-x86_64-x64-vc14-release:sip_transport.obj
 0002:00002170       ??_C@_05LOIBBIEL@tpmgr?$AA@ 0000000140042170     pjsip-core-x86_64-x64-vc14-release:sip_transport.obj
 0002:00002178       ??_C@_06DFEDPGIK@tmgr?$CFp?$AA@ 0000000140042178     pjsip-core-x86_64-x64-vc14-release:sip_transport.obj
 0002:00002180       ??_C@_0BL@FCLJOKON@Transport?5manager?5created?4?$AA@ 0000000140042180     pjsip-core-x86_64-x64-vc14-release:sip_transport.obj
 0002:000021a0       ??_C@_0BN@ICLNKKAJ@Destroying?5transport?5manager?$AA@ 00000001400421a0     pjsip-core-x86_64-x64-vc14-release:sip_transport.obj
 0002:000021c0       ??_C@_0CI@HJKHOKAG@Cleaned?5up?5dangling?5transmit?5buf@ 00000001400421c0     pjsip-core-x86_64-x64-vc14-release:sip_transport.obj
 0002:000021e8       ??_C@_0DM@LJBJFPEI@?3?5?$CFs?5exception?5when?5parsing?5?8?$CF?4?$CK@ 00000001400421e8     pjsip-core-x86_64-x64-vc14-release:sip_transport.obj
 0002:00002230       ??_C@_0EM@JMILNFHN@Error?5processing?5?$CFd?5bytes?5packet@ 0000000140042230     pjsip-core-x86_64-x64-vc14-release:sip_transport.obj
 0002:00002280       ??_C@_0DG@FPJFHIHG@Specified?5factory?5for?5creating?5t@ 0000000140042280     pjsip-core-x86_64-x64-vc14-release:sip_transport.obj
 0002:000022b8       ??_C@_01LBDDMOBJ@?$FN?$AA@ 00000001400422b8     pjsip-core-x86_64-x64-vc14-release:sip_transport.obj
 0002:000022c0       ??_C@_0BJ@MGECBGBK@Module?5?$CC?$CF?4?$CKs?$CC?5registered?$AA@ 00000001400422c0     pjsip-core-x86_64-x64-vc14-release:sip_endpoint.obj
 0002:000022e0       ??_C@_0P@EGLGAFCL@sip_endpoint?4c?$AA@ 00000001400422e0     pjsip-core-x86_64-x64-vc14-release:sip_endpoint.obj
 0002:000022f0       ??_C@_0CK@DNCAODEI@Module?5?$CC?$CF?4?$CKs?$CC?5can?5not?5be?5unregis@ 00000001400422f0     pjsip-core-x86_64-x64-vc14-release:sip_endpoint.obj
 0002:00002320       ??_C@_0BL@HDLPHBNM@Module?5?$CC?$CF?4?$CKs?$CC?5unregistered?$AA@ 0000000140042320     pjsip-core-x86_64-x64-vc14-release:sip_endpoint.obj
 0002:00002340       ??_C@_0BO@COOMMINE@Creating?5endpoint?5instance?4?4?4?$AA@ 0000000140042340     pjsip-core-x86_64-x64-vc14-release:sip_endpoint.obj
 0002:00002360       ??_C@_06NKPEEELK@pept?$CFp?$AA@ 0000000140042360     pjsip-core-x86_64-x64-vc14-release:sip_endpoint.obj
 0002:00002368       ??_C@_05BKDCOKEM@ept?$CFp?$AA@ 0000000140042368     pjsip-core-x86_64-x64-vc14-release:sip_endpoint.obj
 0002:00002370       ??_C@_06CEEOCEHG@edpt?$CFp?$AA@ 0000000140042370     pjsip-core-x86_64-x64-vc14-release:sip_endpoint.obj
 0002:00002378       ??_C@_0CB@HGCDKNNC@Error?5creating?5resolver?5instance@ 0000000140042378     pjsip-core-x86_64-x64-vc14-release:sip_endpoint.obj
 0002:000023a0       ??_C@_0BI@MLLMLNGM@Error?5creating?5endpoint?$AA@ 00000001400423a0     pjsip-core-x86_64-x64-vc14-release:sip_endpoint.obj
 0002:000023b8       ??_C@_0BP@CHMMIAFL@Destroying?5endpoint?5instance?4?4?$AA@ 00000001400423b8     pjsip-core-x86_64-x64-vc14-release:sip_endpoint.obj
 0002:000023d8       ??_C@_0BG@NIAFLHGE@Endpoint?5?$CFp?5destroyed?$AA@ 00000001400423d8     pjsip-core-x86_64-x64-vc14-release:sip_endpoint.obj
 0002:000023f0       ??_C@_0BK@KKFMILKM@Unable?5to?5create?5pool?5?$CFs?$CB?$AA@ 00000001400423f0     pjsip-core-x86_64-x64-vc14-release:sip_endpoint.obj
 0002:00002410       ??_C@_0CC@POJNFGFL@Distributing?5rdata?5to?5modules?3?5?$CF@ 0000000140042410     pjsip-core-x86_64-x64-vc14-release:sip_endpoint.obj
 0002:00002434       ??_C@_05MMMMAHGD@?5From?$AA@ 0000000140042434     pjsip-core-x86_64-x64-vc14-release:sip_endpoint.obj
 0002:0000243c       ??_C@_03PHFJHONJ@?5To?$AA@ 000000014004243c     pjsip-core-x86_64-x64-vc14-release:sip_endpoint.obj
 0002:00002440       ??_C@_04CNJKNNNB@?5Via?$AA@ 0000000140042440     pjsip-core-x86_64-x64-vc14-release:sip_endpoint.obj
 0002:00002448       ??_C@_05PHECJIMD@?5CSeq?$AA@ 0000000140042448     pjsip-core-x86_64-x64-vc14-release:sip_endpoint.obj
 0002:00002450       ??_C@_0EM@MDGMOKGH@Error?5processing?5packet?5from?5?$CFs?3@ 0000000140042450     pjsip-core-x86_64-x64-vc14-release:sip_endpoint.obj
 0002:000024a0       ??_C@_0CA@HOLDFAO@Processing?5incoming?5message?3?5?$CFs?$AA@ 00000001400424a0     pjsip-core-x86_64-x64-vc14-release:sip_endpoint.obj
 0002:000024c0       ??_C@_0DD@CJCKLIHE@?$CFs?5from?5?$CFs?3?$CFd?5was?5dropped?1unhand@ 00000001400424c0     pjsip-core-x86_64-x64-vc14-release:sip_endpoint.obj
 0002:000024f8       ??_C@_0M@HFADNKMO@?3?5?$FLerr?5?$CFd?$FN?5?$AA@ 00000001400424f8     pjsip-core-x86_64-x64-vc14-release:sip_endpoint.obj
 0002:00002508       ??_C@_0N@IDBMKGKC@UNIDENTIFIED?$AA@ 0000000140042508     pjsip-core-x86_64-x64-vc14-release:sip_util.obj
 0002:00002518       ??_C@_05BLGDNOJI@TIMER?$AA@ 0000000140042518     pjsip-core-x86_64-x64-vc14-release:sip_util.obj
 0002:00002520       ??_C@_06FHCLPGGO@TX_MSG?$AA@ 0000000140042520     pjsip-core-x86_64-x64-vc14-release:sip_util.obj
 0002:00002528       ??_C@_06DEPLMDFE@RX_MSG?$AA@ 0000000140042528     pjsip-core-x86_64-x64-vc14-release:sip_util.obj
 0002:00002530       ??_C@_0BA@DJFINPGH@TRANSPORT_ERROR?$AA@ 0000000140042530     pjsip-core-x86_64-x64-vc14-release:sip_util.obj
 0002:00002540       ??_C@_09DGJBKMAD@TSX_STATE?$AA@ 0000000140042540     pjsip-core-x86_64-x64-vc14-release:sip_util.obj
 0002:0000254c       ??_C@_04OOEKJIOI@USER?$AA@ 000000014004254c     pjsip-core-x86_64-x64-vc14-release:sip_util.obj
 0002:00002554       ??_C@_04CIMGMMMG@text?$AA@ 0000000140042554     pjsip-core-x86_64-x64-vc14-release:sip_util.obj
 0002:0000255c       ??_C@_05CGDPOPDB@plain?$AA@ 000000014004255c     pjsip-core-x86_64-x64-vc14-release:sip_util.obj
 0002:00002568       ??_C@_0M@PJOLBNIF@?$CFs?5created?4?$AA@ 0000000140042568     pjsip-core-x86_64-x64-vc14-release:sip_util.obj
 0002:00002578       ??_C@_08OKOOPKMJ@endpoint?$AA@ 0000000140042578     pjsip-core-x86_64-x64-vc14-release:sip_util.obj
 0002:00002588       ??_C@_0L@IOBEOHFD@?$CFs?5created?$AA@ 0000000140042588     pjsip-core-x86_64-x64-vc14-release:sip_util.obj
 0002:000025a0       ??_C@_0ED@BNKEGDBC@Automatic?5switch?5to?5TLS?5transpor@ 00000001400425a0     pjsip-core-x86_64-x64-vc14-release:sip_util.obj
 0002:000025e8       ??_C@_07LDFFKCFH@z9hG4bK?$AA@ 00000001400425e8     pjsip-core-x86_64-x64-vc14-release:sip_util.obj
 0002:000025f0       ??_C@_05NKHOCLEE@alias?$AA@ 00000001400425f0     pjsip-core-x86_64-x64-vc14-release:sip_util.obj
 0002:000025f8       ??_C@_0DF@HEHPNNHP@?$CFs?5exceeds?5UDP?5size?5threshold?5?$CI?$CF@ 00000001400425f8     pjsip-core-x86_64-x64-vc14-release:sip_util.obj
 0002:00002630       ??_C@_0DO@JCGKHENM@?$CFs?3?5skipping?5target?5resolution?5b@ 0000000140042630     pjsip-core-x86_64-x64-vc14-release:sip_util.obj
 0002:00002670       ??_C@_0BC@OBBFELDN@mod?9stateful?9util?$AA@ 0000000140042670     pjsip-core-x86_64-x64-vc14-release:sip_util_statefull.obj
 0002:00002688       ??_C@_0BN@EPNAIMHL@Restarting?5SIP?5UDP?5transport?$AA@ 0000000140042688     pjsip-core-x86_64-x64-vc14-release:sip_transport_udp.obj
 0002:000026a8       ??_C@_0CD@IKKKNOLK@Error?5restarting?5SIP?5UDP?5transpo@ 00000001400426a8     pjsip-core-x86_64-x64-vc14-release:sip_transport_udp.obj
 0002:000026d0       ??_C@_0BE@KOJAAPOH@sip_transport_udp?4c?$AA@ 00000001400426d0     pjsip-core-x86_64-x64-vc14-release:sip_transport_udp.obj
 0002:000026e8       ??_C@_0BN@BEFELMIM@Warning?3?5pj_ioqueue_recvfrom?$AA@ 00000001400426e8     pjsip-core-x86_64-x64-vc14-release:sip_transport_udp.obj
 0002:00002710       ??_C@_0EC@ICGMJAB@FATAL?3?5pj_ioqueue_recvfrom?$CI?$CJ?5err@ 0000000140042710     pjsip-core-x86_64-x64-vc14-release:sip_transport_udp.obj
 0002:00002758       ??_C@_0BM@INPFFNPD@SIP?5UDP?5transport?5destroyed?$AA@ 0000000140042758     pjsip-core-x86_64-x64-vc14-release:sip_transport_udp.obj
 0002:00002778       ??_C@_0BJ@MMFAKBFN@udp?5?$CFs?5?$FLpublished?5as?5?$CFs?$FN?$AA@ 0000000140042778     pjsip-core-x86_64-x64-vc14-release:sip_transport_udp.obj
 0002:00002798       ??_C@_07LINNJFLK@udpv6?$CFp?$AA@ 0000000140042798     pjsip-core-x86_64-x64-vc14-release:sip_transport_udp.obj
 0002:000027a0       ??_C@_01OHGJGJJP@?$FL?$AA@ 00000001400427a0     pjsip-core-x86_64-x64-vc14-release:sip_transport_udp.obj
 0002:000027a4       ??_C@_05DOGEOMC@udp?$CFp?$AA@ 00000001400427a4     pjsip-core-x86_64-x64-vc14-release:sip_transport_udp.obj
 0002:000027b0       ??_C@_07OHKHACFK@0?40?40?40?$AA@ 00000001400427b0     pjsip-core-x86_64-x64-vc14-release:sip_transport_udp.obj
 0002:000027b8       ??_C@_03LHJHGOJD@?3?30?$AA@ 00000001400427b8     pjsip-core-x86_64-x64-vc14-release:sip_transport_udp.obj
 0002:000027c0       ??_C@_0DB@MDELAJDF@SIP?5?$CFs?5started?0?5published?5addres@ 00000001400427c0     pjsip-core-x86_64-x64-vc14-release:sip_transport_udp.obj
 0002:000027f8       ??_C@_0BC@BDGDHMHI@SIP?5UDP?5transport?$AA@ 00000001400427f8     pjsip-core-x86_64-x64-vc14-release:sip_transport_udp.obj
 0002:00002810       ??_C@_0DF@PEKBCPJC@SIP?5UDP?5transport?5restarted?0?5pub@ 0000000140042810     pjsip-core-x86_64-x64-vc14-release:sip_transport_udp.obj
 0002:00002848       ??_C@_0O@JMLIDGHN@?$CFs?3?5?$FLcode?$DN?$CFd?$FN?$AA@ 0000000140042848     pjsip-core-x86_64-x64-vc14-release:sip_transport_tcp.obj
 0002:00002858       ??_C@_08MPFFJDIO@tcptp?3?$CFd?$AA@ 0000000140042858     pjsip-core-x86_64-x64-vc14-release:sip_transport_tcp.obj
 0002:00002868       ??_C@_0BJ@FIMDAGCE@tcp?5?$CFs?5?$FLpublished?5as?5?$CFs?$FN?$AA@ 0000000140042868     pjsip-core-x86_64-x64-vc14-release:sip_transport_tcp.obj
 0002:00002888       ??_C@_0DG@DPHCIHLF@SIP?5TCP?5listener?5ready?5for?5incom@ 0000000140042888     pjsip-core-x86_64-x64-vc14-release:sip_transport_tcp.obj
 0002:000028c0       ??_C@_0BP@LNLAIFOB@SIP?5TCP?5is?5ready?5?$CIclient?5only?$CJ?$AA@ 00000001400428c0     pjsip-core-x86_64-x64-vc14-release:sip_transport_tcp.obj
 0002:000028e0       ??_C@_05BHOEAFPA@tcptp?$AA@ 00000001400428e0     pjsip-core-x86_64-x64-vc14-release:sip_transport_tcp.obj
 0002:000028e8       ??_C@_01DHDKHMHF@6?$AA@    00000001400428e8     pjsip-core-x86_64-x64-vc14-release:sip_transport_tcp.obj
 0002:000028f0       ??_C@_0BM@HKGJKAHK@SIP?5TCP?5transport?5destroyed?$AA@ 00000001400428f0     pjsip-core-x86_64-x64-vc14-release:sip_transport_tcp.obj
 0002:0000290c       ??_C@_04FMMHFHOO@?$AN?6?$AN?6?$AA@ 000000014004290c     pjsip-core-x86_64-x64-vc14-release:sip_transport_tcp.obj
 0002:00002914       ??_C@_03FPEIBLKH@tcp?$AA@  0000000140042914     pjsip-core-x86_64-x64-vc14-release:sip_transport_tcp.obj
 0002:00002918       ??_C@_06GFDFLLAN@tcps?$CFp?$AA@ 0000000140042918     pjsip-core-x86_64-x64-vc14-release:sip_transport_tcp.obj
 0002:00002920       ??_C@_06DFCMOMJC@tcpc?$CFp?$AA@ 0000000140042920     pjsip-core-x86_64-x64-vc14-release:sip_transport_tcp.obj
 0002:00002928       ??_C@_08CNIFCNBJ@?$CFs?5to?5?$CFs?$AA@ 0000000140042928     pjsip-core-x86_64-x64-vc14-release:sip_transport_tcp.obj
 0002:00002938       ??_C@_0CB@FAAOBCNN@?4?4?2src?2pjsip?2sip_transport_tcp?4c@ 0000000140042938     pjsip-core-x86_64-x64-vc14-release:sip_transport_tcp.obj
 0002:0000295c       ??_C@_06HJHJCKIO@server?$AA@ 000000014004295c     pjsip-core-x86_64-x64-vc14-release:sip_transport_tcp.obj
 0002:00002964       ??_C@_06DGDLPBAN@client?$AA@ 0000000140042964     pjsip-core-x86_64-x64-vc14-release:sip_transport_tcp.obj
 0002:00002970       ??_C@_0BJ@DFHDKEKC@TCP?5?$CFs?5transport?5created?$AA@ 0000000140042970     pjsip-core-x86_64-x64-vc14-release:sip_transport_tcp.obj
 0002:00002990       ??_C@_0CL@FENNCGAI@TCP?5transport?5destroyed?5with?5rea@ 0000000140042990     pjsip-core-x86_64-x64-vc14-release:sip_transport_tcp.obj
 0002:000029c0       ??_C@_0CB@PCGILDE@TCP?5transport?5destroyed?5normally@ 00000001400429c0     pjsip-core-x86_64-x64-vc14-release:sip_transport_tcp.obj
 0002:000029e8       ??_C@_0BG@HHDCAEDN@Unable?5to?5create?5pool?$AA@ 00000001400429e8     pjsip-core-x86_64-x64-vc14-release:sip_transport_tcp.obj
 0002:00002a00       ??_C@_0CB@CONBMDOO@pj_activesock_start_read?$CI?$CJ?5error@ 0000000140042a00     pjsip-core-x86_64-x64-vc14-release:sip_transport_tcp.obj
 0002:00002a28       ??_C@_0BI@FPEGINLL@outgoing?5SIP?5TCP?5socket?$AA@ 0000000140042a28     pjsip-core-x86_64-x64-vc14-release:sip_transport_tcp.obj
 0002:00002a40       ??_C@_0CI@ILHHONCL@TCP?5transport?5?$CFs?5is?5connecting?5t@ 0000000140042a40     pjsip-core-x86_64-x64-vc14-release:sip_transport_tcp.obj
 0002:00002a68       ??_C@_0DO@EBBJGFLM@TCP?5listener?5?$CFs?3?5got?5incoming?5TC@ 0000000140042a68     pjsip-core-x86_64-x64-vc14-release:sip_transport_tcp.obj
 0002:00002aa8       ??_C@_0BI@LLEHCIEH@incoming?5SIP?5TCP?5socket?$AA@ 0000000140042aa8     pjsip-core-x86_64-x64-vc14-release:sip_transport_tcp.obj
 0002:00002ac0       ??_C@_0BI@EPFKOGCB@New?5transport?5cancelled?$AA@ 0000000140042ac0     pjsip-core-x86_64-x64-vc14-release:sip_transport_tcp.obj
 0002:00002ad8       ??_C@_0BK@CIEPOKAA@TCP?5send?$CI?$CJ?5error?0?5sent?$DN?$CFd?$AA@ 0000000140042ad8     pjsip-core-x86_64-x64-vc14-release:sip_transport_tcp.obj
 0002:00002af8       ??_C@_0BG@IILKCFP@TCP?5connection?5closed?$AA@ 0000000140042af8     pjsip-core-x86_64-x64-vc14-release:sip_transport_tcp.obj
 0002:00002b10       ??_C@_0BE@FIBBDPPG@TCP?5connect?$CI?$CJ?5error?$AA@ 0000000140042b10     pjsip-core-x86_64-x64-vc14-release:sip_transport_tcp.obj
 0002:00002b28       ??_C@_0CE@BPIOHMBA@TCP?5transport?5?$CFs?5is?5connected?5to@ 0000000140042b28     pjsip-core-x86_64-x64-vc14-release:sip_transport_tcp.obj
 0002:00002b50       ??_C@_0CE@CHIBLCGN@Sending?5?$CFd?5byte?$CIs?$CJ?5keep?9alive?5to@ 0000000140042b50     pjsip-core-x86_64-x64-vc14-release:sip_transport_tcp.obj
 0002:00002b78       ??_C@_0CA@COAPONPJ@Error?5sending?5keep?9alive?5packet?$AA@ 0000000140042b78     pjsip-core-x86_64-x64-vc14-release:sip_transport_tcp.obj
 0002:00002b98       ??_C@_0BI@POMKCEN@SIP?5TCP?5listener?5socket?$AA@ 0000000140042b98     pjsip-core-x86_64-x64-vc14-release:sip_transport_tcp.obj
 0002:00002bb0       ??_C@_0CF@JENAKNGB@Warning?3?5error?5applying?5SO_REUSE@ 0000000140042bb0     pjsip-core-x86_64-x64-vc14-release:sip_transport_tcp.obj
 0002:00002bd8       ??_C@_0O@CDKJIHHI@mod?9tsx?9layer?$AA@ 0000000140042bd8     pjsip-core-x86_64-x64-vc14-release:sip_transaction.obj
 0002:00002be8       ??_C@_0BC@LHFGMDJJ@sip_transaction?4c?$AA@ 0000000140042be8     pjsip-core-x86_64-x64-vc14-release:sip_transaction.obj
 0002:00002c00       ??_C@_0CC@CEIKILH@Stopping?5transaction?5layer?5modul@ 0000000140042c00     pjsip-core-x86_64-x64-vc14-release:sip_transaction.obj
 0002:00002c28       ??_C@_0CB@HOMFNBLL@Stopped?5transaction?5layer?5module@ 0000000140042c28     pjsip-core-x86_64-x64-vc14-release:sip_transaction.obj
 0002:00002c50       ??_C@_0CD@MKMHPCL@Transaction?5layer?5module?5destroy@ 0000000140042c50     pjsip-core-x86_64-x64-vc14-release:sip_transaction.obj
 0002:00002c78       ??_C@_0DF@EFJDAPKP@Failed?5to?5register?5transaction?5l@ 0000000140042c78     pjsip-core-x86_64-x64-vc14-release:sip_transaction.obj
 0002:00002cb0       ??_C@_04KHKKIIL@Null?$AA@  0000000140042cb0     pjsip-core-x86_64-x64-vc14-release:sip_transaction.obj
 0002:00002cb8       ??_C@_07BNCBFEGH@Calling?$AA@ 0000000140042cb8     pjsip-core-x86_64-x64-vc14-release:sip_transaction.obj
 0002:00002cc0       ??_C@_0L@BKKAFK@Proceeding?$AA@ 0000000140042cc0     pjsip-core-x86_64-x64-vc14-release:sip_transaction.obj
 0002:00002cd0       ??_C@_09MIJAKHKB@Completed?$AA@ 0000000140042cd0     pjsip-core-x86_64-x64-vc14-release:sip_transaction.obj
 0002:00002ce0       ??_C@_09ONANMLIC@Confirmed?$AA@ 0000000140042ce0     pjsip-core-x86_64-x64-vc14-release:sip_transaction.obj
 0002:00002cf0       ??_C@_0L@NNDINIPK@Terminated?$AA@ 0000000140042cf0     pjsip-core-x86_64-x64-vc14-release:sip_transaction.obj
 0002:00002d00       ??_C@_09KDBKJCNL@Destroyed?$AA@ 0000000140042d00     pjsip-core-x86_64-x64-vc14-release:sip_transaction.obj
 0002:00002d0c       ??_C@_03IIGECEEC@UAC?$AA@  0000000140042d0c     pjsip-core-x86_64-x64-vc14-release:sip_transaction.obj
 0002:00002d10       ??_C@_03MCKGDGBD@UAS?$AA@  0000000140042d10     pjsip-core-x86_64-x64-vc14-release:sip_transaction.obj
 0002:00002d18       ??_C@_08NHKHBNMC@tsxlayer?$AA@ 0000000140042d18     pjsip-core-x86_64-x64-vc14-release:sip_transaction.obj
 0002:00002d28       ??_C@_0DB@ELBLLJGF@Unable?5to?5register?5?$CF?4?$CKs?5transact@ 0000000140042d28     pjsip-core-x86_64-x64-vc14-release:sip_transaction.obj
 0002:00002d60       ??_C@_0BP@NDEMGLBN@?4?4?2src?2pjsip?2sip_transaction?4c?$AA@ 0000000140042d60     pjsip-core-x86_64-x64-vc14-release:sip_transaction.obj
 0002:00002d80       ??_C@_03ILLHDCNP@tsx?$AA@  0000000140042d80     pjsip-core-x86_64-x64-vc14-release:sip_transaction.obj
 0002:00002d84       ??_C@_05NPMOPOBK@tsx?$CFp?$AA@ 0000000140042d84     pjsip-core-x86_64-x64-vc14-release:sip_transaction.obj
 0002:00002d90       ??_C@_0BH@PDBDIMMK@Transaction?5destroyed?$CB?$AA@ 0000000140042d90     pjsip-core-x86_64-x64-vc14-release:sip_transaction.obj
 0002:00002da8       ??_C@_0DE@PFNICBJL@Will?5destroy?5later?5because?5trans@ 0000000140042da8     pjsip-core-x86_64-x64-vc14-release:sip_transaction.obj
 0002:00002de0       ??_C@_0L@KEAKDBBB@Retransmit?$AA@ 0000000140042de0     pjsip-core-x86_64-x64-vc14-release:sip_transaction.obj
 0002:00002df0       ??_C@_07MKALMBDJ@Timeout?$AA@ 0000000140042df0     pjsip-core-x86_64-x64-vc14-release:sip_transaction.obj
 0002:00002df8       ??_C@_0P@ICKHIBGF@?$CFs?5timer?5event?$AA@ 0000000140042df8     pjsip-core-x86_64-x64-vc14-release:sip_transaction.obj
 0002:00002e08       ??_C@_0CG@BHDJKKPD@State?5changed?5from?5?$CFs?5to?5?$CFs?0?5eve@ 0000000140042e08     pjsip-core-x86_64-x64-vc14-release:sip_transaction.obj
 0002:00002e30       ??_C@_0BL@NELPIPFA@Transaction?5created?5for?5?$CFs?$AA@ 0000000140042e30     pjsip-core-x86_64-x64-vc14-release:sip_transaction.obj
 0002:00002e50       ??_C@_0ED@IJNOFMME@Error?3?5CSeq?5header?5contains?5diff@ 0000000140042e50     pjsip-core-x86_64-x64-vc14-release:sip_transaction.obj
 0002:00002e98       ??_C@_0CB@LPCILHMH@Request?5to?5terminate?5transaction@ 0000000140042e98     pjsip-core-x86_64-x64-vc14-release:sip_transaction.obj
 0002:00002ec0       ??_C@_0BH@NJDAONCL@Sending?5?$CFs?5in?5state?5?$CFs?$AA@ 0000000140042ec0     pjsip-core-x86_64-x64-vc14-release:sip_transaction.obj
 0002:00002ed8       ??_C@_0BI@PADDBGDM@Incoming?5?$CFs?5in?5state?5?$CFs?$AA@ 0000000140042ed8     pjsip-core-x86_64-x64-vc14-release:sip_transaction.obj
 0002:00002ef0       ??_C@_0BP@MFDMMFDJ@Failed?5to?5send?5?$CFs?$CB?5err?$DN?$CFd?5?$CI?$CFs?$CJ?$AA@ 0000000140042ef0     pjsip-core-x86_64-x64-vc14-release:sip_transaction.obj
 0002:00002f10       ??_C@_0DG@HCJJGEJB@Temporary?5failure?5in?5sending?5?$CFs?0@ 0000000140042f10     pjsip-core-x86_64-x64-vc14-release:sip_transaction.obj
 0002:00002f48       ??_C@_0BN@PMBJJBK@Transport?5failed?5to?5send?5?$CFs?$CB?$AA@ 0000000140042f48     pjsip-core-x86_64-x64-vc14-release:sip_transaction.obj
 0002:00002f68       ??_C@_0BB@HMFOJBGF@Error?5sending?5?$CFs?$AA@ 0000000140042f68     pjsip-core-x86_64-x64-vc14-release:sip_transaction.obj
 0002:00002f80       ??_C@_0DG@EDJHIGCF@Transport?5error?0?5terminating?5tra@ 0000000140042f80     pjsip-core-x86_64-x64-vc14-release:sip_transaction.obj
 0002:00002fb8       ??_C@_0CI@CEFAFFOL@Retransmiting?5?$CFs?0?5count?$DN?$CFd?0?5rest@ 0000000140042fb8     pjsip-core-x86_64-x64-vc14-release:sip_transaction.obj
 0002:00002fe0       ??_C@_0CK@BFJIAGKI@Received?5illegal?5ACK?5for?5?$CF?4?$CKs?5tr@ 0000000140042fe0     pjsip-core-x86_64-x64-vc14-release:sip_transaction.obj
 0002:00003010       ??_C@_0DE@OALAGOOG@Unable?5to?5find?5dialogset?5for?5?$CFs?0@ 0000000140043010     pjsip-core-x86_64-x64-vc14-release:sip_ua_layer.obj
 0002:00003048       ??_C@_0P@JPGJPHAN@sip_ua_layer?4c?$AA@ 0000000140043048     pjsip-core-x86_64-x64-vc14-release:sip_ua_layer.obj
 0002:00003058       ??_C@_0DB@GAIHGHNL@Unable?5to?5find?5dialog?5for?5?$CFs?0?5an@ 0000000140043058     pjsip-core-x86_64-x64-vc14-release:sip_ua_layer.obj
 0002:00003090       ??_C@_0BN@IDPPCIAF@Unable?5to?5find?5dialog?5for?5?$CFs?$AA@ 0000000140043090     pjsip-core-x86_64-x64-vc14-release:sip_ua_layer.obj
 0002:000030b0       ??_C@_0EC@DDCMMPIA@Received?5strayed?52xx?5response?5?$CIn@ 00000001400430b0     pjsip-core-x86_64-x64-vc14-release:sip_ua_layer.obj
 0002:000030f8       ??_C@_0CK@KFGINAJM@Received?5forked?5?$CFs?5for?5existing?5@ 00000001400430f8     pjsip-core-x86_64-x64-vc14-release:sip_ua_layer.obj
 0002:00003130       ??_C@_0FB@ELNGKJEC@Unhandled?5forked?5?$CFs?5from?5?$CFs?3?$CFd?0?5@ 0000000140043130     pjsip-core-x86_64-x64-vc14-release:sip_ua_layer.obj
 0002:00003184       ??_C@_06GBGGOGBI@mod?9ua?$AA@ 0000000140043184     pjsip-core-x86_64-x64-vc14-release:sip_ua_layer.obj
 0002:0000318c       ??_C@_04JKMMAKMG@ua?$CFp?$AA@ 000000014004318c     pjsip-core-x86_64-x64-vc14-release:sip_ua_layer.obj
 0002:00003194       ??_C@_05OKIAFJEO@?5ua?$CFp?$AA@ 0000000140043194     pjsip-core-x86_64-x64-vc14-release:sip_ua_layer.obj
 0002:0000319c       ??_C@_02DKCKIIND@?$CFs?$AA@ 000000014004319c     pjsip-core-x86_64-x64-vc14-release:sip_ua_layer.obj
 0002:000031b0       ??_C@_09NMAFIJHB@SUBSCRIBE?$AA@ 00000001400431b0     pjsip-core-x86_64-x64-vc14-release:sip_dialog.obj
 0002:000031bc       ??_C@_05NPMLFHIF@REFER?$AA@ 00000001400431bc     pjsip-core-x86_64-x64-vc14-release:sip_dialog.obj
 0002:000031c4       ??_C@_06LMEIPPMP@NOTIFY?$AA@ 00000001400431c4     pjsip-core-x86_64-x64-vc14-release:sip_dialog.obj
 0002:000031d0       ??_C@_0BC@JFFBENNO@Dialog?5destroyed?$CB?$AA@ 00000001400431d0     pjsip-core-x86_64-x64-vc14-release:sip_dialog.obj
 0002:000031e4       ??_C@_05DGNCLLBL@dlg?$CFp?$AA@ 00000001400431e4     pjsip-core-x86_64-x64-vc14-release:sip_dialog.obj
 0002:000031f0       ??_C@_0BD@BNDBFEIG@UAC?5dialog?5created?$AA@ 00000001400431f0     pjsip-core-x86_64-x64-vc14-release:sip_dialog.obj
 0002:00003208       ??_C@_0BD@KGAMNPL@UAS?5dialog?5created?$AA@ 0000000140043208     pjsip-core-x86_64-x64-vc14-release:sip_dialog.obj
 0002:00003220       ??_C@_0CA@PEKDEADC@Session?5count?5inc?5to?5?$CFd?5by?5?$CF?4?$CKs?$AA@ 0000000140043220     pjsip-core-x86_64-x64-vc14-release:sip_dialog.obj
 0002:00003240       ??_C@_0CA@LCICJLMD@Session?5count?5dec?5to?5?$CFd?5by?5?$CF?4?$CKs?$AA@ 0000000140043240     pjsip-core-x86_64-x64-vc14-release:sip_dialog.obj
 0002:00003260       ??_C@_0CL@CCAGPMOP@Module?5?$CF?4?$CKs?5added?5as?5dialog?5usag@ 0000000140043260     pjsip-core-x86_64-x64-vc14-release:sip_dialog.obj
 0002:00003290       ??_C@_0EF@MJEHGCLG@Module?5?$CF?4?$CKs?5already?5registered?5a@ 0000000140043290     pjsip-core-x86_64-x64-vc14-release:sip_dialog.obj
 0002:000032d8       ??_C@_0N@KJDPOPHI@sip_dialog?4c?$AA@ 00000001400432d8     pjsip-core-x86_64-x64-vc14-release:sip_dialog.obj
 0002:000032e8       ??_C@_0BD@BIMNNBFF@Failed?5to?5send?5?$CFs?$CB?$AA@ 00000001400432e8     pjsip-core-x86_64-x64-vc14-release:sip_dialog.obj
 0002:00003300       ??_C@_0M@LHPMKMAE@Received?5?$CFs?$AA@ 0000000140043300     pjsip-core-x86_64-x64-vc14-release:sip_dialog.obj
 0002:00003310       ??_C@_0N@JADHANJP@Invalid?5CSeq?$AA@ 0000000140043310     pjsip-core-x86_64-x64-vc14-release:sip_dialog.obj
 0002:00003320       ??_C@_0BL@HAJOOCAF@Unhandled?5by?5dialog?5usages?$AA@ 0000000140043320     pjsip-core-x86_64-x64-vc14-release:sip_dialog.obj
 0002:00003340       ??_C@_0DI@GPBFFFGN@?$CFs?5was?5unhandled?5by?5dialog?5usage@ 0000000140043340     pjsip-core-x86_64-x64-vc14-release:sip_dialog.obj
 0002:00003378       ??_C@_0BC@PCHBAKGP@Route?9set?5updated?$AA@ 0000000140043378     pjsip-core-x86_64-x64-vc14-release:sip_dialog.obj
 0002:00003390       ??_C@_0BB@EMPDFCEJ@Route?9set?5frozen?$AA@ 0000000140043390     pjsip-core-x86_64-x64-vc14-release:sip_dialog.obj
 0002:000033a8       ??_C@_0CD@PIHECLAB@Transaction?5?$CFs?5state?5changed?5to?5@ 00000001400433a8     pjsip-core-x86_64-x64-vc14-release:sip_dialog.obj
 0002:000033d0       ??_C@_0BB@JCEFLFJE@0123456789abcdef?$AA@ 00000001400433d0     pjsip-core-x86_64-x64-vc14-release:sip_auth_client.obj
 0002:000033e4       ??_C@_01JLIPDDHJ@?3?$AA@   00000001400433e4     pjsip-core-x86_64-x64-vc14-release:sip_auth_client.obj
 0002:000033e8       ??_C@_09BBOOBJFI@AKAv1?9MD5?$AA@ 00000001400433e8     pjsip-core-x86_64-x64-vc14-release:sip_auth_client.obj
 0002:000033f8       ??_C@_0CE@PAGGDDKM@Unsupported?5digest?5algorithm?5?$CC?$CF?4@ 00000001400433f8     pjsip-core-x86_64-x64-vc14-release:sip_auth_client.obj
 0002:00003420       ??_C@_0BC@IFICLNCF@sip_auth_client?4c?$AA@ 0000000140043420     pjsip-core-x86_64-x64-vc14-release:sip_auth_client.obj
 0002:00003434       ??_C@_04LIOHGJKM@?$CF08u?$AA@ 0000000140043434     pjsip-core-x86_64-x64-vc14-release:sip_auth_client.obj
 0002:0000343c       ??_C@_06DKDPJBDF@b39971?$AA@ 000000014004343c     pjsip-core-x86_64-x64-vc14-release:sip_auth_client.obj
 0002:00003448       ??_C@_0BL@DHABBKFJ@Unsupported?5qop?5offer?5?$CF?4?$CKs?$AA@ 0000000140043448     pjsip-core-x86_64-x64-vc14-release:sip_auth_client.obj
 0002:00003468       ??_C@_0L@OLKLFLHC@auth_cli?$CFp?$AA@ 0000000140043468     pjsip-core-x86_64-x64-vc14-release:sip_auth_client.obj
 0002:00003480       ??_C@_0EF@GMAJJJPM@Authorization?5failed?5for?5?$CF?4?$CKs?$EA?$CF?4@ 0000000140043480     pjsip-core-x86_64-x64-vc14-release:sip_auth_client.obj
 0002:000034d0       ??_C@_0EN@FFFABAE@Authorization?5failed?5for?5?$CF?4?$CKs?$EA?$CF?4@ 00000001400434d0     pjsip-core-x86_64-x64-vc14-release:sip_auth_client.obj
 0002:00003520       ??_C@_0EB@PMHMAEL@Unable?5to?5set?5auth?5for?5?$CFs?3?5can?5n@ 0000000140043520     pjsip-core-x86_64-x64-vc14-release:sip_auth_client.obj
 0002:00003564       ??_C@_04CCHAHKJA@user?$AA@ 0000000140043564     pjsip-core-x86_64-x64-vc14-release:sip_parser.obj
 0002:0000356c       ??_C@_06GABBCIBA@method?$AA@ 000000014004356c     pjsip-core-x86_64-x64-vc14-release:sip_parser.obj
 0002:00003578       ??_C@_09PBENLGJM@transport?$AA@ 0000000140043578     pjsip-core-x86_64-x64-vc14-release:sip_parser.obj
 0002:00003584       ??_C@_05LIJGAEPJ@maddr?$AA@ 0000000140043584     pjsip-core-x86_64-x64-vc14-release:sip_parser.obj
 0002:0000358c       ??_C@_02FMHKAPNN@lr?$AA@   000000014004358c     pjsip-core-x86_64-x64-vc14-release:sip_parser.obj
 0002:00003590       ??_C@_03LNLCDKEI@tel?$AA@  0000000140043590     pjsip-core-x86_64-x64-vc14-release:sip_parser.obj
 0002:00003594       ??_C@_06KAEOJLJM@branch?$AA@ 0000000140043594     pjsip-core-x86_64-x64-vc14-release:sip_parser.obj
 0002:0000359c       ??_C@_03KAFGPDAP@ttl?$AA@  000000014004359c     pjsip-core-x86_64-x64-vc14-release:sip_parser.obj
 0002:000035a0       ??_C@_08CIDECLFI@received?$AA@ 00000001400435a0     pjsip-core-x86_64-x64-vc14-release:sip_parser.obj
 0002:000035ac       ??_C@_01IIACKFLH@q?$AA@    00000001400435ac     pjsip-core-x86_64-x64-vc14-release:sip_parser.obj
 0002:000035b0       ??_C@_07MJGJEDBB@expires?$AA@ 00000001400435b0     pjsip-core-x86_64-x64-vc14-release:sip_parser.obj
 0002:000035b8       ??_C@_03FJEPELFP@tag?$AA@  00000001400435b8     pjsip-core-x86_64-x64-vc14-release:sip_parser.obj
 0002:000035bc       ??_C@_05IOGGPFMA@rport?$AA@ 00000001400435bc     pjsip-core-x86_64-x64-vc14-release:sip_parser.obj
 0002:000035d0       ??_C@_0EG@NDDOOCLK@NULL?5input?5string?0?5invalid?5input@ 00000001400435d0     pjsip-core-x86_64-x64-vc14-release:sip_parser.obj
 0002:00003618       ??_C@_0DG@PAKEPEOC@String?5value?5was?5less?5than?5the?5m@ 0000000140043618     pjsip-core-x86_64-x64-vc14-release:sip_parser.obj
 0002:00003650       ??_C@_0DJ@LBDEGIMP@String?5value?5was?5greater?5than?5th@ 0000000140043650     pjsip-core-x86_64-x64-vc14-release:sip_parser.obj
 0002:00003690       ??_C@_0O@NIPGCINC@Unknown?5error?$AA@ 0000000140043690     pjsip-core-x86_64-x64-vc14-release:sip_parser.obj
 0002:000036a0       ??_C@_0BJ@JCIGOHAI@Error?5parsing?5?8?$CF?4?$CKs?8?3?5?$CFs?$AA@ 00000001400436a0     pjsip-core-x86_64-x64-vc14-release:sip_parser.obj
 0002:000036c0       ??_C@_0N@CDHGOKB@sip_parser?4c?$AA@ 00000001400436c0     pjsip-core-x86_64-x64-vc14-release:sip_parser.obj
 0002:000036d0       ??_C@_0BN@NMLJIDND@Can?8t?5parse?5input?5string?3?5?$CFs?$AA@ 00000001400436d0     pjsip-core-x86_64-x64-vc14-release:sip_parser.obj
 0002:000036f0       ??_C@_0BD@IGJCFAAL@PJSIP?5syntax?5error?$AA@ 00000001400436f0     pjsip-core-x86_64-x64-vc14-release:sip_parser.obj
 0002:00003708       ??_C@_0BK@PNNGKLIN@PJSIP?5invalid?5value?5error?$AA@ 0000000140043708     pjsip-core-x86_64-x64-vc14-release:sip_parser.obj
 0002:00003724       ??_C@_02PCIJFNDE@?$AN?6?$AA@ 0000000140043724     pjsip-core-x86_64-x64-vc14-release:sip_parser.obj
 0002:00003728       ??_C@_03MGGIELLM@?0?$AN?6?$AA@ 0000000140043728     pjsip-core-x86_64-x64-vc14-release:sip_parser.obj
 0002:00003730       ??_C@_0L@LGCFMBHL@?9?4?$CB?$CF?$CK_?$GA?8?$HO?$CL?$AA@ 0000000140043730     pjsip-core-x86_64-x64-vc14-release:sip_parser.obj
 0002:0000373c       ??_C@_01FGNFDNOH@?$CF?$AA@ 000000014004373c     pjsip-core-x86_64-x64-vc14-release:sip_parser.obj
 0002:00003740       ??_C@_03OEFOOLBP@?$FL?3?$FN?$AA@ 0000000140043740     pjsip-core-x86_64-x64-vc14-release:sip_parser.obj
 0002:00003744       ??_C@_03HGEHODII@_?9?4?$AA@ 0000000140043744     pjsip-core-x86_64-x64-vc14-release:sip_parser.obj
 0002:00003748       ??_C@_0N@INHGOOCE@abcdefABCDEF?$AA@ 0000000140043748     pjsip-core-x86_64-x64-vc14-release:sip_parser.obj
 0002:00003758       ??_C@_0BC@EIHPKHIH@?$FL?$FN?1?3?$CG?$CL$?9_?4?$CB?$HO?$CK?8?$CI?$CJ?$CF?$AA@ 0000000140043758     pjsip-core-x86_64-x64-vc14-release:sip_parser.obj
 0002:00003770       ??_C@_0BC@DHLPLEEN@?$FL?$FN?1?$DP?3?$CL$?9_?4?$CB?$HO?$CK?8?$CI?$CJ?$CF?$AA@ 0000000140043770     pjsip-core-x86_64-x64-vc14-release:sip_parser.obj
 0002:00003788       ??_C@_0BD@FAKEDBHK@?9_?4?$CB?$HO?$CK?8?$CI?$CJ?$CF?$CG?$DN?$CL$?0?$DL?$DP?1?$AA@ 0000000140043788     pjsip-core-x86_64-x64-vc14-release:sip_parser.obj
 0002:0000379c       ??_C@_01IPJKGB@?$CD?$AA@   000000014004379c     pjsip-core-x86_64-x64-vc14-release:sip_parser.obj
 0002:000037a0       ??_C@_0BA@GJPAFF@?9_?4?$CB?$HO?$CK?8?$CI?$CJ?$CF?$CG?$DN?$CL$?0?$AA@ 00000001400437a0     pjsip-core-x86_64-x64-vc14-release:sip_parser.obj
 0002:000037b0       ??_C@_04INEOGBDO@?$EA?5?6?$DO?$AA@ 00000001400437b0     pjsip-core-x86_64-x64-vc14-release:sip_parser.obj
 0002:000037b8       ??_C@_04FOECIMDB@?3?$AN?6?$DM?$AA@ 00000001400437b8     pjsip-core-x86_64-x64-vc14-release:sip_parser.obj
 0002:000037c0       ??_C@_0BH@KMKLEGFJ@?$CD?$DP?$DL?3?$EA?$CG?$DN?$CL?9_?4?$CB?$HO?$CK?8?$CI?$CJ?$CF$?0?1?$CF?$AA@ 00000001400437c0     pjsip-core-x86_64-x64-vc14-release:sip_parser.obj
 0002:000037d8       ??_C@_03EDDBLLFO@?6?$AN?6?$AA@ 00000001400437d8     pjsip-core-x86_64-x64-vc14-release:sip_parser.obj
 0002:000037dc       ??_C@_03MCPDGLLE@SIP?$AA@  00000001400437dc     pjsip-core-x86_64-x64-vc14-release:sip_parser.obj
 0002:000037e0       ??_C@_03GJAMENNA@2?40?$AA@ 00000001400437e0     pjsip-core-x86_64-x64-vc14-release:sip_parser.obj
 0002:000037e8       ??_C@_0N@KMCODECP@Request?5Line?$AA@ 00000001400437e8     pjsip-core-x86_64-x64-vc14-release:sip_parser.obj
 0002:000037f8       ??_C@_0M@KNCMEJPH@Status?5Line?$AA@ 00000001400437f8     pjsip-core-x86_64-x64-vc14-release:sip_parser.obj
 0002:00003804       ??_C@_01CLKCMJKC@?5?$AA@   0000000140043804     pjsip-core-x86_64-x64-vc14-release:sip_parser.obj
 0002:00003808       ??_C@_0CM@MBFLJJMP@Error?5parsing?5header?3?5?8?$CF?4?$CKs?8?5lin@ 0000000140043808     pjsip-core-x86_64-x64-vc14-release:sip_parser.obj
 0002:00003838       ??_C@_08KIKGFOKI@boundary?$AA@ 0000000140043838     pjsip-core-x86_64-x64-vc14-release:sip_multipart.obj
 0002:00003848       ??_C@_0CI@MEJEAPPA@Warning?3?5error?5parsing?5multipart@ 0000000140043848     pjsip-core-x86_64-x64-vc14-release:sip_multipart.obj
 0002:00003870       ??_C@_0BA@LBAHDFBC@sip_multipart?4c?$AA@ 0000000140043870     pjsip-core-x86_64-x64-vc14-release:sip_multipart.obj
 0002:00003880       ??_C@_06IJPNAHC@digest?$AA@ 0000000140043880     pjsip-core-x86_64-x64-vc14-release:sip_multipart.obj
 0002:00003888       ??_C@_07ONPBMBOP@message?$AA@ 0000000140043888     pjsip-core-x86_64-x64-vc14-release:sip_multipart.obj
 0002:00003890       ??_C@_06OGFLLFJI@rfc822?$AA@ 0000000140043890     pjsip-core-x86_64-x64-vc14-release:sip_multipart.obj
 0002:000038a0       ??_C@_0FD@FFFCNLOH@Warning?3?5boundary?5parameter?5not?5@ 00000001400438a0     pjsip-core-x86_64-x64-vc14-release:sip_multipart.obj
 0002:00003900       ??_C@_0EO@HHPEFGCJ@Error?3?5multipart?5boundary?5not?5sp@ 0000000140043900     pjsip-core-x86_64-x64-vc14-release:sip_multipart.obj
 0002:00003950       ??_C@_06BMAPCEPF@?$DLuser?$DN?$AA@ 0000000140043950     pjsip-core-x86_64-x64-vc14-release:sip_uri.obj
 0002:00003958       ??_C@_08FIHANMDK@?$DLmethod?$DN?$AA@ 0000000140043958     pjsip-core-x86_64-x64-vc14-release:sip_uri.obj
 0002:00003968       ??_C@_0M@OGEJDPOO@?$DLtransport?$DN?$AA@ 0000000140043968     pjsip-core-x86_64-x64-vc14-release:sip_uri.obj
 0002:00003974       ??_C@_03KFFFHGHD@?$DLlr?$AA@ 0000000140043974     pjsip-core-x86_64-x64-vc14-release:sip_uri.obj
 0002:00003980       ??_C@_0FJ@MFGCGKIL@DNS?5resolver?5not?5available?0?5targ@ 0000000140043980     pjsip-core-x86_64-x64-vc14-release:sip_resolve.obj
 0002:000039e0       ??_C@_0O@DMBGNNMG@sip_resolve?4c?$AA@ 00000001400439e0     pjsip-core-x86_64-x64-vc14-release:sip_resolve.obj
 0002:000039f0       ??_C@_0DH@DPGIKKNN@Target?5?8?$CF?4?$CKs?3?$CFd?8?5type?$DN?$CFs?5resolve@ 00000001400439f0     pjsip-core-x86_64-x64-vc14-release:sip_resolve.obj
 0002:00003a28       ??_C@_0M@EKOGDFHO@_sips?4_tcp?4?$AA@ 0000000140043a28     pjsip-core-x86_64-x64-vc14-release:sip_resolve.obj
 0002:00003a38       ??_C@_0L@CGLNHIHI@_sip?4_tcp?4?$AA@ 0000000140043a38     pjsip-core-x86_64-x64-vc14-release:sip_resolve.obj
 0002:00003a48       ??_C@_0L@IGAKGJHB@_sip?4_udp?4?$AA@ 0000000140043a48     pjsip-core-x86_64-x64-vc14-release:sip_resolve.obj
 0002:00003a60       ??_C@_0EE@KKBDDFND@Starting?5async?5DNS?5?$CFs?5query?3?5tar@ 0000000140043a60     pjsip-core-x86_64-x64-vc14-release:sip_resolve.obj
 0002:00003aa8       ??_C@_0BJ@LIPABGDO@Failed?5to?5resolve?5?8?$CF?4?$CKs?8?$AA@ 0000000140043aa8     pjsip-core-x86_64-x64-vc14-release:sip_resolve.obj
 0002:00003ac8       ??_C@_0BP@NGGNJHPJ@DNS?5A?5record?5resolution?5failed?$AA@ 0000000140043ac8     pjsip-core-x86_64-x64-vc14-release:sip_resolve.obj
 0002:00003ae8       ??_C@_0CC@PEAOFPBC@DNS?5AAAA?5record?5resolution?5faile@ 0000000140043ae8     pjsip-core-x86_64-x64-vc14-release:sip_resolve.obj
 0002:00003b10       ??_C@_0CE@PFLKGBGN@DNS?5A?1AAAA?5record?5resolution?5fai@ 0000000140043b10     pjsip-core-x86_64-x64-vc14-release:sip_resolve.obj
 0002:00004010       ??_C@_0BN@NDHPCAAG@Object?5is?5busy?5?$CIPJSIP_EBUSY?$CJ?$AA@ 0000000140044010     pjsip-core-x86_64-x64-vc14-release:sip_errno.obj
 0002:00004030       ??_C@_0DF@LHIGDAHP@Object?5with?5the?5same?5type?5exists@ 0000000140044030     pjsip-core-x86_64-x64-vc14-release:sip_errno.obj
 0002:00004068       ??_C@_0CK@JJDNDGNE@SIP?5stack?5shutting?5down?5?$CIPJSIP_E@ 0000000140044068     pjsip-core-x86_64-x64-vc14-release:sip_errno.obj
 0002:00004098       ??_C@_0DH@GEJHNFDM@SIP?5object?5is?5not?5initialized?4?5?$CI@ 0000000140044098     pjsip-core-x86_64-x64-vc14-release:sip_errno.obj
 0002:000040d0       ??_C@_0DF@DFCKLJD@Missing?5route?5set?5?$CIfor?5tel?3?5URI?$CJ@ 00000001400440d0     pjsip-core-x86_64-x64-vc14-release:sip_errno.obj
 0002:00004108       ??_C@_0DB@LNGCHBD@Invalid?5message?1syntax?5error?5?$CIPJ@ 0000000140044108     pjsip-core-x86_64-x64-vc14-release:sip_errno.obj
 0002:00004140       ??_C@_0DB@NNKMNMEK@Expecting?5request?5message?5?$CIPJSIP@ 0000000140044140     pjsip-core-x86_64-x64-vc14-release:sip_errno.obj
 0002:00004178       ??_C@_0DD@MODFKCPK@Expecting?5response?5message?5?$CIPJSI@ 0000000140044178     pjsip-core-x86_64-x64-vc14-release:sip_errno.obj
 0002:000041b0       ??_C@_0CF@NOACODOC@Message?5too?5long?5?$CIPJSIP_EMSGTOOL@ 00000001400441b0     pjsip-core-x86_64-x64-vc14-release:sip_errno.obj
 0002:000041d8       ??_C@_0CE@FONCLLMK@Partial?5message?5?$CIPJSIP_EPARTIALM@ 00000001400441d8     pjsip-core-x86_64-x64-vc14-release:sip_errno.obj
 0002:00004200       ??_C@_0DK@HMGLEHFD@Invalid?1unexpected?5SIP?5status?5co@ 0000000140044200     pjsip-core-x86_64-x64-vc14-release:sip_errno.obj
 0002:00004240       ??_C@_0CA@ICJGNPBL@Invalid?5URI?5?$CIPJSIP_EINVALIDURI?$CJ?$AA@ 0000000140044240     pjsip-core-x86_64-x64-vc14-release:sip_errno.obj
 0002:00004260       ??_C@_0CK@PDIHHAGH@Invalid?5URI?5scheme?5?$CIPJSIP_EINVAL@ 0000000140044260     pjsip-core-x86_64-x64-vc14-release:sip_errno.obj
 0002:00004290       ??_C@_0CL@FGPCAKCH@Missing?5Request?9URI?5?$CIPJSIP_EMISS@ 0000000140044290     pjsip-core-x86_64-x64-vc14-release:sip_errno.obj
 0002:000042c0       ??_C@_0CL@JOKFDOLI@Invalid?5Request?5URI?5?$CIPJSIP_EINVA@ 00000001400442c0     pjsip-core-x86_64-x64-vc14-release:sip_errno.obj
 0002:000042f0       ??_C@_0CE@NBJPLEOO@URI?5is?5too?5long?5?$CIPJSIP_EURITOOLO@ 00000001400442f0     pjsip-core-x86_64-x64-vc14-release:sip_errno.obj
 0002:00004318       ??_C@_0CP@PNHNBIME@Missing?5required?5header?$CIs?$CJ?5?$CIPJSI@ 0000000140044318     pjsip-core-x86_64-x64-vc14-release:sip_errno.obj
 0002:00004348       ??_C@_0CJ@GFIBJIAO@Invalid?5header?5field?5?$CIPJSIP_EINV@ 0000000140044348     pjsip-core-x86_64-x64-vc14-release:sip_errno.obj
 0002:00004378       ??_C@_0CH@NDGOCBBP@Invalid?5Via?5header?5?$CIPJSIP_EINVAL@ 0000000140044378     pjsip-core-x86_64-x64-vc14-release:sip_errno.obj
 0002:000043a0       ??_C@_0DG@HLMABLPG@Multiple?5Via?5headers?5in?5response@ 00000001400443a0     pjsip-core-x86_64-x64-vc14-release:sip_errno.obj
 0002:000043d8       ??_C@_0CK@LJCOFGPN@Missing?5message?5body?5?$CIPJSIP_EMIS@ 00000001400443d8     pjsip-core-x86_64-x64-vc14-release:sip_errno.obj
 0002:00004408       ??_C@_0DB@NINEONMP@Invalid?1unexpected?5method?5?$CIPJSIP@ 0000000140044408     pjsip-core-x86_64-x64-vc14-release:sip_errno.obj
 0002:00004440       ??_C@_0CO@MKNJKJDL@Unsupported?5transport?5?$CIPJSIP_EUN@ 0000000140044440     pjsip-core-x86_64-x64-vc14-release:sip_errno.obj
 0002:00004470       ??_C@_0DD@FMJGJHHJ@Transmit?5buffer?5already?5pending?5@ 0000000140044470     pjsip-core-x86_64-x64-vc14-release:sip_errno.obj
 0002:000044a8       ??_C@_0CH@FGKEPDFL@Rx?5buffer?5overflow?5?$CIPJSIP_ERXOVE@ 00000001400444a8     pjsip-core-x86_64-x64-vc14-release:sip_errno.obj
 0002:000044d0       ??_C@_0CH@IPJBAOPN@Buffer?5destroyed?5?$CIPJSIP_EBUFDEST@ 00000001400444d0     pjsip-core-x86_64-x64-vc14-release:sip_errno.obj
 0002:000044f8       ??_C@_0DF@PBAMDOH@Unsuitable?5transport?5selected?5?$CIP@ 00000001400444f8     pjsip-core-x86_64-x64-vc14-release:sip_errno.obj
 0002:00004530       ??_C@_0DE@NJLNEKOM@Transport?5not?5available?5for?5use?5@ 0000000140044530     pjsip-core-x86_64-x64-vc14-release:sip_errno.obj
 0002:00004568       ??_C@_0DF@DPMOHHML@Transaction?5has?5been?5destroyed?5?$CI@ 0000000140044568     pjsip-core-x86_64-x64-vc14-release:sip_errno.obj
 0002:000045a0       ??_C@_0FM@JGDLJGMK@No?5transaction?5is?5associated?5wit@ 00000001400445a0     pjsip-core-x86_64-x64-vc14-release:sip_errno.obj
 0002:00004600       ??_C@_0CH@EBPFAGMB@URI?5scheme?5mismatch?5?$CIPJSIP_ECMPS@ 0000000140044600     pjsip-core-x86_64-x64-vc14-release:sip_errno.obj
 0002:00004628       ??_C@_0CI@DCNDLDIL@URI?5user?5part?5mismatch?5?$CIPJSIP_EC@ 0000000140044628     pjsip-core-x86_64-x64-vc14-release:sip_errno.obj
 0002:00004650       ??_C@_0CO@NLCBDNGP@URI?5password?5part?5mismatch?5?$CIPJSI@ 0000000140044650     pjsip-core-x86_64-x64-vc14-release:sip_errno.obj
 0002:00004680       ??_C@_0CI@CAAENIBN@URI?5host?5part?5mismatch?5?$CIPJSIP_EC@ 0000000140044680     pjsip-core-x86_64-x64-vc14-release:sip_errno.obj
 0002:000046a8       ??_C@_0CD@LGFLCNGN@URI?5port?5mismatch?5?$CIPJSIP_ECMPPOR@ 00000001400446a8     pjsip-core-x86_64-x64-vc14-release:sip_errno.obj
 0002:000046d0       ??_C@_0DG@KAIIGJOM@URI?5transport?5param?5mismatch?5?$CIPJ@ 00000001400446d0     pjsip-core-x86_64-x64-vc14-release:sip_errno.obj
 0002:00004708       ??_C@_0CM@PONOAHFI@URI?5ttl?5param?5mismatch?5?$CIPJSIP_EC@ 0000000140044708     pjsip-core-x86_64-x64-vc14-release:sip_errno.obj
 0002:00004738       ??_C@_0CO@PNILAMMK@URI?5user?5param?5mismatch?5?$CIPJSIP_E@ 0000000140044738     pjsip-core-x86_64-x64-vc14-release:sip_errno.obj
 0002:00004768       ??_C@_0DC@BPANLPFC@URI?5method?5param?5mismatch?5?$CIPJSIP@ 0000000140044768     pjsip-core-x86_64-x64-vc14-release:sip_errno.obj
 0002:000047a0       ??_C@_0DA@HIHPGKKA@URI?5maddr?5param?5mismatch?5?$CIPJSIP_@ 00000001400447a0     pjsip-core-x86_64-x64-vc14-release:sip_errno.obj
 0002:000047d0       ??_C@_0DA@DADPPELC@URI?5other?5param?5mismatch?5?$CIPJSIP_@ 00000001400447d0     pjsip-core-x86_64-x64-vc14-release:sip_errno.obj
 0002:00004800       ??_C@_0DG@CFNMFPOM@URI?5header?5parameter?5mismatch?5?$CIP@ 0000000140044800     pjsip-core-x86_64-x64-vc14-release:sip_errno.obj
 0002:00004838       ??_C@_0DM@LOOBEDNN@Credential?5failed?5to?5authenticat@ 0000000140044838     pjsip-core-x86_64-x64-vc14-release:sip_errno.obj
 0002:00004878       ??_C@_0CN@IIEEILJJ@No?5suitable?5credential?5?$CIPJSIP_EN@ 0000000140044878     pjsip-core-x86_64-x64-vc14-release:sip_errno.obj
 0002:000048a8       ??_C@_0DP@NGPGIDFF@Invalid?1unsupported?5digest?5algor@ 00000001400448a8     pjsip-core-x86_64-x64-vc14-release:sip_errno.obj
 0002:000048e8       ??_C@_0DD@GJOGBLMF@Invalid?1unsupported?5digest?5qop?5?$CI@ 00000001400448e8     pjsip-core-x86_64-x64-vc14-release:sip_errno.obj
 0002:00004920       ??_C@_0DN@GPEKONDD@Unsupported?5authentication?5schem@ 0000000140044920     pjsip-core-x86_64-x64-vc14-release:sip_errno.obj
 0002:00004960       ??_C@_0CO@BMGFFPME@No?5previous?5challenge?5?$CIPJSIP_EAU@ 0000000140044960     pjsip-core-x86_64-x64-vc14-release:sip_errno.obj
 0002:00004990       ??_C@_0DF@DNNICPPN@No?5suitable?5authorization?5header@ 0000000140044990     pjsip-core-x86_64-x64-vc14-release:sip_errno.obj
 0002:000049c8       ??_C@_0DJ@LPEDCKOO@Account?5or?5credential?5not?5found?5@ 00000001400449c8     pjsip-core-x86_64-x64-vc14-release:sip_errno.obj
 0002:00004a08       ??_C@_0DL@CMLHLLPG@Account?5or?5credential?5is?5disable@ 0000000140044a08     pjsip-core-x86_64-x64-vc14-release:sip_errno.obj
 0002:00004a48       ??_C@_0DG@HIIKPIBJ@Invalid?5authorization?5realm?5?$CIPJS@ 0000000140044a48     pjsip-core-x86_64-x64-vc14-release:sip_errno.obj
 0002:00004a80       ??_C@_0DI@MHHCMF@Invalid?5authorization?5digest?5?$CIPJ@ 0000000140044a80     pjsip-core-x86_64-x64-vc14-release:sip_errno.obj
 0002:00004ac0       ??_C@_0EB@JCHOOAEG@Maximum?5number?5of?5stale?5retries?5@ 0000000140044ac0     pjsip-core-x86_64-x64-vc14-release:sip_errno.obj
 0002:00004b10       ??_C@_0EF@LIONEPAL@Invalid?5nonce?5value?5in?5authentic@ 0000000140044b10     pjsip-core-x86_64-x64-vc14-release:sip_errno.obj
 0002:00004b58       ??_C@_0CO@PNJFNJKN@Invalid?5AKA?5credential?5?$CIPJSIP_EA@ 0000000140044b58     pjsip-core-x86_64-x64-vc14-release:sip_errno.obj
 0002:00004b88       ??_C@_0CK@IIJPHHCN@No?5challenge?5is?5found?5?$CIPJSIP_EAU@ 0000000140044b88     pjsip-core-x86_64-x64-vc14-release:sip_errno.obj
 0002:00004bb8       ??_C@_0DC@HLPJEBKI@Missing?5From?1To?5tag?5parameter?5?$CIP@ 0000000140044bb8     pjsip-core-x86_64-x64-vc14-release:sip_errno.obj
 0002:00004bf0       ??_C@_0CK@NLEHMEII@Expecting?5REFER?5request?5?$CIPJSIP_E@ 0000000140044bf0     pjsip-core-x86_64-x64-vc14-release:sip_errno.obj
 0002:00004c20       ??_C@_0DP@GMKFENNH@Not?5associated?5with?5REFER?5subscr@ 0000000140044c20     pjsip-core-x86_64-x64-vc14-release:sip_errno.obj
 0002:00004c60       ??_C@_0DN@EOKOKJCK@INVITE?5session?5already?5terminate@ 0000000140044c60     pjsip-core-x86_64-x64-vc14-release:sip_errno.obj
 0002:00004ca0       ??_C@_0DD@DMBFAKPC@Invalid?5INVITE?5session?5state?5?$CIPJ@ 0000000140044ca0     pjsip-core-x86_64-x64-vc14-release:sip_errno.obj
 0002:00004cd8       ??_C@_0DK@CJAGEDOD@Require?5secure?5session?1transport@ 0000000140044cd8     pjsip-core-x86_64-x64-vc14-release:sip_errno.obj
 0002:00004d18       ??_C@_0CH@HBADBAEP@Unknown?5TLS?5error?5?$CIPJSIP_TLS_EUN@ 0000000140044d18     pjsip-core-x86_64-x64-vc14-release:sip_errno.obj
 0002:00004d40       ??_C@_0DD@NFLPGFPJ@Invalid?5SSL?5protocol?5method?5?$CIPJS@ 0000000140044d40     pjsip-core-x86_64-x64-vc14-release:sip_errno.obj
 0002:00004d78       ??_C@_0DN@LHDHPIOK@Error?5loading?1verifying?5SSL?5CA?5l@ 0000000140044d78     pjsip-core-x86_64-x64-vc14-release:sip_errno.obj
 0002:00004db8       ??_C@_0DP@NPMNFNID@Error?5loading?5SSL?5certificate?5ch@ 0000000140044db8     pjsip-core-x86_64-x64-vc14-release:sip_errno.obj
 0002:00004e00       ??_C@_0EI@PNDINLEB@Error?5adding?5private?5key?5from?5SS@ 0000000140044e00     pjsip-core-x86_64-x64-vc14-release:sip_errno.obj
 0002:00004e48       ??_C@_0DC@HMDIEPNK@Error?5setting?5SSL?5cipher?5list?5?$CIP@ 0000000140044e48     pjsip-core-x86_64-x64-vc14-release:sip_errno.obj
 0002:00004e80       ??_C@_0CM@KJHKFFIL@Error?5creating?5SSL?5context?5?$CIPJSI@ 0000000140044e80     pjsip-core-x86_64-x64-vc14-release:sip_errno.obj
 0002:00004eb0       ??_C@_0DK@GBGOJKMK@Error?5creating?5SSL?5connection?5ob@ 0000000140044eb0     pjsip-core-x86_64-x64-vc14-release:sip_errno.obj
 0002:00004ef0       ??_C@_0EB@LOJLDGBN@Unknown?5error?5when?5performing?5SS@ 0000000140044ef0     pjsip-core-x86_64-x64-vc14-release:sip_errno.obj
 0002:00004f38       ??_C@_0DP@CGFDGHCM@Unknown?5error?5when?5performing?5SS@ 0000000140044f38     pjsip-core-x86_64-x64-vc14-release:sip_errno.obj
 0002:00004f78       ??_C@_0DG@LGELLHGA@Unknown?5error?5when?5sending?5SSL?5d@ 0000000140044f78     pjsip-core-x86_64-x64-vc14-release:sip_errno.obj
 0002:00004fb0       ??_C@_0DG@GNCBAFL@Unknown?5error?5when?5reading?5SSL?5d@ 0000000140044fb0     pjsip-core-x86_64-x64-vc14-release:sip_errno.obj
 0002:00004fe8       ??_C@_0DE@NMMHGAJD@SSL?5negotiation?5has?5timed?5out?5?$CIP@ 0000000140044fe8     pjsip-core-x86_64-x64-vc14-release:sip_errno.obj
 0002:00005020       ??_C@_0DK@PDMPPIHB@SSL?5certificate?5verification?5err@ 0000000140045020     pjsip-core-x86_64-x64-vc14-release:sip_errno.obj
 0002:00005060       ??_C@_0BH@IINGFMKF@Unknown?5pjsip?5error?5?$CFd?$AA@ 0000000140045060     pjsip-core-x86_64-x64-vc14-release:sip_errno.obj
 0002:00005078       ??_C@_04NBIELBDC@isub?$AA@ 0000000140045078     pjsip-core-x86_64-x64-vc14-release:sip_tel_uri.obj
 0002:00005080       ??_C@_03MDPCKCMI@ext?$AA@  0000000140045080     pjsip-core-x86_64-x64-vc14-release:sip_tel_uri.obj
 0002:00005088       ??_C@_0O@IMLAOJJD@phone?9context?$AA@ 0000000140045088     pjsip-core-x86_64-x64-vc14-release:sip_tel_uri.obj
 0002:00005098       ??_C@_05OGMJFBEO@?$DLext?$DN?$AA@ 0000000140045098     pjsip-core-x86_64-x64-vc14-release:sip_tel_uri.obj
 0002:000050a0       ??_C@_06CECEBCPK@?$DLisub?$DN?$AA@ 00000001400450a0     pjsip-core-x86_64-x64-vc14-release:sip_tel_uri.obj
 0002:000050a8       ??_C@_0BA@JDMJBMEF@?$DLphone?9context?$DN?$AA@ 00000001400450a8     pjsip-core-x86_64-x64-vc14-release:sip_tel_uri.obj
 0002:000050b8       ??_C@_0P@KBNHNABO@0123456789?9?4?$CI?$CJ?$AA@ 00000001400450b8     pjsip-core-x86_64-x64-vc14-release:sip_tel_uri.obj
 0002:000050c8       ??_C@_0CM@MMELMJHM@0123456789aAbBcCdDeEfF?$CK?$CD?9?4?$CI?$CJ?$CL012@ 00000001400450c8     pjsip-core-x86_64-x64-vc14-release:sip_tel_uri.obj
 0002:000050f4       ??_C@_04DCHJLDOJ@?9?4?$CI?$CJ?$AA@ 00000001400450f4     pjsip-core-x86_64-x64-vc14-release:sip_tel_uri.obj
 0002:00005100       ??_C@_0BA@NHFLMIGM@?$CL0123456789?9?4?$CI?$CJ?$AA@ 0000000140045100     pjsip-core-x86_64-x64-vc14-release:sip_tel_uri.obj
 0002:00005110       ??_C@_0BP@LJHGJILO@?1?3?$EA?$CG$?0?$CL0123456789?9_?4?$CB?$HO?$CK?8?$CI?$CJ?$CF?$FL?$FN?$CL?$AA@ 0000000140045110     pjsip-core-x86_64-x64-vc14-release:sip_tel_uri.obj
 0002:00005130       ??_C@_01JOAMLHOP@?9?$AA@   0000000140045130     pjsip-core-x86_64-x64-vc14-release:sip_tel_uri.obj
 0002:00005138       ??_C@_0BM@IILGPONN@?$FL?$FN?1?3?$CG?$CL$0123456789?9_?4?$CB?$HO?$CK?8?$CI?$CJ?$CF?$AA@ 0000000140045138     pjsip-core-x86_64-x64-vc14-release:sip_tel_uri.obj
 0002:00005154       ??_C@_01NEMOKFLO@?$DN?$AA@ 0000000140045154     pjsip-core-x86_64-x64-vc14-release:sip_tel_uri.obj
 0002:00005158       ??_C@_09JMMPALKP@?0?5cnonce?$DN?$AA@ 0000000140045158     pjsip-core-x86_64-x64-vc14-release:sip_auth_msg.obj
 0002:00005168       ??_C@_09FBEJJABD@?0?5opaque?$DN?$AA@ 0000000140045168     pjsip-core-x86_64-x64-vc14-release:sip_auth_msg.obj
 0002:00005174       ??_C@_06PEMMHIJL@?0?5qop?$DN?$AA@ 0000000140045174     pjsip-core-x86_64-x64-vc14-release:sip_auth_msg.obj
 0002:0000517c       ??_C@_05EBCAJOC@?0?5nc?$DN?$AA@ 000000014004517c     pjsip-core-x86_64-x64-vc14-release:sip_auth_msg.obj
 0002:00005184       ??_C@_06EJKNIGMP@token?$DN?$AA@ 0000000140045184     pjsip-core-x86_64-x64-vc14-release:sip_auth_msg.obj
 0002:00005190       ??_C@_0M@FOCLKAFD@?0?5username?$DN?$AA@ 0000000140045190     pjsip-core-x86_64-x64-vc14-release:sip_auth_msg.obj
 0002:0000519c       ??_C@_03NHCDCECM@pgp?$AA@  000000014004519c     pjsip-core-x86_64-x64-vc14-release:sip_auth_msg.obj
 0002:000051a0       ??_C@_06LOBIHJOB@realm?$DN?$AA@ 00000001400451a0     pjsip-core-x86_64-x64-vc14-release:sip_auth_msg.obj
 0002:000051a8       ??_C@_08CKNLFMMP@?0domain?$DN?$AA@ 00000001400451a8     pjsip-core-x86_64-x64-vc14-release:sip_auth_msg.obj
 0002:000051b8       ??_C@_07DNEKANAM@?0nonce?$DN?$AA@ 00000001400451b8     pjsip-core-x86_64-x64-vc14-release:sip_auth_msg.obj
 0002:000051c0       ??_C@_08OHJPPMIB@?0opaque?$DN?$AA@ 00000001400451c0     pjsip-core-x86_64-x64-vc14-release:sip_auth_msg.obj
 0002:000051cc       ??_C@_04LOAJBDKD@true?$AA@ 00000001400451cc     pjsip-core-x86_64-x64-vc14-release:sip_auth_msg.obj
 0002:000051d8       ??_C@_07IIGBIFNN@?0stale?$DN?$AA@ 00000001400451d8     pjsip-core-x86_64-x64-vc14-release:sip_auth_msg.obj
 0002:000051e0       ??_C@_0M@HOHCEKCL@?0algorithm?$DN?$AA@ 00000001400451e0     pjsip-core-x86_64-x64-vc14-release:sip_auth_msg.obj
 0002:000051ec       ??_C@_05KHLNJFNF@?0qop?$DN?$AA@ 00000001400451ec     pjsip-core-x86_64-x64-vc14-release:sip_auth_msg.obj
 0002:000051f8       ??_C@_09FNNDBHOE@username?$DN?$AA@ 00000001400451f8     pjsip-core-x86_64-x64-vc14-release:sip_auth_msg.obj
 0002:00005208       ??_C@_08FIMOKBNA@?0?5realm?$DN?$AA@ 0000000140045208     pjsip-core-x86_64-x64-vc14-release:sip_auth_msg.obj
 0002:00005218       ??_C@_08INALKCDD@?0?5nonce?$DN?$AA@ 0000000140045218     pjsip-core-x86_64-x64-vc14-release:sip_auth_msg.obj
 0002:00005224       ??_C@_06LAMIMJOG@?0?5uri?$DN?$AA@ 0000000140045224     pjsip-core-x86_64-x64-vc14-release:sip_auth_msg.obj
 0002:00005230       ??_C@_0M@LHKMMNIM@?0?5response?$DN?$AA@ 0000000140045230     pjsip-core-x86_64-x64-vc14-release:sip_auth_msg.obj
 0002:00005240       ??_C@_0N@CGBNHFEJ@?0?5algorithm?$DN?$AA@ 0000000140045240     pjsip-core-x86_64-x64-vc14-release:sip_auth_msg.obj
 0002:00005250       ??_C@_08ODGEKKOL@username?$AA@ 0000000140045250     pjsip-core-x86_64-x64-vc14-release:sip_auth_parser.obj
 0002:0000525c       ??_C@_05ELABLNGD@realm?$AA@ 000000014004525c     pjsip-core-x86_64-x64-vc14-release:sip_auth_parser.obj
 0002:00005264       ??_C@_05OOEDLKEB@nonce?$AA@ 0000000140045264     pjsip-core-x86_64-x64-vc14-release:sip_auth_parser.obj
 0002:0000526c       ??_C@_03GBBABMJN@uri?$AA@  000000014004526c     pjsip-core-x86_64-x64-vc14-release:sip_auth_parser.obj
 0002:00005270       ??_C@_08HKMEAON@response?$AA@ 0000000140045270     pjsip-core-x86_64-x64-vc14-release:sip_auth_parser.obj
 0002:00005280       ??_C@_09JPNFBOJG@algorithm?$AA@ 0000000140045280     pjsip-core-x86_64-x64-vc14-release:sip_auth_parser.obj
 0002:0000528c       ??_C@_06LKIIGAOE@domain?$AA@ 000000014004528c     pjsip-core-x86_64-x64-vc14-release:sip_auth_parser.obj
 0002:00005294       ??_C@_05BFAEFKPM@stale?$AA@ 0000000140045294     pjsip-core-x86_64-x64-vc14-release:sip_auth_parser.obj
 0002:0000529c       ??_C@_03GBIMBCPB@qop?$AA@  000000014004529c     pjsip-core-x86_64-x64-vc14-release:sip_auth_parser.obj
 0002:000052a0       ??_C@_06HILDJCOE@cnonce?$AA@ 00000001400452a0     pjsip-core-x86_64-x64-vc14-release:sip_auth_parser.obj
 0002:000052a8       ??_C@_06CJCOLNBB@opaque?$AA@ 00000001400452a8     pjsip-core-x86_64-x64-vc14-release:sip_auth_parser.obj
 0002:000052b0       ??_C@_02MCHPIKD@nc?$AA@    00000001400452b0     pjsip-core-x86_64-x64-vc14-release:sip_auth_parser.obj
 0002:000052b8       pjsip_QUOTED_TRUE_STR      00000001400452b8     pjsip-core-x86_64-x64-vc14-release:sip_auth_parser.obj
 0002:000052c8       pjsip_QUOTED_FALSE_STR     00000001400452c8     pjsip-core-x86_64-x64-vc14-release:sip_auth_parser.obj
 0002:000052d8       pjsip_QUOTED_DIGEST_STR    00000001400452d8     pjsip-core-x86_64-x64-vc14-release:sip_auth_parser.obj
 0002:000052e8       pjsip_QUOTED_PGP_STR       00000001400452e8     pjsip-core-x86_64-x64-vc14-release:sip_auth_parser.obj
 0002:000052f8       pjsip_QUOTED_MD5_STR       00000001400452f8     pjsip-core-x86_64-x64-vc14-release:sip_auth_parser.obj
 0002:00005308       pjsip_QUOTED_AUTH_STR      0000000140045308     pjsip-core-x86_64-x64-vc14-release:sip_auth_parser.obj
 0002:00005318       pjsip_USERNAME_STR         0000000140045318     pjsip-core-x86_64-x64-vc14-release:sip_auth_parser.obj
 0002:00005328       pjsip_REALM_STR            0000000140045328     pjsip-core-x86_64-x64-vc14-release:sip_auth_parser.obj
 0002:00005338       pjsip_NONCE_STR            0000000140045338     pjsip-core-x86_64-x64-vc14-release:sip_auth_parser.obj
 0002:00005348       pjsip_URI_STR              0000000140045348     pjsip-core-x86_64-x64-vc14-release:sip_auth_parser.obj
 0002:00005358       pjsip_RESPONSE_STR         0000000140045358     pjsip-core-x86_64-x64-vc14-release:sip_auth_parser.obj
 0002:00005368       pjsip_ALGORITHM_STR        0000000140045368     pjsip-core-x86_64-x64-vc14-release:sip_auth_parser.obj
 0002:00005378       pjsip_DOMAIN_STR           0000000140045378     pjsip-core-x86_64-x64-vc14-release:sip_auth_parser.obj
 0002:00005388       pjsip_STALE_STR            0000000140045388     pjsip-core-x86_64-x64-vc14-release:sip_auth_parser.obj
 0002:00005398       pjsip_QOP_STR              0000000140045398     pjsip-core-x86_64-x64-vc14-release:sip_auth_parser.obj
 0002:000053a8       pjsip_CNONCE_STR           00000001400453a8     pjsip-core-x86_64-x64-vc14-release:sip_auth_parser.obj
 0002:000053b8       pjsip_OPAQUE_STR           00000001400453b8     pjsip-core-x86_64-x64-vc14-release:sip_auth_parser.obj
 0002:000053c8       pjsip_NC_STR               00000001400453c8     pjsip-core-x86_64-x64-vc14-release:sip_auth_parser.obj
 0002:000053d8       pjsip_TRUE_STR             00000001400453d8     pjsip-core-x86_64-x64-vc14-release:sip_auth_parser.obj
 0002:000053e8       pjsip_FALSE_STR            00000001400453e8     pjsip-core-x86_64-x64-vc14-release:sip_auth_parser.obj
 0002:000053f8       pjsip_DIGEST_STR           00000001400453f8     pjsip-core-x86_64-x64-vc14-release:sip_auth_parser.obj
 0002:00005408       pjsip_PGP_STR              0000000140045408     pjsip-core-x86_64-x64-vc14-release:sip_auth_parser.obj
 0002:00005418       pjsip_BEARER_STR           0000000140045418     pjsip-core-x86_64-x64-vc14-release:sip_auth_parser.obj
 0002:00005428       pjsip_MD5_STR              0000000140045428     pjsip-core-x86_64-x64-vc14-release:sip_auth_parser.obj
 0002:00005438       pjsip_AUTH_STR             0000000140045438     pjsip-core-x86_64-x64-vc14-release:sip_auth_parser.obj
 0002:00005448       ??_C@_06JMFPOLAJ@?$CCtrue?$CC?$AA@ 0000000140045448     pjsip-core-x86_64-x64-vc14-release:sip_auth_parser.obj
 0002:00005450       ??_C@_05LAPONLG@false?$AA@ 0000000140045450     pjsip-core-x86_64-x64-vc14-release:sip_auth_parser.obj
 0002:00005458       ??_C@_07MGKGDKEI@?$CCfalse?$CC?$AA@ 0000000140045458     pjsip-core-x86_64-x64-vc14-release:sip_auth_parser.obj
 0002:00005460       ??_C@_06MHCCOJOO@Digest?$AA@ 0000000140045460     pjsip-core-x86_64-x64-vc14-release:sip_auth_parser.obj
 0002:00005468       ??_C@_08MPOLMKFE@?$CCDigest?$CC?$AA@ 0000000140045468     pjsip-core-x86_64-x64-vc14-release:sip_auth_parser.obj
 0002:00005474       ??_C@_03NKNIOJFA@PGP?$AA@  0000000140045474     pjsip-core-x86_64-x64-vc14-release:sip_auth_parser.obj
 0002:00005478       ??_C@_05PBIHDNLO@?$CCPGP?$CC?$AA@ 0000000140045478     pjsip-core-x86_64-x64-vc14-release:sip_auth_parser.obj
 0002:00005480       ??_C@_06NPEPPOGN@Bearer?$AA@ 0000000140045480     pjsip-core-x86_64-x64-vc14-release:sip_auth_parser.obj
 0002:00005488       ??_C@_03PKBIKOHH@md5?$AA@  0000000140045488     pjsip-core-x86_64-x64-vc14-release:sip_auth_parser.obj
 0002:0000548c       ??_C@_05FEKNEIJC@?$CCmd5?$CC?$AA@ 000000014004548c     pjsip-core-x86_64-x64-vc14-release:sip_auth_parser.obj
 0002:00005494       ??_C@_04DPLCCHJC@auth?$AA@ 0000000140045494     pjsip-core-x86_64-x64-vc14-release:sip_auth_parser.obj
 0002:0000549c       ??_C@_06MNAAFAAH@?$CCauth?$CC?$AA@ 000000014004549c     pjsip-core-x86_64-x64-vc14-release:sip_auth_parser.obj
 0002:000054a8       ??_C@_0BC@KMLOGCBL@?$CB?$CD$?$CF?$CG?8?$CK?$CL?9?4?$FO_?$GA?$HL?$HM?$HN?$HO?$AA@ 00000001400454a8     pjmedia-x86_64-x64-vc14-release:sdp.obj
 0002:000054bc       ??_C@_06NPGDLJKE@rtpmap?$AA@ 00000001400454bc     pjmedia-x86_64-x64-vc14-release:sdp.obj
 0002:000054c4       ??_C@_04JKCEBMKL@fmtp?$AA@ 00000001400454c4     pjmedia-x86_64-x64-vc14-release:sdp.obj
 0002:000054cc       ??_C@_05PGDJPCOI@?1?5?7?$AN?6?$AA@ 00000001400454cc     pjmedia-x86_64-x64-vc14-release:sdp.obj
 0002:000054d4       ??_C@_01KMDKNFGN@?1?$AA@   00000001400454d4     pjmedia-x86_64-x64-vc14-release:sdp.obj
 0002:000054d8       ??_C@_0BD@NGNJPLJA@c?$DN?$CF?4?$CKs?5?$CF?4?$CKs?5?$CF?4?$CKs?$AN?6?$AA@ 00000001400454d8     pjmedia-x86_64-x64-vc14-release:sdp.obj
 0002:000054ec       ??_C@_05MIOLEPMP@v?$DN0?$AN?6?$AA@ 00000001400454ec     pjmedia-x86_64-x64-vc14-release:sdp.obj
 0002:000054f4       ??_C@_04HHCDBDLF@?5?7?$AN?6?$AA@ 00000001400454f4     pjmedia-x86_64-x64-vc14-release:sdp.obj
 0002:00005500       ??_C@_0DG@FMMLOIKL@Error?5adding?5SDP?5media?5format?5?$CF?4@ 0000000140045500     pjmedia-x86_64-x64-vc14-release:sdp.obj
 0002:00005538       ??_C@_05LIAFADKM@sdp?4c?$AA@ 0000000140045538     pjmedia-x86_64-x64-vc14-release:sdp.obj
 0002:00005540       ??_C@_08INHMCBAE@inactive?$AA@ 0000000140045540     pjmedia-x86_64-x64-vc14-release:sdp.obj
 0002:00005550       ??_C@_08HPJEFADN@sendonly?$AA@ 0000000140045550     pjmedia-x86_64-x64-vc14-release:sdp.obj
 0002:00005560       ??_C@_08EHCGIGCO@recvonly?$AA@ 0000000140045560     pjmedia-x86_64-x64-vc14-release:sdp.obj
 0002:00005570       ??_C@_08LMCBNPPN@sendrecv?$AA@ 0000000140045570     pjmedia-x86_64-x64-vc14-release:sdp.obj
 0002:00005580       ??_C@_0DD@EJNOLNM@Error?5adding?5media?5attribute?0?5at@ 0000000140045580     pjmedia-x86_64-x64-vc14-release:sdp.obj
 0002:000055b8       ??_C@_0DF@GDECOCN@Error?5adding?5session?5attribute?0?5@ 00000001400455b8     pjmedia-x86_64-x64-vc14-release:sdp.obj
 0002:000055f0       ??_C@_0CF@NCOGEPJF@Error?5adding?5media?0?5media?5is?5ign@ 00000001400455f0     pjmedia-x86_64-x64-vc14-release:sdp.obj
 0002:00005618       ??_C@_0DD@FDBIEIFP@Error?5adding?5media?5bandwidth?5inf@ 0000000140045618     pjmedia-x86_64-x64-vc14-release:sdp.obj
 0002:00005650       ??_C@_0DF@FBLBINKO@Error?5adding?5session?5bandwidth?5i@ 0000000140045650     pjmedia-x86_64-x64-vc14-release:sdp.obj
 0002:00005688       ??_C@_0CE@BFJMCBLI@Error?5parsing?5SDP?5in?5line?5?$CFd?5col@ 0000000140045688     pjmedia-x86_64-x64-vc14-release:sdp.obj
 0002:000056ac       ??_C@_02BBAPPCCJ@IN?$AA@   00000001400456ac     pjmedia-x86_64-x64-vc14-release:sdp.obj
 0002:000056b0       ??_C@_03OPDBOKBD@IP4?$AA@  00000001400456b0     pjmedia-x86_64-x64-vc14-release:sdp.obj
 0002:000056b4       ??_C@_03NNAHIIJB@IP6?$AA@  00000001400456b4     pjmedia-x86_64-x64-vc14-release:sdp.obj
 0002:000056b8       ??_C@_03GOLBDMPC@RTP?$AA@  00000001400456b8     pjmedia-x86_64-x64-vc14-release:sdp.obj
 0002:000056bc       ??_C@_03CPJJBAON@AVP?$AA@  00000001400456bc     pjmedia-x86_64-x64-vc14-release:sdp.obj
 0002:000056c0       ??_C@_04LHEMINPH@SAVP?$AA@ 00000001400456c0     pjmedia-x86_64-x64-vc14-release:sdp.obj
 0002:000056c8       ??_C@_04HILHOPFG@AVPF?$AA@ 00000001400456c8     pjmedia-x86_64-x64-vc14-release:sdp.obj
 0002:000056d0       ??_C@_05IFENMDLB@SAVPF?$AA@ 00000001400456d0     pjmedia-x86_64-x64-vc14-release:sdp.obj
 0002:000056d8       ??_C@_0N@IFKNLCBO@TLS?1RTP?1SAVP?$AA@ 00000001400456d8     pjmedia-x86_64-x64-vc14-release:sdp.obj
 0002:000056e8       ??_C@_0O@FMKJHIFC@TLS?1RTP?1SAVPF?$AA@ 00000001400456e8     pjmedia-x86_64-x64-vc14-release:sdp.obj
 0002:000056f8       ??_C@_0L@IOJLEJF@STATE_NULL?$AA@ 00000001400456f8     pjmedia-x86_64-x64-vc14-release:sdp_neg.obj
 0002:00005708       ??_C@_0BC@LOEMBHAD@STATE_LOCAL_OFFER?$AA@ 0000000140045708     pjmedia-x86_64-x64-vc14-release:sdp_neg.obj
 0002:00005720       ??_C@_0BD@EIDNGBFC@STATE_REMOTE_OFFER?$AA@ 0000000140045720     pjmedia-x86_64-x64-vc14-release:sdp_neg.obj
 0002:00005738       ??_C@_0BA@GHLPEJJC@STATE_WAIT_NEGO?$AA@ 0000000140045738     pjmedia-x86_64-x64-vc14-release:sdp_neg.obj
 0002:00005748       ??_C@_0L@KPLLHEOI@STATE_DONE?$AA@ 0000000140045748     pjmedia-x86_64-x64-vc14-release:sdp_neg.obj
 0002:00005758       ??_C@_0M@GGDBIFHF@?$DM?$DPUNKNOWN?$DP?$DO?$AA@ 0000000140045758     pjmedia-x86_64-x64-vc14-release:sdp_neg.obj
 0002:00005768       ??_C@_09PFCHIMEP@127?40?40?41?$AA@ 0000000140045768     pjmedia-x86_64-x64-vc14-release:sdp_neg.obj
 0002:00005778       ??_C@_0BA@LLGGBELL@telephone?9event?$AA@ 0000000140045778     pjmedia-x86_64-x64-vc14-release:sdp_neg.obj
 0002:00005790       ??_C@_0FA@DIAPLEFD@Found?5non?9FINGERPRINT?5attr?4?5afte@ 0000000140045790     pjlib-util-x86_64-x64-vc14-release:errno.obj
 0002:000057e0       ??_C@_0ED@CNMDGMPD@Found?5STUN?5attribute?5after?5FINGE@ 00000001400457e0     pjlib-util-x86_64-x64-vc14-release:errno.obj
 0002:00005828       ??_C@_0DN@JLMAJAKN@Missing?5STUN?5USERNAME?5attribute?5@ 0000000140045828     pjlib-util-x86_64-x64-vc14-release:errno.obj
 0002:00005870       ??_C@_0EK@LMHKLKC@Missing?1invalid?5STUN?5MESSAGE?9INT@ 0000000140045870     pjlib-util-x86_64-x64-vc14-release:errno.obj
 0002:000058c0       ??_C@_0DJ@BCFNCGF@Found?5duplicate?5STUN?5attribute?5?$CI@ 00000001400458c0     pjlib-util-x86_64-x64-vc14-release:errno.obj
 0002:00005900       ??_C@_0DH@MMHMOPBG@Missing?5STUN?5REALM?5attribute?5?$CIPJ@ 0000000140045900     pjlib-util-x86_64-x64-vc14-release:errno.obj
 0002:00005940       ??_C@_0EB@FGOGNHPO@Missing?1stale?5STUN?5NONCE?5attribu@ 0000000140045940     pjlib-util-x86_64-x64-vc14-release:errno.obj
 0002:00005990       ??_C@_0EF@HAPLEMIK@STUN?5transaction?5terminates?5with@ 0000000140045990     pjlib-util-x86_64-x64-vc14-release:errno.obj
 0002:000059d8       ??_C@_0CL@GOOAEBLJ@Invalid?5URL?5format?5?$CIPJLIB_UTIL_E@ 00000001400459d8     pjlib-util-x86_64-x64-vc14-release:errno.obj
 0002:00005a08       ??_C@_0DB@BDFJPAOA@Invalid?5URL?5port?5number?5?$CIPJLIB_U@ 0000000140045a08     pjlib-util-x86_64-x64-vc14-release:errno.obj
 0002:00005a40       ??_C@_0DN@CABCKELB@Incomplete?5response?5header?5recei@ 0000000140045a40     pjlib-util-x86_64-x64-vc14-release:errno.obj
 0002:00005a80       ??_C@_0CN@MKMAKFDH@Insufficient?5buffer?5?$CIPJLIB_UTIL_@ 0000000140045a80     pjlib-util-x86_64-x64-vc14-release:errno.obj
 0002:00005ab0       ??_C@_0CH@JNBFBBKA@Connection?5lost?5?$CIPJLIB_UTIL_EHTT@ 0000000140045ab0     pjlib-util-x86_64-x64-vc14-release:errno.obj
 0002:00005ad8       ??_C@_0CE@DHMMOEGP@Exit?5current?5session?5?$CIPJ_CLI_EEX@ 0000000140045ad8     pjlib-util-x86_64-x64-vc14-release:errno.obj
 0002:00005b00       ??_C@_0CG@LEDMCEME@Missing?5argument?5?$CIPJ_CLI_EMISSIN@ 0000000140045b00     pjlib-util-x86_64-x64-vc14-release:errno.obj
 0002:00005b28       ??_C@_0CJ@ECODGDHL@Too?5many?5arguments?5?$CIPJ_CLI_ETOOM@ 0000000140045b28     pjlib-util-x86_64-x64-vc14-release:errno.obj
 0002:00005b58       ??_C@_0CC@NLPGOLED@Invalid?5argument?5?$CIPJ_CLI_EINVARG@ 0000000140045b58     pjlib-util-x86_64-x64-vc14-release:errno.obj
 0002:00005b80       ??_C@_0CO@OOEOBCH@Command?5name?5already?5exists?5?$CIPJ_@ 0000000140045b80     pjlib-util-x86_64-x64-vc14-release:errno.obj
 0002:00005bb0       ??_C@_0CK@MKOACJP@Command?5id?5already?5exists?5?$CIPJ_CL@ 0000000140045bb0     pjlib-util-x86_64-x64-vc14-release:errno.obj
 0002:00005be0       ??_C@_0CE@LHHCBFML@Invalid?5XML?5format?5?$CIPJ_CLI_EBADX@ 0000000140045be0     pjlib-util-x86_64-x64-vc14-release:errno.obj
 0002:00005c08       ??_C@_0CF@CKMLJLLP@Connection?5lost?5?$CIPJ_CLI_ETELNETL@ 0000000140045c08     pjlib-util-x86_64-x64-vc14-release:errno.obj
 0002:00005ff0       ??_C@_0DI@FPKNFLPC@Unable?5to?5resolve?5STUN?5server?5?$CIP@ 0000000140045ff0     pjlib-util-x86_64-x64-vc14-release:errno.obj
 0002:00006028       ??_C@_0DG@MLIAHJMC@Unknown?5STUN?5message?5type?5?$CIPJLIB@ 0000000140046028     pjlib-util-x86_64-x64-vc14-release:errno.obj
 0002:00006060       ??_C@_0DH@BGLGMNML@Invalid?5STUN?5message?5length?5?$CIPJL@ 0000000140046060     pjlib-util-x86_64-x64-vc14-release:errno.obj
 0002:00006098       ??_C@_0DI@MNKBLDCO@STUN?5attribute?5length?5error?5?$CIPJL@ 0000000140046098     pjlib-util-x86_64-x64-vc14-release:errno.obj
 0002:000060d0       ??_C@_0DJ@GEFJCPHI@Invalid?5STUN?5attribute?5type?5?$CIPJL@ 00000001400460d0     pjlib-util-x86_64-x64-vc14-release:errno.obj
 0002:00006110       ??_C@_0DL@JFEBBJAB@Invalid?5STUN?5server?1socket?5index@ 0000000140046110     pjlib-util-x86_64-x64-vc14-release:errno.obj
 0002:00006150       ??_C@_0EE@OMBAKMPD@No?5STUN?5binding?5response?5in?5the?5@ 0000000140046150     pjlib-util-x86_64-x64-vc14-release:errno.obj
 0002:00006198       ??_C@_0DM@JJJKHKHH@Received?5STUN?5error?5attribute?5?$CIP@ 0000000140046198     pjlib-util-x86_64-x64-vc14-release:errno.obj
 0002:000061d8       ??_C@_0DJ@BDPKKDEL@No?5STUN?5mapped?5address?5attribute@ 00000001400461d8     pjlib-util-x86_64-x64-vc14-release:errno.obj
 0002:00006220       ??_C@_0ED@MIOBPJDH@Received?5no?5response?5from?5STUN?5s@ 0000000140046220     pjlib-util-x86_64-x64-vc14-release:errno.obj
 0002:00006268       ??_C@_0DK@OILEGGA@Symetric?5NAT?5detected?5by?5STUN?5?$CIP@ 0000000140046268     pjlib-util-x86_64-x64-vc14-release:errno.obj
 0002:000062a8       ??_C@_0CI@OKGDIDF@Invalid?5XML?5message?5?$CIPJLIB_UTIL_@ 00000001400462a8     pjlib-util-x86_64-x64-vc14-release:errno.obj
 0002:000062d0       ??_C@_0CL@IPLFEOJE@Invalid?5JSON?5document?5?$CIPJLIB_UTI@ 00000001400462d0     pjlib-util-x86_64-x64-vc14-release:errno.obj
 0002:00006300       ??_C@_0EC@KJLJANIE@DNS?5query?5packet?5buffer?5is?5too?5s@ 0000000140046300     pjlib-util-x86_64-x64-vc14-release:errno.obj
 0002:00006348       ??_C@_0DC@JFKHADAC@Invalid?5DNS?5packet?5length?5?$CIPJLIB@ 0000000140046348     pjlib-util-x86_64-x64-vc14-release:errno.obj
 0002:00006380       ??_C@_0CL@OCFDFFNM@Invalid?5DNS?5class?5?$CIPJLIB_UTIL_ED@ 0000000140046380     pjlib-util-x86_64-x64-vc14-release:errno.obj
 0002:000063b0       ??_C@_0DE@FIPILDGP@Invalid?5DNS?5name?5pointer?5?$CIPJLIB_@ 00000001400463b0     pjlib-util-x86_64-x64-vc14-release:errno.obj
 0002:000063e8       ??_C@_0DJ@NBOGGJL@Invalid?5DNS?5nameserver?5address?5?$CI@ 00000001400463e8     pjlib-util-x86_64-x64-vc14-release:errno.obj
 0002:00006428       ??_C@_0DH@LFJGDOHB@No?5nameserver?5is?5in?5DNS?5resolver@ 0000000140046428     pjlib-util-x86_64-x64-vc14-release:errno.obj
 0002:00006460       ??_C@_0DH@PHJBLCKD@No?5working?5DNS?5nameserver?5?$CIPJLIB@ 0000000140046460     pjlib-util-x86_64-x64-vc14-release:errno.obj
 0002:000064a0       ??_C@_0EC@HJFBNLFC@No?5answer?5record?5in?5the?5DNS?5resp@ 00000001400464a0     pjlib-util-x86_64-x64-vc14-release:errno.obj
 0002:000064e8       ??_C@_0CN@DEFBDJKF@Invalid?5DNS?5answer?5?$CIPJLIB_UTIL_E@ 00000001400464e8     pjlib-util-x86_64-x64-vc14-release:errno.obj
 0002:00006518       ??_C@_0CN@BCAAPMPM@DNS?5?$CCFormat?5error?$CC?5?$CIPJLIB_UTIL_E@ 0000000140046518     pjlib-util-x86_64-x64-vc14-release:errno.obj
 0002:00006548       ??_C@_0DA@NBPIIAHM@DNS?5?$CCServer?5failure?$CC?5?$CIPJLIB_UTIL@ 0000000140046548     pjlib-util-x86_64-x64-vc14-release:errno.obj
 0002:00006578       ??_C@_0CM@CNNJNBCA@DNS?5?$CCName?5Error?$CC?5?$CIPJLIB_UTIL_EDN@ 0000000140046578     pjlib-util-x86_64-x64-vc14-release:errno.obj
 0002:000065a8       ??_C@_0DA@DIMDKHPM@DNS?5?$CCNot?5Implemented?$CC?5?$CIPJLIB_UTI@ 00000001400465a8     pjlib-util-x86_64-x64-vc14-release:errno.obj
 0002:000065d8       ??_C@_0CI@LDMKLLKJ@DNS?5?$CCRefused?$CC?5?$CIPJLIB_UTIL_EDNS_R@ 00000001400465d8     pjlib-util-x86_64-x64-vc14-release:errno.obj
 0002:00006600       ??_C@_0DB@PFAMNHPJ@DNS?5?$CCThe?5name?5exists?$CC?5?$CIPJLIB_UTI@ 0000000140046600     pjlib-util-x86_64-x64-vc14-release:errno.obj
 0002:00006638       ??_C@_0DO@OIIHMCI@DNS?5?$CCThe?5RRset?5?$CIname?0?5type?$CJ?5exis@ 0000000140046638     pjlib-util-x86_64-x64-vc14-release:errno.obj
 0002:00006680       ??_C@_0EG@OMHMBNML@DNS?5?$CCThe?5RRset?5?$CIname?0?5type?$CJ?5does@ 0000000140046680     pjlib-util-x86_64-x64-vc14-release:errno.obj
 0002:000066c8       ??_C@_0CP@HJODAHHO@DNS?5?$CCNot?5authorized?$CC?5?$CIPJLIB_UTIL@ 00000001400466c8     pjlib-util-x86_64-x64-vc14-release:errno.obj
 0002:00006700       ??_C@_0EB@GKEHOPAE@DNS?5?$CCThe?5zone?5specified?5is?5not?5a@ 0000000140046700     pjlib-util-x86_64-x64-vc14-release:errno.obj
 0002:00006748       ??_C@_0DH@EMGNELGL@Too?5many?5STUN?5attributes?5?$CIPJLIB_@ 0000000140046748     pjlib-util-x86_64-x64-vc14-release:errno.obj
 0002:00006780       ??_C@_0DF@KMIPDCMM@Unknown?5STUN?5attribute?5?$CIPJLIB_UT@ 0000000140046780     pjlib-util-x86_64-x64-vc14-release:errno.obj
 0002:000067b8       ??_C@_0DP@PDBNFLFH@Invalid?5STUN?5socket?5address?5leng@ 00000001400467b8     pjlib-util-x86_64-x64-vc14-release:errno.obj
 0002:00006800       ??_C@_0EA@NAKPKGDE@STUN?5IPv6?5attribute?5not?5supporte@ 0000000140046800     pjlib-util-x86_64-x64-vc14-release:errno.obj
 0002:00006840       ??_C@_0DO@LEKPMIHP@Expecting?5STUN?5response?5message?5@ 0000000140046840     pjlib-util-x86_64-x64-vc14-release:errno.obj
 0002:00006880       ??_C@_0DJ@DDEJFFIL@STUN?5transaction?5ID?5mismatch?5?$CIPJ@ 0000000140046880     pjlib-util-x86_64-x64-vc14-release:errno.obj
 0002:000068c0       ??_C@_0EI@BNLBFIKH@Unable?5to?5find?5STUN?5handler?5for?5@ 00000001400468c0     pjlib-util-x86_64-x64-vc14-release:errno.obj
 0002:00006908       ??_C@_0BM@LDLEGOFO@Unknown?5pjlib?9util?5error?5?$CFd?$AA@ 0000000140046908     pjlib-util-x86_64-x64-vc14-release:errno.obj
 0002:00006924       ??_C@_02BAABKJLB@?9?9?$AA@ 0000000140046924     pjlib-util-x86_64-x64-vc14-release:getopt.obj
 0002:00006928       ??_C@_0BM@HBCIEFJJ@?4?4?2src?2pjlib?9util?2scanner?4c?$AA@ 0000000140046928     pjlib-util-x86_64-x64-vc14-release:scanner.obj
 0002:00006950       __xmm@00000001000000010000000100000001 0000000140046950     pjlib-util-x86_64-x64-vc14-release:scanner.obj
 0002:00006960       ??_C@_07IAIHCIDD@Probing?$AA@ 0000000140046960     pjlib-util-x86_64-x64-vc14-release:resolver.obj
 0002:00006968       ??_C@_06MAFFGDO@Active?$AA@ 0000000140046968     pjlib-util-x86_64-x64-vc14-release:resolver.obj
 0002:00006970       ??_C@_03KHCCLPOB@Bad?$AA@  0000000140046970     pjlib-util-x86_64-x64-vc14-release:resolver.obj
 0002:00006978       ??_C@_0BN@HMPKHKCI@?4?4?2src?2pjlib?9util?2resolver?4c?$AA@ 0000000140046978     pjlib-util-x86_64-x64-vc14-release:resolver.obj
 0002:00006998       ??_C@_0BH@PPEBBIFJ@?0?5will?5try?5again?5later?$AA@ 0000000140046998     pjlib-util-x86_64-x64-vc14-release:resolver.obj
 0002:000069b0       ??_C@_0DC@GOFLGJND@Socket?5busy?5in?5transmitting?5DNS?5@ 00000001400469b0     pjlib-util-x86_64-x64-vc14-release:resolver.obj
 0002:000069e8       ??_C@_0N@IBGJGPJN@Transmitting?$AA@ 00000001400469e8     pjlib-util-x86_64-x64-vc14-release:resolver.obj
 0002:000069f8       ??_C@_0BA@JFAGDHFD@Re?9transmitting?$AA@ 00000001400469f8     pjlib-util-x86_64-x64-vc14-release:resolver.obj
 0002:00006a08       ??_C@_0DC@PBGKNNLN@?$CFs?5?$CFd?5bytes?5to?5NS?5?$CFd?5?$CI?$CFs?3?$CFd?$CJ?3?5DN@ 0000000140046a08     pjlib-util-x86_64-x64-vc14-release:resolver.obj
 0002:00006a40       ??_C@_0DE@LLACOPGB@Picked?5up?5DNS?5?$CFs?5record?5for?5?$CF?4?$CKs@ 0000000140046a40     pjlib-util-x86_64-x64-vc14-release:resolver.obj
 0002:00006a78       ??_C@_0CJ@MMDCPKPE@Nameserver?5?$CFs?3?$CFd?5state?5changed?5?$CF@ 0000000140046a78     pjlib-util-x86_64-x64-vc14-release:resolver.obj
 0002:00006aa8       ??_C@_0BL@DBKKFGCL@Error?5transmitting?5request?$AA@ 0000000140046aa8     pjlib-util-x86_64-x64-vc14-release:resolver.obj
 0002:00006ac4       ??_C@_01FHEEJDEE@A?$AA@    0000000140046ac4     pjlib-util-x86_64-x64-vc14-release:dns.obj
 0002:00006ac8       ??_C@_04OHNMNPPA@AAAA?$AA@ 0000000140046ac8     pjlib-util-x86_64-x64-vc14-release:dns.obj
 0002:00006ad0       ??_C@_03IENKIAKD@SRV?$AA@  0000000140046ad0     pjlib-util-x86_64-x64-vc14-release:dns.obj
 0002:00006ad4       ??_C@_02OLCMIILA@NS?$AA@   0000000140046ad4     pjlib-util-x86_64-x64-vc14-release:dns.obj
 0002:00006ad8       ??_C@_05PGNGFKDN@CNAME?$AA@ 0000000140046ad8     pjlib-util-x86_64-x64-vc14-release:dns.obj
 0002:00006ae0       ??_C@_03PGIOJGPL@PTR?$AA@  0000000140046ae0     pjlib-util-x86_64-x64-vc14-release:dns.obj
 0002:00006ae4       ??_C@_02KJOOPCC@MX?$AA@    0000000140046ae4     pjlib-util-x86_64-x64-vc14-release:dns.obj
 0002:00006ae8       ??_C@_03CGKMFPEO@TXT?$AA@  0000000140046ae8     pjlib-util-x86_64-x64-vc14-release:dns.obj
 0002:00006aec       ??_C@_05DGMJPCKB@NAPTR?$AA@ 0000000140046aec     pjlib-util-x86_64-x64-vc14-release:dns.obj
 0002:00006af8       ??_C@_09ONJBBFFA@?$CIUnknown?$CJ?$AA@ 0000000140046af8     pjlib-util-x86_64-x64-vc14-release:dns.obj
 0002:00006b04       ??_C@_01LFCBOECM@?4?$AA@   0000000140046b04     pjlib-util-x86_64-x64-vc14-release:srv_resolver.obj
 0002:00006b08       ??_C@_0DA@GGGKMBOI@Starting?5async?5DNS?5?$CFs?5query_job?3@ 0000000140046b08     pjlib-util-x86_64-x64-vc14-release:srv_resolver.obj
 0002:00006b38       ??_C@_0CL@ICCMMEFF@Received?5non?5SRV?5answer?5for?5SRV?5@ 0000000140046b38     pjlib-util-x86_64-x64-vc14-release:srv_resolver.obj
 0002:00006b68       ??_C@_0BG@OENDJHLB@Hostname?5is?5too?5long?$CB?$AA@ 0000000140046b68     pjlib-util-x86_64-x64-vc14-release:srv_resolver.obj
 0002:00006b80       ??_C@_0BD@DHMAIAEI@Hostname?5is?5empty?$CB?$AA@ 0000000140046b80     pjlib-util-x86_64-x64-vc14-release:srv_resolver.obj
 0002:00006b98       ??_C@_0CJ@IGNPBKGN@Could?5not?5find?5SRV?5record?5in?5DNS@ 0000000140046b98     pjlib-util-x86_64-x64-vc14-release:srv_resolver.obj
 0002:00006bd0       ??_C@_0EE@LPMFAMKM@SRV?5query_job?5for?5?$CF?4?$CKs?5completed@ 0000000140046bd0     pjlib-util-x86_64-x64-vc14-release:srv_resolver.obj
 0002:00006c18       ??_C@_0BM@MJBLDIAG@?5?$CFd?3?5SRV?5?$CFd?5?$CFd?5?$CFd?5?$CF?4?$CKs?5?$CI?$CFs?$CJ?$AA@ 0000000140046c18     pjlib-util-x86_64-x64-vc14-release:srv_resolver.obj
 0002:00006c38       ??_C@_0CI@IBPJGCBL@Starting?5async?5DNS?5A?5query_job?5f@ 0000000140046c38     pjlib-util-x86_64-x64-vc14-release:srv_resolver.obj
 0002:00006c60       ??_C@_0CM@EKCLKLC@Discard?5truncated?5DNS?5SRV?5respon@ 0000000140046c60     pjlib-util-x86_64-x64-vc14-release:srv_resolver.obj
 0002:00006c90       ??_C@_0CH@COCLGFLO@DNS?5SRV?5resolution?5failed?5for?5?$CF?4@ 0000000140046c90     pjlib-util-x86_64-x64-vc14-release:srv_resolver.obj
 0002:00006cc0       ??_C@_0EM@PBBBMOKP@DNS?5SRV?5resolution?5failed?5for?5?$CF?4@ 0000000140046cc0     pjlib-util-x86_64-x64-vc14-release:srv_resolver.obj
 0002:00006d10       ??_C@_0CG@JECPCAPF@DNS?5?$CFs?5record?5parse?5error?5for?5?8?$CF@ 0000000140046d10     pjlib-util-x86_64-x64-vc14-release:srv_resolver.obj
 0002:00006d38       ??_C@_0CM@GNPJLEOH@Bad?5address?5family?5in?5DNS?5?$CFs?5que@ 0000000140046d38     pjlib-util-x86_64-x64-vc14-release:srv_resolver.obj
 0002:00006d68       ??_C@_0BE@BLHHGJAP@DNS?5?$CFs?5for?5?$CF?4?$CKs?3?5?$CFs?$AA@ 0000000140046d68     pjlib-util-x86_64-x64-vc14-release:srv_resolver.obj
 0002:00006d80       ??_C@_0CA@PGHOBDIK@DNS?5?$CFs?5record?5resolution?5failed?$AA@ 0000000140046d80     pjlib-util-x86_64-x64-vc14-release:srv_resolver.obj
 0002:00006da0       ??_C@_0DF@NMOAKAGH@Server?5resolution?5complete?0?5?$CFd?5s@ 0000000140046da0     pjlib-util-x86_64-x64-vc14-release:srv_resolver.obj
 0002:00006dd8       ??_C@_0CL@MGFFFLJG@DNS?5?$CFs?5record?5resolution?5error?5f@ 0000000140046dd8     pjlib-util-x86_64-x64-vc14-release:srv_resolver.obj
 0002:00006e04       ??_C@_04IFCNACLH@pj?$CFp?$AA@ 0000000140046e04     pjlib-x86_64-x64-vc14-release:os_core_win32.obj
 0002:00006e10       ??_C@_0BA@NGJFHJA@PJLIB?1No?5memory?$AA@ 0000000140046e10     pjlib-x86_64-x64-vc14-release:os_core_win32.obj
 0002:00006e20       ??_C@_0BP@NGEKBPIB@pjlib?5?$CFs?5for?5win32?5initialized?$AA@ 0000000140046e20     pjlib-x86_64-x64-vc14-release:os_core_win32.obj
 0002:00006e40       ??_C@_0BA@FNCACAIG@os_core_win32?4c?$AA@ 0000000140046e40     pjlib-x86_64-x64-vc14-release:os_core_win32.obj
 0002:00006e50       ??_C@_0BK@BHGJHPMG@?4?4?2src?2pj?2os_core_win32?4c?$AA@ 0000000140046e50     pjlib-x86_64-x64-vc14-release:os_core_win32.obj
 0002:00006e6c       ??_C@_05KHEDLION@thr?$CFp?$AA@ 0000000140046e6c     pjlib-x86_64-x64-vc14-release:os_core_win32.obj
 0002:00006e78       ??_C@_0CD@GPHECFNA@Thread?5stack?5max?5usage?$DN?$CFu?5by?5?$CFs?3@ 0000000140046e78     pjlib-x86_64-x64-vc14-release:os_core_win32.obj
 0002:00006e9c       ??_C@_05EJDHHBFJ@mtx?$CFp?$AA@ 0000000140046e9c     pjlib-x86_64-x64-vc14-release:os_core_win32.obj
 0002:00006ea4       ??_C@_05EKKMALCN@sem?$CFp?$AA@ 0000000140046ea4     pjlib-x86_64-x64-vc14-release:os_core_win32.obj
 0002:00006eb0       ??_C@_0CH@OGOOBJBE@IPv6?5is?5not?5supported?5?$CIPJ_EIPV6N@ 0000000140046eb0     pjlib-x86_64-x64-vc14-release:errno.obj
 0002:00006ed8       ??_C@_0CK@DJAHHNOI@Unsupported?5address?5family?5?$CIPJ_E@ 0000000140046ed8     pjlib-x86_64-x64-vc14-release:errno.obj
 0002:00006f08       ??_C@_0CD@PDGCJOJH@Object?5no?5longer?5exists?5?$CIPJ_EGON@ 0000000140046f08     pjlib-x86_64-x64-vc14-release:errno.obj
 0002:00006f30       ??_C@_0CI@LBHALONI@Socket?5is?5in?5bad?5state?5?$CIPJ_ESOCK@ 0000000140046f30     pjlib-x86_64-x64-vc14-release:errno.obj
 0002:000070e0       ??_C@_0BM@FLPPOGAG@Unknown?5Error?5?$CIPJ_EUNKNOWN?$CJ?$AA@ 00000001400470e0     pjlib-x86_64-x64-vc14-release:errno.obj
 0002:00007100       ??_C@_0CA@DCLOOJGD@Pending?5operation?5?$CIPJ_EPENDING?$CJ?$AA@ 0000000140047100     pjlib-x86_64-x64-vc14-release:errno.obj
 0002:00007120       ??_C@_0CO@GABEOAFF@Too?5many?5connecting?5sockets?5?$CIPJ_@ 0000000140047120     pjlib-x86_64-x64-vc14-release:errno.obj
 0002:00007150       ??_C@_0CG@CBCJBJGD@Invalid?5value?5or?5argument?5?$CIPJ_EI@ 0000000140047150     pjlib-x86_64-x64-vc14-release:errno.obj
 0002:00007178       ??_C@_0CA@GJABNEKD@Name?5too?5long?5?$CIPJ_ENAMETOOLONG?$CJ?$AA@ 0000000140047178     pjlib-x86_64-x64-vc14-release:errno.obj
 0002:00007198       ??_C@_0BJ@JNKLPII@Not?5found?5?$CIPJ_ENOTFOUND?$CJ?$AA@ 0000000140047198     pjlib-x86_64-x64-vc14-release:errno.obj
 0002:000071b8       ??_C@_0BO@GOLCMJKK@Not?5enough?5memory?5?$CIPJ_ENOMEM?$CJ?$AA@ 00000001400471b8     pjlib-x86_64-x64-vc14-release:errno.obj
 0002:000071d8       ??_C@_0BI@HHGDCAID@BUG?5DETECTED?$CB?5?$CIPJ_EBUG?$CJ?$AA@ 00000001400471d8     pjlib-x86_64-x64-vc14-release:errno.obj
 0002:000071f0       ??_C@_0CD@JOGIDHPJ@Operation?5timed?5out?5?$CIPJ_ETIMEDOU@ 00000001400471f0     pjlib-x86_64-x64-vc14-release:errno.obj
 0002:00007218       ??_C@_0DF@MIFNAIHL@Too?5many?5objects?5of?5the?5specifie@ 0000000140047218     pjlib-x86_64-x64-vc14-release:errno.obj
 0002:00007250       ??_C@_0BK@OMPILOH@Object?5is?5busy?5?$CIPJ_EBUSY?$CJ?$AA@ 0000000140047250     pjlib-x86_64-x64-vc14-release:errno.obj
 0002:00007270       ??_C@_0CP@BAIBJOJE@Option?1operation?5is?5not?5supporte@ 0000000140047270     pjlib-x86_64-x64-vc14-release:errno.obj
 0002:000072a0       ??_C@_0CC@OEEEEEML@Invalid?5operation?5?$CIPJ_EINVALIDOP@ 00000001400472a0     pjlib-x86_64-x64-vc14-release:errno.obj
 0002:000072c8       ??_C@_0CE@KDDMJLGF@Operation?5cancelled?5?$CIPJ_ECANCELL@ 00000001400472c8     pjlib-x86_64-x64-vc14-release:errno.obj
 0002:000072f0       ??_C@_0CD@LODOFNLC@Object?5already?5exists?5?$CIPJ_EEXIST@ 00000001400472f0     pjlib-x86_64-x64-vc14-release:errno.obj
 0002:00007318       ??_C@_0BG@GMBDFNLN@End?5of?5file?5?$CIPJ_EEOF?$CJ?$AA@ 0000000140047318     pjlib-x86_64-x64-vc14-release:errno.obj
 0002:00007330       ??_C@_0BN@PCCNBFLN@Size?5is?5too?5big?5?$CIPJ_ETOOBIG?$CJ?$AA@ 0000000140047330     pjlib-x86_64-x64-vc14-release:errno.obj
 0002:00007350       ??_C@_0DB@FDCHLEID@gethostbyname?$CI?$CJ?5has?5returned?5err@ 0000000140047350     pjlib-x86_64-x64-vc14-release:errno.obj
 0002:00007388       ??_C@_0CB@MGGLJMNO@Size?5is?5too?5short?5?$CIPJ_ETOOSMALL?$CJ@ 0000000140047388     pjlib-x86_64-x64-vc14-release:errno.obj
 0002:000073b0       ??_C@_0BG@NBDJGAFI@Ignored?5?$CIPJ_EIGNORED?$CJ?$AA@ 00000001400473b0     pjlib-x86_64-x64-vc14-release:errno.obj
 0002:000073c8       ??_C@_0BH@ONDLFCEA@Unknown?5pjlib?5error?5?$CFd?$AA@ 00000001400473c8     pjlib-x86_64-x64-vc14-release:errno.obj
 0002:000073e0       ??_C@_07PBILKAFL@Success?$AA@ 00000001400473e0     pjlib-x86_64-x64-vc14-release:errno.obj
 0002:000073e8       ??_C@_0BB@BIKLJNJD@Unknown?5error?5?$CFd?$AA@ 00000001400473e8     pjlib-x86_64-x64-vc14-release:errno.obj
 0002:000073fc       ??_C@_05NAOIJFC@Error?$AA@ 00000001400473fc     pjlib-x86_64-x64-vc14-release:errno.obj
 0002:00007404       ??_C@_06DJHOIPC@?$CFs?3?5?$CFs?$AA@ 0000000140047404     pjlib-x86_64-x64-vc14-release:errno.obj
 0002:0000740c       ??_C@_03HODKBCIO@?3?$CFd?$AA@ 000000014004740c     pjlib-x86_64-x64-vc14-release:sock_common.obj
 0002:00007410       ??_C@_08KJEDNCKC@?$CFs?$CFs?$CFs?$CFs?$AA@ 0000000140047410     pjlib-x86_64-x64-vc14-release:sock_common.obj
 0002:00007420       ??_C@_0BI@IIPAIKDD@?4?4?2src?2pj?2sock_common?4c?$AA@ 0000000140047420     pjlib-x86_64-x64-vc14-release:sock_common.obj
 0002:00007438       ??_C@_07EBPGIHEF@1?41?41?41?$AA@ 0000000140047438     pjlib-x86_64-x64-vc14-release:sock_common.obj
 0002:00007440       ??_C@_04NFKLOGOF@1?3?31?$AA@ 0000000140047440     pjlib-x86_64-x64-vc14-release:sock_common.obj
 0002:00007448       ??_C@_0M@HMJLLIPA@?$CFs?$CF?4?$CKs?$CFs?3?$CFd?$AA@ 0000000140047448     pjlib-x86_64-x64-vc14-release:sock_common.obj
 0002:00007458       ??_C@_08JLADFOFK@?$CFs?$CF?4?$CKs?$CFs?$AA@ 0000000140047458     pjlib-x86_64-x64-vc14-release:sock_common.obj
 0002:00007468       ??_C@_0BB@PKFOFEEC@?4?4?2src?2pj?2pool?4c?$AA@ 0000000140047468     pjlib-x86_64-x64-vc14-release:pool.obj
 0002:00007480       ??_C@_0BJ@MJKAJPML@?4?4?2src?2pj?2pool_caching?4c?$AA@ 0000000140047480     pjlib-x86_64-x64-vc14-release:pool_caching.obj
 0002:000074a0       ??_C@_0M@IGFPEOLJ@cachingpool?$AA@ 00000001400474a0     pjlib-x86_64-x64-vc14-release:pool_caching.obj
 0002:000074b0       ??_C@_0DD@ECGDPCBA@Pool?5is?5not?5released?5by?5applicat@ 00000001400474b0     pjlib-x86_64-x64-vc14-release:pool_caching.obj
 0002:000074e8       ??_C@_0BH@BBPHJKOA@?5Dumping?5caching?5pool?3?$AA@ 00000001400474e8     pjlib-x86_64-x64-vc14-release:pool_caching.obj
 0002:00007500       ??_C@_08COPEICHG@cachpool?$AA@ 0000000140047500     pjlib-x86_64-x64-vc14-release:pool_caching.obj
 0002:00007510       ??_C@_0CN@DOKPIIOH@?5?5?5Capacity?$DN?$CFu?0?5max_capacity?$DN?$CFu?0@ 0000000140047510     pjlib-x86_64-x64-vc14-release:pool_caching.obj
 0002:00007540       ??_C@_0BM@IDLDGCC@?5?5Dumping?5all?5active?5pools?3?$AA@ 0000000140047540     pjlib-x86_64-x64-vc14-release:pool_caching.obj
 0002:00007560       ??_C@_0CA@MMLIKIEG@?5?5?5?$CF16s?3?5?$CF8d?5of?5?$CF8d?5?$CI?$CFd?$CF?$CF?$CJ?5used?$AA@ 0000000140047560     pjlib-x86_64-x64-vc14-release:pool_caching.obj
 0002:00007580       ??_C@_0CB@GKBJPDKG@?5?5Total?5?$CF9d?5of?5?$CF9d?5?$CI?$CFd?5?$CF?$CF?$CJ?5used?$CB@ 0000000140047580     pjlib-x86_64-x64-vc14-release:pool_caching.obj
 0002:000075a8       ??_C@_0BD@ELEDKDKB@?4?4?2src?2pj?2string?4c?$AA@ 00000001400475a8     pjlib-x86_64-x64-vc14-release:string.obj
 0002:000075c0       ??_C@_0BA@CLLJDBF@?4?4?2src?2pj?2log?4c?$AA@ 00000001400475c0     pjlib-x86_64-x64-vc14-release:log.obj
 0002:000075d0       ??_C@_06DDFOEFIF@FATAL?3?$AA@ 00000001400475d0     pjlib-x86_64-x64-vc14-release:log.obj
 0002:000075d8       ??_C@_06PONDCDME@ERROR?3?$AA@ 00000001400475d8     pjlib-x86_64-x64-vc14-release:log.obj
 0002:000075e0       ??_C@_06OHJPOJDB@?5WARN?3?$AA@ 00000001400475e0     pjlib-x86_64-x64-vc14-release:log.obj
 0002:000075e8       ??_C@_06ICKKLHPE@?5INFO?3?$AA@ 00000001400475e8     pjlib-x86_64-x64-vc14-release:log.obj
 0002:000075f0       ??_C@_06DNOFLLB@DEBUG?3?$AA@ 00000001400475f0     pjlib-x86_64-x64-vc14-release:log.obj
 0002:000075f8       ??_C@_06ELIFFDKB@TRACE?3?$AA@ 00000001400475f8     pjlib-x86_64-x64-vc14-release:log.obj
 0002:00007600       ??_C@_06HGKAKJPG@DETRC?3?$AA@ 0000000140047600     pjlib-x86_64-x64-vc14-release:log.obj
 0002:00007608       ??_C@_03KOEHGMDN@Sun?$AA@  0000000140047608     pjlib-x86_64-x64-vc14-release:log.obj
 0002:0000760c       ??_C@_03PDAGKDH@Mon?$AA@   000000014004760c     pjlib-x86_64-x64-vc14-release:log.obj
 0002:00007610       ??_C@_03NAGEINEP@Tue?$AA@  0000000140047610     pjlib-x86_64-x64-vc14-release:log.obj
 0002:00007614       ??_C@_03MHOMLAJA@Wed?$AA@  0000000140047614     pjlib-x86_64-x64-vc14-release:log.obj
 0002:00007618       ??_C@_03IOFIKPDN@Thu?$AA@  0000000140047618     pjlib-x86_64-x64-vc14-release:log.obj
 0002:0000761c       ??_C@_03IDIOELNC@Fri?$AA@  000000014004761c     pjlib-x86_64-x64-vc14-release:log.obj
 0002:00007620       ??_C@_03FEFJNEK@Sat?$AA@   0000000140047620     pjlib-x86_64-x64-vc14-release:log.obj
 0002:00007628       ??_C@_0BO@BGMDCDKP@?$DMlogging?5error?3?5msg?5too?5long?$DO?$AA@ 0000000140047628     pjlib-x86_64-x64-vc14-release:log.obj
 0002:00007648       PJ_IPV6_TCLASS             0000000140047648     pjlib-x86_64-x64-vc14-release:sock_bsd.obj
 0002:0000764c       PJ_SO_TYPE                 000000014004764c     pjlib-x86_64-x64-vc14-release:sock_bsd.obj
 0002:00007650       PJ_SO_RCVBUF               0000000140047650     pjlib-x86_64-x64-vc14-release:sock_bsd.obj
 0002:00007654       PJ_SO_SNDBUF               0000000140047654     pjlib-x86_64-x64-vc14-release:sock_bsd.obj
 0002:00007658       PJ_TCP_NODELAY             0000000140047658     pjlib-x86_64-x64-vc14-release:sock_bsd.obj
 0002:0000765c       PJ_SO_REUSEADDR            000000014004765c     pjlib-x86_64-x64-vc14-release:sock_bsd.obj
 0002:00007660       PJ_SO_NOSIGPIPE            0000000140047660     pjlib-x86_64-x64-vc14-release:sock_bsd.obj
 0002:00007664       PJ_SO_PRIORITY             0000000140047664     pjlib-x86_64-x64-vc14-release:sock_bsd.obj
 0002:00007668       PJ_IP_MULTICAST_IF         0000000140047668     pjlib-x86_64-x64-vc14-release:sock_bsd.obj
 0002:0000766c       PJ_IP_MULTICAST_TTL        000000014004766c     pjlib-x86_64-x64-vc14-release:sock_bsd.obj
 0002:00007670       PJ_IP_MULTICAST_LOOP       0000000140047670     pjlib-x86_64-x64-vc14-release:sock_bsd.obj
 0002:00007674       PJ_IP_ADD_MEMBERSHIP       0000000140047674     pjlib-x86_64-x64-vc14-release:sock_bsd.obj
 0002:00007678       PJ_IP_DROP_MEMBERSHIP      0000000140047678     pjlib-x86_64-x64-vc14-release:sock_bsd.obj
 0002:0000767c       PJ_MSG_OOB                 000000014004767c     pjlib-x86_64-x64-vc14-release:sock_bsd.obj
 0002:00007680       PJ_MSG_PEEK                0000000140047680     pjlib-x86_64-x64-vc14-release:sock_bsd.obj
 0002:00007684       PJ_MSG_DONTROUTE           0000000140047684     pjlib-x86_64-x64-vc14-release:sock_bsd.obj
 0002:00007688       PJ_AF_UNSPEC               0000000140047688     pjlib-x86_64-x64-vc14-release:sock_bsd.obj
 0002:0000768c       PJ_AF_UNIX                 000000014004768c     pjlib-x86_64-x64-vc14-release:sock_bsd.obj
 0002:00007690       PJ_AF_INET                 0000000140047690     pjlib-x86_64-x64-vc14-release:sock_bsd.obj
 0002:00007694       PJ_AF_INET6                0000000140047694     pjlib-x86_64-x64-vc14-release:sock_bsd.obj
 0002:00007698       PJ_AF_PACKET               0000000140047698     pjlib-x86_64-x64-vc14-release:sock_bsd.obj
 0002:0000769c       PJ_AF_IRDA                 000000014004769c     pjlib-x86_64-x64-vc14-release:sock_bsd.obj
 0002:000076a0       PJ_SOCK_STREAM             00000001400476a0     pjlib-x86_64-x64-vc14-release:sock_bsd.obj
 0002:000076a4       PJ_SOCK_DGRAM              00000001400476a4     pjlib-x86_64-x64-vc14-release:sock_bsd.obj
 0002:000076a8       PJ_SOCK_RAW                00000001400476a8     pjlib-x86_64-x64-vc14-release:sock_bsd.obj
 0002:000076ac       PJ_SOCK_RDM                00000001400476ac     pjlib-x86_64-x64-vc14-release:sock_bsd.obj
 0002:000076b0       PJ_SOL_SOCKET              00000001400476b0     pjlib-x86_64-x64-vc14-release:sock_bsd.obj
 0002:000076b4       PJ_SOL_IP                  00000001400476b4     pjlib-x86_64-x64-vc14-release:sock_bsd.obj
 0002:000076b8       PJ_SOL_TCP                 00000001400476b8     pjlib-x86_64-x64-vc14-release:sock_bsd.obj
 0002:000076bc       PJ_SOL_UDP                 00000001400476bc     pjlib-x86_64-x64-vc14-release:sock_bsd.obj
 0002:000076c0       PJ_SOL_IPV6                00000001400476c0     pjlib-x86_64-x64-vc14-release:sock_bsd.obj
 0002:000076c4       PJ_IP_TOS                  00000001400476c4     pjlib-x86_64-x64-vc14-release:sock_bsd.obj
 0002:000076c8       PJ_IPTOS_LOWDELAY          00000001400476c8     pjlib-x86_64-x64-vc14-release:sock_bsd.obj
 0002:000076cc       PJ_IPTOS_THROUGHPUT        00000001400476cc     pjlib-x86_64-x64-vc14-release:sock_bsd.obj
 0002:000076d0       PJ_IPTOS_RELIABILITY       00000001400476d0     pjlib-x86_64-x64-vc14-release:sock_bsd.obj
 0002:000076d4       PJ_IPTOS_MINCOST           00000001400476d4     pjlib-x86_64-x64-vc14-release:sock_bsd.obj
 0002:000076d8       ??_C@_0BF@KBJNEAPB@?4?4?2src?2pj?2sock_bsd?4c?$AA@ 00000001400476d8     pjlib-x86_64-x64-vc14-release:sock_bsd.obj
 0002:000076f0       ??_C@_0CE@IJGJDCPP@Warning?3?5error?5applying?5sock?5opt@ 00000001400476f0     pjlib-x86_64-x64-vc14-release:sock_bsd.obj
 0002:00007718       ??_C@_0L@NNKPLKFK@sock_bsd?4c?$AA@ 0000000140047718     pjlib-x86_64-x64-vc14-release:sock_bsd.obj
 0002:00007724       ??_C@_06HALIBNKJ@glck?$CFp?$AA@ 0000000140047724     pjlib-x86_64-x64-vc14-release:lock.obj
 0002:00007730       ??_C@_0BB@KPBPCFEE@?4?4?2src?2pj?2rand?4c?$AA@ 0000000140047730     pjlib-x86_64-x64-vc14-release:rand.obj
 0002:00007748       ??_C@_0BC@OIAJPKFB@?4?4?2src?2pj?2types?4c?$AA@ 0000000140047748     pjlib-x86_64-x64-vc14-release:types.obj
 0002:00007760       ??_C@_0BC@IICDBALP@?4?4?2src?2pj?2timer?4c?$AA@ 0000000140047760     pjlib-x86_64-x64-vc14-release:timer.obj
 0002:00007780       ??_C@_0GD@IKDOJBHK@Bug?$CB?5Trying?5to?5remove?5entry?5?$CFp?5f@ 0000000140047780     pjlib-x86_64-x64-vc14-release:timer.obj
 0002:000077e8       ??_C@_07PEGEGJOK@timer?4c?$AA@ 00000001400477e8     pjlib-x86_64-x64-vc14-release:timer.obj
 0002:000077f0       ??_C@_0CN@BCAOBBMI@Warning?$CB?5Rescheduling?5outstandin@ 00000001400477f0     pjlib-x86_64-x64-vc14-release:timer.obj
 0002:00007820       ??_C@_0FD@OKAOJAGN@Bug?$CB?5Polling?5entry?5?$CFp?5from?5?$CFs?5li@ 0000000140047820     pjlib-x86_64-x64-vc14-release:timer.obj
 0002:00007878       ??_C@_0BE@PEPBNPID@Dumping?5timer?5heap?3?$AA@ 0000000140047878     pjlib-x86_64-x64-vc14-release:timer.obj
 0002:00007890       ??_C@_0CA@GBHLCEHA@?5?5Cur?5size?3?5?$CFd?5entries?0?5max?3?5?$CFd?$AA@ 0000000140047890     pjlib-x86_64-x64-vc14-release:timer.obj
 0002:000078b0       ??_C@_0M@BOIDEIDM@?5?5Entries?3?5?$AA@ 00000001400478b0     pjlib-x86_64-x64-vc14-release:timer.obj
 0002:000078c0       ??_C@_0BK@HKHOIEEA@?5?5?5?5_id?7Id?7Elapsed?7Source?$AA@ 00000001400478c0     pjlib-x86_64-x64-vc14-release:timer.obj
 0002:000078e0       ??_C@_0CH@INDCMHLK@?5?5?5?5?9?9?9?9?9?9?9?9?9?9?9?9?9?9?9?9?9?9?9?9?9?9?9?9?9?9?9?9@ 00000001400478e0     pjlib-x86_64-x64-vc14-release:timer.obj
 0002:00007908       ??_C@_0BI@MDGGFDFM@?5?5?5?5?$CFd?7?$CFd?7?$CFd?4?$CF03d?7?$CFs?3?$CFd?$AA@ 0000000140047908     pjlib-x86_64-x64-vc14-release:timer.obj
 0002:00007920       ??_C@_0HG@CMNADICF@c?3?2users?2user?2documents?2github?2a@ 0000000140047920     pjlib-x86_64-x64-vc14-release:ioqueue_select.obj
 0002:00007998       ??_C@_05LIJONKFG@ioq?$CFp?$AA@ 0000000140047998     pjlib-x86_64-x64-vc14-release:ioqueue_select.obj
 0002:000079a0       ??_C@_0CA@IMDCINDN@select?$CI?$CJ?5I?1O?5Queue?5created?5?$CI?$CFp?$CJ?$AA@ 00000001400479a0     pjlib-x86_64-x64-vc14-release:ioqueue_select.obj
 0002:000079c0       ??_C@_05PHKAINEA@pjlib?$AA@ 00000001400479c0     pjlib-x86_64-x64-vc14-release:ioqueue_select.obj
 0002:000079c8       ??_C@_0CJ@NPMLHLI@Bad?5ioqueue?5count?5in?5key?5unregis@ 00000001400479c8     pjlib-x86_64-x64-vc14-release:ioqueue_select.obj
 0002:000079f8       ??_C@_0L@CAJCIPAG@ioq_select?$AA@ 00000001400479f8     pjlib-x86_64-x64-vc14-release:ioqueue_select.obj
 0002:00007a08       ??_C@_0CD@KFHCCJFN@?$CB?$CB?$CBFATAL?3?5unhandled?5exception?5?$CFs@ 0000000140047a08     pjlib-x86_64-x64-vc14-release:except.obj
 0002:00007a30       ??_C@_08PDFMOJIE@except?4c?$AA@ 0000000140047a30     pjlib-x86_64-x64-vc14-release:except.obj
 0002:00007a40       ??_C@_0N@GJOLEKJC@?$DMInvalid?5ID?$DO?$AA@ 0000000140047a40     pjlib-x86_64-x64-vc14-release:except.obj
 0002:00007a50       ??_C@_0N@LJPLLMIL@exception?5?$CFd?$AA@ 0000000140047a50     pjlib-x86_64-x64-vc14-release:except.obj
 0002:00007a60       ??_C@_0BB@LOBHAKEP@?4?4?2src?2pj?2hash?4c?$AA@ 0000000140047a60     pjlib-x86_64-x64-vc14-release:hash.obj
 0002:00007da0       ??_C@_0CD@FNMHLHMI@Interrupted?5system?5call?5?$CIWSAEINT@ 0000000140047da0     pjlib-x86_64-x64-vc14-release:os_error_win32.obj
 0002:00007dc8       ??_C@_0BL@OKPDNKLH@Bad?5file?5number?5?$CIWSAEBADF?$CJ?$AA@ 0000000140047dc8     pjlib-x86_64-x64-vc14-release:os_error_win32.obj
 0002:00007de8       ??_C@_0BO@BMBEEPBP@Permission?5denied?5?$CIWSAEACCES?$CJ?$AA@ 0000000140047de8     pjlib-x86_64-x64-vc14-release:os_error_win32.obj
 0002:00007e08       ??_C@_0BI@LAKHPJJ@Bad?5address?5?$CIWSAEFAULT?$CJ?$AA@ 0000000140047e08     pjlib-x86_64-x64-vc14-release:os_error_win32.obj
 0002:00007e20       ??_C@_0BN@FEIDINKH@Invalid?5argument?5?$CIWSAEINVAL?$CJ?$AA@ 0000000140047e20     pjlib-x86_64-x64-vc14-release:os_error_win32.obj
 0002:00007e40       ??_C@_0CC@HMKKNDGL@Too?5many?5open?5sockets?5?$CIWSAEMFILE@ 0000000140047e40     pjlib-x86_64-x64-vc14-release:os_error_win32.obj
 0002:00007e68       ??_C@_0CH@GCPPFMGM@Operation?5would?5block?5?$CIWSAEWOULD@ 0000000140047e68     pjlib-x86_64-x64-vc14-release:os_error_win32.obj
 0002:00007e90       ??_C@_0CL@DKGHEPCD@Operation?5now?5in?5progress?5?$CIWSAEI@ 0000000140047e90     pjlib-x86_64-x64-vc14-release:os_error_win32.obj
 0002:00007ec0       ??_C@_0CM@BEMCBKDH@Operation?5already?5in?5progress?5?$CIW@ 0000000140047ec0     pjlib-x86_64-x64-vc14-release:os_error_win32.obj
 0002:00007ef0       ??_C@_0CN@PAFKDEBN@Socket?5operation?5on?5non?9socket?5?$CI@ 0000000140047ef0     pjlib-x86_64-x64-vc14-release:os_error_win32.obj
 0002:00007f20       ??_C@_0CP@HCDICECK@Destination?5address?5required?5?$CIWS@ 0000000140047f20     pjlib-x86_64-x64-vc14-release:os_error_win32.obj
 0002:00007f50       ??_C@_0BP@LNFPBFEK@Message?5too?5long?5?$CIWSAEMSGSIZE?$CJ?$AA@ 0000000140047f50     pjlib-x86_64-x64-vc14-release:os_error_win32.obj
 0002:00007f70       ??_C@_0CP@MMIMIEMF@Protocol?5wrong?5type?5for?5socket?5?$CI@ 0000000140047f70     pjlib-x86_64-x64-vc14-release:os_error_win32.obj
 0002:00007fa0       ??_C@_0CF@HNFLHOHA@Bad?5protocol?5option?5?$CIWSAENOPROTO@ 0000000140047fa0     pjlib-x86_64-x64-vc14-release:os_error_win32.obj
 0002:00007fc8       ??_C@_0CM@HPGHEHCE@Protocol?5not?5supported?5?$CIWSAEPROT@ 0000000140047fc8     pjlib-x86_64-x64-vc14-release:os_error_win32.obj
 0002:00007ff8       ??_C@_0CP@JLBNHCOL@Socket?5type?5not?5supported?5?$CIWSAES@ 0000000140047ff8     pjlib-x86_64-x64-vc14-release:os_error_win32.obj
 0002:00008028       ??_C@_0DC@GJMFANID@Operation?5not?5supported?5on?5socke@ 0000000140048028     pjlib-x86_64-x64-vc14-release:os_error_win32.obj
 0002:00008060       ??_C@_0DA@GFNBENIG@Protocol?5family?5not?5supported?5?$CIW@ 0000000140048060     pjlib-x86_64-x64-vc14-release:os_error_win32.obj
 0002:00008090       ??_C@_0CP@MMKHGIFC@Address?5family?5not?5supported?5?$CIWS@ 0000000140048090     pjlib-x86_64-x64-vc14-release:os_error_win32.obj
 0002:000080c0       ??_C@_0CH@OCKNFBKE@Address?5already?5in?5use?5?$CIWSAEADDR@ 00000001400480c0     pjlib-x86_64-x64-vc14-release:os_error_win32.obj
 0002:000080e8       ??_C@_0DC@FJJPJPOD@Can?8t?5assign?5requested?5address?5?$CI@ 00000001400480e8     pjlib-x86_64-x64-vc14-release:os_error_win32.obj
 0002:00008120       ??_C@_0BO@IICKDHLJ@Network?5is?5down?5?$CIWSAENETDOWN?$CJ?$AA@ 0000000140048120     pjlib-x86_64-x64-vc14-release:os_error_win32.obj
 0002:00008140       ??_C@_0CI@NKJAACME@Network?5is?5unreachable?5?$CIWSAENETU@ 0000000140048140     pjlib-x86_64-x64-vc14-release:os_error_win32.obj
 0002:00008168       ??_C@_0CE@LJEEEFEC@Net?5connection?5reset?5?$CIWSAENETRES@ 0000000140048168     pjlib-x86_64-x64-vc14-release:os_error_win32.obj
 0002:00008190       ??_C@_0DD@PGDIHOBG@Software?5caused?5connection?5abort@ 0000000140048190     pjlib-x86_64-x64-vc14-release:os_error_win32.obj
 0002:000081c8       ??_C@_0CJ@PJHCFAAN@Connection?5reset?5by?5peer?5?$CIWSAECO@ 00000001400481c8     pjlib-x86_64-x64-vc14-release:os_error_win32.obj
 0002:000081f8       ??_C@_0CH@EKNGIMKN@No?5buffer?5space?5available?5?$CIWSAEN@ 00000001400481f8     pjlib-x86_64-x64-vc14-release:os_error_win32.obj
 0002:00008220       ??_C@_0CJ@JOPBNNOD@Socket?5is?5already?5connected?5?$CIWSA@ 0000000140048220     pjlib-x86_64-x64-vc14-release:os_error_win32.obj
 0002:00008250       ??_C@_0CG@CECDMHLL@Socket?5is?5not?5connected?5?$CIWSAENOT@ 0000000140048250     pjlib-x86_64-x64-vc14-release:os_error_win32.obj
 0002:00008278       ??_C@_0DA@JGJMJPNM@Can?8t?5send?5after?5socket?5shutdown@ 0000000140048278     pjlib-x86_64-x64-vc14-release:os_error_win32.obj
 0002:000082a8       ??_C@_0DE@CAILNFFE@Too?5many?5references?0?5can?8t?5splic@ 00000001400482a8     pjlib-x86_64-x64-vc14-release:os_error_win32.obj
 0002:000082e0       ??_C@_0CE@IIKHBGF@Connection?5timed?5out?5?$CIWSAETIMEDO@ 00000001400482e0     pjlib-x86_64-x64-vc14-release:os_error_win32.obj
 0002:00008308       ??_C@_0CF@JMKFBJH@Connection?5refused?5?$CIWSAECONNREFU@ 0000000140048308     pjlib-x86_64-x64-vc14-release:os_error_win32.obj
 0002:00008330       ??_C@_0CN@FCKBNFMB@Too?5many?5levels?5of?5symbolic?5link@ 0000000140048330     pjlib-x86_64-x64-vc14-release:os_error_win32.obj
 0002:00008360       ??_C@_0CF@MOFKOMBB@File?5name?5too?5long?5?$CIWSAENAMETOOL@ 0000000140048360     pjlib-x86_64-x64-vc14-release:os_error_win32.obj
 0002:00008388       ??_C@_0BM@NCJCEEDP@Host?5is?5down?5?$CIWSAEHOSTDOWN?$CJ?$AA@ 0000000140048388     pjlib-x86_64-x64-vc14-release:os_error_win32.obj
 0002:000083a8       ??_C@_0CD@ECJOJHBH@No?5route?5to?5host?5?$CIWSAEHOSTUNREAC@ 00000001400483a8     pjlib-x86_64-x64-vc14-release:os_error_win32.obj
 0002:000083d0       ??_C@_0CD@NEFLEHEG@Directory?5not?5empty?5?$CIWSAENOTEMPT@ 00000001400483d0     pjlib-x86_64-x64-vc14-release:os_error_win32.obj
 0002:000083f8       ??_C@_0CB@GPCGLHOJ@Too?5many?5processes?5?$CIWSAEPROCLIM?$CJ@ 00000001400483f8     pjlib-x86_64-x64-vc14-release:os_error_win32.obj
 0002:00008420       ??_C@_0BL@IGHJMJKO@Too?5many?5users?5?$CIWSAEUSERS?$CJ?$AA@ 0000000140048420     pjlib-x86_64-x64-vc14-release:os_error_win32.obj
 0002:00008440       ??_C@_0CA@MIOFDKMA@Disc?5quota?5exceeded?5?$CIWSAEDQUOT?$CJ?$AA@ 0000000140048440     pjlib-x86_64-x64-vc14-release:os_error_win32.obj
 0002:00008460       ??_C@_0CC@IMLIDHNH@Stale?5NFS?5file?5handle?5?$CIWSAESTALE@ 0000000140048460     pjlib-x86_64-x64-vc14-release:os_error_win32.obj
 0002:00008488       ??_C@_0CP@MLAFGPOA@Too?5many?5levels?5of?5remote?5in?5pat@ 0000000140048488     pjlib-x86_64-x64-vc14-release:os_error_win32.obj
 0002:000084b8       ??_C@_0CP@IBAEMKGH@Network?5system?5is?5unavailable?5?$CIW@ 00000001400484b8     pjlib-x86_64-x64-vc14-release:os_error_win32.obj
 0002:000084e8       ??_C@_0DC@BLAKHMMJ@Winsock?5version?5out?5of?5range?5?$CIWS@ 00000001400484e8     pjlib-x86_64-x64-vc14-release:os_error_win32.obj
 0002:00008520       ??_C@_0CO@HPDHHDHA@WSAStartup?5not?5yet?5called?5?$CIWSANO@ 0000000140048520     pjlib-x86_64-x64-vc14-release:os_error_win32.obj
 0002:00008550       ??_C@_0CL@GFDHEKLB@Graceful?5shutdown?5in?5progress?5?$CIW@ 0000000140048550     pjlib-x86_64-x64-vc14-release:os_error_win32.obj
 0002:00008580       ??_C@_0CD@OEALOMDH@Host?5not?5found?5?$CIWSAHOST_NOT_FOUN@ 0000000140048580     pjlib-x86_64-x64-vc14-release:os_error_win32.obj
 0002:000085a8       ??_C@_0DB@KFPHELLI@No?5host?5data?5of?5that?5type?5was?5fo@ 00000001400485a8     pjlib-x86_64-x64-vc14-release:os_error_win32.obj
 0002:000085e0       ??_C@_0BE@JPHLLAEM@Win32?5error?5code?5?$CFu?$AA@ 00000001400485e0     pjlib-x86_64-x64-vc14-release:os_error_win32.obj
 0002:000085f4       PJ_GUID_STRING_LENGTH      00000001400485f4     pjlib-x86_64-x64-vc14-release:guid_win32.obj
 0002:000085f8       ??_C@_0BH@DLOCENPK@?4?4?2src?2pj?2guid_win32?4c?$AA@ 00000001400485f8     pjlib-x86_64-x64-vc14-release:guid_win32.obj
 0002:00008640       ??_C@_0BC@GPHMAKPK@sock_qos_common?4c?$AA@ 0000000140048640     pjlib-x86_64-x64-vc14-release:sock_qos_common.obj
 0002:00008654       ??_C@_06HBELJPBO@socket?$AA@ 0000000140048654     pjlib-x86_64-x64-vc14-release:sock_qos_common.obj
 0002:00008660       ??_C@_0CA@EBJCMLJI@Error?5setting?5QoS?5type?5?$CFd?5to?5?$CFs?$AA@ 0000000140048660     pjlib-x86_64-x64-vc14-release:sock_qos_common.obj
 0002:00008680       ??_C@_0CK@CGDCCPNL@Error?5setting?5QoS?5params?5?$CIflags?$DN@ 0000000140048680     pjlib-x86_64-x64-vc14-release:sock_qos_common.obj
 0002:000086b0       ??_C@_0GB@HHNNKDBF@Received?5?$CFd?5consecutive?5errors?3?5@ 00000001400486b0     pjlib-x86_64-x64-vc14-release:activesock.obj
 0002:00008718       __real@3ff0000000000000    0000000140048718     pjlib-x86_64-x64-vc14-release:os_timestamp_common.obj
 0002:00008720       __real@408f400000000000    0000000140048720     pjlib-x86_64-x64-vc14-release:os_timestamp_common.obj
 0002:00008728       ??_C@_04FIDOICFN@2?410?$AA@ 0000000140048728     pjlib-x86_64-x64-vc14-release:config.obj
 0002:00008730       ??_C@_08DOCHLGNA@config?4c?$AA@ 0000000140048730     pjlib-x86_64-x64-vc14-release:config.obj
 0002:00008740       ??_C@_08PFPBFMIL@IpHlpApi?$AA@ 0000000140048740     pjlib-x86_64-x64-vc14-release:ip_helper_win32.obj
 0002:00008750       ??_C@_0P@PMIJPFPM@GetIpAddrTable?$AA@ 0000000140048750     pjlib-x86_64-x64-vc14-release:ip_helper_win32.obj
 0002:00008760       ??_C@_0BF@LHFCIIHE@GetAdaptersAddresses?$AA@ 0000000140048760     pjlib-x86_64-x64-vc14-release:ip_helper_win32.obj
 0002:00008778       ??_C@_0L@BLHMKEDC@GetIfEntry?$AA@ 0000000140048778     pjlib-x86_64-x64-vc14-release:ip_helper_win32.obj
 0002:00008788       ??_C@_0BP@JMMENEAD@?4?4?2src?2pj?2pool_policy_malloc?4c?$AA@ 0000000140048788     pjlib-x86_64-x64-vc14-release:pool_policy_malloc.obj
 0002:000087a8       ??_C@_0BO@KBBNBAFA@?4?4?2src?2pj?2log_writer_stdout?4c?$AA@ 00000001400487a8     pjlib-x86_64-x64-vc14-release:log_writer_stdout.obj
 0002:000087c8       ??_C@_0BI@FIAAHKJ@?4?4?2src?2pj?2sock_select?4c?$AA@ 00000001400487c8     pjlib-x86_64-x64-vc14-release:sock_select.obj
 0002:00008810       _load_config_used          0000000140048810     MSVCRT:loadcfg.obj
 0002:00008b00       __rtc_iaa                  0000000140048b00     MSVCRT:_initsect_.obj
 0002:00008b08       __rtc_izz                  0000000140048b08     MSVCRT:_initsect_.obj
 0002:00008b10       __rtc_taa                  0000000140048b10     MSVCRT:_initsect_.obj
 0002:00008b18       __rtc_tzz                  0000000140048b18     MSVCRT:_initsect_.obj
 0002:0000e36c       __IMPORT_DESCRIPTOR_ole32  000000014004e36c     ole32:ole32.dll
 0002:0000e380       __IMPORT_DESCRIPTOR_WS2_32 000000014004e380     ws2_32:WS2_32.dll
 0002:0000e394       __IMPORT_DESCRIPTOR_KERNEL32 000000014004e394     kernel32:KERNEL32.dll
 0002:0000e3a8       __IMPORT_DESCRIPTOR_VCRUNTIME140 000000014004e3a8     vcruntime:VCRUNTIME140.dll
 0002:0000e3bc       __IMPORT_DESCRIPTOR_api-ms-win-crt-stdio-l1-1-0 000000014004e3bc     ucrt:api-ms-win-crt-stdio-l1-1-0.dll
 0002:0000e3d0       __IMPORT_DESCRIPTOR_api-ms-win-crt-convert-l1-1-0 000000014004e3d0     ucrt:api-ms-win-crt-convert-l1-1-0.dll
 0002:0000e3e4       __IMPORT_DESCRIPTOR_api-ms-win-crt-string-l1-1-0 000000014004e3e4     ucrt:api-ms-win-crt-string-l1-1-0.dll
 0002:0000e3f8       __IMPORT_DESCRIPTOR_api-ms-win-crt-utility-l1-1-0 000000014004e3f8     ucrt:api-ms-win-crt-utility-l1-1-0.dll
 0002:0000e40c       __IMPORT_DESCRIPTOR_api-ms-win-crt-math-l1-1-0 000000014004e40c     ucrt:api-ms-win-crt-math-l1-1-0.dll
 0002:0000e420       __IMPORT_DESCRIPTOR_api-ms-win-crt-heap-l1-1-0 000000014004e420     ucrt:api-ms-win-crt-heap-l1-1-0.dll
 0002:0000e434       __IMPORT_DESCRIPTOR_api-ms-win-crt-runtime-l1-1-0 000000014004e434     ucrt:api-ms-win-crt-runtime-l1-1-0.dll
 0002:0000e448       __IMPORT_DESCRIPTOR_api-ms-win-crt-locale-l1-1-0 000000014004e448     ucrt:api-ms-win-crt-locale-l1-1-0.dll
 0002:0000e45c       __NULL_IMPORT_DESCRIPTOR   000000014004e45c     ole32:ole32.dll
 0003:000010c0       mod_stateful_util          00000001400510c0     pjsip-core-x86_64-x64-vc14-release:sip_util_statefull.obj
 0003:00001398       pjsip_include_allow_hdr_in_dlg 0000000140051398     pjsip-core-x86_64-x64-vc14-release:sip_dialog.obj
 0003:00001610       PJSIP_SYN_ERR_EXCEPTION    0000000140051610     pjsip-core-x86_64-x64-vc14-release:sip_parser.obj
 0003:00001614       PJSIP_EINVAL_ERR_EXCEPTION 0000000140051614     pjsip-core-x86_64-x64-vc14-release:sip_parser.obj
 0003:00001620       pjsip_sip_cfg_var          0000000140051620     pjsip-core-x86_64-x64-vc14-release:sip_config.obj
 0003:000017e8       pj_optind                  00000001400517e8     pjlib-util-x86_64-x64-vc14-release:getopt.obj
 0003:000017ec       pj_optopt                  00000001400517ec     pjlib-util-x86_64-x64-vc14-release:getopt.obj
 0003:000019d0       PJ_VERSION                 00000001400519d0     pjlib-x86_64-x64-vc14-release:config.obj
 0003:000019e0       pj_pool_factory_default_policy 00000001400519e0     pjlib-x86_64-x64-vc14-release:pool_policy_malloc.obj
 0003:00001a00       __security_cookie          0000000140051a00     MSVCRT:gs_cookie.obj
 0003:00001a08       __security_cookie_complement 0000000140051a08     MSVCRT:gs_cookie.obj
 0003:00001a10       __isa_available            0000000140051a10     MSVCRT:_cpu_disp_.obj
 0003:00001a14       __isa_enabled              0000000140051a14     MSVCRT:_cpu_disp_.obj
 0003:00001a18       __memcpy_nt_iters          0000000140051a18     MSVCRT:_cpu_disp_.obj
 0003:00001a20       _fltused                   0000000140051a20     MSVCRT:dllsupp.obj
 0003:00001a30       __scrt_native_dllmain_reason 0000000140051a30     MSVCRT:utility.obj
 0003:00001a34       __scrt_default_matherr     0000000140051a34     MSVCRT:matherr.obj
 0003:00001a40       __scrt_ucrt_dll_is_in_use  0000000140051a40     MSVCRT:ucrt_stubs.obj
 0003:00007400       pj_optarg                  0000000140057400     pjlib-util-x86_64-x64-vc14-release:getopt.obj
 0003:00007e80       __favor                    0000000140057e80     MSVCRT:_cpu_disp_.obj
 0003:00007e88       __scrt_current_native_startup_state 0000000140057e88     MSVCRT:utility.obj
 0003:00007e90       __scrt_native_startup_lock 0000000140057e90     MSVCRT:utility.obj
 0003:00007ed0       ?__type_info_root_node@@3U__type_info_node@@A 0000000140057ed0     MSVCRT:tncleanup.obj
 0003:00007ee0       ?_OptionsStorage@?1??__local_stdio_scanf_options@@9@4_KA 0000000140057ee0     MSVCRT:default_local_stdio_options.obj
 0003:00007ee8       __scrt_debugger_hook_flag  0000000140057ee8     MSVCRT:utility_desktop.obj
 0003:00007ef0       ?_OptionsStorage@?1??__local_stdio_printf_options@@9@9 0000000140057ef0     <common>
 0003:00007ef8       pjsip_dlg_lock_tls_id      0000000140057ef8     <common>
 0003:00007efc       PJ_NO_MEMORY_EXCEPTION     0000000140057efc     <common>
 0003:00007f00       __dyn_tls_dtor_callback    0000000140057f00     <common>
 0003:00007f08       __dyn_tls_init_callback    0000000140057f08     <common>

 entry point at        0001:0003dc04

 Static symbols

 0001:00000000       pj_list_init               0000000140001000 f   sipecho.obj
 0001:00000010       pj_list_push_back          0000000140001010 f   sipecho.obj
 0001:00000020       pj_pool_zalloc             0000000140001020 f   sipecho.obj
 0001:00000040       pj_bzero                   0000000140001040 f   sipecho.obj
 0001:00000050       app_perror                 0000000140001050 f   sipecho.obj
 0001:00000520       call_on_media_update       0000000140001520 f   sipecho.obj
 0001:00000530       call_on_state_changed      0000000140001530 f   sipecho.obj
 0001:00000600       call_on_rx_offer           0000000140001600 f   sipecho.obj
 0001:00000650       call_on_forked             0000000140001650 f   sipecho.obj
 0001:00000660       on_rx_request              0000000140001660 f   sipecho.obj
 0001:00000af0       logging_on_rx_msg          0000000140001af0 f   sipecho.obj
 0001:00000b90       logging_on_tx_msg          0000000140001b90 f   sipecho.obj
 0001:00000c50       worker_proc                0000000140001c50 f   sipecho.obj
 0001:00000cb0       hangup_all                 0000000140001cb0 f   sipecho.obj
 0001:00000d20       destroy_stack              0000000140001d20 f   sipecho.obj
 0001:00000e90       init_stack                 0000000140001e90 f   sipecho.obj
 0001:00001110       destroy_call               0000000140002110 f   sipecho.obj
 0001:00001120       find_remove_sdp_attrs      0000000140002120 f   sipecho.obj
 0001:000011f0       create_answer              00000001400021f0 f   sipecho.obj
 0001:00001610       usage                      0000000140002610 f   sipecho.obj
 0001:00001b50       mod_inv_load               0000000140002b50 f   pjsip-ua-x86_64-x64-vc14-release:sip_inv.obj
 0001:00001c50       mod_tsx_layer_start        0000000140002c50 f   pjsip-core-x86_64-x64-vc14-release:sip_transaction.obj
 0001:00001c50       mod_inv_unload             0000000140002c50 f   pjsip-ua-x86_64-x64-vc14-release:sip_inv.obj
 0001:00001c50       mod_tsx_layer_load         0000000140002c50 f   pjsip-core-x86_64-x64-vc14-release:sip_transaction.obj
 0001:00001c50       null_op                    0000000140002c50 f   pjlib-x86_64-x64-vc14-release:lock.obj
 0001:00001c60       mod_inv_on_rx_request      0000000140002c60 f   pjsip-ua-x86_64-x64-vc14-release:sip_inv.obj
 0001:00001de0       mod_inv_on_rx_response     0000000140002de0 f   pjsip-ua-x86_64-x64-vc14-release:sip_inv.obj
 0001:00001e90       mod_inv_on_tsx_state       0000000140002e90 f   pjsip-ua-x86_64-x64-vc14-release:sip_inv.obj
 0001:00001f90       inv_on_state_null          0000000140002f90 f   pjsip-ua-x86_64-x64-vc14-release:sip_inv.obj
 0001:00002190       inv_on_state_calling       0000000140003190 f   pjsip-ua-x86_64-x64-vc14-release:sip_inv.obj
 0001:000025b0       inv_on_state_incoming      00000001400035b0 f   pjsip-ua-x86_64-x64-vc14-release:sip_inv.obj
 0001:00002720       inv_on_state_early         0000000140003720 f   pjsip-ua-x86_64-x64-vc14-release:sip_inv.obj
 0001:00002c30       inv_on_state_connecting    0000000140003c30 f   pjsip-ua-x86_64-x64-vc14-release:sip_inv.obj
 0001:00002f60       inv_on_state_confirmed     0000000140003f60 f   pjsip-ua-x86_64-x64-vc14-release:sip_inv.obj
 0001:000037f0       inv_on_state_disconnected  00000001400047f0 f   pjsip-ua-x86_64-x64-vc14-release:sip_inv.obj
 0001:00003920       cleanup_allow_sup_hdr      0000000140004920 f   pjsip-ua-x86_64-x64-vc14-release:sip_inv.obj
 0001:00003af0       clone_sdp                  0000000140004af0 f   pjsip-ua-x86_64-x64-vc14-release:sip_inv.obj
 0001:00003b00       create_sdp_body            0000000140004b00 f   pjsip-ua-x86_64-x64-vc14-release:sip_inv.obj
 0001:00003b40       handle_uac_call_rejection  0000000140004b40 f   pjsip-ua-x86_64-x64-vc14-release:sip_inv.obj
 0001:00003d40       handle_uac_tsx_response    0000000140004d40 f   pjsip-ua-x86_64-x64-vc14-release:sip_inv.obj
 0001:00003f30       inv_check_sdp_in_incoming_msg 0000000140004f30 f   pjsip-ua-x86_64-x64-vc14-release:sip_inv.obj
 0001:00004410       inv_check_secure_dlg       0000000140005410 f   pjsip-ua-x86_64-x64-vc14-release:sip_inv.obj
 0001:000046e0       inv_handle_bye_response    00000001400056e0 f   pjsip-ua-x86_64-x64-vc14-release:sip_inv.obj
 0001:00004850       inv_handle_incoming_reliable_response 0000000140005850 f   pjsip-ua-x86_64-x64-vc14-release:sip_inv.obj
 0001:000048e0       inv_handle_update_response 00000001400058e0 f   pjsip-ua-x86_64-x64-vc14-release:sip_inv.obj
 0001:00004ad0       inv_has_pending_answer     0000000140005ad0 f   pjsip-ua-x86_64-x64-vc14-release:sip_inv.obj
 0001:00004b70       inv_negotiate_sdp          0000000140005b70 f   pjsip-ua-x86_64-x64-vc14-release:sip_inv.obj
 0001:00004c20       inv_perform_pending_bye    0000000140005c20 f   pjsip-ua-x86_64-x64-vc14-release:sip_inv.obj
 0001:00004c90       inv_respond_incoming_bye   0000000140005c90 f   pjsip-ua-x86_64-x64-vc14-release:sip_inv.obj
 0001:00004db0       inv_respond_incoming_cancel 0000000140005db0 f   pjsip-ua-x86_64-x64-vc14-release:sip_inv.obj
 0001:00004ef0       inv_respond_incoming_prack 0000000140005ef0 f   pjsip-ua-x86_64-x64-vc14-release:sip_inv.obj
 0001:00004fa0       inv_respond_incoming_update 0000000140005fa0 f   pjsip-ua-x86_64-x64-vc14-release:sip_inv.obj
 0001:00005220       inv_send_ack               0000000140006220 f   pjsip-ua-x86_64-x64-vc14-release:sip_inv.obj
 0001:00005370       inv_session_destroy        0000000140006370 f   pjsip-ua-x86_64-x64-vc14-release:sip_inv.obj
 0001:00005420       inv_set_cause              0000000140006420 f   pjsip-ua-x86_64-x64-vc14-release:sip_inv.obj
 0001:00005490       inv_set_state              0000000140006490 f   pjsip-ua-x86_64-x64-vc14-release:sip_inv.obj
 0001:00005610       inv_uac_recurse            0000000140006610 f   pjsip-ua-x86_64-x64-vc14-release:sip_inv.obj
 0001:00007210       print_sdp                  0000000140008210 f   pjsip-ua-x86_64-x64-vc14-release:sip_inv.obj
 0001:00007220       process_answer             0000000140008220 f   pjsip-ua-x86_64-x64-vc14-release:sip_inv.obj
 0001:00007400       tx_data_has_sdp            0000000140008400 f   pjsip-ua-x86_64-x64-vc14-release:sip_inv.obj
 0001:000074d0       mod_100rel_load            00000001400084d0 f   pjsip-ua-x86_64-x64-vc14-release:sip_100rel.obj
 0001:00007540       clear_all_responses        0000000140008540 f   pjsip-ua-x86_64-x64-vc14-release:sip_100rel.obj
 0001:000075a0       find_req_hdr               00000001400085a0 f   pjsip-ua-x86_64-x64-vc14-release:sip_100rel.obj
 0001:00007640       on_retransmit              0000000140008640 f   pjsip-ua-x86_64-x64-vc14-release:sip_100rel.obj
 0001:000083e0       se_hdr_print               00000001400093e0 f   pjsip-ua-x86_64-x64-vc14-release:sip_timer.obj
 0001:00008540       se_hdr_clone               0000000140009540 f   pjsip-ua-x86_64-x64-vc14-release:sip_timer.obj
 0001:000085f0       min_se_hdr_print           00000001400095f0 f   pjsip-ua-x86_64-x64-vc14-release:sip_timer.obj
 0001:000086c0       min_se_hdr_clone           00000001400096c0 f   pjsip-ua-x86_64-x64-vc14-release:sip_timer.obj
 0001:00008740       min_se_hdr_shallow_clone   0000000140009740 f   pjsip-ua-x86_64-x64-vc14-release:sip_timer.obj
 0001:000087d0       add_timer_headers          00000001400097d0 f   pjsip-ua-x86_64-x64-vc14-release:sip_timer.obj
 0001:000094b0       start_timer                000000014000a4b0 f   pjsip-ua-x86_64-x64-vc14-release:sip_timer.obj
 0001:00009620       stop_timer                 000000014000a620 f   pjsip-ua-x86_64-x64-vc14-release:sip_timer.obj
 0001:00009690       timer_cb                   000000014000a690 f   pjsip-ua-x86_64-x64-vc14-release:sip_timer.obj
 0001:00009990       pjsip_generic_string_hdr_print 000000014000a990 f   pjsip-core-x86_64-x64-vc14-release:sip_msg.obj
 0001:00009a30       pjsip_generic_string_hdr_clone 000000014000aa30 f   pjsip-core-x86_64-x64-vc14-release:sip_msg.obj
 0001:00009a90       pjsip_generic_string_hdr_shallow_clone 000000014000aa90 f   pjsip-core-x86_64-x64-vc14-release:sip_msg.obj
 0001:00009ad0       pjsip_generic_int_hdr_print 000000014000aad0 f   pjsip-core-x86_64-x64-vc14-release:sip_msg.obj
 0001:00009b60       pjsip_generic_int_hdr_shallow_clone 000000014000ab60 f   pjsip-core-x86_64-x64-vc14-release:sip_msg.obj
 0001:00009b60       pjsip_generic_int_hdr_clone 000000014000ab60 f   pjsip-core-x86_64-x64-vc14-release:sip_msg.obj
 0001:00009bb0       pjsip_generic_array_hdr_print 000000014000abb0 f   pjsip-core-x86_64-x64-vc14-release:sip_msg.obj
 0001:00009ce0       pjsip_generic_array_hdr_clone 000000014000ace0 f   pjsip-core-x86_64-x64-vc14-release:sip_msg.obj
 0001:00009df0       pjsip_generic_array_hdr_shallow_clone 000000014000adf0 f   pjsip-core-x86_64-x64-vc14-release:sip_msg.obj
 0001:00009ea0       pjsip_clen_hdr_print       000000014000aea0 f   pjsip-core-x86_64-x64-vc14-release:sip_msg.obj
 0001:00009f40       pjsip_clen_hdr_clone       000000014000af40 f   pjsip-core-x86_64-x64-vc14-release:sip_msg.obj
 0001:00009f60       pjsip_cseq_hdr_print       000000014000af60 f   pjsip-core-x86_64-x64-vc14-release:sip_msg.obj
 0001:0000a000       pjsip_cseq_hdr_clone       000000014000b000 f   pjsip-core-x86_64-x64-vc14-release:sip_msg.obj
 0001:0000a0c0       pjsip_cseq_hdr_shallow_clone 000000014000b0c0 f   pjsip-core-x86_64-x64-vc14-release:sip_msg.obj
 0001:0000a110       pjsip_contact_hdr_print    000000014000b110 f   pjsip-core-x86_64-x64-vc14-release:sip_msg.obj
 0001:0000a360       pjsip_contact_hdr_clone    000000014000b360 f   pjsip-core-x86_64-x64-vc14-release:sip_msg.obj
 0001:0000a3e0       pjsip_contact_hdr_shallow_clone 000000014000b3e0 f   pjsip-core-x86_64-x64-vc14-release:sip_msg.obj
 0001:0000a3e0       se_hdr_shallow_clone       000000014000b3e0 f   pjsip-ua-x86_64-x64-vc14-release:sip_timer.obj
 0001:0000a3e0       pjsip_fromto_hdr_shallow_clone 000000014000b3e0 f   pjsip-core-x86_64-x64-vc14-release:sip_msg.obj
 0001:0000a480       pjsip_ctype_hdr_print      000000014000b480 f   pjsip-core-x86_64-x64-vc14-release:sip_msg.obj
 0001:0000a530       pjsip_ctype_hdr_clone      000000014000b530 f   pjsip-core-x86_64-x64-vc14-release:sip_msg.obj
 0001:0000a5a0       pjsip_fromto_hdr_print     000000014000b5a0 f   pjsip-core-x86_64-x64-vc14-release:sip_msg.obj
 0001:0000a6f0       pjsip_fromto_hdr_clone     000000014000b6f0 f   pjsip-core-x86_64-x64-vc14-release:sip_msg.obj
 0001:0000a780       pjsip_routing_hdr_print    000000014000b780 f   pjsip-core-x86_64-x64-vc14-release:sip_msg.obj
 0001:0000a8f0       pjsip_routing_hdr_clone    000000014000b8f0 f   pjsip-core-x86_64-x64-vc14-release:sip_msg.obj
 0001:0000a9b0       pjsip_routing_hdr_shallow_clone 000000014000b9b0 f   pjsip-core-x86_64-x64-vc14-release:sip_msg.obj
 0001:0000aa50       pjsip_retry_after_hdr_print 000000014000ba50 f   pjsip-core-x86_64-x64-vc14-release:sip_msg.obj
 0001:0000ab70       pjsip_retry_after_hdr_clone 000000014000bb70 f   pjsip-core-x86_64-x64-vc14-release:sip_msg.obj
 0001:0000ac20       pjsip_retry_after_hdr_shallow_clone 000000014000bc20 f   pjsip-core-x86_64-x64-vc14-release:sip_msg.obj
 0001:0000acc0       pjsip_via_hdr_print        000000014000bcc0 f   pjsip-core-x86_64-x64-vc14-release:sip_msg.obj
 0001:0000b0e0       pjsip_via_hdr_clone        000000014000c0e0 f   pjsip-core-x86_64-x64-vc14-release:sip_msg.obj
 0001:0000b1b0       pjsip_via_hdr_shallow_clone 000000014000c1b0 f   pjsip-core-x86_64-x64-vc14-release:sip_msg.obj
 0001:0000b290       init_status_phrase         000000014000c290 f   pjsip-core-x86_64-x64-vc14-release:sip_msg.obj
 0001:0000cf40       print_media_type           000000014000df40 f   pjsip-core-x86_64-x64-vc14-release:sip_msg.obj
 0001:0000cfe0       mod_on_tx_msg              000000014000dfe0 f   pjsip-core-x86_64-x64-vc14-release:sip_transport.obj
 0001:0000cff0       destroy_transport          000000014000dff0 f   pjsip-core-x86_64-x64-vc14-release:sip_transport.obj
 0001:0000d1a0       get_msg_info               000000014000e1a0 f   pjsip-core-x86_64-x64-vc14-release:sip_transport.obj
 0001:0000f040       tp_state_callback          0000000140010040 f   pjsip-core-x86_64-x64-vc14-release:sip_transport.obj
 0001:0000f0f0       transport_idle_callback    00000001400100f0 f   pjsip-core-x86_64-x64-vc14-release:sip_transport.obj
 0001:0000f110       transport_send_callback    0000000140010110 f   pjsip-core-x86_64-x64-vc14-release:sip_transport.obj
 0001:0000f160       tx_data_destroy            0000000140010160 f   pjsip-core-x86_64-x64-vc14-release:sip_transport.obj
 0001:0000f230       cmp_mod_name               0000000140010230 f   pjsip-core-x86_64-x64-vc14-release:sip_endpoint.obj
 0001:0000f240       endpt_on_rx_msg            0000000140010240 f   pjsip-core-x86_64-x64-vc14-release:sip_endpoint.obj
 0001:0000f480       endpt_on_tx_msg            0000000140010480 f   pjsip-core-x86_64-x64-vc14-release:sip_endpoint.obj
 0001:00010400       pool_callback              0000000140011400 f   pjsip-core-x86_64-x64-vc14-release:sip_endpoint.obj
 0001:00010420       unload_module              0000000140011420 f   pjsip-core-x86_64-x64-vc14-release:sip_endpoint.obj
 0001:00010490       init_request_throw         0000000140011490 f   pjsip-core-x86_64-x64-vc14-release:sip_util.obj
 0001:00011f40       send_response_resolver_cb  0000000140012f40 f   pjsip-core-x86_64-x64-vc14-release:sip_util.obj
 0001:000120f0       send_response_transport_cb 00000001400130f0 f   pjsip-core-x86_64-x64-vc14-release:sip_util.obj
 0001:00012140       stateless_send_resolver_callback 0000000140013140 f   pjsip-core-x86_64-x64-vc14-release:sip_util.obj
 0001:000123c0       stateless_send_transport_cb 00000001400133c0 f   pjsip-core-x86_64-x64-vc14-release:sip_util.obj
 0001:000127a0       mod_util_on_tsx_state      00000001400137a0 f   pjsip-core-x86_64-x64-vc14-release:sip_util_statefull.obj
 0001:00012980       create_socket              0000000140013980 f   pjsip-core-x86_64-x64-vc14-release:sip_transport_udp.obj
 0001:00012a50       get_published_name         0000000140013a50 f   pjsip-core-x86_64-x64-vc14-release:sip_transport_udp.obj
 0001:00012b60       init_rdata                 0000000140013b60 f   pjsip-core-x86_64-x64-vc14-release:sip_transport_udp.obj
 0001:00013150       register_to_ioqueue        0000000140014150 f   pjsip-core-x86_64-x64-vc14-release:sip_transport_udp.obj
 0001:00013230       start_async_read           0000000140014230 f   pjsip-core-x86_64-x64-vc14-release:sip_transport_udp.obj
 0001:000135e0       transport_attach           00000001400145e0 f   pjsip-core-x86_64-x64-vc14-release:sip_transport_udp.obj
 0001:000139a0       udp_destroy                00000001400149a0 f   pjsip-core-x86_64-x64-vc14-release:sip_transport_udp.obj
 0001:00013b10       udp_on_destroy             0000000140014b10 f   pjsip-core-x86_64-x64-vc14-release:sip_transport_udp.obj
 0001:00013bb0       udp_on_read_complete       0000000140014bb0 f   pjsip-core-x86_64-x64-vc14-release:sip_transport_udp.obj
 0001:00013e90       udp_on_write_complete      0000000140014e90 f   pjsip-core-x86_64-x64-vc14-release:sip_transport_udp.obj
 0001:00013f50       udp_send_msg               0000000140014f50 f   pjsip-core-x86_64-x64-vc14-release:sip_transport_udp.obj
 0001:000140a0       udp_set_pub_name           00000001400150a0 f   pjsip-core-x86_64-x64-vc14-release:sip_transport_udp.obj
 0001:000141b0       udp_shutdown               00000001400151b0 f   pjsip-core-x86_64-x64-vc14-release:sip_transport_udp.obj
 0001:000141c0       lis_create_transport       00000001400151c0 f   pjsip-core-x86_64-x64-vc14-release:sip_transport_tcp.obj
 0001:00014540       lis_destroy                0000000140015540 f   pjsip-core-x86_64-x64-vc14-release:sip_transport_tcp.obj
 0001:00014600       lis_on_destroy             0000000140015600 f   pjsip-core-x86_64-x64-vc14-release:sip_transport_tcp.obj
 0001:00014660       on_accept_complete         0000000140015660 f   pjsip-core-x86_64-x64-vc14-release:sip_transport_tcp.obj
 0001:000148e0       on_connect_complete        00000001400158e0 f   pjsip-core-x86_64-x64-vc14-release:sip_transport_tcp.obj
 0001:00014b60       on_data_read               0000000140015b60 f   pjsip-core-x86_64-x64-vc14-release:sip_transport_tcp.obj
 0001:00014c80       on_data_sent               0000000140015c80 f   pjsip-core-x86_64-x64-vc14-release:sip_transport_tcp.obj
 0001:00015390       sockaddr_to_host_port      0000000140016390 f   pjsip-core-x86_64-x64-vc14-release:sip_transport_tcp.obj
 0001:000153f0       tcp_create                 00000001400163f0 f   pjsip-core-x86_64-x64-vc14-release:sip_transport_tcp.obj
 0001:00015890       tcp_destroy                0000000140016890 f   pjsip-core-x86_64-x64-vc14-release:sip_transport_tcp.obj
 0001:000159f0       tcp_destroy_transport      00000001400169f0 f   pjsip-core-x86_64-x64-vc14-release:sip_transport_tcp.obj
 0001:00015a10       tcp_flush_pending_tx       0000000140016a10 f   pjsip-core-x86_64-x64-vc14-release:sip_transport_tcp.obj
 0001:00015bc0       tcp_init_shutdown          0000000140016bc0 f   pjsip-core-x86_64-x64-vc14-release:sip_transport_tcp.obj
 0001:00015c50       tcp_initial_timer          0000000140016c50 f   pjsip-core-x86_64-x64-vc14-release:sip_transport_tcp.obj
 0001:00015c60       tcp_keep_alive_timer       0000000140016c60 f   pjsip-core-x86_64-x64-vc14-release:sip_transport_tcp.obj
 0001:00015e30       tcp_on_destroy             0000000140016e30 f   pjsip-core-x86_64-x64-vc14-release:sip_transport_tcp.obj
 0001:00015f30       tcp_send_msg               0000000140016f30 f   pjsip-core-x86_64-x64-vc14-release:sip_transport_tcp.obj
 0001:000160f0       tcp_shutdown               00000001400170f0 f   pjsip-core-x86_64-x64-vc14-release:sip_transport_tcp.obj
 0001:00016150       tcp_start_read             0000000140017150 f   pjsip-core-x86_64-x64-vc14-release:sip_transport_tcp.obj
 0001:000162a0       update_factory_addr        00000001400172a0 f   pjsip-core-x86_64-x64-vc14-release:sip_transport_tcp.obj
 0001:00016430       update_transport_info      0000000140017430 f   pjsip-core-x86_64-x64-vc14-release:sip_transport_tcp.obj
 0001:00016560       mod_tsx_layer_stop         0000000140017560 f   pjsip-core-x86_64-x64-vc14-release:sip_transaction.obj
 0001:00016700       mod_tsx_layer_unload       0000000140017700 f   pjsip-core-x86_64-x64-vc14-release:sip_transaction.obj
 0001:000167a0       mod_tsx_layer_on_rx_request 00000001400177a0 f   pjsip-core-x86_64-x64-vc14-release:sip_transaction.obj
 0001:00016930       mod_tsx_layer_on_rx_response 0000000140017930 f   pjsip-core-x86_64-x64-vc14-release:sip_transaction.obj
 0001:00016ac0       create_tsx_key_2543        0000000140017ac0 f   pjsip-core-x86_64-x64-vc14-release:sip_transaction.obj
 0001:00016c90       create_tsx_key_3261        0000000140017c90 f   pjsip-core-x86_64-x64-vc14-release:sip_transaction.obj
 0001:00016d80       mod_tsx_layer_register_tsx 0000000140017d80 f   pjsip-core-x86_64-x64-vc14-release:sip_transaction.obj
 0001:00016e30       mod_tsx_layer_unregister_tsx 0000000140017e30 f   pjsip-core-x86_64-x64-vc14-release:sip_transaction.obj
 0001:00017b90       send_msg_callback          0000000140018b90 f   pjsip-core-x86_64-x64-vc14-release:sip_transaction.obj
 0001:000180a0       transport_callback         00000001400190a0 f   pjsip-core-x86_64-x64-vc14-release:sip_transaction.obj
 0001:000181a0       tsx_create                 00000001400191a0 f   pjsip-core-x86_64-x64-vc14-release:sip_transaction.obj
 0001:00018330       tsx_layer_destroy          0000000140019330 f   pjsip-core-x86_64-x64-vc14-release:sip_transaction.obj
 0001:00018390       tsx_on_destroy             0000000140019390 f   pjsip-core-x86_64-x64-vc14-release:sip_transaction.obj
 0001:000183d0       tsx_on_state_calling       00000001400193d0 f   pjsip-core-x86_64-x64-vc14-release:sip_transaction.obj
 0001:000185d0       tsx_on_state_completed_uac 00000001400195d0 f   pjsip-core-x86_64-x64-vc14-release:sip_transaction.obj
 0001:000186c0       tsx_on_state_completed_uas 00000001400196c0 f   pjsip-core-x86_64-x64-vc14-release:sip_transaction.obj
 0001:00018a70       tsx_on_state_confirmed     0000000140019a70 f   pjsip-core-x86_64-x64-vc14-release:sip_transaction.obj
 0001:00018ae0       tsx_on_state_destroyed     0000000140019ae0 f   pjsip-core-x86_64-x64-vc14-release:sip_transaction.obj
 0001:00018af0       tsx_on_state_null          0000000140019af0 f   pjsip-core-x86_64-x64-vc14-release:sip_transaction.obj
 0001:00018e00       tsx_on_state_proceeding_uac 0000000140019e00 f   pjsip-core-x86_64-x64-vc14-release:sip_transaction.obj
 0001:00019390       tsx_on_state_proceeding_uas 000000014001a390 f   pjsip-core-x86_64-x64-vc14-release:sip_transaction.obj
 0001:00019a30       tsx_on_state_terminated    000000014001aa30 f   pjsip-core-x86_64-x64-vc14-release:sip_transaction.obj
 0001:00019a70       tsx_on_state_trying        000000014001aa70 f   pjsip-core-x86_64-x64-vc14-release:sip_transaction.obj
 0001:00019b90       tsx_resched_retransmission 000000014001ab90 f   pjsip-core-x86_64-x64-vc14-release:sip_transaction.obj
 0001:00019c70       tsx_retransmit             000000014001ac70 f   pjsip-core-x86_64-x64-vc14-release:sip_transaction.obj
 0001:00019d30       tsx_send_msg               000000014001ad30 f   pjsip-core-x86_64-x64-vc14-release:sip_transaction.obj
 0001:0001a020       tsx_set_state              000000014001b020 f   pjsip-core-x86_64-x64-vc14-release:sip_transaction.obj
 0001:0001a260       tsx_shutdown               000000014001b260 f   pjsip-core-x86_64-x64-vc14-release:sip_transaction.obj
 0001:0001a360       tsx_timer_callback         000000014001b360 f   pjsip-core-x86_64-x64-vc14-release:sip_transaction.obj
 0001:0001a5a0       tsx_tp_state_callback      000000014001b5a0 f   pjsip-core-x86_64-x64-vc14-release:sip_transaction.obj
 0001:0001a650       tsx_update_transport       000000014001b650 f   pjsip-core-x86_64-x64-vc14-release:sip_transaction.obj
 0001:0001a770       mod_ua_load                000000014001b770 f   pjsip-core-x86_64-x64-vc14-release:sip_ua_layer.obj
 0001:0001a820       mod_ua_unload              000000014001b820 f   pjsip-core-x86_64-x64-vc14-release:sip_ua_layer.obj
 0001:0001a860       mod_ua_on_rx_request       000000014001b860 f   pjsip-core-x86_64-x64-vc14-release:sip_ua_layer.obj
 0001:0001aa90       mod_ua_on_rx_response      000000014001ba90 f   pjsip-core-x86_64-x64-vc14-release:sip_ua_layer.obj
 0001:0001ad40       mod_ua_on_tsx_state        000000014001bd40 f   pjsip-core-x86_64-x64-vc14-release:sip_ua_layer.obj
 0001:0001ad70       alloc_dlgset_node          000000014001bd70 f   pjsip-core-x86_64-x64-vc14-release:sip_ua_layer.obj
 0001:0001adb0       find_dlg_set_for_msg       000000014001bdb0 f   pjsip-core-x86_64-x64-vc14-release:sip_ua_layer.obj
 0001:0001b130       create_dialog              000000014001c130 f   pjsip-core-x86_64-x64-vc14-release:sip_dialog.obj
 0001:0001b880       destroy_dialog             000000014001c880 f   pjsip-core-x86_64-x64-vc14-release:sip_dialog.obj
 0001:0001b8f0       dlg_beautify_response      000000014001c8f0 f   pjsip-core-x86_64-x64-vc14-release:sip_dialog.obj
 0001:0001bae0       dlg_create_request_throw   000000014001cae0 f   pjsip-core-x86_64-x64-vc14-release:sip_dialog.obj
 0001:0001bc30       dlg_on_destroy             000000014001cc30 f   pjsip-core-x86_64-x64-vc14-release:sip_dialog.obj
 0001:0001bc70       dlg_update_routeset        000000014001cc70 f   pjsip-core-x86_64-x64-vc14-release:sip_dialog.obj
 0001:0001de50       send_ack_callback          000000014001ee50 f   pjsip-core-x86_64-x64-vc14-release:sip_dialog.obj
 0001:0001dea0       unregister_and_destroy_dialog 000000014001eea0 f   pjsip-core-x86_64-x64-vc14-release:sip_dialog.obj
 0001:0001df00       auth_find_cred             000000014001ef00 f   pjsip-core-x86_64-x64-vc14-release:sip_auth_client.obj
 0001:0001dfa0       auth_respond               000000014001efa0 f   pjsip-core-x86_64-x64-vc14-release:sip_auth_client.obj
 0001:0001e180       has_auth_qop               000000014001f180 f   pjsip-core-x86_64-x64-vc14-release:sip_auth_client.obj
 0001:0001eb50       process_auth               000000014001fb50 f   pjsip-core-x86_64-x64-vc14-release:sip_auth_client.obj
 0001:0001eda0       recreate_cached_auth_pool  000000014001fda0 f   pjsip-core-x86_64-x64-vc14-release:sip_auth_client.obj
 0001:0001ee60       respond_digest             000000014001fe60 f   pjsip-core-x86_64-x64-vc14-release:sip_auth_client.obj
 0001:0001f140       update_digest_session      0000000140020140 f   pjsip-core-x86_64-x64-vc14-release:sip_auth_client.obj
 0001:0001f330       find_handler               0000000140020330 f   pjsip-core-x86_64-x64-vc14-release:sip_parser.obj
 0001:0001f3c0       find_handler_imp           00000001400203c0 f   pjsip-core-x86_64-x64-vc14-release:sip_parser.obj
 0001:0001f470       find_uri_handler           0000000140020470 f   pjsip-core-x86_64-x64-vc14-release:sip_parser.obj
 0001:0001f500       init_parser                0000000140020500 f   pjsip-core-x86_64-x64-vc14-release:sip_parser.obj
 0001:0001fcf0       int_parse_contact_param    0000000140020cf0 f   pjsip-core-x86_64-x64-vc14-release:sip_parser.obj
 0001:00020070       int_parse_hparam           0000000140021070 f   pjsip-core-x86_64-x64-vc14-release:sip_parser.obj
 0001:00020140       int_parse_msg              0000000140021140 f   pjsip-core-x86_64-x64-vc14-release:sip_parser.obj
 0001:00020650       int_parse_name_addr        0000000140021650 f   pjsip-core-x86_64-x64-vc14-release:sip_parser.obj
 0001:00020760       int_parse_other_uri        0000000140021760 f   pjsip-core-x86_64-x64-vc14-release:sip_parser.obj
 0001:000207e0       int_parse_sip_url          00000001400217e0 f   pjsip-core-x86_64-x64-vc14-release:sip_parser.obj
 0001:00020bf0       int_parse_status_line      0000000140021bf0 f   pjsip-core-x86_64-x64-vc14-release:sip_parser.obj
 0001:00020ce0       int_parse_uri              0000000140021ce0 f   pjsip-core-x86_64-x64-vc14-release:sip_parser.obj
 0001:00020dc0       int_parse_uri_host_port    0000000140021dc0 f   pjsip-core-x86_64-x64-vc14-release:sip_parser.obj
 0001:00020eb0       int_parse_uri_or_name_addr 0000000140021eb0 f   pjsip-core-x86_64-x64-vc14-release:sip_parser.obj
 0001:00020f80       int_parse_user_pass        0000000140021f80 f   pjsip-core-x86_64-x64-vc14-release:sip_parser.obj
 0001:00021030       int_parse_via_param        0000000140022030 f   pjsip-core-x86_64-x64-vc14-release:sip_parser.obj
 0001:00021340       int_register_parser        0000000140022340 f   pjsip-core-x86_64-x64-vc14-release:sip_parser.obj
 0001:00021530       on_str_parse_error         0000000140022530 f   pjsip-core-x86_64-x64-vc14-release:sip_parser.obj
 0001:000215d0       on_syntax_error            00000001400225d0 f   pjsip-core-x86_64-x64-vc14-release:sip_parser.obj
 0001:000215e0       parse_generic_array_hdr    00000001400225e0 f   pjsip-core-x86_64-x64-vc14-release:sip_parser.obj
 0001:000216b0       parse_generic_string_hdr   00000001400226b0 f   pjsip-core-x86_64-x64-vc14-release:sip_parser.obj
 0001:00021810       parse_hdr_accept           0000000140022810 f   pjsip-core-x86_64-x64-vc14-release:sip_parser.obj
 0001:00021850       parse_hdr_allow            0000000140022850 f   pjsip-core-x86_64-x64-vc14-release:sip_parser.obj
 0001:00021890       parse_hdr_call_id          0000000140022890 f   pjsip-core-x86_64-x64-vc14-release:sip_parser.obj
 0001:00021900       parse_hdr_contact          0000000140022900 f   pjsip-core-x86_64-x64-vc14-release:sip_parser.obj
 0001:00021ab0       parse_hdr_content_len      0000000140022ab0 f   pjsip-core-x86_64-x64-vc14-release:sip_parser.obj
 0001:00021b30       parse_hdr_content_type     0000000140022b30 f   pjsip-core-x86_64-x64-vc14-release:sip_parser.obj
 0001:00021c40       parse_hdr_cseq             0000000140022c40 f   pjsip-core-x86_64-x64-vc14-release:sip_parser.obj
 0001:00021d10       parse_hdr_expires          0000000140022d10 f   pjsip-core-x86_64-x64-vc14-release:sip_parser.obj
 0001:00021d90       parse_hdr_from             0000000140022d90 f   pjsip-core-x86_64-x64-vc14-release:sip_parser.obj
 0001:00021de0       parse_hdr_fromto           0000000140022de0 f   pjsip-core-x86_64-x64-vc14-release:sip_parser.obj
 0001:00021f80       parse_hdr_max_forwards     0000000140022f80 f   pjsip-core-x86_64-x64-vc14-release:sip_parser.obj
 0001:00022010       parse_hdr_min_expires      0000000140023010 f   pjsip-core-x86_64-x64-vc14-release:sip_parser.obj
 0001:00022090       parse_hdr_require          0000000140023090 f   pjsip-core-x86_64-x64-vc14-release:sip_parser.obj
 0001:00022120       parse_hdr_retry_after      0000000140023120 f   pjsip-core-x86_64-x64-vc14-release:sip_parser.obj
 0001:000222a0       parse_hdr_route            00000001400232a0 f   pjsip-core-x86_64-x64-vc14-release:sip_parser.obj
 0001:00022350       parse_hdr_rr               0000000140023350 f   pjsip-core-x86_64-x64-vc14-release:sip_parser.obj
 0001:00022400       parse_hdr_rr_route         0000000140023400 f   pjsip-core-x86_64-x64-vc14-release:sip_parser.obj
 0001:000224b0       parse_hdr_supported        00000001400234b0 f   pjsip-core-x86_64-x64-vc14-release:sip_parser.obj
 0001:00022540       parse_hdr_to               0000000140023540 f   pjsip-core-x86_64-x64-vc14-release:sip_parser.obj
 0001:00022590       parse_hdr_unsupported      0000000140023590 f   pjsip-core-x86_64-x64-vc14-release:sip_parser.obj
 0001:000225d0       parse_hdr_via              00000001400235d0 f   pjsip-core-x86_64-x64-vc14-release:sip_parser.obj
 0001:000227c0       parse_sip_version          00000001400237c0 f   pjsip-core-x86_64-x64-vc14-release:sip_parser.obj
 0001:00023390       multipart_clone_data       0000000140024390 f   pjsip-core-x86_64-x64-vc14-release:sip_multipart.obj
 0001:000234a0       multipart_print_body       00000001400244a0 f   pjsip-core-x86_64-x64-vc14-release:sip_multipart.obj
 0001:00023760       parse_multipart_part       0000000140024760 f   pjsip-core-x86_64-x64-vc14-release:sip_multipart.obj
 0001:00023f10       pjsip_url_get_scheme       0000000140024f10 f   pjsip-core-x86_64-x64-vc14-release:sip_uri.obj
 0001:00023f20       pjsips_url_get_scheme      0000000140024f20 f   pjsip-core-x86_64-x64-vc14-release:sip_uri.obj
 0001:00023f30       pjsip_name_addr_get_scheme 0000000140024f30 f   pjsip-core-x86_64-x64-vc14-release:sip_uri.obj
 0001:00023f40       tel_uri_get_uri            0000000140024f40 f   pjsip-core-x86_64-x64-vc14-release:sip_tel_uri.obj
 0001:00023f40       pjsip_get_uri              0000000140024f40 f   pjsip-core-x86_64-x64-vc14-release:sip_uri.obj
 0001:00023f40       other_uri_get_uri          0000000140024f40 f   pjsip-core-x86_64-x64-vc14-release:sip_uri.obj
 0001:00023f50       pjsip_name_addr_get_uri    0000000140024f50 f   pjsip-core-x86_64-x64-vc14-release:sip_uri.obj
 0001:00023f60       pjsip_name_addr_clone      0000000140024f60 f   pjsip-core-x86_64-x64-vc14-release:sip_uri.obj
 0001:00023ff0       pjsip_name_addr_print      0000000140024ff0 f   pjsip-core-x86_64-x64-vc14-release:sip_uri.obj
 0001:00024120       pjsip_name_addr_compare    0000000140025120 f   pjsip-core-x86_64-x64-vc14-release:sip_uri.obj
 0001:00024190       pjsip_url_print            0000000140025190 f   pjsip-core-x86_64-x64-vc14-release:sip_uri.obj
 0001:00024720       pjsip_url_compare          0000000140025720 f   pjsip-core-x86_64-x64-vc14-release:sip_uri.obj
 0001:00024960       pjsip_url_clone            0000000140025960 f   pjsip-core-x86_64-x64-vc14-release:sip_uri.obj
 0001:00024a20       other_uri_get_scheme       0000000140025a20 f   pjsip-core-x86_64-x64-vc14-release:sip_uri.obj
 0001:00024a30       other_uri_print            0000000140025a30 f   pjsip-core-x86_64-x64-vc14-release:sip_uri.obj
 0001:00024ad0       other_uri_cmp              0000000140025ad0 f   pjsip-core-x86_64-x64-vc14-release:sip_uri.obj
 0001:00024b40       other_uri_clone            0000000140025b40 f   pjsip-core-x86_64-x64-vc14-release:sip_uri.obj
 0001:00025180       dns_a_callback             0000000140026180 f   pjsip-core-x86_64-x64-vc14-release:sip_resolve.obj
 0001:00025310       dns_aaaa_callback          0000000140026310 f   pjsip-core-x86_64-x64-vc14-release:sip_resolve.obj
 0001:000254a0       get_ip_addr_ver            00000001400264a0 f   pjsip-core-x86_64-x64-vc14-release:sip_resolve.obj
 0001:00025c10       srv_resolver_cb            0000000140026c10 f   pjsip-core-x86_64-x64-vc14-release:sip_resolve.obj
 0001:00025f50       tel_uri_get_scheme         0000000140026f50 f   pjsip-core-x86_64-x64-vc14-release:sip_tel_uri.obj
 0001:00025f70       tel_uri_print              0000000140026f70 f   pjsip-core-x86_64-x64-vc14-release:sip_tel_uri.obj
 0001:00026170       tel_uri_cmp                0000000140027170 f   pjsip-core-x86_64-x64-vc14-release:sip_tel_uri.obj
 0001:000262d0       tel_uri_clone              00000001400272d0 f   pjsip-core-x86_64-x64-vc14-release:sip_tel_uri.obj
 0001:000266f0       tel_uri_parse              00000001400276f0 f   pjsip-core-x86_64-x64-vc14-release:sip_tel_uri.obj
 0001:00026920       pjsip_www_authenticate_hdr_print 0000000140027920 f   pjsip-core-x86_64-x64-vc14-release:sip_auth_msg.obj
 0001:00026a10       pjsip_www_authenticate_hdr_clone 0000000140027a10 f   pjsip-core-x86_64-x64-vc14-release:sip_auth_msg.obj
 0001:00026b30       pjsip_www_authenticate_hdr_shallow_clone 0000000140027b30 f   pjsip-core-x86_64-x64-vc14-release:sip_auth_msg.obj
 0001:00026c00       pjsip_authorization_hdr_clone 0000000140027c00 f   pjsip-core-x86_64-x64-vc14-release:sip_auth_msg.obj
 0001:00026d70       pjsip_authorization_hdr_shallow_clone 0000000140027d70 f   pjsip-core-x86_64-x64-vc14-release:sip_auth_msg.obj
 0001:00026e40       pjsip_authorization_hdr_print 0000000140027e40 f   pjsip-core-x86_64-x64-vc14-release:sip_auth_msg.obj
 0001:00027160       print_digest_challenge     0000000140028160 f   pjsip-core-x86_64-x64-vc14-release:sip_auth_msg.obj
 0001:00027550       print_digest_credential    0000000140028550 f   pjsip-core-x86_64-x64-vc14-release:sip_auth_msg.obj
 0001:00027aa0       print_oauth_credential     0000000140028aa0 f   pjsip-core-x86_64-x64-vc14-release:sip_auth_msg.obj
 0001:00027cc0       int_parse_hdr_authenticate 0000000140028cc0 f   pjsip-core-x86_64-x64-vc14-release:sip_auth_parser.obj
 0001:00027d80       int_parse_hdr_authorization 0000000140028d80 f   pjsip-core-x86_64-x64-vc14-release:sip_auth_parser.obj
 0001:00027e40       parse_digest_challenge     0000000140028e40 f   pjsip-core-x86_64-x64-vc14-release:sip_auth_parser.obj
 0001:00028020       parse_digest_credential    0000000140029020 f   pjsip-core-x86_64-x64-vc14-release:sip_auth_parser.obj
 0001:00028220       parse_hdr_authorization    0000000140029220 f   pjsip-core-x86_64-x64-vc14-release:sip_auth_parser.obj
 0001:00028260       parse_hdr_proxy_authenticate 0000000140029260 f   pjsip-core-x86_64-x64-vc14-release:sip_auth_parser.obj
 0001:000282a0       parse_hdr_proxy_authorization 00000001400292a0 f   pjsip-core-x86_64-x64-vc14-release:sip_auth_parser.obj
 0001:000282e0       parse_hdr_www_authenticate 00000001400292e0 f   pjsip-core-x86_64-x64-vc14-release:sip_auth_parser.obj
 0001:00028390       apply_media_direction      0000000140029390 f   pjmedia-x86_64-x64-vc14-release:sdp.obj
 0001:00028590       init_sdp_parser            0000000140029590 f   pjmedia-x86_64-x64-vc14-release:sdp.obj
 0001:00028630       on_scanner_error           0000000140029630 f   pjmedia-x86_64-x64-vc14-release:sdp.obj
 0001:00028640       parse_media                0000000140029640 f   pjmedia-x86_64-x64-vc14-release:sdp.obj
 0001:000287d0       parse_origin               00000001400297d0 f   pjmedia-x86_64-x64-vc14-release:sdp.obj
 0001:00029a4c       $LN154                     000000014002aa4c     pjmedia-x86_64-x64-vc14-release:sdp.obj
 0001:00029a74       $LN153                     000000014002aa74     pjmedia-x86_64-x64-vc14-release:sdp.obj
 0001:0002a1c0       print_attr                 000000014002b1c0 f   pjmedia-x86_64-x64-vc14-release:sdp.obj
 0001:0002a260       print_bandw                000000014002b260 f   pjmedia-x86_64-x64-vc14-release:sdp.obj
 0001:0002a2f0       print_connection_info      000000014002b2f0 f   pjmedia-x86_64-x64-vc14-release:sdp.obj
 0001:0002a350       print_media_desc           000000014002b350 f   pjmedia-x86_64-x64-vc14-release:sdp.obj
 0001:0002a650       print_session              000000014002b650 f   pjmedia-x86_64-x64-vc14-release:sdp.obj
 0001:0002a8e0       validate_sdp_conn          000000014002b8e0 f   pjmedia-x86_64-x64-vc14-release:sdp.obj
 0001:0002a970       apply_answer_symmetric_pt  000000014002b970 f   pjmedia-x86_64-x64-vc14-release:sdp_neg.obj
 0001:0002aaf0       create_answer              000000014002baf0 f   pjmedia-x86_64-x64-vc14-release:sdp_neg.obj
 0001:0002ad10       custom_fmt_match           000000014002bd10 f   pjmedia-x86_64-x64-vc14-release:sdp_neg.obj
 0001:0002adc0       match_offer                000000014002bdc0 f   pjmedia-x86_64-x64-vc14-release:sdp_neg.obj
 0001:0002bea0       process_answer             000000014002cea0 f   pjmedia-x86_64-x64-vc14-release:sdp_neg.obj
 0001:0002c040       process_m_answer           000000014002d040 f   pjmedia-x86_64-x64-vc14-release:sdp_neg.obj
 0001:0002c490       rewrite_pt                 000000014002d490 f   pjmedia-x86_64-x64-vc14-release:sdp_neg.obj
 0001:0002c530       sdp_media_clone_deactivate 000000014002d530 f   pjmedia-x86_64-x64-vc14-release:sdp_neg.obj
 0001:0002c630       update_media_direction     000000014002d630 f   pjmedia-x86_64-x64-vc14-release:sdp_neg.obj
 0001:0002c900       _getopt_internal           000000014002d900 f   pjlib-util-x86_64-x64-vc14-release:getopt.obj
 0001:0002d0f0       exchange                   000000014002e0f0 f   pjlib-util-x86_64-x64-vc14-release:getopt.obj
 0001:0002dd50       alloc_qnode                000000014002ed50 f   pjlib-util-x86_64-x64-vc14-release:resolver.obj
 0001:0002de10       init_res_key               000000014002ee10 f   pjlib-util-x86_64-x64-vc14-release:resolver.obj
 0001:0002dea0       on_timeout                 000000014002eea0 f   pjlib-util-x86_64-x64-vc14-release:resolver.obj
 0001:0002e9a0       select_nameservers         000000014002f9a0 f   pjlib-util-x86_64-x64-vc14-release:resolver.obj
 0001:0002eb00       set_nameserver_state       000000014002fb00 f   pjlib-util-x86_64-x64-vc14-release:resolver.obj
 0001:0002ec10       transmit_query             000000014002fc10 f   pjlib-util-x86_64-x64-vc14-release:resolver.obj
 0001:0002efa0       MD5Transform               000000014002ffa0 f   pjlib-util-x86_64-x64-vc14-release:md5.obj
 0001:0002f9e8       $LN15                      00000001400309e8     pjlib-util-x86_64-x64-vc14-release:dns.obj
 0001:0002fa10       $LN14                      0000000140030a10     pjlib-util-x86_64-x64-vc14-release:dns.obj
 0001:0002fb80       build_server_entries       0000000140030b80 f   pjlib-util-x86_64-x64-vc14-release:srv_resolver.obj
 0001:00030540       dns_callback               0000000140031540 f   pjlib-util-x86_64-x64-vc14-release:srv_resolver.obj
 0001:00030ec0       resolve_hostnames          0000000140031ec0 f   pjlib-util-x86_64-x64-vc14-release:srv_resolver.obj
 0001:00031020       init_mutex                 0000000140032020 f   pjlib-x86_64-x64-vc14-release:os_core_win32.obj
 0001:00031e10       pj_sem_wait_for            0000000140032e10 f   pjlib-x86_64-x64-vc14-release:os_core_win32.obj
 0001:00032690       thread_main                0000000140033690 f   pjlib-x86_64-x64-vc14-release:os_core_win32.obj
 0001:00032720       invoke_log                 0000000140033720 f   pjlib-x86_64-x64-vc14-release:errno.obj
 0001:00032820       pj_perror_imp              0000000140033820 f   pjlib-x86_64-x64-vc14-release:errno.obj
 0001:00032b30       pjlib_error                0000000140033b30 f   pjlib-x86_64-x64-vc14-release:errno.obj
 0001:00034380       pj_pool_create_block       0000000140035380 f   pjlib-x86_64-x64-vc14-release:pool.obj
 0001:000346c0       reset_pool                 00000001400356c0 f   pjlib-x86_64-x64-vc14-release:pool.obj
 0001:00034760       cpool_create_pool          0000000140035760 f   pjlib-x86_64-x64-vc14-release:pool_caching.obj
 0001:000348f0       cpool_dump_status          00000001400358f0 f   pjlib-x86_64-x64-vc14-release:pool_caching.obj
 0001:00034aa0       cpool_on_block_alloc       0000000140035aa0 f   pjlib-x86_64-x64-vc14-release:pool_caching.obj
 0001:00034ac0       cpool_on_block_free        0000000140035ac0 f   pjlib-x86_64-x64-vc14-release:pool_caching.obj
 0001:00034ad0       cpool_release_pool         0000000140035ad0 f   pjlib-x86_64-x64-vc14-release:pool_caching.obj
 0001:00035da0       logging_shutdown           0000000140036da0 f   pjlib-x86_64-x64-vc14-release:log.obj
 0001:000364b4       $LN13                      00000001400374b4     pjlib-x86_64-x64-vc14-release:log.obj
 0001:00037340       create_mutex_lock          0000000140038340 f   pjlib-x86_64-x64-vc14-release:lock.obj
 0001:000373f0       grp_lock_acquire           00000001400383f0 f   pjlib-x86_64-x64-vc14-release:lock.obj
 0001:00037460       grp_lock_destroy           0000000140038460 f   pjlib-x86_64-x64-vc14-release:lock.obj
 0001:00037550       grp_lock_release           0000000140038550 f   pjlib-x86_64-x64-vc14-release:lock.obj
 0001:000375e0       grp_lock_tryacquire        00000001400385e0 f   pjlib-x86_64-x64-vc14-release:lock.obj
 0001:00037b50       cancel                     0000000140038b50 f   pjlib-x86_64-x64-vc14-release:timer.obj
 0001:00037bf0       cancel_timer               0000000140038bf0 f   pjlib-x86_64-x64-vc14-release:timer.obj
 0001:00037cb0       grow_heap                  0000000140038cb0 f   pjlib-x86_64-x64-vc14-release:timer.obj
 0001:00038440       reheap_down                0000000140039440 f   pjlib-x86_64-x64-vc14-release:timer.obj
 0001:00038570       reheap_up                  0000000140039570 f   pjlib-x86_64-x64-vc14-release:timer.obj
 0001:00038640       remove_node                0000000140039640 f   pjlib-x86_64-x64-vc14-release:timer.obj
 0001:00038790       schedule_w_grp_lock_dbg    0000000140039790 f   pjlib-x86_64-x64-vc14-release:timer.obj
 0001:00038990       get_base_time              0000000140039990 f   pjlib-x86_64-x64-vc14-release:os_time_win32.obj
 0001:00038b80       decrement_counter          0000000140039b80 f   pjlib-x86_64-x64-vc14-release:ioqueue_select.obj
 0001:00038c30       increment_counter          0000000140039c30 f   pjlib-x86_64-x64-vc14-release:ioqueue_select.obj
 0001:00039390       ioqueue_init_key           000000014003a390 f   pjlib-x86_64-x64-vc14-release:ioqueue_select.obj
 0001:0003aa50       scan_closing_keys          000000014003ba50 f   pjlib-x86_64-x64-vc14-release:ioqueue_select.obj
 0001:0003ab00       exception_cleanup          000000014003bb00 f   pjlib-x86_64-x64-vc14-release:except.obj
 0001:0003bd40       ioqueue_on_accept_complete 000000014003cd40 f   pjlib-x86_64-x64-vc14-release:activesock.obj
 0001:0003bec0       ioqueue_on_connect_complete 000000014003cec0 f   pjlib-x86_64-x64-vc14-release:activesock.obj
 0001:0003bef0       ioqueue_on_read_complete   000000014003cef0 f   pjlib-x86_64-x64-vc14-release:activesock.obj
 0001:0003c150       ioqueue_on_write_complete  000000014003d150 f   pjlib-x86_64-x64-vc14-release:activesock.obj
 0001:0003c7e0       send_remaining             000000014003d7e0 f   pjlib-x86_64-x64-vc14-release:activesock.obj
 0001:0003cc50       pool_buf_cleanup           000000014003dc50 f   pjlib-x86_64-x64-vc14-release:pool_buf.obj
 0001:0003cc80       stack_alloc                000000014003dc80 f   pjlib-x86_64-x64-vc14-release:pool_buf.obj
 0001:0003cce0       MyGetAdapterAddresses      000000014003dce0 f   pjlib-x86_64-x64-vc14-release:ip_helper_win32.obj
 0001:0003cda0       MyGetIpAddrTable           000000014003dda0 f   pjlib-x86_64-x64-vc14-release:ip_helper_win32.obj
 0001:0003ce50       enum_ipv4_interface        000000014003de50 f   pjlib-x86_64-x64-vc14-release:ip_helper_win32.obj
 0001:0003d0a0       enum_ipv4_ipv6_interface   000000014003e0a0 f   pjlib-x86_64-x64-vc14-release:ip_helper_win32.obj
 0001:0003d360       unload_iphlp_module        000000014003e360 f   pjlib-x86_64-x64-vc14-release:ip_helper_win32.obj
 0001:0003d3a0       default_block_alloc        000000014003e3a0 f   pjlib-x86_64-x64-vc14-release:pool_policy_malloc.obj
 0001:0003d420       default_block_free         000000014003e420 f   pjlib-x86_64-x64-vc14-release:pool_policy_malloc.obj
 0001:0003d480       default_pool_callback      000000014003e480 f   pjlib-x86_64-x64-vc14-release:pool_policy_malloc.obj
 0001:0003d970       $$000000                   000000014003e970     MSVCRT:_amdsecgs_.obj
 0001:0003d9a4       ?pre_c_initialization@@YAHXZ 000000014003e9a4 f   MSVCRT:exe_main.obj
 0001:0003da60       ?post_pgo_initialization@@YAHXZ 000000014003ea60 f   MSVCRT:exe_main.obj
 0001:0003da70       ?pre_cpp_initialization@@YAXXZ 000000014003ea70 f   MSVCRT:exe_main.obj
 0001:0003da8c       ?__scrt_common_main_seh@@YAHXZ 000000014003ea8c f   MSVCRT:exe_main.obj
 0001:0003ddd0       capture_current_context    000000014003edd0 f   MSVCRT:gs_report.obj
 0001:0003de40       capture_previous_context   000000014003ee40 f   MSVCRT:gs_report.obj
 0001:0003e080       $$000000                   000000014003f080     MSVCRT:_chkstk_.obj
 0001:0003e7f0       $$000000                   000000014003f7f0     MSVCRT:_guard_dispatch_.obj
 0001:0003e802       ?filt$0@?0??__scrt_common_main_seh@@YAHXZ@4HA 000000014003f802 f   MSVCRT:exe_main.obj
 0001:0003e820       __scrt_is_nonwritable_in_current_image$filt$0 000000014003f820 f   MSVCRT:utility.obj
 0002:00000448       ?pre_cpp_initializer@@3P6AXXZEA 0000000140040448     MSVCRT:exe_main.obj
 0002:00000460       ?pre_c_initializer@@3P6AHXZEA 0000000140040460     MSVCRT:exe_main.obj
 0002:00000468       ?post_pgo_initializer@@3P6AHXZEA 0000000140040468     MSVCRT:exe_main.obj
 0002:000008c8       pjsip_update_method        00000001400408c8     pjsip-ua-x86_64-x64-vc14-release:sip_inv.obj
 0002:00000b80       tag_100rel                 0000000140040b80     pjsip-ua-x86_64-x64-vc14-release:sip_100rel.obj
 0002:00000b90       RSEQ                       0000000140040b90     pjsip-ua-x86_64-x64-vc14-release:sip_100rel.obj
 0002:00000ba0       RACK                       0000000140040ba0     pjsip-ua-x86_64-x64-vc14-release:sip_100rel.obj
 0002:00000e08       STR_SE                     0000000140040e08     pjsip-ua-x86_64-x64-vc14-release:sip_timer.obj
 0002:00000e18       STR_SHORT_SE               0000000140040e18     pjsip-ua-x86_64-x64-vc14-release:sip_timer.obj
 0002:00000e28       STR_MIN_SE                 0000000140040e28     pjsip-ua-x86_64-x64-vc14-release:sip_timer.obj
 0002:00000e38       STR_REFRESHER              0000000140040e38     pjsip-ua-x86_64-x64-vc14-release:sip_timer.obj
 0002:00000e48       STR_UAC                    0000000140040e48     pjsip-ua-x86_64-x64-vc14-release:sip_timer.obj
 0002:00000e58       STR_UAS                    0000000140040e58     pjsip-ua-x86_64-x64-vc14-release:sip_timer.obj
 0002:00000e68       STR_TIMER                  0000000140040e68     pjsip-ua-x86_64-x64-vc14-release:sip_timer.obj
 0002:000031a0       HCONTACT                   00000001400431a0     pjsip-core-x86_64-x64-vc14-release:sip_dialog.obj
 0002:00003b40       err_str                    0000000140043b40     pjsip-core-x86_64-x64-vc14-release:sip_errno.obj
 0002:00005c30       err_str                    0000000140045c30     pjlib-util-x86_64-x64-vc14-release:errno.obj
 0002:00006f60       err_str                    0000000140046f60     pjlib-x86_64-x64-vc14-release:errno.obj
 0002:00007a80       gaErrorList                0000000140047a80     pjlib-x86_64-x64-vc14-release:os_error_win32.obj
 0002:00008610       qos_map                    0000000140048610     pjlib-x86_64-x64-vc14-release:sock_qos_common.obj
 0002:000087e0       GS_ExceptionPointers       00000001400487e0     MSVCRT:gs_report.obj
 0002:00008b20       $unwind$printf             0000000140048b20     sipecho.obj
 0002:00008b2c       $unwind$sprintf            0000000140048b2c     sipecho.obj
 0002:00008b38       $unwind$app_perror         0000000140048b38     sipecho.obj
 0002:00008b50       $unwind$get_snd_options    0000000140048b50     sipecho.obj
 0002:00008b70       $unwind$dump_pool_usage    0000000140048b70     sipecho.obj
 0002:00008b88       $unwind$call_on_state_changed 0000000140048b88     sipecho.obj
 0002:00008b94       $unwind$call_on_rx_offer   0000000140048b94     sipecho.obj
 0002:00008b9c       $unwind$on_rx_request      0000000140048b9c     sipecho.obj
 0002:00008bb8       $chain$1$on_rx_request     0000000140048bb8     sipecho.obj
 0002:00008bd0       $chain$2$on_rx_request     0000000140048bd0     sipecho.obj
 0002:00008be0       $unwind$logging_on_rx_msg  0000000140048be0     sipecho.obj
 0002:00008be8       $chain$1$logging_on_rx_msg 0000000140048be8     sipecho.obj
 0002:00008c00       $chain$2$logging_on_rx_msg 0000000140048c00     sipecho.obj
 0002:00008c10       $unwind$logging_on_tx_msg  0000000140048c10     sipecho.obj
 0002:00008c18       $chain$2$logging_on_tx_msg 0000000140048c18     sipecho.obj
 0002:00008c34       $chain$3$logging_on_tx_msg 0000000140048c34     sipecho.obj
 0002:00008c44       $unwind$worker_proc        0000000140048c44     sipecho.obj
 0002:00008c4c       $chain$0$worker_proc       0000000140048c4c     sipecho.obj
 0002:00008c60       $chain$1$worker_proc       0000000140048c60     sipecho.obj
 0002:00008c70       $unwind$hangup_all         0000000140048c70     sipecho.obj
 0002:00008c7c       $unwind$destroy_stack      0000000140048c7c     sipecho.obj
 0002:00008c8c       $chain$0$destroy_stack     0000000140048c8c     sipecho.obj
 0002:00008ca0       $chain$1$destroy_stack     0000000140048ca0     sipecho.obj
 0002:00008cb0       $unwind$init_stack         0000000140048cb0     sipecho.obj
 0002:00008cc0       $chain$0$init_stack        0000000140048cc0     sipecho.obj
 0002:00008cd4       $chain$1$init_stack        0000000140048cd4     sipecho.obj
 0002:00008ce8       $chain$2$init_stack        0000000140048ce8     sipecho.obj
 0002:00008cf8       $chain$3$init_stack        0000000140048cf8     sipecho.obj
 0002:00008d08       $unwind$find_remove_sdp_attrs 0000000140048d08     sipecho.obj
 0002:00008d18       $chain$2$find_remove_sdp_attrs 0000000140048d18     sipecho.obj
 0002:00008d34       $chain$3$find_remove_sdp_attrs 0000000140048d34     sipecho.obj
 0002:00008d44       $unwind$create_answer      0000000140048d44     sipecho.obj
 0002:00008d68       $chain$2$create_answer     0000000140048d68     sipecho.obj
 0002:00008d7c       $chain$3$create_answer     0000000140048d7c     sipecho.obj
 0002:00008d8c       $unwind$usage              0000000140048d8c     sipecho.obj
 0002:00008d94       $unwind$main               0000000140048d94     sipecho.obj
 0002:00008db0       $unwind$pjsip_inv_create_uac 0000000140048db0     pjsip-ua-x86_64-x64-vc14-release:sip_inv.obj
 0002:00008dc0       $chain$2$pjsip_inv_create_uac 0000000140048dc0     pjsip-ua-x86_64-x64-vc14-release:sip_inv.obj
 0002:00008ddc       $chain$4$pjsip_inv_create_uac 0000000140048ddc     pjsip-ua-x86_64-x64-vc14-release:sip_inv.obj
 0002:00008df8       $chain$5$pjsip_inv_create_uac 0000000140048df8     pjsip-ua-x86_64-x64-vc14-release:sip_inv.obj
 0002:00008e08       $unwind$pjsip_inv_create_uas 0000000140048e08     pjsip-ua-x86_64-x64-vc14-release:sip_inv.obj
 0002:00008e18       $chain$2$pjsip_inv_create_uas 0000000140048e18     pjsip-ua-x86_64-x64-vc14-release:sip_inv.obj
 0002:00008e34       $chain$4$pjsip_inv_create_uas 0000000140048e34     pjsip-ua-x86_64-x64-vc14-release:sip_inv.obj
 0002:00008e50       $chain$5$pjsip_inv_create_uas 0000000140048e50     pjsip-ua-x86_64-x64-vc14-release:sip_inv.obj
 0002:00008e60       $unwind$pjsip_inv_process_redirect 0000000140048e60     pjsip-ua-x86_64-x64-vc14-release:sip_inv.obj
 0002:00008e7c       $chain$0$pjsip_inv_process_redirect 0000000140048e7c     pjsip-ua-x86_64-x64-vc14-release:sip_inv.obj
 0002:00008e90       $chain$1$pjsip_inv_process_redirect 0000000140048e90     pjsip-ua-x86_64-x64-vc14-release:sip_inv.obj
 0002:00008ea0       $unwind$pjsip_inv_invite   0000000140048ea0     pjsip-ua-x86_64-x64-vc14-release:sip_inv.obj
 0002:00008eb0       $chain$0$pjsip_inv_invite  0000000140048eb0     pjsip-ua-x86_64-x64-vc14-release:sip_inv.obj
 0002:00008ec4       $chain$1$pjsip_inv_invite  0000000140048ec4     pjsip-ua-x86_64-x64-vc14-release:sip_inv.obj
 0002:00008ed4       $unwind$pjsip_inv_initial_answer 0000000140048ed4     pjsip-ua-x86_64-x64-vc14-release:sip_inv.obj
 0002:00008ee8       $unwind$pjsip_inv_answer   0000000140048ee8     pjsip-ua-x86_64-x64-vc14-release:sip_inv.obj
 0002:00008efc       $chain$0$pjsip_inv_answer  0000000140048efc     pjsip-ua-x86_64-x64-vc14-release:sip_inv.obj
 0002:00008f10       $chain$1$pjsip_inv_answer  0000000140048f10     pjsip-ua-x86_64-x64-vc14-release:sip_inv.obj
 0002:00008f20       $unwind$pjsip_inv_end_session 0000000140048f20     pjsip-ua-x86_64-x64-vc14-release:sip_inv.obj
 0002:00008f34       $unwind$pjsip_inv_update   0000000140048f34     pjsip-ua-x86_64-x64-vc14-release:sip_inv.obj
 0002:00008f44       $chain$0$pjsip_inv_update  0000000140048f44     pjsip-ua-x86_64-x64-vc14-release:sip_inv.obj
 0002:00008f58       $chain$2$pjsip_inv_update  0000000140048f58     pjsip-ua-x86_64-x64-vc14-release:sip_inv.obj
 0002:00008f6c       $chain$3$pjsip_inv_update  0000000140048f6c     pjsip-ua-x86_64-x64-vc14-release:sip_inv.obj
 0002:00008f7c       $unwind$pjsip_inv_create_ack 0000000140048f7c     pjsip-ua-x86_64-x64-vc14-release:sip_inv.obj
 0002:00008f88       $chain$2$pjsip_inv_create_ack 0000000140048f88     pjsip-ua-x86_64-x64-vc14-release:sip_inv.obj
 0002:00008fa4       $chain$4$pjsip_inv_create_ack 0000000140048fa4     pjsip-ua-x86_64-x64-vc14-release:sip_inv.obj
 0002:00008fc0       $chain$5$pjsip_inv_create_ack 0000000140048fc0     pjsip-ua-x86_64-x64-vc14-release:sip_inv.obj
 0002:00008fd0       $chain$0$pjsip_inv_send_msg 0000000140048fd0     pjsip-ua-x86_64-x64-vc14-release:sip_inv.obj
 0002:00008fe4       $chain$2$pjsip_inv_send_msg 0000000140048fe4     pjsip-ua-x86_64-x64-vc14-release:sip_inv.obj
 0002:00008fe4       $chain$4$pjsip_inv_send_msg 0000000140048fe4     pjsip-ua-x86_64-x64-vc14-release:sip_inv.obj
 0002:00008fe4       $chain$6$pjsip_inv_send_msg 0000000140048fe4     pjsip-ua-x86_64-x64-vc14-release:sip_inv.obj
 0002:00008ff8       $chain$7$pjsip_inv_send_msg 0000000140048ff8     pjsip-ua-x86_64-x64-vc14-release:sip_inv.obj
 0002:00009008       $unwind$pjsip_rdata_get_sdp_info 0000000140049008     pjsip-ua-x86_64-x64-vc14-release:sip_inv.obj
 0002:00009018       $chain$0$pjsip_rdata_get_sdp_info 0000000140049018     pjsip-ua-x86_64-x64-vc14-release:sip_inv.obj
 0002:0000902c       $chain$1$pjsip_rdata_get_sdp_info 000000014004902c     pjsip-ua-x86_64-x64-vc14-release:sip_inv.obj
 0002:00009040       $chain$2$pjsip_rdata_get_sdp_info 0000000140049040     pjsip-ua-x86_64-x64-vc14-release:sip_inv.obj
 0002:00009050       $chain$3$pjsip_rdata_get_sdp_info 0000000140049050     pjsip-ua-x86_64-x64-vc14-release:sip_inv.obj
 0002:00009060       $unwind$_snprintf          0000000140049060     pjsip-ua-x86_64-x64-vc14-release:sip_inv.obj
 0002:00009070       $unwind$mod_inv_load       0000000140049070     pjsip-ua-x86_64-x64-vc14-release:sip_inv.obj
 0002:00009084       $unwind$mod_inv_on_rx_request 0000000140049084     pjsip-ua-x86_64-x64-vc14-release:sip_inv.obj
 0002:00009090       $chain$0$mod_inv_on_rx_request 0000000140049090     pjsip-ua-x86_64-x64-vc14-release:sip_inv.obj
 0002:000090a4       $chain$2$mod_inv_on_rx_request 00000001400490a4     pjsip-ua-x86_64-x64-vc14-release:sip_inv.obj
 0002:000090a4       $chain$4$mod_inv_on_rx_request 00000001400490a4     pjsip-ua-x86_64-x64-vc14-release:sip_inv.obj
 0002:000090b8       $unwind$mod_inv_on_rx_response 00000001400490b8     pjsip-ua-x86_64-x64-vc14-release:sip_inv.obj
 0002:000090c4       $unwind$mod_inv_on_tsx_state 00000001400490c4     pjsip-ua-x86_64-x64-vc14-release:sip_inv.obj
 0002:000090d0       $chain$0$mod_inv_on_tsx_state 00000001400490d0     pjsip-ua-x86_64-x64-vc14-release:sip_inv.obj
 0002:000090e4       $chain$1$mod_inv_on_tsx_state 00000001400490e4     pjsip-ua-x86_64-x64-vc14-release:sip_inv.obj
 0002:000090f8       $chain$2$mod_inv_on_tsx_state 00000001400490f8     pjsip-ua-x86_64-x64-vc14-release:sip_inv.obj
 0002:00009108       $chain$3$mod_inv_on_tsx_state 0000000140049108     pjsip-ua-x86_64-x64-vc14-release:sip_inv.obj
 0002:00009118       $unwind$inv_on_state_calling 0000000140049118     pjsip-ua-x86_64-x64-vc14-release:sip_inv.obj
 0002:00009128       $chain$0$inv_on_state_calling 0000000140049128     pjsip-ua-x86_64-x64-vc14-release:sip_inv.obj
 0002:0000913c       $chain$1$inv_on_state_calling 000000014004913c     pjsip-ua-x86_64-x64-vc14-release:sip_inv.obj
 0002:00009150       $chain$2$inv_on_state_calling 0000000140049150     pjsip-ua-x86_64-x64-vc14-release:sip_inv.obj
 0002:00009160       $chain$3$inv_on_state_calling 0000000140049160     pjsip-ua-x86_64-x64-vc14-release:sip_inv.obj
 0002:00009170       $unwind$inv_on_state_early 0000000140049170     pjsip-ua-x86_64-x64-vc14-release:sip_inv.obj
 0002:00009180       $unwind$pj_activesock_send 0000000140049180     pjlib-x86_64-x64-vc14-release:activesock.obj
 0002:00009180       $unwind$inv_on_state_connecting 0000000140049180     pjsip-ua-x86_64-x64-vc14-release:sip_inv.obj
 0002:00009190       $chain$0$inv_on_state_connecting 0000000140049190     pjsip-ua-x86_64-x64-vc14-release:sip_inv.obj
 0002:000091a4       $chain$1$inv_on_state_connecting 00000001400491a4     pjsip-ua-x86_64-x64-vc14-release:sip_inv.obj
 0002:000091b4       $unwind$inv_on_state_confirmed 00000001400491b4     pjsip-ua-x86_64-x64-vc14-release:sip_inv.obj
 0002:000091c4       $chain$0$inv_on_state_confirmed 00000001400491c4     pjsip-ua-x86_64-x64-vc14-release:sip_inv.obj
 0002:000091d8       $chain$8$inv_on_state_confirmed 00000001400491d8     pjsip-ua-x86_64-x64-vc14-release:sip_inv.obj
 0002:000091f0       $chain$9$inv_on_state_confirmed 00000001400491f0     pjsip-ua-x86_64-x64-vc14-release:sip_inv.obj
 0002:00009200       $chain$10$inv_on_state_confirmed 0000000140049200     pjsip-ua-x86_64-x64-vc14-release:sip_inv.obj
 0002:00009210       $chain$11$inv_on_state_confirmed 0000000140049210     pjsip-ua-x86_64-x64-vc14-release:sip_inv.obj
 0002:0000922c       $chain$2$inv_on_state_confirmed 000000014004922c     pjsip-ua-x86_64-x64-vc14-release:sip_inv.obj
 0002:0000922c       $chain$4$inv_on_state_confirmed 000000014004922c     pjsip-ua-x86_64-x64-vc14-release:sip_inv.obj
 0002:0000922c       $chain$6$inv_on_state_confirmed 000000014004922c     pjsip-ua-x86_64-x64-vc14-release:sip_inv.obj
 0002:0000922c       $chain$12$inv_on_state_confirmed 000000014004922c     pjsip-ua-x86_64-x64-vc14-release:sip_inv.obj
 0002:0000922c       $chain$14$inv_on_state_confirmed 000000014004922c     pjsip-ua-x86_64-x64-vc14-release:sip_inv.obj
 0002:0000922c       $chain$16$inv_on_state_confirmed 000000014004922c     pjsip-ua-x86_64-x64-vc14-release:sip_inv.obj
 0002:0000922c       $chain$18$inv_on_state_confirmed 000000014004922c     pjsip-ua-x86_64-x64-vc14-release:sip_inv.obj
 0002:0000922c       $chain$22$inv_on_state_confirmed 000000014004922c     pjsip-ua-x86_64-x64-vc14-release:sip_inv.obj
 0002:0000922c       $chain$24$inv_on_state_confirmed 000000014004922c     pjsip-ua-x86_64-x64-vc14-release:sip_inv.obj
 0002:0000922c       $chain$26$inv_on_state_confirmed 000000014004922c     pjsip-ua-x86_64-x64-vc14-release:sip_inv.obj
 0002:0000922c       $chain$28$inv_on_state_confirmed 000000014004922c     pjsip-ua-x86_64-x64-vc14-release:sip_inv.obj
 0002:0000922c       $chain$20$inv_on_state_confirmed 000000014004922c     pjsip-ua-x86_64-x64-vc14-release:sip_inv.obj
 0002:00009240       $unwind$inv_on_state_disconnected 0000000140049240     pjsip-ua-x86_64-x64-vc14-release:sip_inv.obj
 0002:00009240       $unwind$pj_sock_select     0000000140049240     pjlib-x86_64-x64-vc14-release:sock_select.obj
 0002:00009254       $unwind$inv_check_sdp_in_incoming_msg 0000000140049254     pjsip-ua-x86_64-x64-vc14-release:sip_inv.obj
 0002:00009264       $chain$0$inv_check_sdp_in_incoming_msg 0000000140049264     pjsip-ua-x86_64-x64-vc14-release:sip_inv.obj
 0002:00009278       $chain$5$inv_check_sdp_in_incoming_msg 0000000140049278     pjsip-ua-x86_64-x64-vc14-release:sip_inv.obj
 0002:00009298       $chain$7$inv_check_sdp_in_incoming_msg 0000000140049298     pjsip-ua-x86_64-x64-vc14-release:sip_inv.obj
 0002:000092b8       $chain$0$inv_negotiate_sdp 00000001400492b8     pjsip-ua-x86_64-x64-vc14-release:sip_inv.obj
 0002:000092cc       $chain$2$inv_negotiate_sdp 00000001400492cc     pjsip-ua-x86_64-x64-vc14-release:sip_inv.obj
 0002:000092e0       $unwind$inv_check_secure_dlg 00000001400492e0     pjsip-ua-x86_64-x64-vc14-release:sip_inv.obj
 0002:000092f8       $unwind$inv_set_state      00000001400492f8     pjsip-ua-x86_64-x64-vc14-release:sip_inv.obj
 0002:000092f8       $unwind$pjsip_endpt_handle_events2 00000001400492f8     pjsip-core-x86_64-x64-vc14-release:sip_endpoint.obj
 0002:00009310       $unwind$inv_has_pending_answer 0000000140049310     pjsip-ua-x86_64-x64-vc14-release:sip_inv.obj
 0002:0000931c       $unwind$inv_send_ack       000000014004931c     pjsip-ua-x86_64-x64-vc14-release:sip_inv.obj
 0002:0000931c       $unwind$parse_sip_version  000000014004931c     pjsip-core-x86_64-x64-vc14-release:sip_parser.obj
 0002:00009324       $chain$1$inv_send_ack      0000000140049324     pjsip-ua-x86_64-x64-vc14-release:sip_inv.obj
 0002:0000933c       $chain$3$inv_send_ack      000000014004933c     pjsip-ua-x86_64-x64-vc14-release:sip_inv.obj
 0002:00009354       $chain$4$inv_send_ack      0000000140049354     pjsip-ua-x86_64-x64-vc14-release:sip_inv.obj
 0002:00009364       $unwind$tx_data_has_sdp    0000000140049364     pjsip-ua-x86_64-x64-vc14-release:sip_inv.obj
 0002:00009370       $unwind$cleanup_allow_sup_hdr 0000000140049370     pjsip-ua-x86_64-x64-vc14-release:sip_inv.obj
 0002:00009384       $chain$0$cleanup_allow_sup_hdr 0000000140049384     pjsip-ua-x86_64-x64-vc14-release:sip_inv.obj
 0002:00009398       $chain$1$cleanup_allow_sup_hdr 0000000140049398     pjsip-ua-x86_64-x64-vc14-release:sip_inv.obj
 0002:000093a8       $unwind$inv_respond_incoming_cancel 00000001400493a8     pjsip-ua-x86_64-x64-vc14-release:sip_inv.obj
 0002:000093bc       $unwind$inv_respond_incoming_update 00000001400493bc     pjsip-ua-x86_64-x64-vc14-release:sip_inv.obj
 0002:000093c8       $chain$0$inv_respond_incoming_update 00000001400493c8     pjsip-ua-x86_64-x64-vc14-release:sip_inv.obj
 0002:000093dc       $chain$2$inv_respond_incoming_update 00000001400493dc     pjsip-ua-x86_64-x64-vc14-release:sip_inv.obj
 0002:000093f0       $chain$3$inv_respond_incoming_update 00000001400493f0     pjsip-ua-x86_64-x64-vc14-release:sip_inv.obj
 0002:00009400       $unwind$inv_handle_update_response 0000000140049400     pjsip-ua-x86_64-x64-vc14-release:sip_inv.obj
 0002:00009414       $unwind$handle_uac_call_rejection 0000000140049414     pjsip-ua-x86_64-x64-vc14-release:sip_inv.obj
 0002:00009424       $unwind$pjsip_100rel_attach 0000000140049424     pjsip-ua-x86_64-x64-vc14-release:sip_100rel.obj
 0002:00009430       $unwind$pjsip_100rel_create_prack 0000000140049430     pjsip-ua-x86_64-x64-vc14-release:sip_100rel.obj
 0002:00009448       $chain$0$pjsip_100rel_create_prack 0000000140049448     pjsip-ua-x86_64-x64-vc14-release:sip_100rel.obj
 0002:0000945c       $chain$2$pjsip_100rel_create_prack 000000014004945c     pjsip-ua-x86_64-x64-vc14-release:sip_100rel.obj
 0002:00009474       $chain$3$pjsip_100rel_create_prack 0000000140049474     pjsip-ua-x86_64-x64-vc14-release:sip_100rel.obj
 0002:00009484       $chain$4$pjsip_100rel_create_prack 0000000140049484     pjsip-ua-x86_64-x64-vc14-release:sip_100rel.obj
 0002:00009494       $unwind$mod_tsx_layer_on_rx_request 0000000140049494     pjsip-core-x86_64-x64-vc14-release:sip_transaction.obj
 0002:00009494       $unwind$mod_tsx_layer_on_rx_response 0000000140049494     pjsip-core-x86_64-x64-vc14-release:sip_transaction.obj
 0002:00009494       $unwind$pjsip_100rel_on_rx_prack 0000000140049494     pjsip-ua-x86_64-x64-vc14-release:sip_100rel.obj
 0002:000094a8       $unwind$pjsip_100rel_tx_response 00000001400494a8     pjsip-ua-x86_64-x64-vc14-release:sip_100rel.obj
 0002:000094bc       $chain$0$pjsip_100rel_tx_response 00000001400494bc     pjsip-ua-x86_64-x64-vc14-release:sip_100rel.obj
 0002:000094d0       $chain$1$pjsip_100rel_tx_response 00000001400494d0     pjsip-ua-x86_64-x64-vc14-release:sip_100rel.obj
 0002:000094e4       $chain$2$pjsip_100rel_tx_response 00000001400494e4     pjsip-ua-x86_64-x64-vc14-release:sip_100rel.obj
 0002:000094f4       $chain$3$pjsip_100rel_tx_response 00000001400494f4     pjsip-ua-x86_64-x64-vc14-release:sip_100rel.obj
 0002:00009504       $unwind$pjsip_cseq_hdr_shallow_clone 0000000140049504     pjsip-core-x86_64-x64-vc14-release:sip_msg.obj
 0002:00009504       $unwind$pjsip_msg_create   0000000140049504     pjsip-core-x86_64-x64-vc14-release:sip_msg.obj
 0002:00009504       $unwind$_onexit            0000000140049504     MSVCRT:utility.obj
 0002:00009504       $unwind$tcp_shutdown       0000000140049504     pjsip-core-x86_64-x64-vc14-release:sip_transport_tcp.obj
 0002:00009504       $unwind$udp_on_destroy     0000000140049504     pjsip-core-x86_64-x64-vc14-release:sip_transport_udp.obj
 0002:00009504       $unwind$pj_thread_local_alloc 0000000140049504     pjlib-x86_64-x64-vc14-release:os_core_win32.obj
 0002:00009504       $unwind$?pre_c_initialization@@YAHXZ 0000000140049504     MSVCRT:exe_main.obj
 0002:00009504       $unwind$__raise_securityfailure 0000000140049504     MSVCRT:gs_report.obj
 0002:00009504       $unwind$pj_time_val_normalize 0000000140049504     pjlib-x86_64-x64-vc14-release:types.obj
 0002:00009504       $unwind$ioqueue_on_connect_complete 0000000140049504     pjlib-x86_64-x64-vc14-release:activesock.obj
 0002:00009504       $unwind$pj_cis_buf_init    0000000140049504     pjlib-util-x86_64-x64-vc14-release:scanner.obj
 0002:00009504       $unwind$pjsip_endpt_release_pool 0000000140049504     pjsip-core-x86_64-x64-vc14-release:sip_endpoint.obj
 0002:00009504       $unwind$pj_timer_heap_destroy 0000000140049504     pjlib-x86_64-x64-vc14-release:timer.obj
 0002:00009504       $unwind$pjsip_clen_hdr_clone 0000000140049504     pjsip-core-x86_64-x64-vc14-release:sip_msg.obj
 0002:00009504       $unwind$pjsip_dlg_inc_lock 0000000140049504     pjsip-core-x86_64-x64-vc14-release:sip_dialog.obj
 0002:00009504       $unwind$transport_send_callback 0000000140049504     pjsip-core-x86_64-x64-vc14-release:sip_transport.obj
 0002:00009504       $unwind$tx_data_destroy    0000000140049504     pjsip-core-x86_64-x64-vc14-release:sip_transport.obj
 0002:00009504       $unwind$pjsip_generic_array_hdr_shallow_clone 0000000140049504     pjsip-core-x86_64-x64-vc14-release:sip_msg.obj
 0002:00009504       $unwind$alloc_dlgset_node  0000000140049504     pjsip-core-x86_64-x64-vc14-release:sip_ua_layer.obj
 0002:00009504       $unwind$increment_counter  0000000140049504     pjlib-x86_64-x64-vc14-release:ioqueue_select.obj
 0002:00009504       $unwind$pj_cis_add_alpha   0000000140049504     pjlib-util-x86_64-x64-vc14-release:scanner.obj
 0002:00009504       $unwind$pjsip_print_text_body 0000000140049504     pjsip-core-x86_64-x64-vc14-release:sip_msg.obj
 0002:00009504       $unwind$stop_timer         0000000140049504     pjsip-ua-x86_64-x64-vc14-release:sip_timer.obj
 0002:00009504       $unwind$pjsip_generic_int_hdr_shallow_clone 0000000140049504     pjsip-core-x86_64-x64-vc14-release:sip_msg.obj
 0002:00009504       $unwind$dlg_on_destroy     0000000140049504     pjsip-core-x86_64-x64-vc14-release:sip_dialog.obj
 0002:00009504       $unwind$pj_strcpy2         0000000140049504     pjlib-x86_64-x64-vc14-release:string.obj
 0002:00009504       $unwind$pj_scan_get_char   0000000140049504     pjlib-util-x86_64-x64-vc14-release:scanner.obj
 0002:00009504       $unwind$pj_hash_this       0000000140049504     pjlib-x86_64-x64-vc14-release:hash.obj
 0002:00009504       $unwind$pj_strcpy          0000000140049504     pjlib-x86_64-x64-vc14-release:string.obj
 0002:00009504       $unwind$pjsip_via_hdr_create 0000000140049504     pjsip-core-x86_64-x64-vc14-release:sip_msg.obj
 0002:00009504       $unwind$pjsip_generic_int_hdr_clone 0000000140049504     pjsip-core-x86_64-x64-vc14-release:sip_msg.obj
 0002:00009504       $unwind$pjsip_generic_string_hdr_shallow_clone 0000000140049504     pjsip-core-x86_64-x64-vc14-release:sip_msg.obj
 0002:00009504       $unwind$pj_scan_skip_line  0000000140049504     pjlib-util-x86_64-x64-vc14-release:scanner.obj
 0002:00009504       $unwind$__scrt_release_startup_lock 0000000140049504     MSVCRT:utility.obj
 0002:00009504       $unwind$PJ_FD_ZERO         0000000140049504     pjlib-x86_64-x64-vc14-release:sock_select.obj
 0002:00009504       $unwind$__scrt_initialize_crt 0000000140049504     MSVCRT:utility.obj
 0002:00009504       $unwind$pjsip_via_hdr_init 0000000140049504     pjsip-core-x86_64-x64-vc14-release:sip_msg.obj
 0002:00009504       $unwind$pjsip_100rel_end_session 0000000140049504     pjsip-ua-x86_64-x64-vc14-release:sip_100rel.obj
 0002:00009504       $unwind$pjsip_contact_hdr_create 0000000140049504     pjsip-core-x86_64-x64-vc14-release:sip_msg.obj
 0002:00009504       $unwind$pj_sock_set_qos_type 0000000140049504     pjlib-x86_64-x64-vc14-release:sock_qos_bsd.obj
 0002:00009504       $unwind$pj_sockaddr_set_port 0000000140049504     pjlib-x86_64-x64-vc14-release:sock_common.obj
 0002:00009504       $unwind$pjsip_retry_after_hdr_create 0000000140049504     pjsip-core-x86_64-x64-vc14-release:sip_msg.obj
 0002:00009504       $unwind$pj_rwmutex_lock_read 0000000140049504     pjlib-x86_64-x64-vc14-release:os_core_win32.obj
 0002:00009504       $unwind$pjmedia_sdp_neg_set_remote_offer 0000000140049504     pjmedia-x86_64-x64-vc14-release:sdp_neg.obj
 0002:00009504       $unwind$pj_rwmutex_unlock_read 0000000140049504     pjlib-x86_64-x64-vc14-release:os_core_win32.obj
 0002:00009504       $unwind$pjsip_restore_strict_route_set 0000000140049504     pjsip-core-x86_64-x64-vc14-release:sip_util.obj
 0002:00009504       $unwind$pj_rwmutex_destroy 0000000140049504     pjlib-x86_64-x64-vc14-release:os_core_win32.obj
 0002:00009504       $unwind$pj_ioqueue_unregister 0000000140049504     pjlib-x86_64-x64-vc14-release:ioqueue_select.obj
 0002:00009504       $unwind$pjmedia_sdp_neg_set_remote_answer 0000000140049504     pjmedia-x86_64-x64-vc14-release:sdp_neg.obj
 0002:00009504       $unwind$pjsip_route_hdr_create 0000000140049504     pjsip-core-x86_64-x64-vc14-release:sip_msg.obj
 0002:00009504       $unwind$pjsip_rr_hdr_create 0000000140049504     pjsip-core-x86_64-x64-vc14-release:sip_msg.obj
 0002:00009504       $unwind$pjsip_min_expires_hdr_create 0000000140049504     pjsip-core-x86_64-x64-vc14-release:sip_msg.obj
 0002:00009504       $unwind$pjsip_contact_hdr_init 0000000140049504     pjsip-core-x86_64-x64-vc14-release:sip_msg.obj
 0002:00009504       $unwind$pjsip_max_fwd_hdr_create 0000000140049504     pjsip-core-x86_64-x64-vc14-release:sip_msg.obj
 0002:00009504       $unwind$pj_sock_close      0000000140049504     pjlib-x86_64-x64-vc14-release:sock_bsd.obj
 0002:00009504       $unwind$pjsip_to_hdr_init  0000000140049504     pjsip-core-x86_64-x64-vc14-release:sip_msg.obj
 0002:00009504       $unwind$validate_sdp_conn  0000000140049504     pjmedia-x86_64-x64-vc14-release:sdp.obj
 0002:00009504       $unwind$pjsip_to_hdr_create 0000000140049504     pjsip-core-x86_64-x64-vc14-release:sip_msg.obj
 0002:00009504       $unwind$pjsip_resolver_create 0000000140049504     pjsip-core-x86_64-x64-vc14-release:sip_resolve.obj
 0002:00009504       $unwind$pj_push_exception_handler_ 0000000140049504     pjlib-x86_64-x64-vc14-release:except.obj
 0002:00009504       $unwind$pjsip_resolver_destroy 0000000140049504     pjsip-core-x86_64-x64-vc14-release:sip_resolve.obj
 0002:00009504       $unwind$pj_rand            0000000140049504     pjlib-x86_64-x64-vc14-release:rand.obj
 0002:00009504       $unwind$pj_exception_id_free 0000000140049504     pjlib-x86_64-x64-vc14-release:except.obj
 0002:00009504       $unwind$tsx_shutdown       0000000140049504     pjsip-core-x86_64-x64-vc14-release:sip_transaction.obj
 0002:00009504       $unwind$pj_grp_lock_dec_ref 0000000140049504     pjlib-x86_64-x64-vc14-release:lock.obj
 0002:00009504       $unwind$pjsip_tx_data_get_info 0000000140049504     pjsip-core-x86_64-x64-vc14-release:sip_transport.obj
 0002:00009504       $unwind$pjsip_from_hdr_init 0000000140049504     pjsip-core-x86_64-x64-vc14-release:sip_msg.obj
 0002:00009504       $unwind$pj_log_init        0000000140049504     pjlib-x86_64-x64-vc14-release:log.obj
 0002:00009504       $unwind$pjsip_tx_data_dec_ref 0000000140049504     pjsip-core-x86_64-x64-vc14-release:sip_transport.obj
 0002:00009504       $unwind$pjsip_tsx_layer_init_module 0000000140049504     pjsip-core-x86_64-x64-vc14-release:sip_transaction.obj
 0002:00009504       $unwind$pj_pool_destroy_int 0000000140049504     pjlib-x86_64-x64-vc14-release:pool.obj
 0002:00009504       $unwind$tsx_on_destroy     0000000140049504     pjsip-core-x86_64-x64-vc14-release:sip_transaction.obj
 0002:00009504       $unwind$pj_pool_reset      0000000140049504     pjlib-x86_64-x64-vc14-release:pool.obj
 0002:00009504       $unwind$pj_pop_exception_handler_ 0000000140049504     pjlib-x86_64-x64-vc14-release:except.obj
 0002:00009504       $unwind$create_sdp_body    0000000140049504     pjsip-ua-x86_64-x64-vc14-release:sip_inv.obj
 0002:00009504       $unwind$pjsip_from_hdr_create 0000000140049504     pjsip-core-x86_64-x64-vc14-release:sip_msg.obj
 0002:00009504       $unwind$pjsip_expires_hdr_create 0000000140049504     pjsip-core-x86_64-x64-vc14-release:sip_msg.obj
 0002:00009504       $unwind$pj_gettickcount    0000000140049504     pjlib-x86_64-x64-vc14-release:os_timestamp_common.obj
 0002:00009504       $unwind$pjsip_ctype_hdr_init 0000000140049504     pjsip-core-x86_64-x64-vc14-release:sip_msg.obj
 0002:00009504       $unwind$inv_negotiate_sdp  0000000140049504     pjsip-ua-x86_64-x64-vc14-release:sip_inv.obj
 0002:00009504       $unwind$pjsip_ctype_hdr_create 0000000140049504     pjsip-core-x86_64-x64-vc14-release:sip_msg.obj
 0002:00009504       $unwind$pj_create_unique_string 0000000140049504     pjlib-x86_64-x64-vc14-release:guid.obj
 0002:00009504       $unwind$pj_get_timestamp   0000000140049504     pjlib-x86_64-x64-vc14-release:os_timestamp_win32.obj
 0002:00009504       $unwind$__scrt_uninitialize_crt 0000000140049504     MSVCRT:utility.obj
 0002:00009504       $unwind$pj_get_timestamp_freq 0000000140049504     pjlib-x86_64-x64-vc14-release:os_timestamp_win32.obj
 0002:0000950c       $unwind$on_retransmit      000000014004950c     pjsip-ua-x86_64-x64-vc14-release:sip_100rel.obj
 0002:00009518       $chain$0$on_retransmit     0000000140049518     pjsip-ua-x86_64-x64-vc14-release:sip_100rel.obj
 0002:0000952c       $chain$1$on_retransmit     000000014004952c     pjsip-ua-x86_64-x64-vc14-release:sip_100rel.obj
 0002:0000953c       $chain$0$pjsip_timer_process_resp 000000014004953c     pjsip-ua-x86_64-x64-vc14-release:sip_timer.obj
 0002:00009550       $chain$2$pjsip_timer_process_resp 0000000140049550     pjsip-ua-x86_64-x64-vc14-release:sip_timer.obj
 0002:00009564       $chain$3$pjsip_timer_process_resp 0000000140049564     pjsip-ua-x86_64-x64-vc14-release:sip_timer.obj
 0002:00009574       $chain$0$pjsip_timer_handle_refresh_error 0000000140049574     pjsip-ua-x86_64-x64-vc14-release:sip_timer.obj
 0002:00009588       $chain$2$pjsip_timer_handle_refresh_error 0000000140049588     pjsip-ua-x86_64-x64-vc14-release:sip_timer.obj
 0002:0000959c       $chain$3$pjsip_timer_handle_refresh_error 000000014004959c     pjsip-ua-x86_64-x64-vc14-release:sip_timer.obj
 0002:000095ac       $unwind$pjsip_timer_process_req 00000001400495ac     pjsip-ua-x86_64-x64-vc14-release:sip_timer.obj
 0002:000095b8       $chain$0$pjsip_timer_process_req 00000001400495b8     pjsip-ua-x86_64-x64-vc14-release:sip_timer.obj
 0002:000095cc       $chain$3$pjsip_timer_process_req 00000001400495cc     pjsip-ua-x86_64-x64-vc14-release:sip_timer.obj
 0002:000095e4       $chain$5$pjsip_timer_process_req 00000001400495e4     pjsip-ua-x86_64-x64-vc14-release:sip_timer.obj
 0002:000095fc       $chain$6$pjsip_timer_process_req 00000001400495fc     pjsip-ua-x86_64-x64-vc14-release:sip_timer.obj
 0002:0000960c       $chain$0$pjsip_timer_update_resp 000000014004960c     pjsip-ua-x86_64-x64-vc14-release:sip_timer.obj
 0002:00009620       $chain$4$pjsip_timer_update_resp 0000000140049620     pjsip-ua-x86_64-x64-vc14-release:sip_timer.obj
 0002:00009620       $chain$2$pjsip_timer_update_resp 0000000140049620     pjsip-ua-x86_64-x64-vc14-release:sip_timer.obj
 0002:00009634       $chain$5$pjsip_timer_update_resp 0000000140049634     pjsip-ua-x86_64-x64-vc14-release:sip_timer.obj
 0002:00009644       $unwind$start_timer        0000000140049644     pjsip-ua-x86_64-x64-vc14-release:sip_timer.obj
 0002:00009658       $unwind$pjsip_fromto_hdr_print 0000000140049658     pjsip-core-x86_64-x64-vc14-release:sip_msg.obj
 0002:00009658       $unwind$se_hdr_print       0000000140049658     pjsip-ua-x86_64-x64-vc14-release:sip_timer.obj
 0002:00009658       $unwind$print_digest_credential 0000000140049658     pjsip-core-x86_64-x64-vc14-release:sip_auth_msg.obj
 0002:00009674       $unwind$process_answer     0000000140049674     pjsip-ua-x86_64-x64-vc14-release:sip_inv.obj
 0002:00009674       $unwind$custom_fmt_match   0000000140049674     pjmedia-x86_64-x64-vc14-release:sdp_neg.obj
 0002:00009674       $unwind$min_se_hdr_print   0000000140049674     pjsip-ua-x86_64-x64-vc14-release:sip_timer.obj
 0002:00009674       $unwind$cpool_create_pool  0000000140049674     pjlib-x86_64-x64-vc14-release:pool_caching.obj
 0002:0000968c       $unwind$timer_cb           000000014004968c     pjsip-ua-x86_64-x64-vc14-release:sip_timer.obj
 0002:000096a8       $unwind$pjsip_method_init_np 00000001400496a8     pjsip-core-x86_64-x64-vc14-release:sip_msg.obj
 0002:000096a8       $unwind$init_rdata         00000001400496a8     pjsip-core-x86_64-x64-vc14-release:sip_transport_udp.obj
 0002:000096c0       $unwind$pjsip_media_type_init2 00000001400496c0     pjsip-core-x86_64-x64-vc14-release:sip_msg.obj
 0002:000096d4       $unwind$pjsip_name_addr_compare 00000001400496d4     pjsip-core-x86_64-x64-vc14-release:sip_uri.obj
 0002:000096d4       $unwind$pj_hash_calc       00000001400496d4     pjlib-x86_64-x64-vc14-release:hash.obj
 0002:000096d4       $unwind$pjsip_name_addr_clone 00000001400496d4     pjsip-core-x86_64-x64-vc14-release:sip_uri.obj
 0002:000096d4       $unwind$pjsip_clen_hdr_print 00000001400496d4     pjsip-core-x86_64-x64-vc14-release:sip_msg.obj
 0002:000096d4       $unwind$pj_ioqueue_set_lock 00000001400496d4     pjlib-x86_64-x64-vc14-release:ioqueue_select.obj
 0002:000096d4       $unwind$pjsip_msg_body_clone 00000001400496d4     pjsip-core-x86_64-x64-vc14-release:sip_msg.obj
 0002:000096d4       $unwind$pjsip_cseq_hdr_clone 00000001400496d4     pjsip-core-x86_64-x64-vc14-release:sip_msg.obj
 0002:000096d4       $unwind$pjsip_name_addr_assign 00000001400496d4     pjsip-core-x86_64-x64-vc14-release:sip_uri.obj
 0002:000096d4       $unwind$pjsip_url_compare  00000001400496d4     pjsip-core-x86_64-x64-vc14-release:sip_uri.obj
 0002:000096d4       $unwind$pjsip_fromto_hdr_clone 00000001400496d4     pjsip-core-x86_64-x64-vc14-release:sip_msg.obj
 0002:000096d4       $unwind$pjmedia_sdp_conn_clone 00000001400496d4     pjmedia-x86_64-x64-vc14-release:sdp.obj
 0002:000096d4       $unwind$pjsip_sip_uri_assign 00000001400496d4     pjsip-core-x86_64-x64-vc14-release:sip_uri.obj
 0002:000096d4       $unwind$pjsip_fromto_hdr_shallow_clone 00000001400496d4     pjsip-core-x86_64-x64-vc14-release:sip_msg.obj
 0002:000096d4       $unwind$pjsip_media_type_init 00000001400496d4     pjsip-core-x86_64-x64-vc14-release:sip_msg.obj
 0002:000096d4       $unwind$pjsip_contact_hdr_clone 00000001400496d4     pjsip-core-x86_64-x64-vc14-release:sip_msg.obj
 0002:000096d4       $unwind$inv_on_state_null  00000001400496d4     pjsip-ua-x86_64-x64-vc14-release:sip_inv.obj
 0002:000096d4       $unwind$destroy_dialog     00000001400496d4     pjsip-core-x86_64-x64-vc14-release:sip_dialog.obj
 0002:000096d4       $unwind$pjsip_routing_hdr_shallow_clone 00000001400496d4     pjsip-core-x86_64-x64-vc14-release:sip_msg.obj
 0002:000096d4       $unwind$pj_hash_create     00000001400496d4     pjlib-x86_64-x64-vc14-release:hash.obj
 0002:000096d4       $unwind$se_hdr_shallow_clone 00000001400496d4     pjsip-ua-x86_64-x64-vc14-release:sip_timer.obj
 0002:000096d4       $unwind$pjsip_generic_int_hdr_print 00000001400496d4     pjsip-core-x86_64-x64-vc14-release:sip_msg.obj
 0002:000096d4       $unwind$pj_sock_bind       00000001400496d4     pjlib-x86_64-x64-vc14-release:sock_bsd.obj
 0002:000096d4       $unwind$pjsip_authorization_hdr_shallow_clone 00000001400496d4     pjsip-core-x86_64-x64-vc14-release:sip_auth_msg.obj
 0002:000096d4       $unwind$PJ_FD_CLR          00000001400496d4     pjlib-x86_64-x64-vc14-release:sock_select.obj
 0002:000096d4       $unwind$grp_lock_acquire   00000001400496d4     pjlib-x86_64-x64-vc14-release:lock.obj
 0002:000096d4       $unwind$pj_sock_connect    00000001400496d4     pjlib-x86_64-x64-vc14-release:sock_bsd.obj
 0002:000096d4       $unwind$pjsip_dlg_remove_remote_cap_hdr 00000001400496d4     pjsip-core-x86_64-x64-vc14-release:sip_dialog.obj
 0002:000096d4       $unwind$pj_sock_getsockname 00000001400496d4     pjlib-x86_64-x64-vc14-release:sock_bsd.obj
 0002:000096d4       $unwind$other_uri_clone    00000001400496d4     pjsip-core-x86_64-x64-vc14-release:sip_uri.obj
 0002:000096d4       $unwind$pjsip_param_find   00000001400496d4     pjsip-core-x86_64-x64-vc14-release:sip_uri.obj
 0002:000096d4       $unwind$pjsip_contact_hdr_shallow_clone 00000001400496d4     pjsip-core-x86_64-x64-vc14-release:sip_msg.obj
 0002:000096d4       $unwind$grp_lock_release   00000001400496d4     pjlib-x86_64-x64-vc14-release:lock.obj
 0002:000096d4       $unwind$pjsip_msg_find_hdr_by_name 00000001400496d4     pjsip-core-x86_64-x64-vc14-release:sip_msg.obj
 0002:000096d4       $unwind$pj_array_insert    00000001400496d4     pjlib-x86_64-x64-vc14-release:array.obj
 0002:000096d4       $unwind$PJ_FD_SET          00000001400496d4     pjlib-x86_64-x64-vc14-release:sock_select.obj
 0002:000096d4       $unwind$_RTC_Terminate     00000001400496d4     MSVCRT:_initsect_.obj
 0002:000096d4       $unwind$pj_caching_pool_init 00000001400496d4     pjlib-x86_64-x64-vc14-release:pool_caching.obj
 0002:000096d4       $unwind$inv_on_state_incoming 00000001400496d4     pjsip-ua-x86_64-x64-vc14-release:sip_inv.obj
 0002:000096d4       $unwind$pjmedia_sdp_neg_send_local_offer 00000001400496d4     pjmedia-x86_64-x64-vc14-release:sdp_neg.obj
 0002:000096d4       $unwind$min_se_hdr_clone   00000001400496d4     pjsip-ua-x86_64-x64-vc14-release:sip_timer.obj
 0002:000096d4       $unwind$pjsip_generic_string_hdr_print 00000001400496d4     pjsip-core-x86_64-x64-vc14-release:sip_msg.obj
 0002:000096d4       $unwind$pjsip_generic_string_hdr_clone 00000001400496d4     pjsip-core-x86_64-x64-vc14-release:sip_msg.obj
 0002:000096d4       $unwind$pjsip_www_authenticate_hdr_shallow_clone 00000001400496d4     pjsip-core-x86_64-x64-vc14-release:sip_auth_msg.obj
 0002:000096d4       $unwind$pjsip_generic_string_hdr_create 00000001400496d4     pjsip-core-x86_64-x64-vc14-release:sip_msg.obj
 0002:000096d4       $unwind$inv_uac_recurse    00000001400496d4     pjsip-ua-x86_64-x64-vc14-release:sip_inv.obj
 0002:000096d4       $unwind$_RTC_Initialize    00000001400496d4     MSVCRT:_initsect_.obj
 0002:000096d4       $unwind$pjmedia_sdp_neg_set_local_answer 00000001400496d4     pjmedia-x86_64-x64-vc14-release:sdp_neg.obj
 0002:000096d4       $unwind$on_data_sent       00000001400496d4     pjsip-core-x86_64-x64-vc14-release:sip_transport_tcp.obj
 0002:000096d4       $unwind$pjsip_ctype_hdr_clone 00000001400496d4     pjsip-core-x86_64-x64-vc14-release:sip_msg.obj
 0002:000096d4       $unwind$pj_sockaddr_init   00000001400496d4     pjlib-x86_64-x64-vc14-release:sock_common.obj
 0002:000096d4       $unwind$pj_pool_create_block 00000001400496d4     pjlib-x86_64-x64-vc14-release:pool.obj
 0002:000096d4       $unwind$pjsip_via_hdr_clone 00000001400496d4     pjsip-core-x86_64-x64-vc14-release:sip_msg.obj
 0002:000096d4       $unwind$cancel             00000001400496d4     pjlib-x86_64-x64-vc14-release:timer.obj
 0002:000096d4       $unwind$pjsip_retry_after_hdr_shallow_clone 00000001400496d4     pjsip-core-x86_64-x64-vc14-release:sip_msg.obj
 0002:000096d4       $unwind$pjsip_media_type_cmp 00000001400496d4     pjsip-core-x86_64-x64-vc14-release:sip_msg.obj
 0002:000096d4       $unwind$min_se_hdr_shallow_clone 00000001400496d4     pjsip-ua-x86_64-x64-vc14-release:sip_timer.obj
 0002:000096d4       $unwind$find_req_hdr       00000001400496d4     pjsip-ua-x86_64-x64-vc14-release:sip_100rel.obj
 0002:000096d4       $unwind$pjsip_dlg_send_response 00000001400496d4     pjsip-core-x86_64-x64-vc14-release:sip_dialog.obj
 0002:000096d4       $unwind$pj_pool_allocate_find 00000001400496d4     pjlib-x86_64-x64-vc14-release:pool.obj
 0002:000096d4       $unwind$default_block_free 00000001400496d4     pjlib-x86_64-x64-vc14-release:pool_policy_malloc.obj
 0002:000096d4       $unwind$pjsip_msg_body_copy 00000001400496d4     pjsip-core-x86_64-x64-vc14-release:sip_msg.obj
 0002:000096d4       $unwind$MyGetIpAddrTable   00000001400496d4     pjlib-x86_64-x64-vc14-release:ip_helper_win32.obj
 0002:000096d4       $unwind$int_parse_other_uri 00000001400496d4     pjsip-core-x86_64-x64-vc14-release:sip_parser.obj
 0002:000096d4       $unwind$pjsip_via_hdr_shallow_clone 00000001400496d4     pjsip-core-x86_64-x64-vc14-release:sip_msg.obj
 0002:000096d4       $unwind$pjsip_tsx_retransmit_no_state 00000001400496d4     pjsip-core-x86_64-x64-vc14-release:sip_transaction.obj
 0002:000096d4       $unwind$pj_enum_ip_interface 00000001400496d4     pjlib-x86_64-x64-vc14-release:ip_helper_win32.obj
 0002:000096d4       $unwind$add_timer_headers  00000001400496d4     pjsip-ua-x86_64-x64-vc14-release:sip_timer.obj
 0002:000096d4       $unwind$pj_timer_heap_set_lock 00000001400496d4     pjlib-x86_64-x64-vc14-release:timer.obj
 0002:000096e4       $unwind$pjsip_media_type_cp 00000001400496e4     pjsip-core-x86_64-x64-vc14-release:sip_msg.obj
 0002:000096f4       $chain$1$pjsip_clone_text_data 00000001400496f4     pjsip-core-x86_64-x64-vc14-release:sip_msg.obj
 0002:0000970c       $chain$2$pjsip_clone_text_data 000000014004970c     pjsip-core-x86_64-x64-vc14-release:sip_msg.obj
 0002:0000971c       $unwind$pjsip_msg_find_hdr_by_names 000000014004971c     pjsip-core-x86_64-x64-vc14-release:sip_msg.obj
 0002:00009734       $unwind$pjsip_msg_print    0000000140049734     pjsip-core-x86_64-x64-vc14-release:sip_msg.obj
 0002:0000974c       $chain$1$pjsip_msg_print   000000014004974c     pjsip-core-x86_64-x64-vc14-release:sip_msg.obj
 0002:00009764       $chain$3$pjsip_msg_print   0000000140049764     pjsip-core-x86_64-x64-vc14-release:sip_msg.obj
 0002:0000977c       $chain$4$pjsip_msg_print   000000014004977c     pjsip-core-x86_64-x64-vc14-release:sip_msg.obj
 0002:0000978c       $chain$5$pjsip_msg_print   000000014004978c     pjsip-core-x86_64-x64-vc14-release:sip_msg.obj
 0002:0000979c       $unwind$pjsip_warning_hdr_create 000000014004979c     pjsip-core-x86_64-x64-vc14-release:sip_msg.obj
 0002:000097b0       $unwind$pjsip_warning_hdr_create_from_status 00000001400497b0     pjsip-core-x86_64-x64-vc14-release:sip_msg.obj
 0002:000097c8       $unwind$print_media_type   00000001400497c8     pjsip-core-x86_64-x64-vc14-release:sip_msg.obj
 0002:000097dc       $unwind$init_status_phrase 00000001400497dc     pjsip-core-x86_64-x64-vc14-release:sip_msg.obj
 0002:000097e4       $unwind$pjsip_generic_array_hdr_print 00000001400497e4     pjsip-core-x86_64-x64-vc14-release:sip_msg.obj
 0002:000097f8       $chain$0$pjsip_generic_array_hdr_print 00000001400497f8     pjsip-core-x86_64-x64-vc14-release:sip_msg.obj
 0002:0000980c       $chain$1$pjsip_generic_array_hdr_print 000000014004980c     pjsip-core-x86_64-x64-vc14-release:sip_msg.obj
 0002:0000981c       $chain$2$pjsip_generic_array_hdr_print 000000014004981c     pjsip-core-x86_64-x64-vc14-release:sip_msg.obj
 0002:00009830       $unwind$pjsip_cseq_hdr_print 0000000140049830     pjsip-core-x86_64-x64-vc14-release:sip_msg.obj
 0002:00009840       $unwind$pjsip_contact_hdr_print 0000000140049840     pjsip-core-x86_64-x64-vc14-release:sip_msg.obj
 0002:00009854       $chain$1$pjsip_contact_hdr_print 0000000140049854     pjsip-core-x86_64-x64-vc14-release:sip_msg.obj
 0002:0000986c       $chain$2$pjsip_contact_hdr_print 000000014004986c     pjsip-core-x86_64-x64-vc14-release:sip_msg.obj
 0002:0000987c       $unwind$pjsip_routing_hdr_print 000000014004987c     pjsip-core-x86_64-x64-vc14-release:sip_msg.obj
 0002:0000987c       $unwind$parse_multipart_part 000000014004987c     pjsip-core-x86_64-x64-vc14-release:sip_multipart.obj
 0002:00009898       $unwind$pjsip_retry_after_hdr_print 0000000140049898     pjsip-core-x86_64-x64-vc14-release:sip_msg.obj
 0002:000098ac       $chain$0$pjsip_retry_after_hdr_print 00000001400498ac     pjsip-core-x86_64-x64-vc14-release:sip_msg.obj
 0002:000098c0       $chain$1$pjsip_retry_after_hdr_print 00000001400498c0     pjsip-core-x86_64-x64-vc14-release:sip_msg.obj
 0002:000098d0       $chain$1$pjsip_transport_get_type_from_name 00000001400498d0     pjsip-core-x86_64-x64-vc14-release:sip_transport.obj
 0002:000098e8       $chain$3$pjsip_transport_get_type_from_name 00000001400498e8     pjsip-core-x86_64-x64-vc14-release:sip_transport.obj
 0002:00009900       $chain$0$pjsip_tx_data_create 0000000140049900     pjsip-core-x86_64-x64-vc14-release:sip_transport.obj
 0002:00009914       $chain$4$pjsip_tx_data_create 0000000140049914     pjsip-core-x86_64-x64-vc14-release:sip_transport.obj
 0002:00009930       $chain$6$pjsip_tx_data_create 0000000140049930     pjsip-core-x86_64-x64-vc14-release:sip_transport.obj
 0002:0000994c       $chain$7$pjsip_tx_data_create 000000014004994c     pjsip-core-x86_64-x64-vc14-release:sip_transport.obj
 0002:0000995c       $unwind$pjsip_tx_data_encode 000000014004995c     pjsip-core-x86_64-x64-vc14-release:sip_transport.obj
 0002:00009970       $unwind$pjsip_tx_data_clone 0000000140049970     pjsip-core-x86_64-x64-vc14-release:sip_transport.obj
 0002:00009970       $unwind$stateless_send_resolver_callback 0000000140049970     pjsip-core-x86_64-x64-vc14-release:sip_util.obj
 0002:0000997c       $chain$1$pjsip_tx_data_clone 000000014004997c     pjsip-core-x86_64-x64-vc14-release:sip_transport.obj
 0002:00009994       $chain$2$pjsip_tx_data_clone 0000000140049994     pjsip-core-x86_64-x64-vc14-release:sip_transport.obj
 0002:000099a8       $chain$3$pjsip_tx_data_clone 00000001400499a8     pjsip-core-x86_64-x64-vc14-release:sip_transport.obj
 0002:000099b8       $chain$4$pjsip_tx_data_clone 00000001400499b8     pjsip-core-x86_64-x64-vc14-release:sip_transport.obj
 0002:000099cc       $chain$5$pjsip_tx_data_clone 00000001400499cc     pjsip-core-x86_64-x64-vc14-release:sip_transport.obj
 0002:000099dc       $unwind$pjsip_transport_register 00000001400499dc     pjsip-core-x86_64-x64-vc14-release:sip_transport.obj
 0002:000099f4       $unwind$pjsip_transport_shutdown2 00000001400499f4     pjsip-core-x86_64-x64-vc14-release:sip_transport.obj
 0002:00009a08       $unwind$pjsip_transport_add_ref 0000000140049a08     pjsip-core-x86_64-x64-vc14-release:sip_transport.obj
 0002:00009a20       $unwind$pjsip_transport_dec_ref 0000000140049a20     pjsip-core-x86_64-x64-vc14-release:sip_transport.obj
 0002:00009a30       $chain$1$pjsip_transport_dec_ref 0000000140049a30     pjsip-core-x86_64-x64-vc14-release:sip_transport.obj
 0002:00009a48       $chain$2$pjsip_transport_dec_ref 0000000140049a48     pjsip-core-x86_64-x64-vc14-release:sip_transport.obj
 0002:00009a58       $unwind$pjsip_tpmgr_receive_packet 0000000140049a58     pjsip-core-x86_64-x64-vc14-release:sip_transport.obj
 0002:00009a74       $chain$1$pjsip_tpmgr_receive_packet 0000000140049a74     pjsip-core-x86_64-x64-vc14-release:sip_transport.obj
 0002:00009a8c       $chain$2$pjsip_tpmgr_receive_packet 0000000140049a8c     pjsip-core-x86_64-x64-vc14-release:sip_transport.obj
 0002:00009a9c       $chain$3$pjsip_tpmgr_receive_packet 0000000140049a9c     pjsip-core-x86_64-x64-vc14-release:sip_transport.obj
 0002:00009ab4       $unwind$pjsip_tpmgr_create 0000000140049ab4     pjsip-core-x86_64-x64-vc14-release:sip_transport.obj
 0002:00009ac8       $chain$1$pjsip_tpmgr_create 0000000140049ac8     pjsip-core-x86_64-x64-vc14-release:sip_transport.obj
 0002:00009ae0       $chain$3$pjsip_tpmgr_create 0000000140049ae0     pjsip-core-x86_64-x64-vc14-release:sip_transport.obj
 0002:00009af8       $chain$2$pjsip_tpmgr_create 0000000140049af8     pjsip-core-x86_64-x64-vc14-release:sip_transport.obj
 0002:00009af8       $chain$4$pjsip_tpmgr_create 0000000140049af8     pjsip-core-x86_64-x64-vc14-release:sip_transport.obj
 0002:00009b08       $unwind$pjsip_ua_register_dlg 0000000140049b08     pjsip-core-x86_64-x64-vc14-release:sip_ua_layer.obj
 0002:00009b08       $unwind$init_request_throw 0000000140049b08     pjsip-core-x86_64-x64-vc14-release:sip_util.obj
 0002:00009b08       $unwind$pj_thread_join     0000000140049b08     pjlib-x86_64-x64-vc14-release:os_core_win32.obj
 0002:00009b08       $unwind$tcp_start_read     0000000140049b08     pjsip-core-x86_64-x64-vc14-release:sip_transport_tcp.obj
 0002:00009b08       $unwind$pjsip_tpmgr_destroy 0000000140049b08     pjsip-core-x86_64-x64-vc14-release:sip_transport.obj
 0002:00009b10       $chain$0$pjsip_tpmgr_destroy 0000000140049b10     pjsip-core-x86_64-x64-vc14-release:sip_transport.obj
 0002:00009b24       $chain$2$pjsip_tpmgr_destroy 0000000140049b24     pjsip-core-x86_64-x64-vc14-release:sip_transport.obj
 0002:00009b3c       $chain$3$pjsip_tpmgr_destroy 0000000140049b3c     pjsip-core-x86_64-x64-vc14-release:sip_transport.obj
 0002:00009b4c       $chain$4$pjsip_tpmgr_destroy 0000000140049b4c     pjsip-core-x86_64-x64-vc14-release:sip_transport.obj
 0002:00009b5c       $unwind$pjsip_tpmgr_acquire_transport2 0000000140049b5c     pjsip-core-x86_64-x64-vc14-release:sip_transport.obj
 0002:00009b78       $chain$0$pjsip_tpmgr_acquire_transport2 0000000140049b78     pjsip-core-x86_64-x64-vc14-release:sip_transport.obj
 0002:00009b8c       $chain$1$pjsip_tpmgr_acquire_transport2 0000000140049b8c     pjsip-core-x86_64-x64-vc14-release:sip_transport.obj
 0002:00009b9c       $chain$2$pjsip_tpmgr_acquire_transport2 0000000140049b9c     pjsip-core-x86_64-x64-vc14-release:sip_transport.obj
 0002:00009bb0       $unwind$pjsip_transport_send 0000000140049bb0     pjsip-core-x86_64-x64-vc14-release:sip_transport.obj
 0002:00009bb0       $unwind$pjlib_util_strerror 0000000140049bb0     pjlib-util-x86_64-x64-vc14-release:errno.obj
 0002:00009bc4       $chain$0$pjsip_transport_send 0000000140049bc4     pjsip-core-x86_64-x64-vc14-release:sip_transport.obj
 0002:00009bd8       $chain$1$pjsip_transport_send 0000000140049bd8     pjsip-core-x86_64-x64-vc14-release:sip_transport.obj
 0002:00009be8       $unwind$pjsip_transport_add_state_listener 0000000140049be8     pjsip-core-x86_64-x64-vc14-release:sip_transport.obj
 0002:00009bf8       $chain$1$pjsip_transport_add_state_listener 0000000140049bf8     pjsip-core-x86_64-x64-vc14-release:sip_transport.obj
 0002:00009c10       $chain$2$pjsip_transport_add_state_listener 0000000140049c10     pjsip-core-x86_64-x64-vc14-release:sip_transport.obj
 0002:00009c20       $unwind$pjmedia_sdp_neg_create_w_local_offer 0000000140049c20     pjmedia-x86_64-x64-vc14-release:sdp_neg.obj
 0002:00009c20       $unwind$pjsip_transport_remove_state_listener 0000000140049c20     pjsip-core-x86_64-x64-vc14-release:sip_transport.obj
 0002:00009c30       $chain$0$pjsip_transport_remove_state_listener 0000000140049c30     pjsip-core-x86_64-x64-vc14-release:sip_transport.obj
 0002:00009c44       $chain$2$pjsip_transport_remove_state_listener 0000000140049c44     pjsip-core-x86_64-x64-vc14-release:sip_transport.obj
 0002:00009c58       $chain$3$pjsip_transport_remove_state_listener 0000000140049c58     pjsip-core-x86_64-x64-vc14-release:sip_transport.obj
 0002:00009c68       $unwind$tp_state_callback  0000000140049c68     pjsip-core-x86_64-x64-vc14-release:sip_transport.obj
 0002:00009c7c       $chain$0$tp_state_callback 0000000140049c7c     pjsip-core-x86_64-x64-vc14-release:sip_transport.obj
 0002:00009c90       $chain$1$tp_state_callback 0000000140049c90     pjsip-core-x86_64-x64-vc14-release:sip_transport.obj
 0002:00009ca0       $unwind$get_msg_info       0000000140049ca0     pjsip-core-x86_64-x64-vc14-release:sip_transport.obj
 0002:00009cb8       $unwind$destroy_transport  0000000140049cb8     pjsip-core-x86_64-x64-vc14-release:sip_transport.obj
 0002:00009cc0       $chain$3$destroy_transport 0000000140049cc0     pjsip-core-x86_64-x64-vc14-release:sip_transport.obj
 0002:00009ce0       $chain$4$destroy_transport 0000000140049ce0     pjsip-core-x86_64-x64-vc14-release:sip_transport.obj
 0002:00009cf4       $chain$5$destroy_transport 0000000140049cf4     pjsip-core-x86_64-x64-vc14-release:sip_transport.obj
 0002:00009d08       $chain$6$destroy_transport 0000000140049d08     pjsip-core-x86_64-x64-vc14-release:sip_transport.obj
 0002:00009d18       $chain$7$destroy_transport 0000000140049d18     pjsip-core-x86_64-x64-vc14-release:sip_transport.obj
 0002:00009d28       $chain$8$destroy_transport 0000000140049d28     pjsip-core-x86_64-x64-vc14-release:sip_transport.obj
 0002:00009d38       $unwind$pjsip_endpt_create 0000000140049d38     pjsip-core-x86_64-x64-vc14-release:sip_endpoint.obj
 0002:00009d48       $chain$1$pjsip_endpt_create 0000000140049d48     pjsip-core-x86_64-x64-vc14-release:sip_endpoint.obj
 0002:00009d60       $chain$3$pjsip_endpt_create 0000000140049d60     pjsip-core-x86_64-x64-vc14-release:sip_endpoint.obj
 0002:00009d78       $chain$1$pjsip_endpt_destroy 0000000140049d78     pjsip-core-x86_64-x64-vc14-release:sip_endpoint.obj
 0002:00009d90       $chain$3$pjsip_endpt_destroy 0000000140049d90     pjsip-core-x86_64-x64-vc14-release:sip_endpoint.obj
 0002:00009da8       $chain$4$pjsip_endpt_destroy 0000000140049da8     pjsip-core-x86_64-x64-vc14-release:sip_endpoint.obj
 0002:00009db8       $chain$5$pjsip_endpt_destroy 0000000140049db8     pjsip-core-x86_64-x64-vc14-release:sip_endpoint.obj
 0002:00009dc8       $unwind$pjsip_endpt_schedule_timer_w_grp_lock_dbg 0000000140049dc8     pjsip-core-x86_64-x64-vc14-release:sip_endpoint.obj
 0002:00009dc8       $unwind$platform_strerror  0000000140049dc8     pjlib-x86_64-x64-vc14-release:os_error_win32.obj
 0002:00009ddc       $chain$0$pjsip_endpt_register_module 0000000140049ddc     pjsip-core-x86_64-x64-vc14-release:sip_endpoint.obj
 0002:00009df0       $chain$1$pjsip_endpt_register_module 0000000140049df0     pjsip-core-x86_64-x64-vc14-release:sip_endpoint.obj
 0002:00009e04       $chain$2$pjsip_endpt_register_module 0000000140049e04     pjsip-core-x86_64-x64-vc14-release:sip_endpoint.obj
 0002:00009e14       $chain$3$pjsip_endpt_register_module 0000000140049e14     pjsip-core-x86_64-x64-vc14-release:sip_endpoint.obj
 0002:00009e24       $unwind$pjsip_endpt_unregister_module 0000000140049e24     pjsip-core-x86_64-x64-vc14-release:sip_endpoint.obj
 0002:00009e40       $unwind$pjsip_endpt_process_rx_data 0000000140049e40     pjsip-core-x86_64-x64-vc14-release:sip_endpoint.obj
 0002:00009e50       $chain$1$pjsip_endpt_process_rx_data 0000000140049e50     pjsip-core-x86_64-x64-vc14-release:sip_endpoint.obj
 0002:00009e68       $chain$2$pjsip_endpt_process_rx_data 0000000140049e68     pjsip-core-x86_64-x64-vc14-release:sip_endpoint.obj
 0002:00009e7c       $chain$3$pjsip_endpt_process_rx_data 0000000140049e7c     pjsip-core-x86_64-x64-vc14-release:sip_endpoint.obj
 0002:00009e8c       $chain$4$pjsip_endpt_process_rx_data 0000000140049e8c     pjsip-core-x86_64-x64-vc14-release:sip_endpoint.obj
 0002:00009e8c       $chain$6$pjsip_endpt_process_rx_data 0000000140049e8c     pjsip-core-x86_64-x64-vc14-release:sip_endpoint.obj
 0002:00009e9c       $chain$5$pjsip_endpt_process_rx_data 0000000140049e9c     pjsip-core-x86_64-x64-vc14-release:sip_endpoint.obj
 0002:00009eb8       $chain$1$pjsip_endpt_add_capability 0000000140049eb8     pjsip-core-x86_64-x64-vc14-release:sip_endpoint.obj
 0002:00009ed0       $chain$3$pjsip_endpt_add_capability 0000000140049ed0     pjsip-core-x86_64-x64-vc14-release:sip_endpoint.obj
 0002:00009ee8       $chain$4$pjsip_endpt_add_capability 0000000140049ee8     pjsip-core-x86_64-x64-vc14-release:sip_endpoint.obj
 0002:00009ef8       $chain$0$pjsip_endpt_atexit 0000000140049ef8     pjsip-core-x86_64-x64-vc14-release:sip_endpoint.obj
 0002:00009f0c       $chain$1$pjsip_endpt_atexit 0000000140049f0c     pjsip-core-x86_64-x64-vc14-release:sip_endpoint.obj
 0002:00009f1c       $unwind$pjsip_endpt_log_error 0000000140049f1c     pjsip-core-x86_64-x64-vc14-release:sip_endpoint.obj
 0002:00009f38       $chain$1$pjsip_endpt_log_error 0000000140049f38     pjsip-core-x86_64-x64-vc14-release:sip_endpoint.obj
 0002:00009f50       $chain$2$pjsip_endpt_log_error 0000000140049f50     pjsip-core-x86_64-x64-vc14-release:sip_endpoint.obj
 0002:00009f60       $unwind$endpt_on_rx_msg    0000000140049f60     pjsip-core-x86_64-x64-vc14-release:sip_endpoint.obj
 0002:00009f78       $unwind$pjsip_target_set_add_uri 0000000140049f78     pjsip-core-x86_64-x64-vc14-release:sip_util.obj
 0002:00009f88       $chain$1$pjsip_target_set_add_uri 0000000140049f88     pjsip-core-x86_64-x64-vc14-release:sip_util.obj
 0002:00009fa0       $chain$3$pjsip_target_set_add_uri 0000000140049fa0     pjsip-core-x86_64-x64-vc14-release:sip_util.obj
 0002:00009fb8       $chain$4$pjsip_target_set_add_uri 0000000140049fb8     pjsip-core-x86_64-x64-vc14-release:sip_util.obj
 0002:00009fc8       $unwind$pjsip_target_set_add_from_msg 0000000140049fc8     pjsip-core-x86_64-x64-vc14-release:sip_util.obj
 0002:00009fd8       $chain$1$pjsip_target_set_add_from_msg 0000000140049fd8     pjsip-core-x86_64-x64-vc14-release:sip_util.obj
 0002:00009ff0       $chain$2$pjsip_target_set_add_from_msg 0000000140049ff0     pjsip-core-x86_64-x64-vc14-release:sip_util.obj
 0002:0000a000       $unwind$pjsip_endpt_create_request_from_hdr 000000014004a000     pjsip-core-x86_64-x64-vc14-release:sip_util.obj
 0002:0000a020       $unwind$pjsip_endpt_create_response 000000014004a020     pjsip-core-x86_64-x64-vc14-release:sip_util.obj
 0002:0000a030       $chain$0$pjsip_endpt_create_response 000000014004a030     pjsip-core-x86_64-x64-vc14-release:sip_util.obj
 0002:0000a044       $chain$2$pjsip_endpt_create_response 000000014004a044     pjsip-core-x86_64-x64-vc14-release:sip_util.obj
 0002:0000a058       $chain$3$pjsip_endpt_create_response 000000014004a058     pjsip-core-x86_64-x64-vc14-release:sip_util.obj
 0002:0000a06c       $chain$5$pjsip_endpt_create_response 000000014004a06c     pjsip-core-x86_64-x64-vc14-release:sip_util.obj
 0002:0000a084       $chain$6$pjsip_endpt_create_response 000000014004a084     pjsip-core-x86_64-x64-vc14-release:sip_util.obj
 0002:0000a094       $chain$7$pjsip_endpt_create_response 000000014004a094     pjsip-core-x86_64-x64-vc14-release:sip_util.obj
 0002:0000a0a4       $chain$8$pjsip_endpt_create_response 000000014004a0a4     pjsip-core-x86_64-x64-vc14-release:sip_util.obj
 0002:0000a0b4       $unwind$pjsip_endpt_create_ack 000000014004a0b4     pjsip-core-x86_64-x64-vc14-release:sip_util.obj
 0002:0000a0c8       $chain$0$pjsip_endpt_create_ack 000000014004a0c8     pjsip-core-x86_64-x64-vc14-release:sip_util.obj
 0002:0000a0dc       $chain$1$pjsip_endpt_create_ack 000000014004a0dc     pjsip-core-x86_64-x64-vc14-release:sip_util.obj
 0002:0000a0f0       $chain$2$pjsip_endpt_create_ack 000000014004a0f0     pjsip-core-x86_64-x64-vc14-release:sip_util.obj
 0002:0000a100       $chain$3$pjsip_endpt_create_ack 000000014004a100     pjsip-core-x86_64-x64-vc14-release:sip_util.obj
 0002:0000a110       $unwind$pjsip_endpt_create_cancel 000000014004a110     pjsip-core-x86_64-x64-vc14-release:sip_util.obj
 0002:0000a11c       $chain$1$pjsip_endpt_create_cancel 000000014004a11c     pjsip-core-x86_64-x64-vc14-release:sip_util.obj
 0002:0000a134       $chain$2$pjsip_endpt_create_cancel 000000014004a134     pjsip-core-x86_64-x64-vc14-release:sip_util.obj
 0002:0000a148       $chain$4$pjsip_endpt_create_cancel 000000014004a148     pjsip-core-x86_64-x64-vc14-release:sip_util.obj
 0002:0000a160       $chain$5$pjsip_endpt_create_cancel 000000014004a160     pjsip-core-x86_64-x64-vc14-release:sip_util.obj
 0002:0000a170       $chain$6$pjsip_endpt_create_cancel 000000014004a170     pjsip-core-x86_64-x64-vc14-release:sip_util.obj
 0002:0000a180       $chain$8$pjsip_endpt_create_cancel 000000014004a180     pjsip-core-x86_64-x64-vc14-release:sip_util.obj
 0002:0000a198       $chain$9$pjsip_endpt_create_cancel 000000014004a198     pjsip-core-x86_64-x64-vc14-release:sip_util.obj
 0002:0000a1a8       $unwind$pjsip_process_route_set 000000014004a1a8     pjsip-core-x86_64-x64-vc14-release:sip_util.obj
 0002:0000a1c0       $chain$3$pjsip_process_route_set 000000014004a1c0     pjsip-core-x86_64-x64-vc14-release:sip_util.obj
 0002:0000a1d4       $chain$4$pjsip_process_route_set 000000014004a1d4     pjsip-core-x86_64-x64-vc14-release:sip_util.obj
 0002:0000a1e4       $chain$0$pjsip_restore_strict_route_set 000000014004a1e4     pjsip-core-x86_64-x64-vc14-release:sip_util.obj
 0002:0000a1f8       $chain$1$pjsip_restore_strict_route_set 000000014004a1f8     pjsip-core-x86_64-x64-vc14-release:sip_util.obj
 0002:0000a20c       $chain$2$pjsip_restore_strict_route_set 000000014004a20c     pjsip-core-x86_64-x64-vc14-release:sip_util.obj
 0002:0000a21c       $chain$3$pjsip_restore_strict_route_set 000000014004a21c     pjsip-core-x86_64-x64-vc14-release:sip_util.obj
 0002:0000a22c       $unwind$pjsip_endpt_send_request_stateless 000000014004a22c     pjsip-core-x86_64-x64-vc14-release:sip_util.obj
 0002:0000a240       $chain$0$pjsip_endpt_send_request_stateless 000000014004a240     pjsip-core-x86_64-x64-vc14-release:sip_util.obj
 0002:0000a254       $chain$2$pjsip_endpt_send_request_stateless 000000014004a254     pjsip-core-x86_64-x64-vc14-release:sip_util.obj
 0002:0000a268       $chain$3$pjsip_endpt_send_request_stateless 000000014004a268     pjsip-core-x86_64-x64-vc14-release:sip_util.obj
 0002:0000a278       $unwind$tel_uri_print      000000014004a278     pjsip-core-x86_64-x64-vc14-release:sip_tel_uri.obj
 0002:0000a278       $unwind$pjsip_endpt_send_response 000000014004a278     pjsip-core-x86_64-x64-vc14-release:sip_util.obj
 0002:0000a278       $unwind$pj_str_unescape    000000014004a278     pjlib-util-x86_64-x64-vc14-release:string.obj
 0002:0000a290       $unwind$pjsip_endpt_respond_stateless 000000014004a290     pjsip-core-x86_64-x64-vc14-release:sip_util.obj
 0002:0000a2ac       $chain$1$init_request_throw 000000014004a2ac     pjsip-core-x86_64-x64-vc14-release:sip_util.obj
 0002:0000a2c4       $chain$3$init_request_throw 000000014004a2c4     pjsip-core-x86_64-x64-vc14-release:sip_util.obj
 0002:0000a2dc       $chain$4$init_request_throw 000000014004a2dc     pjsip-core-x86_64-x64-vc14-release:sip_util.obj
 0002:0000a2f0       $chain$5$init_request_throw 000000014004a2f0     pjsip-core-x86_64-x64-vc14-release:sip_util.obj
 0002:0000a300       $chain$6$init_request_throw 000000014004a300     pjsip-core-x86_64-x64-vc14-release:sip_util.obj
 0002:0000a314       $chain$7$init_request_throw 000000014004a314     pjsip-core-x86_64-x64-vc14-release:sip_util.obj
 0002:0000a324       $unwind$stateless_send_transport_cb 000000014004a324     pjsip-core-x86_64-x64-vc14-release:sip_util.obj
 0002:0000a334       $chain$0$stateless_send_resolver_callback 000000014004a334     pjsip-core-x86_64-x64-vc14-release:sip_util.obj
 0002:0000a348       $chain$2$stateless_send_resolver_callback 000000014004a348     pjsip-core-x86_64-x64-vc14-release:sip_util.obj
 0002:0000a35c       $chain$3$stateless_send_resolver_callback 000000014004a35c     pjsip-core-x86_64-x64-vc14-release:sip_util.obj
 0002:0000a370       $chain$4$stateless_send_resolver_callback 000000014004a370     pjsip-core-x86_64-x64-vc14-release:sip_util.obj
 0002:0000a380       $unwind$send_response_resolver_cb 000000014004a380     pjsip-core-x86_64-x64-vc14-release:sip_util.obj
 0002:0000a398       $unwind$pjsip_endpt_respond 000000014004a398     pjsip-core-x86_64-x64-vc14-release:sip_util_statefull.obj
 0002:0000a3a4       $chain$1$pjsip_endpt_respond 000000014004a3a4     pjsip-core-x86_64-x64-vc14-release:sip_util_statefull.obj
 0002:0000a3bc       $chain$2$pjsip_endpt_respond 000000014004a3bc     pjsip-core-x86_64-x64-vc14-release:sip_util_statefull.obj
 0002:0000a3d0       $chain$3$pjsip_endpt_respond 000000014004a3d0     pjsip-core-x86_64-x64-vc14-release:sip_util_statefull.obj
 0002:0000a3e0       $chain$6$pjsip_endpt_respond 000000014004a3e0     pjsip-core-x86_64-x64-vc14-release:sip_util_statefull.obj
 0002:0000a3f4       $chain$8$pjsip_endpt_respond 000000014004a3f4     pjsip-core-x86_64-x64-vc14-release:sip_util_statefull.obj
 0002:0000a3f4       $chain$5$pjsip_endpt_respond 000000014004a3f4     pjsip-core-x86_64-x64-vc14-release:sip_util_statefull.obj
 0002:0000a40c       $chain$9$pjsip_endpt_respond 000000014004a40c     pjsip-core-x86_64-x64-vc14-release:sip_util_statefull.obj
 0002:0000a41c       $unwind$pjsip_udp_transport_start2 000000014004a41c     pjsip-core-x86_64-x64-vc14-release:sip_transport_udp.obj
 0002:0000a434       $chain$0$pjsip_udp_transport_start2 000000014004a434     pjsip-core-x86_64-x64-vc14-release:sip_transport_udp.obj
 0002:0000a448       $chain$2$pjsip_udp_transport_start2 000000014004a448     pjsip-core-x86_64-x64-vc14-release:sip_transport_udp.obj
 0002:0000a460       $chain$3$pjsip_udp_transport_start2 000000014004a460     pjsip-core-x86_64-x64-vc14-release:sip_transport_udp.obj
 0002:0000a470       $chain$5$pjsip_udp_transport_start2 000000014004a470     pjsip-core-x86_64-x64-vc14-release:sip_transport_udp.obj
 0002:0000a48c       $chain$4$pjsip_udp_transport_start2 000000014004a48c     pjsip-core-x86_64-x64-vc14-release:sip_transport_udp.obj
 0002:0000a48c       $chain$6$pjsip_udp_transport_start2 000000014004a48c     pjsip-core-x86_64-x64-vc14-release:sip_transport_udp.obj
 0002:0000a49c       $unwind$pjsip_udp_transport_start6 000000014004a49c     pjsip-core-x86_64-x64-vc14-release:sip_transport_udp.obj
 0002:0000a49c       $unwind$pjsip_udp_transport_start 000000014004a49c     pjsip-core-x86_64-x64-vc14-release:sip_transport_udp.obj
 0002:0000a4b8       $unwind$pjsip_udp_transport_restart2 000000014004a4b8     pjsip-core-x86_64-x64-vc14-release:sip_transport_udp.obj
 0002:0000a4d4       $unwind$udp_on_read_complete 000000014004a4d4     pjsip-core-x86_64-x64-vc14-release:sip_transport_udp.obj
 0002:0000a4e0       $chain$4$udp_on_read_complete 000000014004a4e0     pjsip-core-x86_64-x64-vc14-release:sip_transport_udp.obj
 0002:0000a504       $chain$5$udp_on_read_complete 000000014004a504     pjsip-core-x86_64-x64-vc14-release:sip_transport_udp.obj
 0002:0000a514       $unwind$init_mutex         000000014004a514     pjlib-x86_64-x64-vc14-release:os_core_win32.obj
 0002:0000a514       $unwind$pj_strerror        000000014004a514     pjlib-x86_64-x64-vc14-release:errno.obj
 0002:0000a514       $unwind$parse_hdr_max_forwards 000000014004a514     pjsip-core-x86_64-x64-vc14-release:sip_parser.obj
 0002:0000a514       $unwind$inv_handle_bye_response 000000014004a514     pjsip-ua-x86_64-x64-vc14-release:sip_inv.obj
 0002:0000a514       $unwind$udp_on_write_complete 000000014004a514     pjsip-core-x86_64-x64-vc14-release:sip_transport_udp.obj
 0002:0000a524       $unwind$udp_send_msg       000000014004a524     pjsip-core-x86_64-x64-vc14-release:sip_transport_udp.obj
 0002:0000a530       $chain$0$udp_send_msg      000000014004a530     pjsip-core-x86_64-x64-vc14-release:sip_transport_udp.obj
 0002:0000a544       $chain$1$udp_send_msg      000000014004a544     pjsip-core-x86_64-x64-vc14-release:sip_transport_udp.obj
 0002:0000a554       $chain$0$udp_on_destroy    000000014004a554     pjsip-core-x86_64-x64-vc14-release:sip_transport_udp.obj
 0002:0000a568       $chain$1$udp_on_destroy    000000014004a568     pjsip-core-x86_64-x64-vc14-release:sip_transport_udp.obj
 0002:0000a57c       $chain$2$udp_on_destroy    000000014004a57c     pjsip-core-x86_64-x64-vc14-release:sip_transport_udp.obj
 0002:0000a58c       $chain$3$udp_on_destroy    000000014004a58c     pjsip-core-x86_64-x64-vc14-release:sip_transport_udp.obj
 0002:0000a59c       $unwind$create_socket      000000014004a59c     pjsip-core-x86_64-x64-vc14-release:sip_transport_udp.obj
 0002:0000a5b4       $unwind$get_published_name 000000014004a5b4     pjsip-core-x86_64-x64-vc14-release:sip_transport_udp.obj
 0002:0000a5c8       $unwind$udp_set_pub_name   000000014004a5c8     pjsip-core-x86_64-x64-vc14-release:sip_transport_udp.obj
 0002:0000a5e4       $unwind$register_to_ioqueue 000000014004a5e4     pjsip-core-x86_64-x64-vc14-release:sip_transport_udp.obj
 0002:0000a5f4       $unwind$start_async_read   000000014004a5f4     pjsip-core-x86_64-x64-vc14-release:sip_transport_udp.obj
 0002:0000a60c       $unwind$transport_attach   000000014004a60c     pjsip-core-x86_64-x64-vc14-release:sip_transport_udp.obj
 0002:0000a628       $chain$2$transport_attach  000000014004a628     pjsip-core-x86_64-x64-vc14-release:sip_transport_udp.obj
 0002:0000a644       $chain$3$transport_attach  000000014004a644     pjsip-core-x86_64-x64-vc14-release:sip_transport_udp.obj
 0002:0000a644       $chain$5$transport_attach  000000014004a644     pjsip-core-x86_64-x64-vc14-release:sip_transport_udp.obj
 0002:0000a654       $chain$4$transport_attach  000000014004a654     pjsip-core-x86_64-x64-vc14-release:sip_transport_udp.obj
 0002:0000a670       $unwind$pjsip_tcp_transport_start2 000000014004a670     pjsip-core-x86_64-x64-vc14-release:sip_transport_tcp.obj
 0002:0000a68c       $unwind$pjsip_tcp_transport_start3 000000014004a68c     pjsip-core-x86_64-x64-vc14-release:sip_transport_tcp.obj
 0002:0000a698       $chain$0$pjsip_tcp_transport_start3 000000014004a698     pjsip-core-x86_64-x64-vc14-release:sip_transport_tcp.obj
 0002:0000a6ac       $chain$4$pjsip_tcp_transport_start3 000000014004a6ac     pjsip-core-x86_64-x64-vc14-release:sip_transport_tcp.obj
 0002:0000a6c8       $chain$5$pjsip_tcp_transport_start3 000000014004a6c8     pjsip-core-x86_64-x64-vc14-release:sip_transport_tcp.obj
 0002:0000a6dc       $chain$7$pjsip_tcp_transport_start3 000000014004a6dc     pjsip-core-x86_64-x64-vc14-release:sip_transport_tcp.obj
 0002:0000a6fc       $chain$8$pjsip_tcp_transport_start3 000000014004a6fc     pjsip-core-x86_64-x64-vc14-release:sip_transport_tcp.obj
 0002:0000a70c       $unwind$pjsip_tcp_transport_lis_start 000000014004a70c     pjsip-core-x86_64-x64-vc14-release:sip_transport_tcp.obj
 0002:0000a724       $chain$0$pjsip_tcp_transport_lis_start 000000014004a724     pjsip-core-x86_64-x64-vc14-release:sip_transport_tcp.obj
 0002:0000a738       $chain$1$pjsip_tcp_transport_lis_start 000000014004a738     pjsip-core-x86_64-x64-vc14-release:sip_transport_tcp.obj
 0002:0000a748       $unwind$on_accept_complete 000000014004a748     pjsip-core-x86_64-x64-vc14-release:sip_transport_tcp.obj
 0002:0000a760       $chain$0$on_accept_complete 000000014004a760     pjsip-core-x86_64-x64-vc14-release:sip_transport_tcp.obj
 0002:0000a774       $chain$1$on_accept_complete 000000014004a774     pjsip-core-x86_64-x64-vc14-release:sip_transport_tcp.obj
 0002:0000a784       $unwind$lis_create_transport 000000014004a784     pjsip-core-x86_64-x64-vc14-release:sip_transport_tcp.obj
 0002:0000a7a0       $chain$0$lis_create_transport 000000014004a7a0     pjsip-core-x86_64-x64-vc14-release:sip_transport_tcp.obj
 0002:0000a7b4       $chain$2$lis_create_transport 000000014004a7b4     pjsip-core-x86_64-x64-vc14-release:sip_transport_tcp.obj
 0002:0000a7c8       $chain$3$lis_create_transport 000000014004a7c8     pjsip-core-x86_64-x64-vc14-release:sip_transport_tcp.obj
 0002:0000a7c8       $chain$1$lis_create_transport 000000014004a7c8     pjsip-core-x86_64-x64-vc14-release:sip_transport_tcp.obj
 0002:0000a7d8       $unwind$tcp_create         000000014004a7d8     pjsip-core-x86_64-x64-vc14-release:sip_transport_tcp.obj
 0002:0000a7f4       $chain$1$tcp_create        000000014004a7f4     pjsip-core-x86_64-x64-vc14-release:sip_transport_tcp.obj
 0002:0000a80c       $chain$2$tcp_create        000000014004a80c     pjsip-core-x86_64-x64-vc14-release:sip_transport_tcp.obj
 0002:0000a81c       $unwind$update_factory_addr 000000014004a81c     pjsip-core-x86_64-x64-vc14-release:sip_transport_tcp.obj
 0002:0000a834       $unwind$update_transport_info 000000014004a834     pjsip-core-x86_64-x64-vc14-release:sip_transport_tcp.obj
 0002:0000a84c       $unwind$tcp_send_msg       000000014004a84c     pjsip-core-x86_64-x64-vc14-release:sip_transport_tcp.obj
 0002:0000a85c       $chain$0$tcp_send_msg      000000014004a85c     pjsip-core-x86_64-x64-vc14-release:sip_transport_tcp.obj
 0002:0000a870       $chain$1$tcp_send_msg      000000014004a870     pjsip-core-x86_64-x64-vc14-release:sip_transport_tcp.obj
 0002:0000a880       $unwind$tcp_destroy        000000014004a880     pjsip-core-x86_64-x64-vc14-release:sip_transport_tcp.obj
 0002:0000a890       $chain$1$tcp_destroy       000000014004a890     pjsip-core-x86_64-x64-vc14-release:sip_transport_tcp.obj
 0002:0000a8a4       $chain$2$tcp_destroy       000000014004a8a4     pjsip-core-x86_64-x64-vc14-release:sip_transport_tcp.obj
 0002:0000a8b8       $chain$3$tcp_destroy       000000014004a8b8     pjsip-core-x86_64-x64-vc14-release:sip_transport_tcp.obj
 0002:0000a8c8       $chain$4$tcp_destroy       000000014004a8c8     pjsip-core-x86_64-x64-vc14-release:sip_transport_tcp.obj
 0002:0000a8d8       $unwind$on_connect_complete 000000014004a8d8     pjsip-core-x86_64-x64-vc14-release:sip_transport_tcp.obj
 0002:0000a8f0       $chain$0$on_connect_complete 000000014004a8f0     pjsip-core-x86_64-x64-vc14-release:sip_transport_tcp.obj
 0002:0000a904       $chain$1$on_connect_complete 000000014004a904     pjsip-core-x86_64-x64-vc14-release:sip_transport_tcp.obj
 0002:0000a918       $chain$2$on_connect_complete 000000014004a918     pjsip-core-x86_64-x64-vc14-release:sip_transport_tcp.obj
 0002:0000a928       $chain$3$on_connect_complete 000000014004a928     pjsip-core-x86_64-x64-vc14-release:sip_transport_tcp.obj
 0002:0000a938       $unwind$tcp_keep_alive_timer 000000014004a938     pjsip-core-x86_64-x64-vc14-release:sip_transport_tcp.obj
 0002:0000a94c       $chain$0$tcp_keep_alive_timer 000000014004a94c     pjsip-core-x86_64-x64-vc14-release:sip_transport_tcp.obj
 0002:0000a960       $chain$1$tcp_keep_alive_timer 000000014004a960     pjsip-core-x86_64-x64-vc14-release:sip_transport_tcp.obj
 0002:0000a970       $unwind$tcp_on_destroy     000000014004a970     pjsip-core-x86_64-x64-vc14-release:sip_transport_tcp.obj
 0002:0000a988       $unwind$tcp_flush_pending_tx 000000014004a988     pjsip-core-x86_64-x64-vc14-release:sip_transport_tcp.obj
 0002:0000a994       $chain$4$tcp_flush_pending_tx 000000014004a994     pjsip-core-x86_64-x64-vc14-release:sip_transport_tcp.obj
 0002:0000a9b8       $chain$5$tcp_flush_pending_tx 000000014004a9b8     pjsip-core-x86_64-x64-vc14-release:sip_transport_tcp.obj
 0002:0000a9c8       $chain$0$tcp_start_read    000000014004a9c8     pjsip-core-x86_64-x64-vc14-release:sip_transport_tcp.obj
 0002:0000a9dc       $chain$2$tcp_start_read    000000014004a9dc     pjsip-core-x86_64-x64-vc14-release:sip_transport_tcp.obj
 0002:0000a9f0       $chain$0$pjsip_tsx_layer_init_module 000000014004a9f0     pjsip-core-x86_64-x64-vc14-release:sip_transaction.obj
 0002:0000aa04       $chain$3$pjsip_tsx_layer_init_module 000000014004aa04     pjsip-core-x86_64-x64-vc14-release:sip_transaction.obj
 0002:0000aa1c       $chain$7$pjsip_tsx_layer_init_module 000000014004aa1c     pjsip-core-x86_64-x64-vc14-release:sip_transaction.obj
 0002:0000aa1c       $chain$5$pjsip_tsx_layer_init_module 000000014004aa1c     pjsip-core-x86_64-x64-vc14-release:sip_transaction.obj
 0002:0000aa34       $unwind$pjsip_tsx_create_uac2 000000014004aa34     pjsip-core-x86_64-x64-vc14-release:sip_transaction.obj
 0002:0000aa44       $chain$0$pjsip_tsx_create_uac2 000000014004aa44     pjsip-core-x86_64-x64-vc14-release:sip_transaction.obj
 0002:0000aa58       $chain$2$pjsip_tsx_create_uac2 000000014004aa58     pjsip-core-x86_64-x64-vc14-release:sip_transaction.obj
 0002:0000aa6c       $chain$4$pjsip_tsx_create_uac2 000000014004aa6c     pjsip-core-x86_64-x64-vc14-release:sip_transaction.obj
 0002:0000aa84       $chain$5$pjsip_tsx_create_uac2 000000014004aa84     pjsip-core-x86_64-x64-vc14-release:sip_transaction.obj
 0002:0000aa94       $chain$6$pjsip_tsx_create_uac2 000000014004aa94     pjsip-core-x86_64-x64-vc14-release:sip_transaction.obj
 0002:0000aaa4       $unwind$pjsip_tsx_create_uas2 000000014004aaa4     pjsip-core-x86_64-x64-vc14-release:sip_transaction.obj
 0002:0000aab4       $chain$0$pjsip_tsx_create_uas2 000000014004aab4     pjsip-core-x86_64-x64-vc14-release:sip_transaction.obj
 0002:0000aac8       $chain$1$pjsip_tsx_create_uas2 000000014004aac8     pjsip-core-x86_64-x64-vc14-release:sip_transaction.obj
 0002:0000aadc       $chain$2$pjsip_tsx_create_uas2 000000014004aadc     pjsip-core-x86_64-x64-vc14-release:sip_transaction.obj
 0002:0000aaec       $chain$4$pjsip_tsx_create_uas2 000000014004aaec     pjsip-core-x86_64-x64-vc14-release:sip_transaction.obj
 0002:0000ab04       $chain$5$pjsip_tsx_create_uas2 000000014004ab04     pjsip-core-x86_64-x64-vc14-release:sip_transaction.obj
 0002:0000ab14       $chain$0$pjsip_tsx_set_transport 000000014004ab14     pjsip-core-x86_64-x64-vc14-release:sip_transaction.obj
 0002:0000ab28       $chain$1$pjsip_tsx_set_transport 000000014004ab28     pjsip-core-x86_64-x64-vc14-release:sip_transaction.obj
 0002:0000ab38       $unwind$pjsip_tsx_recv_msg 000000014004ab38     pjsip-core-x86_64-x64-vc14-release:sip_transaction.obj
 0002:0000ab44       $chain$1$pjsip_tsx_recv_msg 000000014004ab44     pjsip-core-x86_64-x64-vc14-release:sip_transaction.obj
 0002:0000ab5c       $chain$2$pjsip_tsx_recv_msg 000000014004ab5c     pjsip-core-x86_64-x64-vc14-release:sip_transaction.obj
 0002:0000ab6c       $unwind$pjsip_tsx_send_msg 000000014004ab6c     pjsip-core-x86_64-x64-vc14-release:sip_transaction.obj
 0002:0000ab7c       $chain$1$pjsip_tsx_send_msg 000000014004ab7c     pjsip-core-x86_64-x64-vc14-release:sip_transaction.obj
 0002:0000ab90       $chain$2$pjsip_tsx_send_msg 000000014004ab90     pjsip-core-x86_64-x64-vc14-release:sip_transaction.obj
 0002:0000aba0       $unwind$pjsip_tsx_create_key 000000014004aba0     pjsip-core-x86_64-x64-vc14-release:sip_transaction.obj
 0002:0000abb8       $chain$0$pjsip_tsx_set_timeout 000000014004abb8     pjsip-core-x86_64-x64-vc14-release:sip_transaction.obj
 0002:0000abcc       $chain$1$pjsip_tsx_set_timeout 000000014004abcc     pjsip-core-x86_64-x64-vc14-release:sip_transaction.obj
 0002:0000abdc       $chain$0$mod_tsx_layer_stop 000000014004abdc     pjsip-core-x86_64-x64-vc14-release:sip_transaction.obj
 0002:0000abf0       $chain$2$mod_tsx_layer_stop 000000014004abf0     pjsip-core-x86_64-x64-vc14-release:sip_transaction.obj
 0002:0000ac08       $chain$3$mod_tsx_layer_stop 000000014004ac08     pjsip-core-x86_64-x64-vc14-release:sip_transaction.obj
 0002:0000ac18       $chain$4$mod_tsx_layer_stop 000000014004ac18     pjsip-core-x86_64-x64-vc14-release:sip_transaction.obj
 0002:0000ac28       $unwind$tsx_on_state_null  000000014004ac28     pjsip-core-x86_64-x64-vc14-release:sip_transaction.obj
 0002:0000ac38       $chain$0$tsx_on_state_null 000000014004ac38     pjsip-core-x86_64-x64-vc14-release:sip_transaction.obj
 0002:0000ac4c       $chain$1$tsx_on_state_null 000000014004ac4c     pjsip-core-x86_64-x64-vc14-release:sip_transaction.obj
 0002:0000ac5c       $unwind$tsx_on_state_trying 000000014004ac5c     pjsip-core-x86_64-x64-vc14-release:sip_transaction.obj
 0002:0000ac6c       $unwind$tsx_on_state_proceeding_uas 000000014004ac6c     pjsip-core-x86_64-x64-vc14-release:sip_transaction.obj
 0002:0000ac7c       $chain$0$tsx_on_state_proceeding_uas 000000014004ac7c     pjsip-core-x86_64-x64-vc14-release:sip_transaction.obj
 0002:0000ac90       $chain$7$tsx_on_state_proceeding_uas 000000014004ac90     pjsip-core-x86_64-x64-vc14-release:sip_transaction.obj
 0002:0000ac90       $chain$1$tsx_on_state_proceeding_uas 000000014004ac90     pjsip-core-x86_64-x64-vc14-release:sip_transaction.obj
 0002:0000aca0       $chain$2$tsx_on_state_proceeding_uas 000000014004aca0     pjsip-core-x86_64-x64-vc14-release:sip_transaction.obj
 0002:0000acb4       $chain$4$tsx_on_state_proceeding_uas 000000014004acb4     pjsip-core-x86_64-x64-vc14-release:sip_transaction.obj
 0002:0000accc       $chain$5$tsx_on_state_proceeding_uas 000000014004accc     pjsip-core-x86_64-x64-vc14-release:sip_transaction.obj
 0002:0000ace0       $chain$6$tsx_on_state_proceeding_uas 000000014004ace0     pjsip-core-x86_64-x64-vc14-release:sip_transaction.obj
 0002:0000acf0       $unwind$tsx_on_state_proceeding_uac 000000014004acf0     pjsip-core-x86_64-x64-vc14-release:sip_transaction.obj
 0002:0000ad0c       $unwind$tsx_on_state_completed_uas 000000014004ad0c     pjsip-core-x86_64-x64-vc14-release:sip_transaction.obj
 0002:0000ad18       $chain$0$tsx_on_state_completed_uas 000000014004ad18     pjsip-core-x86_64-x64-vc14-release:sip_transaction.obj
 0002:0000ad2c       $chain$1$tsx_on_state_completed_uas 000000014004ad2c     pjsip-core-x86_64-x64-vc14-release:sip_transaction.obj
 0002:0000ad3c       $unwind$tsx_timer_callback 000000014004ad3c     pjsip-core-x86_64-x64-vc14-release:sip_transaction.obj
 0002:0000ad54       $chain$0$tsx_timer_callback 000000014004ad54     pjsip-core-x86_64-x64-vc14-release:sip_transaction.obj
 0002:0000ad68       $chain$1$tsx_timer_callback 000000014004ad68     pjsip-core-x86_64-x64-vc14-release:sip_transaction.obj
 0002:0000ad78       $unwind$tsx_tp_state_callback 000000014004ad78     pjsip-core-x86_64-x64-vc14-release:sip_transaction.obj
 0002:0000ad80       $chain$0$tsx_tp_state_callback 000000014004ad80     pjsip-core-x86_64-x64-vc14-release:sip_transaction.obj
 0002:0000ad94       $chain$1$tsx_tp_state_callback 000000014004ad94     pjsip-core-x86_64-x64-vc14-release:sip_transaction.obj
 0002:0000ada4       $unwind$tsx_set_state      000000014004ada4     pjsip-core-x86_64-x64-vc14-release:sip_transaction.obj
 0002:0000adbc       $unwind$tsx_create         000000014004adbc     pjsip-core-x86_64-x64-vc14-release:sip_transaction.obj
 0002:0000add4       $unwind$tsx_resched_retransmission 000000014004add4     pjsip-core-x86_64-x64-vc14-release:sip_transaction.obj
 0002:0000add4       $unwind$tcp_init_shutdown  000000014004add4     pjsip-core-x86_64-x64-vc14-release:sip_transport_tcp.obj
 0002:0000add4       $unwind$pjsip_transport_destroy 000000014004add4     pjsip-core-x86_64-x64-vc14-release:sip_transport.obj
 0002:0000add4       $unwind$parse_generic_string_hdr 000000014004add4     pjsip-core-x86_64-x64-vc14-release:sip_parser.obj
 0002:0000add4       $unwind$pjmedia_sdp_transport_get_proto 000000014004add4     pjmedia-x86_64-x64-vc14-release:sdp.obj
 0002:0000addc       $unwind$tsx_send_msg       000000014004addc     pjsip-core-x86_64-x64-vc14-release:sip_transaction.obj
 0002:0000adf8       $unwind$tsx_update_transport 000000014004adf8     pjsip-core-x86_64-x64-vc14-release:sip_transaction.obj
 0002:0000ae04       $unwind$create_tsx_key_2543 000000014004ae04     pjsip-core-x86_64-x64-vc14-release:sip_transaction.obj
 0002:0000ae18       $chain$2$create_tsx_key_2543 000000014004ae18     pjsip-core-x86_64-x64-vc14-release:sip_transaction.obj
 0002:0000ae30       $chain$3$create_tsx_key_2543 000000014004ae30     pjsip-core-x86_64-x64-vc14-release:sip_transaction.obj
 0002:0000ae40       $unwind$pjmedia_sdp_neg_create_w_remote_offer 000000014004ae40     pjmedia-x86_64-x64-vc14-release:sdp_neg.obj
 0002:0000ae40       $unwind$create_tsx_key_3261 000000014004ae40     pjsip-core-x86_64-x64-vc14-release:sip_transaction.obj
 0002:0000ae54       $chain$0$create_tsx_key_3261 000000014004ae54     pjsip-core-x86_64-x64-vc14-release:sip_transaction.obj
 0002:0000ae68       $chain$1$create_tsx_key_3261 000000014004ae68     pjsip-core-x86_64-x64-vc14-release:sip_transaction.obj
 0002:0000ae78       $unwind$send_msg_callback  000000014004ae78     pjsip-core-x86_64-x64-vc14-release:sip_transaction.obj
 0002:0000ae98       $unwind$inv_respond_incoming_bye 000000014004ae98     pjsip-ua-x86_64-x64-vc14-release:sip_inv.obj
 0002:0000ae98       $unwind$transport_callback 000000014004ae98     pjsip-core-x86_64-x64-vc14-release:sip_transaction.obj
 0002:0000aea8       $chain$1$pjsip_ua_register_dlg 000000014004aea8     pjsip-core-x86_64-x64-vc14-release:sip_ua_layer.obj
 0002:0000aec0       $chain$3$pjsip_ua_register_dlg 000000014004aec0     pjsip-core-x86_64-x64-vc14-release:sip_ua_layer.obj
 0002:0000aed4       $chain$4$pjsip_ua_register_dlg 000000014004aed4     pjsip-core-x86_64-x64-vc14-release:sip_ua_layer.obj
 0002:0000aee4       $chain$1$pjsip_ua_unregister_dlg 000000014004aee4     pjsip-core-x86_64-x64-vc14-release:sip_ua_layer.obj
 0002:0000aefc       $chain$3$pjsip_ua_unregister_dlg 000000014004aefc     pjsip-core-x86_64-x64-vc14-release:sip_ua_layer.obj
 0002:0000af14       $chain$4$pjsip_ua_unregister_dlg 000000014004af14     pjsip-core-x86_64-x64-vc14-release:sip_ua_layer.obj
 0002:0000af24       $unwind$mod_ua_on_rx_request 000000014004af24     pjsip-core-x86_64-x64-vc14-release:sip_ua_layer.obj
 0002:0000af2c       $chain$3$mod_ua_on_rx_request 000000014004af2c     pjsip-core-x86_64-x64-vc14-release:sip_ua_layer.obj
 0002:0000af4c       $chain$5$mod_ua_on_rx_request 000000014004af4c     pjsip-core-x86_64-x64-vc14-release:sip_ua_layer.obj
 0002:0000af6c       $unwind$mod_ua_on_rx_response 000000014004af6c     pjsip-core-x86_64-x64-vc14-release:sip_ua_layer.obj
 0002:0000af84       $chain$1$find_dlg_set_for_msg 000000014004af84     pjsip-core-x86_64-x64-vc14-release:sip_ua_layer.obj
 0002:0000af9c       $chain$3$find_dlg_set_for_msg 000000014004af9c     pjsip-core-x86_64-x64-vc14-release:sip_ua_layer.obj
 0002:0000afb4       $chain$4$find_dlg_set_for_msg 000000014004afb4     pjsip-core-x86_64-x64-vc14-release:sip_ua_layer.obj
 0002:0000afc4       $unwind$pjsip_method_creates_dialog 000000014004afc4     pjsip-core-x86_64-x64-vc14-release:sip_dialog.obj
 0002:0000afcc       $unwind$pjsip_dlg_create_uac 000000014004afcc     pjsip-core-x86_64-x64-vc14-release:sip_dialog.obj
 0002:0000afe0       $unwind$pjsip_dlg_create_uac2 000000014004afe0     pjsip-core-x86_64-x64-vc14-release:sip_dialog.obj
 0002:0000afec       $chain$4$pjsip_dlg_create_uac2 000000014004afec     pjsip-core-x86_64-x64-vc14-release:sip_dialog.obj
 0002:0000b010       $chain$7$pjsip_dlg_create_uac2 000000014004b010     pjsip-core-x86_64-x64-vc14-release:sip_dialog.obj
 0002:0000b010       $chain$5$pjsip_dlg_create_uac2 000000014004b010     pjsip-core-x86_64-x64-vc14-release:sip_dialog.obj
 0002:0000b020       $chain$6$pjsip_dlg_create_uac2 000000014004b020     pjsip-core-x86_64-x64-vc14-release:sip_dialog.obj
 0002:0000b044       $unwind$pjsip_dlg_add_usage 000000014004b044     pjsip-core-x86_64-x64-vc14-release:sip_dialog.obj
 0002:0000b050       $unwind$send_ack_callback  000000014004b050     pjsip-core-x86_64-x64-vc14-release:sip_dialog.obj
 0002:0000b050       $unwind$pjsip_dlg_dec_lock 000000014004b050     pjsip-core-x86_64-x64-vc14-release:sip_dialog.obj
 0002:0000b058       $unwind$pjsip_dlg_create_request 000000014004b058     pjsip-core-x86_64-x64-vc14-release:sip_dialog.obj
 0002:0000b06c       $unwind$pjsip_dlg_send_request 000000014004b06c     pjsip-core-x86_64-x64-vc14-release:sip_dialog.obj
 0002:0000b080       $unwind$pjsip_dlg_create_response 000000014004b080     pjsip-core-x86_64-x64-vc14-release:sip_dialog.obj
 0002:0000b08c       $chain$0$pjsip_dlg_create_response 000000014004b08c     pjsip-core-x86_64-x64-vc14-release:sip_dialog.obj
 0002:0000b0a0       $chain$1$pjsip_dlg_create_response 000000014004b0a0     pjsip-core-x86_64-x64-vc14-release:sip_dialog.obj
 0002:0000b0b0       $unwind$se_hdr_clone       000000014004b0b0     pjsip-ua-x86_64-x64-vc14-release:sip_timer.obj
 0002:0000b0b0       $unwind$parse_hdr_require  000000014004b0b0     pjsip-core-x86_64-x64-vc14-release:sip_parser.obj
 0002:0000b0b0       $unwind$pj_strtrim         000000014004b0b0     pjlib-x86_64-x64-vc14-release:string.obj
 0002:0000b0b0       $unwind$pjsip_dlg_modify_response 000000014004b0b0     pjsip-core-x86_64-x64-vc14-release:sip_dialog.obj
 0002:0000b0b0       $unwind$pj_sock_recv       000000014004b0b0     pjlib-x86_64-x64-vc14-release:sock_bsd.obj
 0002:0000b0b0       $unwind$pj_list_search     000000014004b0b0     pjlib-x86_64-x64-vc14-release:list.obj
 0002:0000b0b0       $unwind$pj_sock_accept     000000014004b0b0     pjlib-x86_64-x64-vc14-release:sock_bsd.obj
 0002:0000b0b0       $unwind$pjsip_retry_after_hdr_clone 000000014004b0b0     pjsip-core-x86_64-x64-vc14-release:sip_msg.obj
 0002:0000b0b0       $unwind$parse_hdr_supported 000000014004b0b0     pjsip-core-x86_64-x64-vc14-release:sip_parser.obj
 0002:0000b0b0       $unwind$pjsip_www_authenticate_hdr_clone 000000014004b0b0     pjsip-core-x86_64-x64-vc14-release:sip_auth_msg.obj
 0002:0000b0b0       $unwind$pj_utoa_pad        000000014004b0b0     pjlib-x86_64-x64-vc14-release:string.obj
 0002:0000b0b0       $unwind$grp_lock_tryacquire 000000014004b0b0     pjlib-x86_64-x64-vc14-release:lock.obj
 0002:0000b0b0       $unwind$pjsip_dlg_on_tsx_state 000000014004b0b0     pjsip-core-x86_64-x64-vc14-release:sip_dialog.obj
 0002:0000b0b0       $unwind$pj_strtok2         000000014004b0b0     pjlib-x86_64-x64-vc14-release:string.obj
 0002:0000b0b0       $unwind$find_uri_handler   000000014004b0b0     pjsip-core-x86_64-x64-vc14-release:sip_parser.obj
 0002:0000b0b0       $unwind$tel_uri_clone      000000014004b0b0     pjsip-core-x86_64-x64-vc14-release:sip_tel_uri.obj
 0002:0000b0b0       $unwind$pjsip_routing_hdr_clone 000000014004b0b0     pjsip-core-x86_64-x64-vc14-release:sip_msg.obj
 0002:0000b0b0       $unwind$int_parse_hdr_authenticate 000000014004b0b0     pjsip-core-x86_64-x64-vc14-release:sip_auth_parser.obj
 0002:0000b0b0       $unwind$pjsip_param_shallow_clone 000000014004b0b0     pjsip-core-x86_64-x64-vc14-release:sip_uri.obj
 0002:0000b0b0       $unwind$pjsip_authorization_hdr_clone 000000014004b0b0     pjsip-core-x86_64-x64-vc14-release:sip_auth_msg.obj
 0002:0000b0b0       $unwind$other_uri_print    000000014004b0b0     pjsip-core-x86_64-x64-vc14-release:sip_uri.obj
 0002:0000b0b0       $unwind$pj_pool_init_int   000000014004b0b0     pjlib-x86_64-x64-vc14-release:pool.obj
 0002:0000b0b0       $unwind$pjsip_get_response_addr 000000014004b0b0     pjsip-core-x86_64-x64-vc14-release:sip_util.obj
 0002:0000b0b0       $unwind$on_data_read       000000014004b0b0     pjsip-core-x86_64-x64-vc14-release:sip_transport_tcp.obj
 0002:0000b0b0       $unwind$pjsip_get_dest_info 000000014004b0b0     pjsip-core-x86_64-x64-vc14-release:sip_util.obj
 0002:0000b0b0       $unwind$pjsip_generic_array_hdr_clone 000000014004b0b0     pjsip-core-x86_64-x64-vc14-release:sip_msg.obj
 0002:0000b0b0       $unwind$pj_grp_lock_add_handler 000000014004b0b0     pjlib-x86_64-x64-vc14-release:lock.obj
 0002:0000b0b0       $unwind$int_parse_hdr_authorization 000000014004b0b0     pjsip-core-x86_64-x64-vc14-release:sip_auth_parser.obj
 0002:0000b0b0       $unwind$pj_sock_send       000000014004b0b0     pjlib-x86_64-x64-vc14-release:sock_bsd.obj
 0002:0000b0c4       $unwind$pjsip_dlg_get_remote_cap_hdr 000000014004b0c4     pjsip-core-x86_64-x64-vc14-release:sip_dialog.obj
 0002:0000b0c4       $unwind$pjsip_endpt_add_capability 000000014004b0c4     pjsip-core-x86_64-x64-vc14-release:sip_endpoint.obj
 0002:0000b0d4       $chain$1$pjsip_dlg_get_remote_cap_hdr 000000014004b0d4     pjsip-core-x86_64-x64-vc14-release:sip_dialog.obj
 0002:0000b0ec       $chain$3$pjsip_dlg_get_remote_cap_hdr 000000014004b0ec     pjsip-core-x86_64-x64-vc14-release:sip_dialog.obj
 0002:0000b104       $chain$4$pjsip_dlg_set_remote_cap_hdr 000000014004b104     pjsip-core-x86_64-x64-vc14-release:sip_dialog.obj
 0002:0000b128       $chain$5$pjsip_dlg_set_remote_cap_hdr 000000014004b128     pjsip-core-x86_64-x64-vc14-release:sip_dialog.obj
 0002:0000b138       $unwind$pjsip_dlg_update_remote_cap 000000014004b138     pjsip-core-x86_64-x64-vc14-release:sip_dialog.obj
 0002:0000b150       $chain$3$pjsip_dlg_update_remote_cap 000000014004b150     pjsip-core-x86_64-x64-vc14-release:sip_dialog.obj
 0002:0000b170       $chain$5$pjsip_dlg_update_remote_cap 000000014004b170     pjsip-core-x86_64-x64-vc14-release:sip_dialog.obj
 0002:0000b190       $chain$4$pjsip_dlg_update_remote_cap 000000014004b190     pjsip-core-x86_64-x64-vc14-release:sip_dialog.obj
 0002:0000b190       $chain$6$pjsip_dlg_update_remote_cap 000000014004b190     pjsip-core-x86_64-x64-vc14-release:sip_dialog.obj
 0002:0000b1a0       $unwind$pjsip_dlg_on_rx_request 000000014004b1a0     pjsip-core-x86_64-x64-vc14-release:sip_dialog.obj
 0002:0000b1b8       $chain$0$pjsip_dlg_on_rx_request 000000014004b1b8     pjsip-core-x86_64-x64-vc14-release:sip_dialog.obj
 0002:0000b1cc       $chain$1$pjsip_dlg_on_rx_request 000000014004b1cc     pjsip-core-x86_64-x64-vc14-release:sip_dialog.obj
 0002:0000b1dc       $unwind$pjsip_dlg_on_rx_response 000000014004b1dc     pjsip-core-x86_64-x64-vc14-release:sip_dialog.obj
 0002:0000b1e8       $chain$0$pjsip_dlg_on_rx_response 000000014004b1e8     pjsip-core-x86_64-x64-vc14-release:sip_dialog.obj
 0002:0000b1fc       $chain$1$pjsip_dlg_on_rx_response 000000014004b1fc     pjsip-core-x86_64-x64-vc14-release:sip_dialog.obj
 0002:0000b210       $chain$2$pjsip_dlg_on_rx_response 000000014004b210     pjsip-core-x86_64-x64-vc14-release:sip_dialog.obj
 0002:0000b220       $chain$3$pjsip_dlg_on_rx_response 000000014004b220     pjsip-core-x86_64-x64-vc14-release:sip_dialog.obj
 0002:0000b230       $unwind$create_dialog      000000014004b230     pjsip-core-x86_64-x64-vc14-release:sip_dialog.obj
 0002:0000b244       $chain$1$create_dialog     000000014004b244     pjsip-core-x86_64-x64-vc14-release:sip_dialog.obj
 0002:0000b258       $chain$2$create_dialog     000000014004b258     pjsip-core-x86_64-x64-vc14-release:sip_dialog.obj
 0002:0000b26c       $chain$3$create_dialog     000000014004b26c     pjsip-core-x86_64-x64-vc14-release:sip_dialog.obj
 0002:0000b27c       $chain$4$create_dialog     000000014004b27c     pjsip-core-x86_64-x64-vc14-release:sip_dialog.obj
 0002:0000b28c       $unwind$create_uas_dialog  000000014004b28c     pjsip-core-x86_64-x64-vc14-release:sip_dialog.obj
 0002:0000b2a0       $chain$1$create_uas_dialog 000000014004b2a0     pjsip-core-x86_64-x64-vc14-release:sip_dialog.obj
 0002:0000b2b8       $chain$4$create_uas_dialog 000000014004b2b8     pjsip-core-x86_64-x64-vc14-release:sip_dialog.obj
 0002:0000b2b8       $chain$2$create_uas_dialog 000000014004b2b8     pjsip-core-x86_64-x64-vc14-release:sip_dialog.obj
 0002:0000b2c8       $chain$3$create_uas_dialog 000000014004b2c8     pjsip-core-x86_64-x64-vc14-release:sip_dialog.obj
 0002:0000b2e0       $unwind$dlg_create_request_throw 000000014004b2e0     pjsip-core-x86_64-x64-vc14-release:sip_dialog.obj
 0002:0000b2f0       $chain$1$dlg_create_request_throw 000000014004b2f0     pjsip-core-x86_64-x64-vc14-release:sip_dialog.obj
 0002:0000b308       $chain$2$dlg_create_request_throw 000000014004b308     pjsip-core-x86_64-x64-vc14-release:sip_dialog.obj
 0002:0000b318       $unwind$dlg_update_routeset 000000014004b318     pjsip-core-x86_64-x64-vc14-release:sip_dialog.obj
 0002:0000b324       $chain$2$dlg_update_routeset 000000014004b324     pjsip-core-x86_64-x64-vc14-release:sip_dialog.obj
 0002:0000b340       $chain$3$dlg_update_routeset 000000014004b340     pjsip-core-x86_64-x64-vc14-release:sip_dialog.obj
 0002:0000b354       $chain$4$dlg_update_routeset 000000014004b354     pjsip-core-x86_64-x64-vc14-release:sip_dialog.obj
 0002:0000b364       $chain$5$dlg_update_routeset 000000014004b364     pjsip-core-x86_64-x64-vc14-release:sip_dialog.obj
 0002:0000b374       $chain$1$pjsip_auth_clt_deinit 000000014004b374     pjsip-core-x86_64-x64-vc14-release:sip_auth_client.obj
 0002:0000b38c       $chain$2$pjsip_auth_clt_deinit 000000014004b38c     pjsip-core-x86_64-x64-vc14-release:sip_auth_client.obj
 0002:0000b39c       $unwind$pjsip_auth_clt_init_req 000000014004b39c     pjsip-core-x86_64-x64-vc14-release:sip_auth_client.obj
 0002:0000b3a8       $chain$1$pjsip_auth_clt_init_req 000000014004b3a8     pjsip-core-x86_64-x64-vc14-release:sip_auth_client.obj
 0002:0000b3c0       $chain$3$pjsip_auth_clt_init_req 000000014004b3c0     pjsip-core-x86_64-x64-vc14-release:sip_auth_client.obj
 0002:0000b3d8       $chain$4$pjsip_auth_clt_init_req 000000014004b3d8     pjsip-core-x86_64-x64-vc14-release:sip_auth_client.obj
 0002:0000b3e8       $chain$6$pjsip_auth_clt_init_req 000000014004b3e8     pjsip-core-x86_64-x64-vc14-release:sip_auth_client.obj
 0002:0000b400       $chain$7$pjsip_auth_clt_init_req 000000014004b400     pjsip-core-x86_64-x64-vc14-release:sip_auth_client.obj
 0002:0000b410       $unwind$pjsip_auth_clt_reinit_req 000000014004b410     pjsip-core-x86_64-x64-vc14-release:sip_auth_client.obj
 0002:0000b420       $chain$3$pjsip_auth_clt_reinit_req 000000014004b420     pjsip-core-x86_64-x64-vc14-release:sip_auth_client.obj
 0002:0000b440       $chain$5$pjsip_auth_clt_reinit_req 000000014004b440     pjsip-core-x86_64-x64-vc14-release:sip_auth_client.obj
 0002:0000b460       $chain$6$pjsip_auth_clt_reinit_req 000000014004b460     pjsip-core-x86_64-x64-vc14-release:sip_auth_client.obj
 0002:0000b470       $unwind$pjsip_auth_create_digest 000000014004b470     pjsip-core-x86_64-x64-vc14-release:sip_auth_client.obj
 0002:0000b490       $unwind$respond_digest     000000014004b490     pjsip-core-x86_64-x64-vc14-release:sip_auth_client.obj
 0002:0000b4ac       $chain$0$update_digest_session 000000014004b4ac     pjsip-core-x86_64-x64-vc14-release:sip_auth_client.obj
 0002:0000b4c0       $chain$2$update_digest_session 000000014004b4c0     pjsip-core-x86_64-x64-vc14-release:sip_auth_client.obj
 0002:0000b4c0       $chain$4$update_digest_session 000000014004b4c0     pjsip-core-x86_64-x64-vc14-release:sip_auth_client.obj
 0002:0000b4d4       $chain$5$update_digest_session 000000014004b4d4     pjsip-core-x86_64-x64-vc14-release:sip_auth_client.obj
 0002:0000b4e4       $unwind$update_media_direction 000000014004b4e4     pjmedia-x86_64-x64-vc14-release:sdp_neg.obj
 0002:0000b4e4       $unwind$alloc_qnode        000000014004b4e4     pjlib-util-x86_64-x64-vc14-release:resolver.obj
 0002:0000b4e4       $unwind$endpt_on_tx_msg    000000014004b4e4     pjsip-core-x86_64-x64-vc14-release:sip_endpoint.obj
 0002:0000b4e4       $unwind$pjsip_dlg_remote_has_cap 000000014004b4e4     pjsip-core-x86_64-x64-vc14-release:sip_dialog.obj
 0002:0000b4e4       $unwind$pjsip_tel_nb_cmp   000000014004b4e4     pjsip-core-x86_64-x64-vc14-release:sip_tel_uri.obj
 0002:0000b4e4       $unwind$dlg_beautify_response 000000014004b4e4     pjsip-core-x86_64-x64-vc14-release:sip_dialog.obj
 0002:0000b4e4       $unwind$pj_grp_lock_create_w_handler 000000014004b4e4     pjlib-x86_64-x64-vc14-release:lock.obj
 0002:0000b4e4       $unwind$init_res_key       000000014004b4e4     pjlib-util-x86_64-x64-vc14-release:resolver.obj
 0002:0000b4e4       $unwind$auth_find_cred     000000014004b4e4     pjsip-core-x86_64-x64-vc14-release:sip_auth_client.obj
 0002:0000b4fc       $unwind$auth_respond       000000014004b4fc     pjsip-core-x86_64-x64-vc14-release:sip_auth_client.obj
 0002:0000b518       $chain$0$auth_respond      000000014004b518     pjsip-core-x86_64-x64-vc14-release:sip_auth_client.obj
 0002:0000b52c       $chain$2$auth_respond      000000014004b52c     pjsip-core-x86_64-x64-vc14-release:sip_auth_client.obj
 0002:0000b540       $chain$3$auth_respond      000000014004b540     pjsip-core-x86_64-x64-vc14-release:sip_auth_client.obj
 0002:0000b540       $chain$1$auth_respond      000000014004b540     pjsip-core-x86_64-x64-vc14-release:sip_auth_client.obj
 0002:0000b550       $chain$0$recreate_cached_auth_pool 000000014004b550     pjsip-core-x86_64-x64-vc14-release:sip_auth_client.obj
 0002:0000b564       $chain$1$recreate_cached_auth_pool 000000014004b564     pjsip-core-x86_64-x64-vc14-release:sip_auth_client.obj
 0002:0000b574       $unwind$process_auth       000000014004b574     pjsip-core-x86_64-x64-vc14-release:sip_auth_client.obj
 0002:0000b58c       $chain$0$process_auth      000000014004b58c     pjsip-core-x86_64-x64-vc14-release:sip_auth_client.obj
 0002:0000b5a0       $chain$1$process_auth      000000014004b5a0     pjsip-core-x86_64-x64-vc14-release:sip_auth_client.obj
 0002:0000b5b0       $unwind$pjsip_register_hdr_parser 000000014004b5b0     pjsip-core-x86_64-x64-vc14-release:sip_parser.obj
 0002:0000b5c8       $chain$0$pjsip_register_hdr_parser 000000014004b5c8     pjsip-core-x86_64-x64-vc14-release:sip_parser.obj
 0002:0000b5dc       $chain$1$pjsip_register_hdr_parser 000000014004b5dc     pjsip-core-x86_64-x64-vc14-release:sip_parser.obj
 0002:0000b5f0       $chain$2$pjsip_register_hdr_parser 000000014004b5f0     pjsip-core-x86_64-x64-vc14-release:sip_parser.obj
 0002:0000b600       $chain$3$pjsip_register_hdr_parser 000000014004b600     pjsip-core-x86_64-x64-vc14-release:sip_parser.obj
 0002:0000b610       $unwind$pjsip_parse_uri    000000014004b610     pjsip-core-x86_64-x64-vc14-release:sip_parser.obj
 0002:0000b624       $unwind$pjsip_parse_rdata  000000014004b624     pjsip-core-x86_64-x64-vc14-release:sip_parser.obj
 0002:0000b62c       $unwind$pjsip_find_msg     000000014004b62c     pjsip-core-x86_64-x64-vc14-release:sip_parser.obj
 0002:0000b644       $unwind$pjsip_parse_hdr    000000014004b644     pjsip-core-x86_64-x64-vc14-release:sip_parser.obj
 0002:0000b65c       $unwind$pjsip_parse_headers 000000014004b65c     pjsip-core-x86_64-x64-vc14-release:sip_parser.obj
 0002:0000b674       $unwind$int_parse_msg      000000014004b674     pjsip-core-x86_64-x64-vc14-release:sip_parser.obj
 0002:0000b694       $unwind$int_parse_sip_url  000000014004b694     pjsip-core-x86_64-x64-vc14-release:sip_parser.obj
 0002:0000b6a8       $chain$0$int_parse_sip_url 000000014004b6a8     pjsip-core-x86_64-x64-vc14-release:sip_parser.obj
 0002:0000b6bc       $chain$1$int_parse_sip_url 000000014004b6bc     pjsip-core-x86_64-x64-vc14-release:sip_parser.obj
 0002:0000b6cc       $chain$2$int_parse_sip_url 000000014004b6cc     pjsip-core-x86_64-x64-vc14-release:sip_parser.obj
 0002:0000b6e0       $unwind$parse_hdr_contact  000000014004b6e0     pjsip-core-x86_64-x64-vc14-release:sip_parser.obj
 0002:0000b6fc       $unwind$parse_hdr_content_type 000000014004b6fc     pjsip-core-x86_64-x64-vc14-release:sip_parser.obj
 0002:0000b704       $chain$1$parse_hdr_content_type 000000014004b704     pjsip-core-x86_64-x64-vc14-release:sip_parser.obj
 0002:0000b71c       $chain$5$parse_hdr_content_type 000000014004b71c     pjsip-core-x86_64-x64-vc14-release:sip_parser.obj
 0002:0000b73c       $chain$6$parse_hdr_content_type 000000014004b73c     pjsip-core-x86_64-x64-vc14-release:sip_parser.obj
 0002:0000b74c       $chain$7$parse_hdr_content_type 000000014004b74c     pjsip-core-x86_64-x64-vc14-release:sip_parser.obj
 0002:0000b760       $chain$8$parse_hdr_content_type 000000014004b760     pjsip-core-x86_64-x64-vc14-release:sip_parser.obj
 0002:0000b770       $unwind$pjsip_tsx_set_timeout 000000014004b770     pjsip-core-x86_64-x64-vc14-release:sip_transaction.obj
 0002:0000b770       $unwind$parse_hdr_cseq     000000014004b770     pjsip-core-x86_64-x64-vc14-release:sip_parser.obj
 0002:0000b77c       $chain$0$parse_hdr_cseq    000000014004b77c     pjsip-core-x86_64-x64-vc14-release:sip_parser.obj
 0002:0000b790       $chain$1$parse_hdr_cseq    000000014004b790     pjsip-core-x86_64-x64-vc14-release:sip_parser.obj
 0002:0000b7a0       $unwind$pjsip_ctype_hdr_print 000000014004b7a0     pjsip-core-x86_64-x64-vc14-release:sip_msg.obj
 0002:0000b7a0       $unwind$pj_scan_init       000000014004b7a0     pjlib-util-x86_64-x64-vc14-release:scanner.obj
 0002:0000b7a0       $unwind$parse_hdr_route    000000014004b7a0     pjsip-core-x86_64-x64-vc14-release:sip_parser.obj
 0002:0000b7a0       $unwind$parse_hdr_rr       000000014004b7a0     pjsip-core-x86_64-x64-vc14-release:sip_parser.obj
 0002:0000b7b4       $unwind$parse_hdr_retry_after 000000014004b7b4     pjsip-core-x86_64-x64-vc14-release:sip_parser.obj
 0002:0000b7c4       $chain$1$parse_hdr_retry_after 000000014004b7c4     pjsip-core-x86_64-x64-vc14-release:sip_parser.obj
 0002:0000b7dc       $chain$3$parse_hdr_retry_after 000000014004b7dc     pjsip-core-x86_64-x64-vc14-release:sip_parser.obj
 0002:0000b7f0       $chain$4$parse_hdr_retry_after 000000014004b7f0     pjsip-core-x86_64-x64-vc14-release:sip_parser.obj
 0002:0000b808       $chain$5$parse_hdr_retry_after 000000014004b808     pjsip-core-x86_64-x64-vc14-release:sip_parser.obj
 0002:0000b818       $unwind$parse_hdr_via      000000014004b818     pjsip-core-x86_64-x64-vc14-release:sip_parser.obj
 0002:0000b82c       $chain$1$init_parser       000000014004b82c     pjsip-core-x86_64-x64-vc14-release:sip_parser.obj
 0002:0000b844       $chain$3$init_parser       000000014004b844     pjsip-core-x86_64-x64-vc14-release:sip_parser.obj
 0002:0000b85c       $chain$2$init_parser       000000014004b85c     pjsip-core-x86_64-x64-vc14-release:sip_parser.obj
 0002:0000b85c       $chain$4$init_parser       000000014004b85c     pjsip-core-x86_64-x64-vc14-release:sip_parser.obj
 0002:0000b86c       $unwind$int_register_parser 000000014004b86c     pjsip-core-x86_64-x64-vc14-release:sip_parser.obj
 0002:0000b87c       $chain$4$int_register_parser 000000014004b87c     pjsip-core-x86_64-x64-vc14-release:sip_parser.obj
 0002:0000b8a0       $chain$6$int_register_parser 000000014004b8a0     pjsip-core-x86_64-x64-vc14-release:sip_parser.obj
 0002:0000b8c4       $unwind$find_handler       000000014004b8c4     pjsip-core-x86_64-x64-vc14-release:sip_parser.obj
 0002:0000b8d4       $unwind$int_parse_uri      000000014004b8d4     pjsip-core-x86_64-x64-vc14-release:sip_parser.obj
 0002:0000b8e0       $chain$2$int_parse_uri     000000014004b8e0     pjsip-core-x86_64-x64-vc14-release:sip_parser.obj
 0002:0000b8fc       $chain$5$int_parse_uri     000000014004b8fc     pjsip-core-x86_64-x64-vc14-release:sip_parser.obj
 0002:0000b8fc       $chain$3$int_parse_uri     000000014004b8fc     pjsip-core-x86_64-x64-vc14-release:sip_parser.obj
 0002:0000b90c       $chain$4$int_parse_uri     000000014004b90c     pjsip-core-x86_64-x64-vc14-release:sip_parser.obj
 0002:0000b928       $chain$2$parse_generic_string_hdr 000000014004b928     pjsip-core-x86_64-x64-vc14-release:sip_parser.obj
 0002:0000b944       $chain$3$parse_generic_string_hdr 000000014004b944     pjsip-core-x86_64-x64-vc14-release:sip_parser.obj
 0002:0000b958       $chain$4$parse_generic_string_hdr 000000014004b958     pjsip-core-x86_64-x64-vc14-release:sip_parser.obj
 0002:0000b968       $chain$5$parse_generic_string_hdr 000000014004b968     pjsip-core-x86_64-x64-vc14-release:sip_parser.obj
 0002:0000b978       $unwind$int_parse_contact_param 000000014004b978     pjsip-core-x86_64-x64-vc14-release:sip_parser.obj
 0002:0000b988       $chain$2$int_parse_contact_param 000000014004b988     pjsip-core-x86_64-x64-vc14-release:sip_parser.obj
 0002:0000b9a4       $chain$3$int_parse_contact_param 000000014004b9a4     pjsip-core-x86_64-x64-vc14-release:sip_parser.obj
 0002:0000b9b4       $chain$4$int_parse_contact_param 000000014004b9b4     pjsip-core-x86_64-x64-vc14-release:sip_parser.obj
 0002:0000b9d0       $unwind$parse_hdr_fromto   000000014004b9d0     pjsip-core-x86_64-x64-vc14-release:sip_parser.obj
 0002:0000b9e0       $unwind$int_parse_via_param 000000014004b9e0     pjsip-core-x86_64-x64-vc14-release:sip_parser.obj
 0002:0000b9f0       $chain$1$int_parse_via_param 000000014004b9f0     pjsip-core-x86_64-x64-vc14-release:sip_parser.obj
 0002:0000ba08       $chain$2$int_parse_via_param 000000014004ba08     pjsip-core-x86_64-x64-vc14-release:sip_parser.obj
 0002:0000ba18       $chain$3$int_parse_via_param 000000014004ba18     pjsip-core-x86_64-x64-vc14-release:sip_parser.obj
 0002:0000ba30       $unwind$parse_hdr_rr_route 000000014004ba30     pjsip-core-x86_64-x64-vc14-release:sip_parser.obj
 0002:0000ba40       $chain$1$parse_hdr_rr_route 000000014004ba40     pjsip-core-x86_64-x64-vc14-release:sip_parser.obj
 0002:0000ba58       $chain$2$parse_hdr_rr_route 000000014004ba58     pjsip-core-x86_64-x64-vc14-release:sip_parser.obj
 0002:0000ba68       $unwind$pjsip_multipart_create 000000014004ba68     pjsip-core-x86_64-x64-vc14-release:sip_multipart.obj
 0002:0000ba80       $unwind$pj_strstr          000000014004ba80     pjlib-x86_64-x64-vc14-release:string.obj
 0002:0000ba80       $unwind$pjsip_clone_text_data 000000014004ba80     pjsip-core-x86_64-x64-vc14-release:sip_msg.obj
 0002:0000ba80       $unwind$pjsip_multipart_find_part 000000014004ba80     pjsip-core-x86_64-x64-vc14-release:sip_multipart.obj
 0002:0000ba88       $chain$1$pjsip_multipart_find_part 000000014004ba88     pjsip-core-x86_64-x64-vc14-release:sip_multipart.obj
 0002:0000baa0       $chain$3$pjsip_multipart_find_part 000000014004baa0     pjsip-core-x86_64-x64-vc14-release:sip_multipart.obj
 0002:0000bab8       $unwind$pjsip_multipart_parse 000000014004bab8     pjsip-core-x86_64-x64-vc14-release:sip_multipart.obj
 0002:0000bac8       $chain$1$pjsip_multipart_parse 000000014004bac8     pjsip-core-x86_64-x64-vc14-release:sip_multipart.obj
 0002:0000bae0       $chain$2$pjsip_multipart_parse 000000014004bae0     pjsip-core-x86_64-x64-vc14-release:sip_multipart.obj
 0002:0000baf4       $chain$3$pjsip_multipart_parse 000000014004baf4     pjsip-core-x86_64-x64-vc14-release:sip_multipart.obj
 0002:0000bb04       $chain$5$pjsip_multipart_parse 000000014004bb04     pjsip-core-x86_64-x64-vc14-release:sip_multipart.obj
 0002:0000bb20       $chain$6$pjsip_multipart_parse 000000014004bb20     pjsip-core-x86_64-x64-vc14-release:sip_multipart.obj
 0002:0000bb30       $unwind$multipart_print_body 000000014004bb30     pjsip-core-x86_64-x64-vc14-release:sip_multipart.obj
 0002:0000bb48       $chain$3$multipart_print_body 000000014004bb48     pjsip-core-x86_64-x64-vc14-release:sip_multipart.obj
 0002:0000bb68       $chain$6$multipart_print_body 000000014004bb68     pjsip-core-x86_64-x64-vc14-release:sip_multipart.obj
 0002:0000bb68       $chain$4$multipart_print_body 000000014004bb68     pjsip-core-x86_64-x64-vc14-release:sip_multipart.obj
 0002:0000bb78       $chain$5$multipart_print_body 000000014004bb78     pjsip-core-x86_64-x64-vc14-release:sip_multipart.obj
 0002:0000bb98       $unwind$multipart_clone_data 000000014004bb98     pjsip-core-x86_64-x64-vc14-release:sip_multipart.obj
 0002:0000bba8       $chain$2$multipart_clone_data 000000014004bba8     pjsip-core-x86_64-x64-vc14-release:sip_multipart.obj
 0002:0000bbc4       $chain$3$multipart_clone_data 000000014004bbc4     pjsip-core-x86_64-x64-vc14-release:sip_multipart.obj
 0002:0000bbd4       $unwind$pjsip_param_cmp    000000014004bbd4     pjsip-core-x86_64-x64-vc14-release:sip_uri.obj
 0002:0000bbe4       $chain$1$pjsip_param_cmp   000000014004bbe4     pjsip-core-x86_64-x64-vc14-release:sip_uri.obj
 0002:0000bbfc       $chain$3$pjsip_param_cmp   000000014004bbfc     pjsip-core-x86_64-x64-vc14-release:sip_uri.obj
 0002:0000bc14       $chain$0$pjsip_param_clone 000000014004bc14     pjsip-core-x86_64-x64-vc14-release:sip_uri.obj
 0002:0000bc28       $chain$1$pjsip_param_clone 000000014004bc28     pjsip-core-x86_64-x64-vc14-release:sip_uri.obj
 0002:0000bc38       $unwind$pjsip_param_print_on 000000014004bc38     pjsip-core-x86_64-x64-vc14-release:sip_uri.obj
 0002:0000bc48       $chain$3$pjsip_param_print_on 000000014004bc48     pjsip-core-x86_64-x64-vc14-release:sip_uri.obj
 0002:0000bc68       $chain$5$pjsip_param_print_on 000000014004bc68     pjsip-core-x86_64-x64-vc14-release:sip_uri.obj
 0002:0000bc88       $chain$6$pjsip_param_print_on 000000014004bc88     pjsip-core-x86_64-x64-vc14-release:sip_uri.obj
 0002:0000bc98       $unwind$pjsip_name_addr_print 000000014004bc98     pjsip-core-x86_64-x64-vc14-release:sip_uri.obj
 0002:0000bcb4       $unwind$pjsip_url_print    000000014004bcb4     pjsip-core-x86_64-x64-vc14-release:sip_uri.obj
 0002:0000bcd0       $unwind$pjsip_url_clone    000000014004bcd0     pjsip-core-x86_64-x64-vc14-release:sip_uri.obj
 0002:0000bce4       $unwind$pjsip_resolve      000000014004bce4     pjsip-core-x86_64-x64-vc14-release:sip_resolve.obj
 0002:0000bd00       $chain$2$pjsip_resolve     000000014004bd00     pjsip-core-x86_64-x64-vc14-release:sip_resolve.obj
 0002:0000bd1c       $chain$3$pjsip_resolve     000000014004bd1c     pjsip-core-x86_64-x64-vc14-release:sip_resolve.obj
 0002:0000bd2c       $unwind$srv_resolver_cb    000000014004bd2c     pjsip-core-x86_64-x64-vc14-release:sip_resolve.obj
 0002:0000bd44       $chain$0$srv_resolver_cb   000000014004bd44     pjsip-core-x86_64-x64-vc14-release:sip_resolve.obj
 0002:0000bd58       $chain$3$srv_resolver_cb   000000014004bd58     pjsip-core-x86_64-x64-vc14-release:sip_resolve.obj
 0002:0000bd74       $chain$4$srv_resolver_cb   000000014004bd74     pjsip-core-x86_64-x64-vc14-release:sip_resolve.obj
 0002:0000bd84       $chain$5$srv_resolver_cb   000000014004bd84     pjsip-core-x86_64-x64-vc14-release:sip_resolve.obj
 0002:0000bd94       $unwind$dns_a_callback     000000014004bd94     pjsip-core-x86_64-x64-vc14-release:sip_resolve.obj
 0002:0000bda8       $chain$1$dns_a_callback    000000014004bda8     pjsip-core-x86_64-x64-vc14-release:sip_resolve.obj
 0002:0000bdc0       $chain$2$dns_a_callback    000000014004bdc0     pjsip-core-x86_64-x64-vc14-release:sip_resolve.obj
 0002:0000bdd4       $chain$3$dns_a_callback    000000014004bdd4     pjsip-core-x86_64-x64-vc14-release:sip_resolve.obj
 0002:0000bde8       $chain$4$dns_a_callback    000000014004bde8     pjsip-core-x86_64-x64-vc14-release:sip_resolve.obj
 0002:0000bdf8       $chain$5$dns_a_callback    000000014004bdf8     pjsip-core-x86_64-x64-vc14-release:sip_resolve.obj
 0002:0000be08       $chain$6$dns_a_callback    000000014004be08     pjsip-core-x86_64-x64-vc14-release:sip_resolve.obj
 0002:0000be18       $unwind$dns_aaaa_callback  000000014004be18     pjsip-core-x86_64-x64-vc14-release:sip_resolve.obj
 0002:0000be2c       $chain$1$dns_aaaa_callback 000000014004be2c     pjsip-core-x86_64-x64-vc14-release:sip_resolve.obj
 0002:0000be44       $chain$2$dns_aaaa_callback 000000014004be44     pjsip-core-x86_64-x64-vc14-release:sip_resolve.obj
 0002:0000be58       $chain$3$dns_aaaa_callback 000000014004be58     pjsip-core-x86_64-x64-vc14-release:sip_resolve.obj
 0002:0000be6c       $chain$4$dns_aaaa_callback 000000014004be6c     pjsip-core-x86_64-x64-vc14-release:sip_resolve.obj
 0002:0000be7c       $chain$5$dns_aaaa_callback 000000014004be7c     pjsip-core-x86_64-x64-vc14-release:sip_resolve.obj
 0002:0000be8c       $chain$6$dns_aaaa_callback 000000014004be8c     pjsip-core-x86_64-x64-vc14-release:sip_resolve.obj
 0002:0000be9c       $unwind$get_ip_addr_ver    000000014004be9c     pjsip-core-x86_64-x64-vc14-release:sip_resolve.obj
 0002:0000beac       $unwind$pjsip_strerror     000000014004beac     pjsip-core-x86_64-x64-vc14-release:sip_errno.obj
 0002:0000bec0       $chain$1$pjsip_strerror    000000014004bec0     pjsip-core-x86_64-x64-vc14-release:sip_errno.obj
 0002:0000bed4       $chain$2$pjsip_strerror    000000014004bed4     pjsip-core-x86_64-x64-vc14-release:sip_errno.obj
 0002:0000bee4       $unwind$tel_uri_cmp        000000014004bee4     pjsip-core-x86_64-x64-vc14-release:sip_tel_uri.obj
 0002:0000bee4       $unwind$pjsip_dlg_set_remote_cap_hdr 000000014004bee4     pjsip-core-x86_64-x64-vc14-release:sip_dialog.obj
 0002:0000bef0       $chain$3$tel_uri_cmp       000000014004bef0     pjsip-core-x86_64-x64-vc14-release:sip_tel_uri.obj
 0002:0000bf10       $chain$4$tel_uri_cmp       000000014004bf10     pjsip-core-x86_64-x64-vc14-release:sip_tel_uri.obj
 0002:0000bf20       $unwind$tel_uri_parse      000000014004bf20     pjsip-core-x86_64-x64-vc14-release:sip_tel_uri.obj
 0002:0000bf30       $chain$2$tel_uri_parse     000000014004bf30     pjsip-core-x86_64-x64-vc14-release:sip_tel_uri.obj
 0002:0000bf4c       $chain$3$tel_uri_parse     000000014004bf4c     pjsip-core-x86_64-x64-vc14-release:sip_tel_uri.obj
 0002:0000bf64       $chain$4$tel_uri_parse     000000014004bf64     pjsip-core-x86_64-x64-vc14-release:sip_tel_uri.obj
 0002:0000bf74       $unwind$pjsip_authorization_hdr_print 000000014004bf74     pjsip-core-x86_64-x64-vc14-release:sip_auth_msg.obj
 0002:0000bf88       $chain$0$pjsip_authorization_hdr_print 000000014004bf88     pjsip-core-x86_64-x64-vc14-release:sip_auth_msg.obj
 0002:0000bf9c       $chain$1$pjsip_authorization_hdr_print 000000014004bf9c     pjsip-core-x86_64-x64-vc14-release:sip_auth_msg.obj
 0002:0000bfac       $unwind$pj_scan_get_until_chr 000000014004bfac     pjlib-util-x86_64-x64-vc14-release:scanner.obj
 0002:0000bfac       $unwind$pjsip_www_authenticate_hdr_print 000000014004bfac     pjsip-core-x86_64-x64-vc14-release:sip_auth_msg.obj
 0002:0000bfc0       $chain$0$pjsip_www_authenticate_hdr_print 000000014004bfc0     pjsip-core-x86_64-x64-vc14-release:sip_auth_msg.obj
 0002:0000bfd4       $chain$1$pjsip_www_authenticate_hdr_print 000000014004bfd4     pjsip-core-x86_64-x64-vc14-release:sip_auth_msg.obj
 0002:0000bfe4       $unwind$print_digest_challenge 000000014004bfe4     pjsip-core-x86_64-x64-vc14-release:sip_auth_msg.obj
 0002:0000bffc       $chain$0$print_digest_challenge 000000014004bffc     pjsip-core-x86_64-x64-vc14-release:sip_auth_msg.obj
 0002:0000c010       $chain$1$print_digest_challenge 000000014004c010     pjsip-core-x86_64-x64-vc14-release:sip_auth_msg.obj
 0002:0000c020       $unwind$parse_digest_credential 000000014004c020     pjsip-core-x86_64-x64-vc14-release:sip_auth_parser.obj
 0002:0000c038       $unwind$parse_digest_challenge 000000014004c038     pjsip-core-x86_64-x64-vc14-release:sip_auth_parser.obj
 0002:0000c054       $unwind$pjmedia_sdp_attr_create 000000014004c054     pjmedia-x86_64-x64-vc14-release:sdp.obj
 0002:0000c064       $chain$0$pjmedia_sdp_attr_create 000000014004c064     pjmedia-x86_64-x64-vc14-release:sdp.obj
 0002:0000c078       $chain$2$pjmedia_sdp_attr_create 000000014004c078     pjmedia-x86_64-x64-vc14-release:sdp.obj
 0002:0000c08c       $chain$3$pjmedia_sdp_attr_create 000000014004c08c     pjmedia-x86_64-x64-vc14-release:sdp.obj
 0002:0000c09c       $unwind$pjmedia_sdp_attr_find 000000014004c09c     pjmedia-x86_64-x64-vc14-release:sdp.obj
 0002:0000c0b0       $chain$1$pjmedia_sdp_attr_find 000000014004c0b0     pjmedia-x86_64-x64-vc14-release:sdp.obj
 0002:0000c0c8       $chain$2$pjmedia_sdp_attr_find 000000014004c0c8     pjmedia-x86_64-x64-vc14-release:sdp.obj
 0002:0000c0d8       $chain$3$pjmedia_sdp_attr_find 000000014004c0d8     pjmedia-x86_64-x64-vc14-release:sdp.obj
 0002:0000c0f0       $unwind$pjmedia_sdp_attr_find2 000000014004c0f0     pjmedia-x86_64-x64-vc14-release:sdp.obj
 0002:0000c100       $chain$1$pjmedia_sdp_attr_find2 000000014004c100     pjmedia-x86_64-x64-vc14-release:sdp.obj
 0002:0000c118       $chain$3$pjmedia_sdp_attr_find2 000000014004c118     pjmedia-x86_64-x64-vc14-release:sdp.obj
 0002:0000c130       $unwind$pjmedia_sdp_attr_remove_all 000000014004c130     pjmedia-x86_64-x64-vc14-release:sdp.obj
 0002:0000c140       $chain$0$pjmedia_sdp_attr_remove_all 000000014004c140     pjmedia-x86_64-x64-vc14-release:sdp.obj
 0002:0000c154       $chain$1$pjmedia_sdp_attr_remove_all 000000014004c154     pjmedia-x86_64-x64-vc14-release:sdp.obj
 0002:0000c164       $unwind$pjmedia_sdp_attr_remove 000000014004c164     pjmedia-x86_64-x64-vc14-release:sdp.obj
 0002:0000c178       $chain$0$pjmedia_sdp_attr_remove 000000014004c178     pjmedia-x86_64-x64-vc14-release:sdp.obj
 0002:0000c18c       $chain$1$pjmedia_sdp_attr_remove 000000014004c18c     pjmedia-x86_64-x64-vc14-release:sdp.obj
 0002:0000c19c       $unwind$pjmedia_sdp_attr_get_rtpmap 000000014004c19c     pjmedia-x86_64-x64-vc14-release:sdp.obj
 0002:0000c1b8       $unwind$pjmedia_sdp_media_clone 000000014004c1b8     pjmedia-x86_64-x64-vc14-release:sdp.obj
 0002:0000c1c4       $chain$0$pjmedia_sdp_media_clone 000000014004c1c4     pjmedia-x86_64-x64-vc14-release:sdp.obj
 0002:0000c1d8       $chain$5$pjmedia_sdp_media_clone 000000014004c1d8     pjmedia-x86_64-x64-vc14-release:sdp.obj
 0002:0000c1f8       $chain$6$pjmedia_sdp_media_clone 000000014004c1f8     pjmedia-x86_64-x64-vc14-release:sdp.obj
 0002:0000c20c       $chain$9$pjmedia_sdp_media_clone 000000014004c20c     pjmedia-x86_64-x64-vc14-release:sdp.obj
 0002:0000c20c       $chain$7$pjmedia_sdp_media_clone 000000014004c20c     pjmedia-x86_64-x64-vc14-release:sdp.obj
 0002:0000c21c       $chain$8$pjmedia_sdp_media_clone 000000014004c21c     pjmedia-x86_64-x64-vc14-release:sdp.obj
 0002:0000c230       $chain$11$pjmedia_sdp_media_clone 000000014004c230     pjmedia-x86_64-x64-vc14-release:sdp.obj
 0002:0000c254       $unwind$pjmedia_sdp_media_clone_deactivate 000000014004c254     pjmedia-x86_64-x64-vc14-release:sdp.obj
 0002:0000c260       $chain$2$pjmedia_sdp_media_clone_deactivate 000000014004c260     pjmedia-x86_64-x64-vc14-release:sdp.obj
 0002:0000c27c       $chain$5$pjmedia_sdp_media_clone_deactivate 000000014004c27c     pjmedia-x86_64-x64-vc14-release:sdp.obj
 0002:0000c298       $chain$6$pjmedia_sdp_media_clone_deactivate 000000014004c298     pjmedia-x86_64-x64-vc14-release:sdp.obj
 0002:0000c2a8       $chain$8$pjmedia_sdp_media_clone_deactivate 000000014004c2a8     pjmedia-x86_64-x64-vc14-release:sdp.obj
 0002:0000c2d0       $chain$9$pjmedia_sdp_media_clone_deactivate 000000014004c2d0     pjmedia-x86_64-x64-vc14-release:sdp.obj
 0002:0000c2e0       $unwind$pjmedia_sdp_parse  000000014004c2e0     pjmedia-x86_64-x64-vc14-release:sdp.obj
 0002:0000c300       $unwind$pjmedia_sdp_validate2 000000014004c300     pjmedia-x86_64-x64-vc14-release:sdp.obj
 0002:0000c30c       $chain$0$pjmedia_sdp_validate2 000000014004c30c     pjmedia-x86_64-x64-vc14-release:sdp.obj
 0002:0000c320       $chain$4$pjmedia_sdp_validate2 000000014004c320     pjmedia-x86_64-x64-vc14-release:sdp.obj
 0002:0000c320       $chain$2$pjmedia_sdp_validate2 000000014004c320     pjmedia-x86_64-x64-vc14-release:sdp.obj
 0002:0000c334       $chain$8$pjmedia_sdp_validate2 000000014004c334     pjmedia-x86_64-x64-vc14-release:sdp.obj
 0002:0000c354       $chain$9$pjmedia_sdp_validate2 000000014004c354     pjmedia-x86_64-x64-vc14-release:sdp.obj
 0002:0000c364       $chain$11$pjmedia_sdp_validate2 000000014004c364     pjmedia-x86_64-x64-vc14-release:sdp.obj
 0002:0000c388       $unwind$pjmedia_sdp_session_clone 000000014004c388     pjmedia-x86_64-x64-vc14-release:sdp.obj
 0002:0000c394       $chain$0$pjmedia_sdp_session_clone 000000014004c394     pjmedia-x86_64-x64-vc14-release:sdp.obj
 0002:0000c3a8       $chain$4$pjmedia_sdp_session_clone 000000014004c3a8     pjmedia-x86_64-x64-vc14-release:sdp.obj
 0002:0000c3c4       $chain$7$pjmedia_sdp_session_clone 000000014004c3c4     pjmedia-x86_64-x64-vc14-release:sdp.obj
 0002:0000c3e0       $chain$8$pjmedia_sdp_session_clone 000000014004c3e0     pjmedia-x86_64-x64-vc14-release:sdp.obj
 0002:0000c3f0       $chain$9$pjmedia_sdp_session_clone 000000014004c3f0     pjmedia-x86_64-x64-vc14-release:sdp.obj
 0002:0000c400       $unwind$parse_media        000000014004c400     pjmedia-x86_64-x64-vc14-release:sdp.obj
 0002:0000c40c       $unwind$print_connection_info 000000014004c40c     pjmedia-x86_64-x64-vc14-release:sdp.obj
 0002:0000c414       $unwind$print_bandw        000000014004c414     pjmedia-x86_64-x64-vc14-release:sdp.obj
 0002:0000c424       $unwind$print_attr         000000014004c424     pjmedia-x86_64-x64-vc14-release:sdp.obj
 0002:0000c434       $unwind$print_media_desc   000000014004c434     pjmedia-x86_64-x64-vc14-release:sdp.obj
 0002:0000c440       $chain$3$print_media_desc  000000014004c440     pjmedia-x86_64-x64-vc14-release:sdp.obj
 0002:0000c460       $chain$4$print_media_desc  000000014004c460     pjmedia-x86_64-x64-vc14-release:sdp.obj
 0002:0000c474       $chain$5$print_media_desc  000000014004c474     pjmedia-x86_64-x64-vc14-release:sdp.obj
 0002:0000c484       $chain$7$print_media_desc  000000014004c484     pjmedia-x86_64-x64-vc14-release:sdp.obj
 0002:0000c4a4       $chain$8$print_media_desc  000000014004c4a4     pjmedia-x86_64-x64-vc14-release:sdp.obj
 0002:0000c4c8       $unwind$print_session      000000014004c4c8     pjmedia-x86_64-x64-vc14-release:sdp.obj
 0002:0000c4d4       $chain$0$print_session     000000014004c4d4     pjmedia-x86_64-x64-vc14-release:sdp.obj
 0002:0000c4e8       $chain$4$print_session     000000014004c4e8     pjmedia-x86_64-x64-vc14-release:sdp.obj
 0002:0000c504       $chain$6$print_session     000000014004c504     pjmedia-x86_64-x64-vc14-release:sdp.obj
 0002:0000c520       $unwind$apply_media_direction 000000014004c520     pjmedia-x86_64-x64-vc14-release:sdp.obj
 0002:0000c530       $chain$0$apply_media_direction 000000014004c530     pjmedia-x86_64-x64-vc14-release:sdp.obj
 0002:0000c544       $chain$1$apply_media_direction 000000014004c544     pjmedia-x86_64-x64-vc14-release:sdp.obj
 0002:0000c558       $chain$2$apply_media_direction 000000014004c558     pjmedia-x86_64-x64-vc14-release:sdp.obj
 0002:0000c56c       $chain$3$apply_media_direction 000000014004c56c     pjmedia-x86_64-x64-vc14-release:sdp.obj
 0002:0000c57c       $chain$4$apply_media_direction 000000014004c57c     pjmedia-x86_64-x64-vc14-release:sdp.obj
 0002:0000c58c       $chain$5$apply_media_direction 000000014004c58c     pjmedia-x86_64-x64-vc14-release:sdp.obj
 0002:0000c59c       $chain$0$validate_sdp_conn 000000014004c59c     pjmedia-x86_64-x64-vc14-release:sdp.obj
 0002:0000c5b0       $chain$2$validate_sdp_conn 000000014004c5b0     pjmedia-x86_64-x64-vc14-release:sdp.obj
 0002:0000c5c4       $chain$0$pjmedia_sdp_neg_create_w_local_offer 000000014004c5c4     pjmedia-x86_64-x64-vc14-release:sdp_neg.obj
 0002:0000c5d8       $chain$3$pjmedia_sdp_neg_create_w_local_offer 000000014004c5d8     pjmedia-x86_64-x64-vc14-release:sdp_neg.obj
 0002:0000c5d8       $chain$1$pjmedia_sdp_neg_create_w_local_offer 000000014004c5d8     pjmedia-x86_64-x64-vc14-release:sdp_neg.obj
 0002:0000c5e8       $chain$2$pjmedia_sdp_neg_create_w_local_offer 000000014004c5e8     pjmedia-x86_64-x64-vc14-release:sdp_neg.obj
 0002:0000c5fc       $chain$0$pjmedia_sdp_neg_create_w_remote_offer 000000014004c5fc     pjmedia-x86_64-x64-vc14-release:sdp_neg.obj
 0002:0000c610       $chain$3$pjmedia_sdp_neg_create_w_remote_offer 000000014004c610     pjmedia-x86_64-x64-vc14-release:sdp_neg.obj
 0002:0000c610       $chain$1$pjmedia_sdp_neg_create_w_remote_offer 000000014004c610     pjmedia-x86_64-x64-vc14-release:sdp_neg.obj
 0002:0000c620       $chain$2$pjmedia_sdp_neg_create_w_remote_offer 000000014004c620     pjmedia-x86_64-x64-vc14-release:sdp_neg.obj
 0002:0000c634       $unwind$pjmedia_sdp_neg_modify_local_offer2 000000014004c634     pjmedia-x86_64-x64-vc14-release:sdp_neg.obj
 0002:0000c644       $chain$2$pjmedia_sdp_neg_modify_local_offer2 000000014004c644     pjmedia-x86_64-x64-vc14-release:sdp_neg.obj
 0002:0000c660       $chain$3$pjmedia_sdp_neg_modify_local_offer2 000000014004c660     pjmedia-x86_64-x64-vc14-release:sdp_neg.obj
 0002:0000c674       $chain$5$pjmedia_sdp_neg_modify_local_offer2 000000014004c674     pjmedia-x86_64-x64-vc14-release:sdp_neg.obj
 0002:0000c688       $chain$6$pjmedia_sdp_neg_modify_local_offer2 000000014004c688     pjmedia-x86_64-x64-vc14-release:sdp_neg.obj
 0002:0000c698       $chain$7$pjmedia_sdp_neg_modify_local_offer2 000000014004c698     pjmedia-x86_64-x64-vc14-release:sdp_neg.obj
 0002:0000c6a8       $chain$0$pjmedia_sdp_neg_negotiate 000000014004c6a8     pjmedia-x86_64-x64-vc14-release:sdp_neg.obj
 0002:0000c6bc       $chain$1$pjmedia_sdp_neg_negotiate 000000014004c6bc     pjmedia-x86_64-x64-vc14-release:sdp_neg.obj
 0002:0000c6cc       $unwind$process_m_answer   000000014004c6cc     pjmedia-x86_64-x64-vc14-release:sdp_neg.obj
 0002:0000c6e4       $chain$3$process_m_answer  000000014004c6e4     pjmedia-x86_64-x64-vc14-release:sdp_neg.obj
 0002:0000c704       $chain$4$process_m_answer  000000014004c704     pjmedia-x86_64-x64-vc14-release:sdp_neg.obj
 0002:0000c714       $unwind$process_answer     000000014004c714     pjmedia-x86_64-x64-vc14-release:sdp_neg.obj
 0002:0000c728       $chain$1$process_answer    000000014004c728     pjmedia-x86_64-x64-vc14-release:sdp_neg.obj
 0002:0000c740       $chain$2$process_answer    000000014004c740     pjmedia-x86_64-x64-vc14-release:sdp_neg.obj
 0002:0000c750       $unwind$rewrite_pt         000000014004c750     pjmedia-x86_64-x64-vc14-release:sdp_neg.obj
 0002:0000c75c       $chain$0$rewrite_pt        000000014004c75c     pjmedia-x86_64-x64-vc14-release:sdp_neg.obj
 0002:0000c770       $chain$1$rewrite_pt        000000014004c770     pjmedia-x86_64-x64-vc14-release:sdp_neg.obj
 0002:0000c780       $unwind$apply_answer_symmetric_pt 000000014004c780     pjmedia-x86_64-x64-vc14-release:sdp_neg.obj
 0002:0000c798       $chain$1$apply_answer_symmetric_pt 000000014004c798     pjmedia-x86_64-x64-vc14-release:sdp_neg.obj
 0002:0000c7b0       $chain$4$apply_answer_symmetric_pt 000000014004c7b0     pjmedia-x86_64-x64-vc14-release:sdp_neg.obj
 0002:0000c7cc       $chain$5$apply_answer_symmetric_pt 000000014004c7cc     pjmedia-x86_64-x64-vc14-release:sdp_neg.obj
 0002:0000c7dc       $chain$6$apply_answer_symmetric_pt 000000014004c7dc     pjmedia-x86_64-x64-vc14-release:sdp_neg.obj
 0002:0000c7ec       $unwind$match_offer        000000014004c7ec     pjmedia-x86_64-x64-vc14-release:sdp_neg.obj
 0002:0000c80c       $chain$0$match_offer       000000014004c80c     pjmedia-x86_64-x64-vc14-release:sdp_neg.obj
 0002:0000c820       $chain$2$match_offer       000000014004c820     pjmedia-x86_64-x64-vc14-release:sdp_neg.obj
 0002:0000c838       $chain$3$match_offer       000000014004c838     pjmedia-x86_64-x64-vc14-release:sdp_neg.obj
 0002:0000c848       $chain$4$match_offer       000000014004c848     pjmedia-x86_64-x64-vc14-release:sdp_neg.obj
 0002:0000c858       $unwind$create_answer      000000014004c858     pjmedia-x86_64-x64-vc14-release:sdp_neg.obj
 0002:0000c874       $chain$0$create_answer     000000014004c874     pjmedia-x86_64-x64-vc14-release:sdp_neg.obj
 0002:0000c888       $chain$1$create_answer     000000014004c888     pjmedia-x86_64-x64-vc14-release:sdp_neg.obj
 0002:0000c89c       $chain$2$create_answer     000000014004c89c     pjmedia-x86_64-x64-vc14-release:sdp_neg.obj
 0002:0000c8b0       $chain$3$create_answer     000000014004c8b0     pjmedia-x86_64-x64-vc14-release:sdp_neg.obj
 0002:0000c8c0       $chain$4$create_answer     000000014004c8c0     pjmedia-x86_64-x64-vc14-release:sdp_neg.obj
 0002:0000c8d0       $chain$5$create_answer     000000014004c8d0     pjmedia-x86_64-x64-vc14-release:sdp_neg.obj
 0002:0000c8e0       $chain$0$pjlib_util_strerror 000000014004c8e0     pjlib-util-x86_64-x64-vc14-release:errno.obj
 0002:0000c8f4       $chain$1$pjlib_util_strerror 000000014004c8f4     pjlib-util-x86_64-x64-vc14-release:errno.obj
 0002:0000c904       $unwind$_getopt_internal   000000014004c904     pjlib-util-x86_64-x64-vc14-release:getopt.obj
 0002:0000c914       $chain$2$_getopt_internal  000000014004c914     pjlib-util-x86_64-x64-vc14-release:getopt.obj
 0002:0000c930       $chain$4$_getopt_internal  000000014004c930     pjlib-util-x86_64-x64-vc14-release:getopt.obj
 0002:0000c94c       $chain$5$_getopt_internal  000000014004c94c     pjlib-util-x86_64-x64-vc14-release:getopt.obj
 0002:0000c95c       $unwind$exchange           000000014004c95c     pjlib-util-x86_64-x64-vc14-release:getopt.obj
 0002:0000c970       $chain$0$exchange          000000014004c970     pjlib-util-x86_64-x64-vc14-release:getopt.obj
 0002:0000c984       $chain$1$exchange          000000014004c984     pjlib-util-x86_64-x64-vc14-release:getopt.obj
 0002:0000c994       $unwind$pj_cis_add_range   000000014004c994     pjlib-util-x86_64-x64-vc14-release:scanner.obj
 0002:0000c99c       $chain$2$pj_cis_add_range  000000014004c99c     pjlib-util-x86_64-x64-vc14-release:scanner.obj
 0002:0000c9b8       $chain$3$pj_cis_add_range  000000014004c9b8     pjlib-util-x86_64-x64-vc14-release:scanner.obj
 0002:0000c9c8       $unwind$pj_cis_add_cis     000000014004c9c8     pjlib-util-x86_64-x64-vc14-release:scanner.obj
 0002:0000c9c8       $unwind$pj_strcspn2        000000014004c9c8     pjlib-x86_64-x64-vc14-release:string.obj
 0002:0000c9d0       $unwind$pj_scan_get        000000014004c9d0     pjlib-util-x86_64-x64-vc14-release:scanner.obj
 0002:0000c9d0       $unwind$__GSHandlerCheckCommon 000000014004c9d0     MSVCRT:_gshandler_.obj
 0002:0000c9d0       $unwind$pj_sockaddr_copy_addr 000000014004c9d0     pjlib-x86_64-x64-vc14-release:sock_common.obj
 0002:0000c9d8       $chain$0$pj_scan_get_until_chr 000000014004c9d8     pjlib-util-x86_64-x64-vc14-release:scanner.obj
 0002:0000c9ec       $chain$1$pj_scan_get_until_chr 000000014004c9ec     pjlib-util-x86_64-x64-vc14-release:scanner.obj
 0002:0000c9fc       $unwind$pj_strncpy2_escape 000000014004c9fc     pjlib-util-x86_64-x64-vc14-release:string.obj
 0002:0000ca10       $unwind$find_dlg_set_for_msg 000000014004ca10     pjsip-core-x86_64-x64-vc14-release:sip_ua_layer.obj
 0002:0000ca10       $unwind$pj_dns_resolver_destroy 000000014004ca10     pjlib-util-x86_64-x64-vc14-release:resolver.obj
 0002:0000ca18       $chain$1$pj_dns_resolver_destroy 000000014004ca18     pjlib-util-x86_64-x64-vc14-release:resolver.obj
 0002:0000ca30       $chain$2$pj_dns_resolver_destroy 000000014004ca30     pjlib-util-x86_64-x64-vc14-release:resolver.obj
 0002:0000ca44       $chain$3$pj_dns_resolver_destroy 000000014004ca44     pjlib-util-x86_64-x64-vc14-release:resolver.obj
 0002:0000ca54       $chain$4$pj_dns_resolver_destroy 000000014004ca54     pjlib-util-x86_64-x64-vc14-release:resolver.obj
 0002:0000ca68       $unwind$pj_dns_resolver_start_query 000000014004ca68     pjlib-util-x86_64-x64-vc14-release:resolver.obj
 0002:0000ca84       $chain$1$pj_dns_resolver_start_query 000000014004ca84     pjlib-util-x86_64-x64-vc14-release:resolver.obj
 0002:0000ca9c       $chain$3$pj_dns_resolver_start_query 000000014004ca9c     pjlib-util-x86_64-x64-vc14-release:resolver.obj
 0002:0000cab4       $chain$4$pj_dns_resolver_start_query 000000014004cab4     pjlib-util-x86_64-x64-vc14-release:resolver.obj
 0002:0000cab4       $chain$2$pj_dns_resolver_start_query 000000014004cab4     pjlib-util-x86_64-x64-vc14-release:resolver.obj
 0002:0000cac4       $unwind$pj_dns_parse_addr_response 000000014004cac4     pjlib-util-x86_64-x64-vc14-release:resolver.obj
 0002:0000cad4       $chain$1$pj_dns_parse_addr_response 000000014004cad4     pjlib-util-x86_64-x64-vc14-release:resolver.obj
 0002:0000caec       $chain$2$pj_dns_parse_addr_response 000000014004caec     pjlib-util-x86_64-x64-vc14-release:resolver.obj
 0002:0000cb00       $chain$3$pj_dns_parse_addr_response 000000014004cb00     pjlib-util-x86_64-x64-vc14-release:resolver.obj
 0002:0000cb14       $chain$4$pj_dns_parse_addr_response 000000014004cb14     pjlib-util-x86_64-x64-vc14-release:resolver.obj
 0002:0000cb24       $chain$5$pj_dns_parse_addr_response 000000014004cb24     pjlib-util-x86_64-x64-vc14-release:resolver.obj
 0002:0000cb34       $chain$7$pj_dns_parse_addr_response 000000014004cb34     pjlib-util-x86_64-x64-vc14-release:resolver.obj
 0002:0000cb54       $chain$8$pj_dns_parse_addr_response 000000014004cb54     pjlib-util-x86_64-x64-vc14-release:resolver.obj
 0002:0000cb64       $unwind$on_timeout         000000014004cb64     pjlib-util-x86_64-x64-vc14-release:resolver.obj
 0002:0000cb78       $chain$1$on_timeout        000000014004cb78     pjlib-util-x86_64-x64-vc14-release:resolver.obj
 0002:0000cb8c       $chain$2$on_timeout        000000014004cb8c     pjlib-util-x86_64-x64-vc14-release:resolver.obj
 0002:0000cb9c       $unwind$select_nameservers 000000014004cb9c     pjlib-util-x86_64-x64-vc14-release:resolver.obj
 0002:0000cbb0       $chain$0$select_nameservers 000000014004cbb0     pjlib-util-x86_64-x64-vc14-release:resolver.obj
 0002:0000cbc4       $chain$1$select_nameservers 000000014004cbc4     pjlib-util-x86_64-x64-vc14-release:resolver.obj
 0002:0000cbd4       $unwind$transmit_query     000000014004cbd4     pjlib-util-x86_64-x64-vc14-release:resolver.obj
 0002:0000cbe8       $chain$0$transmit_query    000000014004cbe8     pjlib-util-x86_64-x64-vc14-release:resolver.obj
 0002:0000cbfc       $chain$1$transmit_query    000000014004cbfc     pjlib-util-x86_64-x64-vc14-release:resolver.obj
 0002:0000cc10       $chain$3$transmit_query    000000014004cc10     pjlib-util-x86_64-x64-vc14-release:resolver.obj
 0002:0000cc28       $chain$4$transmit_query    000000014004cc28     pjlib-util-x86_64-x64-vc14-release:resolver.obj
 0002:0000cc3c       $chain$5$transmit_query    000000014004cc3c     pjlib-util-x86_64-x64-vc14-release:resolver.obj
 0002:0000cc50       $chain$6$transmit_query    000000014004cc50     pjlib-util-x86_64-x64-vc14-release:resolver.obj
 0002:0000cc60       $chain$7$transmit_query    000000014004cc60     pjlib-util-x86_64-x64-vc14-release:resolver.obj
 0002:0000cc70       $chain$8$transmit_query    000000014004cc70     pjlib-util-x86_64-x64-vc14-release:resolver.obj
 0002:0000cc80       $chain$9$transmit_query    000000014004cc80     pjlib-util-x86_64-x64-vc14-release:resolver.obj
 0002:0000cc90       $chain$10$transmit_query   000000014004cc90     pjlib-util-x86_64-x64-vc14-release:resolver.obj
 0002:0000cca0       $unwind$set_nameserver_state 000000014004cca0     pjlib-util-x86_64-x64-vc14-release:resolver.obj
 0002:0000ccb8       $chain$1$set_nameserver_state 000000014004ccb8     pjlib-util-x86_64-x64-vc14-release:resolver.obj
 0002:0000ccd0       $chain$2$set_nameserver_state 000000014004ccd0     pjlib-util-x86_64-x64-vc14-release:resolver.obj
 0002:0000cce0       $unwind$pj_md5_update      000000014004cce0     pjlib-util-x86_64-x64-vc14-release:md5.obj
 0002:0000ccf8       $chain$0$pj_md5_final      000000014004ccf8     pjlib-util-x86_64-x64-vc14-release:md5.obj
 0002:0000cd0c       $chain$1$pj_md5_final      000000014004cd0c     pjlib-util-x86_64-x64-vc14-release:md5.obj
 0002:0000cd1c       $unwind$MD5Transform       000000014004cd1c     pjlib-util-x86_64-x64-vc14-release:md5.obj
 0002:0000cd34       $unwind$pj_dns_make_query  000000014004cd34     pjlib-util-x86_64-x64-vc14-release:dns.obj
 0002:0000cd40       $chain$2$pj_dns_make_query 000000014004cd40     pjlib-util-x86_64-x64-vc14-release:dns.obj
 0002:0000cd5c       $chain$3$pj_dns_make_query 000000014004cd5c     pjlib-util-x86_64-x64-vc14-release:dns.obj
 0002:0000cd70       $chain$4$pj_dns_make_query 000000014004cd70     pjlib-util-x86_64-x64-vc14-release:dns.obj
 0002:0000cd80       $chain$5$pj_dns_make_query 000000014004cd80     pjlib-util-x86_64-x64-vc14-release:dns.obj
 0002:0000cd90       $unwind$pj_dns_srv_resolve 000000014004cd90     pjlib-util-x86_64-x64-vc14-release:srv_resolver.obj
 0002:0000cda8       $unwind$pj_dns_srv_cancel_query 000000014004cda8     pjlib-util-x86_64-x64-vc14-release:srv_resolver.obj
 0002:0000cdb8       $chain$0$pj_dns_srv_cancel_query 000000014004cdb8     pjlib-util-x86_64-x64-vc14-release:srv_resolver.obj
 0002:0000cdcc       $chain$1$pj_dns_srv_cancel_query 000000014004cdcc     pjlib-util-x86_64-x64-vc14-release:srv_resolver.obj
 0002:0000cde0       $chain$2$pj_dns_srv_cancel_query 000000014004cde0     pjlib-util-x86_64-x64-vc14-release:srv_resolver.obj
 0002:0000cdf0       $chain$3$pj_dns_srv_cancel_query 000000014004cdf0     pjlib-util-x86_64-x64-vc14-release:srv_resolver.obj
 0002:0000ce00       $unwind$dns_callback       000000014004ce00     pjlib-util-x86_64-x64-vc14-release:srv_resolver.obj
 0002:0000ce1c       $chain$1$dns_callback      000000014004ce1c     pjlib-util-x86_64-x64-vc14-release:srv_resolver.obj
 0002:0000ce34       $chain$2$dns_callback      000000014004ce34     pjlib-util-x86_64-x64-vc14-release:srv_resolver.obj
 0002:0000ce44       $unwind$build_server_entries 000000014004ce44     pjlib-util-x86_64-x64-vc14-release:srv_resolver.obj
 0002:0000ce60       $chain$0$build_server_entries 000000014004ce60     pjlib-util-x86_64-x64-vc14-release:srv_resolver.obj
 0002:0000ce74       $chain$1$build_server_entries 000000014004ce74     pjlib-util-x86_64-x64-vc14-release:srv_resolver.obj
 0002:0000ce88       $chain$2$build_server_entries 000000014004ce88     pjlib-util-x86_64-x64-vc14-release:srv_resolver.obj
 0002:0000ce98       $chain$3$build_server_entries 000000014004ce98     pjlib-util-x86_64-x64-vc14-release:srv_resolver.obj
 0002:0000cea8       $unwind$resolve_hostnames  000000014004cea8     pjlib-util-x86_64-x64-vc14-release:srv_resolver.obj
 0002:0000ceb8       $chain$2$resolve_hostnames 000000014004ceb8     pjlib-util-x86_64-x64-vc14-release:srv_resolver.obj
 0002:0000ced4       $chain$3$resolve_hostnames 000000014004ced4     pjlib-util-x86_64-x64-vc14-release:srv_resolver.obj
 0002:0000cee4       $unwind$pj_init            000000014004cee4     pjlib-x86_64-x64-vc14-release:os_core_win32.obj
 0002:0000cef4       $unwind$pj_thread_create   000000014004cef4     pjlib-x86_64-x64-vc14-release:os_core_win32.obj
 0002:0000cf08       $chain$1$pj_thread_create  000000014004cf08     pjlib-x86_64-x64-vc14-release:os_core_win32.obj
 0002:0000cf1c       $chain$2$pj_thread_create  000000014004cf1c     pjlib-x86_64-x64-vc14-release:os_core_win32.obj
 0002:0000cf30       $chain$3$pj_thread_create  000000014004cf30     pjlib-x86_64-x64-vc14-release:os_core_win32.obj
 0002:0000cf40       $chain$6$pj_thread_create  000000014004cf40     pjlib-x86_64-x64-vc14-release:os_core_win32.obj
 0002:0000cf40       $chain$4$pj_thread_create  000000014004cf40     pjlib-x86_64-x64-vc14-release:os_core_win32.obj
 0002:0000cf50       $chain$5$pj_thread_create  000000014004cf50     pjlib-x86_64-x64-vc14-release:os_core_win32.obj
 0002:0000cf68       $chain$0$pj_thread_join    000000014004cf68     pjlib-x86_64-x64-vc14-release:os_core_win32.obj
 0002:0000cf7c       $chain$2$pj_thread_join    000000014004cf7c     pjlib-x86_64-x64-vc14-release:os_core_win32.obj
 0002:0000cf7c       $chain$6$pj_thread_join    000000014004cf7c     pjlib-x86_64-x64-vc14-release:os_core_win32.obj
 0002:0000cf7c       $chain$4$pj_thread_join    000000014004cf7c     pjlib-x86_64-x64-vc14-release:os_core_win32.obj
 0002:0000cf90       $chain$0$pj_mutex_create   000000014004cf90     pjlib-x86_64-x64-vc14-release:os_core_win32.obj
 0002:0000cfa4       $chain$2$pj_mutex_create   000000014004cfa4     pjlib-x86_64-x64-vc14-release:os_core_win32.obj
 0002:0000cfb8       $chain$3$pj_mutex_create   000000014004cfb8     pjlib-x86_64-x64-vc14-release:os_core_win32.obj
 0002:0000cfc8       $chain$0$pj_mutex_create_simple 000000014004cfc8     pjlib-x86_64-x64-vc14-release:os_core_win32.obj
 0002:0000cfc8       $chain$0$pj_mutex_create_recursive 000000014004cfc8     pjlib-x86_64-x64-vc14-release:os_core_win32.obj
 0002:0000cfdc       $chain$2$pj_mutex_create_simple 000000014004cfdc     pjlib-x86_64-x64-vc14-release:os_core_win32.obj
 0002:0000cfdc       $chain$2$pj_mutex_create_recursive 000000014004cfdc     pjlib-x86_64-x64-vc14-release:os_core_win32.obj
 0002:0000cff0       $chain$3$pj_mutex_create_simple 000000014004cff0     pjlib-x86_64-x64-vc14-release:os_core_win32.obj
 0002:0000cff0       $chain$3$pj_mutex_create_recursive 000000014004cff0     pjlib-x86_64-x64-vc14-release:os_core_win32.obj
 0002:0000d000       $unwind$pj_mutex_destroy   000000014004d000     pjlib-x86_64-x64-vc14-release:os_core_win32.obj
 0002:0000d000       $unwind$pj_mutex_unlock    000000014004d000     pjlib-x86_64-x64-vc14-release:os_core_win32.obj
 0002:0000d000       $unwind$pj_thread_sleep    000000014004d000     pjlib-x86_64-x64-vc14-release:os_core_win32.obj
 0002:0000d000       $unwind$thread_main        000000014004d000     pjlib-x86_64-x64-vc14-release:os_core_win32.obj
 0002:0000d000       $unwind$has_auth_qop       000000014004d000     pjsip-core-x86_64-x64-vc14-release:sip_auth_client.obj
 0002:0000d000       $unwind$inv_set_cause      000000014004d000     pjsip-ua-x86_64-x64-vc14-release:sip_inv.obj
 0002:0000d000       $unwind$pj_atomic_inc_and_get 000000014004d000     pjlib-x86_64-x64-vc14-release:os_core_win32.obj
 0002:0000d000       $unwind$pj_atomic_dec_and_get 000000014004d000     pjlib-x86_64-x64-vc14-release:os_core_win32.obj
 0002:0000d000       $unwind$pj_strtol          000000014004d000     pjlib-x86_64-x64-vc14-release:string.obj
 0002:0000d000       $unwind$pj_mutex_trylock   000000014004d000     pjlib-x86_64-x64-vc14-release:os_core_win32.obj
 0002:0000d000       $unwind$mod_100rel_load    000000014004d000     pjsip-ua-x86_64-x64-vc14-release:sip_100rel.obj
 0002:0000d000       $unwind$pj_sem_destroy     000000014004d000     pjlib-x86_64-x64-vc14-release:os_core_win32.obj
 0002:0000d000       $unwind$pjsip_register_uri_parser 000000014004d000     pjsip-core-x86_64-x64-vc14-release:sip_parser.obj
 0002:0000d000       $unwind$pj_sem_post        000000014004d000     pjlib-x86_64-x64-vc14-release:os_core_win32.obj
 0002:0000d000       $unwind$pj_sem_trywait     000000014004d000     pjlib-x86_64-x64-vc14-release:os_core_win32.obj
 0002:0000d000       $unwind$mod_tsx_layer_unregister_tsx 000000014004d000     pjsip-core-x86_64-x64-vc14-release:sip_transaction.obj
 0002:0000d000       $unwind$pj_thread_get_name 000000014004d000     pjlib-x86_64-x64-vc14-release:os_core_win32.obj
 0002:0000d000       $unwind$pjmedia_sdp_neg_negotiate 000000014004d000     pjmedia-x86_64-x64-vc14-release:sdp_neg.obj
 0002:0000d000       $unwind$pjsip_ua_unregister_dlg 000000014004d000     pjsip-core-x86_64-x64-vc14-release:sip_ua_layer.obj
 0002:0000d000       $unwind$pj_sem_wait        000000014004d000     pjlib-x86_64-x64-vc14-release:os_core_win32.obj
 0002:0000d000       $unwind$mod_tsx_layer_register_tsx 000000014004d000     pjsip-core-x86_64-x64-vc14-release:sip_transaction.obj
 0002:0000d000       $unwind$pj_mutex_lock      000000014004d000     pjlib-x86_64-x64-vc14-release:os_core_win32.obj
 0002:0000d000       $unwind$pj_thread_local_free 000000014004d000     pjlib-x86_64-x64-vc14-release:os_core_win32.obj
 0002:0000d000       $unwind$tsx_on_state_completed_uac 000000014004d000     pjsip-core-x86_64-x64-vc14-release:sip_transaction.obj
 0002:0000d000       $unwind$pj_atomic_get      000000014004d000     pjlib-x86_64-x64-vc14-release:os_core_win32.obj
 0002:0000d008       $unwind$pj_rwmutex_create  000000014004d008     pjlib-x86_64-x64-vc14-release:os_core_win32.obj
 0002:0000d008       $unwind$recreate_cached_auth_pool 000000014004d008     pjsip-core-x86_64-x64-vc14-release:sip_auth_client.obj
 0002:0000d018       $chain$0$pj_rwmutex_create 000000014004d018     pjlib-x86_64-x64-vc14-release:os_core_win32.obj
 0002:0000d02c       $chain$2$pj_rwmutex_create 000000014004d02c     pjlib-x86_64-x64-vc14-release:os_core_win32.obj
 0002:0000d040       $chain$3$pj_rwmutex_create 000000014004d040     pjlib-x86_64-x64-vc14-release:os_core_win32.obj
 0002:0000d050       $unwind$pj_sock_apply_qos2 000000014004d050     pjlib-x86_64-x64-vc14-release:sock_qos_common.obj
 0002:0000d050       $unwind$pjsip_dlg_create_uas_and_inc_lock 000000014004d050     pjsip-core-x86_64-x64-vc14-release:sip_dialog.obj
 0002:0000d050       $unwind$init_parser        000000014004d050     pjsip-core-x86_64-x64-vc14-release:sip_parser.obj
 0002:0000d050       $unwind$pjsip_tcp_transport_start 000000014004d050     pjsip-core-x86_64-x64-vc14-release:sip_transport_tcp.obj
 0002:0000d050       $unwind$tsx_on_state_confirmed 000000014004d050     pjsip-core-x86_64-x64-vc14-release:sip_transaction.obj
 0002:0000d050       $unwind$pj_enter_critical_section 000000014004d050     pjlib-x86_64-x64-vc14-release:os_core_win32.obj
 0002:0000d050       $unwind$tsx_on_state_terminated 000000014004d050     pjsip-core-x86_64-x64-vc14-release:sip_transaction.obj
 0002:0000d050       $unwind$pj_leave_critical_section 000000014004d050     pjlib-x86_64-x64-vc14-release:os_core_win32.obj
 0002:0000d050       $unwind$pj_getopt_long     000000014004d050     pjlib-util-x86_64-x64-vc14-release:getopt.obj
 0002:0000d058       $unwind$pj_sem_create      000000014004d058     pjlib-x86_64-x64-vc14-release:os_core_win32.obj
 0002:0000d070       $unwind$int_parse_status_line 000000014004d070     pjsip-core-x86_64-x64-vc14-release:sip_parser.obj
 0002:0000d070       $unwind$pjsip_dlg_dec_session 000000014004d070     pjsip-core-x86_64-x64-vc14-release:sip_dialog.obj
 0002:0000d070       $unwind$pj_term_set_color  000000014004d070     pjlib-x86_64-x64-vc14-release:os_core_win32.obj
 0002:0000d070       $unwind$pjsip_endpt_create_pool 000000014004d070     pjsip-core-x86_64-x64-vc14-release:sip_endpoint.obj
 0002:0000d070       $unwind$parse_hdr_content_len 000000014004d070     pjsip-core-x86_64-x64-vc14-release:sip_parser.obj
 0002:0000d070       $unwind$pj_thread_check_stack 000000014004d070     pjlib-x86_64-x64-vc14-release:os_core_win32.obj
 0002:0000d070       $unwind$on_str_parse_error 000000014004d070     pjsip-core-x86_64-x64-vc14-release:sip_parser.obj
 0002:0000d070       $unwind$parse_hdr_expires  000000014004d070     pjsip-core-x86_64-x64-vc14-release:sip_parser.obj
 0002:0000d070       $unwind$parse_hdr_min_expires 000000014004d070     pjsip-core-x86_64-x64-vc14-release:sip_parser.obj
 0002:0000d070       $unwind$pjsip_dlg_inc_session 000000014004d070     pjsip-core-x86_64-x64-vc14-release:sip_dialog.obj
 0002:0000d070       $unwind$pj_strcmp2         000000014004d070     pjlib-x86_64-x64-vc14-release:string.obj
 0002:0000d070       $unwind$parse_origin       000000014004d070     pjmedia-x86_64-x64-vc14-release:sdp.obj
 0002:0000d070       $unwind$pj_atomic_set      000000014004d070     pjlib-x86_64-x64-vc14-release:os_core_win32.obj
 0002:0000d070       $unwind$tsx_retransmit     000000014004d070     pjsip-core-x86_64-x64-vc14-release:sip_transaction.obj
 0002:0000d070       $unwind$pj_sem_wait_for    000000014004d070     pjlib-x86_64-x64-vc14-release:os_core_win32.obj
 0002:0000d070       $unwind$pj_stricmp2        000000014004d070     pjlib-x86_64-x64-vc14-release:string.obj
 0002:0000d070       $unwind$pjsip_tsx_terminate 000000014004d070     pjsip-core-x86_64-x64-vc14-release:sip_transaction.obj
 0002:0000d070       $unwind$ioqueue_init_key   000000014004d070     pjlib-x86_64-x64-vc14-release:ioqueue_select.obj
 0002:0000d07c       $unwind$pj_perror          000000014004d07c     pjlib-x86_64-x64-vc14-release:errno.obj
 0002:0000d07c       $unwind$__report_gsfailure 000000014004d07c     MSVCRT:gs_report.obj
 0002:0000d084       $unwind$pj_register_strerror 000000014004d084     pjlib-x86_64-x64-vc14-release:errno.obj
 0002:0000d090       $unwind$pj_perror_1        000000014004d090     pjlib-x86_64-x64-vc14-release:errno.obj
 0002:0000d090       $unwind$pj_perror_2        000000014004d090     pjlib-x86_64-x64-vc14-release:errno.obj
 0002:0000d090       $unwind$pj_perror_3        000000014004d090     pjlib-x86_64-x64-vc14-release:errno.obj
 0002:0000d090       $unwind$pj_perror_4        000000014004d090     pjlib-x86_64-x64-vc14-release:errno.obj
 0002:0000d098       $chain$0$pjlib_error       000000014004d098     pjlib-x86_64-x64-vc14-release:errno.obj
 0002:0000d0ac       $chain$1$pjlib_error       000000014004d0ac     pjlib-x86_64-x64-vc14-release:errno.obj
 0002:0000d0bc       $unwind$invoke_log         000000014004d0bc     pjlib-x86_64-x64-vc14-release:errno.obj
 0002:0000d0c4       $unwind$pj_perror_imp      000000014004d0c4     pjlib-x86_64-x64-vc14-release:errno.obj
 0002:0000d0e0       $unwind$pj_sockaddr_print  000000014004d0e0     pjlib-x86_64-x64-vc14-release:sock_common.obj
 0002:0000d0fc       $chain$1$pj_sockaddr_print 000000014004d0fc     pjlib-x86_64-x64-vc14-release:sock_common.obj
 0002:0000d110       $chain$2$pj_sockaddr_print 000000014004d110     pjlib-x86_64-x64-vc14-release:sock_common.obj
 0002:0000d120       $unwind$pj_sockaddr_cmp    000000014004d120     pjlib-x86_64-x64-vc14-release:sock_common.obj
 0002:0000d138       $chain$3$pj_sockaddr_cmp   000000014004d138     pjlib-x86_64-x64-vc14-release:sock_common.obj
 0002:0000d14c       $chain$4$pj_sockaddr_cmp   000000014004d14c     pjlib-x86_64-x64-vc14-release:sock_common.obj
 0002:0000d15c       $unwind$pj_sockaddr_has_addr 000000014004d15c     pjlib-x86_64-x64-vc14-release:sock_common.obj
 0002:0000d16c       $unwind$pj_sockaddr_in_set_str_addr 000000014004d16c     pjlib-x86_64-x64-vc14-release:sock_common.obj
 0002:0000d184       $unwind$pj_sockaddr_set_str_addr 000000014004d184     pjlib-x86_64-x64-vc14-release:sock_common.obj
 0002:0000d19c       $chain$0$pj_sockaddr_set_str_addr 000000014004d19c     pjlib-x86_64-x64-vc14-release:sock_common.obj
 0002:0000d1b0       $chain$1$pj_sockaddr_set_str_addr 000000014004d1b0     pjlib-x86_64-x64-vc14-release:sock_common.obj
 0002:0000d1c0       $unwind$pj_addr_str_print  000000014004d1c0     pjlib-x86_64-x64-vc14-release:sock_common.obj
 0002:0000d1d8       $unwind$pj_gethostip       000000014004d1d8     pjlib-x86_64-x64-vc14-release:sock_common.obj
 0002:0000d1fc       $unwind$pj_getipinterface  000000014004d1fc     pjlib-x86_64-x64-vc14-release:sock_common.obj
 0002:0000d21c       $unwind$pj_pool_create_int 000000014004d21c     pjlib-x86_64-x64-vc14-release:pool.obj
 0002:0000d234       $unwind$reset_pool         000000014004d234     pjlib-x86_64-x64-vc14-release:pool.obj
 0002:0000d244       $chain$0$reset_pool        000000014004d244     pjlib-x86_64-x64-vc14-release:pool.obj
 0002:0000d258       $chain$1$reset_pool        000000014004d258     pjlib-x86_64-x64-vc14-release:pool.obj
 0002:0000d268       $unwind$find_handler_imp   000000014004d268     pjsip-core-x86_64-x64-vc14-release:sip_parser.obj
 0002:0000d268       $unwind$print_oauth_credential 000000014004d268     pjsip-core-x86_64-x64-vc14-release:sip_auth_msg.obj
 0002:0000d268       $unwind$pj_caching_pool_destroy 000000014004d268     pjlib-x86_64-x64-vc14-release:pool_caching.obj
 0002:0000d268       $unwind$pj_hash_get        000000014004d268     pjlib-x86_64-x64-vc14-release:hash.obj
 0002:0000d280       $unwind$pjsip_inv_cancel_reinvite 000000014004d280     pjsip-ua-x86_64-x64-vc14-release:sip_inv.obj
 0002:0000d280       $unwind$pjsip_tsx_layer_find_tsx2 000000014004d280     pjsip-core-x86_64-x64-vc14-release:sip_transaction.obj
 0002:0000d280       $unwind$update_digest_session 000000014004d280     pjsip-core-x86_64-x64-vc14-release:sip_auth_client.obj
 0002:0000d280       $unwind$cpool_release_pool 000000014004d280     pjlib-x86_64-x64-vc14-release:pool_caching.obj
 0002:0000d280       $unwind$send_response_transport_cb 000000014004d280     pjsip-core-x86_64-x64-vc14-release:sip_util.obj
 0002:0000d28c       $chain$0$cpool_release_pool 000000014004d28c     pjlib-x86_64-x64-vc14-release:pool_caching.obj
 0002:0000d2a0       $chain$1$cpool_release_pool 000000014004d2a0     pjlib-x86_64-x64-vc14-release:pool_caching.obj
 0002:0000d2a0       $chain$3$cpool_release_pool 000000014004d2a0     pjlib-x86_64-x64-vc14-release:pool_caching.obj
 0002:0000d2b0       $chain$2$cpool_release_pool 000000014004d2b0     pjlib-x86_64-x64-vc14-release:pool_caching.obj
 0002:0000d2c4       $unwind$cpool_dump_status  000000014004d2c4     pjlib-x86_64-x64-vc14-release:pool_caching.obj
 0002:0000d2d0       $chain$2$cpool_dump_status 000000014004d2d0     pjlib-x86_64-x64-vc14-release:pool_caching.obj
 0002:0000d2ec       $chain$5$cpool_dump_status 000000014004d2ec     pjlib-x86_64-x64-vc14-release:pool_caching.obj
 0002:0000d308       $chain$6$cpool_dump_status 000000014004d308     pjlib-x86_64-x64-vc14-release:pool_caching.obj
 0002:0000d318       $chain$7$cpool_dump_status 000000014004d318     pjlib-x86_64-x64-vc14-release:pool_caching.obj
 0002:0000d328       $chain$0$pj_strcmp         000000014004d328     pjlib-x86_64-x64-vc14-release:string.obj
 0002:0000d33c       $chain$2$pj_strcmp         000000014004d33c     pjlib-x86_64-x64-vc14-release:string.obj
 0002:0000d33c       $chain$4$pj_strcmp         000000014004d33c     pjlib-x86_64-x64-vc14-release:string.obj
 0002:0000d350       $unwind$inv_perform_pending_bye 000000014004d350     pjsip-ua-x86_64-x64-vc14-release:sip_inv.obj
 0002:0000d350       $unwind$pj_scan_get_quote  000000014004d350     pjlib-util-x86_64-x64-vc14-release:scanner.obj
 0002:0000d350       $unwind$inv_session_destroy 000000014004d350     pjsip-ua-x86_64-x64-vc14-release:sip_inv.obj
 0002:0000d350       $unwind$parse_hdr_proxy_authenticate 000000014004d350     pjsip-core-x86_64-x64-vc14-release:sip_auth_parser.obj
 0002:0000d350       $unwind$lis_on_destroy     000000014004d350     pjsip-core-x86_64-x64-vc14-release:sip_transport_tcp.obj
 0002:0000d350       $unwind$parse_hdr_proxy_authorization 000000014004d350     pjsip-core-x86_64-x64-vc14-release:sip_auth_parser.obj
 0002:0000d350       $unwind$pj_pool_calloc     000000014004d350     pjlib-x86_64-x64-vc14-release:pool.obj
 0002:0000d350       $unwind$stack_alloc        000000014004d350     pjlib-x86_64-x64-vc14-release:pool_buf.obj
 0002:0000d350       $unwind$other_uri_cmp      000000014004d350     pjsip-core-x86_64-x64-vc14-release:sip_uri.obj
 0002:0000d350       $unwind$pjsip_endpt_cancel_timer 000000014004d350     pjsip-core-x86_64-x64-vc14-release:sip_endpoint.obj
 0002:0000d350       $unwind$parse_hdr_accept   000000014004d350     pjsip-core-x86_64-x64-vc14-release:sip_parser.obj
 0002:0000d350       $unwind$unregister_and_destroy_dialog 000000014004d350     pjsip-core-x86_64-x64-vc14-release:sip_dialog.obj
 0002:0000d350       $unwind$parse_hdr_allow    000000014004d350     pjsip-core-x86_64-x64-vc14-release:sip_parser.obj
 0002:0000d350       $unwind$parse_hdr_www_authenticate 000000014004d350     pjsip-core-x86_64-x64-vc14-release:sip_auth_parser.obj
 0002:0000d350       $unwind$pjsip_tx_data_set_transport 000000014004d350     pjsip-core-x86_64-x64-vc14-release:sip_transport.obj
 0002:0000d350       $unwind$pjsip_sip_uri_create 000000014004d350     pjsip-core-x86_64-x64-vc14-release:sip_uri.obj
 0002:0000d350       $unwind$parse_hdr_authorization 000000014004d350     pjsip-core-x86_64-x64-vc14-release:sip_auth_parser.obj
 0002:0000d350       $unwind$sockaddr_to_host_port 000000014004d350     pjsip-core-x86_64-x64-vc14-release:sip_transport_tcp.obj
 0002:0000d350       $unwind$parse_hdr_call_id  000000014004d350     pjsip-core-x86_64-x64-vc14-release:sip_parser.obj
 0002:0000d350       $unwind$lis_destroy        000000014004d350     pjsip-core-x86_64-x64-vc14-release:sip_transport_tcp.obj
 0002:0000d350       $unwind$pj_sock_listen     000000014004d350     pjlib-x86_64-x64-vc14-release:sock_bsd.obj
 0002:0000d350       $unwind$unload_module      000000014004d350     pjsip-core-x86_64-x64-vc14-release:sip_endpoint.obj
 0002:0000d350       $unwind$parse_hdr_from     000000014004d350     pjsip-core-x86_64-x64-vc14-release:sip_parser.obj
 0002:0000d350       $unwind$inv_respond_incoming_prack 000000014004d350     pjsip-ua-x86_64-x64-vc14-release:sip_inv.obj
 0002:0000d350       $unwind$pjmedia_sdp_transport_cmp 000000014004d350     pjmedia-x86_64-x64-vc14-release:sdp.obj
 0002:0000d350       $unwind$pjsip_tpmgr_register_tpfactory 000000014004d350     pjsip-core-x86_64-x64-vc14-release:sip_transport.obj
 0002:0000d350       $unwind$pjsip_inv_set_sdp_answer 000000014004d350     pjsip-ua-x86_64-x64-vc14-release:sip_inv.obj
 0002:0000d350       $unwind$pjsip_tpmgr_unregister_tpfactory 000000014004d350     pjsip-core-x86_64-x64-vc14-release:sip_transport.obj
 0002:0000d350       $unwind$parse_hdr_to       000000014004d350     pjsip-core-x86_64-x64-vc14-release:sip_parser.obj
 0002:0000d350       $unwind$parse_hdr_unsupported 000000014004d350     pjsip-core-x86_64-x64-vc14-release:sip_parser.obj
 0002:0000d350       $unwind$pj_strcat          000000014004d350     pjlib-x86_64-x64-vc14-release:string.obj
 0002:0000d350       $unwind$pjsip_inv_uac_restart 000000014004d350     pjsip-ua-x86_64-x64-vc14-release:sip_inv.obj
 0002:0000d350       $unwind$pj_sockaddr_in_init 000000014004d350     pjlib-x86_64-x64-vc14-release:sock_common.obj
 0002:0000d350       $unwind$pj_stricmp         000000014004d350     pjlib-x86_64-x64-vc14-release:string.obj
 0002:0000d350       $unwind$pjsip_target_set_set_current 000000014004d350     pjsip-core-x86_64-x64-vc14-release:sip_util.obj
 0002:0000d350       $unwind$pjsip_get_request_dest 000000014004d350     pjsip-core-x86_64-x64-vc14-release:sip_util.obj
 0002:0000d350       $unwind$pj_atomic_create   000000014004d350     pjlib-x86_64-x64-vc14-release:os_core_win32.obj
 0002:0000d350       $unwind$inv_handle_incoming_reliable_response 000000014004d350     pjsip-ua-x86_64-x64-vc14-release:sip_inv.obj
 0002:0000d350       $unwind$pj_dns_resolver_cancel_query 000000014004d350     pjlib-util-x86_64-x64-vc14-release:resolver.obj
 0002:0000d350       $unwind$pjsip_generic_array_hdr_init 000000014004d350     pjsip-core-x86_64-x64-vc14-release:sip_msg.obj
 0002:0000d350       $unwind$pj_log_write       000000014004d350     pjlib-x86_64-x64-vc14-release:log_writer_stdout.obj
 0002:0000d350       $unwind$pjsip_dlg_try_inc_lock 000000014004d350     pjsip-core-x86_64-x64-vc14-release:sip_dialog.obj
 0002:0000d350       $unwind$clear_all_responses 000000014004d350     pjsip-ua-x86_64-x64-vc14-release:sip_100rel.obj
 0002:0000d350       $unwind$parse_generic_array_hdr 000000014004d350     pjsip-core-x86_64-x64-vc14-release:sip_parser.obj
 0002:0000d350       $unwind$pj_strdup2_with_null 000000014004d350     pjlib-x86_64-x64-vc14-release:string.obj
 0002:0000d350       $unwind$pj_strdup2         000000014004d350     pjlib-x86_64-x64-vc14-release:string.obj
 0002:0000d350       $unwind$pj_strdup_with_null 000000014004d350     pjlib-x86_64-x64-vc14-release:string.obj
 0002:0000d350       $unwind$pjsip_timer_init_session 000000014004d350     pjsip-ua-x86_64-x64-vc14-release:sip_timer.obj
 0002:0000d350       $unwind$pj_strdup          000000014004d350     pjlib-x86_64-x64-vc14-release:string.obj
 0002:0000d350       $unwind$pj_strncpy_with_null 000000014004d350     pjlib-x86_64-x64-vc14-release:string.obj
 0002:0000d350       $unwind$pjsip_timer_update_req 000000014004d350     pjsip-ua-x86_64-x64-vc14-release:sip_timer.obj
 0002:0000d350       $unwind$pj_exception_id_alloc 000000014004d350     pjlib-x86_64-x64-vc14-release:except.obj
 0002:0000d350       $unwind$PJ_FD_ISSET        000000014004d350     pjlib-x86_64-x64-vc14-release:sock_select.obj
 0002:0000d350       $unwind$pj_strncpy         000000014004d350     pjlib-x86_64-x64-vc14-release:string.obj
 0002:0000d35c       $unwind$pj_strcat2         000000014004d35c     pjlib-x86_64-x64-vc14-release:string.obj
 0002:0000d364       $chain$0$pj_strcat2        000000014004d364     pjlib-x86_64-x64-vc14-release:string.obj
 0002:0000d378       $chain$1$pj_strcat2        000000014004d378     pjlib-x86_64-x64-vc14-release:string.obj
 0002:0000d388       $unwind$pj_strspn2         000000014004d388     pjlib-x86_64-x64-vc14-release:string.obj
 0002:0000d398       $chain$1$pj_strstr         000000014004d398     pjlib-x86_64-x64-vc14-release:string.obj
 0002:0000d3b0       $chain$3$pj_strstr         000000014004d3b0     pjlib-x86_64-x64-vc14-release:string.obj
 0002:0000d3c8       $unwind$pj_strtol2         000000014004d3c8     pjlib-x86_64-x64-vc14-release:string.obj
 0002:0000d3d8       $chain$0$pj_strtol2        000000014004d3d8     pjlib-x86_64-x64-vc14-release:string.obj
 0002:0000d3ec       $chain$2$pj_strtol2        000000014004d3ec     pjlib-x86_64-x64-vc14-release:string.obj
 0002:0000d404       $chain$3$pj_strtol2        000000014004d404     pjlib-x86_64-x64-vc14-release:string.obj
 0002:0000d418       $chain$4$pj_strtol2        000000014004d418     pjlib-x86_64-x64-vc14-release:string.obj
 0002:0000d42c       $chain$5$pj_strtol2        000000014004d42c     pjlib-x86_64-x64-vc14-release:string.obj
 0002:0000d43c       $chain$7$pj_strtol2        000000014004d43c     pjlib-x86_64-x64-vc14-release:string.obj
 0002:0000d454       $chain$8$pj_strtol2        000000014004d454     pjlib-x86_64-x64-vc14-release:string.obj
 0002:0000d464       $unwind$pjsip_timer_process_resp 000000014004d464     pjsip-ua-x86_64-x64-vc14-release:sip_timer.obj
 0002:0000d464       $unwind$pj_strtoul         000000014004d464     pjlib-x86_64-x64-vc14-release:string.obj
 0002:0000d464       $unwind$handle_uac_tsx_response 000000014004d464     pjsip-ua-x86_64-x64-vc14-release:sip_inv.obj
 0002:0000d464       $unwind$udp_destroy        000000014004d464     pjsip-core-x86_64-x64-vc14-release:sip_transport_udp.obj
 0002:0000d474       $chain$0$pj_strtoul        000000014004d474     pjlib-x86_64-x64-vc14-release:string.obj
 0002:0000d488       $chain$1$pj_strtoul        000000014004d488     pjlib-x86_64-x64-vc14-release:string.obj
 0002:0000d498       $unwind$pj_strtoul2        000000014004d498     pjlib-x86_64-x64-vc14-release:string.obj
 0002:0000d4a8       $chain$1$pj_strtoul2       000000014004d4a8     pjlib-x86_64-x64-vc14-release:string.obj
 0002:0000d4c0       $chain$2$pj_strtoul2       000000014004d4c0     pjlib-x86_64-x64-vc14-release:string.obj
 0002:0000d4d0       $unwind$pj_strtoul3        000000014004d4d0     pjlib-x86_64-x64-vc14-release:string.obj
 0002:0000d4dc       $chain$1$pj_strtoul3       000000014004d4dc     pjlib-x86_64-x64-vc14-release:string.obj
 0002:0000d4f4       $chain$2$pj_strtoul3       000000014004d4f4     pjlib-x86_64-x64-vc14-release:string.obj
 0002:0000d508       $chain$3$pj_strtoul3       000000014004d508     pjlib-x86_64-x64-vc14-release:string.obj
 0002:0000d518       $chain$5$pj_strtoul3       000000014004d518     pjlib-x86_64-x64-vc14-release:string.obj
 0002:0000d530       $chain$6$pj_strtoul3       000000014004d530     pjlib-x86_64-x64-vc14-release:string.obj
 0002:0000d540       $unwind$pj_log             000000014004d540     pjlib-x86_64-x64-vc14-release:log.obj
 0002:0000d55c       $chain$1$pj_log            000000014004d55c     pjlib-x86_64-x64-vc14-release:log.obj
 0002:0000d574       $chain$2$pj_log            000000014004d574     pjlib-x86_64-x64-vc14-release:log.obj
 0002:0000d574       $chain$4$pj_log            000000014004d574     pjlib-x86_64-x64-vc14-release:log.obj
 0002:0000d588       $chain$3$pj_log            000000014004d588     pjlib-x86_64-x64-vc14-release:log.obj
 0002:0000d598       $unwind$pj_log_2           000000014004d598     pjlib-x86_64-x64-vc14-release:log.obj
 0002:0000d598       $unwind$pj_log_1           000000014004d598     pjlib-x86_64-x64-vc14-release:log.obj
 0002:0000d598       $unwind$pj_log_5           000000014004d598     pjlib-x86_64-x64-vc14-release:log.obj
 0002:0000d598       $unwind$pj_log_3           000000014004d598     pjlib-x86_64-x64-vc14-release:log.obj
 0002:0000d598       $unwind$pj_log_4           000000014004d598     pjlib-x86_64-x64-vc14-release:log.obj
 0002:0000d5a0       $unwind$pj_inet_aton       000000014004d5a0     pjlib-x86_64-x64-vc14-release:sock_bsd.obj
 0002:0000d5b4       $unwind$pj_inet_pton       000000014004d5b4     pjlib-x86_64-x64-vc14-release:sock_bsd.obj
 0002:0000d5c8       $chain$0$pj_inet_pton      000000014004d5c8     pjlib-x86_64-x64-vc14-release:sock_bsd.obj
 0002:0000d5dc       $chain$1$pj_inet_pton      000000014004d5dc     pjlib-x86_64-x64-vc14-release:sock_bsd.obj
 0002:0000d5dc       $chain$3$pj_inet_pton      000000014004d5dc     pjlib-x86_64-x64-vc14-release:sock_bsd.obj
 0002:0000d5ec       $chain$2$pj_inet_pton      000000014004d5ec     pjlib-x86_64-x64-vc14-release:sock_bsd.obj
 0002:0000d5ec       $chain$4$pj_inet_pton      000000014004d5ec     pjlib-x86_64-x64-vc14-release:sock_bsd.obj
 0002:0000d600       $unwind$pj_inet_ntop       000000014004d600     pjlib-x86_64-x64-vc14-release:sock_bsd.obj
 0002:0000d610       $chain$0$pj_gethostname    000000014004d610     pjlib-x86_64-x64-vc14-release:sock_bsd.obj
 0002:0000d624       $chain$2$pj_gethostname    000000014004d624     pjlib-x86_64-x64-vc14-release:sock_bsd.obj
 0002:0000d638       $chain$3$pj_gethostname    000000014004d638     pjlib-x86_64-x64-vc14-release:sock_bsd.obj
 0002:0000d648       $unwind$pj_sock_socket     000000014004d648     pjlib-x86_64-x64-vc14-release:sock_bsd.obj
 0002:0000d65c       $unwind$pj_sock_setsockopt_params 000000014004d65c     pjlib-x86_64-x64-vc14-release:sock_bsd.obj
 0002:0000d668       $chain$4$pj_sock_setsockopt_params 000000014004d668     pjlib-x86_64-x64-vc14-release:sock_bsd.obj
 0002:0000d68c       $chain$5$pj_sock_setsockopt_params 000000014004d68c     pjlib-x86_64-x64-vc14-release:sock_bsd.obj
 0002:0000d69c       $unwind$MyGetAdapterAddresses 000000014004d69c     pjlib-x86_64-x64-vc14-release:ip_helper_win32.obj
 0002:0000d69c       $unwind$pj_sock_sendto     000000014004d69c     pjlib-x86_64-x64-vc14-release:sock_bsd.obj
 0002:0000d69c       $unwind$int_parse_hparam   000000014004d69c     pjsip-core-x86_64-x64-vc14-release:sip_parser.obj
 0002:0000d69c       $unwind$int_parse_name_addr 000000014004d69c     pjsip-core-x86_64-x64-vc14-release:sip_parser.obj
 0002:0000d69c       $unwind$pj_sock_recvfrom   000000014004d69c     pjlib-x86_64-x64-vc14-release:sock_bsd.obj
 0002:0000d69c       $unwind$pjsip_parse_param_imp 000000014004d69c     pjsip-core-x86_64-x64-vc14-release:sip_parser.obj
 0002:0000d69c       $unwind$pj_sock_getsockopt 000000014004d69c     pjlib-x86_64-x64-vc14-release:sock_bsd.obj
 0002:0000d69c       $unwind$sdp_media_clone_deactivate 000000014004d69c     pjmedia-x86_64-x64-vc14-release:sdp_neg.obj
 0002:0000d69c       $unwind$remove_node        000000014004d69c     pjlib-x86_64-x64-vc14-release:timer.obj
 0002:0000d69c       $unwind$int_parse_uri_or_name_addr 000000014004d69c     pjsip-core-x86_64-x64-vc14-release:sip_parser.obj
 0002:0000d69c       $unwind$pjsip_endpt_schedule_timer_dbg 000000014004d69c     pjsip-core-x86_64-x64-vc14-release:sip_endpoint.obj
 0002:0000d69c       $unwind$int_parse_user_pass 000000014004d69c     pjsip-core-x86_64-x64-vc14-release:sip_parser.obj
 0002:0000d69c       $unwind$pj_sock_setsockopt 000000014004d69c     pjlib-x86_64-x64-vc14-release:sock_bsd.obj
 0002:0000d6b0       $unwind$pj_grp_lock_create 000000014004d6b0     pjlib-x86_64-x64-vc14-release:lock.obj
 0002:0000d6b8       $chain$0$pj_grp_lock_create 000000014004d6b8     pjlib-x86_64-x64-vc14-release:lock.obj
 0002:0000d6cc       $chain$6$pj_grp_lock_create 000000014004d6cc     pjlib-x86_64-x64-vc14-release:lock.obj
 0002:0000d6f0       $chain$8$pj_grp_lock_create 000000014004d6f0     pjlib-x86_64-x64-vc14-release:lock.obj
 0002:0000d714       $chain$9$pj_grp_lock_create 000000014004d714     pjlib-x86_64-x64-vc14-release:lock.obj
 0002:0000d724       $unwind$pj_exception_id_name 000000014004d724     pjlib-x86_64-x64-vc14-release:except.obj
 0002:0000d724       $unwind$pj_get_netos_error 000000014004d724     pjlib-x86_64-x64-vc14-release:os_error_win32.obj
 0002:0000d724       $unwind$pjsip_target_assign_status 000000014004d724     pjsip-core-x86_64-x64-vc14-release:sip_util.obj
 0002:0000d724       $unwind$pjsip_100rel_send_prack 000000014004d724     pjsip-ua-x86_64-x64-vc14-release:sip_100rel.obj
 0002:0000d724       $unwind$deinit_sip_parser  000000014004d724     pjsip-core-x86_64-x64-vc14-release:sip_parser.obj
 0002:0000d724       $unwind$pool_callback      000000014004d724     pjsip-core-x86_64-x64-vc14-release:sip_endpoint.obj
 0002:0000d724       $unwind$pj_log_pop_indent  000000014004d724     pjlib-x86_64-x64-vc14-release:log.obj
 0002:0000d724       $unwind$init_sip_parser    000000014004d724     pjsip-core-x86_64-x64-vc14-release:sip_parser.obj
 0002:0000d724       $unwind$__scrt_acquire_startup_lock 000000014004d724     MSVCRT:utility.obj
 0002:0000d724       $unwind$pjsip_proxy_authenticate_hdr_create 000000014004d724     pjsip-core-x86_64-x64-vc14-release:sip_auth_msg.obj
 0002:0000d724       $unwind$pj_log_push_indent 000000014004d724     pjlib-x86_64-x64-vc14-release:log.obj
 0002:0000d724       $unwind$pj_scan_peek       000000014004d724     pjlib-util-x86_64-x64-vc14-release:scanner.obj
 0002:0000d724       $unwind$pjsip_www_authenticate_hdr_create 000000014004d724     pjsip-core-x86_64-x64-vc14-release:sip_auth_msg.obj
 0002:0000d724       $unwind$tel_uri_get_scheme 000000014004d724     pjsip-core-x86_64-x64-vc14-release:sip_tel_uri.obj
 0002:0000d724       $unwind$mod_ua_load        000000014004d724     pjsip-core-x86_64-x64-vc14-release:sip_ua_layer.obj
 0002:0000d724       $unwind$pool_buf_cleanup   000000014004d724     pjlib-x86_64-x64-vc14-release:pool_buf.obj
 0002:0000d724       $unwind$pjsip_get_status_text 000000014004d724     pjsip-core-x86_64-x64-vc14-release:sip_msg.obj
 0002:0000d724       $unwind$logging_shutdown   000000014004d724     pjlib-x86_64-x64-vc14-release:log.obj
 0002:0000d724       $unwind$pj_thread_init     000000014004d724     pjlib-x86_64-x64-vc14-release:os_core_win32.obj
 0002:0000d724       $unwind$pjsip_unsupported_hdr_create 000000014004d724     pjsip-core-x86_64-x64-vc14-release:sip_msg.obj
 0002:0000d724       $unwind$pjsip_supported_hdr_create 000000014004d724     pjsip-core-x86_64-x64-vc14-release:sip_msg.obj
 0002:0000d724       $unwind$__scrt_is_managed_app 000000014004d724     MSVCRT:utility_desktop.obj
 0002:0000d724       $unwind$pjsip_require_hdr_create 000000014004d724     pjsip-core-x86_64-x64-vc14-release:sip_msg.obj
 0002:0000d724       $unwind$tsx_layer_destroy  000000014004d724     pjsip-core-x86_64-x64-vc14-release:sip_transaction.obj
 0002:0000d724       $unwind$pjsip_tel_uri_subsys_init 000000014004d724     pjsip-core-x86_64-x64-vc14-release:sip_tel_uri.obj
 0002:0000d724       $unwind$pjsip_auth_init_parser 000000014004d724     pjsip-core-x86_64-x64-vc14-release:sip_auth_parser.obj
 0002:0000d724       $unwind$pjsip_authorization_hdr_create 000000014004d724     pjsip-core-x86_64-x64-vc14-release:sip_auth_msg.obj
 0002:0000d724       $unwind$mod_ua_unload      000000014004d724     pjsip-core-x86_64-x64-vc14-release:sip_ua_layer.obj
 0002:0000d724       $unwind$atexit             000000014004d724     MSVCRT:utility.obj
 0002:0000d724       $unwind$__scrt_unhandled_exception_filter 000000014004d724     MSVCRT:utility_desktop.obj
 0002:0000d724       $unwind$on_syntax_error    000000014004d724     pjsip-core-x86_64-x64-vc14-release:sip_parser.obj
 0002:0000d724       $unwind$pjsip_cid_hdr_create 000000014004d724     pjsip-core-x86_64-x64-vc14-release:sip_msg.obj
 0002:0000d724       $unwind$pjsip_clen_hdr_create 000000014004d724     pjsip-core-x86_64-x64-vc14-release:sip_msg.obj
 0002:0000d724       $unwind$pjsip_timer_end_session 000000014004d724     pjsip-ua-x86_64-x64-vc14-release:sip_timer.obj
 0002:0000d724       $unwind$default_pool_callback 000000014004d724     pjlib-x86_64-x64-vc14-release:pool_policy_malloc.obj
 0002:0000d724       $unwind$mod_tsx_layer_unload 000000014004d724     pjsip-core-x86_64-x64-vc14-release:sip_transaction.obj
 0002:0000d724       $unwind$pj_grp_lock_add_ref 000000014004d724     pjlib-x86_64-x64-vc14-release:lock.obj
 0002:0000d724       $unwind$pjsip_other_uri_create 000000014004d724     pjsip-core-x86_64-x64-vc14-release:sip_uri.obj
 0002:0000d724       $unwind$pjsip_multipart_add_part 000000014004d724     pjsip-core-x86_64-x64-vc14-release:sip_multipart.obj
 0002:0000d724       $unwind$pjsip_accept_hdr_create 000000014004d724     pjsip-core-x86_64-x64-vc14-release:sip_msg.obj
 0002:0000d724       $unwind$pjsip_allow_hdr_create 000000014004d724     pjsip-core-x86_64-x64-vc14-release:sip_msg.obj
 0002:0000d724       $unwind$pjsip_name_addr_create 000000014004d724     pjsip-core-x86_64-x64-vc14-release:sip_uri.obj
 0002:0000d724       $unwind$init_sdp_parser    000000014004d724     pjmedia-x86_64-x64-vc14-release:sdp.obj
 0002:0000d724       $unwind$mainCRTStartup     000000014004d724     MSVCRT:exe_main.obj
 0002:0000d724       $unwind$on_scanner_error   000000014004d724     pjmedia-x86_64-x64-vc14-release:sdp.obj
 0002:0000d724       $unwind$pj_thread_local_set 000000014004d724     pjlib-x86_64-x64-vc14-release:os_core_win32.obj
 0002:0000d724       $unwind$pj_gethostname     000000014004d724     pjlib-x86_64-x64-vc14-release:sock_bsd.obj
 0002:0000d724       $unwind$pjsip_proxy_authorization_hdr_create 000000014004d724     pjsip-core-x86_64-x64-vc14-release:sip_auth_msg.obj
 0002:0000d724       $unwind$unload_iphlp_module 000000014004d724     pjlib-x86_64-x64-vc14-release:ip_helper_win32.obj
 0002:0000d724       $unwind$?pre_cpp_initialization@@YAXXZ 000000014004d724     MSVCRT:exe_main.obj
 0002:0000d724       $unwind$__GSHandlerCheck   000000014004d724     MSVCRT:_gshandler_.obj
 0002:0000d724       $unwind$pjsip_inv_add_ref  000000014004d724     pjsip-ua-x86_64-x64-vc14-release:sip_inv.obj
 0002:0000d724       $unwind$__report_rangecheckfailure 000000014004d724     MSVCRT:gs_report.obj
 0002:0000d724       $unwind$pjsip_100rel_is_reliable 000000014004d724     pjsip-ua-x86_64-x64-vc14-release:sip_100rel.obj
 0002:0000d724       $unwind$__scrt_initialize_default_local_stdio_options 000000014004d724     MSVCRT:default_local_stdio_options.obj
 0002:0000d724       $unwind$?post_pgo_initialization@@YAHXZ 000000014004d724     MSVCRT:exe_main.obj
 0002:0000d724       $unwind$pjsip_cseq_hdr_create 000000014004d724     pjsip-core-x86_64-x64-vc14-release:sip_msg.obj
 0002:0000d72c       $unwind$create_mutex_lock  000000014004d72c     pjlib-x86_64-x64-vc14-release:lock.obj
 0002:0000d72c       $unwind$pjsip_endpt_register_module 000000014004d72c     pjsip-core-x86_64-x64-vc14-release:sip_endpoint.obj
 0002:0000d73c       $chain$0$create_mutex_lock 000000014004d73c     pjlib-x86_64-x64-vc14-release:lock.obj
 0002:0000d750       $chain$2$create_mutex_lock 000000014004d750     pjlib-x86_64-x64-vc14-release:lock.obj
 0002:0000d764       $chain$3$create_mutex_lock 000000014004d764     pjlib-x86_64-x64-vc14-release:lock.obj
 0002:0000d774       $unwind$pjsip_tx_data_create 000000014004d774     pjsip-core-x86_64-x64-vc14-release:sip_transport.obj
 0002:0000d774       $unwind$grp_lock_destroy   000000014004d774     pjlib-x86_64-x64-vc14-release:lock.obj
 0002:0000d780       $chain$0$grp_lock_destroy  000000014004d780     pjlib-x86_64-x64-vc14-release:lock.obj
 0002:0000d794       $chain$2$grp_lock_destroy  000000014004d794     pjlib-x86_64-x64-vc14-release:lock.obj
 0002:0000d7ac       $chain$3$grp_lock_destroy  000000014004d7ac     pjlib-x86_64-x64-vc14-release:lock.obj
 0002:0000d7c0       $chain$4$grp_lock_destroy  000000014004d7c0     pjlib-x86_64-x64-vc14-release:lock.obj
 0002:0000d7d0       $unwind$pj_timer_heap_create 000000014004d7d0     pjlib-x86_64-x64-vc14-release:timer.obj
 0002:0000d7e0       $chain$1$pj_timer_heap_create 000000014004d7e0     pjlib-x86_64-x64-vc14-release:timer.obj
 0002:0000d7f8       $chain$3$pj_timer_heap_create 000000014004d7f8     pjlib-x86_64-x64-vc14-release:timer.obj
 0002:0000d810       $chain$4$pj_timer_heap_create 000000014004d810     pjlib-x86_64-x64-vc14-release:timer.obj
 0002:0000d820       $unwind$pj_strnicmp        000000014004d820     pjlib-x86_64-x64-vc14-release:string.obj
 0002:0000d820       $unwind$pj_timer_heap_schedule_w_grp_lock_dbg 000000014004d820     pjlib-x86_64-x64-vc14-release:timer.obj
 0002:0000d820       $unwind$pj_timer_heap_schedule_dbg 000000014004d820     pjlib-x86_64-x64-vc14-release:timer.obj
 0002:0000d820       $unwind$mod_tsx_layer_stop 000000014004d820     pjsip-core-x86_64-x64-vc14-release:sip_transaction.obj
 0002:0000d828       $unwind$pj_timer_heap_poll 000000014004d828     pjlib-x86_64-x64-vc14-release:timer.obj
 0002:0000d83c       $chain$2$pj_timer_heap_poll 000000014004d83c     pjlib-x86_64-x64-vc14-release:timer.obj
 0002:0000d854       $chain$3$pj_timer_heap_poll 000000014004d854     pjlib-x86_64-x64-vc14-release:timer.obj
 0002:0000d864       $unwind$pj_timer_heap_dump 000000014004d864     pjlib-x86_64-x64-vc14-release:timer.obj
 0002:0000d86c       $chain$0$pj_timer_heap_dump 000000014004d86c     pjlib-x86_64-x64-vc14-release:timer.obj
 0002:0000d880       $chain$2$pj_timer_heap_dump 000000014004d880     pjlib-x86_64-x64-vc14-release:timer.obj
 0002:0000d898       $chain$3$pj_timer_heap_dump 000000014004d898     pjlib-x86_64-x64-vc14-release:timer.obj
 0002:0000d8ac       $chain$4$pj_timer_heap_dump 000000014004d8ac     pjlib-x86_64-x64-vc14-release:timer.obj
 0002:0000d8bc       $chain$5$pj_timer_heap_dump 000000014004d8bc     pjlib-x86_64-x64-vc14-release:timer.obj
 0002:0000d8cc       $chain$6$pj_timer_heap_dump 000000014004d8cc     pjlib-x86_64-x64-vc14-release:timer.obj
 0002:0000d8dc       $chain$0$reheap_down       000000014004d8dc     pjlib-x86_64-x64-vc14-release:timer.obj
 0002:0000d8f0       $chain$1$reheap_down       000000014004d8f0     pjlib-x86_64-x64-vc14-release:timer.obj
 0002:0000d900       $unwind$pjsip_param_clone  000000014004d900     pjsip-core-x86_64-x64-vc14-release:sip_uri.obj
 0002:0000d900       $unwind$reheap_up          000000014004d900     pjlib-x86_64-x64-vc14-release:timer.obj
 0002:0000d900       $unwind$reheap_down        000000014004d900     pjlib-x86_64-x64-vc14-release:timer.obj
 0002:0000d900       $unwind$pj_hash_calc_tolower 000000014004d900     pjlib-x86_64-x64-vc14-release:hash.obj
 0002:0000d914       $chain$0$reheap_up         000000014004d914     pjlib-x86_64-x64-vc14-release:timer.obj
 0002:0000d928       $chain$1$reheap_up         000000014004d928     pjlib-x86_64-x64-vc14-release:timer.obj
 0002:0000d938       $unwind$grow_heap          000000014004d938     pjlib-x86_64-x64-vc14-release:timer.obj
 0002:0000d94c       $chain$0$schedule_w_grp_lock_dbg 000000014004d94c     pjlib-x86_64-x64-vc14-release:timer.obj
 0002:0000d960       $chain$1$schedule_w_grp_lock_dbg 000000014004d960     pjlib-x86_64-x64-vc14-release:timer.obj
 0002:0000d970       $unwind$cancel_timer       000000014004d970     pjlib-x86_64-x64-vc14-release:timer.obj
 0002:0000d980       $chain$1$cancel_timer      000000014004d980     pjlib-x86_64-x64-vc14-release:timer.obj
 0002:0000d998       $chain$2$cancel_timer      000000014004d998     pjlib-x86_64-x64-vc14-release:timer.obj
 0002:0000d9ac       $chain$3$cancel_timer      000000014004d9ac     pjlib-x86_64-x64-vc14-release:timer.obj
 0002:0000d9bc       $unwind$pj_gettimeofday    000000014004d9bc     pjlib-x86_64-x64-vc14-release:os_time_win32.obj
 0002:0000d9bc       $unwind$pjsip_rx_data_get_info 000000014004d9bc     pjsip-core-x86_64-x64-vc14-release:sip_transport.obj
 0002:0000d9cc       $unwind$pj_time_decode     000000014004d9cc     pjlib-x86_64-x64-vc14-release:os_time_win32.obj
 0002:0000d9e0       $unwind$get_base_time      000000014004d9e0     pjlib-x86_64-x64-vc14-release:os_time_win32.obj
 0002:0000d9f0       $unwind$pj_ioqueue_create  000000014004d9f0     pjlib-x86_64-x64-vc14-release:ioqueue_select.obj
 0002:0000d9fc       $chain$1$pj_ioqueue_create 000000014004d9fc     pjlib-x86_64-x64-vc14-release:ioqueue_select.obj
 0002:0000da14       $chain$4$pj_ioqueue_create 000000014004da14     pjlib-x86_64-x64-vc14-release:ioqueue_select.obj
 0002:0000da30       $chain$5$pj_ioqueue_create 000000014004da30     pjlib-x86_64-x64-vc14-release:ioqueue_select.obj
 0002:0000da40       $chain$7$pj_ioqueue_create 000000014004da40     pjlib-x86_64-x64-vc14-release:ioqueue_select.obj
 0002:0000da64       $chain$8$pj_ioqueue_create 000000014004da64     pjlib-x86_64-x64-vc14-release:ioqueue_select.obj
 0002:0000da74       $unwind$pjsip_auth_clt_deinit 000000014004da74     pjsip-core-x86_64-x64-vc14-release:sip_auth_client.obj
 0002:0000da74       $unwind$pj_ioqueue_destroy 000000014004da74     pjlib-x86_64-x64-vc14-release:ioqueue_select.obj
 0002:0000da74       $unwind$pjsip_transport_get_type_from_name 000000014004da74     pjsip-core-x86_64-x64-vc14-release:sip_transport.obj
 0002:0000da74       $unwind$pjsip_endpt_destroy 000000014004da74     pjsip-core-x86_64-x64-vc14-release:sip_endpoint.obj
 0002:0000da74       $unwind$decrement_counter  000000014004da74     pjlib-x86_64-x64-vc14-release:ioqueue_select.obj
 0002:0000da74       $unwind$pj_strcmp          000000014004da74     pjlib-x86_64-x64-vc14-release:string.obj
 0002:0000da74       $unwind$pj_ioqueue_connect 000000014004da74     pjlib-x86_64-x64-vc14-release:ioqueue_select.obj
 0002:0000da74       $unwind$exception_cleanup  000000014004da74     pjlib-x86_64-x64-vc14-release:except.obj
 0002:0000da7c       $chain$1$pj_ioqueue_destroy 000000014004da7c     pjlib-x86_64-x64-vc14-release:ioqueue_select.obj
 0002:0000da94       $chain$2$pj_ioqueue_destroy 000000014004da94     pjlib-x86_64-x64-vc14-release:ioqueue_select.obj
 0002:0000daa4       $unwind$pj_ioqueue_register_sock2 000000014004daa4     pjlib-x86_64-x64-vc14-release:ioqueue_select.obj
 0002:0000dabc       $chain$0$pj_ioqueue_unregister 000000014004dabc     pjlib-x86_64-x64-vc14-release:ioqueue_select.obj
 0002:0000dad0       $chain$4$pj_ioqueue_unregister 000000014004dad0     pjlib-x86_64-x64-vc14-release:ioqueue_select.obj
 0002:0000dad0       $chain$2$pj_ioqueue_unregister 000000014004dad0     pjlib-x86_64-x64-vc14-release:ioqueue_select.obj
 0002:0000dae4       $unwind$pj_ioqueue_accept  000000014004dae4     pjlib-x86_64-x64-vc14-release:ioqueue_select.obj
 0002:0000daf4       $chain$2$pj_ioqueue_accept 000000014004daf4     pjlib-x86_64-x64-vc14-release:ioqueue_select.obj
 0002:0000db10       $chain$4$pj_ioqueue_accept 000000014004db10     pjlib-x86_64-x64-vc14-release:ioqueue_select.obj
 0002:0000db2c       $chain$5$pj_ioqueue_accept 000000014004db2c     pjlib-x86_64-x64-vc14-release:ioqueue_select.obj
 0002:0000db3c       $chain$0$pj_ioqueue_connect 000000014004db3c     pjlib-x86_64-x64-vc14-release:ioqueue_select.obj
 0002:0000db50       $chain$1$pj_ioqueue_connect 000000014004db50     pjlib-x86_64-x64-vc14-release:ioqueue_select.obj
 0002:0000db60       $unwind$pj_ioqueue_poll    000000014004db60     pjlib-x86_64-x64-vc14-release:ioqueue_select.obj
 0002:0000db74       $chain$0$pj_ioqueue_poll   000000014004db74     pjlib-x86_64-x64-vc14-release:ioqueue_select.obj
 0002:0000db88       $chain$1$pj_ioqueue_poll   000000014004db88     pjlib-x86_64-x64-vc14-release:ioqueue_select.obj
 0002:0000db9c       $chain$4$pj_ioqueue_poll   000000014004db9c     pjlib-x86_64-x64-vc14-release:ioqueue_select.obj
 0002:0000dbb8       $chain$5$pj_ioqueue_poll   000000014004dbb8     pjlib-x86_64-x64-vc14-release:ioqueue_select.obj
 0002:0000dbcc       $chain$6$pj_ioqueue_poll   000000014004dbcc     pjlib-x86_64-x64-vc14-release:ioqueue_select.obj
 0002:0000dbdc       $chain$7$pj_ioqueue_poll   000000014004dbdc     pjlib-x86_64-x64-vc14-release:ioqueue_select.obj
 0002:0000dbf0       $chain$8$pj_ioqueue_poll   000000014004dbf0     pjlib-x86_64-x64-vc14-release:ioqueue_select.obj
 0002:0000dc00       $chain$9$pj_ioqueue_poll   000000014004dc00     pjlib-x86_64-x64-vc14-release:ioqueue_select.obj
 0002:0000dc10       $unwind$schedule_w_grp_lock_dbg 000000014004dc10     pjlib-x86_64-x64-vc14-release:timer.obj
 0002:0000dc10       $unwind$pj_ioqueue_recv    000000014004dc10     pjlib-x86_64-x64-vc14-release:ioqueue_select.obj
 0002:0000dc20       $chain$0$pj_ioqueue_recv   000000014004dc20     pjlib-x86_64-x64-vc14-release:ioqueue_select.obj
 0002:0000dc34       $chain$2$pj_ioqueue_recv   000000014004dc34     pjlib-x86_64-x64-vc14-release:ioqueue_select.obj
 0002:0000dc48       $chain$3$pj_ioqueue_recv   000000014004dc48     pjlib-x86_64-x64-vc14-release:ioqueue_select.obj
 0002:0000dc58       $unwind$pj_ioqueue_recvfrom 000000014004dc58     pjlib-x86_64-x64-vc14-release:ioqueue_select.obj
 0002:0000dc68       $chain$2$pj_ioqueue_recvfrom 000000014004dc68     pjlib-x86_64-x64-vc14-release:ioqueue_select.obj
 0002:0000dc84       $chain$4$pj_ioqueue_recvfrom 000000014004dc84     pjlib-x86_64-x64-vc14-release:ioqueue_select.obj
 0002:0000dca0       $chain$5$pj_ioqueue_recvfrom 000000014004dca0     pjlib-x86_64-x64-vc14-release:ioqueue_select.obj
 0002:0000dcb0       $unwind$pj_ioqueue_send    000000014004dcb0     pjlib-x86_64-x64-vc14-release:ioqueue_select.obj
 0002:0000dcc0       $chain$1$pj_ioqueue_send   000000014004dcc0     pjlib-x86_64-x64-vc14-release:ioqueue_select.obj
 0002:0000dcd8       $chain$2$pj_ioqueue_send   000000014004dcd8     pjlib-x86_64-x64-vc14-release:ioqueue_select.obj
 0002:0000dcec       $chain$3$pj_ioqueue_send   000000014004dcec     pjlib-x86_64-x64-vc14-release:ioqueue_select.obj
 0002:0000dcfc       $chain$5$pj_ioqueue_send   000000014004dcfc     pjlib-x86_64-x64-vc14-release:ioqueue_select.obj
 0002:0000dd18       $chain$6$pj_ioqueue_send   000000014004dd18     pjlib-x86_64-x64-vc14-release:ioqueue_select.obj
 0002:0000dd28       $unwind$pj_ioqueue_sendto  000000014004dd28     pjlib-x86_64-x64-vc14-release:ioqueue_select.obj
 0002:0000dd38       $chain$2$pj_ioqueue_sendto 000000014004dd38     pjlib-x86_64-x64-vc14-release:ioqueue_select.obj
 0002:0000dd54       $chain$3$pj_ioqueue_sendto 000000014004dd54     pjlib-x86_64-x64-vc14-release:ioqueue_select.obj
 0002:0000dd68       $chain$4$pj_ioqueue_sendto 000000014004dd68     pjlib-x86_64-x64-vc14-release:ioqueue_select.obj
 0002:0000dd78       $chain$6$pj_ioqueue_sendto 000000014004dd78     pjlib-x86_64-x64-vc14-release:ioqueue_select.obj
 0002:0000dd98       $chain$7$pj_ioqueue_sendto 000000014004dd98     pjlib-x86_64-x64-vc14-release:ioqueue_select.obj
 0002:0000dda8       $unwind$ioqueue_dispatch_write_event 000000014004dda8     pjlib-x86_64-x64-vc14-release:ioqueue_select.obj
 0002:0000ddc0       $unwind$ioqueue_dispatch_read_event 000000014004ddc0     pjlib-x86_64-x64-vc14-release:ioqueue_select.obj
 0002:0000ddd8       $unwind$pjsip_timer_handle_refresh_error 000000014004ddd8     pjsip-ua-x86_64-x64-vc14-release:sip_timer.obj
 0002:0000ddd8       $unwind$ioqueue_dispatch_exception_event 000000014004ddd8     pjlib-x86_64-x64-vc14-release:ioqueue_select.obj
 0002:0000dde4       $chain$0$ioqueue_dispatch_exception_event 000000014004dde4     pjlib-x86_64-x64-vc14-release:ioqueue_select.obj
 0002:0000ddf8       $chain$1$ioqueue_dispatch_exception_event 000000014004ddf8     pjlib-x86_64-x64-vc14-release:ioqueue_select.obj
 0002:0000de08       $unwind$scan_closing_keys  000000014004de08     pjlib-x86_64-x64-vc14-release:ioqueue_select.obj
 0002:0000de18       $chain$0$scan_closing_keys 000000014004de18     pjlib-x86_64-x64-vc14-release:ioqueue_select.obj
 0002:0000de2c       $chain$1$scan_closing_keys 000000014004de2c     pjlib-x86_64-x64-vc14-release:ioqueue_select.obj
 0002:0000de3c       $chain$0$decrement_counter 000000014004de3c     pjlib-x86_64-x64-vc14-release:ioqueue_select.obj
 0002:0000de50       $chain$1$decrement_counter 000000014004de50     pjlib-x86_64-x64-vc14-release:ioqueue_select.obj
 0002:0000de60       $unwind$pj_mutex_create_recursive 000000014004de60     pjlib-x86_64-x64-vc14-release:os_core_win32.obj
 0002:0000de60       $unwind$pjsip_inv_send_msg 000000014004de60     pjsip-ua-x86_64-x64-vc14-release:sip_inv.obj
 0002:0000de60       $unwind$pj_throw_exception_ 000000014004de60     pjlib-x86_64-x64-vc14-release:except.obj
 0002:0000de60       $unwind$pj_mutex_create    000000014004de60     pjlib-x86_64-x64-vc14-release:os_core_win32.obj
 0002:0000de60       $unwind$pj_md5_final       000000014004de60     pjlib-util-x86_64-x64-vc14-release:md5.obj
 0002:0000de60       $unwind$pjlib_error        000000014004de60     pjlib-x86_64-x64-vc14-release:errno.obj
 0002:0000de60       $unwind$pjsip_endpt_atexit 000000014004de60     pjsip-core-x86_64-x64-vc14-release:sip_endpoint.obj
 0002:0000de60       $unwind$pjsip_timer_update_resp 000000014004de60     pjsip-ua-x86_64-x64-vc14-release:sip_timer.obj
 0002:0000de60       $unwind$pj_mutex_create_simple 000000014004de60     pjlib-x86_64-x64-vc14-release:os_core_win32.obj
 0002:0000de60       $unwind$pjsip_tsx_set_transport 000000014004de60     pjsip-core-x86_64-x64-vc14-release:sip_transaction.obj
 0002:0000de6c       $chain$0$pj_throw_exception_ 000000014004de6c     pjlib-x86_64-x64-vc14-release:except.obj
 0002:0000de80       $chain$1$pj_throw_exception_ 000000014004de80     pjlib-x86_64-x64-vc14-release:except.obj
 0002:0000de90       $chain$0$pj_hash_calc_tolower 000000014004de90     pjlib-x86_64-x64-vc14-release:hash.obj
 0002:0000dea4       $chain$1$pj_hash_calc_tolower 000000014004dea4     pjlib-x86_64-x64-vc14-release:hash.obj
 0002:0000deb4       $unwind$pj_hash_set_np_lower 000000014004deb4     pjlib-x86_64-x64-vc14-release:hash.obj
 0002:0000deb4       $unwind$pj_hash_set_np     000000014004deb4     pjlib-x86_64-x64-vc14-release:hash.obj
 0002:0000deb4       $unwind$pj_hash_get_lower  000000014004deb4     pjlib-x86_64-x64-vc14-release:hash.obj
 0002:0000ded0       $unwind$pj_hash_set        000000014004ded0     pjlib-x86_64-x64-vc14-release:hash.obj
 0002:0000deec       $unwind$pj_hash_set_lower  000000014004deec     pjlib-x86_64-x64-vc14-release:hash.obj
 0002:0000df04       $unwind$pj_generate_unique_string 000000014004df04     pjlib-x86_64-x64-vc14-release:guid_win32.obj
 0002:0000df1c       $unwind$pj_sock_apply_qos  000000014004df1c     pjlib-x86_64-x64-vc14-release:sock_qos_common.obj
 0002:0000df1c       $unwind$pjsip_via_hdr_print 000000014004df1c     pjsip-core-x86_64-x64-vc14-release:sip_msg.obj
 0002:0000df38       $unwind$pj_activesock_create 000000014004df38     pjlib-x86_64-x64-vc14-release:activesock.obj
 0002:0000df4c       $chain$0$pj_activesock_create 000000014004df4c     pjlib-x86_64-x64-vc14-release:activesock.obj
 0002:0000df60       $chain$1$pj_activesock_create 000000014004df60     pjlib-x86_64-x64-vc14-release:activesock.obj
 0002:0000df74       $chain$2$pj_activesock_create 000000014004df74     pjlib-x86_64-x64-vc14-release:activesock.obj
 0002:0000df84       $chain$4$pj_activesock_create 000000014004df84     pjlib-x86_64-x64-vc14-release:activesock.obj
 0002:0000df98       $chain$3$pj_activesock_create 000000014004df98     pjlib-x86_64-x64-vc14-release:activesock.obj
 0002:0000df98       $chain$5$pj_activesock_create 000000014004df98     pjlib-x86_64-x64-vc14-release:activesock.obj
 0002:0000dfa8       $unwind$pj_activesock_close 000000014004dfa8     pjlib-x86_64-x64-vc14-release:activesock.obj
 0002:0000dfb4       $chain$1$pj_activesock_close 000000014004dfb4     pjlib-x86_64-x64-vc14-release:activesock.obj
 0002:0000dfc8       $chain$2$pj_activesock_close 000000014004dfc8     pjlib-x86_64-x64-vc14-release:activesock.obj
 0002:0000dfd8       $unwind$pj_activesock_start_read2 000000014004dfd8     pjlib-x86_64-x64-vc14-release:activesock.obj
 0002:0000dfe4       $chain$2$pj_activesock_start_read2 000000014004dfe4     pjlib-x86_64-x64-vc14-release:activesock.obj
 0002:0000e000       $chain$4$pj_activesock_start_read2 000000014004e000     pjlib-x86_64-x64-vc14-release:activesock.obj
 0002:0000e01c       $chain$5$pj_activesock_start_read2 000000014004e01c     pjlib-x86_64-x64-vc14-release:activesock.obj
 0002:0000e02c       $chain$1$pj_activesock_send 000000014004e02c     pjlib-x86_64-x64-vc14-release:activesock.obj
 0002:0000e044       $chain$3$pj_activesock_send 000000014004e044     pjlib-x86_64-x64-vc14-release:activesock.obj
 0002:0000e05c       $chain$4$pj_activesock_send 000000014004e05c     pjlib-x86_64-x64-vc14-release:activesock.obj
 0002:0000e06c       $unwind$pj_activesock_start_accept 000000014004e06c     pjlib-x86_64-x64-vc14-release:activesock.obj
 0002:0000e088       $unwind$ioqueue_on_read_complete 000000014004e088     pjlib-x86_64-x64-vc14-release:activesock.obj
 0002:0000e09c       $unwind$ioqueue_on_write_complete 000000014004e09c     pjlib-x86_64-x64-vc14-release:activesock.obj
 0002:0000e0ac       $chain$0$ioqueue_on_write_complete 000000014004e0ac     pjlib-x86_64-x64-vc14-release:activesock.obj
 0002:0000e0c0       $chain$1$ioqueue_on_write_complete 000000014004e0c0     pjlib-x86_64-x64-vc14-release:activesock.obj
 0002:0000e0d0       $chain$0$ioqueue_on_accept_complete 000000014004e0d0     pjlib-x86_64-x64-vc14-release:activesock.obj
 0002:0000e0e4       $chain$1$ioqueue_on_accept_complete 000000014004e0e4     pjlib-x86_64-x64-vc14-release:activesock.obj
 0002:0000e0f4       $chain$2$ioqueue_on_accept_complete 000000014004e0f4     pjlib-x86_64-x64-vc14-release:activesock.obj
 0002:0000e108       $unwind$ioqueue_on_accept_complete 000000014004e108     pjlib-x86_64-x64-vc14-release:activesock.obj
 0002:0000e108       $unwind$pj_thread_register 000000014004e108     pjlib-x86_64-x64-vc14-release:os_core_win32.obj
 0002:0000e108       $unwind$int_parse_uri_host_port 000000014004e108     pjsip-core-x86_64-x64-vc14-release:sip_parser.obj
 0002:0000e108       $unwind$send_remaining     000000014004e108     pjlib-x86_64-x64-vc14-release:activesock.obj
 0002:0000e118       $chain$0$pj_gettickcount   000000014004e118     pjlib-x86_64-x64-vc14-release:os_timestamp_common.obj
 0002:0000e12c       $chain$1$pj_gettickcount   000000014004e12c     pjlib-x86_64-x64-vc14-release:os_timestamp_common.obj
 0002:0000e13c       $unwind$pj_gethostbyname   000000014004e13c     pjlib-x86_64-x64-vc14-release:addr_resolv_sock.obj
 0002:0000e154       $unwind$pj_getaddrinfo     000000014004e154     pjlib-x86_64-x64-vc14-release:addr_resolv_sock.obj
 0002:0000e160       $chain$0$pj_getaddrinfo    000000014004e160     pjlib-x86_64-x64-vc14-release:addr_resolv_sock.obj
 0002:0000e174       $chain$5$pj_getaddrinfo    000000014004e174     pjlib-x86_64-x64-vc14-release:addr_resolv_sock.obj
 0002:0000e194       $chain$7$pj_getaddrinfo    000000014004e194     pjlib-x86_64-x64-vc14-release:addr_resolv_sock.obj
 0002:0000e1ac       $chain$8$pj_getaddrinfo    000000014004e1ac     pjlib-x86_64-x64-vc14-release:addr_resolv_sock.obj
 0002:0000e1bc       $chain$9$pj_getaddrinfo    000000014004e1bc     pjlib-x86_64-x64-vc14-release:addr_resolv_sock.obj
 0002:0000e1cc       $unwind$pj_pool_create_on_buf 000000014004e1cc     pjlib-x86_64-x64-vc14-release:pool_buf.obj
 0002:0000e1cc       $unwind$tsx_on_state_calling 000000014004e1cc     pjsip-core-x86_64-x64-vc14-release:sip_transaction.obj
 0002:0000e1cc       $unwind$pjsip_generic_string_hdr_init 000000014004e1cc     pjsip-core-x86_64-x64-vc14-release:sip_msg.obj
 0002:0000e1cc       $unwind$pjsip_create_sdp_body 000000014004e1cc     pjsip-ua-x86_64-x64-vc14-release:sip_inv.obj
 0002:0000e1dc       $unwind$enum_ipv4_interface 000000014004e1dc     pjlib-x86_64-x64-vc14-release:ip_helper_win32.obj
 0002:0000e1f4       $chain$0$enum_ipv4_interface 000000014004e1f4     pjlib-x86_64-x64-vc14-release:ip_helper_win32.obj
 0002:0000e208       $chain$1$enum_ipv4_interface 000000014004e208     pjlib-x86_64-x64-vc14-release:ip_helper_win32.obj
 0002:0000e208       $chain$8$enum_ipv4_interface 000000014004e208     pjlib-x86_64-x64-vc14-release:ip_helper_win32.obj
 0002:0000e218       $chain$2$enum_ipv4_interface 000000014004e218     pjlib-x86_64-x64-vc14-release:ip_helper_win32.obj
 0002:0000e22c       $chain$5$enum_ipv4_interface 000000014004e22c     pjlib-x86_64-x64-vc14-release:ip_helper_win32.obj
 0002:0000e248       $chain$6$enum_ipv4_interface 000000014004e248     pjlib-x86_64-x64-vc14-release:ip_helper_win32.obj
 0002:0000e25c       $unwind$enum_ipv4_ipv6_interface 000000014004e25c     pjlib-x86_64-x64-vc14-release:ip_helper_win32.obj
 0002:0000e27c       $unwind$default_block_alloc 000000014004e27c     pjlib-x86_64-x64-vc14-release:pool_policy_malloc.obj
 0002:0000e28c       $unwind$pj_sock_set_qos_params 000000014004e28c     pjlib-x86_64-x64-vc14-release:sock_qos_bsd.obj
 0002:0000e2a8       $xdatasym                  000000014004e2a8     MSVCRT:_amdsecgs_.obj
 0002:0000e2ac       $unwind$?__scrt_common_main_seh@@YAHXZ 000000014004e2ac     MSVCRT:exe_main.obj
 0002:0000e2d4       $unwind$?filt$0@?0??__scrt_common_main_seh@@YAHXZ@4HA 000000014004e2d4     MSVCRT:exe_main.obj
 0002:0000e2dc       $unwind$__report_securityfailure 000000014004e2dc     MSVCRT:gs_report.obj
 0002:0000e2e4       $unwind$capture_current_context 000000014004e2e4     MSVCRT:gs_report.obj
 0002:0000e2f0       $unwind$capture_previous_context 000000014004e2f0     MSVCRT:gs_report.obj
 0002:0000e2fc       $unwind$__isa_available_init 000000014004e2fc     MSVCRT:_cpu_disp_.obj
 0002:0000e310       $xdatasym                  000000014004e310     MSVCRT:_chkstk_.obj
 0002:0000e318       $unwind$__scrt_is_nonwritable_in_current_image 000000014004e318     MSVCRT:utility.obj
 0002:0000e338       $unwind$__scrt_is_nonwritable_in_current_image$filt$0 000000014004e338     MSVCRT:utility.obj
 0002:0000e340       $unwind$__scrt_initialize_onexit_tables 000000014004e340     MSVCRT:utility.obj
 0002:0000e34c       $unwind$__security_init_cookie 000000014004e34c     MSVCRT:gs_support.obj
 0002:0000e358       $unwind$__scrt_fastfail    000000014004e358     MSVCRT:utility_desktop.obj
 0002:0000e368       $xdatasym                  000000014004e368     MSVCRT:_guard_dispatch_.obj
 0002:0000e8b0       .idata$6                   000000014004e8b0     ole32:ole32.dll
 0002:0000e900       .idata$6                   000000014004e900     ws2_32:WS2_32.dll
 0002:0000ec6a       .idata$6                   000000014004ec6a     kernel32:KERNEL32.dll
 0002:0000ecec       .idata$6                   000000014004ecec     vcruntime:VCRUNTIME140.dll
 0002:0000ef8e       .idata$6                   000000014004ef8e     ucrt:api-ms-win-crt-stdio-l1-1-0.dll
 0002:0000efae       .idata$6                   000000014004efae     ucrt:api-ms-win-crt-convert-l1-1-0.dll
 0002:0000efd0       .idata$6                   000000014004efd0     ucrt:api-ms-win-crt-string-l1-1-0.dll
 0002:0000eff2       .idata$6                   000000014004eff2     ucrt:api-ms-win-crt-utility-l1-1-0.dll
 0002:0000f014       .idata$6                   000000014004f014     ucrt:api-ms-win-crt-math-l1-1-0.dll
 0002:0000f034       .idata$6                   000000014004f034     ucrt:api-ms-win-crt-heap-l1-1-0.dll
 0002:0000f054       .idata$6                   000000014004f054     ucrt:api-ms-win-crt-runtime-l1-1-0.dll
 0002:0000f076       .idata$6                   000000014004f076     ucrt:api-ms-win-crt-locale-l1-1-0.dll
 0003:00000000       $SG16435                   0000000140050000     sipecho.obj
 0003:00000018       $SG16436                   0000000140050018     sipecho.obj
 0003:0000002c       $SG18567                   000000014005002c     sipecho.obj
 0003:00000030       $SG18520                   0000000140050030     sipecho.obj
 0003:00000044       $SG18568                   0000000140050044     sipecho.obj
 0003:00000048       $SG18569                   0000000140050048     sipecho.obj
 0003:00000050       $SG18570                   0000000140050050     sipecho.obj
 0003:00000058       $SG18571                   0000000140050058     sipecho.obj
 0003:00000060       $SG18572                   0000000140050060     sipecho.obj
 0003:00000068       $SG18573                   0000000140050068     sipecho.obj
 0003:00000070       $SG18574                   0000000140050070     sipecho.obj
 0003:00000078       $SG18575                   0000000140050078     sipecho.obj
 0003:0000007c       $SG18576                   000000014005007c     sipecho.obj
 0003:00000080       $SG18577                   0000000140050080     sipecho.obj
 0003:0000008c       sip_port                   000000014005008c     sipecho.obj
 0003:00000090       $SG18581                   0000000140050090     sipecho.obj
 0003:000000b4       $SG19038                   00000001400500b4     sipecho.obj
 0003:000000b8       $SG18585                   00000001400500b8     sipecho.obj
 0003:000000dc       $SG19083                   00000001400500dc     sipecho.obj
 0003:000000e0       $SG18589                   00000001400500e0     sipecho.obj
 0003:00000100       $SG18593                   0000000140050100     sipecho.obj
 0003:00000124       $SG19084                   0000000140050124     sipecho.obj
 0003:00000128       $SG18597                   0000000140050128     sipecho.obj
 0003:00000150       $SG18600                   0000000140050150     sipecho.obj
 0003:00000170       $SG18619                   0000000140050170     sipecho.obj
 0003:000001a0       mod_sipecho                00000001400501a0     sipecho.obj
 0003:00000210       $SG18669                   0000000140050210     sipecho.obj
 0003:00000220       $SG18680                   0000000140050220     sipecho.obj
 0003:00000250       $SG18681                   0000000140050250     sipecho.obj
 0003:00000260       $SG18692                   0000000140050260     sipecho.obj
 0003:00000290       $SG18693                   0000000140050290     sipecho.obj
 0003:000002a0       msg_logger                 00000001400502a0     sipecho.obj
 0003:00000310       $SG18702                   0000000140050310     sipecho.obj
 0003:00000320       $SG18744                   0000000140050320     sipecho.obj
 0003:00000330       $SG18745                   0000000140050330     sipecho.obj
 0003:00000340       $SG18751                   0000000140050340     sipecho.obj
 0003:00000350       $SG18785                   0000000140050350     sipecho.obj
 0003:00000358       $SG18795                   0000000140050358     sipecho.obj
 0003:00000360       $SG18859                   0000000140050360     sipecho.obj
 0003:00000370       $SG18860                   0000000140050370     sipecho.obj
 0003:00000380       $SG18861                   0000000140050380     sipecho.obj
 0003:00000390       $SG18862                   0000000140050390     sipecho.obj
 0003:000003a0       $SG18863                   00000001400503a0     sipecho.obj
 0003:000003b0       $SG18864                   00000001400503b0     sipecho.obj
 0003:000003c0       $SG18865                   00000001400503c0     sipecho.obj
 0003:000003d0       $SG18866                   00000001400503d0     sipecho.obj
 0003:000003e0       $SG18867                   00000001400503e0     sipecho.obj
 0003:000003e8       $SG18868                   00000001400503e8     sipecho.obj
 0003:000003f0       $SG18869                   00000001400503f0     sipecho.obj
 0003:00000400       $SG18870                   0000000140050400     sipecho.obj
 0003:00000410       $SG18871                   0000000140050410     sipecho.obj
 0003:00000420       $SG18872                   0000000140050420     sipecho.obj
 0003:00000430       $SG18874                   0000000140050430     sipecho.obj
 0003:00000450       $SG18875                   0000000140050450     sipecho.obj
 0003:00000460       $SG18876                   0000000140050460     sipecho.obj
 0003:00000468       $SG18880                   0000000140050468     sipecho.obj
 0003:00000478       $SG18881                   0000000140050478     sipecho.obj
 0003:00000488       $SG18884                   0000000140050488     sipecho.obj
 0003:00000498       $SG18885                   0000000140050498     sipecho.obj
 0003:000004a8       $SG18887                   00000001400504a8     sipecho.obj
 0003:000004b8       $SG18888                   00000001400504b8     sipecho.obj
 0003:000004c8       $SG18891                   00000001400504c8     sipecho.obj
 0003:000004d8       $SG18892                   00000001400504d8     sipecho.obj
 0003:00000500       $SG18893                   0000000140050500     sipecho.obj
 0003:00000510       $SG18912                   0000000140050510     sipecho.obj
 0003:00000538       $SG18913                   0000000140050538     sipecho.obj
 0003:00000548       $SG18915                   0000000140050548     sipecho.obj
 0003:00000568       $SG18916                   0000000140050568     sipecho.obj
 0003:00000578       $SG18995                   0000000140050578     sipecho.obj
 0003:00000588       $SG18996                   0000000140050588     sipecho.obj
 0003:00000598       $SG19000                   0000000140050598     sipecho.obj
 0003:000005a8       $SG19001                   00000001400505a8     sipecho.obj
 0003:000005b8       $SG19006                   00000001400505b8     sipecho.obj
 0003:000005c0       $SG19009                   00000001400505c0     sipecho.obj
 0003:000005d8       $SG19012                   00000001400505d8     sipecho.obj
 0003:000005e8       $SG19014                   00000001400505e8     sipecho.obj
 0003:00000610       $SG19015                   0000000140050610     sipecho.obj
 0003:00000620       $SG19016                   0000000140050620     sipecho.obj
 0003:00000638       $SG19037                   0000000140050638     sipecho.obj
 0003:00000658       $SG19039                   0000000140050658     sipecho.obj
 0003:00000668       $SG19040                   0000000140050668     sipecho.obj
 0003:000006a0       $SG19041                   00000001400506a0     sipecho.obj
 0003:000006d8       $SG19042                   00000001400506d8     sipecho.obj
 0003:00000710       $SG19043                   0000000140050710     sipecho.obj
 0003:00000748       $SG19081                   0000000140050748     sipecho.obj
 0003:00000758       $SG19082                   0000000140050758     sipecho.obj
 0003:00000764       $SG19085                   0000000140050764     sipecho.obj
 0003:0000076c       $SG19086                   000000014005076c     sipecho.obj
 0003:00000774       $SG19087                   0000000140050774     sipecho.obj
 0003:0000077c       $SG19088                   000000014005077c     sipecho.obj
 0003:00000784       $SG19089                   0000000140050784     sipecho.obj
 0003:00000790       $SG19096                   0000000140050790     sipecho.obj
 0003:000007c8       $SG19097                   00000001400507c8     sipecho.obj
 0003:000007d8       $SG19103                   00000001400507d8     sipecho.obj
 0003:00000800       $SG19104                   0000000140050800     sipecho.obj
 0003:00000810       $SG19105                   0000000140050810     sipecho.obj
 0003:00000828       $SG19107                   0000000140050828     sipecho.obj
 0003:00000848       $SG19108                   0000000140050848     sipecho.obj
 0003:00000858       $SG19112                   0000000140050858     sipecho.obj
 0003:00000870       $SG19113                   0000000140050870     sipecho.obj
 0003:000008a8       $SG19114                   00000001400508a8     sipecho.obj
 0003:000008b0       $SG19115                   00000001400508b0     sipecho.obj
 0003:000008b8       $SG19122                   00000001400508b8     sipecho.obj
 0003:000008e0       $SG19116                   00000001400508e0     sipecho.obj
 0003:00000928       $SG19121                   0000000140050928     sipecho.obj
 0003:00000940       inv_state_handler          0000000140050940     pjsip-ua-x86_64-x64-vc14-release:sip_inv.obj
 0003:00000980       mod_inv                    0000000140050980     pjsip-ua-x86_64-x64-vc14-release:sip_inv.obj
 0003:00000a50       inv_state_names            0000000140050a50     pjsip-ua-x86_64-x64-vc14-release:sip_inv.obj
 0003:00000a90       mod_100rel                 0000000140050a90     pjsip-ua-x86_64-x64-vc14-release:sip_100rel.obj
 0003:00000b08       se_hdr_vptr                0000000140050b08     pjsip-ua-x86_64-x64-vc14-release:sip_timer.obj
 0003:00000b20       min_se_hdr_vptr            0000000140050b20     pjsip-ua-x86_64-x64-vc14-release:sip_timer.obj
 0003:00000b38       generic_hdr_vptr           0000000140050b38     pjsip-core-x86_64-x64-vc14-release:sip_msg.obj
 0003:00000b50       generic_int_hdr_vptr       0000000140050b50     pjsip-core-x86_64-x64-vc14-release:sip_msg.obj
 0003:00000b68       generic_array_hdr_vptr     0000000140050b68     pjsip-core-x86_64-x64-vc14-release:sip_msg.obj
 0003:00000b80       clen_hdr_vptr              0000000140050b80     pjsip-core-x86_64-x64-vc14-release:sip_msg.obj
 0003:00000b98       cseq_hdr_vptr              0000000140050b98     pjsip-core-x86_64-x64-vc14-release:sip_msg.obj
 0003:00000bb0       contact_hdr_vptr           0000000140050bb0     pjsip-core-x86_64-x64-vc14-release:sip_msg.obj
 0003:00000bc8       ctype_hdr_vptr             0000000140050bc8     pjsip-core-x86_64-x64-vc14-release:sip_msg.obj
 0003:00000be0       fromto_hdr_vptr            0000000140050be0     pjsip-core-x86_64-x64-vc14-release:sip_msg.obj
 0003:00000bf8       routing_hdr_vptr           0000000140050bf8     pjsip-core-x86_64-x64-vc14-release:sip_msg.obj
 0003:00000c10       retry_after_hdr_vptr       0000000140050c10     pjsip-core-x86_64-x64-vc14-release:sip_msg.obj
 0003:00000c28       via_hdr_vptr               0000000140050c28     pjsip-core-x86_64-x64-vc14-release:sip_msg.obj
 0003:00000c40       method_names               0000000140050c40     pjsip-core-x86_64-x64-vc14-release:sip_msg.obj
 0003:00000c70       mod_msg_print              0000000140050c70     pjsip-core-x86_64-x64-vc14-release:sip_transport.obj
 0003:00000ce0       transport_names            0000000140050ce0     pjsip-core-x86_64-x64-vc14-release:sip_transport.obj
 0003:00001060       event_str                  0000000140051060     pjsip-core-x86_64-x64-vc14-release:sip_util.obj
 0003:00001098       str_TEXT                   0000000140051098     pjsip-core-x86_64-x64-vc14-release:sip_util.obj
 0003:000010a8       str_PLAIN                  00000001400510a8     pjsip-core-x86_64-x64-vc14-release:sip_util.obj
 0003:00001130       mod_tsx_layer              0000000140051130     pjsip-core-x86_64-x64-vc14-release:sip_transaction.obj
 0003:000011c0       t1_timer_val               00000001400511c0     pjsip-core-x86_64-x64-vc14-release:sip_transaction.obj
 0003:000011c8       t2_timer_val               00000001400511c8     pjsip-core-x86_64-x64-vc14-release:sip_transaction.obj
 0003:000011d0       timeout_timer_val          00000001400511d0     pjsip-core-x86_64-x64-vc14-release:sip_transaction.obj
 0003:000011d8       t4_timer_val               00000001400511d8     pjsip-core-x86_64-x64-vc14-release:sip_transaction.obj
 0003:000011e0       state_str                  00000001400511e0     pjsip-core-x86_64-x64-vc14-release:sip_transaction.obj
 0003:00001220       role_name                  0000000140051220     pjsip-core-x86_64-x64-vc14-release:sip_transaction.obj
 0003:00001230       td_timer_val               0000000140051230     pjsip-core-x86_64-x64-vc14-release:sip_transaction.obj
 0003:00001240       tsx_state_handler_uac      0000000140051240     pjsip-core-x86_64-x64-vc14-release:sip_transaction.obj
 0003:00001280       tsx_state_handler_uas      0000000140051280     pjsip-core-x86_64-x64-vc14-release:sip_transaction.obj
 0003:000012c0       mod_ua                     00000001400512c0     pjsip-core-x86_64-x64-vc14-release:sip_ua_layer.obj
 0003:000013a0       pconst                     00000001400513a0     pjsip-core-x86_64-x64-vc14-release:sip_parser.obj
 0003:00001678       sip_str                    0000000140051678     pjsip-core-x86_64-x64-vc14-release:sip_uri.obj
 0003:00001688       sips_str                   0000000140051688     pjsip-core-x86_64-x64-vc14-release:sip_uri.obj
 0003:00001698       sip_url_vptr               0000000140051698     pjsip-core-x86_64-x64-vc14-release:sip_uri.obj
 0003:000016c0       sips_url_vptr              00000001400516c0     pjsip-core-x86_64-x64-vc14-release:sip_uri.obj
 0003:000016e8       name_addr_vptr             00000001400516e8     pjsip-core-x86_64-x64-vc14-release:sip_uri.obj
 0003:00001710       other_uri_vptr             0000000140051710     pjsip-core-x86_64-x64-vc14-release:sip_uri.obj
 0003:00001738       pjsip_ISUB_STR             0000000140051738     pjsip-core-x86_64-x64-vc14-release:sip_tel_uri.obj
 0003:00001748       pjsip_EXT_STR              0000000140051748     pjsip-core-x86_64-x64-vc14-release:sip_tel_uri.obj
 0003:00001758       pjsip_PH_CTX_STR           0000000140051758     pjsip-core-x86_64-x64-vc14-release:sip_tel_uri.obj
 0003:00001768       tel_uri_vptr               0000000140051768     pjsip-core-x86_64-x64-vc14-release:sip_tel_uri.obj
 0003:00001790       www_authenticate_hdr_vptr  0000000140051790     pjsip-core-x86_64-x64-vc14-release:sip_auth_msg.obj
 0003:000017a8       authorization_hdr_vptr     00000001400517a8     pjsip-core-x86_64-x64-vc14-release:sip_auth_msg.obj
 0003:000017c0       state_str                  00000001400517c0     pjmedia-x86_64-x64-vc14-release:sdp_neg.obj
 0003:000017f0       state_names                00000001400517f0     pjlib-util-x86_64-x64-vc14-release:resolver.obj
 0003:00001808       thread_tls_id              0000000140051808     pjlib-x86_64-x64-vc14-release:os_core_win32.obj
 0003:00001810       pool_sizes                 0000000140051810     pjlib-x86_64-x64-vc14-release:pool_caching.obj
 0003:00001890       thread_suspended_tls_id    0000000140051890     pjlib-x86_64-x64-vc14-release:log.obj
 0003:00001894       thread_indent_tls_id       0000000140051894     pjlib-x86_64-x64-vc14-release:log.obj
 0003:00001898       pj_log_max_level           0000000140051898     pjlib-x86_64-x64-vc14-release:log.obj
 0003:0000189c       log_decor                  000000014005189c     pjlib-x86_64-x64-vc14-release:log.obj
 0003:000018a0       log_writer                 00000001400518a0     pjlib-x86_64-x64-vc14-release:log.obj
 0003:000018a8       PJ_LOG_COLOR_0             00000001400518a8     pjlib-x86_64-x64-vc14-release:log.obj
 0003:000018ac       PJ_LOG_COLOR_1             00000001400518ac     pjlib-x86_64-x64-vc14-release:log.obj
 0003:000018b0       PJ_LOG_COLOR_2             00000001400518b0     pjlib-x86_64-x64-vc14-release:log.obj
 0003:000018b4       PJ_LOG_COLOR_3             00000001400518b4     pjlib-x86_64-x64-vc14-release:log.obj
 0003:000018b8       PJ_LOG_COLOR_4             00000001400518b8     pjlib-x86_64-x64-vc14-release:log.obj
 0003:000018bc       PJ_LOG_COLOR_5             00000001400518bc     pjlib-x86_64-x64-vc14-release:log.obj
 0003:000018c0       PJ_LOG_COLOR_6             00000001400518c0     pjlib-x86_64-x64-vc14-release:log.obj
 0003:000018c4       PJ_LOG_COLOR_77            00000001400518c4     pjlib-x86_64-x64-vc14-release:log.obj
 0003:000018c8       ?ltexts@?2??pj_log@@9@9    00000001400518c8     pjlib-x86_64-x64-vc14-release:log.obj
 0003:00001900       ?wdays@?3??pj_log@@9@9     0000000140051900     pjlib-x86_64-x64-vc14-release:log.obj
 0003:00001938       mutex_lock_template        0000000140051938     pjlib-x86_64-x64-vc14-release:lock.obj
 0003:00001960       null_lock_template         0000000140051960     pjlib-x86_64-x64-vc14-release:lock.obj
 0003:00001988       sem_lock_template          0000000140051988     pjlib-x86_64-x64-vc14-release:lock.obj
 0003:000019b0       thread_local_id            00000001400519b0     pjlib-x86_64-x64-vc14-release:except.obj
 0003:000019b8       ?hex@?1??hex2digit@@9@9    00000001400519b8     pjlib-x86_64-x64-vc14-release:guid_win32.obj
 0003:000019c8       tls                        00000001400519c8     pjlib-x86_64-x64-vc14-release:pool_buf.obj
 0003:000019d8       id                         00000001400519d8     pjlib-x86_64-x64-vc14-release:config.obj
 0003:00001a50       app                        0000000140051a50     sipecho.obj
 0003:00001e40       sip_af                     0000000140051e40     sipecho.obj
 0003:00001e44       sip_tcp                    0000000140051e44     sipecho.obj
 0003:00001e48       is_initialized             0000000140051e48     pjsip-ua-x86_64-x64-vc14-release:sip_timer.obj
 0003:00001e50       status_phrase              0000000140051e50     pjsip-core-x86_64-x64-vc14-release:sip_msg.obj
 0003:00004ab0       ?is_initialized@?1??pjsip_get_status_text@@9@9 0000000140054ab0     pjsip-core-x86_64-x64-vc14-release:sip_msg.obj
 0003:00004ac0       handler                    0000000140054ac0     pjsip-core-x86_64-x64-vc14-release:sip_parser.obj
 0003:000065c0       handler_count              00000001400565c0     pjsip-core-x86_64-x64-vc14-release:sip_parser.obj
 0003:000065c4       parser_is_initialized      00000001400565c4     pjsip-core-x86_64-x64-vc14-release:sip_parser.obj
 0003:000065c8       uri_handler_count          00000001400565c8     pjsip-core-x86_64-x64-vc14-release:sip_parser.obj
 0003:000065d0       uri_handler                00000001400565d0     pjsip-core-x86_64-x64-vc14-release:sip_parser.obj
 0003:00006630       cis_buf                    0000000140056630     pjsip-core-x86_64-x64-vc14-release:sip_parser.obj
 0003:00006a40       pjsip_TEL_NUMBER_SPEC      0000000140056a40     pjsip-core-x86_64-x64-vc14-release:sip_tel_uri.obj
 0003:00006a50       pjsip_TEL_EXT_VALUE_SPEC   0000000140056a50     pjsip-core-x86_64-x64-vc14-release:sip_tel_uri.obj
 0003:00006a60       pjsip_TEL_PHONE_CONTEXT_SPEC 0000000140056a60     pjsip-core-x86_64-x64-vc14-release:sip_tel_uri.obj
 0003:00006a70       pjsip_TEL_URIC_SPEC        0000000140056a70     pjsip-core-x86_64-x64-vc14-release:sip_tel_uri.obj
 0003:00006a80       pjsip_TEL_PNAME_SPEC       0000000140056a80     pjsip-core-x86_64-x64-vc14-release:sip_tel_uri.obj
 0003:00006a90       pjsip_TEL_PVALUE_SPEC      0000000140056a90     pjsip-core-x86_64-x64-vc14-release:sip_tel_uri.obj
 0003:00006aa0       cis_buf                    0000000140056aa0     pjsip-core-x86_64-x64-vc14-release:sip_tel_uri.obj
 0003:00006ea8       pjsip_TEL_VISUAL_SEP_SPEC  0000000140056ea8     pjsip-core-x86_64-x64-vc14-release:sip_tel_uri.obj
 0003:00006eb8       pjsip_TEL_PVALUE_SPEC_ESC  0000000140056eb8     pjsip-core-x86_64-x64-vc14-release:sip_tel_uri.obj
 0003:00006ec8       pjsip_TEL_PARSING_PVALUE_SPEC 0000000140056ec8     pjsip-core-x86_64-x64-vc14-release:sip_tel_uri.obj
 0003:00006ed8       pjsip_TEL_PARSING_PVALUE_SPEC_ESC 0000000140056ed8     pjsip-core-x86_64-x64-vc14-release:sip_tel_uri.obj
 0003:00006ef0       is_initialized             0000000140056ef0     pjmedia-x86_64-x64-vc14-release:sdp.obj
 0003:00006f00       cis_buf                    0000000140056f00     pjmedia-x86_64-x64-vc14-release:sdp.obj
 0003:00007308       cs_digit                   0000000140057308     pjmedia-x86_64-x64-vc14-release:sdp.obj
 0003:00007318       cs_token                   0000000140057318     pjmedia-x86_64-x64-vc14-release:sdp.obj
 0003:00007330       fmt_match_cb_cnt           0000000140057330     pjmedia-x86_64-x64-vc14-release:sdp_neg.obj
 0003:00007340       fmt_match_cb               0000000140057340     pjmedia-x86_64-x64-vc14-release:sdp_neg.obj
 0003:00007408       __getopt_initialized       0000000140057408     pjlib-util-x86_64-x64-vc14-release:getopt.obj
 0003:0000740c       ordering                   000000014005740c     pjlib-util-x86_64-x64-vc14-release:getopt.obj
 0003:00007410       nextchar                   0000000140057410     pjlib-util-x86_64-x64-vc14-release:getopt.obj
 0003:00007418       posixly_correct            0000000140057418     pjlib-util-x86_64-x64-vc14-release:getopt.obj
 0003:00007420       first_nonopt               0000000140057420     pjlib-util-x86_64-x64-vc14-release:getopt.obj
 0003:00007424       last_nonopt                0000000140057424     pjlib-util-x86_64-x64-vc14-release:getopt.obj
 0003:00007430       initialized                0000000140057430     pjlib-x86_64-x64-vc14-release:os_core_win32.obj
 0003:00007434       atexit_count               0000000140057434     pjlib-x86_64-x64-vc14-release:os_core_win32.obj
 0003:00007440       main_thread                0000000140057440     pjlib-x86_64-x64-vc14-release:os_core_win32.obj
 0003:00007540       critical_section_mutex     0000000140057540     pjlib-x86_64-x64-vc14-release:os_core_win32.obj
 0003:00007590       atexit_func                0000000140057590     pjlib-x86_64-x64-vc14-release:os_core_win32.obj
 0003:00007690       err_msg_hnd_cnt            0000000140057690     pjlib-x86_64-x64-vc14-release:errno.obj
 0003:000076a0       err_msg_hnd                00000001400576a0     pjlib-x86_64-x64-vc14-release:errno.obj
 0003:00007740       g_last_thread              0000000140057740     pjlib-x86_64-x64-vc14-release:log.obj
 0003:00007750       ?buf@?1??pj_gethostname@@9@9 0000000140057750     pjlib-x86_64-x64-vc14-release:sock_bsd.obj
 0003:000077d0       ?hostname@?1??pj_gethostname@@9@9 00000001400577d0     pjlib-x86_64-x64-vc14-release:sock_bsd.obj
 0003:000077e0       base_time                  00000001400577e0     pjlib-x86_64-x64-vc14-release:os_time_win32.obj
 0003:000077f0       exception_id_names         00000001400577f0     pjlib-x86_64-x64-vc14-release:except.obj
 0003:00007870       ?unknown_name@?1??pj_exception_id_name@@9@9 0000000140057870     pjlib-x86_64-x64-vc14-release:except.obj
 0003:00007890       stack_based_factory        0000000140057890     pjlib-x86_64-x64-vc14-release:pool_buf.obj
 0003:000078d8       is_initialized             00000001400578d8     pjlib-x86_64-x64-vc14-release:pool_buf.obj
 0003:000078e0       s_hDLL                     00000001400578e0     pjlib-x86_64-x64-vc14-release:ip_helper_win32.obj
 0003:000078e8       s_pfnGetIpAddrTable        00000001400578e8     pjlib-x86_64-x64-vc14-release:ip_helper_win32.obj
 0003:000078f0       s_pfnGetAdapterAddresses   00000001400578f0     pjlib-x86_64-x64-vc14-release:ip_helper_win32.obj
 0003:000078f8       s_pfnGetIpForwardTable     00000001400578f8     pjlib-x86_64-x64-vc14-release:ip_helper_win32.obj
 0003:00007900       s_pfnGetIfEntry            0000000140057900     pjlib-x86_64-x64-vc14-release:ip_helper_win32.obj
 0003:00007910       GS_ExceptionRecord         0000000140057910     MSVCRT:gs_report.obj
 0003:000079b0       GS_ContextRecord           00000001400579b0     MSVCRT:gs_report.obj
 0003:00007e98       ?module_local_atexit_table@@3U_onexit_table_t@@A 0000000140057e98     MSVCRT:utility.obj
 0003:00007eb0       ?module_local_at_quick_exit_table@@3U_onexit_table_t@@A 0000000140057eb0     MSVCRT:utility.obj
 0003:00007ec8       ?is_initialized_as_dll@@3_NA 0000000140057ec8     MSVCRT:utility.obj
 0004:00000000       $pdata$app_perror          0000000140058000     sipecho.obj
 0004:0000000c       $pdata$get_snd_options     000000014005800c     sipecho.obj
 0004:00000018       $pdata$dump_pool_usage     0000000140058018     sipecho.obj
 0004:00000024       $pdata$call_on_state_changed 0000000140058024     sipecho.obj
 0004:00000030       $pdata$call_on_rx_offer    0000000140058030     sipecho.obj
 0004:0000003c       $pdata$on_rx_request       000000014005803c     sipecho.obj
 0004:00000048       $pdata$1$on_rx_request     0000000140058048     sipecho.obj
 0004:00000054       $pdata$2$on_rx_request     0000000140058054     sipecho.obj
 0004:00000060       $pdata$logging_on_rx_msg   0000000140058060     sipecho.obj
 0004:0000006c       $pdata$1$logging_on_rx_msg 000000014005806c     sipecho.obj
 0004:00000078       $pdata$2$logging_on_rx_msg 0000000140058078     sipecho.obj
 0004:00000084       $pdata$logging_on_tx_msg   0000000140058084     sipecho.obj
 0004:00000090       $pdata$2$logging_on_tx_msg 0000000140058090     sipecho.obj
 0004:0000009c       $pdata$3$logging_on_tx_msg 000000014005809c     sipecho.obj
 0004:000000a8       $pdata$worker_proc         00000001400580a8     sipecho.obj
 0004:000000b4       $pdata$0$worker_proc       00000001400580b4     sipecho.obj
 0004:000000c0       $pdata$1$worker_proc       00000001400580c0     sipecho.obj
 0004:000000cc       $pdata$hangup_all          00000001400580cc     sipecho.obj
 0004:000000d8       $pdata$destroy_stack       00000001400580d8     sipecho.obj
 0004:000000e4       $pdata$0$destroy_stack     00000001400580e4     sipecho.obj
 0004:000000f0       $pdata$1$destroy_stack     00000001400580f0     sipecho.obj
 0004:000000fc       $pdata$init_stack          00000001400580fc     sipecho.obj
 0004:00000108       $pdata$0$init_stack        0000000140058108     sipecho.obj
 0004:00000114       $pdata$1$init_stack        0000000140058114     sipecho.obj
 0004:00000120       $pdata$2$init_stack        0000000140058120     sipecho.obj
 0004:0000012c       $pdata$3$init_stack        000000014005812c     sipecho.obj
 0004:00000138       $pdata$find_remove_sdp_attrs 0000000140058138     sipecho.obj
 0004:00000144       $pdata$2$find_remove_sdp_attrs 0000000140058144     sipecho.obj
 0004:00000150       $pdata$3$find_remove_sdp_attrs 0000000140058150     sipecho.obj
 0004:0000015c       $pdata$create_answer       000000014005815c     sipecho.obj
 0004:00000168       $pdata$2$create_answer     0000000140058168     sipecho.obj
 0004:00000174       $pdata$3$create_answer     0000000140058174     sipecho.obj
 0004:00000180       $pdata$usage               0000000140058180     sipecho.obj
 0004:0000018c       $pdata$main                000000014005818c     sipecho.obj
 0004:00000198       $pdata$printf              0000000140058198     sipecho.obj
 0004:000001a4       $pdata$sprintf             00000001400581a4     sipecho.obj
 0004:000001b0       $pdata$mod_inv_load        00000001400581b0     pjsip-ua-x86_64-x64-vc14-release:sip_inv.obj
 0004:000001bc       $pdata$mod_inv_on_rx_request 00000001400581bc     pjsip-ua-x86_64-x64-vc14-release:sip_inv.obj
 0004:000001c8       $pdata$0$mod_inv_on_rx_request 00000001400581c8     pjsip-ua-x86_64-x64-vc14-release:sip_inv.obj
 0004:000001d4       $pdata$2$mod_inv_on_rx_request 00000001400581d4     pjsip-ua-x86_64-x64-vc14-release:sip_inv.obj
 0004:000001e0       $pdata$4$mod_inv_on_rx_request 00000001400581e0     pjsip-ua-x86_64-x64-vc14-release:sip_inv.obj
 0004:000001ec       $pdata$mod_inv_on_rx_response 00000001400581ec     pjsip-ua-x86_64-x64-vc14-release:sip_inv.obj
 0004:000001f8       $pdata$mod_inv_on_tsx_state 00000001400581f8     pjsip-ua-x86_64-x64-vc14-release:sip_inv.obj
 0004:00000204       $pdata$0$mod_inv_on_tsx_state 0000000140058204     pjsip-ua-x86_64-x64-vc14-release:sip_inv.obj
 0004:00000210       $pdata$1$mod_inv_on_tsx_state 0000000140058210     pjsip-ua-x86_64-x64-vc14-release:sip_inv.obj
 0004:0000021c       $pdata$2$mod_inv_on_tsx_state 000000014005821c     pjsip-ua-x86_64-x64-vc14-release:sip_inv.obj
 0004:00000228       $pdata$3$mod_inv_on_tsx_state 0000000140058228     pjsip-ua-x86_64-x64-vc14-release:sip_inv.obj
 0004:00000234       $pdata$inv_on_state_null   0000000140058234     pjsip-ua-x86_64-x64-vc14-release:sip_inv.obj
 0004:00000240       $pdata$inv_on_state_calling 0000000140058240     pjsip-ua-x86_64-x64-vc14-release:sip_inv.obj
 0004:0000024c       $pdata$0$inv_on_state_calling 000000014005824c     pjsip-ua-x86_64-x64-vc14-release:sip_inv.obj
 0004:00000258       $pdata$1$inv_on_state_calling 0000000140058258     pjsip-ua-x86_64-x64-vc14-release:sip_inv.obj
 0004:00000264       $pdata$2$inv_on_state_calling 0000000140058264     pjsip-ua-x86_64-x64-vc14-release:sip_inv.obj
 0004:00000270       $pdata$3$inv_on_state_calling 0000000140058270     pjsip-ua-x86_64-x64-vc14-release:sip_inv.obj
 0004:0000027c       $pdata$inv_on_state_incoming 000000014005827c     pjsip-ua-x86_64-x64-vc14-release:sip_inv.obj
 0004:00000288       $pdata$inv_on_state_early  0000000140058288     pjsip-ua-x86_64-x64-vc14-release:sip_inv.obj
 0004:00000294       $pdata$inv_on_state_connecting 0000000140058294     pjsip-ua-x86_64-x64-vc14-release:sip_inv.obj
 0004:000002a0       $pdata$0$inv_on_state_connecting 00000001400582a0     pjsip-ua-x86_64-x64-vc14-release:sip_inv.obj
 0004:000002ac       $pdata$1$inv_on_state_connecting 00000001400582ac     pjsip-ua-x86_64-x64-vc14-release:sip_inv.obj
 0004:000002b8       $pdata$inv_on_state_confirmed 00000001400582b8     pjsip-ua-x86_64-x64-vc14-release:sip_inv.obj
 0004:000002c4       $pdata$0$inv_on_state_confirmed 00000001400582c4     pjsip-ua-x86_64-x64-vc14-release:sip_inv.obj
 0004:000002d0       $pdata$2$inv_on_state_confirmed 00000001400582d0     pjsip-ua-x86_64-x64-vc14-release:sip_inv.obj
 0004:000002dc       $pdata$4$inv_on_state_confirmed 00000001400582dc     pjsip-ua-x86_64-x64-vc14-release:sip_inv.obj
 0004:000002e8       $pdata$6$inv_on_state_confirmed 00000001400582e8     pjsip-ua-x86_64-x64-vc14-release:sip_inv.obj
 0004:000002f4       $pdata$8$inv_on_state_confirmed 00000001400582f4     pjsip-ua-x86_64-x64-vc14-release:sip_inv.obj
 0004:00000300       $pdata$9$inv_on_state_confirmed 0000000140058300     pjsip-ua-x86_64-x64-vc14-release:sip_inv.obj
 0004:0000030c       $pdata$10$inv_on_state_confirmed 000000014005830c     pjsip-ua-x86_64-x64-vc14-release:sip_inv.obj
 0004:00000318       $pdata$11$inv_on_state_confirmed 0000000140058318     pjsip-ua-x86_64-x64-vc14-release:sip_inv.obj
 0004:00000324       $pdata$12$inv_on_state_confirmed 0000000140058324     pjsip-ua-x86_64-x64-vc14-release:sip_inv.obj
 0004:00000330       $pdata$14$inv_on_state_confirmed 0000000140058330     pjsip-ua-x86_64-x64-vc14-release:sip_inv.obj
 0004:0000033c       $pdata$16$inv_on_state_confirmed 000000014005833c     pjsip-ua-x86_64-x64-vc14-release:sip_inv.obj
 0004:00000348       $pdata$18$inv_on_state_confirmed 0000000140058348     pjsip-ua-x86_64-x64-vc14-release:sip_inv.obj
 0004:00000354       $pdata$20$inv_on_state_confirmed 0000000140058354     pjsip-ua-x86_64-x64-vc14-release:sip_inv.obj
 0004:00000360       $pdata$22$inv_on_state_confirmed 0000000140058360     pjsip-ua-x86_64-x64-vc14-release:sip_inv.obj
 0004:0000036c       $pdata$24$inv_on_state_confirmed 000000014005836c     pjsip-ua-x86_64-x64-vc14-release:sip_inv.obj
 0004:00000378       $pdata$26$inv_on_state_confirmed 0000000140058378     pjsip-ua-x86_64-x64-vc14-release:sip_inv.obj
 0004:00000384       $pdata$28$inv_on_state_confirmed 0000000140058384     pjsip-ua-x86_64-x64-vc14-release:sip_inv.obj
 0004:00000390       $pdata$inv_on_state_disconnected 0000000140058390     pjsip-ua-x86_64-x64-vc14-release:sip_inv.obj
 0004:0000039c       $pdata$_snprintf           000000014005839c     pjsip-ua-x86_64-x64-vc14-release:sip_inv.obj
 0004:000003a8       $pdata$cleanup_allow_sup_hdr 00000001400583a8     pjsip-ua-x86_64-x64-vc14-release:sip_inv.obj
 0004:000003b4       $pdata$0$cleanup_allow_sup_hdr 00000001400583b4     pjsip-ua-x86_64-x64-vc14-release:sip_inv.obj
 0004:000003c0       $pdata$1$cleanup_allow_sup_hdr 00000001400583c0     pjsip-ua-x86_64-x64-vc14-release:sip_inv.obj
 0004:000003cc       $pdata$create_sdp_body     00000001400583cc     pjsip-ua-x86_64-x64-vc14-release:sip_inv.obj
 0004:000003d8       $pdata$handle_uac_call_rejection 00000001400583d8     pjsip-ua-x86_64-x64-vc14-release:sip_inv.obj
 0004:000003e4       $pdata$handle_uac_tsx_response 00000001400583e4     pjsip-ua-x86_64-x64-vc14-release:sip_inv.obj
 0004:000003f0       $pdata$inv_check_sdp_in_incoming_msg 00000001400583f0     pjsip-ua-x86_64-x64-vc14-release:sip_inv.obj
 0004:000003fc       $pdata$0$inv_check_sdp_in_incoming_msg 00000001400583fc     pjsip-ua-x86_64-x64-vc14-release:sip_inv.obj
 0004:00000408       $pdata$5$inv_check_sdp_in_incoming_msg 0000000140058408     pjsip-ua-x86_64-x64-vc14-release:sip_inv.obj
 0004:00000414       $pdata$7$inv_check_sdp_in_incoming_msg 0000000140058414     pjsip-ua-x86_64-x64-vc14-release:sip_inv.obj
 0004:00000420       $pdata$inv_check_secure_dlg 0000000140058420     pjsip-ua-x86_64-x64-vc14-release:sip_inv.obj
 0004:0000042c       $pdata$inv_handle_bye_response 000000014005842c     pjsip-ua-x86_64-x64-vc14-release:sip_inv.obj
 0004:00000438       $pdata$inv_handle_incoming_reliable_response 0000000140058438     pjsip-ua-x86_64-x64-vc14-release:sip_inv.obj
 0004:00000444       $pdata$inv_handle_update_response 0000000140058444     pjsip-ua-x86_64-x64-vc14-release:sip_inv.obj
 0004:00000450       $pdata$inv_has_pending_answer 0000000140058450     pjsip-ua-x86_64-x64-vc14-release:sip_inv.obj
 0004:0000045c       $pdata$inv_negotiate_sdp   000000014005845c     pjsip-ua-x86_64-x64-vc14-release:sip_inv.obj
 0004:00000468       $pdata$0$inv_negotiate_sdp 0000000140058468     pjsip-ua-x86_64-x64-vc14-release:sip_inv.obj
 0004:00000474       $pdata$2$inv_negotiate_sdp 0000000140058474     pjsip-ua-x86_64-x64-vc14-release:sip_inv.obj
 0004:00000480       $pdata$inv_perform_pending_bye 0000000140058480     pjsip-ua-x86_64-x64-vc14-release:sip_inv.obj
 0004:0000048c       $pdata$inv_respond_incoming_bye 000000014005848c     pjsip-ua-x86_64-x64-vc14-release:sip_inv.obj
 0004:00000498       $pdata$inv_respond_incoming_cancel 0000000140058498     pjsip-ua-x86_64-x64-vc14-release:sip_inv.obj
 0004:000004a4       $pdata$inv_respond_incoming_prack 00000001400584a4     pjsip-ua-x86_64-x64-vc14-release:sip_inv.obj
 0004:000004b0       $pdata$inv_respond_incoming_update 00000001400584b0     pjsip-ua-x86_64-x64-vc14-release:sip_inv.obj
 0004:000004bc       $pdata$0$inv_respond_incoming_update 00000001400584bc     pjsip-ua-x86_64-x64-vc14-release:sip_inv.obj
 0004:000004c8       $pdata$2$inv_respond_incoming_update 00000001400584c8     pjsip-ua-x86_64-x64-vc14-release:sip_inv.obj
 0004:000004d4       $pdata$3$inv_respond_incoming_update 00000001400584d4     pjsip-ua-x86_64-x64-vc14-release:sip_inv.obj
 0004:000004e0       $pdata$inv_send_ack        00000001400584e0     pjsip-ua-x86_64-x64-vc14-release:sip_inv.obj
 0004:000004ec       $pdata$1$inv_send_ack      00000001400584ec     pjsip-ua-x86_64-x64-vc14-release:sip_inv.obj
 0004:000004f8       $pdata$3$inv_send_ack      00000001400584f8     pjsip-ua-x86_64-x64-vc14-release:sip_inv.obj
 0004:00000504       $pdata$4$inv_send_ack      0000000140058504     pjsip-ua-x86_64-x64-vc14-release:sip_inv.obj
 0004:00000510       $pdata$inv_session_destroy 0000000140058510     pjsip-ua-x86_64-x64-vc14-release:sip_inv.obj
 0004:0000051c       $pdata$inv_set_cause       000000014005851c     pjsip-ua-x86_64-x64-vc14-release:sip_inv.obj
 0004:00000528       $pdata$inv_set_state       0000000140058528     pjsip-ua-x86_64-x64-vc14-release:sip_inv.obj
 0004:00000534       $pdata$inv_uac_recurse     0000000140058534     pjsip-ua-x86_64-x64-vc14-release:sip_inv.obj
 0004:00000540       $pdata$pjsip_create_sdp_body 0000000140058540     pjsip-ua-x86_64-x64-vc14-release:sip_inv.obj
 0004:0000054c       $pdata$pjsip_inv_add_ref   000000014005854c     pjsip-ua-x86_64-x64-vc14-release:sip_inv.obj
 0004:00000558       $pdata$pjsip_inv_answer    0000000140058558     pjsip-ua-x86_64-x64-vc14-release:sip_inv.obj
 0004:00000564       $pdata$0$pjsip_inv_answer  0000000140058564     pjsip-ua-x86_64-x64-vc14-release:sip_inv.obj
 0004:00000570       $pdata$1$pjsip_inv_answer  0000000140058570     pjsip-ua-x86_64-x64-vc14-release:sip_inv.obj
 0004:0000057c       $pdata$pjsip_inv_cancel_reinvite 000000014005857c     pjsip-ua-x86_64-x64-vc14-release:sip_inv.obj
 0004:00000588       $pdata$pjsip_inv_create_ack 0000000140058588     pjsip-ua-x86_64-x64-vc14-release:sip_inv.obj
 0004:00000594       $pdata$2$pjsip_inv_create_ack 0000000140058594     pjsip-ua-x86_64-x64-vc14-release:sip_inv.obj
 0004:000005a0       $pdata$4$pjsip_inv_create_ack 00000001400585a0     pjsip-ua-x86_64-x64-vc14-release:sip_inv.obj
 0004:000005ac       $pdata$5$pjsip_inv_create_ack 00000001400585ac     pjsip-ua-x86_64-x64-vc14-release:sip_inv.obj
 0004:000005b8       $pdata$pjsip_inv_create_uac 00000001400585b8     pjsip-ua-x86_64-x64-vc14-release:sip_inv.obj
 0004:000005c4       $pdata$2$pjsip_inv_create_uac 00000001400585c4     pjsip-ua-x86_64-x64-vc14-release:sip_inv.obj
 0004:000005d0       $pdata$4$pjsip_inv_create_uac 00000001400585d0     pjsip-ua-x86_64-x64-vc14-release:sip_inv.obj
 0004:000005dc       $pdata$5$pjsip_inv_create_uac 00000001400585dc     pjsip-ua-x86_64-x64-vc14-release:sip_inv.obj
 0004:000005e8       $pdata$pjsip_inv_create_uas 00000001400585e8     pjsip-ua-x86_64-x64-vc14-release:sip_inv.obj
 0004:000005f4       $pdata$2$pjsip_inv_create_uas 00000001400585f4     pjsip-ua-x86_64-x64-vc14-release:sip_inv.obj
 0004:00000600       $pdata$4$pjsip_inv_create_uas 0000000140058600     pjsip-ua-x86_64-x64-vc14-release:sip_inv.obj
 0004:0000060c       $pdata$5$pjsip_inv_create_uas 000000014005860c     pjsip-ua-x86_64-x64-vc14-release:sip_inv.obj
 0004:00000618       $pdata$pjsip_inv_end_session 0000000140058618     pjsip-ua-x86_64-x64-vc14-release:sip_inv.obj
 0004:00000624       $pdata$pjsip_inv_initial_answer 0000000140058624     pjsip-ua-x86_64-x64-vc14-release:sip_inv.obj
 0004:00000630       $pdata$pjsip_inv_invite    0000000140058630     pjsip-ua-x86_64-x64-vc14-release:sip_inv.obj
 0004:0000063c       $pdata$0$pjsip_inv_invite  000000014005863c     pjsip-ua-x86_64-x64-vc14-release:sip_inv.obj
 0004:00000648       $pdata$1$pjsip_inv_invite  0000000140058648     pjsip-ua-x86_64-x64-vc14-release:sip_inv.obj
 0004:00000654       $pdata$pjsip_inv_process_redirect 0000000140058654     pjsip-ua-x86_64-x64-vc14-release:sip_inv.obj
 0004:00000660       $pdata$0$pjsip_inv_process_redirect 0000000140058660     pjsip-ua-x86_64-x64-vc14-release:sip_inv.obj
 0004:0000066c       $pdata$1$pjsip_inv_process_redirect 000000014005866c     pjsip-ua-x86_64-x64-vc14-release:sip_inv.obj
 0004:00000678       $pdata$pjsip_inv_send_msg  0000000140058678     pjsip-ua-x86_64-x64-vc14-release:sip_inv.obj
 0004:00000684       $pdata$0$pjsip_inv_send_msg 0000000140058684     pjsip-ua-x86_64-x64-vc14-release:sip_inv.obj
 0004:00000690       $pdata$2$pjsip_inv_send_msg 0000000140058690     pjsip-ua-x86_64-x64-vc14-release:sip_inv.obj
 0004:0000069c       $pdata$4$pjsip_inv_send_msg 000000014005869c     pjsip-ua-x86_64-x64-vc14-release:sip_inv.obj
 0004:000006a8       $pdata$6$pjsip_inv_send_msg 00000001400586a8     pjsip-ua-x86_64-x64-vc14-release:sip_inv.obj
 0004:000006b4       $pdata$7$pjsip_inv_send_msg 00000001400586b4     pjsip-ua-x86_64-x64-vc14-release:sip_inv.obj
 0004:000006c0       $pdata$pjsip_inv_set_sdp_answer 00000001400586c0     pjsip-ua-x86_64-x64-vc14-release:sip_inv.obj
 0004:000006cc       $pdata$pjsip_inv_uac_restart 00000001400586cc     pjsip-ua-x86_64-x64-vc14-release:sip_inv.obj
 0004:000006d8       $pdata$pjsip_inv_update    00000001400586d8     pjsip-ua-x86_64-x64-vc14-release:sip_inv.obj
 0004:000006e4       $pdata$0$pjsip_inv_update  00000001400586e4     pjsip-ua-x86_64-x64-vc14-release:sip_inv.obj
 0004:000006f0       $pdata$2$pjsip_inv_update  00000001400586f0     pjsip-ua-x86_64-x64-vc14-release:sip_inv.obj
 0004:000006fc       $pdata$3$pjsip_inv_update  00000001400586fc     pjsip-ua-x86_64-x64-vc14-release:sip_inv.obj
 0004:00000708       $pdata$pjsip_rdata_get_sdp_info 0000000140058708     pjsip-ua-x86_64-x64-vc14-release:sip_inv.obj
 0004:00000714       $pdata$0$pjsip_rdata_get_sdp_info 0000000140058714     pjsip-ua-x86_64-x64-vc14-release:sip_inv.obj
 0004:00000720       $pdata$1$pjsip_rdata_get_sdp_info 0000000140058720     pjsip-ua-x86_64-x64-vc14-release:sip_inv.obj
 0004:0000072c       $pdata$2$pjsip_rdata_get_sdp_info 000000014005872c     pjsip-ua-x86_64-x64-vc14-release:sip_inv.obj
 0004:00000738       $pdata$3$pjsip_rdata_get_sdp_info 0000000140058738     pjsip-ua-x86_64-x64-vc14-release:sip_inv.obj
 0004:00000744       $pdata$process_answer      0000000140058744     pjsip-ua-x86_64-x64-vc14-release:sip_inv.obj
 0004:00000750       $pdata$tx_data_has_sdp     0000000140058750     pjsip-ua-x86_64-x64-vc14-release:sip_inv.obj
 0004:0000075c       $pdata$mod_100rel_load     000000014005875c     pjsip-ua-x86_64-x64-vc14-release:sip_100rel.obj
 0004:00000768       $pdata$clear_all_responses 0000000140058768     pjsip-ua-x86_64-x64-vc14-release:sip_100rel.obj
 0004:00000774       $pdata$find_req_hdr        0000000140058774     pjsip-ua-x86_64-x64-vc14-release:sip_100rel.obj
 0004:00000780       $pdata$on_retransmit       0000000140058780     pjsip-ua-x86_64-x64-vc14-release:sip_100rel.obj
 0004:0000078c       $pdata$0$on_retransmit     000000014005878c     pjsip-ua-x86_64-x64-vc14-release:sip_100rel.obj
 0004:00000798       $pdata$1$on_retransmit     0000000140058798     pjsip-ua-x86_64-x64-vc14-release:sip_100rel.obj
 0004:000007a4       $pdata$pjsip_100rel_attach 00000001400587a4     pjsip-ua-x86_64-x64-vc14-release:sip_100rel.obj
 0004:000007b0       $pdata$pjsip_100rel_create_prack 00000001400587b0     pjsip-ua-x86_64-x64-vc14-release:sip_100rel.obj
 0004:000007bc       $pdata$0$pjsip_100rel_create_prack 00000001400587bc     pjsip-ua-x86_64-x64-vc14-release:sip_100rel.obj
 0004:000007c8       $pdata$2$pjsip_100rel_create_prack 00000001400587c8     pjsip-ua-x86_64-x64-vc14-release:sip_100rel.obj
 0004:000007d4       $pdata$3$pjsip_100rel_create_prack 00000001400587d4     pjsip-ua-x86_64-x64-vc14-release:sip_100rel.obj
 0004:000007e0       $pdata$4$pjsip_100rel_create_prack 00000001400587e0     pjsip-ua-x86_64-x64-vc14-release:sip_100rel.obj
 0004:000007ec       $pdata$pjsip_100rel_end_session 00000001400587ec     pjsip-ua-x86_64-x64-vc14-release:sip_100rel.obj
 0004:000007f8       $pdata$pjsip_100rel_is_reliable 00000001400587f8     pjsip-ua-x86_64-x64-vc14-release:sip_100rel.obj
 0004:00000804       $pdata$pjsip_100rel_on_rx_prack 0000000140058804     pjsip-ua-x86_64-x64-vc14-release:sip_100rel.obj
 0004:00000810       $pdata$pjsip_100rel_send_prack 0000000140058810     pjsip-ua-x86_64-x64-vc14-release:sip_100rel.obj
 0004:0000081c       $pdata$pjsip_100rel_tx_response 000000014005881c     pjsip-ua-x86_64-x64-vc14-release:sip_100rel.obj
 0004:00000828       $pdata$0$pjsip_100rel_tx_response 0000000140058828     pjsip-ua-x86_64-x64-vc14-release:sip_100rel.obj
 0004:00000834       $pdata$1$pjsip_100rel_tx_response 0000000140058834     pjsip-ua-x86_64-x64-vc14-release:sip_100rel.obj
 0004:00000840       $pdata$2$pjsip_100rel_tx_response 0000000140058840     pjsip-ua-x86_64-x64-vc14-release:sip_100rel.obj
 0004:0000084c       $pdata$3$pjsip_100rel_tx_response 000000014005884c     pjsip-ua-x86_64-x64-vc14-release:sip_100rel.obj
 0004:00000858       $pdata$se_hdr_print        0000000140058858     pjsip-ua-x86_64-x64-vc14-release:sip_timer.obj
 0004:00000864       $pdata$se_hdr_clone        0000000140058864     pjsip-ua-x86_64-x64-vc14-release:sip_timer.obj
 0004:00000870       $pdata$min_se_hdr_print    0000000140058870     pjsip-ua-x86_64-x64-vc14-release:sip_timer.obj
 0004:0000087c       $pdata$min_se_hdr_clone    000000014005887c     pjsip-ua-x86_64-x64-vc14-release:sip_timer.obj
 0004:00000888       $pdata$min_se_hdr_shallow_clone 0000000140058888     pjsip-ua-x86_64-x64-vc14-release:sip_timer.obj
 0004:00000894       $pdata$add_timer_headers   0000000140058894     pjsip-ua-x86_64-x64-vc14-release:sip_timer.obj
 0004:000008a0       $pdata$pjsip_timer_end_session 00000001400588a0     pjsip-ua-x86_64-x64-vc14-release:sip_timer.obj
 0004:000008ac       $pdata$pjsip_timer_handle_refresh_error 00000001400588ac     pjsip-ua-x86_64-x64-vc14-release:sip_timer.obj
 0004:000008b8       $pdata$0$pjsip_timer_handle_refresh_error 00000001400588b8     pjsip-ua-x86_64-x64-vc14-release:sip_timer.obj
 0004:000008c4       $pdata$2$pjsip_timer_handle_refresh_error 00000001400588c4     pjsip-ua-x86_64-x64-vc14-release:sip_timer.obj
 0004:000008d0       $pdata$3$pjsip_timer_handle_refresh_error 00000001400588d0     pjsip-ua-x86_64-x64-vc14-release:sip_timer.obj
 0004:000008dc       $pdata$pjsip_timer_init_session 00000001400588dc     pjsip-ua-x86_64-x64-vc14-release:sip_timer.obj
 0004:000008e8       $pdata$pjsip_timer_process_req 00000001400588e8     pjsip-ua-x86_64-x64-vc14-release:sip_timer.obj
 0004:000008f4       $pdata$0$pjsip_timer_process_req 00000001400588f4     pjsip-ua-x86_64-x64-vc14-release:sip_timer.obj
 0004:00000900       $pdata$3$pjsip_timer_process_req 0000000140058900     pjsip-ua-x86_64-x64-vc14-release:sip_timer.obj
 0004:0000090c       $pdata$5$pjsip_timer_process_req 000000014005890c     pjsip-ua-x86_64-x64-vc14-release:sip_timer.obj
 0004:00000918       $pdata$6$pjsip_timer_process_req 0000000140058918     pjsip-ua-x86_64-x64-vc14-release:sip_timer.obj
 0004:00000924       $pdata$pjsip_timer_process_resp 0000000140058924     pjsip-ua-x86_64-x64-vc14-release:sip_timer.obj
 0004:00000930       $pdata$0$pjsip_timer_process_resp 0000000140058930     pjsip-ua-x86_64-x64-vc14-release:sip_timer.obj
 0004:0000093c       $pdata$2$pjsip_timer_process_resp 000000014005893c     pjsip-ua-x86_64-x64-vc14-release:sip_timer.obj
 0004:00000948       $pdata$3$pjsip_timer_process_resp 0000000140058948     pjsip-ua-x86_64-x64-vc14-release:sip_timer.obj
 0004:00000954       $pdata$pjsip_timer_update_req 0000000140058954     pjsip-ua-x86_64-x64-vc14-release:sip_timer.obj
 0004:00000960       $pdata$pjsip_timer_update_resp 0000000140058960     pjsip-ua-x86_64-x64-vc14-release:sip_timer.obj
 0004:0000096c       $pdata$0$pjsip_timer_update_resp 000000014005896c     pjsip-ua-x86_64-x64-vc14-release:sip_timer.obj
 0004:00000978       $pdata$2$pjsip_timer_update_resp 0000000140058978     pjsip-ua-x86_64-x64-vc14-release:sip_timer.obj
 0004:00000984       $pdata$4$pjsip_timer_update_resp 0000000140058984     pjsip-ua-x86_64-x64-vc14-release:sip_timer.obj
 0004:00000990       $pdata$5$pjsip_timer_update_resp 0000000140058990     pjsip-ua-x86_64-x64-vc14-release:sip_timer.obj
 0004:0000099c       $pdata$start_timer         000000014005899c     pjsip-ua-x86_64-x64-vc14-release:sip_timer.obj
 0004:000009a8       $pdata$stop_timer          00000001400589a8     pjsip-ua-x86_64-x64-vc14-release:sip_timer.obj
 0004:000009b4       $pdata$timer_cb            00000001400589b4     pjsip-ua-x86_64-x64-vc14-release:sip_timer.obj
 0004:000009c0       $pdata$pjsip_generic_string_hdr_print 00000001400589c0     pjsip-core-x86_64-x64-vc14-release:sip_msg.obj
 0004:000009cc       $pdata$pjsip_generic_string_hdr_clone 00000001400589cc     pjsip-core-x86_64-x64-vc14-release:sip_msg.obj
 0004:000009d8       $pdata$pjsip_generic_string_hdr_shallow_clone 00000001400589d8     pjsip-core-x86_64-x64-vc14-release:sip_msg.obj
 0004:000009e4       $pdata$pjsip_generic_int_hdr_print 00000001400589e4     pjsip-core-x86_64-x64-vc14-release:sip_msg.obj
 0004:000009f0       $pdata$pjsip_generic_int_hdr_clone 00000001400589f0     pjsip-core-x86_64-x64-vc14-release:sip_msg.obj
 0004:000009f0       $pdata$pjsip_generic_int_hdr_shallow_clone 00000001400589f0     pjsip-core-x86_64-x64-vc14-release:sip_msg.obj
 0004:000009fc       $pdata$pjsip_generic_array_hdr_print 00000001400589fc     pjsip-core-x86_64-x64-vc14-release:sip_msg.obj
 0004:00000a08       $pdata$0$pjsip_generic_array_hdr_print 0000000140058a08     pjsip-core-x86_64-x64-vc14-release:sip_msg.obj
 0004:00000a14       $pdata$1$pjsip_generic_array_hdr_print 0000000140058a14     pjsip-core-x86_64-x64-vc14-release:sip_msg.obj
 0004:00000a20       $pdata$2$pjsip_generic_array_hdr_print 0000000140058a20     pjsip-core-x86_64-x64-vc14-release:sip_msg.obj
 0004:00000a2c       $pdata$pjsip_generic_array_hdr_clone 0000000140058a2c     pjsip-core-x86_64-x64-vc14-release:sip_msg.obj
 0004:00000a38       $pdata$pjsip_generic_array_hdr_shallow_clone 0000000140058a38     pjsip-core-x86_64-x64-vc14-release:sip_msg.obj
 0004:00000a44       $pdata$pjsip_clen_hdr_print 0000000140058a44     pjsip-core-x86_64-x64-vc14-release:sip_msg.obj
 0004:00000a50       $pdata$pjsip_clen_hdr_clone 0000000140058a50     pjsip-core-x86_64-x64-vc14-release:sip_msg.obj
 0004:00000a5c       $pdata$pjsip_cseq_hdr_print 0000000140058a5c     pjsip-core-x86_64-x64-vc14-release:sip_msg.obj
 0004:00000a68       $pdata$pjsip_cseq_hdr_clone 0000000140058a68     pjsip-core-x86_64-x64-vc14-release:sip_msg.obj
 0004:00000a74       $pdata$pjsip_cseq_hdr_shallow_clone 0000000140058a74     pjsip-core-x86_64-x64-vc14-release:sip_msg.obj
 0004:00000a80       $pdata$pjsip_contact_hdr_print 0000000140058a80     pjsip-core-x86_64-x64-vc14-release:sip_msg.obj
 0004:00000a8c       $pdata$1$pjsip_contact_hdr_print 0000000140058a8c     pjsip-core-x86_64-x64-vc14-release:sip_msg.obj
 0004:00000a98       $pdata$2$pjsip_contact_hdr_print 0000000140058a98     pjsip-core-x86_64-x64-vc14-release:sip_msg.obj
 0004:00000aa4       $pdata$pjsip_contact_hdr_clone 0000000140058aa4     pjsip-core-x86_64-x64-vc14-release:sip_msg.obj
 0004:00000ab0       $pdata$se_hdr_shallow_clone 0000000140058ab0     pjsip-ua-x86_64-x64-vc14-release:sip_timer.obj
 0004:00000ab0       $pdata$pjsip_fromto_hdr_shallow_clone 0000000140058ab0     pjsip-core-x86_64-x64-vc14-release:sip_msg.obj
 0004:00000ab0       $pdata$pjsip_contact_hdr_shallow_clone 0000000140058ab0     pjsip-core-x86_64-x64-vc14-release:sip_msg.obj
 0004:00000abc       $pdata$pjsip_ctype_hdr_print 0000000140058abc     pjsip-core-x86_64-x64-vc14-release:sip_msg.obj
 0004:00000ac8       $pdata$pjsip_ctype_hdr_clone 0000000140058ac8     pjsip-core-x86_64-x64-vc14-release:sip_msg.obj
 0004:00000ad4       $pdata$pjsip_fromto_hdr_print 0000000140058ad4     pjsip-core-x86_64-x64-vc14-release:sip_msg.obj
 0004:00000ae0       $pdata$pjsip_fromto_hdr_clone 0000000140058ae0     pjsip-core-x86_64-x64-vc14-release:sip_msg.obj
 0004:00000aec       $pdata$pjsip_routing_hdr_print 0000000140058aec     pjsip-core-x86_64-x64-vc14-release:sip_msg.obj
 0004:00000af8       $pdata$pjsip_routing_hdr_clone 0000000140058af8     pjsip-core-x86_64-x64-vc14-release:sip_msg.obj
 0004:00000b04       $pdata$pjsip_routing_hdr_shallow_clone 0000000140058b04     pjsip-core-x86_64-x64-vc14-release:sip_msg.obj
 0004:00000b10       $pdata$pjsip_retry_after_hdr_print 0000000140058b10     pjsip-core-x86_64-x64-vc14-release:sip_msg.obj
 0004:00000b1c       $pdata$0$pjsip_retry_after_hdr_print 0000000140058b1c     pjsip-core-x86_64-x64-vc14-release:sip_msg.obj
 0004:00000b28       $pdata$1$pjsip_retry_after_hdr_print 0000000140058b28     pjsip-core-x86_64-x64-vc14-release:sip_msg.obj
 0004:00000b34       $pdata$pjsip_retry_after_hdr_clone 0000000140058b34     pjsip-core-x86_64-x64-vc14-release:sip_msg.obj
 0004:00000b40       $pdata$pjsip_retry_after_hdr_shallow_clone 0000000140058b40     pjsip-core-x86_64-x64-vc14-release:sip_msg.obj
 0004:00000b4c       $pdata$pjsip_via_hdr_print 0000000140058b4c     pjsip-core-x86_64-x64-vc14-release:sip_msg.obj
 0004:00000b58       $pdata$pjsip_via_hdr_clone 0000000140058b58     pjsip-core-x86_64-x64-vc14-release:sip_msg.obj
 0004:00000b64       $pdata$pjsip_via_hdr_shallow_clone 0000000140058b64     pjsip-core-x86_64-x64-vc14-release:sip_msg.obj
 0004:00000b70       $pdata$init_status_phrase  0000000140058b70     pjsip-core-x86_64-x64-vc14-release:sip_msg.obj
 0004:00000b7c       $pdata$pjsip_accept_hdr_create 0000000140058b7c     pjsip-core-x86_64-x64-vc14-release:sip_msg.obj
 0004:00000b88       $pdata$pjsip_allow_hdr_create 0000000140058b88     pjsip-core-x86_64-x64-vc14-release:sip_msg.obj
 0004:00000b94       $pdata$pjsip_cid_hdr_create 0000000140058b94     pjsip-core-x86_64-x64-vc14-release:sip_msg.obj
 0004:00000ba0       $pdata$pjsip_clen_hdr_create 0000000140058ba0     pjsip-core-x86_64-x64-vc14-release:sip_msg.obj
 0004:00000bac       $pdata$pjsip_clone_text_data 0000000140058bac     pjsip-core-x86_64-x64-vc14-release:sip_msg.obj
 0004:00000bb8       $pdata$1$pjsip_clone_text_data 0000000140058bb8     pjsip-core-x86_64-x64-vc14-release:sip_msg.obj
 0004:00000bc4       $pdata$2$pjsip_clone_text_data 0000000140058bc4     pjsip-core-x86_64-x64-vc14-release:sip_msg.obj
 0004:00000bd0       $pdata$pjsip_contact_hdr_create 0000000140058bd0     pjsip-core-x86_64-x64-vc14-release:sip_msg.obj
 0004:00000bdc       $pdata$pjsip_contact_hdr_init 0000000140058bdc     pjsip-core-x86_64-x64-vc14-release:sip_msg.obj
 0004:00000be8       $pdata$pjsip_cseq_hdr_create 0000000140058be8     pjsip-core-x86_64-x64-vc14-release:sip_msg.obj
 0004:00000bf4       $pdata$pjsip_ctype_hdr_create 0000000140058bf4     pjsip-core-x86_64-x64-vc14-release:sip_msg.obj
 0004:00000c00       $pdata$pjsip_ctype_hdr_init 0000000140058c00     pjsip-core-x86_64-x64-vc14-release:sip_msg.obj
 0004:00000c0c       $pdata$pjsip_expires_hdr_create 0000000140058c0c     pjsip-core-x86_64-x64-vc14-release:sip_msg.obj
 0004:00000c18       $pdata$pjsip_from_hdr_create 0000000140058c18     pjsip-core-x86_64-x64-vc14-release:sip_msg.obj
 0004:00000c24       $pdata$pjsip_from_hdr_init 0000000140058c24     pjsip-core-x86_64-x64-vc14-release:sip_msg.obj
 0004:00000c30       $pdata$pjsip_generic_array_hdr_init 0000000140058c30     pjsip-core-x86_64-x64-vc14-release:sip_msg.obj
 0004:00000c3c       $pdata$pjsip_generic_string_hdr_create 0000000140058c3c     pjsip-core-x86_64-x64-vc14-release:sip_msg.obj
 0004:00000c48       $pdata$pjsip_generic_string_hdr_init 0000000140058c48     pjsip-core-x86_64-x64-vc14-release:sip_msg.obj
 0004:00000c54       $pdata$pjsip_get_status_text 0000000140058c54     pjsip-core-x86_64-x64-vc14-release:sip_msg.obj
 0004:00000c60       $pdata$pjsip_max_fwd_hdr_create 0000000140058c60     pjsip-core-x86_64-x64-vc14-release:sip_msg.obj
 0004:00000c6c       $pdata$pjsip_media_type_cmp 0000000140058c6c     pjsip-core-x86_64-x64-vc14-release:sip_msg.obj
 0004:00000c78       $pdata$pjsip_media_type_cp 0000000140058c78     pjsip-core-x86_64-x64-vc14-release:sip_msg.obj
 0004:00000c84       $pdata$pjsip_media_type_init 0000000140058c84     pjsip-core-x86_64-x64-vc14-release:sip_msg.obj
 0004:00000c90       $pdata$pjsip_media_type_init2 0000000140058c90     pjsip-core-x86_64-x64-vc14-release:sip_msg.obj
 0004:00000c9c       $pdata$pjsip_method_init_np 0000000140058c9c     pjsip-core-x86_64-x64-vc14-release:sip_msg.obj
 0004:00000ca8       $pdata$pjsip_min_expires_hdr_create 0000000140058ca8     pjsip-core-x86_64-x64-vc14-release:sip_msg.obj
 0004:00000cb4       $pdata$pjsip_msg_body_clone 0000000140058cb4     pjsip-core-x86_64-x64-vc14-release:sip_msg.obj
 0004:00000cc0       $pdata$pjsip_msg_body_copy 0000000140058cc0     pjsip-core-x86_64-x64-vc14-release:sip_msg.obj
 0004:00000ccc       $pdata$pjsip_msg_create    0000000140058ccc     pjsip-core-x86_64-x64-vc14-release:sip_msg.obj
 0004:00000cd8       $pdata$pjsip_msg_find_hdr_by_name 0000000140058cd8     pjsip-core-x86_64-x64-vc14-release:sip_msg.obj
 0004:00000ce4       $pdata$pjsip_msg_find_hdr_by_names 0000000140058ce4     pjsip-core-x86_64-x64-vc14-release:sip_msg.obj
 0004:00000cf0       $pdata$pjsip_msg_print     0000000140058cf0     pjsip-core-x86_64-x64-vc14-release:sip_msg.obj
 0004:00000cfc       $pdata$1$pjsip_msg_print   0000000140058cfc     pjsip-core-x86_64-x64-vc14-release:sip_msg.obj
 0004:00000d08       $pdata$3$pjsip_msg_print   0000000140058d08     pjsip-core-x86_64-x64-vc14-release:sip_msg.obj
 0004:00000d14       $pdata$4$pjsip_msg_print   0000000140058d14     pjsip-core-x86_64-x64-vc14-release:sip_msg.obj
 0004:00000d20       $pdata$5$pjsip_msg_print   0000000140058d20     pjsip-core-x86_64-x64-vc14-release:sip_msg.obj
 0004:00000d2c       $pdata$pjsip_print_text_body 0000000140058d2c     pjsip-core-x86_64-x64-vc14-release:sip_msg.obj
 0004:00000d38       $pdata$pjsip_require_hdr_create 0000000140058d38     pjsip-core-x86_64-x64-vc14-release:sip_msg.obj
 0004:00000d44       $pdata$pjsip_retry_after_hdr_create 0000000140058d44     pjsip-core-x86_64-x64-vc14-release:sip_msg.obj
 0004:00000d50       $pdata$pjsip_route_hdr_create 0000000140058d50     pjsip-core-x86_64-x64-vc14-release:sip_msg.obj
 0004:00000d5c       $pdata$pjsip_rr_hdr_create 0000000140058d5c     pjsip-core-x86_64-x64-vc14-release:sip_msg.obj
 0004:00000d68       $pdata$pjsip_supported_hdr_create 0000000140058d68     pjsip-core-x86_64-x64-vc14-release:sip_msg.obj
 0004:00000d74       $pdata$pjsip_to_hdr_create 0000000140058d74     pjsip-core-x86_64-x64-vc14-release:sip_msg.obj
 0004:00000d80       $pdata$pjsip_to_hdr_init   0000000140058d80     pjsip-core-x86_64-x64-vc14-release:sip_msg.obj
 0004:00000d8c       $pdata$pjsip_unsupported_hdr_create 0000000140058d8c     pjsip-core-x86_64-x64-vc14-release:sip_msg.obj
 0004:00000d98       $pdata$pjsip_via_hdr_create 0000000140058d98     pjsip-core-x86_64-x64-vc14-release:sip_msg.obj
 0004:00000da4       $pdata$pjsip_via_hdr_init  0000000140058da4     pjsip-core-x86_64-x64-vc14-release:sip_msg.obj
 0004:00000db0       $pdata$pjsip_warning_hdr_create 0000000140058db0     pjsip-core-x86_64-x64-vc14-release:sip_msg.obj
 0004:00000dbc       $pdata$pjsip_warning_hdr_create_from_status 0000000140058dbc     pjsip-core-x86_64-x64-vc14-release:sip_msg.obj
 0004:00000dc8       $pdata$print_media_type    0000000140058dc8     pjsip-core-x86_64-x64-vc14-release:sip_msg.obj
 0004:00000dd4       $pdata$destroy_transport   0000000140058dd4     pjsip-core-x86_64-x64-vc14-release:sip_transport.obj
 0004:00000de0       $pdata$3$destroy_transport 0000000140058de0     pjsip-core-x86_64-x64-vc14-release:sip_transport.obj
 0004:00000dec       $pdata$4$destroy_transport 0000000140058dec     pjsip-core-x86_64-x64-vc14-release:sip_transport.obj
 0004:00000df8       $pdata$5$destroy_transport 0000000140058df8     pjsip-core-x86_64-x64-vc14-release:sip_transport.obj
 0004:00000e04       $pdata$6$destroy_transport 0000000140058e04     pjsip-core-x86_64-x64-vc14-release:sip_transport.obj
 0004:00000e10       $pdata$7$destroy_transport 0000000140058e10     pjsip-core-x86_64-x64-vc14-release:sip_transport.obj
 0004:00000e1c       $pdata$8$destroy_transport 0000000140058e1c     pjsip-core-x86_64-x64-vc14-release:sip_transport.obj
 0004:00000e28       $pdata$get_msg_info        0000000140058e28     pjsip-core-x86_64-x64-vc14-release:sip_transport.obj
 0004:00000e34       $pdata$pjsip_rx_data_get_info 0000000140058e34     pjsip-core-x86_64-x64-vc14-release:sip_transport.obj
 0004:00000e40       $pdata$pjsip_tpmgr_acquire_transport2 0000000140058e40     pjsip-core-x86_64-x64-vc14-release:sip_transport.obj
 0004:00000e4c       $pdata$0$pjsip_tpmgr_acquire_transport2 0000000140058e4c     pjsip-core-x86_64-x64-vc14-release:sip_transport.obj
 0004:00000e58       $pdata$1$pjsip_tpmgr_acquire_transport2 0000000140058e58     pjsip-core-x86_64-x64-vc14-release:sip_transport.obj
 0004:00000e64       $pdata$2$pjsip_tpmgr_acquire_transport2 0000000140058e64     pjsip-core-x86_64-x64-vc14-release:sip_transport.obj
 0004:00000e70       $pdata$pjsip_tpmgr_create  0000000140058e70     pjsip-core-x86_64-x64-vc14-release:sip_transport.obj
 0004:00000e7c       $pdata$1$pjsip_tpmgr_create 0000000140058e7c     pjsip-core-x86_64-x64-vc14-release:sip_transport.obj
 0004:00000e88       $pdata$2$pjsip_tpmgr_create 0000000140058e88     pjsip-core-x86_64-x64-vc14-release:sip_transport.obj
 0004:00000e94       $pdata$3$pjsip_tpmgr_create 0000000140058e94     pjsip-core-x86_64-x64-vc14-release:sip_transport.obj
 0004:00000ea0       $pdata$4$pjsip_tpmgr_create 0000000140058ea0     pjsip-core-x86_64-x64-vc14-release:sip_transport.obj
 0004:00000eac       $pdata$pjsip_tpmgr_destroy 0000000140058eac     pjsip-core-x86_64-x64-vc14-release:sip_transport.obj
 0004:00000eb8       $pdata$0$pjsip_tpmgr_destroy 0000000140058eb8     pjsip-core-x86_64-x64-vc14-release:sip_transport.obj
 0004:00000ec4       $pdata$2$pjsip_tpmgr_destroy 0000000140058ec4     pjsip-core-x86_64-x64-vc14-release:sip_transport.obj
 0004:00000ed0       $pdata$3$pjsip_tpmgr_destroy 0000000140058ed0     pjsip-core-x86_64-x64-vc14-release:sip_transport.obj
 0004:00000edc       $pdata$4$pjsip_tpmgr_destroy 0000000140058edc     pjsip-core-x86_64-x64-vc14-release:sip_transport.obj
 0004:00000ee8       $pdata$pjsip_tpmgr_receive_packet 0000000140058ee8     pjsip-core-x86_64-x64-vc14-release:sip_transport.obj
 0004:00000ef4       $pdata$1$pjsip_tpmgr_receive_packet 0000000140058ef4     pjsip-core-x86_64-x64-vc14-release:sip_transport.obj
 0004:00000f00       $pdata$2$pjsip_tpmgr_receive_packet 0000000140058f00     pjsip-core-x86_64-x64-vc14-release:sip_transport.obj
 0004:00000f0c       $pdata$3$pjsip_tpmgr_receive_packet 0000000140058f0c     pjsip-core-x86_64-x64-vc14-release:sip_transport.obj
 0004:00000f18       $pdata$pjsip_tpmgr_register_tpfactory 0000000140058f18     pjsip-core-x86_64-x64-vc14-release:sip_transport.obj
 0004:00000f24       $pdata$pjsip_tpmgr_unregister_tpfactory 0000000140058f24     pjsip-core-x86_64-x64-vc14-release:sip_transport.obj
 0004:00000f30       $pdata$pjsip_transport_add_ref 0000000140058f30     pjsip-core-x86_64-x64-vc14-release:sip_transport.obj
 0004:00000f3c       $pdata$pjsip_transport_add_state_listener 0000000140058f3c     pjsip-core-x86_64-x64-vc14-release:sip_transport.obj
 0004:00000f48       $pdata$1$pjsip_transport_add_state_listener 0000000140058f48     pjsip-core-x86_64-x64-vc14-release:sip_transport.obj
 0004:00000f54       $pdata$2$pjsip_transport_add_state_listener 0000000140058f54     pjsip-core-x86_64-x64-vc14-release:sip_transport.obj
 0004:00000f60       $pdata$pjsip_transport_dec_ref 0000000140058f60     pjsip-core-x86_64-x64-vc14-release:sip_transport.obj
 0004:00000f6c       $pdata$1$pjsip_transport_dec_ref 0000000140058f6c     pjsip-core-x86_64-x64-vc14-release:sip_transport.obj
 0004:00000f78       $pdata$2$pjsip_transport_dec_ref 0000000140058f78     pjsip-core-x86_64-x64-vc14-release:sip_transport.obj
 0004:00000f84       $pdata$pjsip_transport_destroy 0000000140058f84     pjsip-core-x86_64-x64-vc14-release:sip_transport.obj
 0004:00000f90       $pdata$pjsip_transport_get_type_from_name 0000000140058f90     pjsip-core-x86_64-x64-vc14-release:sip_transport.obj
 0004:00000f9c       $pdata$1$pjsip_transport_get_type_from_name 0000000140058f9c     pjsip-core-x86_64-x64-vc14-release:sip_transport.obj
 0004:00000fa8       $pdata$3$pjsip_transport_get_type_from_name 0000000140058fa8     pjsip-core-x86_64-x64-vc14-release:sip_transport.obj
 0004:00000fb4       $pdata$pjsip_transport_register 0000000140058fb4     pjsip-core-x86_64-x64-vc14-release:sip_transport.obj
 0004:00000fc0       $pdata$pjsip_transport_remove_state_listener 0000000140058fc0     pjsip-core-x86_64-x64-vc14-release:sip_transport.obj
 0004:00000fcc       $pdata$0$pjsip_transport_remove_state_listener 0000000140058fcc     pjsip-core-x86_64-x64-vc14-release:sip_transport.obj
 0004:00000fd8       $pdata$2$pjsip_transport_remove_state_listener 0000000140058fd8     pjsip-core-x86_64-x64-vc14-release:sip_transport.obj
 0004:00000fe4       $pdata$3$pjsip_transport_remove_state_listener 0000000140058fe4     pjsip-core-x86_64-x64-vc14-release:sip_transport.obj
 0004:00000ff0       $pdata$pjsip_transport_send 0000000140058ff0     pjsip-core-x86_64-x64-vc14-release:sip_transport.obj
 0004:00000ffc       $pdata$0$pjsip_transport_send 0000000140058ffc     pjsip-core-x86_64-x64-vc14-release:sip_transport.obj
 0004:00001008       $pdata$1$pjsip_transport_send 0000000140059008     pjsip-core-x86_64-x64-vc14-release:sip_transport.obj
 0004:00001014       $pdata$pjsip_transport_shutdown2 0000000140059014     pjsip-core-x86_64-x64-vc14-release:sip_transport.obj
 0004:00001020       $pdata$pjsip_tx_data_clone 0000000140059020     pjsip-core-x86_64-x64-vc14-release:sip_transport.obj
 0004:0000102c       $pdata$1$pjsip_tx_data_clone 000000014005902c     pjsip-core-x86_64-x64-vc14-release:sip_transport.obj
 0004:00001038       $pdata$2$pjsip_tx_data_clone 0000000140059038     pjsip-core-x86_64-x64-vc14-release:sip_transport.obj
 0004:00001044       $pdata$3$pjsip_tx_data_clone 0000000140059044     pjsip-core-x86_64-x64-vc14-release:sip_transport.obj
 0004:00001050       $pdata$4$pjsip_tx_data_clone 0000000140059050     pjsip-core-x86_64-x64-vc14-release:sip_transport.obj
 0004:0000105c       $pdata$5$pjsip_tx_data_clone 000000014005905c     pjsip-core-x86_64-x64-vc14-release:sip_transport.obj
 0004:00001068       $pdata$pjsip_tx_data_create 0000000140059068     pjsip-core-x86_64-x64-vc14-release:sip_transport.obj
 0004:00001074       $pdata$0$pjsip_tx_data_create 0000000140059074     pjsip-core-x86_64-x64-vc14-release:sip_transport.obj
 0004:00001080       $pdata$4$pjsip_tx_data_create 0000000140059080     pjsip-core-x86_64-x64-vc14-release:sip_transport.obj
 0004:0000108c       $pdata$6$pjsip_tx_data_create 000000014005908c     pjsip-core-x86_64-x64-vc14-release:sip_transport.obj
 0004:00001098       $pdata$7$pjsip_tx_data_create 0000000140059098     pjsip-core-x86_64-x64-vc14-release:sip_transport.obj
 0004:000010a4       $pdata$pjsip_tx_data_dec_ref 00000001400590a4     pjsip-core-x86_64-x64-vc14-release:sip_transport.obj
 0004:000010b0       $pdata$pjsip_tx_data_encode 00000001400590b0     pjsip-core-x86_64-x64-vc14-release:sip_transport.obj
 0004:000010bc       $pdata$pjsip_tx_data_get_info 00000001400590bc     pjsip-core-x86_64-x64-vc14-release:sip_transport.obj
 0004:000010c8       $pdata$pjsip_tx_data_set_transport 00000001400590c8     pjsip-core-x86_64-x64-vc14-release:sip_transport.obj
 0004:000010d4       $pdata$tp_state_callback   00000001400590d4     pjsip-core-x86_64-x64-vc14-release:sip_transport.obj
 0004:000010e0       $pdata$0$tp_state_callback 00000001400590e0     pjsip-core-x86_64-x64-vc14-release:sip_transport.obj
 0004:000010ec       $pdata$1$tp_state_callback 00000001400590ec     pjsip-core-x86_64-x64-vc14-release:sip_transport.obj
 0004:000010f8       $pdata$transport_send_callback 00000001400590f8     pjsip-core-x86_64-x64-vc14-release:sip_transport.obj
 0004:00001104       $pdata$tx_data_destroy     0000000140059104     pjsip-core-x86_64-x64-vc14-release:sip_transport.obj
 0004:00001110       $pdata$endpt_on_rx_msg     0000000140059110     pjsip-core-x86_64-x64-vc14-release:sip_endpoint.obj
 0004:0000111c       $pdata$endpt_on_tx_msg     000000014005911c     pjsip-core-x86_64-x64-vc14-release:sip_endpoint.obj
 0004:00001128       $pdata$pjsip_endpt_add_capability 0000000140059128     pjsip-core-x86_64-x64-vc14-release:sip_endpoint.obj
 0004:00001134       $pdata$1$pjsip_endpt_add_capability 0000000140059134     pjsip-core-x86_64-x64-vc14-release:sip_endpoint.obj
 0004:00001140       $pdata$3$pjsip_endpt_add_capability 0000000140059140     pjsip-core-x86_64-x64-vc14-release:sip_endpoint.obj
 0004:0000114c       $pdata$4$pjsip_endpt_add_capability 000000014005914c     pjsip-core-x86_64-x64-vc14-release:sip_endpoint.obj
 0004:00001158       $pdata$pjsip_endpt_atexit  0000000140059158     pjsip-core-x86_64-x64-vc14-release:sip_endpoint.obj
 0004:00001164       $pdata$0$pjsip_endpt_atexit 0000000140059164     pjsip-core-x86_64-x64-vc14-release:sip_endpoint.obj
 0004:00001170       $pdata$1$pjsip_endpt_atexit 0000000140059170     pjsip-core-x86_64-x64-vc14-release:sip_endpoint.obj
 0004:0000117c       $pdata$pjsip_endpt_cancel_timer 000000014005917c     pjsip-core-x86_64-x64-vc14-release:sip_endpoint.obj
 0004:00001188       $pdata$pjsip_endpt_create  0000000140059188     pjsip-core-x86_64-x64-vc14-release:sip_endpoint.obj
 0004:00001194       $pdata$1$pjsip_endpt_create 0000000140059194     pjsip-core-x86_64-x64-vc14-release:sip_endpoint.obj
 0004:000011a0       $pdata$3$pjsip_endpt_create 00000001400591a0     pjsip-core-x86_64-x64-vc14-release:sip_endpoint.obj
 0004:000011ac       $pdata$pjsip_endpt_create_pool 00000001400591ac     pjsip-core-x86_64-x64-vc14-release:sip_endpoint.obj
 0004:000011b8       $pdata$pjsip_endpt_destroy 00000001400591b8     pjsip-core-x86_64-x64-vc14-release:sip_endpoint.obj
 0004:000011c4       $pdata$1$pjsip_endpt_destroy 00000001400591c4     pjsip-core-x86_64-x64-vc14-release:sip_endpoint.obj
 0004:000011d0       $pdata$3$pjsip_endpt_destroy 00000001400591d0     pjsip-core-x86_64-x64-vc14-release:sip_endpoint.obj
 0004:000011dc       $pdata$4$pjsip_endpt_destroy 00000001400591dc     pjsip-core-x86_64-x64-vc14-release:sip_endpoint.obj
 0004:000011e8       $pdata$5$pjsip_endpt_destroy 00000001400591e8     pjsip-core-x86_64-x64-vc14-release:sip_endpoint.obj
 0004:000011f4       $pdata$pjsip_endpt_handle_events2 00000001400591f4     pjsip-core-x86_64-x64-vc14-release:sip_endpoint.obj
 0004:00001200       $pdata$pjsip_endpt_log_error 0000000140059200     pjsip-core-x86_64-x64-vc14-release:sip_endpoint.obj
 0004:0000120c       $pdata$1$pjsip_endpt_log_error 000000014005920c     pjsip-core-x86_64-x64-vc14-release:sip_endpoint.obj
 0004:00001218       $pdata$2$pjsip_endpt_log_error 0000000140059218     pjsip-core-x86_64-x64-vc14-release:sip_endpoint.obj
 0004:00001224       $pdata$pjsip_endpt_process_rx_data 0000000140059224     pjsip-core-x86_64-x64-vc14-release:sip_endpoint.obj
 0004:00001230       $pdata$1$pjsip_endpt_process_rx_data 0000000140059230     pjsip-core-x86_64-x64-vc14-release:sip_endpoint.obj
 0004:0000123c       $pdata$2$pjsip_endpt_process_rx_data 000000014005923c     pjsip-core-x86_64-x64-vc14-release:sip_endpoint.obj
 0004:00001248       $pdata$3$pjsip_endpt_process_rx_data 0000000140059248     pjsip-core-x86_64-x64-vc14-release:sip_endpoint.obj
 0004:00001254       $pdata$4$pjsip_endpt_process_rx_data 0000000140059254     pjsip-core-x86_64-x64-vc14-release:sip_endpoint.obj
 0004:00001260       $pdata$5$pjsip_endpt_process_rx_data 0000000140059260     pjsip-core-x86_64-x64-vc14-release:sip_endpoint.obj
 0004:0000126c       $pdata$6$pjsip_endpt_process_rx_data 000000014005926c     pjsip-core-x86_64-x64-vc14-release:sip_endpoint.obj
 0004:00001278       $pdata$pjsip_endpt_register_module 0000000140059278     pjsip-core-x86_64-x64-vc14-release:sip_endpoint.obj
 0004:00001284       $pdata$0$pjsip_endpt_register_module 0000000140059284     pjsip-core-x86_64-x64-vc14-release:sip_endpoint.obj
 0004:00001290       $pdata$1$pjsip_endpt_register_module 0000000140059290     pjsip-core-x86_64-x64-vc14-release:sip_endpoint.obj
 0004:0000129c       $pdata$2$pjsip_endpt_register_module 000000014005929c     pjsip-core-x86_64-x64-vc14-release:sip_endpoint.obj
 0004:000012a8       $pdata$3$pjsip_endpt_register_module 00000001400592a8     pjsip-core-x86_64-x64-vc14-release:sip_endpoint.obj
 0004:000012b4       $pdata$pjsip_endpt_release_pool 00000001400592b4     pjsip-core-x86_64-x64-vc14-release:sip_endpoint.obj
 0004:000012c0       $pdata$pjsip_endpt_schedule_timer_dbg 00000001400592c0     pjsip-core-x86_64-x64-vc14-release:sip_endpoint.obj
 0004:000012cc       $pdata$pjsip_endpt_schedule_timer_w_grp_lock_dbg 00000001400592cc     pjsip-core-x86_64-x64-vc14-release:sip_endpoint.obj
 0004:000012d8       $pdata$pjsip_endpt_unregister_module 00000001400592d8     pjsip-core-x86_64-x64-vc14-release:sip_endpoint.obj
 0004:000012e4       $pdata$pool_callback       00000001400592e4     pjsip-core-x86_64-x64-vc14-release:sip_endpoint.obj
 0004:000012f0       $pdata$unload_module       00000001400592f0     pjsip-core-x86_64-x64-vc14-release:sip_endpoint.obj
 0004:000012fc       $pdata$init_request_throw  00000001400592fc     pjsip-core-x86_64-x64-vc14-release:sip_util.obj
 0004:00001308       $pdata$1$init_request_throw 0000000140059308     pjsip-core-x86_64-x64-vc14-release:sip_util.obj
 0004:00001314       $pdata$3$init_request_throw 0000000140059314     pjsip-core-x86_64-x64-vc14-release:sip_util.obj
 0004:00001320       $pdata$4$init_request_throw 0000000140059320     pjsip-core-x86_64-x64-vc14-release:sip_util.obj
 0004:0000132c       $pdata$5$init_request_throw 000000014005932c     pjsip-core-x86_64-x64-vc14-release:sip_util.obj
 0004:00001338       $pdata$6$init_request_throw 0000000140059338     pjsip-core-x86_64-x64-vc14-release:sip_util.obj
 0004:00001344       $pdata$7$init_request_throw 0000000140059344     pjsip-core-x86_64-x64-vc14-release:sip_util.obj
 0004:00001350       $pdata$pjsip_endpt_create_ack 0000000140059350     pjsip-core-x86_64-x64-vc14-release:sip_util.obj
 0004:0000135c       $pdata$0$pjsip_endpt_create_ack 000000014005935c     pjsip-core-x86_64-x64-vc14-release:sip_util.obj
 0004:00001368       $pdata$1$pjsip_endpt_create_ack 0000000140059368     pjsip-core-x86_64-x64-vc14-release:sip_util.obj
 0004:00001374       $pdata$2$pjsip_endpt_create_ack 0000000140059374     pjsip-core-x86_64-x64-vc14-release:sip_util.obj
 0004:00001380       $pdata$3$pjsip_endpt_create_ack 0000000140059380     pjsip-core-x86_64-x64-vc14-release:sip_util.obj
 0004:0000138c       $pdata$pjsip_endpt_create_cancel 000000014005938c     pjsip-core-x86_64-x64-vc14-release:sip_util.obj
 0004:00001398       $pdata$1$pjsip_endpt_create_cancel 0000000140059398     pjsip-core-x86_64-x64-vc14-release:sip_util.obj
 0004:000013a4       $pdata$2$pjsip_endpt_create_cancel 00000001400593a4     pjsip-core-x86_64-x64-vc14-release:sip_util.obj
 0004:000013b0       $pdata$4$pjsip_endpt_create_cancel 00000001400593b0     pjsip-core-x86_64-x64-vc14-release:sip_util.obj
 0004:000013bc       $pdata$5$pjsip_endpt_create_cancel 00000001400593bc     pjsip-core-x86_64-x64-vc14-release:sip_util.obj
 0004:000013c8       $pdata$6$pjsip_endpt_create_cancel 00000001400593c8     pjsip-core-x86_64-x64-vc14-release:sip_util.obj
 0004:000013d4       $pdata$8$pjsip_endpt_create_cancel 00000001400593d4     pjsip-core-x86_64-x64-vc14-release:sip_util.obj
 0004:000013e0       $pdata$9$pjsip_endpt_create_cancel 00000001400593e0     pjsip-core-x86_64-x64-vc14-release:sip_util.obj
 0004:000013ec       $pdata$pjsip_endpt_create_request_from_hdr 00000001400593ec     pjsip-core-x86_64-x64-vc14-release:sip_util.obj
 0004:000013f8       $pdata$pjsip_endpt_create_response 00000001400593f8     pjsip-core-x86_64-x64-vc14-release:sip_util.obj
 0004:00001404       $pdata$0$pjsip_endpt_create_response 0000000140059404     pjsip-core-x86_64-x64-vc14-release:sip_util.obj
 0004:00001410       $pdata$2$pjsip_endpt_create_response 0000000140059410     pjsip-core-x86_64-x64-vc14-release:sip_util.obj
 0004:0000141c       $pdata$3$pjsip_endpt_create_response 000000014005941c     pjsip-core-x86_64-x64-vc14-release:sip_util.obj
 0004:00001428       $pdata$5$pjsip_endpt_create_response 0000000140059428     pjsip-core-x86_64-x64-vc14-release:sip_util.obj
 0004:00001434       $pdata$6$pjsip_endpt_create_response 0000000140059434     pjsip-core-x86_64-x64-vc14-release:sip_util.obj
 0004:00001440       $pdata$7$pjsip_endpt_create_response 0000000140059440     pjsip-core-x86_64-x64-vc14-release:sip_util.obj
 0004:0000144c       $pdata$8$pjsip_endpt_create_response 000000014005944c     pjsip-core-x86_64-x64-vc14-release:sip_util.obj
 0004:00001458       $pdata$pjsip_endpt_respond_stateless 0000000140059458     pjsip-core-x86_64-x64-vc14-release:sip_util.obj
 0004:00001464       $pdata$pjsip_endpt_send_request_stateless 0000000140059464     pjsip-core-x86_64-x64-vc14-release:sip_util.obj
 0004:00001470       $pdata$0$pjsip_endpt_send_request_stateless 0000000140059470     pjsip-core-x86_64-x64-vc14-release:sip_util.obj
 0004:0000147c       $pdata$2$pjsip_endpt_send_request_stateless 000000014005947c     pjsip-core-x86_64-x64-vc14-release:sip_util.obj
 0004:00001488       $pdata$3$pjsip_endpt_send_request_stateless 0000000140059488     pjsip-core-x86_64-x64-vc14-release:sip_util.obj
 0004:00001494       $pdata$pjsip_endpt_send_response 0000000140059494     pjsip-core-x86_64-x64-vc14-release:sip_util.obj
 0004:000014a0       $pdata$pjsip_get_dest_info 00000001400594a0     pjsip-core-x86_64-x64-vc14-release:sip_util.obj
 0004:000014ac       $pdata$pjsip_get_request_dest 00000001400594ac     pjsip-core-x86_64-x64-vc14-release:sip_util.obj
 0004:000014b8       $pdata$pjsip_get_response_addr 00000001400594b8     pjsip-core-x86_64-x64-vc14-release:sip_util.obj
 0004:000014c4       $pdata$pjsip_process_route_set 00000001400594c4     pjsip-core-x86_64-x64-vc14-release:sip_util.obj
 0004:000014d0       $pdata$3$pjsip_process_route_set 00000001400594d0     pjsip-core-x86_64-x64-vc14-release:sip_util.obj
 0004:000014dc       $pdata$4$pjsip_process_route_set 00000001400594dc     pjsip-core-x86_64-x64-vc14-release:sip_util.obj
 0004:000014e8       $pdata$pjsip_restore_strict_route_set 00000001400594e8     pjsip-core-x86_64-x64-vc14-release:sip_util.obj
 0004:000014f4       $pdata$0$pjsip_restore_strict_route_set 00000001400594f4     pjsip-core-x86_64-x64-vc14-release:sip_util.obj
 0004:00001500       $pdata$1$pjsip_restore_strict_route_set 0000000140059500     pjsip-core-x86_64-x64-vc14-release:sip_util.obj
 0004:0000150c       $pdata$2$pjsip_restore_strict_route_set 000000014005950c     pjsip-core-x86_64-x64-vc14-release:sip_util.obj
 0004:00001518       $pdata$3$pjsip_restore_strict_route_set 0000000140059518     pjsip-core-x86_64-x64-vc14-release:sip_util.obj
 0004:00001524       $pdata$pjsip_target_assign_status 0000000140059524     pjsip-core-x86_64-x64-vc14-release:sip_util.obj
 0004:00001530       $pdata$pjsip_target_set_add_from_msg 0000000140059530     pjsip-core-x86_64-x64-vc14-release:sip_util.obj
 0004:0000153c       $pdata$1$pjsip_target_set_add_from_msg 000000014005953c     pjsip-core-x86_64-x64-vc14-release:sip_util.obj
 0004:00001548       $pdata$2$pjsip_target_set_add_from_msg 0000000140059548     pjsip-core-x86_64-x64-vc14-release:sip_util.obj
 0004:00001554       $pdata$pjsip_target_set_add_uri 0000000140059554     pjsip-core-x86_64-x64-vc14-release:sip_util.obj
 0004:00001560       $pdata$1$pjsip_target_set_add_uri 0000000140059560     pjsip-core-x86_64-x64-vc14-release:sip_util.obj
 0004:0000156c       $pdata$3$pjsip_target_set_add_uri 000000014005956c     pjsip-core-x86_64-x64-vc14-release:sip_util.obj
 0004:00001578       $pdata$4$pjsip_target_set_add_uri 0000000140059578     pjsip-core-x86_64-x64-vc14-release:sip_util.obj
 0004:00001584       $pdata$pjsip_target_set_set_current 0000000140059584     pjsip-core-x86_64-x64-vc14-release:sip_util.obj
 0004:00001590       $pdata$send_response_resolver_cb 0000000140059590     pjsip-core-x86_64-x64-vc14-release:sip_util.obj
 0004:0000159c       $pdata$send_response_transport_cb 000000014005959c     pjsip-core-x86_64-x64-vc14-release:sip_util.obj
 0004:000015a8       $pdata$stateless_send_resolver_callback 00000001400595a8     pjsip-core-x86_64-x64-vc14-release:sip_util.obj
 0004:000015b4       $pdata$0$stateless_send_resolver_callback 00000001400595b4     pjsip-core-x86_64-x64-vc14-release:sip_util.obj
 0004:000015c0       $pdata$2$stateless_send_resolver_callback 00000001400595c0     pjsip-core-x86_64-x64-vc14-release:sip_util.obj
 0004:000015cc       $pdata$3$stateless_send_resolver_callback 00000001400595cc     pjsip-core-x86_64-x64-vc14-release:sip_util.obj
 0004:000015d8       $pdata$4$stateless_send_resolver_callback 00000001400595d8     pjsip-core-x86_64-x64-vc14-release:sip_util.obj
 0004:000015e4       $pdata$stateless_send_transport_cb 00000001400595e4     pjsip-core-x86_64-x64-vc14-release:sip_util.obj
 0004:000015f0       $pdata$pjsip_endpt_respond 00000001400595f0     pjsip-core-x86_64-x64-vc14-release:sip_util_statefull.obj
 0004:000015fc       $pdata$1$pjsip_endpt_respond 00000001400595fc     pjsip-core-x86_64-x64-vc14-release:sip_util_statefull.obj
 0004:00001608       $pdata$2$pjsip_endpt_respond 0000000140059608     pjsip-core-x86_64-x64-vc14-release:sip_util_statefull.obj
 0004:00001614       $pdata$3$pjsip_endpt_respond 0000000140059614     pjsip-core-x86_64-x64-vc14-release:sip_util_statefull.obj
 0004:00001620       $pdata$5$pjsip_endpt_respond 0000000140059620     pjsip-core-x86_64-x64-vc14-release:sip_util_statefull.obj
 0004:0000162c       $pdata$6$pjsip_endpt_respond 000000014005962c     pjsip-core-x86_64-x64-vc14-release:sip_util_statefull.obj
 0004:00001638       $pdata$8$pjsip_endpt_respond 0000000140059638     pjsip-core-x86_64-x64-vc14-release:sip_util_statefull.obj
 0004:00001644       $pdata$9$pjsip_endpt_respond 0000000140059644     pjsip-core-x86_64-x64-vc14-release:sip_util_statefull.obj
 0004:00001650       $pdata$create_socket       0000000140059650     pjsip-core-x86_64-x64-vc14-release:sip_transport_udp.obj
 0004:0000165c       $pdata$get_published_name  000000014005965c     pjsip-core-x86_64-x64-vc14-release:sip_transport_udp.obj
 0004:00001668       $pdata$init_rdata          0000000140059668     pjsip-core-x86_64-x64-vc14-release:sip_transport_udp.obj
 0004:00001674       $pdata$pjsip_udp_transport_restart2 0000000140059674     pjsip-core-x86_64-x64-vc14-release:sip_transport_udp.obj
 0004:00001680       $pdata$pjsip_udp_transport_start 0000000140059680     pjsip-core-x86_64-x64-vc14-release:sip_transport_udp.obj
 0004:0000168c       $pdata$pjsip_udp_transport_start2 000000014005968c     pjsip-core-x86_64-x64-vc14-release:sip_transport_udp.obj
 0004:00001698       $pdata$0$pjsip_udp_transport_start2 0000000140059698     pjsip-core-x86_64-x64-vc14-release:sip_transport_udp.obj
 0004:000016a4       $pdata$2$pjsip_udp_transport_start2 00000001400596a4     pjsip-core-x86_64-x64-vc14-release:sip_transport_udp.obj
 0004:000016b0       $pdata$3$pjsip_udp_transport_start2 00000001400596b0     pjsip-core-x86_64-x64-vc14-release:sip_transport_udp.obj
 0004:000016bc       $pdata$4$pjsip_udp_transport_start2 00000001400596bc     pjsip-core-x86_64-x64-vc14-release:sip_transport_udp.obj
 0004:000016c8       $pdata$5$pjsip_udp_transport_start2 00000001400596c8     pjsip-core-x86_64-x64-vc14-release:sip_transport_udp.obj
 0004:000016d4       $pdata$6$pjsip_udp_transport_start2 00000001400596d4     pjsip-core-x86_64-x64-vc14-release:sip_transport_udp.obj
 0004:000016e0       $pdata$pjsip_udp_transport_start6 00000001400596e0     pjsip-core-x86_64-x64-vc14-release:sip_transport_udp.obj
 0004:000016ec       $pdata$register_to_ioqueue 00000001400596ec     pjsip-core-x86_64-x64-vc14-release:sip_transport_udp.obj
 0004:000016f8       $pdata$start_async_read    00000001400596f8     pjsip-core-x86_64-x64-vc14-release:sip_transport_udp.obj
 0004:00001704       $pdata$transport_attach    0000000140059704     pjsip-core-x86_64-x64-vc14-release:sip_transport_udp.obj
 0004:00001710       $pdata$2$transport_attach  0000000140059710     pjsip-core-x86_64-x64-vc14-release:sip_transport_udp.obj
 0004:0000171c       $pdata$3$transport_attach  000000014005971c     pjsip-core-x86_64-x64-vc14-release:sip_transport_udp.obj
 0004:00001728       $pdata$4$transport_attach  0000000140059728     pjsip-core-x86_64-x64-vc14-release:sip_transport_udp.obj
 0004:00001734       $pdata$5$transport_attach  0000000140059734     pjsip-core-x86_64-x64-vc14-release:sip_transport_udp.obj
 0004:00001740       $pdata$udp_destroy         0000000140059740     pjsip-core-x86_64-x64-vc14-release:sip_transport_udp.obj
 0004:0000174c       $pdata$udp_on_destroy      000000014005974c     pjsip-core-x86_64-x64-vc14-release:sip_transport_udp.obj
 0004:00001758       $pdata$0$udp_on_destroy    0000000140059758     pjsip-core-x86_64-x64-vc14-release:sip_transport_udp.obj
 0004:00001764       $pdata$1$udp_on_destroy    0000000140059764     pjsip-core-x86_64-x64-vc14-release:sip_transport_udp.obj
 0004:00001770       $pdata$2$udp_on_destroy    0000000140059770     pjsip-core-x86_64-x64-vc14-release:sip_transport_udp.obj
 0004:0000177c       $pdata$3$udp_on_destroy    000000014005977c     pjsip-core-x86_64-x64-vc14-release:sip_transport_udp.obj
 0004:00001788       $pdata$udp_on_read_complete 0000000140059788     pjsip-core-x86_64-x64-vc14-release:sip_transport_udp.obj
 0004:00001794       $pdata$4$udp_on_read_complete 0000000140059794     pjsip-core-x86_64-x64-vc14-release:sip_transport_udp.obj
 0004:000017a0       $pdata$5$udp_on_read_complete 00000001400597a0     pjsip-core-x86_64-x64-vc14-release:sip_transport_udp.obj
 0004:000017ac       $pdata$udp_on_write_complete 00000001400597ac     pjsip-core-x86_64-x64-vc14-release:sip_transport_udp.obj
 0004:000017b8       $pdata$udp_send_msg        00000001400597b8     pjsip-core-x86_64-x64-vc14-release:sip_transport_udp.obj
 0004:000017c4       $pdata$0$udp_send_msg      00000001400597c4     pjsip-core-x86_64-x64-vc14-release:sip_transport_udp.obj
 0004:000017d0       $pdata$1$udp_send_msg      00000001400597d0     pjsip-core-x86_64-x64-vc14-release:sip_transport_udp.obj
 0004:000017dc       $pdata$udp_set_pub_name    00000001400597dc     pjsip-core-x86_64-x64-vc14-release:sip_transport_udp.obj
 0004:000017e8       $pdata$lis_create_transport 00000001400597e8     pjsip-core-x86_64-x64-vc14-release:sip_transport_tcp.obj
 0004:000017f4       $pdata$0$lis_create_transport 00000001400597f4     pjsip-core-x86_64-x64-vc14-release:sip_transport_tcp.obj
 0004:00001800       $pdata$1$lis_create_transport 0000000140059800     pjsip-core-x86_64-x64-vc14-release:sip_transport_tcp.obj
 0004:0000180c       $pdata$2$lis_create_transport 000000014005980c     pjsip-core-x86_64-x64-vc14-release:sip_transport_tcp.obj
 0004:00001818       $pdata$3$lis_create_transport 0000000140059818     pjsip-core-x86_64-x64-vc14-release:sip_transport_tcp.obj
 0004:00001824       $pdata$lis_destroy         0000000140059824     pjsip-core-x86_64-x64-vc14-release:sip_transport_tcp.obj
 0004:00001830       $pdata$lis_on_destroy      0000000140059830     pjsip-core-x86_64-x64-vc14-release:sip_transport_tcp.obj
 0004:0000183c       $pdata$on_accept_complete  000000014005983c     pjsip-core-x86_64-x64-vc14-release:sip_transport_tcp.obj
 0004:00001848       $pdata$0$on_accept_complete 0000000140059848     pjsip-core-x86_64-x64-vc14-release:sip_transport_tcp.obj
 0004:00001854       $pdata$1$on_accept_complete 0000000140059854     pjsip-core-x86_64-x64-vc14-release:sip_transport_tcp.obj
 0004:00001860       $pdata$on_connect_complete 0000000140059860     pjsip-core-x86_64-x64-vc14-release:sip_transport_tcp.obj
 0004:0000186c       $pdata$0$on_connect_complete 000000014005986c     pjsip-core-x86_64-x64-vc14-release:sip_transport_tcp.obj
 0004:00001878       $pdata$1$on_connect_complete 0000000140059878     pjsip-core-x86_64-x64-vc14-release:sip_transport_tcp.obj
 0004:00001884       $pdata$2$on_connect_complete 0000000140059884     pjsip-core-x86_64-x64-vc14-release:sip_transport_tcp.obj
 0004:00001890       $pdata$3$on_connect_complete 0000000140059890     pjsip-core-x86_64-x64-vc14-release:sip_transport_tcp.obj
 0004:0000189c       $pdata$on_data_read        000000014005989c     pjsip-core-x86_64-x64-vc14-release:sip_transport_tcp.obj
 0004:000018a8       $pdata$on_data_sent        00000001400598a8     pjsip-core-x86_64-x64-vc14-release:sip_transport_tcp.obj
 0004:000018b4       $pdata$pjsip_tcp_transport_lis_start 00000001400598b4     pjsip-core-x86_64-x64-vc14-release:sip_transport_tcp.obj
 0004:000018c0       $pdata$0$pjsip_tcp_transport_lis_start 00000001400598c0     pjsip-core-x86_64-x64-vc14-release:sip_transport_tcp.obj
 0004:000018cc       $pdata$1$pjsip_tcp_transport_lis_start 00000001400598cc     pjsip-core-x86_64-x64-vc14-release:sip_transport_tcp.obj
 0004:000018d8       $pdata$pjsip_tcp_transport_start 00000001400598d8     pjsip-core-x86_64-x64-vc14-release:sip_transport_tcp.obj
 0004:000018e4       $pdata$pjsip_tcp_transport_start2 00000001400598e4     pjsip-core-x86_64-x64-vc14-release:sip_transport_tcp.obj
 0004:000018f0       $pdata$pjsip_tcp_transport_start3 00000001400598f0     pjsip-core-x86_64-x64-vc14-release:sip_transport_tcp.obj
 0004:000018fc       $pdata$0$pjsip_tcp_transport_start3 00000001400598fc     pjsip-core-x86_64-x64-vc14-release:sip_transport_tcp.obj
 0004:00001908       $pdata$4$pjsip_tcp_transport_start3 0000000140059908     pjsip-core-x86_64-x64-vc14-release:sip_transport_tcp.obj
 0004:00001914       $pdata$5$pjsip_tcp_transport_start3 0000000140059914     pjsip-core-x86_64-x64-vc14-release:sip_transport_tcp.obj
 0004:00001920       $pdata$7$pjsip_tcp_transport_start3 0000000140059920     pjsip-core-x86_64-x64-vc14-release:sip_transport_tcp.obj
 0004:0000192c       $pdata$8$pjsip_tcp_transport_start3 000000014005992c     pjsip-core-x86_64-x64-vc14-release:sip_transport_tcp.obj
 0004:00001938       $pdata$sockaddr_to_host_port 0000000140059938     pjsip-core-x86_64-x64-vc14-release:sip_transport_tcp.obj
 0004:00001944       $pdata$tcp_create          0000000140059944     pjsip-core-x86_64-x64-vc14-release:sip_transport_tcp.obj
 0004:00001950       $pdata$1$tcp_create        0000000140059950     pjsip-core-x86_64-x64-vc14-release:sip_transport_tcp.obj
 0004:0000195c       $pdata$2$tcp_create        000000014005995c     pjsip-core-x86_64-x64-vc14-release:sip_transport_tcp.obj
 0004:00001968       $pdata$tcp_destroy         0000000140059968     pjsip-core-x86_64-x64-vc14-release:sip_transport_tcp.obj
 0004:00001974       $pdata$1$tcp_destroy       0000000140059974     pjsip-core-x86_64-x64-vc14-release:sip_transport_tcp.obj
 0004:00001980       $pdata$2$tcp_destroy       0000000140059980     pjsip-core-x86_64-x64-vc14-release:sip_transport_tcp.obj
 0004:0000198c       $pdata$3$tcp_destroy       000000014005998c     pjsip-core-x86_64-x64-vc14-release:sip_transport_tcp.obj
 0004:00001998       $pdata$4$tcp_destroy       0000000140059998     pjsip-core-x86_64-x64-vc14-release:sip_transport_tcp.obj
 0004:000019a4       $pdata$tcp_flush_pending_tx 00000001400599a4     pjsip-core-x86_64-x64-vc14-release:sip_transport_tcp.obj
 0004:000019b0       $pdata$4$tcp_flush_pending_tx 00000001400599b0     pjsip-core-x86_64-x64-vc14-release:sip_transport_tcp.obj
 0004:000019bc       $pdata$5$tcp_flush_pending_tx 00000001400599bc     pjsip-core-x86_64-x64-vc14-release:sip_transport_tcp.obj
 0004:000019c8       $pdata$tcp_init_shutdown   00000001400599c8     pjsip-core-x86_64-x64-vc14-release:sip_transport_tcp.obj
 0004:000019d4       $pdata$tcp_keep_alive_timer 00000001400599d4     pjsip-core-x86_64-x64-vc14-release:sip_transport_tcp.obj
 0004:000019e0       $pdata$0$tcp_keep_alive_timer 00000001400599e0     pjsip-core-x86_64-x64-vc14-release:sip_transport_tcp.obj
 0004:000019ec       $pdata$1$tcp_keep_alive_timer 00000001400599ec     pjsip-core-x86_64-x64-vc14-release:sip_transport_tcp.obj
 0004:000019f8       $pdata$tcp_on_destroy      00000001400599f8     pjsip-core-x86_64-x64-vc14-release:sip_transport_tcp.obj
 0004:00001a04       $pdata$tcp_send_msg        0000000140059a04     pjsip-core-x86_64-x64-vc14-release:sip_transport_tcp.obj
 0004:00001a10       $pdata$0$tcp_send_msg      0000000140059a10     pjsip-core-x86_64-x64-vc14-release:sip_transport_tcp.obj
 0004:00001a1c       $pdata$1$tcp_send_msg      0000000140059a1c     pjsip-core-x86_64-x64-vc14-release:sip_transport_tcp.obj
 0004:00001a28       $pdata$tcp_shutdown        0000000140059a28     pjsip-core-x86_64-x64-vc14-release:sip_transport_tcp.obj
 0004:00001a34       $pdata$tcp_start_read      0000000140059a34     pjsip-core-x86_64-x64-vc14-release:sip_transport_tcp.obj
 0004:00001a40       $pdata$0$tcp_start_read    0000000140059a40     pjsip-core-x86_64-x64-vc14-release:sip_transport_tcp.obj
 0004:00001a4c       $pdata$2$tcp_start_read    0000000140059a4c     pjsip-core-x86_64-x64-vc14-release:sip_transport_tcp.obj
 0004:00001a58       $pdata$update_factory_addr 0000000140059a58     pjsip-core-x86_64-x64-vc14-release:sip_transport_tcp.obj
 0004:00001a64       $pdata$update_transport_info 0000000140059a64     pjsip-core-x86_64-x64-vc14-release:sip_transport_tcp.obj
 0004:00001a70       $pdata$mod_tsx_layer_stop  0000000140059a70     pjsip-core-x86_64-x64-vc14-release:sip_transaction.obj
 0004:00001a7c       $pdata$0$mod_tsx_layer_stop 0000000140059a7c     pjsip-core-x86_64-x64-vc14-release:sip_transaction.obj
 0004:00001a88       $pdata$2$mod_tsx_layer_stop 0000000140059a88     pjsip-core-x86_64-x64-vc14-release:sip_transaction.obj
 0004:00001a94       $pdata$3$mod_tsx_layer_stop 0000000140059a94     pjsip-core-x86_64-x64-vc14-release:sip_transaction.obj
 0004:00001aa0       $pdata$4$mod_tsx_layer_stop 0000000140059aa0     pjsip-core-x86_64-x64-vc14-release:sip_transaction.obj
 0004:00001aac       $pdata$mod_tsx_layer_unload 0000000140059aac     pjsip-core-x86_64-x64-vc14-release:sip_transaction.obj
 0004:00001ab8       $pdata$mod_tsx_layer_on_rx_request 0000000140059ab8     pjsip-core-x86_64-x64-vc14-release:sip_transaction.obj
 0004:00001ac4       $pdata$mod_tsx_layer_on_rx_response 0000000140059ac4     pjsip-core-x86_64-x64-vc14-release:sip_transaction.obj
 0004:00001ad0       $pdata$create_tsx_key_2543 0000000140059ad0     pjsip-core-x86_64-x64-vc14-release:sip_transaction.obj
 0004:00001adc       $pdata$2$create_tsx_key_2543 0000000140059adc     pjsip-core-x86_64-x64-vc14-release:sip_transaction.obj
 0004:00001ae8       $pdata$3$create_tsx_key_2543 0000000140059ae8     pjsip-core-x86_64-x64-vc14-release:sip_transaction.obj
 0004:00001af4       $pdata$create_tsx_key_3261 0000000140059af4     pjsip-core-x86_64-x64-vc14-release:sip_transaction.obj
 0004:00001b00       $pdata$0$create_tsx_key_3261 0000000140059b00     pjsip-core-x86_64-x64-vc14-release:sip_transaction.obj
 0004:00001b0c       $pdata$1$create_tsx_key_3261 0000000140059b0c     pjsip-core-x86_64-x64-vc14-release:sip_transaction.obj
 0004:00001b18       $pdata$mod_tsx_layer_register_tsx 0000000140059b18     pjsip-core-x86_64-x64-vc14-release:sip_transaction.obj
 0004:00001b24       $pdata$mod_tsx_layer_unregister_tsx 0000000140059b24     pjsip-core-x86_64-x64-vc14-release:sip_transaction.obj
 0004:00001b30       $pdata$pjsip_tsx_create_key 0000000140059b30     pjsip-core-x86_64-x64-vc14-release:sip_transaction.obj
 0004:00001b3c       $pdata$pjsip_tsx_create_uac2 0000000140059b3c     pjsip-core-x86_64-x64-vc14-release:sip_transaction.obj
 0004:00001b48       $pdata$0$pjsip_tsx_create_uac2 0000000140059b48     pjsip-core-x86_64-x64-vc14-release:sip_transaction.obj
 0004:00001b54       $pdata$2$pjsip_tsx_create_uac2 0000000140059b54     pjsip-core-x86_64-x64-vc14-release:sip_transaction.obj
 0004:00001b60       $pdata$4$pjsip_tsx_create_uac2 0000000140059b60     pjsip-core-x86_64-x64-vc14-release:sip_transaction.obj
 0004:00001b6c       $pdata$5$pjsip_tsx_create_uac2 0000000140059b6c     pjsip-core-x86_64-x64-vc14-release:sip_transaction.obj
 0004:00001b78       $pdata$6$pjsip_tsx_create_uac2 0000000140059b78     pjsip-core-x86_64-x64-vc14-release:sip_transaction.obj
 0004:00001b84       $pdata$pjsip_tsx_create_uas2 0000000140059b84     pjsip-core-x86_64-x64-vc14-release:sip_transaction.obj
 0004:00001b90       $pdata$0$pjsip_tsx_create_uas2 0000000140059b90     pjsip-core-x86_64-x64-vc14-release:sip_transaction.obj
 0004:00001b9c       $pdata$1$pjsip_tsx_create_uas2 0000000140059b9c     pjsip-core-x86_64-x64-vc14-release:sip_transaction.obj
 0004:00001ba8       $pdata$2$pjsip_tsx_create_uas2 0000000140059ba8     pjsip-core-x86_64-x64-vc14-release:sip_transaction.obj
 0004:00001bb4       $pdata$4$pjsip_tsx_create_uas2 0000000140059bb4     pjsip-core-x86_64-x64-vc14-release:sip_transaction.obj
 0004:00001bc0       $pdata$5$pjsip_tsx_create_uas2 0000000140059bc0     pjsip-core-x86_64-x64-vc14-release:sip_transaction.obj
 0004:00001bcc       $pdata$pjsip_tsx_layer_find_tsx2 0000000140059bcc     pjsip-core-x86_64-x64-vc14-release:sip_transaction.obj
 0004:00001bd8       $pdata$pjsip_tsx_layer_init_module 0000000140059bd8     pjsip-core-x86_64-x64-vc14-release:sip_transaction.obj
 0004:00001be4       $pdata$0$pjsip_tsx_layer_init_module 0000000140059be4     pjsip-core-x86_64-x64-vc14-release:sip_transaction.obj
 0004:00001bf0       $pdata$3$pjsip_tsx_layer_init_module 0000000140059bf0     pjsip-core-x86_64-x64-vc14-release:sip_transaction.obj
 0004:00001bfc       $pdata$5$pjsip_tsx_layer_init_module 0000000140059bfc     pjsip-core-x86_64-x64-vc14-release:sip_transaction.obj
 0004:00001c08       $pdata$7$pjsip_tsx_layer_init_module 0000000140059c08     pjsip-core-x86_64-x64-vc14-release:sip_transaction.obj
 0004:00001c14       $pdata$pjsip_tsx_recv_msg  0000000140059c14     pjsip-core-x86_64-x64-vc14-release:sip_transaction.obj
 0004:00001c20       $pdata$1$pjsip_tsx_recv_msg 0000000140059c20     pjsip-core-x86_64-x64-vc14-release:sip_transaction.obj
 0004:00001c2c       $pdata$2$pjsip_tsx_recv_msg 0000000140059c2c     pjsip-core-x86_64-x64-vc14-release:sip_transaction.obj
 0004:00001c38       $pdata$pjsip_tsx_retransmit_no_state 0000000140059c38     pjsip-core-x86_64-x64-vc14-release:sip_transaction.obj
 0004:00001c44       $pdata$pjsip_tsx_send_msg  0000000140059c44     pjsip-core-x86_64-x64-vc14-release:sip_transaction.obj
 0004:00001c50       $pdata$1$pjsip_tsx_send_msg 0000000140059c50     pjsip-core-x86_64-x64-vc14-release:sip_transaction.obj
 0004:00001c5c       $pdata$2$pjsip_tsx_send_msg 0000000140059c5c     pjsip-core-x86_64-x64-vc14-release:sip_transaction.obj
 0004:00001c68       $pdata$pjsip_tsx_set_timeout 0000000140059c68     pjsip-core-x86_64-x64-vc14-release:sip_transaction.obj
 0004:00001c74       $pdata$0$pjsip_tsx_set_timeout 0000000140059c74     pjsip-core-x86_64-x64-vc14-release:sip_transaction.obj
 0004:00001c80       $pdata$1$pjsip_tsx_set_timeout 0000000140059c80     pjsip-core-x86_64-x64-vc14-release:sip_transaction.obj
 0004:00001c8c       $pdata$pjsip_tsx_set_transport 0000000140059c8c     pjsip-core-x86_64-x64-vc14-release:sip_transaction.obj
 0004:00001c98       $pdata$0$pjsip_tsx_set_transport 0000000140059c98     pjsip-core-x86_64-x64-vc14-release:sip_transaction.obj
 0004:00001ca4       $pdata$1$pjsip_tsx_set_transport 0000000140059ca4     pjsip-core-x86_64-x64-vc14-release:sip_transaction.obj
 0004:00001cb0       $pdata$pjsip_tsx_terminate 0000000140059cb0     pjsip-core-x86_64-x64-vc14-release:sip_transaction.obj
 0004:00001cbc       $pdata$send_msg_callback   0000000140059cbc     pjsip-core-x86_64-x64-vc14-release:sip_transaction.obj
 0004:00001cc8       $pdata$transport_callback  0000000140059cc8     pjsip-core-x86_64-x64-vc14-release:sip_transaction.obj
 0004:00001cd4       $pdata$tsx_create          0000000140059cd4     pjsip-core-x86_64-x64-vc14-release:sip_transaction.obj
 0004:00001ce0       $pdata$tsx_layer_destroy   0000000140059ce0     pjsip-core-x86_64-x64-vc14-release:sip_transaction.obj
 0004:00001cec       $pdata$tsx_on_destroy      0000000140059cec     pjsip-core-x86_64-x64-vc14-release:sip_transaction.obj
 0004:00001cf8       $pdata$tsx_on_state_calling 0000000140059cf8     pjsip-core-x86_64-x64-vc14-release:sip_transaction.obj
 0004:00001d04       $pdata$tsx_on_state_completed_uac 0000000140059d04     pjsip-core-x86_64-x64-vc14-release:sip_transaction.obj
 0004:00001d10       $pdata$tsx_on_state_completed_uas 0000000140059d10     pjsip-core-x86_64-x64-vc14-release:sip_transaction.obj
 0004:00001d1c       $pdata$0$tsx_on_state_completed_uas 0000000140059d1c     pjsip-core-x86_64-x64-vc14-release:sip_transaction.obj
 0004:00001d28       $pdata$1$tsx_on_state_completed_uas 0000000140059d28     pjsip-core-x86_64-x64-vc14-release:sip_transaction.obj
 0004:00001d34       $pdata$tsx_on_state_confirmed 0000000140059d34     pjsip-core-x86_64-x64-vc14-release:sip_transaction.obj
 0004:00001d40       $pdata$tsx_on_state_null   0000000140059d40     pjsip-core-x86_64-x64-vc14-release:sip_transaction.obj
 0004:00001d4c       $pdata$0$tsx_on_state_null 0000000140059d4c     pjsip-core-x86_64-x64-vc14-release:sip_transaction.obj
 0004:00001d58       $pdata$1$tsx_on_state_null 0000000140059d58     pjsip-core-x86_64-x64-vc14-release:sip_transaction.obj
 0004:00001d64       $pdata$tsx_on_state_proceeding_uac 0000000140059d64     pjsip-core-x86_64-x64-vc14-release:sip_transaction.obj
 0004:00001d70       $pdata$tsx_on_state_proceeding_uas 0000000140059d70     pjsip-core-x86_64-x64-vc14-release:sip_transaction.obj
 0004:00001d7c       $pdata$0$tsx_on_state_proceeding_uas 0000000140059d7c     pjsip-core-x86_64-x64-vc14-release:sip_transaction.obj
 0004:00001d88       $pdata$1$tsx_on_state_proceeding_uas 0000000140059d88     pjsip-core-x86_64-x64-vc14-release:sip_transaction.obj
 0004:00001d94       $pdata$2$tsx_on_state_proceeding_uas 0000000140059d94     pjsip-core-x86_64-x64-vc14-release:sip_transaction.obj
 0004:00001da0       $pdata$4$tsx_on_state_proceeding_uas 0000000140059da0     pjsip-core-x86_64-x64-vc14-release:sip_transaction.obj
 0004:00001dac       $pdata$5$tsx_on_state_proceeding_uas 0000000140059dac     pjsip-core-x86_64-x64-vc14-release:sip_transaction.obj
 0004:00001db8       $pdata$6$tsx_on_state_proceeding_uas 0000000140059db8     pjsip-core-x86_64-x64-vc14-release:sip_transaction.obj
 0004:00001dc4       $pdata$7$tsx_on_state_proceeding_uas 0000000140059dc4     pjsip-core-x86_64-x64-vc14-release:sip_transaction.obj
 0004:00001dd0       $pdata$tsx_on_state_terminated 0000000140059dd0     pjsip-core-x86_64-x64-vc14-release:sip_transaction.obj
 0004:00001ddc       $pdata$tsx_on_state_trying 0000000140059ddc     pjsip-core-x86_64-x64-vc14-release:sip_transaction.obj
 0004:00001de8       $pdata$tsx_resched_retransmission 0000000140059de8     pjsip-core-x86_64-x64-vc14-release:sip_transaction.obj
 0004:00001df4       $pdata$tsx_retransmit      0000000140059df4     pjsip-core-x86_64-x64-vc14-release:sip_transaction.obj
 0004:00001e00       $pdata$tsx_send_msg        0000000140059e00     pjsip-core-x86_64-x64-vc14-release:sip_transaction.obj
 0004:00001e0c       $pdata$tsx_set_state       0000000140059e0c     pjsip-core-x86_64-x64-vc14-release:sip_transaction.obj
 0004:00001e18       $pdata$tsx_shutdown        0000000140059e18     pjsip-core-x86_64-x64-vc14-release:sip_transaction.obj
 0004:00001e24       $pdata$tsx_timer_callback  0000000140059e24     pjsip-core-x86_64-x64-vc14-release:sip_transaction.obj
 0004:00001e30       $pdata$0$tsx_timer_callback 0000000140059e30     pjsip-core-x86_64-x64-vc14-release:sip_transaction.obj
 0004:00001e3c       $pdata$1$tsx_timer_callback 0000000140059e3c     pjsip-core-x86_64-x64-vc14-release:sip_transaction.obj
 0004:00001e48       $pdata$tsx_tp_state_callback 0000000140059e48     pjsip-core-x86_64-x64-vc14-release:sip_transaction.obj
 0004:00001e54       $pdata$0$tsx_tp_state_callback 0000000140059e54     pjsip-core-x86_64-x64-vc14-release:sip_transaction.obj
 0004:00001e60       $pdata$1$tsx_tp_state_callback 0000000140059e60     pjsip-core-x86_64-x64-vc14-release:sip_transaction.obj
 0004:00001e6c       $pdata$tsx_update_transport 0000000140059e6c     pjsip-core-x86_64-x64-vc14-release:sip_transaction.obj
 0004:00001e78       $pdata$mod_ua_load         0000000140059e78     pjsip-core-x86_64-x64-vc14-release:sip_ua_layer.obj
 0004:00001e84       $pdata$mod_ua_unload       0000000140059e84     pjsip-core-x86_64-x64-vc14-release:sip_ua_layer.obj
 0004:00001e90       $pdata$mod_ua_on_rx_request 0000000140059e90     pjsip-core-x86_64-x64-vc14-release:sip_ua_layer.obj
 0004:00001e9c       $pdata$3$mod_ua_on_rx_request 0000000140059e9c     pjsip-core-x86_64-x64-vc14-release:sip_ua_layer.obj
 0004:00001ea8       $pdata$5$mod_ua_on_rx_request 0000000140059ea8     pjsip-core-x86_64-x64-vc14-release:sip_ua_layer.obj
 0004:00001eb4       $pdata$mod_ua_on_rx_response 0000000140059eb4     pjsip-core-x86_64-x64-vc14-release:sip_ua_layer.obj
 0004:00001ec0       $pdata$alloc_dlgset_node   0000000140059ec0     pjsip-core-x86_64-x64-vc14-release:sip_ua_layer.obj
 0004:00001ecc       $pdata$find_dlg_set_for_msg 0000000140059ecc     pjsip-core-x86_64-x64-vc14-release:sip_ua_layer.obj
 0004:00001ed8       $pdata$1$find_dlg_set_for_msg 0000000140059ed8     pjsip-core-x86_64-x64-vc14-release:sip_ua_layer.obj
 0004:00001ee4       $pdata$3$find_dlg_set_for_msg 0000000140059ee4     pjsip-core-x86_64-x64-vc14-release:sip_ua_layer.obj
 0004:00001ef0       $pdata$4$find_dlg_set_for_msg 0000000140059ef0     pjsip-core-x86_64-x64-vc14-release:sip_ua_layer.obj
 0004:00001efc       $pdata$pjsip_ua_register_dlg 0000000140059efc     pjsip-core-x86_64-x64-vc14-release:sip_ua_layer.obj
 0004:00001f08       $pdata$1$pjsip_ua_register_dlg 0000000140059f08     pjsip-core-x86_64-x64-vc14-release:sip_ua_layer.obj
 0004:00001f14       $pdata$3$pjsip_ua_register_dlg 0000000140059f14     pjsip-core-x86_64-x64-vc14-release:sip_ua_layer.obj
 0004:00001f20       $pdata$4$pjsip_ua_register_dlg 0000000140059f20     pjsip-core-x86_64-x64-vc14-release:sip_ua_layer.obj
 0004:00001f2c       $pdata$pjsip_ua_unregister_dlg 0000000140059f2c     pjsip-core-x86_64-x64-vc14-release:sip_ua_layer.obj
 0004:00001f38       $pdata$1$pjsip_ua_unregister_dlg 0000000140059f38     pjsip-core-x86_64-x64-vc14-release:sip_ua_layer.obj
 0004:00001f44       $pdata$3$pjsip_ua_unregister_dlg 0000000140059f44     pjsip-core-x86_64-x64-vc14-release:sip_ua_layer.obj
 0004:00001f50       $pdata$4$pjsip_ua_unregister_dlg 0000000140059f50     pjsip-core-x86_64-x64-vc14-release:sip_ua_layer.obj
 0004:00001f5c       $pdata$create_dialog       0000000140059f5c     pjsip-core-x86_64-x64-vc14-release:sip_dialog.obj
 0004:00001f68       $pdata$1$create_dialog     0000000140059f68     pjsip-core-x86_64-x64-vc14-release:sip_dialog.obj
 0004:00001f74       $pdata$2$create_dialog     0000000140059f74     pjsip-core-x86_64-x64-vc14-release:sip_dialog.obj
 0004:00001f80       $pdata$3$create_dialog     0000000140059f80     pjsip-core-x86_64-x64-vc14-release:sip_dialog.obj
 0004:00001f8c       $pdata$4$create_dialog     0000000140059f8c     pjsip-core-x86_64-x64-vc14-release:sip_dialog.obj
 0004:00001f98       $pdata$create_uas_dialog   0000000140059f98     pjsip-core-x86_64-x64-vc14-release:sip_dialog.obj
 0004:00001fa4       $pdata$1$create_uas_dialog 0000000140059fa4     pjsip-core-x86_64-x64-vc14-release:sip_dialog.obj
 0004:00001fb0       $pdata$2$create_uas_dialog 0000000140059fb0     pjsip-core-x86_64-x64-vc14-release:sip_dialog.obj
 0004:00001fbc       $pdata$3$create_uas_dialog 0000000140059fbc     pjsip-core-x86_64-x64-vc14-release:sip_dialog.obj
 0004:00001fc8       $pdata$4$create_uas_dialog 0000000140059fc8     pjsip-core-x86_64-x64-vc14-release:sip_dialog.obj
 0004:00001fd4       $pdata$destroy_dialog      0000000140059fd4     pjsip-core-x86_64-x64-vc14-release:sip_dialog.obj
 0004:00001fe0       $pdata$dlg_beautify_response 0000000140059fe0     pjsip-core-x86_64-x64-vc14-release:sip_dialog.obj
 0004:00001fec       $pdata$dlg_create_request_throw 0000000140059fec     pjsip-core-x86_64-x64-vc14-release:sip_dialog.obj
 0004:00001ff8       $pdata$1$dlg_create_request_throw 0000000140059ff8     pjsip-core-x86_64-x64-vc14-release:sip_dialog.obj
 0004:00002004       $pdata$2$dlg_create_request_throw 000000014005a004     pjsip-core-x86_64-x64-vc14-release:sip_dialog.obj
 0004:00002010       $pdata$dlg_on_destroy      000000014005a010     pjsip-core-x86_64-x64-vc14-release:sip_dialog.obj
 0004:0000201c       $pdata$dlg_update_routeset 000000014005a01c     pjsip-core-x86_64-x64-vc14-release:sip_dialog.obj
 0004:00002028       $pdata$2$dlg_update_routeset 000000014005a028     pjsip-core-x86_64-x64-vc14-release:sip_dialog.obj
 0004:00002034       $pdata$3$dlg_update_routeset 000000014005a034     pjsip-core-x86_64-x64-vc14-release:sip_dialog.obj
 0004:00002040       $pdata$4$dlg_update_routeset 000000014005a040     pjsip-core-x86_64-x64-vc14-release:sip_dialog.obj
 0004:0000204c       $pdata$5$dlg_update_routeset 000000014005a04c     pjsip-core-x86_64-x64-vc14-release:sip_dialog.obj
 0004:00002058       $pdata$pjsip_dlg_add_usage 000000014005a058     pjsip-core-x86_64-x64-vc14-release:sip_dialog.obj
 0004:00002064       $pdata$pjsip_dlg_create_request 000000014005a064     pjsip-core-x86_64-x64-vc14-release:sip_dialog.obj
 0004:00002070       $pdata$pjsip_dlg_create_response 000000014005a070     pjsip-core-x86_64-x64-vc14-release:sip_dialog.obj
 0004:0000207c       $pdata$0$pjsip_dlg_create_response 000000014005a07c     pjsip-core-x86_64-x64-vc14-release:sip_dialog.obj
 0004:00002088       $pdata$1$pjsip_dlg_create_response 000000014005a088     pjsip-core-x86_64-x64-vc14-release:sip_dialog.obj
 0004:00002094       $pdata$pjsip_dlg_create_uac 000000014005a094     pjsip-core-x86_64-x64-vc14-release:sip_dialog.obj
 0004:000020a0       $pdata$pjsip_dlg_create_uac2 000000014005a0a0     pjsip-core-x86_64-x64-vc14-release:sip_dialog.obj
 0004:000020ac       $pdata$4$pjsip_dlg_create_uac2 000000014005a0ac     pjsip-core-x86_64-x64-vc14-release:sip_dialog.obj
 0004:000020b8       $pdata$5$pjsip_dlg_create_uac2 000000014005a0b8     pjsip-core-x86_64-x64-vc14-release:sip_dialog.obj
 0004:000020c4       $pdata$6$pjsip_dlg_create_uac2 000000014005a0c4     pjsip-core-x86_64-x64-vc14-release:sip_dialog.obj
 0004:000020d0       $pdata$7$pjsip_dlg_create_uac2 000000014005a0d0     pjsip-core-x86_64-x64-vc14-release:sip_dialog.obj
 0004:000020dc       $pdata$pjsip_dlg_create_uas_and_inc_lock 000000014005a0dc     pjsip-core-x86_64-x64-vc14-release:sip_dialog.obj
 0004:000020e8       $pdata$pjsip_dlg_dec_lock  000000014005a0e8     pjsip-core-x86_64-x64-vc14-release:sip_dialog.obj
 0004:000020f4       $pdata$pjsip_dlg_dec_session 000000014005a0f4     pjsip-core-x86_64-x64-vc14-release:sip_dialog.obj
 0004:00002100       $pdata$pjsip_dlg_get_remote_cap_hdr 000000014005a100     pjsip-core-x86_64-x64-vc14-release:sip_dialog.obj
 0004:0000210c       $pdata$1$pjsip_dlg_get_remote_cap_hdr 000000014005a10c     pjsip-core-x86_64-x64-vc14-release:sip_dialog.obj
 0004:00002118       $pdata$3$pjsip_dlg_get_remote_cap_hdr 000000014005a118     pjsip-core-x86_64-x64-vc14-release:sip_dialog.obj
 0004:00002124       $pdata$pjsip_dlg_inc_lock  000000014005a124     pjsip-core-x86_64-x64-vc14-release:sip_dialog.obj
 0004:00002130       $pdata$pjsip_dlg_inc_session 000000014005a130     pjsip-core-x86_64-x64-vc14-release:sip_dialog.obj
 0004:0000213c       $pdata$pjsip_dlg_modify_response 000000014005a13c     pjsip-core-x86_64-x64-vc14-release:sip_dialog.obj
 0004:00002148       $pdata$pjsip_dlg_on_rx_request 000000014005a148     pjsip-core-x86_64-x64-vc14-release:sip_dialog.obj
 0004:00002154       $pdata$0$pjsip_dlg_on_rx_request 000000014005a154     pjsip-core-x86_64-x64-vc14-release:sip_dialog.obj
 0004:00002160       $pdata$1$pjsip_dlg_on_rx_request 000000014005a160     pjsip-core-x86_64-x64-vc14-release:sip_dialog.obj
 0004:0000216c       $pdata$pjsip_dlg_on_rx_response 000000014005a16c     pjsip-core-x86_64-x64-vc14-release:sip_dialog.obj
 0004:00002178       $pdata$0$pjsip_dlg_on_rx_response 000000014005a178     pjsip-core-x86_64-x64-vc14-release:sip_dialog.obj
 0004:00002184       $pdata$1$pjsip_dlg_on_rx_response 000000014005a184     pjsip-core-x86_64-x64-vc14-release:sip_dialog.obj
 0004:00002190       $pdata$2$pjsip_dlg_on_rx_response 000000014005a190     pjsip-core-x86_64-x64-vc14-release:sip_dialog.obj
 0004:0000219c       $pdata$3$pjsip_dlg_on_rx_response 000000014005a19c     pjsip-core-x86_64-x64-vc14-release:sip_dialog.obj
 0004:000021a8       $pdata$pjsip_dlg_on_tsx_state 000000014005a1a8     pjsip-core-x86_64-x64-vc14-release:sip_dialog.obj
 0004:000021b4       $pdata$pjsip_dlg_remote_has_cap 000000014005a1b4     pjsip-core-x86_64-x64-vc14-release:sip_dialog.obj
 0004:000021c0       $pdata$pjsip_dlg_remove_remote_cap_hdr 000000014005a1c0     pjsip-core-x86_64-x64-vc14-release:sip_dialog.obj
 0004:000021cc       $pdata$pjsip_dlg_send_request 000000014005a1cc     pjsip-core-x86_64-x64-vc14-release:sip_dialog.obj
 0004:000021d8       $pdata$pjsip_dlg_send_response 000000014005a1d8     pjsip-core-x86_64-x64-vc14-release:sip_dialog.obj
 0004:000021e4       $pdata$pjsip_dlg_set_remote_cap_hdr 000000014005a1e4     pjsip-core-x86_64-x64-vc14-release:sip_dialog.obj
 0004:000021f0       $pdata$4$pjsip_dlg_set_remote_cap_hdr 000000014005a1f0     pjsip-core-x86_64-x64-vc14-release:sip_dialog.obj
 0004:000021fc       $pdata$5$pjsip_dlg_set_remote_cap_hdr 000000014005a1fc     pjsip-core-x86_64-x64-vc14-release:sip_dialog.obj
 0004:00002208       $pdata$pjsip_dlg_try_inc_lock 000000014005a208     pjsip-core-x86_64-x64-vc14-release:sip_dialog.obj
 0004:00002214       $pdata$pjsip_dlg_update_remote_cap 000000014005a214     pjsip-core-x86_64-x64-vc14-release:sip_dialog.obj
 0004:00002220       $pdata$3$pjsip_dlg_update_remote_cap 000000014005a220     pjsip-core-x86_64-x64-vc14-release:sip_dialog.obj
 0004:0000222c       $pdata$4$pjsip_dlg_update_remote_cap 000000014005a22c     pjsip-core-x86_64-x64-vc14-release:sip_dialog.obj
 0004:00002238       $pdata$5$pjsip_dlg_update_remote_cap 000000014005a238     pjsip-core-x86_64-x64-vc14-release:sip_dialog.obj
 0004:00002244       $pdata$6$pjsip_dlg_update_remote_cap 000000014005a244     pjsip-core-x86_64-x64-vc14-release:sip_dialog.obj
 0004:00002250       $pdata$pjsip_method_creates_dialog 000000014005a250     pjsip-core-x86_64-x64-vc14-release:sip_dialog.obj
 0004:0000225c       $pdata$send_ack_callback   000000014005a25c     pjsip-core-x86_64-x64-vc14-release:sip_dialog.obj
 0004:00002268       $pdata$unregister_and_destroy_dialog 000000014005a268     pjsip-core-x86_64-x64-vc14-release:sip_dialog.obj
 0004:00002274       $pdata$auth_find_cred      000000014005a274     pjsip-core-x86_64-x64-vc14-release:sip_auth_client.obj
 0004:00002280       $pdata$auth_respond        000000014005a280     pjsip-core-x86_64-x64-vc14-release:sip_auth_client.obj
 0004:0000228c       $pdata$0$auth_respond      000000014005a28c     pjsip-core-x86_64-x64-vc14-release:sip_auth_client.obj
 0004:00002298       $pdata$1$auth_respond      000000014005a298     pjsip-core-x86_64-x64-vc14-release:sip_auth_client.obj
 0004:000022a4       $pdata$2$auth_respond      000000014005a2a4     pjsip-core-x86_64-x64-vc14-release:sip_auth_client.obj
 0004:000022b0       $pdata$3$auth_respond      000000014005a2b0     pjsip-core-x86_64-x64-vc14-release:sip_auth_client.obj
 0004:000022bc       $pdata$has_auth_qop        000000014005a2bc     pjsip-core-x86_64-x64-vc14-release:sip_auth_client.obj
 0004:000022c8       $pdata$pjsip_auth_clt_deinit 000000014005a2c8     pjsip-core-x86_64-x64-vc14-release:sip_auth_client.obj
 0004:000022d4       $pdata$1$pjsip_auth_clt_deinit 000000014005a2d4     pjsip-core-x86_64-x64-vc14-release:sip_auth_client.obj
 0004:000022e0       $pdata$2$pjsip_auth_clt_deinit 000000014005a2e0     pjsip-core-x86_64-x64-vc14-release:sip_auth_client.obj
 0004:000022ec       $pdata$pjsip_auth_clt_init_req 000000014005a2ec     pjsip-core-x86_64-x64-vc14-release:sip_auth_client.obj
 0004:000022f8       $pdata$1$pjsip_auth_clt_init_req 000000014005a2f8     pjsip-core-x86_64-x64-vc14-release:sip_auth_client.obj
 0004:00002304       $pdata$3$pjsip_auth_clt_init_req 000000014005a304     pjsip-core-x86_64-x64-vc14-release:sip_auth_client.obj
 0004:00002310       $pdata$4$pjsip_auth_clt_init_req 000000014005a310     pjsip-core-x86_64-x64-vc14-release:sip_auth_client.obj
 0004:0000231c       $pdata$6$pjsip_auth_clt_init_req 000000014005a31c     pjsip-core-x86_64-x64-vc14-release:sip_auth_client.obj
 0004:00002328       $pdata$7$pjsip_auth_clt_init_req 000000014005a328     pjsip-core-x86_64-x64-vc14-release:sip_auth_client.obj
 0004:00002334       $pdata$pjsip_auth_clt_reinit_req 000000014005a334     pjsip-core-x86_64-x64-vc14-release:sip_auth_client.obj
 0004:00002340       $pdata$3$pjsip_auth_clt_reinit_req 000000014005a340     pjsip-core-x86_64-x64-vc14-release:sip_auth_client.obj
 0004:0000234c       $pdata$5$pjsip_auth_clt_reinit_req 000000014005a34c     pjsip-core-x86_64-x64-vc14-release:sip_auth_client.obj
 0004:00002358       $pdata$6$pjsip_auth_clt_reinit_req 000000014005a358     pjsip-core-x86_64-x64-vc14-release:sip_auth_client.obj
 0004:00002364       $pdata$pjsip_auth_create_digest 000000014005a364     pjsip-core-x86_64-x64-vc14-release:sip_auth_client.obj
 0004:00002370       $pdata$process_auth        000000014005a370     pjsip-core-x86_64-x64-vc14-release:sip_auth_client.obj
 0004:0000237c       $pdata$0$process_auth      000000014005a37c     pjsip-core-x86_64-x64-vc14-release:sip_auth_client.obj
 0004:00002388       $pdata$1$process_auth      000000014005a388     pjsip-core-x86_64-x64-vc14-release:sip_auth_client.obj
 0004:00002394       $pdata$recreate_cached_auth_pool 000000014005a394     pjsip-core-x86_64-x64-vc14-release:sip_auth_client.obj
 0004:000023a0       $pdata$0$recreate_cached_auth_pool 000000014005a3a0     pjsip-core-x86_64-x64-vc14-release:sip_auth_client.obj
 0004:000023ac       $pdata$1$recreate_cached_auth_pool 000000014005a3ac     pjsip-core-x86_64-x64-vc14-release:sip_auth_client.obj
 0004:000023b8       $pdata$respond_digest      000000014005a3b8     pjsip-core-x86_64-x64-vc14-release:sip_auth_client.obj
 0004:000023c4       $pdata$update_digest_session 000000014005a3c4     pjsip-core-x86_64-x64-vc14-release:sip_auth_client.obj
 0004:000023d0       $pdata$0$update_digest_session 000000014005a3d0     pjsip-core-x86_64-x64-vc14-release:sip_auth_client.obj
 0004:000023dc       $pdata$2$update_digest_session 000000014005a3dc     pjsip-core-x86_64-x64-vc14-release:sip_auth_client.obj
 0004:000023e8       $pdata$4$update_digest_session 000000014005a3e8     pjsip-core-x86_64-x64-vc14-release:sip_auth_client.obj
 0004:000023f4       $pdata$5$update_digest_session 000000014005a3f4     pjsip-core-x86_64-x64-vc14-release:sip_auth_client.obj
 0004:00002400       $pdata$deinit_sip_parser   000000014005a400     pjsip-core-x86_64-x64-vc14-release:sip_parser.obj
 0004:0000240c       $pdata$find_handler        000000014005a40c     pjsip-core-x86_64-x64-vc14-release:sip_parser.obj
 0004:00002418       $pdata$find_handler_imp    000000014005a418     pjsip-core-x86_64-x64-vc14-release:sip_parser.obj
 0004:00002424       $pdata$find_uri_handler    000000014005a424     pjsip-core-x86_64-x64-vc14-release:sip_parser.obj
 0004:00002430       $pdata$init_parser         000000014005a430     pjsip-core-x86_64-x64-vc14-release:sip_parser.obj
 0004:0000243c       $pdata$1$init_parser       000000014005a43c     pjsip-core-x86_64-x64-vc14-release:sip_parser.obj
 0004:00002448       $pdata$2$init_parser       000000014005a448     pjsip-core-x86_64-x64-vc14-release:sip_parser.obj
 0004:00002454       $pdata$3$init_parser       000000014005a454     pjsip-core-x86_64-x64-vc14-release:sip_parser.obj
 0004:00002460       $pdata$4$init_parser       000000014005a460     pjsip-core-x86_64-x64-vc14-release:sip_parser.obj
 0004:0000246c       $pdata$init_sip_parser     000000014005a46c     pjsip-core-x86_64-x64-vc14-release:sip_parser.obj
 0004:00002478       $pdata$int_parse_contact_param 000000014005a478     pjsip-core-x86_64-x64-vc14-release:sip_parser.obj
 0004:00002484       $pdata$2$int_parse_contact_param 000000014005a484     pjsip-core-x86_64-x64-vc14-release:sip_parser.obj
 0004:00002490       $pdata$3$int_parse_contact_param 000000014005a490     pjsip-core-x86_64-x64-vc14-release:sip_parser.obj
 0004:0000249c       $pdata$4$int_parse_contact_param 000000014005a49c     pjsip-core-x86_64-x64-vc14-release:sip_parser.obj
 0004:000024a8       $pdata$int_parse_hparam    000000014005a4a8     pjsip-core-x86_64-x64-vc14-release:sip_parser.obj
 0004:000024b4       $pdata$int_parse_msg       000000014005a4b4     pjsip-core-x86_64-x64-vc14-release:sip_parser.obj
 0004:000024c0       $pdata$int_parse_name_addr 000000014005a4c0     pjsip-core-x86_64-x64-vc14-release:sip_parser.obj
 0004:000024cc       $pdata$int_parse_other_uri 000000014005a4cc     pjsip-core-x86_64-x64-vc14-release:sip_parser.obj
 0004:000024d8       $pdata$int_parse_sip_url   000000014005a4d8     pjsip-core-x86_64-x64-vc14-release:sip_parser.obj
 0004:000024e4       $pdata$0$int_parse_sip_url 000000014005a4e4     pjsip-core-x86_64-x64-vc14-release:sip_parser.obj
 0004:000024f0       $pdata$1$int_parse_sip_url 000000014005a4f0     pjsip-core-x86_64-x64-vc14-release:sip_parser.obj
 0004:000024fc       $pdata$2$int_parse_sip_url 000000014005a4fc     pjsip-core-x86_64-x64-vc14-release:sip_parser.obj
 0004:00002508       $pdata$int_parse_status_line 000000014005a508     pjsip-core-x86_64-x64-vc14-release:sip_parser.obj
 0004:00002514       $pdata$int_parse_uri       000000014005a514     pjsip-core-x86_64-x64-vc14-release:sip_parser.obj
 0004:00002520       $pdata$2$int_parse_uri     000000014005a520     pjsip-core-x86_64-x64-vc14-release:sip_parser.obj
 0004:0000252c       $pdata$3$int_parse_uri     000000014005a52c     pjsip-core-x86_64-x64-vc14-release:sip_parser.obj
 0004:00002538       $pdata$4$int_parse_uri     000000014005a538     pjsip-core-x86_64-x64-vc14-release:sip_parser.obj
 0004:00002544       $pdata$5$int_parse_uri     000000014005a544     pjsip-core-x86_64-x64-vc14-release:sip_parser.obj
 0004:00002550       $pdata$int_parse_uri_host_port 000000014005a550     pjsip-core-x86_64-x64-vc14-release:sip_parser.obj
 0004:0000255c       $pdata$int_parse_uri_or_name_addr 000000014005a55c     pjsip-core-x86_64-x64-vc14-release:sip_parser.obj
 0004:00002568       $pdata$int_parse_user_pass 000000014005a568     pjsip-core-x86_64-x64-vc14-release:sip_parser.obj
 0004:00002574       $pdata$int_parse_via_param 000000014005a574     pjsip-core-x86_64-x64-vc14-release:sip_parser.obj
 0004:00002580       $pdata$1$int_parse_via_param 000000014005a580     pjsip-core-x86_64-x64-vc14-release:sip_parser.obj
 0004:0000258c       $pdata$2$int_parse_via_param 000000014005a58c     pjsip-core-x86_64-x64-vc14-release:sip_parser.obj
 0004:00002598       $pdata$3$int_parse_via_param 000000014005a598     pjsip-core-x86_64-x64-vc14-release:sip_parser.obj
 0004:000025a4       $pdata$int_register_parser 000000014005a5a4     pjsip-core-x86_64-x64-vc14-release:sip_parser.obj
 0004:000025b0       $pdata$4$int_register_parser 000000014005a5b0     pjsip-core-x86_64-x64-vc14-release:sip_parser.obj
 0004:000025bc       $pdata$6$int_register_parser 000000014005a5bc     pjsip-core-x86_64-x64-vc14-release:sip_parser.obj
 0004:000025c8       $pdata$on_str_parse_error  000000014005a5c8     pjsip-core-x86_64-x64-vc14-release:sip_parser.obj
 0004:000025d4       $pdata$on_syntax_error     000000014005a5d4     pjsip-core-x86_64-x64-vc14-release:sip_parser.obj
 0004:000025e0       $pdata$parse_generic_array_hdr 000000014005a5e0     pjsip-core-x86_64-x64-vc14-release:sip_parser.obj
 0004:000025ec       $pdata$parse_generic_string_hdr 000000014005a5ec     pjsip-core-x86_64-x64-vc14-release:sip_parser.obj
 0004:000025f8       $pdata$2$parse_generic_string_hdr 000000014005a5f8     pjsip-core-x86_64-x64-vc14-release:sip_parser.obj
 0004:00002604       $pdata$3$parse_generic_string_hdr 000000014005a604     pjsip-core-x86_64-x64-vc14-release:sip_parser.obj
 0004:00002610       $pdata$4$parse_generic_string_hdr 000000014005a610     pjsip-core-x86_64-x64-vc14-release:sip_parser.obj
 0004:0000261c       $pdata$5$parse_generic_string_hdr 000000014005a61c     pjsip-core-x86_64-x64-vc14-release:sip_parser.obj
 0004:00002628       $pdata$parse_hdr_accept    000000014005a628     pjsip-core-x86_64-x64-vc14-release:sip_parser.obj
 0004:00002634       $pdata$parse_hdr_allow     000000014005a634     pjsip-core-x86_64-x64-vc14-release:sip_parser.obj
 0004:00002640       $pdata$parse_hdr_call_id   000000014005a640     pjsip-core-x86_64-x64-vc14-release:sip_parser.obj
 0004:0000264c       $pdata$parse_hdr_contact   000000014005a64c     pjsip-core-x86_64-x64-vc14-release:sip_parser.obj
 0004:00002658       $pdata$parse_hdr_content_len 000000014005a658     pjsip-core-x86_64-x64-vc14-release:sip_parser.obj
 0004:00002664       $pdata$parse_hdr_content_type 000000014005a664     pjsip-core-x86_64-x64-vc14-release:sip_parser.obj
 0004:00002670       $pdata$1$parse_hdr_content_type 000000014005a670     pjsip-core-x86_64-x64-vc14-release:sip_parser.obj
 0004:0000267c       $pdata$5$parse_hdr_content_type 000000014005a67c     pjsip-core-x86_64-x64-vc14-release:sip_parser.obj
 0004:00002688       $pdata$6$parse_hdr_content_type 000000014005a688     pjsip-core-x86_64-x64-vc14-release:sip_parser.obj
 0004:00002694       $pdata$7$parse_hdr_content_type 000000014005a694     pjsip-core-x86_64-x64-vc14-release:sip_parser.obj
 0004:000026a0       $pdata$8$parse_hdr_content_type 000000014005a6a0     pjsip-core-x86_64-x64-vc14-release:sip_parser.obj
 0004:000026ac       $pdata$parse_hdr_cseq      000000014005a6ac     pjsip-core-x86_64-x64-vc14-release:sip_parser.obj
 0004:000026b8       $pdata$0$parse_hdr_cseq    000000014005a6b8     pjsip-core-x86_64-x64-vc14-release:sip_parser.obj
 0004:000026c4       $pdata$1$parse_hdr_cseq    000000014005a6c4     pjsip-core-x86_64-x64-vc14-release:sip_parser.obj
 0004:000026d0       $pdata$parse_hdr_expires   000000014005a6d0     pjsip-core-x86_64-x64-vc14-release:sip_parser.obj
 0004:000026dc       $pdata$parse_hdr_from      000000014005a6dc     pjsip-core-x86_64-x64-vc14-release:sip_parser.obj
 0004:000026e8       $pdata$parse_hdr_fromto    000000014005a6e8     pjsip-core-x86_64-x64-vc14-release:sip_parser.obj
 0004:000026f4       $pdata$parse_hdr_max_forwards 000000014005a6f4     pjsip-core-x86_64-x64-vc14-release:sip_parser.obj
 0004:00002700       $pdata$parse_hdr_min_expires 000000014005a700     pjsip-core-x86_64-x64-vc14-release:sip_parser.obj
 0004:0000270c       $pdata$parse_hdr_require   000000014005a70c     pjsip-core-x86_64-x64-vc14-release:sip_parser.obj
 0004:00002718       $pdata$parse_hdr_retry_after 000000014005a718     pjsip-core-x86_64-x64-vc14-release:sip_parser.obj
 0004:00002724       $pdata$1$parse_hdr_retry_after 000000014005a724     pjsip-core-x86_64-x64-vc14-release:sip_parser.obj
 0004:00002730       $pdata$3$parse_hdr_retry_after 000000014005a730     pjsip-core-x86_64-x64-vc14-release:sip_parser.obj
 0004:0000273c       $pdata$4$parse_hdr_retry_after 000000014005a73c     pjsip-core-x86_64-x64-vc14-release:sip_parser.obj
 0004:00002748       $pdata$5$parse_hdr_retry_after 000000014005a748     pjsip-core-x86_64-x64-vc14-release:sip_parser.obj
 0004:00002754       $pdata$parse_hdr_route     000000014005a754     pjsip-core-x86_64-x64-vc14-release:sip_parser.obj
 0004:00002760       $pdata$parse_hdr_rr        000000014005a760     pjsip-core-x86_64-x64-vc14-release:sip_parser.obj
 0004:0000276c       $pdata$parse_hdr_rr_route  000000014005a76c     pjsip-core-x86_64-x64-vc14-release:sip_parser.obj
 0004:00002778       $pdata$1$parse_hdr_rr_route 000000014005a778     pjsip-core-x86_64-x64-vc14-release:sip_parser.obj
 0004:00002784       $pdata$2$parse_hdr_rr_route 000000014005a784     pjsip-core-x86_64-x64-vc14-release:sip_parser.obj
 0004:00002790       $pdata$parse_hdr_supported 000000014005a790     pjsip-core-x86_64-x64-vc14-release:sip_parser.obj
 0004:0000279c       $pdata$parse_hdr_to        000000014005a79c     pjsip-core-x86_64-x64-vc14-release:sip_parser.obj
 0004:000027a8       $pdata$parse_hdr_unsupported 000000014005a7a8     pjsip-core-x86_64-x64-vc14-release:sip_parser.obj
 0004:000027b4       $pdata$parse_hdr_via       000000014005a7b4     pjsip-core-x86_64-x64-vc14-release:sip_parser.obj
 0004:000027c0       $pdata$parse_sip_version   000000014005a7c0     pjsip-core-x86_64-x64-vc14-release:sip_parser.obj
 0004:000027cc       $pdata$pjsip_find_msg      000000014005a7cc     pjsip-core-x86_64-x64-vc14-release:sip_parser.obj
 0004:000027d8       $pdata$pjsip_parse_hdr     000000014005a7d8     pjsip-core-x86_64-x64-vc14-release:sip_parser.obj
 0004:000027e4       $pdata$pjsip_parse_headers 000000014005a7e4     pjsip-core-x86_64-x64-vc14-release:sip_parser.obj
 0004:000027f0       $pdata$pjsip_parse_param_imp 000000014005a7f0     pjsip-core-x86_64-x64-vc14-release:sip_parser.obj
 0004:000027fc       $pdata$pjsip_parse_rdata   000000014005a7fc     pjsip-core-x86_64-x64-vc14-release:sip_parser.obj
 0004:00002808       $pdata$pjsip_parse_uri     000000014005a808     pjsip-core-x86_64-x64-vc14-release:sip_parser.obj
 0004:00002814       $pdata$pjsip_register_hdr_parser 000000014005a814     pjsip-core-x86_64-x64-vc14-release:sip_parser.obj
 0004:00002820       $pdata$0$pjsip_register_hdr_parser 000000014005a820     pjsip-core-x86_64-x64-vc14-release:sip_parser.obj
 0004:0000282c       $pdata$1$pjsip_register_hdr_parser 000000014005a82c     pjsip-core-x86_64-x64-vc14-release:sip_parser.obj
 0004:00002838       $pdata$2$pjsip_register_hdr_parser 000000014005a838     pjsip-core-x86_64-x64-vc14-release:sip_parser.obj
 0004:00002844       $pdata$3$pjsip_register_hdr_parser 000000014005a844     pjsip-core-x86_64-x64-vc14-release:sip_parser.obj
 0004:00002850       $pdata$pjsip_register_uri_parser 000000014005a850     pjsip-core-x86_64-x64-vc14-release:sip_parser.obj
 0004:0000285c       $pdata$multipart_clone_data 000000014005a85c     pjsip-core-x86_64-x64-vc14-release:sip_multipart.obj
 0004:00002868       $pdata$2$multipart_clone_data 000000014005a868     pjsip-core-x86_64-x64-vc14-release:sip_multipart.obj
 0004:00002874       $pdata$3$multipart_clone_data 000000014005a874     pjsip-core-x86_64-x64-vc14-release:sip_multipart.obj
 0004:00002880       $pdata$multipart_print_body 000000014005a880     pjsip-core-x86_64-x64-vc14-release:sip_multipart.obj
 0004:0000288c       $pdata$3$multipart_print_body 000000014005a88c     pjsip-core-x86_64-x64-vc14-release:sip_multipart.obj
 0004:00002898       $pdata$4$multipart_print_body 000000014005a898     pjsip-core-x86_64-x64-vc14-release:sip_multipart.obj
 0004:000028a4       $pdata$5$multipart_print_body 000000014005a8a4     pjsip-core-x86_64-x64-vc14-release:sip_multipart.obj
 0004:000028b0       $pdata$6$multipart_print_body 000000014005a8b0     pjsip-core-x86_64-x64-vc14-release:sip_multipart.obj
 0004:000028bc       $pdata$parse_multipart_part 000000014005a8bc     pjsip-core-x86_64-x64-vc14-release:sip_multipart.obj
 0004:000028c8       $pdata$pjsip_multipart_add_part 000000014005a8c8     pjsip-core-x86_64-x64-vc14-release:sip_multipart.obj
 0004:000028d4       $pdata$pjsip_multipart_create 000000014005a8d4     pjsip-core-x86_64-x64-vc14-release:sip_multipart.obj
 0004:000028e0       $pdata$pjsip_multipart_find_part 000000014005a8e0     pjsip-core-x86_64-x64-vc14-release:sip_multipart.obj
 0004:000028ec       $pdata$1$pjsip_multipart_find_part 000000014005a8ec     pjsip-core-x86_64-x64-vc14-release:sip_multipart.obj
 0004:000028f8       $pdata$3$pjsip_multipart_find_part 000000014005a8f8     pjsip-core-x86_64-x64-vc14-release:sip_multipart.obj
 0004:00002904       $pdata$pjsip_multipart_parse 000000014005a904     pjsip-core-x86_64-x64-vc14-release:sip_multipart.obj
 0004:00002910       $pdata$1$pjsip_multipart_parse 000000014005a910     pjsip-core-x86_64-x64-vc14-release:sip_multipart.obj
 0004:0000291c       $pdata$2$pjsip_multipart_parse 000000014005a91c     pjsip-core-x86_64-x64-vc14-release:sip_multipart.obj
 0004:00002928       $pdata$3$pjsip_multipart_parse 000000014005a928     pjsip-core-x86_64-x64-vc14-release:sip_multipart.obj
 0004:00002934       $pdata$5$pjsip_multipart_parse 000000014005a934     pjsip-core-x86_64-x64-vc14-release:sip_multipart.obj
 0004:00002940       $pdata$6$pjsip_multipart_parse 000000014005a940     pjsip-core-x86_64-x64-vc14-release:sip_multipart.obj
 0004:0000294c       $pdata$pjsip_name_addr_clone 000000014005a94c     pjsip-core-x86_64-x64-vc14-release:sip_uri.obj
 0004:00002958       $pdata$pjsip_name_addr_print 000000014005a958     pjsip-core-x86_64-x64-vc14-release:sip_uri.obj
 0004:00002964       $pdata$pjsip_name_addr_compare 000000014005a964     pjsip-core-x86_64-x64-vc14-release:sip_uri.obj
 0004:00002970       $pdata$pjsip_url_print     000000014005a970     pjsip-core-x86_64-x64-vc14-release:sip_uri.obj
 0004:0000297c       $pdata$pjsip_url_compare   000000014005a97c     pjsip-core-x86_64-x64-vc14-release:sip_uri.obj
 0004:00002988       $pdata$pjsip_url_clone     000000014005a988     pjsip-core-x86_64-x64-vc14-release:sip_uri.obj
 0004:00002994       $pdata$other_uri_print     000000014005a994     pjsip-core-x86_64-x64-vc14-release:sip_uri.obj
 0004:000029a0       $pdata$other_uri_cmp       000000014005a9a0     pjsip-core-x86_64-x64-vc14-release:sip_uri.obj
 0004:000029ac       $pdata$other_uri_clone     000000014005a9ac     pjsip-core-x86_64-x64-vc14-release:sip_uri.obj
 0004:000029b8       $pdata$pjsip_name_addr_assign 000000014005a9b8     pjsip-core-x86_64-x64-vc14-release:sip_uri.obj
 0004:000029c4       $pdata$pjsip_name_addr_create 000000014005a9c4     pjsip-core-x86_64-x64-vc14-release:sip_uri.obj
 0004:000029d0       $pdata$pjsip_other_uri_create 000000014005a9d0     pjsip-core-x86_64-x64-vc14-release:sip_uri.obj
 0004:000029dc       $pdata$pjsip_param_clone   000000014005a9dc     pjsip-core-x86_64-x64-vc14-release:sip_uri.obj
 0004:000029e8       $pdata$0$pjsip_param_clone 000000014005a9e8     pjsip-core-x86_64-x64-vc14-release:sip_uri.obj
 0004:000029f4       $pdata$1$pjsip_param_clone 000000014005a9f4     pjsip-core-x86_64-x64-vc14-release:sip_uri.obj
 0004:00002a00       $pdata$pjsip_param_cmp     000000014005aa00     pjsip-core-x86_64-x64-vc14-release:sip_uri.obj
 0004:00002a0c       $pdata$1$pjsip_param_cmp   000000014005aa0c     pjsip-core-x86_64-x64-vc14-release:sip_uri.obj
 0004:00002a18       $pdata$3$pjsip_param_cmp   000000014005aa18     pjsip-core-x86_64-x64-vc14-release:sip_uri.obj
 0004:00002a24       $pdata$pjsip_param_find    000000014005aa24     pjsip-core-x86_64-x64-vc14-release:sip_uri.obj
 0004:00002a30       $pdata$pjsip_param_print_on 000000014005aa30     pjsip-core-x86_64-x64-vc14-release:sip_uri.obj
 0004:00002a3c       $pdata$3$pjsip_param_print_on 000000014005aa3c     pjsip-core-x86_64-x64-vc14-release:sip_uri.obj
 0004:00002a48       $pdata$5$pjsip_param_print_on 000000014005aa48     pjsip-core-x86_64-x64-vc14-release:sip_uri.obj
 0004:00002a54       $pdata$6$pjsip_param_print_on 000000014005aa54     pjsip-core-x86_64-x64-vc14-release:sip_uri.obj
 0004:00002a60       $pdata$pjsip_param_shallow_clone 000000014005aa60     pjsip-core-x86_64-x64-vc14-release:sip_uri.obj
 0004:00002a6c       $pdata$pjsip_sip_uri_assign 000000014005aa6c     pjsip-core-x86_64-x64-vc14-release:sip_uri.obj
 0004:00002a78       $pdata$pjsip_sip_uri_create 000000014005aa78     pjsip-core-x86_64-x64-vc14-release:sip_uri.obj
 0004:00002a84       $pdata$dns_a_callback      000000014005aa84     pjsip-core-x86_64-x64-vc14-release:sip_resolve.obj
 0004:00002a90       $pdata$1$dns_a_callback    000000014005aa90     pjsip-core-x86_64-x64-vc14-release:sip_resolve.obj
 0004:00002a9c       $pdata$2$dns_a_callback    000000014005aa9c     pjsip-core-x86_64-x64-vc14-release:sip_resolve.obj
 0004:00002aa8       $pdata$3$dns_a_callback    000000014005aaa8     pjsip-core-x86_64-x64-vc14-release:sip_resolve.obj
 0004:00002ab4       $pdata$4$dns_a_callback    000000014005aab4     pjsip-core-x86_64-x64-vc14-release:sip_resolve.obj
 0004:00002ac0       $pdata$5$dns_a_callback    000000014005aac0     pjsip-core-x86_64-x64-vc14-release:sip_resolve.obj
 0004:00002acc       $pdata$6$dns_a_callback    000000014005aacc     pjsip-core-x86_64-x64-vc14-release:sip_resolve.obj
 0004:00002ad8       $pdata$dns_aaaa_callback   000000014005aad8     pjsip-core-x86_64-x64-vc14-release:sip_resolve.obj
 0004:00002ae4       $pdata$1$dns_aaaa_callback 000000014005aae4     pjsip-core-x86_64-x64-vc14-release:sip_resolve.obj
 0004:00002af0       $pdata$2$dns_aaaa_callback 000000014005aaf0     pjsip-core-x86_64-x64-vc14-release:sip_resolve.obj
 0004:00002afc       $pdata$3$dns_aaaa_callback 000000014005aafc     pjsip-core-x86_64-x64-vc14-release:sip_resolve.obj
 0004:00002b08       $pdata$4$dns_aaaa_callback 000000014005ab08     pjsip-core-x86_64-x64-vc14-release:sip_resolve.obj
 0004:00002b14       $pdata$5$dns_aaaa_callback 000000014005ab14     pjsip-core-x86_64-x64-vc14-release:sip_resolve.obj
 0004:00002b20       $pdata$6$dns_aaaa_callback 000000014005ab20     pjsip-core-x86_64-x64-vc14-release:sip_resolve.obj
 0004:00002b2c       $pdata$get_ip_addr_ver     000000014005ab2c     pjsip-core-x86_64-x64-vc14-release:sip_resolve.obj
 0004:00002b38       $pdata$pjsip_resolve       000000014005ab38     pjsip-core-x86_64-x64-vc14-release:sip_resolve.obj
 0004:00002b44       $pdata$2$pjsip_resolve     000000014005ab44     pjsip-core-x86_64-x64-vc14-release:sip_resolve.obj
 0004:00002b50       $pdata$3$pjsip_resolve     000000014005ab50     pjsip-core-x86_64-x64-vc14-release:sip_resolve.obj
 0004:00002b5c       $pdata$pjsip_resolver_create 000000014005ab5c     pjsip-core-x86_64-x64-vc14-release:sip_resolve.obj
 0004:00002b68       $pdata$pjsip_resolver_destroy 000000014005ab68     pjsip-core-x86_64-x64-vc14-release:sip_resolve.obj
 0004:00002b74       $pdata$srv_resolver_cb     000000014005ab74     pjsip-core-x86_64-x64-vc14-release:sip_resolve.obj
 0004:00002b80       $pdata$0$srv_resolver_cb   000000014005ab80     pjsip-core-x86_64-x64-vc14-release:sip_resolve.obj
 0004:00002b8c       $pdata$3$srv_resolver_cb   000000014005ab8c     pjsip-core-x86_64-x64-vc14-release:sip_resolve.obj
 0004:00002b98       $pdata$4$srv_resolver_cb   000000014005ab98     pjsip-core-x86_64-x64-vc14-release:sip_resolve.obj
 0004:00002ba4       $pdata$5$srv_resolver_cb   000000014005aba4     pjsip-core-x86_64-x64-vc14-release:sip_resolve.obj
 0004:00002bb0       $pdata$pjsip_strerror      000000014005abb0     pjsip-core-x86_64-x64-vc14-release:sip_errno.obj
 0004:00002bbc       $pdata$1$pjsip_strerror    000000014005abbc     pjsip-core-x86_64-x64-vc14-release:sip_errno.obj
 0004:00002bc8       $pdata$2$pjsip_strerror    000000014005abc8     pjsip-core-x86_64-x64-vc14-release:sip_errno.obj
 0004:00002bd4       $pdata$tel_uri_get_scheme  000000014005abd4     pjsip-core-x86_64-x64-vc14-release:sip_tel_uri.obj
 0004:00002be0       $pdata$tel_uri_print       000000014005abe0     pjsip-core-x86_64-x64-vc14-release:sip_tel_uri.obj
 0004:00002bec       $pdata$tel_uri_cmp         000000014005abec     pjsip-core-x86_64-x64-vc14-release:sip_tel_uri.obj
 0004:00002bf8       $pdata$3$tel_uri_cmp       000000014005abf8     pjsip-core-x86_64-x64-vc14-release:sip_tel_uri.obj
 0004:00002c04       $pdata$4$tel_uri_cmp       000000014005ac04     pjsip-core-x86_64-x64-vc14-release:sip_tel_uri.obj
 0004:00002c10       $pdata$tel_uri_clone       000000014005ac10     pjsip-core-x86_64-x64-vc14-release:sip_tel_uri.obj
 0004:00002c1c       $pdata$pjsip_tel_nb_cmp    000000014005ac1c     pjsip-core-x86_64-x64-vc14-release:sip_tel_uri.obj
 0004:00002c28       $pdata$pjsip_tel_uri_subsys_init 000000014005ac28     pjsip-core-x86_64-x64-vc14-release:sip_tel_uri.obj
 0004:00002c34       $pdata$tel_uri_parse       000000014005ac34     pjsip-core-x86_64-x64-vc14-release:sip_tel_uri.obj
 0004:00002c40       $pdata$2$tel_uri_parse     000000014005ac40     pjsip-core-x86_64-x64-vc14-release:sip_tel_uri.obj
 0004:00002c4c       $pdata$3$tel_uri_parse     000000014005ac4c     pjsip-core-x86_64-x64-vc14-release:sip_tel_uri.obj
 0004:00002c58       $pdata$4$tel_uri_parse     000000014005ac58     pjsip-core-x86_64-x64-vc14-release:sip_tel_uri.obj
 0004:00002c64       $pdata$pjsip_www_authenticate_hdr_print 000000014005ac64     pjsip-core-x86_64-x64-vc14-release:sip_auth_msg.obj
 0004:00002c70       $pdata$0$pjsip_www_authenticate_hdr_print 000000014005ac70     pjsip-core-x86_64-x64-vc14-release:sip_auth_msg.obj
 0004:00002c7c       $pdata$1$pjsip_www_authenticate_hdr_print 000000014005ac7c     pjsip-core-x86_64-x64-vc14-release:sip_auth_msg.obj
 0004:00002c88       $pdata$pjsip_www_authenticate_hdr_clone 000000014005ac88     pjsip-core-x86_64-x64-vc14-release:sip_auth_msg.obj
 0004:00002c94       $pdata$pjsip_www_authenticate_hdr_shallow_clone 000000014005ac94     pjsip-core-x86_64-x64-vc14-release:sip_auth_msg.obj
 0004:00002ca0       $pdata$pjsip_authorization_hdr_clone 000000014005aca0     pjsip-core-x86_64-x64-vc14-release:sip_auth_msg.obj
 0004:00002cac       $pdata$pjsip_authorization_hdr_shallow_clone 000000014005acac     pjsip-core-x86_64-x64-vc14-release:sip_auth_msg.obj
 0004:00002cb8       $pdata$pjsip_authorization_hdr_print 000000014005acb8     pjsip-core-x86_64-x64-vc14-release:sip_auth_msg.obj
 0004:00002cc4       $pdata$0$pjsip_authorization_hdr_print 000000014005acc4     pjsip-core-x86_64-x64-vc14-release:sip_auth_msg.obj
 0004:00002cd0       $pdata$1$pjsip_authorization_hdr_print 000000014005acd0     pjsip-core-x86_64-x64-vc14-release:sip_auth_msg.obj
 0004:00002cdc       $pdata$pjsip_authorization_hdr_create 000000014005acdc     pjsip-core-x86_64-x64-vc14-release:sip_auth_msg.obj
 0004:00002ce8       $pdata$pjsip_proxy_authenticate_hdr_create 000000014005ace8     pjsip-core-x86_64-x64-vc14-release:sip_auth_msg.obj
 0004:00002cf4       $pdata$pjsip_proxy_authorization_hdr_create 000000014005acf4     pjsip-core-x86_64-x64-vc14-release:sip_auth_msg.obj
 0004:00002d00       $pdata$pjsip_www_authenticate_hdr_create 000000014005ad00     pjsip-core-x86_64-x64-vc14-release:sip_auth_msg.obj
 0004:00002d0c       $pdata$print_digest_challenge 000000014005ad0c     pjsip-core-x86_64-x64-vc14-release:sip_auth_msg.obj
 0004:00002d18       $pdata$0$print_digest_challenge 000000014005ad18     pjsip-core-x86_64-x64-vc14-release:sip_auth_msg.obj
 0004:00002d24       $pdata$1$print_digest_challenge 000000014005ad24     pjsip-core-x86_64-x64-vc14-release:sip_auth_msg.obj
 0004:00002d30       $pdata$print_digest_credential 000000014005ad30     pjsip-core-x86_64-x64-vc14-release:sip_auth_msg.obj
 0004:00002d3c       $pdata$print_oauth_credential 000000014005ad3c     pjsip-core-x86_64-x64-vc14-release:sip_auth_msg.obj
 0004:00002d48       $pdata$int_parse_hdr_authenticate 000000014005ad48     pjsip-core-x86_64-x64-vc14-release:sip_auth_parser.obj
 0004:00002d54       $pdata$int_parse_hdr_authorization 000000014005ad54     pjsip-core-x86_64-x64-vc14-release:sip_auth_parser.obj
 0004:00002d60       $pdata$parse_digest_challenge 000000014005ad60     pjsip-core-x86_64-x64-vc14-release:sip_auth_parser.obj
 0004:00002d6c       $pdata$parse_digest_credential 000000014005ad6c     pjsip-core-x86_64-x64-vc14-release:sip_auth_parser.obj
 0004:00002d78       $pdata$parse_hdr_authorization 000000014005ad78     pjsip-core-x86_64-x64-vc14-release:sip_auth_parser.obj
 0004:00002d84       $pdata$parse_hdr_proxy_authenticate 000000014005ad84     pjsip-core-x86_64-x64-vc14-release:sip_auth_parser.obj
 0004:00002d90       $pdata$parse_hdr_proxy_authorization 000000014005ad90     pjsip-core-x86_64-x64-vc14-release:sip_auth_parser.obj
 0004:00002d9c       $pdata$parse_hdr_www_authenticate 000000014005ad9c     pjsip-core-x86_64-x64-vc14-release:sip_auth_parser.obj
 0004:00002da8       $pdata$pjsip_auth_init_parser 000000014005ada8     pjsip-core-x86_64-x64-vc14-release:sip_auth_parser.obj
 0004:00002db4       $pdata$apply_media_direction 000000014005adb4     pjmedia-x86_64-x64-vc14-release:sdp.obj
 0004:00002dc0       $pdata$0$apply_media_direction 000000014005adc0     pjmedia-x86_64-x64-vc14-release:sdp.obj
 0004:00002dcc       $pdata$1$apply_media_direction 000000014005adcc     pjmedia-x86_64-x64-vc14-release:sdp.obj
 0004:00002dd8       $pdata$2$apply_media_direction 000000014005add8     pjmedia-x86_64-x64-vc14-release:sdp.obj
 0004:00002de4       $pdata$3$apply_media_direction 000000014005ade4     pjmedia-x86_64-x64-vc14-release:sdp.obj
 0004:00002df0       $pdata$4$apply_media_direction 000000014005adf0     pjmedia-x86_64-x64-vc14-release:sdp.obj
 0004:00002dfc       $pdata$5$apply_media_direction 000000014005adfc     pjmedia-x86_64-x64-vc14-release:sdp.obj
 0004:00002e08       $pdata$init_sdp_parser     000000014005ae08     pjmedia-x86_64-x64-vc14-release:sdp.obj
 0004:00002e14       $pdata$on_scanner_error    000000014005ae14     pjmedia-x86_64-x64-vc14-release:sdp.obj
 0004:00002e20       $pdata$parse_media         000000014005ae20     pjmedia-x86_64-x64-vc14-release:sdp.obj
 0004:00002e2c       $pdata$parse_origin        000000014005ae2c     pjmedia-x86_64-x64-vc14-release:sdp.obj
 0004:00002e38       $pdata$pjmedia_sdp_attr_create 000000014005ae38     pjmedia-x86_64-x64-vc14-release:sdp.obj
 0004:00002e44       $pdata$0$pjmedia_sdp_attr_create 000000014005ae44     pjmedia-x86_64-x64-vc14-release:sdp.obj
 0004:00002e50       $pdata$2$pjmedia_sdp_attr_create 000000014005ae50     pjmedia-x86_64-x64-vc14-release:sdp.obj
 0004:00002e5c       $pdata$3$pjmedia_sdp_attr_create 000000014005ae5c     pjmedia-x86_64-x64-vc14-release:sdp.obj
 0004:00002e68       $pdata$pjmedia_sdp_attr_find 000000014005ae68     pjmedia-x86_64-x64-vc14-release:sdp.obj
 0004:00002e74       $pdata$1$pjmedia_sdp_attr_find 000000014005ae74     pjmedia-x86_64-x64-vc14-release:sdp.obj
 0004:00002e80       $pdata$2$pjmedia_sdp_attr_find 000000014005ae80     pjmedia-x86_64-x64-vc14-release:sdp.obj
 0004:00002e8c       $pdata$3$pjmedia_sdp_attr_find 000000014005ae8c     pjmedia-x86_64-x64-vc14-release:sdp.obj
 0004:00002e98       $pdata$pjmedia_sdp_attr_find2 000000014005ae98     pjmedia-x86_64-x64-vc14-release:sdp.obj
 0004:00002ea4       $pdata$1$pjmedia_sdp_attr_find2 000000014005aea4     pjmedia-x86_64-x64-vc14-release:sdp.obj
 0004:00002eb0       $pdata$3$pjmedia_sdp_attr_find2 000000014005aeb0     pjmedia-x86_64-x64-vc14-release:sdp.obj
 0004:00002ebc       $pdata$pjmedia_sdp_attr_get_rtpmap 000000014005aebc     pjmedia-x86_64-x64-vc14-release:sdp.obj
 0004:00002ec8       $pdata$pjmedia_sdp_attr_remove 000000014005aec8     pjmedia-x86_64-x64-vc14-release:sdp.obj
 0004:00002ed4       $pdata$0$pjmedia_sdp_attr_remove 000000014005aed4     pjmedia-x86_64-x64-vc14-release:sdp.obj
 0004:00002ee0       $pdata$1$pjmedia_sdp_attr_remove 000000014005aee0     pjmedia-x86_64-x64-vc14-release:sdp.obj
 0004:00002eec       $pdata$pjmedia_sdp_attr_remove_all 000000014005aeec     pjmedia-x86_64-x64-vc14-release:sdp.obj
 0004:00002ef8       $pdata$0$pjmedia_sdp_attr_remove_all 000000014005aef8     pjmedia-x86_64-x64-vc14-release:sdp.obj
 0004:00002f04       $pdata$1$pjmedia_sdp_attr_remove_all 000000014005af04     pjmedia-x86_64-x64-vc14-release:sdp.obj
 0004:00002f10       $pdata$pjmedia_sdp_conn_clone 000000014005af10     pjmedia-x86_64-x64-vc14-release:sdp.obj
 0004:00002f1c       $pdata$pjmedia_sdp_media_clone 000000014005af1c     pjmedia-x86_64-x64-vc14-release:sdp.obj
 0004:00002f28       $pdata$0$pjmedia_sdp_media_clone 000000014005af28     pjmedia-x86_64-x64-vc14-release:sdp.obj
 0004:00002f34       $pdata$5$pjmedia_sdp_media_clone 000000014005af34     pjmedia-x86_64-x64-vc14-release:sdp.obj
 0004:00002f40       $pdata$6$pjmedia_sdp_media_clone 000000014005af40     pjmedia-x86_64-x64-vc14-release:sdp.obj
 0004:00002f4c       $pdata$7$pjmedia_sdp_media_clone 000000014005af4c     pjmedia-x86_64-x64-vc14-release:sdp.obj
 0004:00002f58       $pdata$8$pjmedia_sdp_media_clone 000000014005af58     pjmedia-x86_64-x64-vc14-release:sdp.obj
 0004:00002f64       $pdata$9$pjmedia_sdp_media_clone 000000014005af64     pjmedia-x86_64-x64-vc14-release:sdp.obj
 0004:00002f70       $pdata$11$pjmedia_sdp_media_clone 000000014005af70     pjmedia-x86_64-x64-vc14-release:sdp.obj
 0004:00002f7c       $pdata$pjmedia_sdp_media_clone_deactivate 000000014005af7c     pjmedia-x86_64-x64-vc14-release:sdp.obj
 0004:00002f88       $pdata$2$pjmedia_sdp_media_clone_deactivate 000000014005af88     pjmedia-x86_64-x64-vc14-release:sdp.obj
 0004:00002f94       $pdata$5$pjmedia_sdp_media_clone_deactivate 000000014005af94     pjmedia-x86_64-x64-vc14-release:sdp.obj
 0004:00002fa0       $pdata$6$pjmedia_sdp_media_clone_deactivate 000000014005afa0     pjmedia-x86_64-x64-vc14-release:sdp.obj
 0004:00002fac       $pdata$8$pjmedia_sdp_media_clone_deactivate 000000014005afac     pjmedia-x86_64-x64-vc14-release:sdp.obj
 0004:00002fb8       $pdata$9$pjmedia_sdp_media_clone_deactivate 000000014005afb8     pjmedia-x86_64-x64-vc14-release:sdp.obj
 0004:00002fc4       $pdata$pjmedia_sdp_parse   000000014005afc4     pjmedia-x86_64-x64-vc14-release:sdp.obj
 0004:00002fd0       $pdata$pjmedia_sdp_session_clone 000000014005afd0     pjmedia-x86_64-x64-vc14-release:sdp.obj
 0004:00002fdc       $pdata$0$pjmedia_sdp_session_clone 000000014005afdc     pjmedia-x86_64-x64-vc14-release:sdp.obj
 0004:00002fe8       $pdata$4$pjmedia_sdp_session_clone 000000014005afe8     pjmedia-x86_64-x64-vc14-release:sdp.obj
 0004:00002ff4       $pdata$7$pjmedia_sdp_session_clone 000000014005aff4     pjmedia-x86_64-x64-vc14-release:sdp.obj
 0004:00003000       $pdata$8$pjmedia_sdp_session_clone 000000014005b000     pjmedia-x86_64-x64-vc14-release:sdp.obj
 0004:0000300c       $pdata$9$pjmedia_sdp_session_clone 000000014005b00c     pjmedia-x86_64-x64-vc14-release:sdp.obj
 0004:00003018       $pdata$pjmedia_sdp_transport_cmp 000000014005b018     pjmedia-x86_64-x64-vc14-release:sdp.obj
 0004:00003024       $pdata$pjmedia_sdp_transport_get_proto 000000014005b024     pjmedia-x86_64-x64-vc14-release:sdp.obj
 0004:00003030       $pdata$pjmedia_sdp_validate2 000000014005b030     pjmedia-x86_64-x64-vc14-release:sdp.obj
 0004:0000303c       $pdata$0$pjmedia_sdp_validate2 000000014005b03c     pjmedia-x86_64-x64-vc14-release:sdp.obj
 0004:00003048       $pdata$2$pjmedia_sdp_validate2 000000014005b048     pjmedia-x86_64-x64-vc14-release:sdp.obj
 0004:00003054       $pdata$4$pjmedia_sdp_validate2 000000014005b054     pjmedia-x86_64-x64-vc14-release:sdp.obj
 0004:00003060       $pdata$8$pjmedia_sdp_validate2 000000014005b060     pjmedia-x86_64-x64-vc14-release:sdp.obj
 0004:0000306c       $pdata$9$pjmedia_sdp_validate2 000000014005b06c     pjmedia-x86_64-x64-vc14-release:sdp.obj
 0004:00003078       $pdata$11$pjmedia_sdp_validate2 000000014005b078     pjmedia-x86_64-x64-vc14-release:sdp.obj
 0004:00003084       $pdata$print_attr          000000014005b084     pjmedia-x86_64-x64-vc14-release:sdp.obj
 0004:00003090       $pdata$print_bandw         000000014005b090     pjmedia-x86_64-x64-vc14-release:sdp.obj
 0004:0000309c       $pdata$print_connection_info 000000014005b09c     pjmedia-x86_64-x64-vc14-release:sdp.obj
 0004:000030a8       $pdata$print_media_desc    000000014005b0a8     pjmedia-x86_64-x64-vc14-release:sdp.obj
 0004:000030b4       $pdata$3$print_media_desc  000000014005b0b4     pjmedia-x86_64-x64-vc14-release:sdp.obj
 0004:000030c0       $pdata$4$print_media_desc  000000014005b0c0     pjmedia-x86_64-x64-vc14-release:sdp.obj
 0004:000030cc       $pdata$5$print_media_desc  000000014005b0cc     pjmedia-x86_64-x64-vc14-release:sdp.obj
 0004:000030d8       $pdata$7$print_media_desc  000000014005b0d8     pjmedia-x86_64-x64-vc14-release:sdp.obj
 0004:000030e4       $pdata$8$print_media_desc  000000014005b0e4     pjmedia-x86_64-x64-vc14-release:sdp.obj
 0004:000030f0       $pdata$print_session       000000014005b0f0     pjmedia-x86_64-x64-vc14-release:sdp.obj
 0004:000030fc       $pdata$0$print_session     000000014005b0fc     pjmedia-x86_64-x64-vc14-release:sdp.obj
 0004:00003108       $pdata$4$print_session     000000014005b108     pjmedia-x86_64-x64-vc14-release:sdp.obj
 0004:00003114       $pdata$6$print_session     000000014005b114     pjmedia-x86_64-x64-vc14-release:sdp.obj
 0004:00003120       $pdata$validate_sdp_conn   000000014005b120     pjmedia-x86_64-x64-vc14-release:sdp.obj
 0004:0000312c       $pdata$0$validate_sdp_conn 000000014005b12c     pjmedia-x86_64-x64-vc14-release:sdp.obj
 0004:00003138       $pdata$2$validate_sdp_conn 000000014005b138     pjmedia-x86_64-x64-vc14-release:sdp.obj
 0004:00003144       $pdata$apply_answer_symmetric_pt 000000014005b144     pjmedia-x86_64-x64-vc14-release:sdp_neg.obj
 0004:00003150       $pdata$1$apply_answer_symmetric_pt 000000014005b150     pjmedia-x86_64-x64-vc14-release:sdp_neg.obj
 0004:0000315c       $pdata$4$apply_answer_symmetric_pt 000000014005b15c     pjmedia-x86_64-x64-vc14-release:sdp_neg.obj
 0004:00003168       $pdata$5$apply_answer_symmetric_pt 000000014005b168     pjmedia-x86_64-x64-vc14-release:sdp_neg.obj
 0004:00003174       $pdata$6$apply_answer_symmetric_pt 000000014005b174     pjmedia-x86_64-x64-vc14-release:sdp_neg.obj
 0004:00003180       $pdata$create_answer       000000014005b180     pjmedia-x86_64-x64-vc14-release:sdp_neg.obj
 0004:0000318c       $pdata$0$create_answer     000000014005b18c     pjmedia-x86_64-x64-vc14-release:sdp_neg.obj
 0004:00003198       $pdata$1$create_answer     000000014005b198     pjmedia-x86_64-x64-vc14-release:sdp_neg.obj
 0004:000031a4       $pdata$2$create_answer     000000014005b1a4     pjmedia-x86_64-x64-vc14-release:sdp_neg.obj
 0004:000031b0       $pdata$3$create_answer     000000014005b1b0     pjmedia-x86_64-x64-vc14-release:sdp_neg.obj
 0004:000031bc       $pdata$4$create_answer     000000014005b1bc     pjmedia-x86_64-x64-vc14-release:sdp_neg.obj
 0004:000031c8       $pdata$5$create_answer     000000014005b1c8     pjmedia-x86_64-x64-vc14-release:sdp_neg.obj
 0004:000031d4       $pdata$custom_fmt_match    000000014005b1d4     pjmedia-x86_64-x64-vc14-release:sdp_neg.obj
 0004:000031e0       $pdata$match_offer         000000014005b1e0     pjmedia-x86_64-x64-vc14-release:sdp_neg.obj
 0004:000031ec       $pdata$0$match_offer       000000014005b1ec     pjmedia-x86_64-x64-vc14-release:sdp_neg.obj
 0004:000031f8       $pdata$2$match_offer       000000014005b1f8     pjmedia-x86_64-x64-vc14-release:sdp_neg.obj
 0004:00003204       $pdata$3$match_offer       000000014005b204     pjmedia-x86_64-x64-vc14-release:sdp_neg.obj
 0004:00003210       $pdata$4$match_offer       000000014005b210     pjmedia-x86_64-x64-vc14-release:sdp_neg.obj
 0004:0000321c       $pdata$pjmedia_sdp_neg_create_w_local_offer 000000014005b21c     pjmedia-x86_64-x64-vc14-release:sdp_neg.obj
 0004:00003228       $pdata$0$pjmedia_sdp_neg_create_w_local_offer 000000014005b228     pjmedia-x86_64-x64-vc14-release:sdp_neg.obj
 0004:00003234       $pdata$1$pjmedia_sdp_neg_create_w_local_offer 000000014005b234     pjmedia-x86_64-x64-vc14-release:sdp_neg.obj
 0004:00003240       $pdata$2$pjmedia_sdp_neg_create_w_local_offer 000000014005b240     pjmedia-x86_64-x64-vc14-release:sdp_neg.obj
 0004:0000324c       $pdata$3$pjmedia_sdp_neg_create_w_local_offer 000000014005b24c     pjmedia-x86_64-x64-vc14-release:sdp_neg.obj
 0004:00003258       $pdata$pjmedia_sdp_neg_create_w_remote_offer 000000014005b258     pjmedia-x86_64-x64-vc14-release:sdp_neg.obj
 0004:00003264       $pdata$0$pjmedia_sdp_neg_create_w_remote_offer 000000014005b264     pjmedia-x86_64-x64-vc14-release:sdp_neg.obj
 0004:00003270       $pdata$1$pjmedia_sdp_neg_create_w_remote_offer 000000014005b270     pjmedia-x86_64-x64-vc14-release:sdp_neg.obj
 0004:0000327c       $pdata$2$pjmedia_sdp_neg_create_w_remote_offer 000000014005b27c     pjmedia-x86_64-x64-vc14-release:sdp_neg.obj
 0004:00003288       $pdata$3$pjmedia_sdp_neg_create_w_remote_offer 000000014005b288     pjmedia-x86_64-x64-vc14-release:sdp_neg.obj
 0004:00003294       $pdata$pjmedia_sdp_neg_modify_local_offer2 000000014005b294     pjmedia-x86_64-x64-vc14-release:sdp_neg.obj
 0004:000032a0       $pdata$2$pjmedia_sdp_neg_modify_local_offer2 000000014005b2a0     pjmedia-x86_64-x64-vc14-release:sdp_neg.obj
 0004:000032ac       $pdata$3$pjmedia_sdp_neg_modify_local_offer2 000000014005b2ac     pjmedia-x86_64-x64-vc14-release:sdp_neg.obj
 0004:000032b8       $pdata$5$pjmedia_sdp_neg_modify_local_offer2 000000014005b2b8     pjmedia-x86_64-x64-vc14-release:sdp_neg.obj
 0004:000032c4       $pdata$6$pjmedia_sdp_neg_modify_local_offer2 000000014005b2c4     pjmedia-x86_64-x64-vc14-release:sdp_neg.obj
 0004:000032d0       $pdata$7$pjmedia_sdp_neg_modify_local_offer2 000000014005b2d0     pjmedia-x86_64-x64-vc14-release:sdp_neg.obj
 0004:000032dc       $pdata$pjmedia_sdp_neg_negotiate 000000014005b2dc     pjmedia-x86_64-x64-vc14-release:sdp_neg.obj
 0004:000032e8       $pdata$0$pjmedia_sdp_neg_negotiate 000000014005b2e8     pjmedia-x86_64-x64-vc14-release:sdp_neg.obj
 0004:000032f4       $pdata$1$pjmedia_sdp_neg_negotiate 000000014005b2f4     pjmedia-x86_64-x64-vc14-release:sdp_neg.obj
 0004:00003300       $pdata$pjmedia_sdp_neg_send_local_offer 000000014005b300     pjmedia-x86_64-x64-vc14-release:sdp_neg.obj
 0004:0000330c       $pdata$pjmedia_sdp_neg_set_local_answer 000000014005b30c     pjmedia-x86_64-x64-vc14-release:sdp_neg.obj
 0004:00003318       $pdata$pjmedia_sdp_neg_set_remote_answer 000000014005b318     pjmedia-x86_64-x64-vc14-release:sdp_neg.obj
 0004:00003324       $pdata$pjmedia_sdp_neg_set_remote_offer 000000014005b324     pjmedia-x86_64-x64-vc14-release:sdp_neg.obj
 0004:00003330       $pdata$process_answer      000000014005b330     pjmedia-x86_64-x64-vc14-release:sdp_neg.obj
 0004:0000333c       $pdata$1$process_answer    000000014005b33c     pjmedia-x86_64-x64-vc14-release:sdp_neg.obj
 0004:00003348       $pdata$2$process_answer    000000014005b348     pjmedia-x86_64-x64-vc14-release:sdp_neg.obj
 0004:00003354       $pdata$process_m_answer    000000014005b354     pjmedia-x86_64-x64-vc14-release:sdp_neg.obj
 0004:00003360       $pdata$3$process_m_answer  000000014005b360     pjmedia-x86_64-x64-vc14-release:sdp_neg.obj
 0004:0000336c       $pdata$4$process_m_answer  000000014005b36c     pjmedia-x86_64-x64-vc14-release:sdp_neg.obj
 0004:00003378       $pdata$rewrite_pt          000000014005b378     pjmedia-x86_64-x64-vc14-release:sdp_neg.obj
 0004:00003384       $pdata$0$rewrite_pt        000000014005b384     pjmedia-x86_64-x64-vc14-release:sdp_neg.obj
 0004:00003390       $pdata$1$rewrite_pt        000000014005b390     pjmedia-x86_64-x64-vc14-release:sdp_neg.obj
 0004:0000339c       $pdata$sdp_media_clone_deactivate 000000014005b39c     pjmedia-x86_64-x64-vc14-release:sdp_neg.obj
 0004:000033a8       $pdata$update_media_direction 000000014005b3a8     pjmedia-x86_64-x64-vc14-release:sdp_neg.obj
 0004:000033b4       $pdata$pjlib_util_strerror 000000014005b3b4     pjlib-util-x86_64-x64-vc14-release:errno.obj
 0004:000033c0       $pdata$0$pjlib_util_strerror 000000014005b3c0     pjlib-util-x86_64-x64-vc14-release:errno.obj
 0004:000033cc       $pdata$1$pjlib_util_strerror 000000014005b3cc     pjlib-util-x86_64-x64-vc14-release:errno.obj
 0004:000033d8       $pdata$_getopt_internal    000000014005b3d8     pjlib-util-x86_64-x64-vc14-release:getopt.obj
 0004:000033e4       $pdata$2$_getopt_internal  000000014005b3e4     pjlib-util-x86_64-x64-vc14-release:getopt.obj
 0004:000033f0       $pdata$4$_getopt_internal  000000014005b3f0     pjlib-util-x86_64-x64-vc14-release:getopt.obj
 0004:000033fc       $pdata$5$_getopt_internal  000000014005b3fc     pjlib-util-x86_64-x64-vc14-release:getopt.obj
 0004:00003408       $pdata$exchange            000000014005b408     pjlib-util-x86_64-x64-vc14-release:getopt.obj
 0004:00003414       $pdata$0$exchange          000000014005b414     pjlib-util-x86_64-x64-vc14-release:getopt.obj
 0004:00003420       $pdata$1$exchange          000000014005b420     pjlib-util-x86_64-x64-vc14-release:getopt.obj
 0004:0000342c       $pdata$pj_getopt_long      000000014005b42c     pjlib-util-x86_64-x64-vc14-release:getopt.obj
 0004:00003438       $pdata$pj_cis_add_alpha    000000014005b438     pjlib-util-x86_64-x64-vc14-release:scanner.obj
 0004:00003444       $pdata$pj_cis_add_cis      000000014005b444     pjlib-util-x86_64-x64-vc14-release:scanner.obj
 0004:00003450       $pdata$pj_cis_add_range    000000014005b450     pjlib-util-x86_64-x64-vc14-release:scanner.obj
 0004:0000345c       $pdata$2$pj_cis_add_range  000000014005b45c     pjlib-util-x86_64-x64-vc14-release:scanner.obj
 0004:00003468       $pdata$3$pj_cis_add_range  000000014005b468     pjlib-util-x86_64-x64-vc14-release:scanner.obj
 0004:00003474       $pdata$pj_cis_buf_init     000000014005b474     pjlib-util-x86_64-x64-vc14-release:scanner.obj
 0004:00003480       $pdata$pj_scan_get         000000014005b480     pjlib-util-x86_64-x64-vc14-release:scanner.obj
 0004:0000348c       $pdata$pj_scan_get_char    000000014005b48c     pjlib-util-x86_64-x64-vc14-release:scanner.obj
 0004:00003498       $pdata$pj_scan_get_quote   000000014005b498     pjlib-util-x86_64-x64-vc14-release:scanner.obj
 0004:000034a4       $pdata$pj_scan_get_until_chr 000000014005b4a4     pjlib-util-x86_64-x64-vc14-release:scanner.obj
 0004:000034b0       $pdata$0$pj_scan_get_until_chr 000000014005b4b0     pjlib-util-x86_64-x64-vc14-release:scanner.obj
 0004:000034bc       $pdata$1$pj_scan_get_until_chr 000000014005b4bc     pjlib-util-x86_64-x64-vc14-release:scanner.obj
 0004:000034c8       $pdata$pj_scan_init        000000014005b4c8     pjlib-util-x86_64-x64-vc14-release:scanner.obj
 0004:000034d4       $pdata$pj_scan_peek        000000014005b4d4     pjlib-util-x86_64-x64-vc14-release:scanner.obj
 0004:000034e0       $pdata$pj_scan_skip_line   000000014005b4e0     pjlib-util-x86_64-x64-vc14-release:scanner.obj
 0004:000034ec       $pdata$pj_str_unescape     000000014005b4ec     pjlib-util-x86_64-x64-vc14-release:string.obj
 0004:000034f8       $pdata$pj_strncpy2_escape  000000014005b4f8     pjlib-util-x86_64-x64-vc14-release:string.obj
 0004:00003504       $pdata$alloc_qnode         000000014005b504     pjlib-util-x86_64-x64-vc14-release:resolver.obj
 0004:00003510       $pdata$init_res_key        000000014005b510     pjlib-util-x86_64-x64-vc14-release:resolver.obj
 0004:0000351c       $pdata$on_timeout          000000014005b51c     pjlib-util-x86_64-x64-vc14-release:resolver.obj
 0004:00003528       $pdata$1$on_timeout        000000014005b528     pjlib-util-x86_64-x64-vc14-release:resolver.obj
 0004:00003534       $pdata$2$on_timeout        000000014005b534     pjlib-util-x86_64-x64-vc14-release:resolver.obj
 0004:00003540       $pdata$pj_dns_parse_addr_response 000000014005b540     pjlib-util-x86_64-x64-vc14-release:resolver.obj
 0004:0000354c       $pdata$1$pj_dns_parse_addr_response 000000014005b54c     pjlib-util-x86_64-x64-vc14-release:resolver.obj
 0004:00003558       $pdata$2$pj_dns_parse_addr_response 000000014005b558     pjlib-util-x86_64-x64-vc14-release:resolver.obj
 0004:00003564       $pdata$3$pj_dns_parse_addr_response 000000014005b564     pjlib-util-x86_64-x64-vc14-release:resolver.obj
 0004:00003570       $pdata$4$pj_dns_parse_addr_response 000000014005b570     pjlib-util-x86_64-x64-vc14-release:resolver.obj
 0004:0000357c       $pdata$5$pj_dns_parse_addr_response 000000014005b57c     pjlib-util-x86_64-x64-vc14-release:resolver.obj
 0004:00003588       $pdata$7$pj_dns_parse_addr_response 000000014005b588     pjlib-util-x86_64-x64-vc14-release:resolver.obj
 0004:00003594       $pdata$8$pj_dns_parse_addr_response 000000014005b594     pjlib-util-x86_64-x64-vc14-release:resolver.obj
 0004:000035a0       $pdata$pj_dns_resolver_cancel_query 000000014005b5a0     pjlib-util-x86_64-x64-vc14-release:resolver.obj
 0004:000035ac       $pdata$pj_dns_resolver_destroy 000000014005b5ac     pjlib-util-x86_64-x64-vc14-release:resolver.obj
 0004:000035b8       $pdata$1$pj_dns_resolver_destroy 000000014005b5b8     pjlib-util-x86_64-x64-vc14-release:resolver.obj
 0004:000035c4       $pdata$2$pj_dns_resolver_destroy 000000014005b5c4     pjlib-util-x86_64-x64-vc14-release:resolver.obj
 0004:000035d0       $pdata$3$pj_dns_resolver_destroy 000000014005b5d0     pjlib-util-x86_64-x64-vc14-release:resolver.obj
 0004:000035dc       $pdata$4$pj_dns_resolver_destroy 000000014005b5dc     pjlib-util-x86_64-x64-vc14-release:resolver.obj
 0004:000035e8       $pdata$pj_dns_resolver_start_query 000000014005b5e8     pjlib-util-x86_64-x64-vc14-release:resolver.obj
 0004:000035f4       $pdata$1$pj_dns_resolver_start_query 000000014005b5f4     pjlib-util-x86_64-x64-vc14-release:resolver.obj
 0004:00003600       $pdata$2$pj_dns_resolver_start_query 000000014005b600     pjlib-util-x86_64-x64-vc14-release:resolver.obj
 0004:0000360c       $pdata$3$pj_dns_resolver_start_query 000000014005b60c     pjlib-util-x86_64-x64-vc14-release:resolver.obj
 0004:00003618       $pdata$4$pj_dns_resolver_start_query 000000014005b618     pjlib-util-x86_64-x64-vc14-release:resolver.obj
 0004:00003624       $pdata$select_nameservers  000000014005b624     pjlib-util-x86_64-x64-vc14-release:resolver.obj
 0004:00003630       $pdata$0$select_nameservers 000000014005b630     pjlib-util-x86_64-x64-vc14-release:resolver.obj
 0004:0000363c       $pdata$1$select_nameservers 000000014005b63c     pjlib-util-x86_64-x64-vc14-release:resolver.obj
 0004:00003648       $pdata$set_nameserver_state 000000014005b648     pjlib-util-x86_64-x64-vc14-release:resolver.obj
 0004:00003654       $pdata$1$set_nameserver_state 000000014005b654     pjlib-util-x86_64-x64-vc14-release:resolver.obj
 0004:00003660       $pdata$2$set_nameserver_state 000000014005b660     pjlib-util-x86_64-x64-vc14-release:resolver.obj
 0004:0000366c       $pdata$transmit_query      000000014005b66c     pjlib-util-x86_64-x64-vc14-release:resolver.obj
 0004:00003678       $pdata$0$transmit_query    000000014005b678     pjlib-util-x86_64-x64-vc14-release:resolver.obj
 0004:00003684       $pdata$1$transmit_query    000000014005b684     pjlib-util-x86_64-x64-vc14-release:resolver.obj
 0004:00003690       $pdata$3$transmit_query    000000014005b690     pjlib-util-x86_64-x64-vc14-release:resolver.obj
 0004:0000369c       $pdata$4$transmit_query    000000014005b69c     pjlib-util-x86_64-x64-vc14-release:resolver.obj
 0004:000036a8       $pdata$5$transmit_query    000000014005b6a8     pjlib-util-x86_64-x64-vc14-release:resolver.obj
 0004:000036b4       $pdata$6$transmit_query    000000014005b6b4     pjlib-util-x86_64-x64-vc14-release:resolver.obj
 0004:000036c0       $pdata$7$transmit_query    000000014005b6c0     pjlib-util-x86_64-x64-vc14-release:resolver.obj
 0004:000036cc       $pdata$8$transmit_query    000000014005b6cc     pjlib-util-x86_64-x64-vc14-release:resolver.obj
 0004:000036d8       $pdata$9$transmit_query    000000014005b6d8     pjlib-util-x86_64-x64-vc14-release:resolver.obj
 0004:000036e4       $pdata$10$transmit_query   000000014005b6e4     pjlib-util-x86_64-x64-vc14-release:resolver.obj
 0004:000036f0       $pdata$MD5Transform        000000014005b6f0     pjlib-util-x86_64-x64-vc14-release:md5.obj
 0004:000036fc       $pdata$pj_md5_final        000000014005b6fc     pjlib-util-x86_64-x64-vc14-release:md5.obj
 0004:00003708       $pdata$0$pj_md5_final      000000014005b708     pjlib-util-x86_64-x64-vc14-release:md5.obj
 0004:00003714       $pdata$1$pj_md5_final      000000014005b714     pjlib-util-x86_64-x64-vc14-release:md5.obj
 0004:00003720       $pdata$pj_md5_update       000000014005b720     pjlib-util-x86_64-x64-vc14-release:md5.obj
 0004:0000372c       $pdata$pj_dns_make_query   000000014005b72c     pjlib-util-x86_64-x64-vc14-release:dns.obj
 0004:00003738       $pdata$2$pj_dns_make_query 000000014005b738     pjlib-util-x86_64-x64-vc14-release:dns.obj
 0004:00003744       $pdata$3$pj_dns_make_query 000000014005b744     pjlib-util-x86_64-x64-vc14-release:dns.obj
 0004:00003750       $pdata$4$pj_dns_make_query 000000014005b750     pjlib-util-x86_64-x64-vc14-release:dns.obj
 0004:0000375c       $pdata$5$pj_dns_make_query 000000014005b75c     pjlib-util-x86_64-x64-vc14-release:dns.obj
 0004:00003768       $pdata$build_server_entries 000000014005b768     pjlib-util-x86_64-x64-vc14-release:srv_resolver.obj
 0004:00003774       $pdata$0$build_server_entries 000000014005b774     pjlib-util-x86_64-x64-vc14-release:srv_resolver.obj
 0004:00003780       $pdata$1$build_server_entries 000000014005b780     pjlib-util-x86_64-x64-vc14-release:srv_resolver.obj
 0004:0000378c       $pdata$2$build_server_entries 000000014005b78c     pjlib-util-x86_64-x64-vc14-release:srv_resolver.obj
 0004:00003798       $pdata$3$build_server_entries 000000014005b798     pjlib-util-x86_64-x64-vc14-release:srv_resolver.obj
 0004:000037a4       $pdata$dns_callback        000000014005b7a4     pjlib-util-x86_64-x64-vc14-release:srv_resolver.obj
 0004:000037b0       $pdata$1$dns_callback      000000014005b7b0     pjlib-util-x86_64-x64-vc14-release:srv_resolver.obj
 0004:000037bc       $pdata$2$dns_callback      000000014005b7bc     pjlib-util-x86_64-x64-vc14-release:srv_resolver.obj
 0004:000037c8       $pdata$pj_dns_srv_cancel_query 000000014005b7c8     pjlib-util-x86_64-x64-vc14-release:srv_resolver.obj
 0004:000037d4       $pdata$0$pj_dns_srv_cancel_query 000000014005b7d4     pjlib-util-x86_64-x64-vc14-release:srv_resolver.obj
 0004:000037e0       $pdata$1$pj_dns_srv_cancel_query 000000014005b7e0     pjlib-util-x86_64-x64-vc14-release:srv_resolver.obj
 0004:000037ec       $pdata$2$pj_dns_srv_cancel_query 000000014005b7ec     pjlib-util-x86_64-x64-vc14-release:srv_resolver.obj
 0004:000037f8       $pdata$3$pj_dns_srv_cancel_query 000000014005b7f8     pjlib-util-x86_64-x64-vc14-release:srv_resolver.obj
 0004:00003804       $pdata$pj_dns_srv_resolve  000000014005b804     pjlib-util-x86_64-x64-vc14-release:srv_resolver.obj
 0004:00003810       $pdata$resolve_hostnames   000000014005b810     pjlib-util-x86_64-x64-vc14-release:srv_resolver.obj
 0004:0000381c       $pdata$2$resolve_hostnames 000000014005b81c     pjlib-util-x86_64-x64-vc14-release:srv_resolver.obj
 0004:00003828       $pdata$3$resolve_hostnames 000000014005b828     pjlib-util-x86_64-x64-vc14-release:srv_resolver.obj
 0004:00003834       $pdata$init_mutex          000000014005b834     pjlib-x86_64-x64-vc14-release:os_core_win32.obj
 0004:00003840       $pdata$pj_atomic_create    000000014005b840     pjlib-x86_64-x64-vc14-release:os_core_win32.obj
 0004:0000384c       $pdata$pj_atomic_dec_and_get 000000014005b84c     pjlib-x86_64-x64-vc14-release:os_core_win32.obj
 0004:00003858       $pdata$pj_atomic_get       000000014005b858     pjlib-x86_64-x64-vc14-release:os_core_win32.obj
 0004:00003864       $pdata$pj_atomic_inc_and_get 000000014005b864     pjlib-x86_64-x64-vc14-release:os_core_win32.obj
 0004:00003870       $pdata$pj_atomic_set       000000014005b870     pjlib-x86_64-x64-vc14-release:os_core_win32.obj
 0004:0000387c       $pdata$pj_enter_critical_section 000000014005b87c     pjlib-x86_64-x64-vc14-release:os_core_win32.obj
 0004:00003888       $pdata$pj_init             000000014005b888     pjlib-x86_64-x64-vc14-release:os_core_win32.obj
 0004:00003894       $pdata$pj_leave_critical_section 000000014005b894     pjlib-x86_64-x64-vc14-release:os_core_win32.obj
 0004:000038a0       $pdata$pj_mutex_create     000000014005b8a0     pjlib-x86_64-x64-vc14-release:os_core_win32.obj
 0004:000038ac       $pdata$0$pj_mutex_create   000000014005b8ac     pjlib-x86_64-x64-vc14-release:os_core_win32.obj
 0004:000038b8       $pdata$2$pj_mutex_create   000000014005b8b8     pjlib-x86_64-x64-vc14-release:os_core_win32.obj
 0004:000038c4       $pdata$3$pj_mutex_create   000000014005b8c4     pjlib-x86_64-x64-vc14-release:os_core_win32.obj
 0004:000038d0       $pdata$pj_mutex_create_simple 000000014005b8d0     pjlib-x86_64-x64-vc14-release:os_core_win32.obj
 0004:000038d0       $pdata$pj_mutex_create_recursive 000000014005b8d0     pjlib-x86_64-x64-vc14-release:os_core_win32.obj
 0004:000038dc       $pdata$0$pj_mutex_create_simple 000000014005b8dc     pjlib-x86_64-x64-vc14-release:os_core_win32.obj
 0004:000038dc       $pdata$0$pj_mutex_create_recursive 000000014005b8dc     pjlib-x86_64-x64-vc14-release:os_core_win32.obj
 0004:000038e8       $pdata$2$pj_mutex_create_recursive 000000014005b8e8     pjlib-x86_64-x64-vc14-release:os_core_win32.obj
 0004:000038e8       $pdata$2$pj_mutex_create_simple 000000014005b8e8     pjlib-x86_64-x64-vc14-release:os_core_win32.obj
 0004:000038f4       $pdata$3$pj_mutex_create_recursive 000000014005b8f4     pjlib-x86_64-x64-vc14-release:os_core_win32.obj
 0004:000038f4       $pdata$3$pj_mutex_create_simple 000000014005b8f4     pjlib-x86_64-x64-vc14-release:os_core_win32.obj
 0004:00003900       $pdata$pj_mutex_destroy    000000014005b900     pjlib-x86_64-x64-vc14-release:os_core_win32.obj
 0004:0000390c       $pdata$pj_mutex_lock       000000014005b90c     pjlib-x86_64-x64-vc14-release:os_core_win32.obj
 0004:00003918       $pdata$pj_mutex_trylock    000000014005b918     pjlib-x86_64-x64-vc14-release:os_core_win32.obj
 0004:00003924       $pdata$pj_mutex_unlock     000000014005b924     pjlib-x86_64-x64-vc14-release:os_core_win32.obj
 0004:00003930       $pdata$pj_rwmutex_create   000000014005b930     pjlib-x86_64-x64-vc14-release:os_core_win32.obj
 0004:0000393c       $pdata$0$pj_rwmutex_create 000000014005b93c     pjlib-x86_64-x64-vc14-release:os_core_win32.obj
 0004:00003948       $pdata$2$pj_rwmutex_create 000000014005b948     pjlib-x86_64-x64-vc14-release:os_core_win32.obj
 0004:00003954       $pdata$3$pj_rwmutex_create 000000014005b954     pjlib-x86_64-x64-vc14-release:os_core_win32.obj
 0004:00003960       $pdata$pj_rwmutex_destroy  000000014005b960     pjlib-x86_64-x64-vc14-release:os_core_win32.obj
 0004:0000396c       $pdata$pj_rwmutex_lock_read 000000014005b96c     pjlib-x86_64-x64-vc14-release:os_core_win32.obj
 0004:00003978       $pdata$pj_rwmutex_unlock_read 000000014005b978     pjlib-x86_64-x64-vc14-release:os_core_win32.obj
 0004:00003984       $pdata$pj_sem_create       000000014005b984     pjlib-x86_64-x64-vc14-release:os_core_win32.obj
 0004:00003990       $pdata$pj_sem_destroy      000000014005b990     pjlib-x86_64-x64-vc14-release:os_core_win32.obj
 0004:0000399c       $pdata$pj_sem_post         000000014005b99c     pjlib-x86_64-x64-vc14-release:os_core_win32.obj
 0004:000039a8       $pdata$pj_sem_trywait      000000014005b9a8     pjlib-x86_64-x64-vc14-release:os_core_win32.obj
 0004:000039b4       $pdata$pj_sem_wait         000000014005b9b4     pjlib-x86_64-x64-vc14-release:os_core_win32.obj
 0004:000039c0       $pdata$pj_sem_wait_for     000000014005b9c0     pjlib-x86_64-x64-vc14-release:os_core_win32.obj
 0004:000039cc       $pdata$pj_term_set_color   000000014005b9cc     pjlib-x86_64-x64-vc14-release:os_core_win32.obj
 0004:000039d8       $pdata$pj_thread_check_stack 000000014005b9d8     pjlib-x86_64-x64-vc14-release:os_core_win32.obj
 0004:000039e4       $pdata$pj_thread_create    000000014005b9e4     pjlib-x86_64-x64-vc14-release:os_core_win32.obj
 0004:000039f0       $pdata$1$pj_thread_create  000000014005b9f0     pjlib-x86_64-x64-vc14-release:os_core_win32.obj
 0004:000039fc       $pdata$2$pj_thread_create  000000014005b9fc     pjlib-x86_64-x64-vc14-release:os_core_win32.obj
 0004:00003a08       $pdata$3$pj_thread_create  000000014005ba08     pjlib-x86_64-x64-vc14-release:os_core_win32.obj
 0004:00003a14       $pdata$4$pj_thread_create  000000014005ba14     pjlib-x86_64-x64-vc14-release:os_core_win32.obj
 0004:00003a20       $pdata$5$pj_thread_create  000000014005ba20     pjlib-x86_64-x64-vc14-release:os_core_win32.obj
 0004:00003a2c       $pdata$6$pj_thread_create  000000014005ba2c     pjlib-x86_64-x64-vc14-release:os_core_win32.obj
 0004:00003a38       $pdata$pj_thread_get_name  000000014005ba38     pjlib-x86_64-x64-vc14-release:os_core_win32.obj
 0004:00003a44       $pdata$pj_thread_init      000000014005ba44     pjlib-x86_64-x64-vc14-release:os_core_win32.obj
 0004:00003a50       $pdata$pj_thread_join      000000014005ba50     pjlib-x86_64-x64-vc14-release:os_core_win32.obj
 0004:00003a5c       $pdata$0$pj_thread_join    000000014005ba5c     pjlib-x86_64-x64-vc14-release:os_core_win32.obj
 0004:00003a68       $pdata$2$pj_thread_join    000000014005ba68     pjlib-x86_64-x64-vc14-release:os_core_win32.obj
 0004:00003a74       $pdata$4$pj_thread_join    000000014005ba74     pjlib-x86_64-x64-vc14-release:os_core_win32.obj
 0004:00003a80       $pdata$6$pj_thread_join    000000014005ba80     pjlib-x86_64-x64-vc14-release:os_core_win32.obj
 0004:00003a8c       $pdata$pj_thread_local_alloc 000000014005ba8c     pjlib-x86_64-x64-vc14-release:os_core_win32.obj
 0004:00003a98       $pdata$pj_thread_local_free 000000014005ba98     pjlib-x86_64-x64-vc14-release:os_core_win32.obj
 0004:00003aa4       $pdata$pj_thread_local_set 000000014005baa4     pjlib-x86_64-x64-vc14-release:os_core_win32.obj
 0004:00003ab0       $pdata$pj_thread_register  000000014005bab0     pjlib-x86_64-x64-vc14-release:os_core_win32.obj
 0004:00003abc       $pdata$pj_thread_sleep     000000014005babc     pjlib-x86_64-x64-vc14-release:os_core_win32.obj
 0004:00003ac8       $pdata$thread_main         000000014005bac8     pjlib-x86_64-x64-vc14-release:os_core_win32.obj
 0004:00003ad4       $pdata$invoke_log          000000014005bad4     pjlib-x86_64-x64-vc14-release:errno.obj
 0004:00003ae0       $pdata$pj_perror           000000014005bae0     pjlib-x86_64-x64-vc14-release:errno.obj
 0004:00003aec       $pdata$pj_perror_1         000000014005baec     pjlib-x86_64-x64-vc14-release:errno.obj
 0004:00003af8       $pdata$pj_perror_2         000000014005baf8     pjlib-x86_64-x64-vc14-release:errno.obj
 0004:00003b04       $pdata$pj_perror_3         000000014005bb04     pjlib-x86_64-x64-vc14-release:errno.obj
 0004:00003b10       $pdata$pj_perror_4         000000014005bb10     pjlib-x86_64-x64-vc14-release:errno.obj
 0004:00003b1c       $pdata$pj_perror_imp       000000014005bb1c     pjlib-x86_64-x64-vc14-release:errno.obj
 0004:00003b28       $pdata$pj_register_strerror 000000014005bb28     pjlib-x86_64-x64-vc14-release:errno.obj
 0004:00003b34       $pdata$pj_strerror         000000014005bb34     pjlib-x86_64-x64-vc14-release:errno.obj
 0004:00003b40       $pdata$pjlib_error         000000014005bb40     pjlib-x86_64-x64-vc14-release:errno.obj
 0004:00003b4c       $pdata$0$pjlib_error       000000014005bb4c     pjlib-x86_64-x64-vc14-release:errno.obj
 0004:00003b58       $pdata$1$pjlib_error       000000014005bb58     pjlib-x86_64-x64-vc14-release:errno.obj
 0004:00003b64       $pdata$pj_list_search      000000014005bb64     pjlib-x86_64-x64-vc14-release:list.obj
 0004:00003b70       $pdata$pj_addr_str_print   000000014005bb70     pjlib-x86_64-x64-vc14-release:sock_common.obj
 0004:00003b7c       $pdata$pj_gethostip        000000014005bb7c     pjlib-x86_64-x64-vc14-release:sock_common.obj
 0004:00003b88       $pdata$pj_getipinterface   000000014005bb88     pjlib-x86_64-x64-vc14-release:sock_common.obj
 0004:00003b94       $pdata$pj_sockaddr_cmp     000000014005bb94     pjlib-x86_64-x64-vc14-release:sock_common.obj
 0004:00003ba0       $pdata$3$pj_sockaddr_cmp   000000014005bba0     pjlib-x86_64-x64-vc14-release:sock_common.obj
 0004:00003bac       $pdata$4$pj_sockaddr_cmp   000000014005bbac     pjlib-x86_64-x64-vc14-release:sock_common.obj
 0004:00003bb8       $pdata$pj_sockaddr_copy_addr 000000014005bbb8     pjlib-x86_64-x64-vc14-release:sock_common.obj
 0004:00003bc4       $pdata$pj_sockaddr_has_addr 000000014005bbc4     pjlib-x86_64-x64-vc14-release:sock_common.obj
 0004:00003bd0       $pdata$pj_sockaddr_in_init 000000014005bbd0     pjlib-x86_64-x64-vc14-release:sock_common.obj
 0004:00003bdc       $pdata$pj_sockaddr_in_set_str_addr 000000014005bbdc     pjlib-x86_64-x64-vc14-release:sock_common.obj
 0004:00003be8       $pdata$pj_sockaddr_init    000000014005bbe8     pjlib-x86_64-x64-vc14-release:sock_common.obj
 0004:00003bf4       $pdata$pj_sockaddr_print   000000014005bbf4     pjlib-x86_64-x64-vc14-release:sock_common.obj
 0004:00003c00       $pdata$1$pj_sockaddr_print 000000014005bc00     pjlib-x86_64-x64-vc14-release:sock_common.obj
 0004:00003c0c       $pdata$2$pj_sockaddr_print 000000014005bc0c     pjlib-x86_64-x64-vc14-release:sock_common.obj
 0004:00003c18       $pdata$pj_sockaddr_set_port 000000014005bc18     pjlib-x86_64-x64-vc14-release:sock_common.obj
 0004:00003c24       $pdata$pj_sockaddr_set_str_addr 000000014005bc24     pjlib-x86_64-x64-vc14-release:sock_common.obj
 0004:00003c30       $pdata$0$pj_sockaddr_set_str_addr 000000014005bc30     pjlib-x86_64-x64-vc14-release:sock_common.obj
 0004:00003c3c       $pdata$1$pj_sockaddr_set_str_addr 000000014005bc3c     pjlib-x86_64-x64-vc14-release:sock_common.obj
 0004:00003c48       $pdata$pj_pool_allocate_find 000000014005bc48     pjlib-x86_64-x64-vc14-release:pool.obj
 0004:00003c54       $pdata$pj_pool_calloc      000000014005bc54     pjlib-x86_64-x64-vc14-release:pool.obj
 0004:00003c60       $pdata$pj_pool_create_block 000000014005bc60     pjlib-x86_64-x64-vc14-release:pool.obj
 0004:00003c6c       $pdata$pj_pool_create_int  000000014005bc6c     pjlib-x86_64-x64-vc14-release:pool.obj
 0004:00003c78       $pdata$pj_pool_destroy_int 000000014005bc78     pjlib-x86_64-x64-vc14-release:pool.obj
 0004:00003c84       $pdata$pj_pool_init_int    000000014005bc84     pjlib-x86_64-x64-vc14-release:pool.obj
 0004:00003c90       $pdata$pj_pool_reset       000000014005bc90     pjlib-x86_64-x64-vc14-release:pool.obj
 0004:00003c9c       $pdata$reset_pool          000000014005bc9c     pjlib-x86_64-x64-vc14-release:pool.obj
 0004:00003ca8       $pdata$0$reset_pool        000000014005bca8     pjlib-x86_64-x64-vc14-release:pool.obj
 0004:00003cb4       $pdata$1$reset_pool        000000014005bcb4     pjlib-x86_64-x64-vc14-release:pool.obj
 0004:00003cc0       $pdata$cpool_create_pool   000000014005bcc0     pjlib-x86_64-x64-vc14-release:pool_caching.obj
 0004:00003ccc       $pdata$cpool_dump_status   000000014005bccc     pjlib-x86_64-x64-vc14-release:pool_caching.obj
 0004:00003cd8       $pdata$2$cpool_dump_status 000000014005bcd8     pjlib-x86_64-x64-vc14-release:pool_caching.obj
 0004:00003ce4       $pdata$5$cpool_dump_status 000000014005bce4     pjlib-x86_64-x64-vc14-release:pool_caching.obj
 0004:00003cf0       $pdata$6$cpool_dump_status 000000014005bcf0     pjlib-x86_64-x64-vc14-release:pool_caching.obj
 0004:00003cfc       $pdata$7$cpool_dump_status 000000014005bcfc     pjlib-x86_64-x64-vc14-release:pool_caching.obj
 0004:00003d08       $pdata$cpool_release_pool  000000014005bd08     pjlib-x86_64-x64-vc14-release:pool_caching.obj
 0004:00003d14       $pdata$0$cpool_release_pool 000000014005bd14     pjlib-x86_64-x64-vc14-release:pool_caching.obj
 0004:00003d20       $pdata$1$cpool_release_pool 000000014005bd20     pjlib-x86_64-x64-vc14-release:pool_caching.obj
 0004:00003d2c       $pdata$2$cpool_release_pool 000000014005bd2c     pjlib-x86_64-x64-vc14-release:pool_caching.obj
 0004:00003d38       $pdata$3$cpool_release_pool 000000014005bd38     pjlib-x86_64-x64-vc14-release:pool_caching.obj
 0004:00003d44       $pdata$pj_caching_pool_destroy 000000014005bd44     pjlib-x86_64-x64-vc14-release:pool_caching.obj
 0004:00003d50       $pdata$pj_caching_pool_init 000000014005bd50     pjlib-x86_64-x64-vc14-release:pool_caching.obj
 0004:00003d5c       $pdata$pj_strcat           000000014005bd5c     pjlib-x86_64-x64-vc14-release:string.obj
 0004:00003d68       $pdata$pj_strcat2          000000014005bd68     pjlib-x86_64-x64-vc14-release:string.obj
 0004:00003d74       $pdata$0$pj_strcat2        000000014005bd74     pjlib-x86_64-x64-vc14-release:string.obj
 0004:00003d80       $pdata$1$pj_strcat2        000000014005bd80     pjlib-x86_64-x64-vc14-release:string.obj
 0004:00003d8c       $pdata$pj_strcmp           000000014005bd8c     pjlib-x86_64-x64-vc14-release:string.obj
 0004:00003d98       $pdata$0$pj_strcmp         000000014005bd98     pjlib-x86_64-x64-vc14-release:string.obj
 0004:00003da4       $pdata$2$pj_strcmp         000000014005bda4     pjlib-x86_64-x64-vc14-release:string.obj
 0004:00003db0       $pdata$4$pj_strcmp         000000014005bdb0     pjlib-x86_64-x64-vc14-release:string.obj
 0004:00003dbc       $pdata$pj_strcmp2          000000014005bdbc     pjlib-x86_64-x64-vc14-release:string.obj
 0004:00003dc8       $pdata$pj_strcpy           000000014005bdc8     pjlib-x86_64-x64-vc14-release:string.obj
 0004:00003dd4       $pdata$pj_strcpy2          000000014005bdd4     pjlib-x86_64-x64-vc14-release:string.obj
 0004:00003de0       $pdata$pj_strcspn2         000000014005bde0     pjlib-x86_64-x64-vc14-release:string.obj
 0004:00003dec       $pdata$pj_strdup           000000014005bdec     pjlib-x86_64-x64-vc14-release:string.obj
 0004:00003df8       $pdata$pj_strdup2          000000014005bdf8     pjlib-x86_64-x64-vc14-release:string.obj
 0004:00003e04       $pdata$pj_strdup2_with_null 000000014005be04     pjlib-x86_64-x64-vc14-release:string.obj
 0004:00003e10       $pdata$pj_strdup_with_null 000000014005be10     pjlib-x86_64-x64-vc14-release:string.obj
 0004:00003e1c       $pdata$pj_stricmp          000000014005be1c     pjlib-x86_64-x64-vc14-release:string.obj
 0004:00003e28       $pdata$pj_stricmp2         000000014005be28     pjlib-x86_64-x64-vc14-release:string.obj
 0004:00003e34       $pdata$pj_strncpy          000000014005be34     pjlib-x86_64-x64-vc14-release:string.obj
 0004:00003e40       $pdata$pj_strncpy_with_null 000000014005be40     pjlib-x86_64-x64-vc14-release:string.obj
 0004:00003e4c       $pdata$pj_strnicmp         000000014005be4c     pjlib-x86_64-x64-vc14-release:string.obj
 0004:00003e58       $pdata$pj_strspn2          000000014005be58     pjlib-x86_64-x64-vc14-release:string.obj
 0004:00003e64       $pdata$pj_strstr           000000014005be64     pjlib-x86_64-x64-vc14-release:string.obj
 0004:00003e70       $pdata$1$pj_strstr         000000014005be70     pjlib-x86_64-x64-vc14-release:string.obj
 0004:00003e7c       $pdata$3$pj_strstr         000000014005be7c     pjlib-x86_64-x64-vc14-release:string.obj
 0004:00003e88       $pdata$pj_strtok2          000000014005be88     pjlib-x86_64-x64-vc14-release:string.obj
 0004:00003e94       $pdata$pj_strtol           000000014005be94     pjlib-x86_64-x64-vc14-release:string.obj
 0004:00003ea0       $pdata$pj_strtol2          000000014005bea0     pjlib-x86_64-x64-vc14-release:string.obj
 0004:00003eac       $pdata$0$pj_strtol2        000000014005beac     pjlib-x86_64-x64-vc14-release:string.obj
 0004:00003eb8       $pdata$2$pj_strtol2        000000014005beb8     pjlib-x86_64-x64-vc14-release:string.obj
 0004:00003ec4       $pdata$3$pj_strtol2        000000014005bec4     pjlib-x86_64-x64-vc14-release:string.obj
 0004:00003ed0       $pdata$4$pj_strtol2        000000014005bed0     pjlib-x86_64-x64-vc14-release:string.obj
 0004:00003edc       $pdata$5$pj_strtol2        000000014005bedc     pjlib-x86_64-x64-vc14-release:string.obj
 0004:00003ee8       $pdata$7$pj_strtol2        000000014005bee8     pjlib-x86_64-x64-vc14-release:string.obj
 0004:00003ef4       $pdata$8$pj_strtol2        000000014005bef4     pjlib-x86_64-x64-vc14-release:string.obj
 0004:00003f00       $pdata$pj_strtoul          000000014005bf00     pjlib-x86_64-x64-vc14-release:string.obj
 0004:00003f0c       $pdata$0$pj_strtoul        000000014005bf0c     pjlib-x86_64-x64-vc14-release:string.obj
 0004:00003f18       $pdata$1$pj_strtoul        000000014005bf18     pjlib-x86_64-x64-vc14-release:string.obj
 0004:00003f24       $pdata$pj_strtoul2         000000014005bf24     pjlib-x86_64-x64-vc14-release:string.obj
 0004:00003f30       $pdata$1$pj_strtoul2       000000014005bf30     pjlib-x86_64-x64-vc14-release:string.obj
 0004:00003f3c       $pdata$2$pj_strtoul2       000000014005bf3c     pjlib-x86_64-x64-vc14-release:string.obj
 0004:00003f48       $pdata$pj_strtoul3         000000014005bf48     pjlib-x86_64-x64-vc14-release:string.obj
 0004:00003f54       $pdata$1$pj_strtoul3       000000014005bf54     pjlib-x86_64-x64-vc14-release:string.obj
 0004:00003f60       $pdata$2$pj_strtoul3       000000014005bf60     pjlib-x86_64-x64-vc14-release:string.obj
 0004:00003f6c       $pdata$3$pj_strtoul3       000000014005bf6c     pjlib-x86_64-x64-vc14-release:string.obj
 0004:00003f78       $pdata$5$pj_strtoul3       000000014005bf78     pjlib-x86_64-x64-vc14-release:string.obj
 0004:00003f84       $pdata$6$pj_strtoul3       000000014005bf84     pjlib-x86_64-x64-vc14-release:string.obj
 0004:00003f90       $pdata$pj_strtrim          000000014005bf90     pjlib-x86_64-x64-vc14-release:string.obj
 0004:00003f9c       $pdata$pj_utoa_pad         000000014005bf9c     pjlib-x86_64-x64-vc14-release:string.obj
 0004:00003fa8       $pdata$pj_array_insert     000000014005bfa8     pjlib-x86_64-x64-vc14-release:array.obj
 0004:00003fb4       $pdata$logging_shutdown    000000014005bfb4     pjlib-x86_64-x64-vc14-release:log.obj
 0004:00003fc0       $pdata$pj_log              000000014005bfc0     pjlib-x86_64-x64-vc14-release:log.obj
 0004:00003fcc       $pdata$1$pj_log            000000014005bfcc     pjlib-x86_64-x64-vc14-release:log.obj
 0004:00003fd8       $pdata$2$pj_log            000000014005bfd8     pjlib-x86_64-x64-vc14-release:log.obj
 0004:00003fe4       $pdata$3$pj_log            000000014005bfe4     pjlib-x86_64-x64-vc14-release:log.obj
 0004:00003ff0       $pdata$4$pj_log            000000014005bff0     pjlib-x86_64-x64-vc14-release:log.obj
 0004:00003ffc       $pdata$pj_log_1            000000014005bffc     pjlib-x86_64-x64-vc14-release:log.obj
 0004:00004008       $pdata$pj_log_2            000000014005c008     pjlib-x86_64-x64-vc14-release:log.obj
 0004:00004014       $pdata$pj_log_3            000000014005c014     pjlib-x86_64-x64-vc14-release:log.obj
 0004:00004020       $pdata$pj_log_4            000000014005c020     pjlib-x86_64-x64-vc14-release:log.obj
 0004:0000402c       $pdata$pj_log_5            000000014005c02c     pjlib-x86_64-x64-vc14-release:log.obj
 0004:00004038       $pdata$pj_log_init         000000014005c038     pjlib-x86_64-x64-vc14-release:log.obj
 0004:00004044       $pdata$pj_log_pop_indent   000000014005c044     pjlib-x86_64-x64-vc14-release:log.obj
 0004:00004050       $pdata$pj_log_push_indent  000000014005c050     pjlib-x86_64-x64-vc14-release:log.obj
 0004:0000405c       $pdata$pj_gethostname      000000014005c05c     pjlib-x86_64-x64-vc14-release:sock_bsd.obj
 0004:00004068       $pdata$0$pj_gethostname    000000014005c068     pjlib-x86_64-x64-vc14-release:sock_bsd.obj
 0004:00004074       $pdata$2$pj_gethostname    000000014005c074     pjlib-x86_64-x64-vc14-release:sock_bsd.obj
 0004:00004080       $pdata$3$pj_gethostname    000000014005c080     pjlib-x86_64-x64-vc14-release:sock_bsd.obj
 0004:0000408c       $pdata$pj_inet_aton        000000014005c08c     pjlib-x86_64-x64-vc14-release:sock_bsd.obj
 0004:00004098       $pdata$pj_inet_ntop        000000014005c098     pjlib-x86_64-x64-vc14-release:sock_bsd.obj
 0004:000040a4       $pdata$pj_inet_pton        000000014005c0a4     pjlib-x86_64-x64-vc14-release:sock_bsd.obj
 0004:000040b0       $pdata$0$pj_inet_pton      000000014005c0b0     pjlib-x86_64-x64-vc14-release:sock_bsd.obj
 0004:000040bc       $pdata$1$pj_inet_pton      000000014005c0bc     pjlib-x86_64-x64-vc14-release:sock_bsd.obj
 0004:000040c8       $pdata$2$pj_inet_pton      000000014005c0c8     pjlib-x86_64-x64-vc14-release:sock_bsd.obj
 0004:000040d4       $pdata$3$pj_inet_pton      000000014005c0d4     pjlib-x86_64-x64-vc14-release:sock_bsd.obj
 0004:000040e0       $pdata$4$pj_inet_pton      000000014005c0e0     pjlib-x86_64-x64-vc14-release:sock_bsd.obj
 0004:000040ec       $pdata$pj_sock_accept      000000014005c0ec     pjlib-x86_64-x64-vc14-release:sock_bsd.obj
 0004:000040f8       $pdata$pj_sock_bind        000000014005c0f8     pjlib-x86_64-x64-vc14-release:sock_bsd.obj
 0004:00004104       $pdata$pj_sock_close       000000014005c104     pjlib-x86_64-x64-vc14-release:sock_bsd.obj
 0004:00004110       $pdata$pj_sock_connect     000000014005c110     pjlib-x86_64-x64-vc14-release:sock_bsd.obj
 0004:0000411c       $pdata$pj_sock_getsockname 000000014005c11c     pjlib-x86_64-x64-vc14-release:sock_bsd.obj
 0004:00004128       $pdata$pj_sock_getsockopt  000000014005c128     pjlib-x86_64-x64-vc14-release:sock_bsd.obj
 0004:00004134       $pdata$pj_sock_listen      000000014005c134     pjlib-x86_64-x64-vc14-release:sock_bsd.obj
 0004:00004140       $pdata$pj_sock_recv        000000014005c140     pjlib-x86_64-x64-vc14-release:sock_bsd.obj
 0004:0000414c       $pdata$pj_sock_recvfrom    000000014005c14c     pjlib-x86_64-x64-vc14-release:sock_bsd.obj
 0004:00004158       $pdata$pj_sock_send        000000014005c158     pjlib-x86_64-x64-vc14-release:sock_bsd.obj
 0004:00004164       $pdata$pj_sock_sendto      000000014005c164     pjlib-x86_64-x64-vc14-release:sock_bsd.obj
 0004:00004170       $pdata$pj_sock_setsockopt  000000014005c170     pjlib-x86_64-x64-vc14-release:sock_bsd.obj
 0004:0000417c       $pdata$pj_sock_setsockopt_params 000000014005c17c     pjlib-x86_64-x64-vc14-release:sock_bsd.obj
 0004:00004188       $pdata$4$pj_sock_setsockopt_params 000000014005c188     pjlib-x86_64-x64-vc14-release:sock_bsd.obj
 0004:00004194       $pdata$5$pj_sock_setsockopt_params 000000014005c194     pjlib-x86_64-x64-vc14-release:sock_bsd.obj
 0004:000041a0       $pdata$pj_sock_socket      000000014005c1a0     pjlib-x86_64-x64-vc14-release:sock_bsd.obj
 0004:000041ac       $pdata$create_mutex_lock   000000014005c1ac     pjlib-x86_64-x64-vc14-release:lock.obj
 0004:000041b8       $pdata$0$create_mutex_lock 000000014005c1b8     pjlib-x86_64-x64-vc14-release:lock.obj
 0004:000041c4       $pdata$2$create_mutex_lock 000000014005c1c4     pjlib-x86_64-x64-vc14-release:lock.obj
 0004:000041d0       $pdata$3$create_mutex_lock 000000014005c1d0     pjlib-x86_64-x64-vc14-release:lock.obj
 0004:000041dc       $pdata$grp_lock_acquire    000000014005c1dc     pjlib-x86_64-x64-vc14-release:lock.obj
 0004:000041e8       $pdata$grp_lock_destroy    000000014005c1e8     pjlib-x86_64-x64-vc14-release:lock.obj
 0004:000041f4       $pdata$0$grp_lock_destroy  000000014005c1f4     pjlib-x86_64-x64-vc14-release:lock.obj
 0004:00004200       $pdata$2$grp_lock_destroy  000000014005c200     pjlib-x86_64-x64-vc14-release:lock.obj
 0004:0000420c       $pdata$3$grp_lock_destroy  000000014005c20c     pjlib-x86_64-x64-vc14-release:lock.obj
 0004:00004218       $pdata$4$grp_lock_destroy  000000014005c218     pjlib-x86_64-x64-vc14-release:lock.obj
 0004:00004224       $pdata$grp_lock_release    000000014005c224     pjlib-x86_64-x64-vc14-release:lock.obj
 0004:00004230       $pdata$grp_lock_tryacquire 000000014005c230     pjlib-x86_64-x64-vc14-release:lock.obj
 0004:0000423c       $pdata$pj_grp_lock_add_handler 000000014005c23c     pjlib-x86_64-x64-vc14-release:lock.obj
 0004:00004248       $pdata$pj_grp_lock_add_ref 000000014005c248     pjlib-x86_64-x64-vc14-release:lock.obj
 0004:00004254       $pdata$pj_grp_lock_create  000000014005c254     pjlib-x86_64-x64-vc14-release:lock.obj
 0004:00004260       $pdata$0$pj_grp_lock_create 000000014005c260     pjlib-x86_64-x64-vc14-release:lock.obj
 0004:0000426c       $pdata$6$pj_grp_lock_create 000000014005c26c     pjlib-x86_64-x64-vc14-release:lock.obj
 0004:00004278       $pdata$8$pj_grp_lock_create 000000014005c278     pjlib-x86_64-x64-vc14-release:lock.obj
 0004:00004284       $pdata$9$pj_grp_lock_create 000000014005c284     pjlib-x86_64-x64-vc14-release:lock.obj
 0004:00004290       $pdata$pj_grp_lock_create_w_handler 000000014005c290     pjlib-x86_64-x64-vc14-release:lock.obj
 0004:0000429c       $pdata$pj_grp_lock_dec_ref 000000014005c29c     pjlib-x86_64-x64-vc14-release:lock.obj
 0004:000042a8       $pdata$pj_rand             000000014005c2a8     pjlib-x86_64-x64-vc14-release:rand.obj
 0004:000042b4       $pdata$pj_time_val_normalize 000000014005c2b4     pjlib-x86_64-x64-vc14-release:types.obj
 0004:000042c0       $pdata$cancel              000000014005c2c0     pjlib-x86_64-x64-vc14-release:timer.obj
 0004:000042cc       $pdata$cancel_timer        000000014005c2cc     pjlib-x86_64-x64-vc14-release:timer.obj
 0004:000042d8       $pdata$1$cancel_timer      000000014005c2d8     pjlib-x86_64-x64-vc14-release:timer.obj
 0004:000042e4       $pdata$2$cancel_timer      000000014005c2e4     pjlib-x86_64-x64-vc14-release:timer.obj
 0004:000042f0       $pdata$3$cancel_timer      000000014005c2f0     pjlib-x86_64-x64-vc14-release:timer.obj
 0004:000042fc       $pdata$grow_heap           000000014005c2fc     pjlib-x86_64-x64-vc14-release:timer.obj
 0004:00004308       $pdata$pj_timer_heap_create 000000014005c308     pjlib-x86_64-x64-vc14-release:timer.obj
 0004:00004314       $pdata$1$pj_timer_heap_create 000000014005c314     pjlib-x86_64-x64-vc14-release:timer.obj
 0004:00004320       $pdata$3$pj_timer_heap_create 000000014005c320     pjlib-x86_64-x64-vc14-release:timer.obj
 0004:0000432c       $pdata$4$pj_timer_heap_create 000000014005c32c     pjlib-x86_64-x64-vc14-release:timer.obj
 0004:00004338       $pdata$pj_timer_heap_destroy 000000014005c338     pjlib-x86_64-x64-vc14-release:timer.obj
 0004:00004344       $pdata$pj_timer_heap_dump  000000014005c344     pjlib-x86_64-x64-vc14-release:timer.obj
 0004:00004350       $pdata$0$pj_timer_heap_dump 000000014005c350     pjlib-x86_64-x64-vc14-release:timer.obj
 0004:0000435c       $pdata$2$pj_timer_heap_dump 000000014005c35c     pjlib-x86_64-x64-vc14-release:timer.obj
 0004:00004368       $pdata$3$pj_timer_heap_dump 000000014005c368     pjlib-x86_64-x64-vc14-release:timer.obj
 0004:00004374       $pdata$4$pj_timer_heap_dump 000000014005c374     pjlib-x86_64-x64-vc14-release:timer.obj
 0004:00004380       $pdata$5$pj_timer_heap_dump 000000014005c380     pjlib-x86_64-x64-vc14-release:timer.obj
 0004:0000438c       $pdata$6$pj_timer_heap_dump 000000014005c38c     pjlib-x86_64-x64-vc14-release:timer.obj
 0004:00004398       $pdata$pj_timer_heap_poll  000000014005c398     pjlib-x86_64-x64-vc14-release:timer.obj
 0004:000043a4       $pdata$2$pj_timer_heap_poll 000000014005c3a4     pjlib-x86_64-x64-vc14-release:timer.obj
 0004:000043b0       $pdata$3$pj_timer_heap_poll 000000014005c3b0     pjlib-x86_64-x64-vc14-release:timer.obj
 0004:000043bc       $pdata$pj_timer_heap_schedule_dbg 000000014005c3bc     pjlib-x86_64-x64-vc14-release:timer.obj
 0004:000043c8       $pdata$pj_timer_heap_schedule_w_grp_lock_dbg 000000014005c3c8     pjlib-x86_64-x64-vc14-release:timer.obj
 0004:000043d4       $pdata$pj_timer_heap_set_lock 000000014005c3d4     pjlib-x86_64-x64-vc14-release:timer.obj
 0004:000043e0       $pdata$reheap_down         000000014005c3e0     pjlib-x86_64-x64-vc14-release:timer.obj
 0004:000043ec       $pdata$0$reheap_down       000000014005c3ec     pjlib-x86_64-x64-vc14-release:timer.obj
 0004:000043f8       $pdata$1$reheap_down       000000014005c3f8     pjlib-x86_64-x64-vc14-release:timer.obj
 0004:00004404       $pdata$reheap_up           000000014005c404     pjlib-x86_64-x64-vc14-release:timer.obj
 0004:00004410       $pdata$0$reheap_up         000000014005c410     pjlib-x86_64-x64-vc14-release:timer.obj
 0004:0000441c       $pdata$1$reheap_up         000000014005c41c     pjlib-x86_64-x64-vc14-release:timer.obj
 0004:00004428       $pdata$remove_node         000000014005c428     pjlib-x86_64-x64-vc14-release:timer.obj
 0004:00004434       $pdata$schedule_w_grp_lock_dbg 000000014005c434     pjlib-x86_64-x64-vc14-release:timer.obj
 0004:00004440       $pdata$0$schedule_w_grp_lock_dbg 000000014005c440     pjlib-x86_64-x64-vc14-release:timer.obj
 0004:0000444c       $pdata$1$schedule_w_grp_lock_dbg 000000014005c44c     pjlib-x86_64-x64-vc14-release:timer.obj
 0004:00004458       $pdata$get_base_time       000000014005c458     pjlib-x86_64-x64-vc14-release:os_time_win32.obj
 0004:00004464       $pdata$pj_gettimeofday     000000014005c464     pjlib-x86_64-x64-vc14-release:os_time_win32.obj
 0004:00004470       $pdata$pj_time_decode      000000014005c470     pjlib-x86_64-x64-vc14-release:os_time_win32.obj
 0004:0000447c       $pdata$decrement_counter   000000014005c47c     pjlib-x86_64-x64-vc14-release:ioqueue_select.obj
 0004:00004488       $pdata$0$decrement_counter 000000014005c488     pjlib-x86_64-x64-vc14-release:ioqueue_select.obj
 0004:00004494       $pdata$1$decrement_counter 000000014005c494     pjlib-x86_64-x64-vc14-release:ioqueue_select.obj
 0004:000044a0       $pdata$increment_counter   000000014005c4a0     pjlib-x86_64-x64-vc14-release:ioqueue_select.obj
 0004:000044ac       $pdata$ioqueue_dispatch_exception_event 000000014005c4ac     pjlib-x86_64-x64-vc14-release:ioqueue_select.obj
 0004:000044b8       $pdata$0$ioqueue_dispatch_exception_event 000000014005c4b8     pjlib-x86_64-x64-vc14-release:ioqueue_select.obj
 0004:000044c4       $pdata$1$ioqueue_dispatch_exception_event 000000014005c4c4     pjlib-x86_64-x64-vc14-release:ioqueue_select.obj
 0004:000044d0       $pdata$ioqueue_dispatch_read_event 000000014005c4d0     pjlib-x86_64-x64-vc14-release:ioqueue_select.obj
 0004:000044dc       $pdata$ioqueue_dispatch_write_event 000000014005c4dc     pjlib-x86_64-x64-vc14-release:ioqueue_select.obj
 0004:000044e8       $pdata$ioqueue_init_key    000000014005c4e8     pjlib-x86_64-x64-vc14-release:ioqueue_select.obj
 0004:000044f4       $pdata$pj_ioqueue_accept   000000014005c4f4     pjlib-x86_64-x64-vc14-release:ioqueue_select.obj
 0004:00004500       $pdata$2$pj_ioqueue_accept 000000014005c500     pjlib-x86_64-x64-vc14-release:ioqueue_select.obj
 0004:0000450c       $pdata$4$pj_ioqueue_accept 000000014005c50c     pjlib-x86_64-x64-vc14-release:ioqueue_select.obj
 0004:00004518       $pdata$5$pj_ioqueue_accept 000000014005c518     pjlib-x86_64-x64-vc14-release:ioqueue_select.obj
 0004:00004524       $pdata$pj_ioqueue_connect  000000014005c524     pjlib-x86_64-x64-vc14-release:ioqueue_select.obj
 0004:00004530       $pdata$0$pj_ioqueue_connect 000000014005c530     pjlib-x86_64-x64-vc14-release:ioqueue_select.obj
 0004:0000453c       $pdata$1$pj_ioqueue_connect 000000014005c53c     pjlib-x86_64-x64-vc14-release:ioqueue_select.obj
 0004:00004548       $pdata$pj_ioqueue_create   000000014005c548     pjlib-x86_64-x64-vc14-release:ioqueue_select.obj
 0004:00004554       $pdata$1$pj_ioqueue_create 000000014005c554     pjlib-x86_64-x64-vc14-release:ioqueue_select.obj
 0004:00004560       $pdata$4$pj_ioqueue_create 000000014005c560     pjlib-x86_64-x64-vc14-release:ioqueue_select.obj
 0004:0000456c       $pdata$5$pj_ioqueue_create 000000014005c56c     pjlib-x86_64-x64-vc14-release:ioqueue_select.obj
 0004:00004578       $pdata$7$pj_ioqueue_create 000000014005c578     pjlib-x86_64-x64-vc14-release:ioqueue_select.obj
 0004:00004584       $pdata$8$pj_ioqueue_create 000000014005c584     pjlib-x86_64-x64-vc14-release:ioqueue_select.obj
 0004:00004590       $pdata$pj_ioqueue_destroy  000000014005c590     pjlib-x86_64-x64-vc14-release:ioqueue_select.obj
 0004:0000459c       $pdata$1$pj_ioqueue_destroy 000000014005c59c     pjlib-x86_64-x64-vc14-release:ioqueue_select.obj
 0004:000045a8       $pdata$2$pj_ioqueue_destroy 000000014005c5a8     pjlib-x86_64-x64-vc14-release:ioqueue_select.obj
 0004:000045b4       $pdata$pj_ioqueue_poll     000000014005c5b4     pjlib-x86_64-x64-vc14-release:ioqueue_select.obj
 0004:000045c0       $pdata$0$pj_ioqueue_poll   000000014005c5c0     pjlib-x86_64-x64-vc14-release:ioqueue_select.obj
 0004:000045cc       $pdata$1$pj_ioqueue_poll   000000014005c5cc     pjlib-x86_64-x64-vc14-release:ioqueue_select.obj
 0004:000045d8       $pdata$4$pj_ioqueue_poll   000000014005c5d8     pjlib-x86_64-x64-vc14-release:ioqueue_select.obj
 0004:000045e4       $pdata$5$pj_ioqueue_poll   000000014005c5e4     pjlib-x86_64-x64-vc14-release:ioqueue_select.obj
 0004:000045f0       $pdata$6$pj_ioqueue_poll   000000014005c5f0     pjlib-x86_64-x64-vc14-release:ioqueue_select.obj
 0004:000045fc       $pdata$7$pj_ioqueue_poll   000000014005c5fc     pjlib-x86_64-x64-vc14-release:ioqueue_select.obj
 0004:00004608       $pdata$8$pj_ioqueue_poll   000000014005c608     pjlib-x86_64-x64-vc14-release:ioqueue_select.obj
 0004:00004614       $pdata$9$pj_ioqueue_poll   000000014005c614     pjlib-x86_64-x64-vc14-release:ioqueue_select.obj
 0004:00004620       $pdata$pj_ioqueue_recv     000000014005c620     pjlib-x86_64-x64-vc14-release:ioqueue_select.obj
 0004:0000462c       $pdata$0$pj_ioqueue_recv   000000014005c62c     pjlib-x86_64-x64-vc14-release:ioqueue_select.obj
 0004:00004638       $pdata$2$pj_ioqueue_recv   000000014005c638     pjlib-x86_64-x64-vc14-release:ioqueue_select.obj
 0004:00004644       $pdata$3$pj_ioqueue_recv   000000014005c644     pjlib-x86_64-x64-vc14-release:ioqueue_select.obj
 0004:00004650       $pdata$pj_ioqueue_recvfrom 000000014005c650     pjlib-x86_64-x64-vc14-release:ioqueue_select.obj
 0004:0000465c       $pdata$2$pj_ioqueue_recvfrom 000000014005c65c     pjlib-x86_64-x64-vc14-release:ioqueue_select.obj
 0004:00004668       $pdata$4$pj_ioqueue_recvfrom 000000014005c668     pjlib-x86_64-x64-vc14-release:ioqueue_select.obj
 0004:00004674       $pdata$5$pj_ioqueue_recvfrom 000000014005c674     pjlib-x86_64-x64-vc14-release:ioqueue_select.obj
 0004:00004680       $pdata$pj_ioqueue_register_sock2 000000014005c680     pjlib-x86_64-x64-vc14-release:ioqueue_select.obj
 0004:0000468c       $pdata$pj_ioqueue_send     000000014005c68c     pjlib-x86_64-x64-vc14-release:ioqueue_select.obj
 0004:00004698       $pdata$1$pj_ioqueue_send   000000014005c698     pjlib-x86_64-x64-vc14-release:ioqueue_select.obj
 0004:000046a4       $pdata$2$pj_ioqueue_send   000000014005c6a4     pjlib-x86_64-x64-vc14-release:ioqueue_select.obj
 0004:000046b0       $pdata$3$pj_ioqueue_send   000000014005c6b0     pjlib-x86_64-x64-vc14-release:ioqueue_select.obj
 0004:000046bc       $pdata$5$pj_ioqueue_send   000000014005c6bc     pjlib-x86_64-x64-vc14-release:ioqueue_select.obj
 0004:000046c8       $pdata$6$pj_ioqueue_send   000000014005c6c8     pjlib-x86_64-x64-vc14-release:ioqueue_select.obj
 0004:000046d4       $pdata$pj_ioqueue_sendto   000000014005c6d4     pjlib-x86_64-x64-vc14-release:ioqueue_select.obj
 0004:000046e0       $pdata$2$pj_ioqueue_sendto 000000014005c6e0     pjlib-x86_64-x64-vc14-release:ioqueue_select.obj
 0004:000046ec       $pdata$3$pj_ioqueue_sendto 000000014005c6ec     pjlib-x86_64-x64-vc14-release:ioqueue_select.obj
 0004:000046f8       $pdata$4$pj_ioqueue_sendto 000000014005c6f8     pjlib-x86_64-x64-vc14-release:ioqueue_select.obj
 0004:00004704       $pdata$6$pj_ioqueue_sendto 000000014005c704     pjlib-x86_64-x64-vc14-release:ioqueue_select.obj
 0004:00004710       $pdata$7$pj_ioqueue_sendto 000000014005c710     pjlib-x86_64-x64-vc14-release:ioqueue_select.obj
 0004:0000471c       $pdata$pj_ioqueue_set_lock 000000014005c71c     pjlib-x86_64-x64-vc14-release:ioqueue_select.obj
 0004:00004728       $pdata$pj_ioqueue_unregister 000000014005c728     pjlib-x86_64-x64-vc14-release:ioqueue_select.obj
 0004:00004734       $pdata$0$pj_ioqueue_unregister 000000014005c734     pjlib-x86_64-x64-vc14-release:ioqueue_select.obj
 0004:00004740       $pdata$2$pj_ioqueue_unregister 000000014005c740     pjlib-x86_64-x64-vc14-release:ioqueue_select.obj
 0004:0000474c       $pdata$4$pj_ioqueue_unregister 000000014005c74c     pjlib-x86_64-x64-vc14-release:ioqueue_select.obj
 0004:00004758       $pdata$scan_closing_keys   000000014005c758     pjlib-x86_64-x64-vc14-release:ioqueue_select.obj
 0004:00004764       $pdata$0$scan_closing_keys 000000014005c764     pjlib-x86_64-x64-vc14-release:ioqueue_select.obj
 0004:00004770       $pdata$1$scan_closing_keys 000000014005c770     pjlib-x86_64-x64-vc14-release:ioqueue_select.obj
 0004:0000477c       $pdata$exception_cleanup   000000014005c77c     pjlib-x86_64-x64-vc14-release:except.obj
 0004:00004788       $pdata$pj_exception_id_alloc 000000014005c788     pjlib-x86_64-x64-vc14-release:except.obj
 0004:00004794       $pdata$pj_exception_id_free 000000014005c794     pjlib-x86_64-x64-vc14-release:except.obj
 0004:000047a0       $pdata$pj_exception_id_name 000000014005c7a0     pjlib-x86_64-x64-vc14-release:except.obj
 0004:000047ac       $pdata$pj_pop_exception_handler_ 000000014005c7ac     pjlib-x86_64-x64-vc14-release:except.obj
 0004:000047b8       $pdata$pj_push_exception_handler_ 000000014005c7b8     pjlib-x86_64-x64-vc14-release:except.obj
 0004:000047c4       $pdata$pj_throw_exception_ 000000014005c7c4     pjlib-x86_64-x64-vc14-release:except.obj
 0004:000047d0       $pdata$0$pj_throw_exception_ 000000014005c7d0     pjlib-x86_64-x64-vc14-release:except.obj
 0004:000047dc       $pdata$1$pj_throw_exception_ 000000014005c7dc     pjlib-x86_64-x64-vc14-release:except.obj
 0004:000047e8       $pdata$pj_get_timestamp    000000014005c7e8     pjlib-x86_64-x64-vc14-release:os_timestamp_win32.obj
 0004:000047f4       $pdata$pj_get_timestamp_freq 000000014005c7f4     pjlib-x86_64-x64-vc14-release:os_timestamp_win32.obj
 0004:00004800       $pdata$pj_hash_calc        000000014005c800     pjlib-x86_64-x64-vc14-release:hash.obj
 0004:0000480c       $pdata$pj_hash_calc_tolower 000000014005c80c     pjlib-x86_64-x64-vc14-release:hash.obj
 0004:00004818       $pdata$0$pj_hash_calc_tolower 000000014005c818     pjlib-x86_64-x64-vc14-release:hash.obj
 0004:00004824       $pdata$1$pj_hash_calc_tolower 000000014005c824     pjlib-x86_64-x64-vc14-release:hash.obj
 0004:00004830       $pdata$pj_hash_create      000000014005c830     pjlib-x86_64-x64-vc14-release:hash.obj
 0004:0000483c       $pdata$pj_hash_get         000000014005c83c     pjlib-x86_64-x64-vc14-release:hash.obj
 0004:00004848       $pdata$pj_hash_get_lower   000000014005c848     pjlib-x86_64-x64-vc14-release:hash.obj
 0004:00004854       $pdata$pj_hash_set         000000014005c854     pjlib-x86_64-x64-vc14-release:hash.obj
 0004:00004860       $pdata$pj_hash_set_lower   000000014005c860     pjlib-x86_64-x64-vc14-release:hash.obj
 0004:0000486c       $pdata$pj_hash_set_np      000000014005c86c     pjlib-x86_64-x64-vc14-release:hash.obj
 0004:00004878       $pdata$pj_hash_set_np_lower 000000014005c878     pjlib-x86_64-x64-vc14-release:hash.obj
 0004:00004884       $pdata$pj_hash_this        000000014005c884     pjlib-x86_64-x64-vc14-release:hash.obj
 0004:00004890       $pdata$pj_get_netos_error  000000014005c890     pjlib-x86_64-x64-vc14-release:os_error_win32.obj
 0004:0000489c       $pdata$platform_strerror   000000014005c89c     pjlib-x86_64-x64-vc14-release:os_error_win32.obj
 0004:000048a8       $pdata$pj_generate_unique_string 000000014005c8a8     pjlib-x86_64-x64-vc14-release:guid_win32.obj
 0004:000048b4       $pdata$pj_create_unique_string 000000014005c8b4     pjlib-x86_64-x64-vc14-release:guid.obj
 0004:000048c0       $pdata$pj_sock_apply_qos   000000014005c8c0     pjlib-x86_64-x64-vc14-release:sock_qos_common.obj
 0004:000048cc       $pdata$pj_sock_apply_qos2  000000014005c8cc     pjlib-x86_64-x64-vc14-release:sock_qos_common.obj
 0004:000048d8       $pdata$ioqueue_on_accept_complete 000000014005c8d8     pjlib-x86_64-x64-vc14-release:activesock.obj
 0004:000048e4       $pdata$0$ioqueue_on_accept_complete 000000014005c8e4     pjlib-x86_64-x64-vc14-release:activesock.obj
 0004:000048f0       $pdata$1$ioqueue_on_accept_complete 000000014005c8f0     pjlib-x86_64-x64-vc14-release:activesock.obj
 0004:000048fc       $pdata$2$ioqueue_on_accept_complete 000000014005c8fc     pjlib-x86_64-x64-vc14-release:activesock.obj
 0004:00004908       $pdata$ioqueue_on_connect_complete 000000014005c908     pjlib-x86_64-x64-vc14-release:activesock.obj
 0004:00004914       $pdata$ioqueue_on_read_complete 000000014005c914     pjlib-x86_64-x64-vc14-release:activesock.obj
 0004:00004920       $pdata$ioqueue_on_write_complete 000000014005c920     pjlib-x86_64-x64-vc14-release:activesock.obj
 0004:0000492c       $pdata$0$ioqueue_on_write_complete 000000014005c92c     pjlib-x86_64-x64-vc14-release:activesock.obj
 0004:00004938       $pdata$1$ioqueue_on_write_complete 000000014005c938     pjlib-x86_64-x64-vc14-release:activesock.obj
 0004:00004944       $pdata$pj_activesock_close 000000014005c944     pjlib-x86_64-x64-vc14-release:activesock.obj
 0004:00004950       $pdata$1$pj_activesock_close 000000014005c950     pjlib-x86_64-x64-vc14-release:activesock.obj
 0004:0000495c       $pdata$2$pj_activesock_close 000000014005c95c     pjlib-x86_64-x64-vc14-release:activesock.obj
 0004:00004968       $pdata$pj_activesock_create 000000014005c968     pjlib-x86_64-x64-vc14-release:activesock.obj
 0004:00004974       $pdata$0$pj_activesock_create 000000014005c974     pjlib-x86_64-x64-vc14-release:activesock.obj
 0004:00004980       $pdata$1$pj_activesock_create 000000014005c980     pjlib-x86_64-x64-vc14-release:activesock.obj
 0004:0000498c       $pdata$2$pj_activesock_create 000000014005c98c     pjlib-x86_64-x64-vc14-release:activesock.obj
 0004:00004998       $pdata$3$pj_activesock_create 000000014005c998     pjlib-x86_64-x64-vc14-release:activesock.obj
 0004:000049a4       $pdata$4$pj_activesock_create 000000014005c9a4     pjlib-x86_64-x64-vc14-release:activesock.obj
 0004:000049b0       $pdata$5$pj_activesock_create 000000014005c9b0     pjlib-x86_64-x64-vc14-release:activesock.obj
 0004:000049bc       $pdata$pj_activesock_send  000000014005c9bc     pjlib-x86_64-x64-vc14-release:activesock.obj
 0004:000049c8       $pdata$1$pj_activesock_send 000000014005c9c8     pjlib-x86_64-x64-vc14-release:activesock.obj
 0004:000049d4       $pdata$3$pj_activesock_send 000000014005c9d4     pjlib-x86_64-x64-vc14-release:activesock.obj
 0004:000049e0       $pdata$4$pj_activesock_send 000000014005c9e0     pjlib-x86_64-x64-vc14-release:activesock.obj
 0004:000049ec       $pdata$pj_activesock_start_accept 000000014005c9ec     pjlib-x86_64-x64-vc14-release:activesock.obj
 0004:000049f8       $pdata$pj_activesock_start_read2 000000014005c9f8     pjlib-x86_64-x64-vc14-release:activesock.obj
 0004:00004a04       $pdata$2$pj_activesock_start_read2 000000014005ca04     pjlib-x86_64-x64-vc14-release:activesock.obj
 0004:00004a10       $pdata$4$pj_activesock_start_read2 000000014005ca10     pjlib-x86_64-x64-vc14-release:activesock.obj
 0004:00004a1c       $pdata$5$pj_activesock_start_read2 000000014005ca1c     pjlib-x86_64-x64-vc14-release:activesock.obj
 0004:00004a28       $pdata$send_remaining      000000014005ca28     pjlib-x86_64-x64-vc14-release:activesock.obj
 0004:00004a34       $pdata$pj_gettickcount     000000014005ca34     pjlib-x86_64-x64-vc14-release:os_timestamp_common.obj
 0004:00004a40       $pdata$0$pj_gettickcount   000000014005ca40     pjlib-x86_64-x64-vc14-release:os_timestamp_common.obj
 0004:00004a4c       $pdata$1$pj_gettickcount   000000014005ca4c     pjlib-x86_64-x64-vc14-release:os_timestamp_common.obj
 0004:00004a58       $pdata$pj_getaddrinfo      000000014005ca58     pjlib-x86_64-x64-vc14-release:addr_resolv_sock.obj
 0004:00004a64       $pdata$0$pj_getaddrinfo    000000014005ca64     pjlib-x86_64-x64-vc14-release:addr_resolv_sock.obj
 0004:00004a70       $pdata$5$pj_getaddrinfo    000000014005ca70     pjlib-x86_64-x64-vc14-release:addr_resolv_sock.obj
 0004:00004a7c       $pdata$7$pj_getaddrinfo    000000014005ca7c     pjlib-x86_64-x64-vc14-release:addr_resolv_sock.obj
 0004:00004a88       $pdata$8$pj_getaddrinfo    000000014005ca88     pjlib-x86_64-x64-vc14-release:addr_resolv_sock.obj
 0004:00004a94       $pdata$9$pj_getaddrinfo    000000014005ca94     pjlib-x86_64-x64-vc14-release:addr_resolv_sock.obj
 0004:00004aa0       $pdata$pj_gethostbyname    000000014005caa0     pjlib-x86_64-x64-vc14-release:addr_resolv_sock.obj
 0004:00004aac       $pdata$pj_pool_create_on_buf 000000014005caac     pjlib-x86_64-x64-vc14-release:pool_buf.obj
 0004:00004ab8       $pdata$pool_buf_cleanup    000000014005cab8     pjlib-x86_64-x64-vc14-release:pool_buf.obj
 0004:00004ac4       $pdata$stack_alloc         000000014005cac4     pjlib-x86_64-x64-vc14-release:pool_buf.obj
 0004:00004ad0       $pdata$MyGetAdapterAddresses 000000014005cad0     pjlib-x86_64-x64-vc14-release:ip_helper_win32.obj
 0004:00004adc       $pdata$MyGetIpAddrTable    000000014005cadc     pjlib-x86_64-x64-vc14-release:ip_helper_win32.obj
 0004:00004ae8       $pdata$enum_ipv4_interface 000000014005cae8     pjlib-x86_64-x64-vc14-release:ip_helper_win32.obj
 0004:00004af4       $pdata$0$enum_ipv4_interface 000000014005caf4     pjlib-x86_64-x64-vc14-release:ip_helper_win32.obj
 0004:00004b00       $pdata$1$enum_ipv4_interface 000000014005cb00     pjlib-x86_64-x64-vc14-release:ip_helper_win32.obj
 0004:00004b0c       $pdata$2$enum_ipv4_interface 000000014005cb0c     pjlib-x86_64-x64-vc14-release:ip_helper_win32.obj
 0004:00004b18       $pdata$5$enum_ipv4_interface 000000014005cb18     pjlib-x86_64-x64-vc14-release:ip_helper_win32.obj
 0004:00004b24       $pdata$6$enum_ipv4_interface 000000014005cb24     pjlib-x86_64-x64-vc14-release:ip_helper_win32.obj
 0004:00004b30       $pdata$8$enum_ipv4_interface 000000014005cb30     pjlib-x86_64-x64-vc14-release:ip_helper_win32.obj
 0004:00004b3c       $pdata$enum_ipv4_ipv6_interface 000000014005cb3c     pjlib-x86_64-x64-vc14-release:ip_helper_win32.obj
 0004:00004b48       $pdata$pj_enum_ip_interface 000000014005cb48     pjlib-x86_64-x64-vc14-release:ip_helper_win32.obj
 0004:00004b54       $pdata$unload_iphlp_module 000000014005cb54     pjlib-x86_64-x64-vc14-release:ip_helper_win32.obj
 0004:00004b60       $pdata$default_block_alloc 000000014005cb60     pjlib-x86_64-x64-vc14-release:pool_policy_malloc.obj
 0004:00004b6c       $pdata$default_block_free  000000014005cb6c     pjlib-x86_64-x64-vc14-release:pool_policy_malloc.obj
 0004:00004b78       $pdata$default_pool_callback 000000014005cb78     pjlib-x86_64-x64-vc14-release:pool_policy_malloc.obj
 0004:00004b84       $pdata$pj_log_write        000000014005cb84     pjlib-x86_64-x64-vc14-release:log_writer_stdout.obj
 0004:00004b90       $pdata$PJ_FD_CLR           000000014005cb90     pjlib-x86_64-x64-vc14-release:sock_select.obj
 0004:00004b9c       $pdata$PJ_FD_ISSET         000000014005cb9c     pjlib-x86_64-x64-vc14-release:sock_select.obj
 0004:00004ba8       $pdata$PJ_FD_SET           000000014005cba8     pjlib-x86_64-x64-vc14-release:sock_select.obj
 0004:00004bb4       $pdata$PJ_FD_ZERO          000000014005cbb4     pjlib-x86_64-x64-vc14-release:sock_select.obj
 0004:00004bc0       $pdata$pj_sock_select      000000014005cbc0     pjlib-x86_64-x64-vc14-release:sock_select.obj
 0004:00004bcc       $pdata$pj_sock_set_qos_params 000000014005cbcc     pjlib-x86_64-x64-vc14-release:sock_qos_bsd.obj
 0004:00004bd8       $pdata$pj_sock_set_qos_type 000000014005cbd8     pjlib-x86_64-x64-vc14-release:sock_qos_bsd.obj
 0004:00004be4       $pdata$__GSHandlerCheck    000000014005cbe4     MSVCRT:_gshandler_.obj
 0004:00004bf0       $pdata$__GSHandlerCheckCommon 000000014005cbf0     MSVCRT:_gshandler_.obj
 0004:00004c08       $pdata$?pre_c_initialization@@YAHXZ 000000014005cc08     MSVCRT:exe_main.obj
 0004:00004c14       $pdata$?post_pgo_initialization@@YAHXZ 000000014005cc14     MSVCRT:exe_main.obj
 0004:00004c20       $pdata$?pre_cpp_initialization@@YAXXZ 000000014005cc20     MSVCRT:exe_main.obj
 0004:00004c2c       $pdata$?__scrt_common_main_seh@@YAHXZ 000000014005cc2c     MSVCRT:exe_main.obj
 0004:00004c38       $pdata$mainCRTStartup      000000014005cc38     MSVCRT:exe_main.obj
 0004:00004c44       $pdata$__raise_securityfailure 000000014005cc44     MSVCRT:gs_report.obj
 0004:00004c50       $pdata$__report_gsfailure  000000014005cc50     MSVCRT:gs_report.obj
 0004:00004c5c       $pdata$__report_rangecheckfailure 000000014005cc5c     MSVCRT:gs_report.obj
 0004:00004c68       $pdata$__report_securityfailure 000000014005cc68     MSVCRT:gs_report.obj
 0004:00004c74       $pdata$capture_current_context 000000014005cc74     MSVCRT:gs_report.obj
 0004:00004c80       $pdata$capture_previous_context 000000014005cc80     MSVCRT:gs_report.obj
 0004:00004c8c       $pdata$__isa_available_init 000000014005cc8c     MSVCRT:_cpu_disp_.obj
 0004:00004ca4       $pdata$__scrt_acquire_startup_lock 000000014005cca4     MSVCRT:utility.obj
 0004:00004cb0       $pdata$__scrt_initialize_crt 000000014005ccb0     MSVCRT:utility.obj
 0004:00004cbc       $pdata$__scrt_initialize_onexit_tables 000000014005ccbc     MSVCRT:utility.obj
 0004:00004cc8       $pdata$__scrt_is_nonwritable_in_current_image 000000014005ccc8     MSVCRT:utility.obj
 0004:00004cd4       $pdata$__scrt_release_startup_lock 000000014005ccd4     MSVCRT:utility.obj
 0004:00004ce0       $pdata$__scrt_uninitialize_crt 000000014005cce0     MSVCRT:utility.obj
 0004:00004cec       $pdata$_onexit             000000014005ccec     MSVCRT:utility.obj
 0004:00004cf8       $pdata$atexit              000000014005ccf8     MSVCRT:utility.obj
 0004:00004d04       $pdata$__security_init_cookie 000000014005cd04     MSVCRT:gs_support.obj
 0004:00004d10       $pdata$__scrt_initialize_default_local_stdio_options 000000014005cd10     MSVCRT:default_local_stdio_options.obj
 0004:00004d1c       $pdata$__scrt_fastfail     000000014005cd1c     MSVCRT:utility_desktop.obj
 0004:00004d28       $pdata$__scrt_is_managed_app 000000014005cd28     MSVCRT:utility_desktop.obj
 0004:00004d34       $pdata$__scrt_unhandled_exception_filter 000000014005cd34     MSVCRT:utility_desktop.obj
 0004:00004d40       $pdata$_RTC_Initialize     000000014005cd40     MSVCRT:_initsect_.obj
 0004:00004d4c       $pdata$_RTC_Terminate      000000014005cd4c     MSVCRT:_initsect_.obj
 0004:00004d64       $pdata$?filt$0@?0??__scrt_common_main_seh@@YAHXZ@4HA 000000014005cd64     MSVCRT:exe_main.obj
 0004:00004d70       $pdata$__scrt_is_nonwritable_in_current_image$filt$0 000000014005cd70     MSVCRT:utility.obj
 0005:00000000       __guard_fids__             000000014005d000     MSVCRT:exe_main.obj
 0005:00000004       __guard_fids__             000000014005d004     MSVCRT:exe_main.obj
 0005:00000008       __guard_fids__             000000014005d008     MSVCRT:exe_main.obj
 0005:0000000c       __guard_fids_?pre_c_initialization@@YAHXZ 000000014005d00c     MSVCRT:exe_main.obj
 0005:00000014       __guard_fids___scrt_set_unhandled_exception_filter 000000014005d014     MSVCRT:utility_desktop.obj
 0005:00000018       __guard_fids__             000000014005d018     MSVCRT:guard_support.obj
