 stateless_proxy

 Timestamp is 60aeb6df (Wed May 26 23:00:15 2021)

 Preferred load address is 0000000140000000

 Start         Length     Name                   Class
 0001:00000000 00028030H .text$mn                CODE
 0001:00028030 00000036H .text$mn$00             CODE
 0001:00028066 00000036H .text$x                 CODE
 0002:00000000 00000438H .idata$5                DATA
 0002:00000438 00000028H .00cfg                  DATA
 0002:00000460 00000008H .CRT$XCA                DATA
 0002:00000468 00000008H .CRT$XCAA               DATA
 0002:00000470 00000008H .CRT$XCZ                DATA
 0002:00000478 00000008H .CRT$XIA                DATA
 0002:00000480 00000008H .CRT$XIAA               DATA
 0002:00000488 00000008H .CRT$XIAC               DATA
 0002:00000490 00000008H .CRT$XIZ                DATA
 0002:00000498 00000008H .CRT$XPA                DATA
 0002:000004a0 00000008H .CRT$XPZ                DATA
 0002:000004a8 00000008H .CRT$XTA                DATA
 0002:000004b0 00000010H .CRT$XTZ                DATA
 0002:000004b8 00000000H .gehcont$y              DATA
 0002:000004b8 00000000H .gfids$y                DATA
 0002:000004c0 00007440H .rdata                  DATA
 0002:00007900 00000000H .rdata$CastGuardVftablesA DATA
 0002:00007900 00000000H .rdata$CastGuardVftablesC DATA
 0002:00007900 0000015cH .rdata$voltmd           DATA
 0002:00007a5c 0000025cH .rdata$zzzdbg           DATA
 0002:00007cb8 00000008H .rtc$IAA                DATA
 0002:00007cc0 00000008H .rtc$IZZ                DATA
 0002:00007cc8 00000008H .rtc$TAA                DATA
 0002:00007cd0 00000008H .rtc$TZZ                DATA
 0002:00007cd8 000032c4H .xdata                  DATA
 0002:0000af9c 00000000H .edata                  DATA
 0002:0000af9c 000000f0H .idata$2                DATA
 0002:0000b08c 00000014H .idata$3                DATA
 0002:0000b0a0 00000438H .idata$4                DATA
 0002:0000b4d8 00000822H .idata$6                DATA
 0003:00000000 00001400H .data                   DATA
 0003:00001400 000060d8H .bss                    DATA
 0004:00000000 00002dccH .pdata                  DATA

  Address         Publics by Value              Rva+Base               Lib:Object

 0000:00000000       __dynamic_value_reloc_table 0000000000000000     <absolute>
 0000:00000000       __hybrid_auxiliary_iat     0000000000000000     <absolute>
 0000:00000000       __hybrid_code_map          0000000000000000     <absolute>
 0000:00000000       __hybrid_auxiliary_iat_copy 0000000000000000     <absolute>
 0000:00000000       __arm64x_extra_rfe_table_size 0000000000000000     <absolute>
 0000:00000000       __x64_code_ranges_to_entry_points 0000000000000000     <absolute>
 0000:00000000       ___safe_se_handler_count   0000000000000000     <absolute>
 0000:00000000       __arm64x_redirection_metadata 0000000000000000     <absolute>
 0000:00000000       __guard_longjmp_table      0000000000000000     <absolute>
 0000:00000000       __guard_longjmp_count      0000000000000000     <absolute>
 0000:00000000       __AbsoluteZero             0000000000000000     <absolute>
 0000:00000000       __guard_check_icall_a64n_fptr 0000000000000000     <absolute>
 0000:00000000       __guard_iat_count          0000000000000000     <absolute>
 0000:00000000       __guard_iat_table          0000000000000000     <absolute>
 0000:00000000       __guard_fids_table         0000000000000000     <absolute>
 0000:00000000       __guard_eh_cont_count      0000000000000000     <absolute>
 0000:00000000       __x64_code_ranges_to_entry_points_count 0000000000000000     <absolute>
 0000:00000000       __arm64x_extra_rfe_table   0000000000000000     <absolute>
 0000:00000000       __guard_fids_count         0000000000000000     <absolute>
 0000:00000000       __arm64x_redirection_metadata_count 0000000000000000     <absolute>
 0000:00000000       __enclave_config           0000000000000000     <absolute>
 0000:00000000       __guard_eh_cont_table      0000000000000000     <absolute>
 0000:00000000       ___safe_se_handler_table   0000000000000000     <absolute>
 0000:00000000       __arm64x_native_entrypoint 0000000000000000     <absolute>
 0000:00000000       __hybrid_code_map_count    0000000000000000     <absolute>
 0000:00000100       __guard_flags              0000000000000100     <absolute>
 0000:00000000       __ImageBase                0000000140000000     <linker-defined>
 0001:00001300       main                       0000000140002300 f   stateless_proxy.obj
 0001:00001740       __local_stdio_printf_options 0000000140002740 f i stateless_proxy.obj
 0001:00001750       _snprintf                  0000000140002750 f i stateless_proxy.obj
 0001:000017b0       printf                     00000001400027b0 f i stateless_proxy.obj
 0001:000039b0       pjsip_accept_hdr_create    00000001400049b0 f   pjsip-core-x86_64-x64-vc14-release:sip_msg.obj
 0001:00003a00       pjsip_allow_hdr_create     0000000140004a00 f   pjsip-core-x86_64-x64-vc14-release:sip_msg.obj
 0001:00003a50       pjsip_cid_hdr_create       0000000140004a50 f   pjsip-core-x86_64-x64-vc14-release:sip_msg.obj
 0001:00003ab0       pjsip_clen_hdr_create      0000000140004ab0 f   pjsip-core-x86_64-x64-vc14-release:sip_msg.obj
 0001:00003b10       pjsip_clone_text_data      0000000140004b10 f   pjsip-core-x86_64-x64-vc14-release:sip_msg.obj
 0001:00003b70       pjsip_contact_hdr_create   0000000140004b70 f   pjsip-core-x86_64-x64-vc14-release:sip_msg.obj
 0001:00003c10       pjsip_cseq_hdr_create      0000000140004c10 f   pjsip-core-x86_64-x64-vc14-release:sip_msg.obj
 0001:00003c70       pjsip_ctype_hdr_create     0000000140004c70 f   pjsip-core-x86_64-x64-vc14-release:sip_msg.obj
 0001:00003d00       pjsip_expires_hdr_create   0000000140004d00 f   pjsip-core-x86_64-x64-vc14-release:sip_msg.obj
 0001:00003d50       pjsip_from_hdr_create      0000000140004d50 f   pjsip-core-x86_64-x64-vc14-release:sip_msg.obj
 0001:00003de0       pjsip_fromto_hdr_set_from  0000000140004de0 f   pjsip-core-x86_64-x64-vc14-release:sip_msg.obj
 0001:00003e20       pjsip_fromto_hdr_set_to    0000000140004e20 f   pjsip-core-x86_64-x64-vc14-release:sip_msg.obj
 0001:00003e60       pjsip_generic_string_hdr_create 0000000140004e60 f   pjsip-core-x86_64-x64-vc14-release:sip_msg.obj
 0001:00003f20       pjsip_get_ack_method       0000000140004f20 f   pjsip-core-x86_64-x64-vc14-release:sip_msg.obj
 0001:00003f30       pjsip_get_status_text      0000000140004f30 f   pjsip-core-x86_64-x64-vc14-release:sip_msg.obj
 0001:00003f80       pjsip_hdr_clone            0000000140004f80 f   pjsip-core-x86_64-x64-vc14-release:sip_msg.obj
 0001:00003f90       pjsip_hdr_print_on         0000000140004f90 f   pjsip-core-x86_64-x64-vc14-release:sip_msg.obj
 0001:00003fb0       pjsip_hdr_shallow_clone    0000000140004fb0 f   pjsip-core-x86_64-x64-vc14-release:sip_msg.obj
 0001:00003fc0       pjsip_max_fwd_hdr_create   0000000140004fc0 f   pjsip-core-x86_64-x64-vc14-release:sip_msg.obj
 0001:00004010       pjsip_media_type_cp        0000000140005010 f   pjsip-core-x86_64-x64-vc14-release:sip_msg.obj
 0001:00004070       pjsip_media_type_init      0000000140005070 f   pjsip-core-x86_64-x64-vc14-release:sip_msg.obj
 0001:000040c0       pjsip_media_type_print     00000001400050c0 f   pjsip-core-x86_64-x64-vc14-release:sip_msg.obj
 0001:000040d0       pjsip_method_copy          00000001400050d0 f   pjsip-core-x86_64-x64-vc14-release:sip_msg.obj
 0001:00004100       pjsip_method_init_np       0000000140005100 f   pjsip-core-x86_64-x64-vc14-release:sip_msg.obj
 0001:000041a0       pjsip_min_expires_hdr_create 00000001400051a0 f   pjsip-core-x86_64-x64-vc14-release:sip_msg.obj
 0001:000041f0       pjsip_msg_body_clone       00000001400051f0 f   pjsip-core-x86_64-x64-vc14-release:sip_msg.obj
 0001:000042c0       pjsip_msg_create           00000001400052c0 f   pjsip-core-x86_64-x64-vc14-release:sip_msg.obj
 0001:000042f0       pjsip_msg_find_hdr         00000001400052f0 f   pjsip-core-x86_64-x64-vc14-release:sip_msg.obj
 0001:00004320       pjsip_msg_find_hdr_by_name 0000000140005320 f   pjsip-core-x86_64-x64-vc14-release:sip_msg.obj
 0001:00004390       pjsip_msg_print            0000000140005390 f   pjsip-core-x86_64-x64-vc14-release:sip_msg.obj
 0001:00004700       pjsip_print_text_body      0000000140005700 f   pjsip-core-x86_64-x64-vc14-release:sip_msg.obj
 0001:00004740       pjsip_require_hdr_create   0000000140005740 f   pjsip-core-x86_64-x64-vc14-release:sip_msg.obj
 0001:00004790       pjsip_retry_after_hdr_create 0000000140005790 f   pjsip-core-x86_64-x64-vc14-release:sip_msg.obj
 0001:00004800       pjsip_route_hdr_create     0000000140005800 f   pjsip-core-x86_64-x64-vc14-release:sip_msg.obj
 0001:00004870       pjsip_rr_hdr_create        0000000140005870 f   pjsip-core-x86_64-x64-vc14-release:sip_msg.obj
 0001:000048e0       pjsip_supported_hdr_create 00000001400058e0 f   pjsip-core-x86_64-x64-vc14-release:sip_msg.obj
 0001:00004940       pjsip_to_hdr_create        0000000140005940 f   pjsip-core-x86_64-x64-vc14-release:sip_msg.obj
 0001:000049d0       pjsip_unsupported_hdr_create 00000001400059d0 f   pjsip-core-x86_64-x64-vc14-release:sip_msg.obj
 0001:00004a20       pjsip_via_hdr_create       0000000140005a20 f   pjsip-core-x86_64-x64-vc14-release:sip_msg.obj
 0001:00004e10       pjsip_rx_data_get_info     0000000140005e10 f   pjsip-core-x86_64-x64-vc14-release:sip_transport.obj
 0001:00004ec0       pjsip_tpmgr_acquire_transport2 0000000140005ec0 f   pjsip-core-x86_64-x64-vc14-release:sip_transport.obj
 0001:00005250       pjsip_tpmgr_create         0000000140006250 f   pjsip-core-x86_64-x64-vc14-release:sip_transport.obj
 0001:00005400       pjsip_tpmgr_destroy        0000000140006400 f   pjsip-core-x86_64-x64-vc14-release:sip_transport.obj
 0001:00005550       pjsip_tpmgr_dump_transports 0000000140006550 f   pjsip-core-x86_64-x64-vc14-release:sip_transport.obj
 0001:00005780       pjsip_tpmgr_receive_packet 0000000140006780 f   pjsip-core-x86_64-x64-vc14-release:sip_transport.obj
 0001:00005c50       pjsip_tpselector_dec_ref   0000000140006c50 f   pjsip-core-x86_64-x64-vc14-release:sip_transport.obj
 0001:00005c70       pjsip_transport_add_ref    0000000140006c70 f   pjsip-core-x86_64-x64-vc14-release:sip_transport.obj
 0001:00005d90       pjsip_transport_add_state_listener 0000000140006d90 f   pjsip-core-x86_64-x64-vc14-release:sip_transport.obj
 0001:00005eb0       pjsip_transport_dec_ref    0000000140006eb0 f   pjsip-core-x86_64-x64-vc14-release:sip_transport.obj
 0001:00006050       pjsip_transport_destroy    0000000140007050 f   pjsip-core-x86_64-x64-vc14-release:sip_transport.obj
 0001:000060c0       pjsip_transport_get_default_port_for_type 00000001400070c0 f   pjsip-core-x86_64-x64-vc14-release:sip_transport.obj
 0001:00006100       pjsip_transport_get_flag_from_type 0000000140007100 f   pjsip-core-x86_64-x64-vc14-release:sip_transport.obj
 0001:00006140       pjsip_transport_get_type_desc 0000000140007140 f   pjsip-core-x86_64-x64-vc14-release:sip_transport.obj
 0001:00006180       pjsip_transport_get_type_from_flag 0000000140007180 f   pjsip-core-x86_64-x64-vc14-release:sip_transport.obj
 0001:000061c0       pjsip_transport_get_type_from_name 00000001400071c0 f   pjsip-core-x86_64-x64-vc14-release:sip_transport.obj
 0001:00006240       pjsip_transport_get_type_name 0000000140007240 f   pjsip-core-x86_64-x64-vc14-release:sip_transport.obj
 0001:00006280       pjsip_transport_register   0000000140007280 f   pjsip-core-x86_64-x64-vc14-release:sip_transport.obj
 0001:000063d0       pjsip_transport_remove_state_listener 00000001400073d0 f   pjsip-core-x86_64-x64-vc14-release:sip_transport.obj
 0001:000064a0       pjsip_transport_send       00000001400074a0 f   pjsip-core-x86_64-x64-vc14-release:sip_transport.obj
 0001:00006690       pjsip_tx_data_add_ref      0000000140007690 f   pjsip-core-x86_64-x64-vc14-release:sip_transport.obj
 0001:000066a0       pjsip_tx_data_create       00000001400076a0 f   pjsip-core-x86_64-x64-vc14-release:sip_transport.obj
 0001:000067e0       pjsip_tx_data_dec_ref      00000001400077e0 f   pjsip-core-x86_64-x64-vc14-release:sip_transport.obj
 0001:00006830       pjsip_tx_data_encode       0000000140007830 f   pjsip-core-x86_64-x64-vc14-release:sip_transport.obj
 0001:00006930       pjsip_tx_data_get_info     0000000140007930 f   pjsip-core-x86_64-x64-vc14-release:sip_transport.obj
 0001:000069a0       pjsip_tx_data_invalidate_msg 00000001400079a0 f   pjsip-core-x86_64-x64-vc14-release:sip_transport.obj
 0001:00006fb0       pjsip_endpt_acquire_transport2 0000000140007fb0 f   pjsip-core-x86_64-x64-vc14-release:sip_endpoint.obj
 0001:00006fc0       pjsip_endpt_atexit         0000000140007fc0 f   pjsip-core-x86_64-x64-vc14-release:sip_endpoint.obj
 0001:00007040       pjsip_endpt_cancel_timer   0000000140008040 f   pjsip-core-x86_64-x64-vc14-release:sip_endpoint.obj
 0001:00007070       pjsip_endpt_create         0000000140008070 f   pjsip-core-x86_64-x64-vc14-release:sip_endpoint.obj
 0001:00007370       pjsip_endpt_create_pool    0000000140008370 f   pjsip-core-x86_64-x64-vc14-release:sip_endpoint.obj
 0001:000073d0       pjsip_endpt_create_tdata   00000001400083d0 f   pjsip-core-x86_64-x64-vc14-release:sip_endpoint.obj
 0001:000073e0       pjsip_endpt_destroy        00000001400083e0 f   pjsip-core-x86_64-x64-vc14-release:sip_endpoint.obj
 0001:00007570       pjsip_endpt_dump           0000000140008570 f   pjsip-core-x86_64-x64-vc14-release:sip_endpoint.obj
 0001:00007660       pjsip_endpt_get_ioqueue    0000000140008660 f   pjsip-core-x86_64-x64-vc14-release:sip_endpoint.obj
 0001:00007670       pjsip_endpt_get_request_headers 0000000140008670 f   pjsip-core-x86_64-x64-vc14-release:sip_endpoint.obj
 0001:00007680       pjsip_endpt_get_timer_heap 0000000140008680 f   pjsip-core-x86_64-x64-vc14-release:sip_endpoint.obj
 0001:00007690       pjsip_endpt_get_tpmgr      0000000140008690 f   pjsip-core-x86_64-x64-vc14-release:sip_endpoint.obj
 0001:000076a0       pjsip_endpt_handle_events  00000001400086a0 f   pjsip-core-x86_64-x64-vc14-release:sip_endpoint.obj
 0001:00007780       pjsip_endpt_log_error      0000000140008780 f   pjsip-core-x86_64-x64-vc14-release:sip_endpoint.obj
 0001:000078c0       pjsip_endpt_register_module 00000001400088c0 f   pjsip-core-x86_64-x64-vc14-release:sip_endpoint.obj
 0001:00007a10       pjsip_endpt_release_pool   0000000140008a10 f   pjsip-core-x86_64-x64-vc14-release:sip_endpoint.obj
 0001:00007a30       pjsip_endpt_resolve        0000000140008a30 f   pjsip-core-x86_64-x64-vc14-release:sip_endpoint.obj
 0001:00007a40       pjsip_endpt_schedule_timer_w_grp_lock_dbg 0000000140008a40 f   pjsip-core-x86_64-x64-vc14-release:sip_endpoint.obj
 0001:00007a90       pjsip_endpt_unregister_module 0000000140008a90 f   pjsip-core-x86_64-x64-vc14-release:sip_endpoint.obj
 0001:00007e80       pjsip_endpt_create_ack     0000000140008e80 f   pjsip-core-x86_64-x64-vc14-release:sip_util.obj
 0001:000080f0       pjsip_endpt_create_request_from_hdr 00000001400090f0 f   pjsip-core-x86_64-x64-vc14-release:sip_util.obj
 0001:00008380       pjsip_endpt_create_response 0000000140009380 f   pjsip-core-x86_64-x64-vc14-release:sip_util.obj
 0001:00008640       pjsip_endpt_respond_stateless 0000000140009640 f   pjsip-core-x86_64-x64-vc14-release:sip_util.obj
 0001:000087c0       pjsip_endpt_send_request_stateless 00000001400097c0 f   pjsip-core-x86_64-x64-vc14-release:sip_util.obj
 0001:000088e0       pjsip_endpt_send_response  00000001400098e0 f   pjsip-core-x86_64-x64-vc14-release:sip_util.obj
 0001:00008a10       pjsip_event_str            0000000140009a10 f   pjsip-core-x86_64-x64-vc14-release:sip_util.obj
 0001:00008a20       pjsip_get_dest_info        0000000140009a20 f   pjsip-core-x86_64-x64-vc14-release:sip_util.obj
 0001:00008c00       pjsip_get_response_addr    0000000140009c00 f   pjsip-core-x86_64-x64-vc14-release:sip_util.obj
 0001:00008d60       pjsip_process_route_set    0000000140009d60 f   pjsip-core-x86_64-x64-vc14-release:sip_util.obj
 0001:00009a20       pjsip_endpt_create_request_fwd 000000014000aa20 f   pjsip-core-x86_64-x64-vc14-release:sip_util_proxy.obj
 0001:00009de0       pjsip_endpt_create_response_fwd 000000014000ade0 f   pjsip-core-x86_64-x64-vc14-release:sip_util_proxy.obj
 0001:0000a140       pjsip_udp_transport_restart2 000000014000b140 f   pjsip-core-x86_64-x64-vc14-release:sip_transport_udp.obj
 0001:0000a380       pjsip_udp_transport_start  000000014000b380 f   pjsip-core-x86_64-x64-vc14-release:sip_transport_udp.obj
 0001:0000a450       pjsip_udp_transport_start2 000000014000b450 f   pjsip-core-x86_64-x64-vc14-release:sip_transport_udp.obj
 0001:0000c3e0       pjsip_name_addr_assign     000000014000d3e0 f   pjsip-core-x86_64-x64-vc14-release:sip_uri.obj
 0001:0000c430       pjsip_name_addr_create     000000014000d430 f   pjsip-core-x86_64-x64-vc14-release:sip_uri.obj
 0001:0000c460       pjsip_name_addr_init       000000014000d460 f   pjsip-core-x86_64-x64-vc14-release:sip_uri.obj
 0001:0000c480       pjsip_other_uri_create     000000014000d480 f   pjsip-core-x86_64-x64-vc14-release:sip_uri.obj
 0001:0000c4b0       pjsip_param_clone          000000014000d4b0 f   pjsip-core-x86_64-x64-vc14-release:sip_uri.obj
 0001:0000c550       pjsip_param_find           000000014000d550 f   pjsip-core-x86_64-x64-vc14-release:sip_uri.obj
 0001:0000c5b0       pjsip_param_print_on       000000014000d5b0 f   pjsip-core-x86_64-x64-vc14-release:sip_uri.obj
 0001:0000c6f0       pjsip_param_shallow_clone  000000014000d6f0 f   pjsip-core-x86_64-x64-vc14-release:sip_uri.obj
 0001:0000c770       pjsip_sip_uri_create       000000014000d770 f   pjsip-core-x86_64-x64-vc14-release:sip_uri.obj
 0001:0000c7f0       deinit_sip_parser          000000014000d7f0 f   pjsip-core-x86_64-x64-vc14-release:sip_parser.obj
 0001:0000d1a0       init_sip_parser            000000014000e1a0 f   pjsip-core-x86_64-x64-vc14-release:sip_parser.obj
 0001:0000fcd0       pjsip_find_msg             0000000140010cd0 f   pjsip-core-x86_64-x64-vc14-release:sip_parser.obj
 0001:00010050       pjsip_parse_end_hdr_imp    0000000140011050 f   pjsip-core-x86_64-x64-vc14-release:sip_parser.obj
 0001:00010070       pjsip_parse_headers        0000000140011070 f   pjsip-core-x86_64-x64-vc14-release:sip_parser.obj
 0001:000102e0       pjsip_parse_param_imp      00000001400112e0 f   pjsip-core-x86_64-x64-vc14-release:sip_parser.obj
 0001:000103d0       pjsip_parse_rdata          00000001400113d0 f   pjsip-core-x86_64-x64-vc14-release:sip_parser.obj
 0001:00010450       pjsip_parser_const         0000000140011450 f   pjsip-core-x86_64-x64-vc14-release:sip_parser.obj
 0001:00010460       pjsip_register_hdr_parser  0000000140011460 f   pjsip-core-x86_64-x64-vc14-release:sip_parser.obj
 0001:00010540       pjsip_register_uri_parser  0000000140011540 f   pjsip-core-x86_64-x64-vc14-release:sip_parser.obj
 0001:000108d0       pjsip_resolve              00000001400118d0 f   pjsip-core-x86_64-x64-vc14-release:sip_resolve.obj
 0001:00010f80       pjsip_resolver_create      0000000140011f80 f   pjsip-core-x86_64-x64-vc14-release:sip_resolve.obj
 0001:00010fc0       pjsip_resolver_destroy     0000000140011fc0 f   pjsip-core-x86_64-x64-vc14-release:sip_resolve.obj
 0001:00010ff0       pjsip_resolver_get_resolver 0000000140011ff0 f   pjsip-core-x86_64-x64-vc14-release:sip_resolve.obj
 0001:00010ff0       PJ_FD_COUNT                0000000140011ff0 f   pjlib-x86_64-x64-vc14-release:sock_select.obj
 0001:000111f0       pjsip_strerror             00000001400121f0 f   pjsip-core-x86_64-x64-vc14-release:sip_errno.obj
 0001:00011770       pjsip_tel_nb_cmp           0000000140012770 f   pjsip-core-x86_64-x64-vc14-release:sip_tel_uri.obj
 0001:00011870       pjsip_tel_uri_subsys_init  0000000140012870 f   pjsip-core-x86_64-x64-vc14-release:sip_tel_uri.obj
 0001:00011d10       __scrt_exe_initialize_mta  0000000140012d10 f   MSVCRT:utility_desktop.obj
 0001:00011d10       _matherr                   0000000140012d10 f   MSVCRT:matherr.obj
 0001:00011d10       _get_startup_thread_locale_mode 0000000140012d10 f   MSVCRT:thread_locale.obj
 0001:00011d10       __scrt_stub_for_initialize_mta 0000000140012d10 f   MSVCRT:utility_desktop.obj
 0001:00011d10       _get_startup_new_mode      0000000140012d10 f   MSVCRT:new_mode.obj
 0001:00011d10       _get_startup_commit_mode   0000000140012d10 f   MSVCRT:commit_mode.obj
 0001:00011d10       __scrt_initialize_winrt    0000000140012d10 f   MSVCRT:utility_desktop.obj
 0001:00013cf0       pjsip_rdata_get_tsx        0000000140014cf0 f   pjsip-core-x86_64-x64-vc14-release:sip_transaction.obj
 0001:00013d00       pjsip_tsx_recv_msg         0000000140014d00 f   pjsip-core-x86_64-x64-vc14-release:sip_transaction.obj
 0001:00015420       pjsip_multipart_parse      0000000140016420 f   pjsip-core-x86_64-x64-vc14-release:sip_multipart.obj
 0001:00015e50       pjsip_auth_init_parser     0000000140016e50 f   pjsip-core-x86_64-x64-vc14-release:sip_auth_parser.obj
 0001:00016670       pjsip_authorization_hdr_create 0000000140017670 f   pjsip-core-x86_64-x64-vc14-release:sip_auth_msg.obj
 0001:000166f0       pjsip_proxy_authenticate_hdr_create 00000001400176f0 f   pjsip-core-x86_64-x64-vc14-release:sip_auth_msg.obj
 0001:00016770       pjsip_proxy_authorization_hdr_create 0000000140017770 f   pjsip-core-x86_64-x64-vc14-release:sip_auth_msg.obj
 0001:000167f0       pjsip_www_authenticate_hdr_create 00000001400177f0 f   pjsip-core-x86_64-x64-vc14-release:sip_auth_msg.obj
 0001:00017420       pjlib_util_init            0000000140018420 f   pjlib-util-x86_64-x64-vc14-release:errno.obj
 0001:00017440       pjlib_util_strerror        0000000140018440 f   pjlib-util-x86_64-x64-vc14-release:errno.obj
 0001:00017e40       pj_getopt_long             0000000140018e40 f   pjlib-util-x86_64-x64-vc14-release:getopt.obj
 0001:00017e60       pj_str_unescape            0000000140018e60 f   pjlib-util-x86_64-x64-vc14-release:string.obj
 0001:00017f70       pj_strncpy2_escape         0000000140018f70 f   pjlib-util-x86_64-x64-vc14-release:string.obj
 0001:00018320       pj_dns_parse_addr_response 0000000140019320 f   pjlib-util-x86_64-x64-vc14-release:resolver.obj
 0001:00018640       pj_dns_resolver_cancel_query 0000000140019640 f   pjlib-util-x86_64-x64-vc14-release:resolver.obj
 0001:000186e0       pj_dns_resolver_destroy    00000001400196e0 f   pjlib-util-x86_64-x64-vc14-release:resolver.obj
 0001:000188b0       pj_dns_resolver_dump       00000001400198b0 f   pjlib-util-x86_64-x64-vc14-release:resolver.obj
 0001:00018c30       pj_dns_resolver_start_query 0000000140019c30 f   pjlib-util-x86_64-x64-vc14-release:resolver.obj
 0001:00019dc0       pj_md5_final               000000014001adc0 f   pjlib-util-x86_64-x64-vc14-release:md5.obj
 0001:00019e80       pj_md5_init                000000014001ae80 f   pjlib-util-x86_64-x64-vc14-release:md5.obj
 0001:00019eb0       pj_md5_update              000000014001aeb0 f   pjlib-util-x86_64-x64-vc14-release:md5.obj
 0001:00019fb0       pj_cis_add_alpha           000000014001afb0 f   pjlib-util-x86_64-x64-vc14-release:scanner.obj
 0001:00019fe0       pj_cis_add_cis             000000014001afe0 f   pjlib-util-x86_64-x64-vc14-release:scanner.obj
 0001:0001a030       pj_cis_add_num             000000014001b030 f   pjlib-util-x86_64-x64-vc14-release:scanner.obj
 0001:0001a040       pj_cis_add_range           000000014001b040 f   pjlib-util-x86_64-x64-vc14-release:scanner.obj
 0001:0001a190       pj_cis_add_str             000000014001b190 f   pjlib-util-x86_64-x64-vc14-release:scanner.obj
 0001:0001a1d0       pj_cis_buf_init            000000014001b1d0 f   pjlib-util-x86_64-x64-vc14-release:scanner.obj
 0001:0001a200       pj_cis_del_str             000000014001b200 f   pjlib-util-x86_64-x64-vc14-release:scanner.obj
 0001:0001a240       pj_cis_dup                 000000014001b240 f   pjlib-util-x86_64-x64-vc14-release:scanner.obj
 0001:0001a2f0       pj_cis_init                000000014001b2f0 f   pjlib-util-x86_64-x64-vc14-release:scanner.obj
 0001:0001a330       pj_cis_invert              000000014001b330 f   pjlib-util-x86_64-x64-vc14-release:scanner.obj
 0001:0001a380       pj_scan_advance_n          000000014001b380 f   pjlib-util-x86_64-x64-vc14-release:scanner.obj
 0001:0001a3b0       pj_scan_fini               000000014001b3b0 f   pjlib-util-x86_64-x64-vc14-release:scanner.obj
 0001:0001a3d0       pj_scan_get                000000014001b3d0 f   pjlib-util-x86_64-x64-vc14-release:scanner.obj
 0001:0001a440       pj_scan_get_char           000000014001b440 f   pjlib-util-x86_64-x64-vc14-release:scanner.obj
 0001:0001a490       pj_scan_get_n              000000014001b490 f   pjlib-util-x86_64-x64-vc14-release:scanner.obj
 0001:0001a4d0       pj_scan_get_newline        000000014001b4d0 f   pjlib-util-x86_64-x64-vc14-release:scanner.obj
 0001:0001a510       pj_scan_get_quote          000000014001b510 f   pjlib-util-x86_64-x64-vc14-release:scanner.obj
 0001:0001a5e0       pj_scan_get_until_ch       000000014001b5e0 f   pjlib-util-x86_64-x64-vc14-release:scanner.obj
 0001:0001a630       pj_scan_init               000000014001b630 f   pjlib-util-x86_64-x64-vc14-release:scanner.obj
 0001:0001a6b0       pj_scan_peek               000000014001b6b0 f   pjlib-util-x86_64-x64-vc14-release:scanner.obj
 0001:0001a720       pj_scan_skip_line          000000014001b720 f   pjlib-util-x86_64-x64-vc14-release:scanner.obj
 0001:0001a760       pj_scan_skip_whitespace    000000014001b760 f   pjlib-util-x86_64-x64-vc14-release:scanner.obj
 0001:0001a840       pj_dns_get_type_name       000000014001b840 f   pjlib-util-x86_64-x64-vc14-release:dns.obj
 0001:0001a910       pj_dns_make_query          000000014001b910 f   pjlib-util-x86_64-x64-vc14-release:dns.obj
 0001:0001bc10       pj_dns_srv_resolve         000000014001cc10 f   pjlib-util-x86_64-x64-vc14-release:srv_resolver.obj
 0001:0001bee0       pj_atexit                  000000014001cee0 f   pjlib-x86_64-x64-vc14-release:os_core_win32.obj
 0001:0001bf10       pj_atomic_create           000000014001cf10 f   pjlib-x86_64-x64-vc14-release:os_core_win32.obj
 0001:0001bf50       pj_atomic_dec_and_get      000000014001cf50 f   pjlib-x86_64-x64-vc14-release:os_core_win32.obj
 0001:0001bfc0       pj_atomic_destroy          000000014001cfc0 f   pjlib-x86_64-x64-vc14-release:os_core_win32.obj
 0001:0001bfd0       pj_atomic_get              000000014001cfd0 f   pjlib-x86_64-x64-vc14-release:os_core_win32.obj
 0001:0001c040       pj_atomic_inc              000000014001d040 f   pjlib-x86_64-x64-vc14-release:os_core_win32.obj
 0001:0001c0a0       pj_atomic_inc_and_get      000000014001d0a0 f   pjlib-x86_64-x64-vc14-release:os_core_win32.obj
 0001:0001c110       pj_atomic_set              000000014001d110 f   pjlib-x86_64-x64-vc14-release:os_core_win32.obj
 0001:0001c180       pj_enter_critical_section  000000014001d180 f   pjlib-x86_64-x64-vc14-release:os_core_win32.obj
 0001:0001c1f0       pj_init                    000000014001d1f0 f   pjlib-x86_64-x64-vc14-release:os_core_win32.obj
 0001:0001c520       pj_leave_critical_section  000000014001d520 f   pjlib-x86_64-x64-vc14-release:os_core_win32.obj
 0001:0001c590       pj_mutex_create            000000014001d590 f   pjlib-x86_64-x64-vc14-release:os_core_win32.obj
 0001:0001c610       pj_mutex_create_simple     000000014001d610 f   pjlib-x86_64-x64-vc14-release:os_core_win32.obj
 0001:0001c610       pj_mutex_create_recursive  000000014001d610 f   pjlib-x86_64-x64-vc14-release:os_core_win32.obj
 0001:0001c690       pj_mutex_destroy           000000014001d690 f   pjlib-x86_64-x64-vc14-release:os_core_win32.obj
 0001:0001c710       pj_mutex_lock              000000014001d710 f   pjlib-x86_64-x64-vc14-release:os_core_win32.obj
 0001:0001c790       pj_mutex_trylock           000000014001d790 f   pjlib-x86_64-x64-vc14-release:os_core_win32.obj
 0001:0001c820       pj_mutex_unlock            000000014001d820 f   pjlib-x86_64-x64-vc14-release:os_core_win32.obj
 0001:0001c8a0       pj_rwmutex_create          000000014001d8a0 f   pjlib-x86_64-x64-vc14-release:os_core_win32.obj
 0001:0001caa0       pj_rwmutex_destroy         000000014001daa0 f   pjlib-x86_64-x64-vc14-release:os_core_win32.obj
 0001:0001cbb0       pj_rwmutex_lock_read       000000014001dbb0 f   pjlib-x86_64-x64-vc14-release:os_core_win32.obj
 0001:0001ccd0       pj_rwmutex_lock_write      000000014001dcd0 f   pjlib-x86_64-x64-vc14-release:os_core_win32.obj
 0001:0001cd70       pj_rwmutex_unlock_read     000000014001dd70 f   pjlib-x86_64-x64-vc14-release:os_core_win32.obj
 0001:0001ce90       pj_rwmutex_unlock_write    000000014001de90 f   pjlib-x86_64-x64-vc14-release:os_core_win32.obj
 0001:0001ceb0       pj_sem_destroy             000000014001deb0 f   pjlib-x86_64-x64-vc14-release:os_core_win32.obj
 0001:0001cf60       pj_sem_post                000000014001df60 f   pjlib-x86_64-x64-vc14-release:os_core_win32.obj
 0001:0001d020       pj_sem_trywait             000000014001e020 f   pjlib-x86_64-x64-vc14-release:os_core_win32.obj
 0001:0001d0a0       pj_sem_wait                000000014001e0a0 f   pjlib-x86_64-x64-vc14-release:os_core_win32.obj
 0001:0001d210       pj_shutdown                000000014001e210 f   pjlib-x86_64-x64-vc14-release:os_core_win32.obj
 0001:0001d390       pj_term_set_color          000000014001e390 f   pjlib-x86_64-x64-vc14-release:os_core_win32.obj
 0001:0001d480       pj_thread_check_stack      000000014001e480 f   pjlib-x86_64-x64-vc14-release:os_core_win32.obj
 0001:0001d4e0       pj_thread_create           000000014001e4e0 f   pjlib-x86_64-x64-vc14-release:os_core_win32.obj
 0001:0001d6a0       pj_thread_get_name         000000014001e6a0 f   pjlib-x86_64-x64-vc14-release:os_core_win32.obj
 0001:0001d710       pj_thread_join             000000014001e710 f   pjlib-x86_64-x64-vc14-release:os_core_win32.obj
 0001:0001d810       pj_thread_local_alloc      000000014001e810 f   pjlib-x86_64-x64-vc14-release:os_core_win32.obj
 0001:0001d880       pj_thread_local_free       000000014001e880 f   pjlib-x86_64-x64-vc14-release:os_core_win32.obj
 0001:0001d8e0       pj_thread_local_get        000000014001e8e0 f   pjlib-x86_64-x64-vc14-release:os_core_win32.obj
 0001:0001d8f0       pj_thread_local_set        000000014001e8f0 f   pjlib-x86_64-x64-vc14-release:os_core_win32.obj
 0001:0001d940       pj_thread_sleep            000000014001e940 f   pjlib-x86_64-x64-vc14-release:os_core_win32.obj
 0001:0001d9b0       pj_thread_this             000000014001e9b0 f   pjlib-x86_64-x64-vc14-release:os_core_win32.obj
 0001:0001da70       pj_errno_clear_handlers    000000014001ea70 f   pjlib-x86_64-x64-vc14-release:errno.obj
 0001:0001da90       pj_perror                  000000014001ea90 f   pjlib-x86_64-x64-vc14-release:errno.obj
 0001:0001dab0       pj_perror_1                000000014001eab0 f   pjlib-x86_64-x64-vc14-release:errno.obj
 0001:0001dae0       pj_perror_2                000000014001eae0 f   pjlib-x86_64-x64-vc14-release:errno.obj
 0001:0001db10       pj_perror_3                000000014001eb10 f   pjlib-x86_64-x64-vc14-release:errno.obj
 0001:0001db40       pj_perror_4                000000014001eb40 f   pjlib-x86_64-x64-vc14-release:errno.obj
 0001:0001dc60       pj_register_strerror       000000014001ec60 f   pjlib-x86_64-x64-vc14-release:errno.obj
 0001:0001dd50       pj_strerror                000000014001ed50 f   pjlib-x86_64-x64-vc14-release:errno.obj
 0001:0001dee0       pj_list_erase              000000014001eee0 f   pjlib-x86_64-x64-vc14-release:list.obj
 0001:0001df00       pj_list_find_node          000000014001ef00 f   pjlib-x86_64-x64-vc14-release:list.obj
 0001:0001df30       pj_list_insert_after       000000014001ef30 f   pjlib-x86_64-x64-vc14-release:list.obj
 0001:0001df50       pj_list_insert_before      000000014001ef50 f   pjlib-x86_64-x64-vc14-release:list.obj
 0001:0001df70       pj_list_insert_nodes_before 000000014001ef70 f   pjlib-x86_64-x64-vc14-release:list.obj
 0001:0001df90       pj_list_search             000000014001ef90 f   pjlib-x86_64-x64-vc14-release:list.obj
 0001:0001dff0       pj_list_size               000000014001eff0 f   pjlib-x86_64-x64-vc14-release:list.obj
 0001:0001e010       pj_gethostname             000000014001f010 f   pjlib-x86_64-x64-vc14-release:sock_bsd.obj
 0001:0001e0b0       pj_htonl                   000000014001f0b0 f   pjlib-x86_64-x64-vc14-release:sock_bsd.obj
 0001:0001e0c0       pj_htons                   000000014001f0c0 f   pjlib-x86_64-x64-vc14-release:sock_bsd.obj
 0001:0001e0d0       pj_inet_aton               000000014001f0d0 f   pjlib-x86_64-x64-vc14-release:sock_bsd.obj
 0001:0001e160       pj_inet_ntop               000000014001f160 f   pjlib-x86_64-x64-vc14-release:sock_bsd.obj
 0001:0001e290       pj_inet_pton               000000014001f290 f   pjlib-x86_64-x64-vc14-release:sock_bsd.obj
 0001:0001e3d0       pj_ntohl                   000000014001f3d0 f   pjlib-x86_64-x64-vc14-release:sock_bsd.obj
 0001:0001e3e0       pj_ntohs                   000000014001f3e0 f   pjlib-x86_64-x64-vc14-release:sock_bsd.obj
 0001:0001e3f0       pj_sock_accept             000000014001f3f0 f   pjlib-x86_64-x64-vc14-release:sock_bsd.obj
 0001:0001e490       pj_sock_bind               000000014001f490 f   pjlib-x86_64-x64-vc14-release:sock_bsd.obj
 0001:0001e550       pj_sock_close              000000014001f550 f   pjlib-x86_64-x64-vc14-release:sock_bsd.obj
 0001:0001e5b0       pj_sock_connect            000000014001f5b0 f   pjlib-x86_64-x64-vc14-release:sock_bsd.obj
 0001:0001e650       pj_sock_getsockname        000000014001f650 f   pjlib-x86_64-x64-vc14-release:sock_bsd.obj
 0001:0001e6f0       pj_sock_getsockopt         000000014001f6f0 f   pjlib-x86_64-x64-vc14-release:sock_bsd.obj
 0001:0001e7a0       pj_sock_recv               000000014001f7a0 f   pjlib-x86_64-x64-vc14-release:sock_bsd.obj
 0001:0001e840       pj_sock_recvfrom           000000014001f840 f   pjlib-x86_64-x64-vc14-release:sock_bsd.obj
 0001:0001e900       pj_sock_send               000000014001f900 f   pjlib-x86_64-x64-vc14-release:sock_bsd.obj
 0001:0001e9a0       pj_sock_sendto             000000014001f9a0 f   pjlib-x86_64-x64-vc14-release:sock_bsd.obj
 0001:0001ea50       pj_sock_setsockopt         000000014001fa50 f   pjlib-x86_64-x64-vc14-release:sock_bsd.obj
 0001:0001eb00       pj_sock_setsockopt_params  000000014001fb00 f   pjlib-x86_64-x64-vc14-release:sock_bsd.obj
 0001:0001ec40       pj_sock_socket             000000014001fc40 f   pjlib-x86_64-x64-vc14-release:sock_bsd.obj
 0001:0001ed50       pj_NO_MEMORY_EXCEPTION     000000014001fd50 f   pjlib-x86_64-x64-vc14-release:pool.obj
 0001:0001ed60       pj_pool_alloc              000000014001fd60 f   pjlib-x86_64-x64-vc14-release:pool.obj
 0001:0001ef20       pj_pool_calloc             000000014001ff20 f   pjlib-x86_64-x64-vc14-release:pool.obj
 0001:0001ef60       pj_pool_create             000000014001ff60 f   pjlib-x86_64-x64-vc14-release:pool.obj
 0001:0001ef70       pj_pool_create_int         000000014001ff70 f   pjlib-x86_64-x64-vc14-release:pool.obj
 0001:0001f0d0       pj_pool_destroy_int        00000001400200d0 f   pjlib-x86_64-x64-vc14-release:pool.obj
 0001:0001f110       pj_pool_get_capacity       0000000140020110 f   pjlib-x86_64-x64-vc14-release:pool.obj
 0001:0001f120       pj_pool_get_used_size      0000000140020120 f   pjlib-x86_64-x64-vc14-release:pool.obj
 0001:0001f160       pj_pool_getobjname         0000000140020160 f   pjlib-x86_64-x64-vc14-release:pool.obj
 0001:0001f170       pj_pool_init_int           0000000140020170 f   pjlib-x86_64-x64-vc14-release:pool.obj
 0001:0001f210       pj_pool_release            0000000140020210 f   pjlib-x86_64-x64-vc14-release:pool.obj
 0001:0001f230       pj_pool_reset              0000000140020230 f   pjlib-x86_64-x64-vc14-release:pool.obj
 0001:0001f740       pj_caching_pool_destroy    0000000140020740 f   pjlib-x86_64-x64-vc14-release:pool_caching.obj
 0001:0001f850       pj_caching_pool_init       0000000140020850 f   pjlib-x86_64-x64-vc14-release:pool_caching.obj
 0001:0001fa10       pj_str                     0000000140020a10 f   pjlib-x86_64-x64-vc14-release:string.obj
 0001:0001fa40       pj_strcat                  0000000140020a40 f   pjlib-x86_64-x64-vc14-release:string.obj
 0001:0001fa80       pj_strcat2                 0000000140020a80 f   pjlib-x86_64-x64-vc14-release:string.obj
 0001:0001fad0       pj_strcmp                  0000000140020ad0 f   pjlib-x86_64-x64-vc14-release:string.obj
 0001:0001fb50       pj_strcpy                  0000000140020b50 f   pjlib-x86_64-x64-vc14-release:string.obj
 0001:0001fb80       pj_strcpy2                 0000000140020b80 f   pjlib-x86_64-x64-vc14-release:string.obj
 0001:0001fbd0       pj_strdup                  0000000140020bd0 f   pjlib-x86_64-x64-vc14-release:string.obj
 0001:0001fc20       pj_strdup2                 0000000140020c20 f   pjlib-x86_64-x64-vc14-release:string.obj
 0001:0001fc90       pj_strdup_with_null        0000000140020c90 f   pjlib-x86_64-x64-vc14-release:string.obj
 0001:0001fcf0       pj_stricmp                 0000000140020cf0 f   pjlib-x86_64-x64-vc14-release:string.obj
 0001:0001fd80       pj_stricmp2                0000000140020d80 f   pjlib-x86_64-x64-vc14-release:string.obj
 0001:0001fe30       pj_strncpy                 0000000140020e30 f   pjlib-x86_64-x64-vc14-release:string.obj
 0001:0001fe80       pj_strncpy_with_null       0000000140020e80 f   pjlib-x86_64-x64-vc14-release:string.obj
 0001:0001fed0       pj_strnicmp                0000000140020ed0 f   pjlib-x86_64-x64-vc14-release:string.obj
 0001:0001ff20       pj_strstr                  0000000140020f20 f   pjlib-x86_64-x64-vc14-release:string.obj
 0001:0001ffb0       pj_strtol2                 0000000140020fb0 f   pjlib-x86_64-x64-vc14-release:string.obj
 0001:00020180       pj_strtoul                 0000000140021180 f   pjlib-x86_64-x64-vc14-release:string.obj
 0001:00020220       pj_strtrim                 0000000140021220 f   pjlib-x86_64-x64-vc14-release:string.obj
 0001:000202c0       pj_utoa                    00000001400212c0 f   pjlib-x86_64-x64-vc14-release:string.obj
 0001:00020360       pj_utoa_pad                0000000140021360 f   pjlib-x86_64-x64-vc14-release:string.obj
 0001:00020430       pj_addr_str_print          0000000140021430 f   pjlib-x86_64-x64-vc14-release:sock_common.obj
 0001:00020510       pj_gethostip               0000000140021510 f   pjlib-x86_64-x64-vc14-release:sock_common.obj
 0001:00020df0       pj_getipinterface          0000000140021df0 f   pjlib-x86_64-x64-vc14-release:sock_common.obj
 0001:00021010       pj_sockaddr_cmp            0000000140022010 f   pjlib-x86_64-x64-vc14-release:sock_common.obj
 0001:00021130       pj_sockaddr_cp             0000000140022130 f   pjlib-x86_64-x64-vc14-release:sock_common.obj
 0001:00021170       pj_sockaddr_get_addr       0000000140022170 f   pjlib-x86_64-x64-vc14-release:sock_common.obj
 0001:000211a0       pj_sockaddr_get_len        00000001400221a0 f   pjlib-x86_64-x64-vc14-release:sock_common.obj
 0001:000211d0       pj_sockaddr_get_port       00000001400221d0 f   pjlib-x86_64-x64-vc14-release:sock_common.obj
 0001:00021200       pj_sockaddr_in_init        0000000140022200 f   pjlib-x86_64-x64-vc14-release:sock_common.obj
 0001:00021270       pj_sockaddr_in_set_str_addr 0000000140022270 f   pjlib-x86_64-x64-vc14-release:sock_common.obj
 0001:00021350       pj_sockaddr_init           0000000140022350 f   pjlib-x86_64-x64-vc14-release:sock_common.obj
 0001:000214d0       pj_sockaddr_print          00000001400224d0 f   pjlib-x86_64-x64-vc14-release:sock_common.obj
 0001:00021630       pj_sockaddr_set_port       0000000140022630 f   pjlib-x86_64-x64-vc14-release:sock_common.obj
 0001:000216c0       pj_log                     00000001400226c0 f   pjlib-x86_64-x64-vc14-release:log.obj
 0001:00021d00       pj_log_1                   0000000140022d00 f   pjlib-x86_64-x64-vc14-release:log.obj
 0001:00021d30       pj_log_2                   0000000140022d30 f   pjlib-x86_64-x64-vc14-release:log.obj
 0001:00021d60       pj_log_3                   0000000140022d60 f   pjlib-x86_64-x64-vc14-release:log.obj
 0001:00021d90       pj_log_4                   0000000140022d90 f   pjlib-x86_64-x64-vc14-release:log.obj
 0001:00021dc0       pj_log_5                   0000000140022dc0 f   pjlib-x86_64-x64-vc14-release:log.obj
 0001:00021df0       pj_log_get_color           0000000140022df0 f   pjlib-x86_64-x64-vc14-release:log.obj
 0001:00021e60       pj_log_get_decor           0000000140022e60 f   pjlib-x86_64-x64-vc14-release:log.obj
 0001:00021e70       pj_log_get_level           0000000140022e70 f   pjlib-x86_64-x64-vc14-release:log.obj
 0001:00021e80       pj_log_init                0000000140022e80 f   pjlib-x86_64-x64-vc14-release:log.obj
 0001:00021ef0       pj_log_pop_indent          0000000140022ef0 f   pjlib-x86_64-x64-vc14-release:log.obj
 0001:00021f20       pj_log_push_indent         0000000140022f20 f   pjlib-x86_64-x64-vc14-release:log.obj
 0001:00021f50       pj_log_set_level           0000000140022f50 f   pjlib-x86_64-x64-vc14-release:log.obj
 0001:000224d0       pj_enum_ip_interface       00000001400234d0 f   pjlib-x86_64-x64-vc14-release:ip_helper_win32.obj
 0001:00022780       ioqueue_dispatch_exception_event 0000000140023780 f   pjlib-x86_64-x64-vc14-release:ioqueue_select.obj
 0001:000228e0       ioqueue_dispatch_read_event 00000001400238e0 f   pjlib-x86_64-x64-vc14-release:ioqueue_select.obj
 0001:00022b50       ioqueue_dispatch_write_event 0000000140023b50 f   pjlib-x86_64-x64-vc14-release:ioqueue_select.obj
 0001:00022e50       pj_ioqueue_create          0000000140023e50 f   pjlib-x86_64-x64-vc14-release:ioqueue_select.obj
 0001:00023030       pj_ioqueue_destroy         0000000140024030 f   pjlib-x86_64-x64-vc14-release:ioqueue_select.obj
 0001:00023110       pj_ioqueue_get_user_data   0000000140024110 f   pjlib-x86_64-x64-vc14-release:ioqueue_select.obj
 0001:00023120       pj_ioqueue_is_pending      0000000140024120 f   pjlib-x86_64-x64-vc14-release:ioqueue_select.obj
 0001:00023130       pj_ioqueue_op_key_init     0000000140024130 f   pjlib-x86_64-x64-vc14-release:ioqueue_select.obj
 0001:00023140       pj_ioqueue_poll            0000000140024140 f   pjlib-x86_64-x64-vc14-release:ioqueue_select.obj
 0001:00023660       pj_ioqueue_recvfrom        0000000140024660 f   pjlib-x86_64-x64-vc14-release:ioqueue_select.obj
 0001:00023820       pj_ioqueue_register_sock2  0000000140024820 f   pjlib-x86_64-x64-vc14-release:ioqueue_select.obj
 0001:00023a10       pj_ioqueue_sendto          0000000140024a10 f   pjlib-x86_64-x64-vc14-release:ioqueue_select.obj
 0001:00023c20       pj_ioqueue_unregister      0000000140024c20 f   pjlib-x86_64-x64-vc14-release:ioqueue_select.obj
 0001:000240a0       pj_grp_lock_acquire        00000001400250a0 f   pjlib-x86_64-x64-vc14-release:lock.obj
 0001:000240b0       pj_grp_lock_add_handler    00000001400250b0 f   pjlib-x86_64-x64-vc14-release:lock.obj
 0001:00024130       pj_grp_lock_add_ref        0000000140025130 f   pjlib-x86_64-x64-vc14-release:lock.obj
 0001:00024150       pj_grp_lock_create         0000000140025150 f   pjlib-x86_64-x64-vc14-release:lock.obj
 0001:00024320       pj_grp_lock_dec_ref        0000000140025320 f   pjlib-x86_64-x64-vc14-release:lock.obj
 0001:00024360       pj_grp_lock_release        0000000140025360 f   pjlib-x86_64-x64-vc14-release:lock.obj
 0001:00024370       pj_grp_lock_tryacquire     0000000140025370 f   pjlib-x86_64-x64-vc14-release:lock.obj
 0001:00024380       pj_lock_acquire            0000000140025380 f   pjlib-x86_64-x64-vc14-release:lock.obj
 0001:000243a0       pj_lock_create_null_mutex  00000001400253a0 f   pjlib-x86_64-x64-vc14-release:lock.obj
 0001:000243c0       pj_lock_create_recursive_mutex 00000001400253c0 f   pjlib-x86_64-x64-vc14-release:lock.obj
 0001:00024480       pj_lock_create_simple_mutex 0000000140025480 f   pjlib-x86_64-x64-vc14-release:lock.obj
 0001:00024540       pj_lock_destroy            0000000140025540 f   pjlib-x86_64-x64-vc14-release:lock.obj
 0001:00024560       pj_lock_release            0000000140025560 f   pjlib-x86_64-x64-vc14-release:lock.obj
 0001:00024580       pj_lock_tryacquire         0000000140025580 f   pjlib-x86_64-x64-vc14-release:lock.obj
 0001:00024780       pj_timer_entry_running     0000000140025780 f   pjlib-x86_64-x64-vc14-release:timer.obj
 0001:00024790       pj_timer_heap_cancel       0000000140025790 f   pjlib-x86_64-x64-vc14-release:timer.obj
 0001:00024870       pj_timer_heap_cancel_if_active 0000000140025870 f   pjlib-x86_64-x64-vc14-release:timer.obj
 0001:00024970       pj_timer_heap_count        0000000140025970 f   pjlib-x86_64-x64-vc14-release:timer.obj
 0001:00024980       pj_timer_heap_create       0000000140025980 f   pjlib-x86_64-x64-vc14-release:timer.obj
 0001:00024aa0       pj_timer_heap_destroy      0000000140025aa0 f   pjlib-x86_64-x64-vc14-release:timer.obj
 0001:00024ad0       pj_timer_heap_dump         0000000140025ad0 f   pjlib-x86_64-x64-vc14-release:timer.obj
 0001:00024c80       pj_timer_heap_poll         0000000140025c80 f   pjlib-x86_64-x64-vc14-release:timer.obj
 0001:00024ec0       pj_timer_heap_schedule_w_grp_lock_dbg 0000000140025ec0 f   pjlib-x86_64-x64-vc14-release:timer.obj
 0001:00025040       pj_timer_heap_set_lock     0000000140026040 f   pjlib-x86_64-x64-vc14-release:timer.obj
 0001:00025090       pj_timer_heap_set_max_timed_out_per_poll 0000000140026090 f   pjlib-x86_64-x64-vc14-release:timer.obj
 0001:000253e0       pj_exception_id_alloc      00000001400263e0 f   pjlib-x86_64-x64-vc14-release:except.obj
 0001:00025450       pj_exception_id_free       0000000140026450 f   pjlib-x86_64-x64-vc14-release:except.obj
 0001:00025490       pj_exception_id_name       0000000140026490 f   pjlib-x86_64-x64-vc14-release:except.obj
 0001:000254e0       pj_pop_exception_handler_  00000001400264e0 f   pjlib-x86_64-x64-vc14-release:except.obj
 0001:00025520       pj_push_exception_handler_ 0000000140026520 f   pjlib-x86_64-x64-vc14-release:except.obj
 0001:00025580       pj_throw_exception_        0000000140026580 f   pjlib-x86_64-x64-vc14-release:except.obj
 0001:000255e0       pj_get_timestamp           00000001400265e0 f   pjlib-x86_64-x64-vc14-release:os_timestamp_win32.obj
 0001:00025640       pj_get_timestamp_freq      0000000140026640 f   pjlib-x86_64-x64-vc14-release:os_timestamp_win32.obj
 0001:000256a0       pj_hash_calc               00000001400266a0 f   pjlib-x86_64-x64-vc14-release:hash.obj
 0001:00025740       pj_hash_calc_tolower       0000000140026740 f   pjlib-x86_64-x64-vc14-release:hash.obj
 0001:000257c0       pj_hash_count              00000001400267c0 f   pjlib-x86_64-x64-vc14-release:hash.obj
 0001:000257d0       pj_hash_create             00000001400267d0 f   pjlib-x86_64-x64-vc14-release:hash.obj
 0001:00025840       pj_hash_first              0000000140026840 f   pjlib-x86_64-x64-vc14-release:hash.obj
 0001:00025880       pj_hash_get                0000000140026880 f   pjlib-x86_64-x64-vc14-release:hash.obj
 0001:00025990       pj_hash_get_lower          0000000140026990 f   pjlib-x86_64-x64-vc14-release:hash.obj
 0001:00025ac0       pj_hash_next               0000000140026ac0 f   pjlib-x86_64-x64-vc14-release:hash.obj
 0001:00025b20       pj_hash_set                0000000140026b20 f   pjlib-x86_64-x64-vc14-release:hash.obj
 0001:00025cc0       pj_hash_set_lower          0000000140026cc0 f   pjlib-x86_64-x64-vc14-release:hash.obj
 0001:00025e60       pj_hash_set_np             0000000140026e60 f   pjlib-x86_64-x64-vc14-release:hash.obj
 0001:00025fc0       pj_hash_this               0000000140026fc0 f   pjlib-x86_64-x64-vc14-release:hash.obj
 0001:00025ff0       pj_get_netos_error         0000000140026ff0 f   pjlib-x86_64-x64-vc14-release:os_error_win32.obj
 0001:00026020       platform_strerror          0000000140027020 f   pjlib-x86_64-x64-vc14-release:os_error_win32.obj
 0001:00026370       pj_GUID_STRING_LENGTH      0000000140027370 f   pjlib-x86_64-x64-vc14-release:guid_win32.obj
 0001:00026380       pj_generate_unique_string  0000000140027380 f   pjlib-x86_64-x64-vc14-release:guid_win32.obj
 0001:000263e0       pj_create_unique_string    00000001400273e0 f   pjlib-x86_64-x64-vc14-release:guid.obj
 0001:00026410       pj_rand                    0000000140027410 f   pjlib-x86_64-x64-vc14-release:rand.obj
 0001:00026450       pj_qos_get_params          0000000140027450 f   pjlib-x86_64-x64-vc14-release:sock_qos_common.obj
 0001:00026480       pj_sock_apply_qos2         0000000140027480 f   pjlib-x86_64-x64-vc14-release:sock_qos_common.obj
 0001:00026580       pj_gettimeofday            0000000140027580 f   pjlib-x86_64-x64-vc14-release:os_time_win32.obj
 0001:00026690       pj_time_decode             0000000140027690 f   pjlib-x86_64-x64-vc14-release:os_time_win32.obj
 0001:00026740       pj_getaddrinfo             0000000140027740 f   pjlib-x86_64-x64-vc14-release:addr_resolv_sock.obj
 0001:00026920       pj_time_val_normalize      0000000140027920 f   pjlib-x86_64-x64-vc14-release:types.obj
 0001:000269d0       pj_pool_create_on_buf      00000001400279d0 f   pjlib-x86_64-x64-vc14-release:pool_buf.obj
 0001:00026b40       pj_log_write               0000000140027b40 f   pjlib-x86_64-x64-vc14-release:log_writer_stdout.obj
 0001:00026bc0       pj_gettickcount            0000000140027bc0 f   pjlib-x86_64-x64-vc14-release:os_timestamp_common.obj
 0001:00026c80       PJ_FD_CLR                  0000000140027c80 f   pjlib-x86_64-x64-vc14-release:sock_select.obj
 0001:00026d40       PJ_FD_ISSET                0000000140027d40 f   pjlib-x86_64-x64-vc14-release:sock_select.obj
 0001:00026d80       PJ_FD_SET                  0000000140027d80 f   pjlib-x86_64-x64-vc14-release:sock_select.obj
 0001:00026e10       PJ_FD_ZERO                 0000000140027e10 f   pjlib-x86_64-x64-vc14-release:sock_select.obj
 0001:00026e40       pj_sock_select             0000000140027e40 f   pjlib-x86_64-x64-vc14-release:sock_select.obj
 0001:00026ee0       pj_sock_set_qos_params     0000000140027ee0 f   pjlib-x86_64-x64-vc14-release:sock_qos_bsd.obj
 0001:00027010       pj_sock_set_qos_type       0000000140028010 f   pjlib-x86_64-x64-vc14-release:sock_qos_bsd.obj
 0001:0002716a       __WSAFDIsSet               000000014002816a f   ws2_32:WS2_32.dll
 0001:00027170       __GSHandlerCheck           0000000140028170 f   MSVCRT:gshandler.obj
 0001:00027190       __GSHandlerCheckCommon     0000000140028190 f   MSVCRT:gshandler.obj
 0001:00027200       __security_check_cookie    0000000140028200 f   MSVCRT:amdsecgs.obj
 0001:00027480       mainCRTStartup             0000000140028480 f   MSVCRT:exe_main.obj
 0001:00027494       __raise_securityfailure    0000000140028494 f   MSVCRT:gs_report.obj
 0001:000274c8       __report_gsfailure         00000001400284c8 f   MSVCRT:gs_report.obj
 0001:0002759c       __report_rangecheckfailure 000000014002859c f   MSVCRT:gs_report.obj
 0001:000275b0       __report_securityfailure   00000001400285b0 f   MSVCRT:gs_report.obj
 0001:00027730       __isa_available_init       0000000140028730 f   MSVCRT:cpu_disp.obj
 0001:000278f0       __chkstk                   00000001400288f0 f   MSVCRT:chkstk.obj
 0001:000278f0       _alloca_probe              00000001400288f0 f   MSVCRT:chkstk.obj
 0001:00027940       __scrt_acquire_startup_lock 0000000140028940 f   MSVCRT:utility.obj
 0001:0002797c       __scrt_initialize_crt      000000014002897c f   MSVCRT:utility.obj
 0001:000279c8       __scrt_initialize_onexit_tables 00000001400289c8 f   MSVCRT:utility.obj
 0001:00027a54       __scrt_is_nonwritable_in_current_image 0000000140028a54 f   MSVCRT:utility.obj
 0001:00027aec       __scrt_release_startup_lock 0000000140028aec f   MSVCRT:utility.obj
 0001:00027b10       __scrt_uninitialize_crt    0000000140028b10 f   MSVCRT:utility.obj
 0001:00027b3c       _onexit                    0000000140028b3c f   MSVCRT:utility.obj
 0001:00027b78       atexit                     0000000140028b78 f   MSVCRT:utility.obj
 0001:00027b90       __security_init_cookie     0000000140028b90 f   MSVCRT:gs_support.obj
 0001:00027c3c       _get_startup_argv_mode     0000000140028c3c f   MSVCRT:argv_mode.obj
 0001:00027c44       _get_startup_file_mode     0000000140028c44 f   MSVCRT:file_mode.obj
 0001:00027c4c       ?__scrt_initialize_type_info@@YAXXZ 0000000140028c4c f   MSVCRT:tncleanup.obj
 0001:00027c5c       __scrt_stub_for_acrt_uninitialize 0000000140028c5c f   MSVCRT:ucrt_stubs.obj
 0001:00027c5c       _should_initialize_environment 0000000140028c5c f   MSVCRT:env_mode.obj
 0001:00027c5c       __vcrt_uninitialize        0000000140028c5c f   MSVCRT:ucrt_stubs.obj
 0001:00027c5c       __acrt_initialize          0000000140028c5c f   MSVCRT:ucrt_stubs.obj
 0001:00027c5c       __acrt_uninitialize        0000000140028c5c f   MSVCRT:ucrt_stubs.obj
 0001:00027c5c       __scrt_stub_for_acrt_initialize 0000000140028c5c f   MSVCRT:ucrt_stubs.obj
 0001:00027c5c       __vcrt_initialize          0000000140028c5c f   MSVCRT:ucrt_stubs.obj
 0001:00027c60       _guard_check_icall_nop     0000000140028c60 f   MSVCRT:guard_support.obj
 0001:00027c60       _initialize_denormal_control 0000000140028c60 f   MSVCRT:denormal_control.obj
 0001:00027c60       _initialize_invalid_parameter_handler 0000000140028c60 f   MSVCRT:invalid_parameter_handler.obj
 0001:00027c64       __local_stdio_scanf_options 0000000140028c64 f i MSVCRT:default_local_stdio_options.obj
 0001:00027c6c       __scrt_initialize_default_local_stdio_options 0000000140028c6c f   MSVCRT:default_local_stdio_options.obj
 0001:00027c88       __scrt_is_user_matherr_present 0000000140028c88 f   MSVCRT:matherr_detection.obj
 0001:00027c94       __scrt_get_dyn_tls_init_callback 0000000140028c94 f   MSVCRT:dyn_tls_init.obj
 0001:00027c9c       __scrt_get_dyn_tls_dtor_callback 0000000140028c9c f   MSVCRT:dyn_tls_dtor.obj
 0001:00027ca4       __crt_debugger_hook        0000000140028ca4 f   MSVCRT:utility_desktop.obj
 0001:00027cac       __scrt_fastfail            0000000140028cac f   MSVCRT:utility_desktop.obj
 0001:00027df8       __scrt_initialize_mta      0000000140028df8 f   MSVCRT:utility_desktop.obj
 0001:00027e00       __scrt_is_managed_app      0000000140028e00 f   MSVCRT:utility_desktop.obj
 0001:00027e54       __scrt_set_unhandled_exception_filter 0000000140028e54 f   MSVCRT:utility_desktop.obj
 0001:00027e64       __scrt_unhandled_exception_filter 0000000140028e64 f   MSVCRT:utility_desktop.obj
 0001:00027ec0       _RTC_Initialize            0000000140028ec0 f   MSVCRT:initsect.obj
 0001:00027efc       _RTC_Terminate             0000000140028efc f   MSVCRT:initsect.obj
 0001:00027f38       __scrt_is_ucrt_dll_in_use  0000000140028f38 f   MSVCRT:ucrt_detection.obj
 0001:00027f50       memset                     0000000140028f50 f   vcruntime:VCRUNTIME140.dll
 0001:00027f56       memchr                     0000000140028f56 f   vcruntime:VCRUNTIME140.dll
 0001:00027f5c       memcmp                     0000000140028f5c f   vcruntime:VCRUNTIME140.dll
 0001:00027f62       memcpy                     0000000140028f62 f   vcruntime:VCRUNTIME140.dll
 0001:00027f68       memmove                    0000000140028f68 f   vcruntime:VCRUNTIME140.dll
 0001:00027f6e       strchr                     0000000140028f6e f   vcruntime:VCRUNTIME140.dll
 0001:00027f74       longjmp                    0000000140028f74 f   vcruntime:VCRUNTIME140.dll
 0001:00027f7a       __C_specific_handler       0000000140028f7a f   vcruntime:VCRUNTIME140.dll
 0001:00027f80       _setjmp                    0000000140028f80 f   vcruntime:VCRUNTIME140.dll
 0001:00027f80       __intrinsic_setjmp         0000000140028f80 f   vcruntime:VCRUNTIME140.dll
 0001:00027f86       __current_exception        0000000140028f86 f   vcruntime:VCRUNTIME140.dll
 0001:00027f8c       __current_exception_context 0000000140028f8c f   vcruntime:VCRUNTIME140.dll
 0001:00027f92       fmod                       0000000140028f92 f   ucrt:api-ms-win-crt-math-l1-1-0.dll
 0001:00027f98       _seh_filter_exe            0000000140028f98 f   ucrt:api-ms-win-crt-runtime-l1-1-0.dll
 0001:00027f9e       _set_app_type              0000000140028f9e f   ucrt:api-ms-win-crt-runtime-l1-1-0.dll
 0001:00027fa4       __setusermatherr           0000000140028fa4 f   ucrt:api-ms-win-crt-math-l1-1-0.dll
 0001:00027faa       _configure_narrow_argv     0000000140028faa f   ucrt:api-ms-win-crt-runtime-l1-1-0.dll
 0001:00027fb0       _initialize_narrow_environment 0000000140028fb0 f   ucrt:api-ms-win-crt-runtime-l1-1-0.dll
 0001:00027fb6       _get_initial_narrow_environment 0000000140028fb6 f   ucrt:api-ms-win-crt-runtime-l1-1-0.dll
 0001:00027fbc       _initterm                  0000000140028fbc f   ucrt:api-ms-win-crt-runtime-l1-1-0.dll
 0001:00027fc2       _initterm_e                0000000140028fc2 f   ucrt:api-ms-win-crt-runtime-l1-1-0.dll
 0001:00027fc8       exit                       0000000140028fc8 f   ucrt:api-ms-win-crt-runtime-l1-1-0.dll
 0001:00027fce       _exit                      0000000140028fce f   ucrt:api-ms-win-crt-runtime-l1-1-0.dll
 0001:00027fd4       _set_fmode                 0000000140028fd4 f   ucrt:api-ms-win-crt-stdio-l1-1-0.dll
 0001:00027fda       __p___argc                 0000000140028fda f   ucrt:api-ms-win-crt-runtime-l1-1-0.dll
 0001:00027fe0       __p___argv                 0000000140028fe0 f   ucrt:api-ms-win-crt-runtime-l1-1-0.dll
 0001:00027fe6       _cexit                     0000000140028fe6 f   ucrt:api-ms-win-crt-runtime-l1-1-0.dll
 0001:00027fec       _c_exit                    0000000140028fec f   ucrt:api-ms-win-crt-runtime-l1-1-0.dll
 0001:00027ff2       _register_thread_local_exe_atexit_callback 0000000140028ff2 f   ucrt:api-ms-win-crt-runtime-l1-1-0.dll
 0001:00027ff8       _configthreadlocale        0000000140028ff8 f   ucrt:api-ms-win-crt-locale-l1-1-0.dll
 0001:00027ffe       _set_new_mode              0000000140028ffe f   ucrt:api-ms-win-crt-heap-l1-1-0.dll
 0001:00028004       __p__commode               0000000140029004 f   ucrt:api-ms-win-crt-stdio-l1-1-0.dll
 0001:0002800a       _initialize_onexit_table   000000014002900a f   ucrt:api-ms-win-crt-runtime-l1-1-0.dll
 0001:00028010       _register_onexit_function  0000000140029010 f   ucrt:api-ms-win-crt-runtime-l1-1-0.dll
 0001:00028016       _crt_atexit                0000000140029016 f   ucrt:api-ms-win-crt-runtime-l1-1-0.dll
 0001:0002801c       terminate                  000000014002901c f   ucrt:api-ms-win-crt-runtime-l1-1-0.dll
 0001:00028040       _guard_dispatch_icall_nop  0000000140029040 f   MSVCRT:guard_dispatch.obj
 0001:00028060       _guard_xfg_dispatch_icall_nop 0000000140029060 f   MSVCRT:guard_xfg_dispatch.obj
 0002:00000000       __imp_RtlVirtualUnwind     000000014002a000     kernel32:KERNEL32.dll
 0002:00000008       __imp_GetModuleHandleW     000000014002a008     kernel32:KERNEL32.dll
 0002:00000010       __imp_IsDebuggerPresent    000000014002a010     kernel32:KERNEL32.dll
 0002:00000018       __imp_InitializeSListHead  000000014002a018     kernel32:KERNEL32.dll
 0002:00000020       __imp_GetSystemTimeAsFileTime 000000014002a020     kernel32:KERNEL32.dll
 0002:00000028       __imp_IsProcessorFeaturePresent 000000014002a028     kernel32:KERNEL32.dll
 0002:00000030       __imp_TerminateProcess     000000014002a030     kernel32:KERNEL32.dll
 0002:00000038       __imp_GetCurrentProcess    000000014002a038     kernel32:KERNEL32.dll
 0002:00000040       __imp_SetUnhandledExceptionFilter 000000014002a040     kernel32:KERNEL32.dll
 0002:00000048       __imp_UnhandledExceptionFilter 000000014002a048     kernel32:KERNEL32.dll
 0002:00000050       __imp_RtlLookupFunctionEntry 000000014002a050     kernel32:KERNEL32.dll
 0002:00000058       __imp_RtlCaptureContext    000000014002a058     kernel32:KERNEL32.dll
 0002:00000060       __imp_SystemTimeToFileTime 000000014002a060     kernel32:KERNEL32.dll
 0002:00000068       __imp_FileTimeToSystemTime 000000014002a068     kernel32:KERNEL32.dll
 0002:00000070       __imp_GetLocalTime         000000014002a070     kernel32:KERNEL32.dll
 0002:00000078       __imp_FormatMessageA       000000014002a078     kernel32:KERNEL32.dll
 0002:00000080       __imp_QueryPerformanceFrequency 000000014002a080     kernel32:KERNEL32.dll
 0002:00000088       __imp_QueryPerformanceCounter 000000014002a088     kernel32:KERNEL32.dll
 0002:00000090       __imp_LoadLibraryA         000000014002a090     kernel32:KERNEL32.dll
 0002:00000098       __imp_GetProcAddress       000000014002a098     kernel32:KERNEL32.dll
 0002:000000a0       __imp_FreeLibrary          000000014002a0a0     kernel32:KERNEL32.dll
 0002:000000a8       __imp_SetConsoleTextAttribute 000000014002a0a8     kernel32:KERNEL32.dll
 0002:000000b0       __imp_CreateSemaphoreA     000000014002a0b0     kernel32:KERNEL32.dll
 0002:000000b8       __imp_TlsFree              000000014002a0b8     kernel32:KERNEL32.dll
 0002:000000c0       __imp_TlsSetValue          000000014002a0c0     kernel32:KERNEL32.dll
 0002:000000c8       __imp_TlsGetValue          000000014002a0c8     kernel32:KERNEL32.dll
 0002:000000d0       __imp_TlsAlloc             000000014002a0d0     kernel32:KERNEL32.dll
 0002:000000d8       __imp_GetCurrentThreadId   000000014002a0d8     kernel32:KERNEL32.dll
 0002:000000e0       __imp_GetCurrentThread     000000014002a0e0     kernel32:KERNEL32.dll
 0002:000000e8       __imp_GetStdHandle         000000014002a0e8     kernel32:KERNEL32.dll
 0002:000000f0       __imp_CloseHandle          000000014002a0f0     kernel32:KERNEL32.dll
 0002:000000f8       __imp_GetLastError         000000014002a0f8     kernel32:KERNEL32.dll
 0002:00000100       __imp_InitializeCriticalSection 000000014002a100     kernel32:KERNEL32.dll
 0002:00000108       __imp_EnterCriticalSection 000000014002a108     kernel32:KERNEL32.dll
 0002:00000110       __imp_LeaveCriticalSection 000000014002a110     kernel32:KERNEL32.dll
 0002:00000118       __imp_TryEnterCriticalSection 000000014002a118     kernel32:KERNEL32.dll
 0002:00000120       __imp_DeleteCriticalSection 000000014002a120     kernel32:KERNEL32.dll
 0002:00000128       __imp_ReleaseSemaphore     000000014002a128     kernel32:KERNEL32.dll
 0002:00000130       __imp_WaitForSingleObject  000000014002a130     kernel32:KERNEL32.dll
 0002:00000138       __imp_Sleep                000000014002a138     kernel32:KERNEL32.dll
 0002:00000140       __imp_GetCurrentProcessId  000000014002a140     kernel32:KERNEL32.dll
 0002:00000148       __imp_CreateThread         000000014002a148     kernel32:KERNEL32.dll
 0002:00000150       \177KERNEL32_NULL_THUNK_DATA 000000014002a150     kernel32:KERNEL32.dll
 0002:00000158       __imp___C_specific_handler 000000014002a158     vcruntime:VCRUNTIME140.dll
 0002:00000160       __imp_longjmp              000000014002a160     vcruntime:VCRUNTIME140.dll
 0002:00000168       __imp_strchr               000000014002a168     vcruntime:VCRUNTIME140.dll
 0002:00000170       __imp_memmove              000000014002a170     vcruntime:VCRUNTIME140.dll
 0002:00000178       __imp_memcpy               000000014002a178     vcruntime:VCRUNTIME140.dll
 0002:00000180       __imp_memcmp               000000014002a180     vcruntime:VCRUNTIME140.dll
 0002:00000188       __imp_memchr               000000014002a188     vcruntime:VCRUNTIME140.dll
 0002:00000190       __imp_memset               000000014002a190     vcruntime:VCRUNTIME140.dll
 0002:00000198       __imp___current_exception  000000014002a198     vcruntime:VCRUNTIME140.dll
 0002:000001a0       __imp___current_exception_context 000000014002a1a0     vcruntime:VCRUNTIME140.dll
 0002:000001a8       __imp___intrinsic_setjmp   000000014002a1a8     vcruntime:VCRUNTIME140.dll
 0002:000001b0       \177VCRUNTIME140_NULL_THUNK_DATA 000000014002a1b0     vcruntime:VCRUNTIME140.dll
 0002:000001b8       __imp_send                 000000014002a1b8     ws2_32:WS2_32.dll
 0002:000001c0       __imp_recvfrom             000000014002a1c0     ws2_32:WS2_32.dll
 0002:000001c8       __imp_recv                 000000014002a1c8     ws2_32:WS2_32.dll
 0002:000001d0       __imp_ntohs                000000014002a1d0     ws2_32:WS2_32.dll
 0002:000001d8       __imp_ntohl                000000014002a1d8     ws2_32:WS2_32.dll
 0002:000001e0       __imp_inet_addr            000000014002a1e0     ws2_32:WS2_32.dll
 0002:000001e8       __imp_htons                000000014002a1e8     ws2_32:WS2_32.dll
 0002:000001f0       __imp_setsockopt           000000014002a1f0     ws2_32:WS2_32.dll
 0002:000001f8       __imp_getsockopt           000000014002a1f8     ws2_32:WS2_32.dll
 0002:00000200       __imp_sendto               000000014002a200     ws2_32:WS2_32.dll
 0002:00000208       __imp_getsockname          000000014002a208     ws2_32:WS2_32.dll
 0002:00000210       __imp_closesocket          000000014002a210     ws2_32:WS2_32.dll
 0002:00000218       __imp_bind                 000000014002a218     ws2_32:WS2_32.dll
 0002:00000220       __imp_accept               000000014002a220     ws2_32:WS2_32.dll
 0002:00000228       __imp_WSAGetLastError      000000014002a228     ws2_32:WS2_32.dll
 0002:00000230       __imp_WSACleanup           000000014002a230     ws2_32:WS2_32.dll
 0002:00000238       __imp_WSAStartup           000000014002a238     ws2_32:WS2_32.dll
 0002:00000240       __imp_gethostname          000000014002a240     ws2_32:WS2_32.dll
 0002:00000248       __imp_WSAIoctl             000000014002a248     ws2_32:WS2_32.dll
 0002:00000250       __imp_WSASocketA           000000014002a250     ws2_32:WS2_32.dll
 0002:00000258       __imp_WSAAddressToStringA  000000014002a258     ws2_32:WS2_32.dll
 0002:00000260       __imp_WSAStringToAddressA  000000014002a260     ws2_32:WS2_32.dll
 0002:00000268       __imp_ioctlsocket          000000014002a268     ws2_32:WS2_32.dll
 0002:00000270       __imp_gethostbyname        000000014002a270     ws2_32:WS2_32.dll
 0002:00000278       __imp___WSAFDIsSet         000000014002a278     ws2_32:WS2_32.dll
 0002:00000280       __imp_select               000000014002a280     ws2_32:WS2_32.dll
 0002:00000288       __imp_htonl                000000014002a288     ws2_32:WS2_32.dll
 0002:00000290       __imp_connect              000000014002a290     ws2_32:WS2_32.dll
 0002:00000298       \177WS2_32_NULL_THUNK_DATA 000000014002a298     ws2_32:WS2_32.dll
 0002:000002a0       __imp_atoi                 000000014002a2a0     ucrt:api-ms-win-crt-convert-l1-1-0.dll
 0002:000002a8       \177api-ms-win-crt-convert-l1-1-0_NULL_THUNK_DATA 000000014002a2a8     ucrt:api-ms-win-crt-convert-l1-1-0.dll
 0002:000002b0       __imp__set_new_mode        000000014002a2b0     ucrt:api-ms-win-crt-heap-l1-1-0.dll
 0002:000002b8       __imp_free                 000000014002a2b8     ucrt:api-ms-win-crt-heap-l1-1-0.dll
 0002:000002c0       __imp_malloc               000000014002a2c0     ucrt:api-ms-win-crt-heap-l1-1-0.dll
 0002:000002c8       \177api-ms-win-crt-heap-l1-1-0_NULL_THUNK_DATA 000000014002a2c8     ucrt:api-ms-win-crt-heap-l1-1-0.dll
 0002:000002d0       __imp__configthreadlocale  000000014002a2d0     ucrt:api-ms-win-crt-locale-l1-1-0.dll
 0002:000002d8       \177api-ms-win-crt-locale-l1-1-0_NULL_THUNK_DATA 000000014002a2d8     ucrt:api-ms-win-crt-locale-l1-1-0.dll
 0002:000002e0       __imp___setusermatherr     000000014002a2e0     ucrt:api-ms-win-crt-math-l1-1-0.dll
 0002:000002e8       __imp_fmod                 000000014002a2e8     ucrt:api-ms-win-crt-math-l1-1-0.dll
 0002:000002f0       \177api-ms-win-crt-math-l1-1-0_NULL_THUNK_DATA 000000014002a2f0     ucrt:api-ms-win-crt-math-l1-1-0.dll
 0002:000002f8       __imp__crt_atexit          000000014002a2f8     ucrt:api-ms-win-crt-runtime-l1-1-0.dll
 0002:00000300       __imp__register_onexit_function 000000014002a300     ucrt:api-ms-win-crt-runtime-l1-1-0.dll
 0002:00000308       __imp_terminate            000000014002a308     ucrt:api-ms-win-crt-runtime-l1-1-0.dll
 0002:00000310       __imp__c_exit              000000014002a310     ucrt:api-ms-win-crt-runtime-l1-1-0.dll
 0002:00000318       __imp__cexit               000000014002a318     ucrt:api-ms-win-crt-runtime-l1-1-0.dll
 0002:00000320       __imp___p___argv           000000014002a320     ucrt:api-ms-win-crt-runtime-l1-1-0.dll
 0002:00000328       __imp__initialize_onexit_table 000000014002a328     ucrt:api-ms-win-crt-runtime-l1-1-0.dll
 0002:00000330       __imp__seh_filter_exe      000000014002a330     ucrt:api-ms-win-crt-runtime-l1-1-0.dll
 0002:00000338       __imp__set_app_type        000000014002a338     ucrt:api-ms-win-crt-runtime-l1-1-0.dll
 0002:00000340       __imp__initterm_e          000000014002a340     ucrt:api-ms-win-crt-runtime-l1-1-0.dll
 0002:00000348       __imp__configure_narrow_argv 000000014002a348     ucrt:api-ms-win-crt-runtime-l1-1-0.dll
 0002:00000350       __imp__initialize_narrow_environment 000000014002a350     ucrt:api-ms-win-crt-runtime-l1-1-0.dll
 0002:00000358       __imp__get_initial_narrow_environment 000000014002a358     ucrt:api-ms-win-crt-runtime-l1-1-0.dll
 0002:00000360       __imp__initterm            000000014002a360     ucrt:api-ms-win-crt-runtime-l1-1-0.dll
 0002:00000368       __imp___p___argc           000000014002a368     ucrt:api-ms-win-crt-runtime-l1-1-0.dll
 0002:00000370       __imp_exit                 000000014002a370     ucrt:api-ms-win-crt-runtime-l1-1-0.dll
 0002:00000378       __imp__exit                000000014002a378     ucrt:api-ms-win-crt-runtime-l1-1-0.dll
 0002:00000380       __imp__register_thread_local_exe_atexit_callback 000000014002a380     ucrt:api-ms-win-crt-runtime-l1-1-0.dll
 0002:00000388       \177api-ms-win-crt-runtime-l1-1-0_NULL_THUNK_DATA 000000014002a388     ucrt:api-ms-win-crt-runtime-l1-1-0.dll
 0002:00000390       __imp___stdio_common_vfprintf 000000014002a390     ucrt:api-ms-win-crt-stdio-l1-1-0.dll
 0002:00000398       __imp___stdio_common_vsprintf 000000014002a398     ucrt:api-ms-win-crt-stdio-l1-1-0.dll
 0002:000003a0       __imp__set_fmode           000000014002a3a0     ucrt:api-ms-win-crt-stdio-l1-1-0.dll
 0002:000003a8       __imp___p__commode         000000014002a3a8     ucrt:api-ms-win-crt-stdio-l1-1-0.dll
 0002:000003b0       __imp_puts                 000000014002a3b0     ucrt:api-ms-win-crt-stdio-l1-1-0.dll
 0002:000003b8       __imp_fgets                000000014002a3b8     ucrt:api-ms-win-crt-stdio-l1-1-0.dll
 0002:000003c0       __imp___acrt_iob_func      000000014002a3c0     ucrt:api-ms-win-crt-stdio-l1-1-0.dll
 0002:000003c8       \177api-ms-win-crt-stdio-l1-1-0_NULL_THUNK_DATA 000000014002a3c8     ucrt:api-ms-win-crt-stdio-l1-1-0.dll
 0002:000003d0       __imp_isxdigit             000000014002a3d0     ucrt:api-ms-win-crt-string-l1-1-0.dll
 0002:000003d8       __imp_isdigit              000000014002a3d8     ucrt:api-ms-win-crt-string-l1-1-0.dll
 0002:000003e0       __imp_isspace              000000014002a3e0     ucrt:api-ms-win-crt-string-l1-1-0.dll
 0002:000003e8       __imp_tolower              000000014002a3e8     ucrt:api-ms-win-crt-string-l1-1-0.dll
 0002:000003f0       __imp__strnicmp            000000014002a3f0     ucrt:api-ms-win-crt-string-l1-1-0.dll
 0002:000003f8       __imp_strncmp              000000014002a3f8     ucrt:api-ms-win-crt-string-l1-1-0.dll
 0002:00000400       __imp_strncpy              000000014002a400     ucrt:api-ms-win-crt-string-l1-1-0.dll
 0002:00000408       __imp_toupper              000000014002a408     ucrt:api-ms-win-crt-string-l1-1-0.dll
 0002:00000410       \177api-ms-win-crt-string-l1-1-0_NULL_THUNK_DATA 000000014002a410     ucrt:api-ms-win-crt-string-l1-1-0.dll
 0002:00000418       __imp_rand                 000000014002a418     ucrt:api-ms-win-crt-utility-l1-1-0.dll
 0002:00000420       \177api-ms-win-crt-utility-l1-1-0_NULL_THUNK_DATA 000000014002a420     ucrt:api-ms-win-crt-utility-l1-1-0.dll
 0002:00000428       __imp_CoCreateGuid         000000014002a428     ole32:ole32.dll
 0002:00000430       \177ole32_NULL_THUNK_DATA  000000014002a430     ole32:ole32.dll
 0002:00000438       __guard_check_icall_fptr   000000014002a438     MSVCRT:guard_support.obj
 0002:00000440       __guard_xfg_check_icall_fptr 000000014002a440     MSVCRT:guard_support.obj
 0002:00000448       __guard_dispatch_icall_fptr 000000014002a448     MSVCRT:guard_support.obj
 0002:00000450       __guard_xfg_dispatch_icall_fptr 000000014002a450     MSVCRT:guard_support.obj
 0002:00000458       __guard_xfg_table_dispatch_icall_fptr 000000014002a458     MSVCRT:guard_support.obj
 0002:00000460       __xc_a                     000000014002a460     MSVCRT:initializers.obj
 0002:00000470       __xc_z                     000000014002a470     MSVCRT:initializers.obj
 0002:00000478       __xi_a                     000000014002a478     MSVCRT:initializers.obj
 0002:00000490       __xi_z                     000000014002a490     MSVCRT:initializers.obj
 0002:00000498       __xp_a                     000000014002a498     MSVCRT:initializers.obj
 0002:000004a0       __xp_z                     000000014002a4a0     MSVCRT:initializers.obj
 0002:000004a8       __xt_a                     000000014002a4a8     MSVCRT:initializers.obj
 0002:000004b0       __xt_z                     000000014002a4b0     MSVCRT:initializers.obj
 0002:000004c0       ??_C@_06DBKGGLMH@INVITE@   000000014002a4c0     pjsip-core-x86_64-x64-vc14-release:sip_msg.obj
 0002:000004c8       ??_C@_06JHILMIHF@CANCEL@   000000014002a4c8     pjsip-core-x86_64-x64-vc14-release:sip_msg.obj
 0002:000004d0       ??_C@_03JMECLKOM@ACK@      000000014002a4d0     pjsip-core-x86_64-x64-vc14-release:sip_msg.obj
 0002:000004d4       ??_C@_03BMFBOCK@BYE@       000000014002a4d4     pjsip-core-x86_64-x64-vc14-release:sip_msg.obj
 0002:000004d8       ??_C@_08EINEADGI@REGISTER@ 000000014002a4d8     pjsip-core-x86_64-x64-vc14-release:sip_msg.obj
 0002:000004e8       ??_C@_07KDKMIPIP@OPTIONS@  000000014002a4e8     pjsip-core-x86_64-x64-vc14-release:sip_msg.obj
 0002:000004f0       ??_C@_06MDEHPNLG@Accept@   000000014002a4f0     pjsip-core-x86_64-x64-vc14-release:sip_msg.obj
 0002:000004f8       ??_C@_0BA@KDJCHKHJ@Accept?9Encoding@ 000000014002a4f8     pjsip-core-x86_64-x64-vc14-release:sip_msg.obj
 0002:00000508       ??_C@_0BA@POEGPCPD@Accept?9Language@ 000000014002a508     pjsip-core-x86_64-x64-vc14-release:sip_msg.obj
 0002:00000518       ??_C@_0L@DDNEKGOG@Alert?9Info@ 000000014002a518     pjsip-core-x86_64-x64-vc14-release:sip_msg.obj
 0002:00000524       ??_C@_05IEPODGEO@Allow@    000000014002a524     pjsip-core-x86_64-x64-vc14-release:sip_msg.obj
 0002:00000530       ??_C@_0BE@KPJFGFDH@Authentication?9Info@ 000000014002a530     pjsip-core-x86_64-x64-vc14-release:sip_msg.obj
 0002:00000548       ??_C@_0O@NAFGPKMI@Authorization@ 000000014002a548     pjsip-core-x86_64-x64-vc14-release:sip_msg.obj
 0002:00000558       ??_C@_07IKPMLMAJ@Call?9ID@ 000000014002a558     pjsip-core-x86_64-x64-vc14-release:sip_msg.obj
 0002:00000560       ??_C@_01KBJDNOO@i@         000000014002a560     pjsip-core-x86_64-x64-vc14-release:sip_msg.obj
 0002:00000568       ??_C@_09HCKFEBLC@Call?9Info@ 000000014002a568     pjsip-core-x86_64-x64-vc14-release:sip_msg.obj
 0002:00000578       ??_C@_07PMMFKIFM@Contact@  000000014002a578     pjsip-core-x86_64-x64-vc14-release:sip_msg.obj
 0002:00000580       ??_C@_01GOHFPIOK@m@        000000014002a580     pjsip-core-x86_64-x64-vc14-release:sip_msg.obj
 0002:00000588       ??_C@_0BE@LMOOGHBG@Content?9Disposition@ 000000014002a588     pjsip-core-x86_64-x64-vc14-release:sip_msg.obj
 0002:000005a0       ??_C@_0BB@KFPPKJHF@Content?9Encoding@ 000000014002a5a0     pjsip-core-x86_64-x64-vc14-release:sip_msg.obj
 0002:000005b4       ??_C@_01KGKMHCOC@e@        000000014002a5b4     pjsip-core-x86_64-x64-vc14-release:sip_msg.obj
 0002:000005b8       ??_C@_0BB@PICLCBPP@Content?9Language@ 000000014002a5b8     pjsip-core-x86_64-x64-vc14-release:sip_msg.obj
 0002:000005d0       ??_C@_0P@HOJGPHBA@Content?9Length@ 000000014002a5d0     pjsip-core-x86_64-x64-vc14-release:sip_msg.obj
 0002:000005e0       ??_C@_01HHGOMJKL@l@        000000014002a5e0     pjsip-core-x86_64-x64-vc14-release:sip_msg.obj
 0002:000005e8       ??_C@_0N@LAFFMKKA@Content?9Type@ 000000014002a5e8     pjsip-core-x86_64-x64-vc14-release:sip_msg.obj
 0002:000005f8       ??_C@_01PAPGNFGE@c@        000000014002a5f8     pjsip-core-x86_64-x64-vc14-release:sip_msg.obj
 0002:000005fc       ??_C@_04IHAOMLEL@CSeq@     000000014002a5fc     pjsip-core-x86_64-x64-vc14-release:sip_msg.obj
 0002:00000604       ??_C@_04FMEGDJGD@Date@     000000014002a604     pjsip-core-x86_64-x64-vc14-release:sip_msg.obj
 0002:00000610       ??_C@_0L@PGKFFKEH@Error?9Info@ 000000014002a610     pjsip-core-x86_64-x64-vc14-release:sip_msg.obj
 0002:00000620       ??_C@_07DABPCBEH@Expires@  000000014002a620     pjsip-core-x86_64-x64-vc14-release:sip_msg.obj
 0002:00000628       ??_C@_04LMIAFEOL@From@     000000014002a628     pjsip-core-x86_64-x64-vc14-release:sip_msg.obj
 0002:00000630       ??_C@_01INIBCBCB@f@        000000014002a630     pjsip-core-x86_64-x64-vc14-release:sip_msg.obj
 0002:00000638       ??_C@_0M@OJFKFNND@In?9Reply?9To@ 000000014002a638     pjsip-core-x86_64-x64-vc14-release:sip_msg.obj
 0002:00000648       ??_C@_0N@KAKEBINL@Max?9Forwards@ 000000014002a648     pjsip-core-x86_64-x64-vc14-release:sip_msg.obj
 0002:00000658       ??_C@_0N@PNJFOFFK@MIME?9Version@ 000000014002a658     pjsip-core-x86_64-x64-vc14-release:sip_msg.obj
 0002:00000668       ??_C@_0M@BHCNHHNF@Min?9Expires@ 000000014002a668     pjsip-core-x86_64-x64-vc14-release:sip_msg.obj
 0002:00000678       ??_C@_0N@MHPBIIPD@Organization@ 000000014002a678     pjsip-core-x86_64-x64-vc14-release:sip_msg.obj
 0002:00000688       ??_C@_08KGEIBGG@Priority@  000000014002a688     pjsip-core-x86_64-x64-vc14-release:sip_msg.obj
 0002:00000698       ??_C@_0BD@GKJFGNG@Proxy?9Authenticate@ 000000014002a698     pjsip-core-x86_64-x64-vc14-release:sip_msg.obj
 0002:000006b0       ??_C@_0BE@DCLKKIPG@Proxy?9Authorization@ 000000014002a6b0     pjsip-core-x86_64-x64-vc14-release:sip_msg.obj
 0002:000006c8       ??_C@_0O@ICDCLCHE@Proxy?9Require@ 000000014002a6c8     pjsip-core-x86_64-x64-vc14-release:sip_msg.obj
 0002:000006d8       ??_C@_0N@KJFPNEHF@Record?9Route@ 000000014002a6d8     pjsip-core-x86_64-x64-vc14-release:sip_msg.obj
 0002:000006e8       ??_C@_08GBENDHCN@Reply?9To@ 000000014002a6e8     pjsip-core-x86_64-x64-vc14-release:sip_msg.obj
 0002:000006f8       ??_C@_07KMMNJNOB@Require@  000000014002a6f8     pjsip-core-x86_64-x64-vc14-release:sip_msg.obj
 0002:00000700       ??_C@_0M@CMFFKFHP@Retry?9After@ 000000014002a700     pjsip-core-x86_64-x64-vc14-release:sip_msg.obj
 0002:0000070c       ??_C@_05DIKBIPM@Route@     000000014002a70c     pjsip-core-x86_64-x64-vc14-release:sip_msg.obj
 0002:00000714       ??_C@_06LGMEBDBC@Server@   000000014002a714     pjsip-core-x86_64-x64-vc14-release:sip_msg.obj
 0002:00000720       ??_C@_07GEKACEDI@Subject@  000000014002a720     pjsip-core-x86_64-x64-vc14-release:sip_msg.obj
 0002:00000728       ??_C@_01LKDEMHDF@s@        000000014002a728     pjsip-core-x86_64-x64-vc14-release:sip_msg.obj
 0002:00000730       ??_C@_09GFDKPDGA@Supported@ 000000014002a730     pjsip-core-x86_64-x64-vc14-release:sip_msg.obj
 0002:0000073c       ??_C@_01DICPFPGM@k@        000000014002a73c     pjsip-core-x86_64-x64-vc14-release:sip_msg.obj
 0002:00000740       ??_C@_09KDGENIOP@Timestamp@ 000000014002a740     pjsip-core-x86_64-x64-vc14-release:sip_msg.obj
 0002:0000074c       ??_C@_02IJGONHOJ@To@       000000014002a74c     pjsip-core-x86_64-x64-vc14-release:sip_msg.obj
 0002:00000750       ??_C@_01PFHFFBPC@t@        000000014002a750     pjsip-core-x86_64-x64-vc14-release:sip_msg.obj
 0002:00000758       ??_C@_0M@BEECMOIL@Unsupported@ 000000014002a758     pjsip-core-x86_64-x64-vc14-release:sip_msg.obj
 0002:00000768       ??_C@_0L@DMPACEMJ@User?9Agent@ 000000014002a768     pjsip-core-x86_64-x64-vc14-release:sip_msg.obj
 0002:00000774       ??_C@_03LDNNKNE@Via@       000000014002a774     pjsip-core-x86_64-x64-vc14-release:sip_msg.obj
 0002:00000778       ??_C@_01MHEDDDHA@v@        000000014002a778     pjsip-core-x86_64-x64-vc14-release:sip_msg.obj
 0002:00000780       ??_C@_07KGMMFLDN@Warning@  000000014002a780     pjsip-core-x86_64-x64-vc14-release:sip_msg.obj
 0002:00000788       ??_C@_0BB@KEDJJIFI@WWW?9Authenticate@ 000000014002a788     pjsip-core-x86_64-x64-vc14-release:sip_msg.obj
 0002:000007a0       ??_C@_0BA@MKEDBJEA@_Unknown?9Header@ 000000014002a7a0     pjsip-core-x86_64-x64-vc14-release:sip_msg.obj
 0002:000007b0       pjsip_invite_method        000000014002a7b0     pjsip-core-x86_64-x64-vc14-release:sip_msg.obj
 0002:000007c8       pjsip_cancel_method        000000014002a7c8     pjsip-core-x86_64-x64-vc14-release:sip_msg.obj
 0002:000007e0       pjsip_ack_method           000000014002a7e0     pjsip-core-x86_64-x64-vc14-release:sip_msg.obj
 0002:000007f8       pjsip_bye_method           000000014002a7f8     pjsip-core-x86_64-x64-vc14-release:sip_msg.obj
 0002:00000810       pjsip_register_method      000000014002a810     pjsip-core-x86_64-x64-vc14-release:sip_msg.obj
 0002:00000828       pjsip_options_method       000000014002a828     pjsip-core-x86_64-x64-vc14-release:sip_msg.obj
 0002:00000840       pjsip_hdr_names            000000014002a840     pjsip-core-x86_64-x64-vc14-release:sip_msg.obj
 0002:00000c78       ??_C@_03MGEKBFJK@?$DLq?$DN@ 000000014002ac78     pjsip-core-x86_64-x64-vc14-release:sip_msg.obj
 0002:00000c80       ??_C@_09JFABAEBI@?$DLexpires?$DN@ 000000014002ac80     pjsip-core-x86_64-x64-vc14-release:sip_msg.obj
 0002:00000c8c       ??_C@_05IIDIOKEA@?$DLtag?$DN@ 000000014002ac8c     pjsip-core-x86_64-x64-vc14-release:sip_msg.obj
 0002:00000c94       ??_C@_04JBGCGIBB@sips@     000000014002ac94     pjsip-core-x86_64-x64-vc14-release:sip_msg.obj
 0002:00000c9c       ??_C@_03MPAIKGMI@sip@      000000014002ac9c     pjsip-core-x86_64-x64-vc14-release:sip_msg.obj
 0002:00000ca0       ??_C@_04IBOFHAPJ@hide@     000000014002aca0     pjsip-core-x86_64-x64-vc14-release:sip_msg.obj
 0002:00000ca5       ??_C@_00CNPNBAHC@@         000000014002aca5     pjsip-core-x86_64-x64-vc14-release:sip_msg.obj
 0002:00000ca8       ??_C@_05ODKKKCAM@?$DLttl?$DN@ 000000014002aca8     pjsip-core-x86_64-x64-vc14-release:sip_msg.obj
 0002:00000cb0       ??_C@_06IKMHKLF@?$DLrport@ 000000014002acb0     pjsip-core-x86_64-x64-vc14-release:sip_msg.obj
 0002:00000cb8       ??_C@_07IONINLDO@?$DLmaddr?$DN@ 000000014002acb8     pjsip-core-x86_64-x64-vc14-release:sip_msg.obj
 0002:00000cc0       ??_C@_0L@IMDGLAJB@?$DLreceived?$DN@ 000000014002acc0     pjsip-core-x86_64-x64-vc14-release:sip_msg.obj
 0002:00000cd0       ??_C@_0BH@JEAOBKFE@Default?5status?5message@ 000000014002acd0     pjsip-core-x86_64-x64-vc14-release:sip_msg.obj
 0002:00000ce8       ??_C@_06CJPKGAJC@Trying@   000000014002ace8     pjsip-core-x86_64-x64-vc14-release:sip_msg.obj
 0002:00000cf0       ??_C@_07KEMHLLKP@Ringing@  000000014002acf0     pjsip-core-x86_64-x64-vc14-release:sip_msg.obj
 0002:00000cf8       ??_C@_0BI@HBFDMPGA@Call?5Is?5Being?5Forwarded@ 000000014002acf8     pjsip-core-x86_64-x64-vc14-release:sip_msg.obj
 0002:00000d10       ??_C@_06POGAFBAL@Queued@   000000014002ad10     pjsip-core-x86_64-x64-vc14-release:sip_msg.obj
 0002:00000d18       ??_C@_0BB@FKJCNOGD@Session?5Progress@ 000000014002ad18     pjsip-core-x86_64-x64-vc14-release:sip_msg.obj
 0002:00000d2c       ??_C@_02GIPFHKNO@OK@       000000014002ad2c     pjsip-core-x86_64-x64-vc14-release:sip_msg.obj
 0002:00000d30       ??_C@_08DOBOODLA@Accepted@ 000000014002ad30     pjsip-core-x86_64-x64-vc14-release:sip_msg.obj
 0002:00000d40       ??_C@_0BB@HLFEHKPE@Multiple?5Choices@ 000000014002ad40     pjsip-core-x86_64-x64-vc14-release:sip_msg.obj
 0002:00000d58       ??_C@_0BC@BPBCNFPI@Moved?5Permanently@ 000000014002ad58     pjsip-core-x86_64-x64-vc14-release:sip_msg.obj
 0002:00000d70       ??_C@_0BC@LODIMCJL@Moved?5Temporarily@ 000000014002ad70     pjsip-core-x86_64-x64-vc14-release:sip_msg.obj
 0002:00000d88       ??_C@_09JFBGBFIM@Use?5Proxy@ 000000014002ad88     pjsip-core-x86_64-x64-vc14-release:sip_msg.obj
 0002:00000d98       ??_C@_0BE@MCFGMBHK@Alternative?5Service@ 000000014002ad98     pjsip-core-x86_64-x64-vc14-release:sip_msg.obj
 0002:00000db0       ??_C@_0M@LNAIDEEG@Bad?5Request@ 000000014002adb0     pjsip-core-x86_64-x64-vc14-release:sip_msg.obj
 0002:00000dc0       ??_C@_0N@OOAPMOJA@Unauthorized@ 000000014002adc0     pjsip-core-x86_64-x64-vc14-release:sip_msg.obj
 0002:00000dd0       ??_C@_0BB@LMPIHCBH@Payment?5Required@ 000000014002add0     pjsip-core-x86_64-x64-vc14-release:sip_msg.obj
 0002:00000de8       ??_C@_09LMDIMFJD@Forbidden@ 000000014002ade8     pjsip-core-x86_64-x64-vc14-release:sip_msg.obj
 0002:00000df8       ??_C@_09CFCBFJND@Not?5Found@ 000000014002adf8     pjsip-core-x86_64-x64-vc14-release:sip_msg.obj
 0002:00000e08       ??_C@_0BD@CCIPIALO@Method?5Not?5Allowed@ 000000014002ae08     pjsip-core-x86_64-x64-vc14-release:sip_msg.obj
 0002:00000e20       ??_C@_0P@HHIDFAOI@Not?5Acceptable@ 000000014002ae20     pjsip-core-x86_64-x64-vc14-release:sip_msg.obj
 0002:00000e30       ??_C@_0BO@ONPAAOGI@Proxy?5Authentication?5Required@ 000000014002ae30     pjsip-core-x86_64-x64-vc14-release:sip_msg.obj
 0002:00000e50       ??_C@_0BA@HALFGGF@Request?5Timeout@ 000000014002ae50     pjsip-core-x86_64-x64-vc14-release:sip_msg.obj
 0002:00000e60       ??_C@_04OKIIBCCG@Gone@     000000014002ae60     pjsip-core-x86_64-x64-vc14-release:sip_msg.obj
 0002:00000e68       ??_C@_0BJ@MMEIEOIG@Request?5Entity?5Too?5Large@ 000000014002ae68     pjsip-core-x86_64-x64-vc14-release:sip_msg.obj
 0002:00000e88       ??_C@_0BF@LPICFNOC@Request?5URI?5Too?5Long@ 000000014002ae88     pjsip-core-x86_64-x64-vc14-release:sip_msg.obj
 0002:00000ea0       ??_C@_0BH@HLJJIAEN@Unsupported?5Media?5Type@ 000000014002aea0     pjsip-core-x86_64-x64-vc14-release:sip_msg.obj
 0002:00000eb8       ??_C@_0BH@HMDPMBIK@Unsupported?5URI?5Scheme@ 000000014002aeb8     pjsip-core-x86_64-x64-vc14-release:sip_msg.obj
 0002:00000ed0       ??_C@_0O@EABFLJJG@Bad?5Extension@ 000000014002aed0     pjsip-core-x86_64-x64-vc14-release:sip_msg.obj
 0002:00000ee0       ??_C@_0BD@LEDCNIMD@Extension?5Required@ 000000014002aee0     pjsip-core-x86_64-x64-vc14-release:sip_msg.obj
 0002:00000ef8       ??_C@_0BI@DEDCGMIH@Session?5Timer?5Too?5Small@ 000000014002aef8     pjsip-core-x86_64-x64-vc14-release:sip_msg.obj
 0002:00000f10       ??_C@_0BD@NHGMJMLN@Interval?5Too?5Brief@ 000000014002af10     pjsip-core-x86_64-x64-vc14-release:sip_msg.obj
 0002:00000f28       ??_C@_0BI@JBJKOKGE@Temporarily?5Unavailable@ 000000014002af28     pjsip-core-x86_64-x64-vc14-release:sip_msg.obj
 0002:00000f40       ??_C@_0CA@DPKMEAMP@Call?1Transaction?5Does?5Not?5Exist@ 000000014002af40     pjsip-core-x86_64-x64-vc14-release:sip_msg.obj
 0002:00000f60       ??_C@_0O@KJBLEGOO@Loop?5Detected@ 000000014002af60     pjsip-core-x86_64-x64-vc14-release:sip_msg.obj
 0002:00000f70       ??_C@_0O@CFHODMHD@Too?5Many?5Hops@ 000000014002af70     pjsip-core-x86_64-x64-vc14-release:sip_msg.obj
 0002:00000f80       ??_C@_0BD@HOIPLGB@Address?5Incomplete@ 000000014002af80     pjsip-core-x86_64-x64-vc14-release:sip_msg.obj
 0002:00000f98       ??_C@_09FNGPAEJC@Ambiguous@ 000000014002af98     pjsip-core-x86_64-x64-vc14-release:sip_msg.obj
 0002:00000fa8       ??_C@_09ELAJPHFG@Busy?5Here@ 000000014002afa8     pjsip-core-x86_64-x64-vc14-release:sip_msg.obj
 0002:00000fb8       ??_C@_0BD@IGJOBDDO@Request?5Terminated@ 000000014002afb8     pjsip-core-x86_64-x64-vc14-release:sip_msg.obj
 0002:00000fd0       ??_C@_0BE@HMIMPLAH@Not?5Acceptable?5Here@ 000000014002afd0     pjsip-core-x86_64-x64-vc14-release:sip_msg.obj
 0002:00000fe8       ??_C@_09HKNLJBHH@Bad?5Event@ 000000014002afe8     pjsip-core-x86_64-x64-vc14-release:sip_msg.obj
 0002:00000ff8       ??_C@_0BA@DKJEBJFB@Request?5Updated@ 000000014002aff8     pjsip-core-x86_64-x64-vc14-release:sip_msg.obj
 0002:00001008       ??_C@_0BA@KLOCDLCK@Request?5Pending@ 000000014002b008     pjsip-core-x86_64-x64-vc14-release:sip_msg.obj
 0002:00001018       ??_C@_0P@EIPIHDNL@Undecipherable@ 000000014002b018     pjsip-core-x86_64-x64-vc14-release:sip_msg.obj
 0002:00001028       ??_C@_0BG@NJGANGCC@Internal?5Server?5Error@ 000000014002b028     pjsip-core-x86_64-x64-vc14-release:sip_msg.obj
 0002:00001040       ??_C@_0BA@JGKGKAME@Not?5Implemented@ 000000014002b040     pjsip-core-x86_64-x64-vc14-release:sip_msg.obj
 0002:00001050       ??_C@_0M@BNCNLPGM@Bad?5Gateway@ 000000014002b050     pjsip-core-x86_64-x64-vc14-release:sip_msg.obj
 0002:00001060       ??_C@_0BE@NGHLFKBN@Service?5Unavailable@ 000000014002b060     pjsip-core-x86_64-x64-vc14-release:sip_msg.obj
 0002:00001078       ??_C@_0P@KPHBHCBP@Server?5Timeout@ 000000014002b078     pjsip-core-x86_64-x64-vc14-release:sip_msg.obj
 0002:00001088       ??_C@_0BG@DGJHJFEF@Version?5Not?5Supported@ 000000014002b088     pjsip-core-x86_64-x64-vc14-release:sip_msg.obj
 0002:000010a0       ??_C@_0BC@FOIGPIGF@Message?5Too?5Large@ 000000014002b0a0     pjsip-core-x86_64-x64-vc14-release:sip_msg.obj
 0002:000010b8       ??_C@_0BF@PJIFKKPF@Precondition?5Failure@ 000000014002b0b8     pjsip-core-x86_64-x64-vc14-release:sip_msg.obj
 0002:000010d0       ??_C@_0BA@BNEEJKIK@Busy?5Everywhere@ 000000014002b0d0     pjsip-core-x86_64-x64-vc14-release:sip_msg.obj
 0002:000010e0       ??_C@_07CAMLKJDK@Decline@  000000014002b0e0     pjsip-core-x86_64-x64-vc14-release:sip_msg.obj
 0002:000010e8       ??_C@_0BI@JILKKJAA@Does?5Not?5Exist?5Anywhere@ 000000014002b0e8     pjsip-core-x86_64-x64-vc14-release:sip_msg.obj
 0002:00001100       ??_C@_0CE@LJDLADFN@No?5response?5from?5destination?5se@ 000000014002b100     pjsip-core-x86_64-x64-vc14-release:sip_msg.obj
 0002:00001128       ??_C@_0CF@KIECMFPG@Unable?5to?5resolve?5destination?5s@ 000000014002b128     pjsip-core-x86_64-x64-vc14-release:sip_msg.obj
 0002:00001150       ??_C@_0CM@KOHFAKJI@Error?5sending?5message?5to?5destin@ 000000014002b150     pjsip-core-x86_64-x64-vc14-release:sip_msg.obj
 0002:00001180       ??_C@_0BB@NFGDEPJM@Content?9Length?3?5@ 000000014002b180     pjsip-core-x86_64-x64-vc14-release:sip_msg.obj
 0002:00001194       ??_C@_03BDDDCMLM@l?3?5@    000000014002b194     pjsip-core-x86_64-x64-vc14-release:sip_msg.obj
 0002:00001198       ??_C@_0L@GLHKEHNL@?5SIP?12?40?$AN?6@ 000000014002b198     pjsip-core-x86_64-x64-vc14-release:sip_msg.obj
 0002:000011a8       ??_C@_0DH@DHKJLILJ@Header?5with?5no?5vptr?5encountered@ 000000014002b1a8     pjsip-core-x86_64-x64-vc14-release:sip_msg.obj
 0002:000011e0       ??_C@_07KCAKOOLP@sip_msg@  000000014002b1e0     pjsip-core-x86_64-x64-vc14-release:sip_msg.obj
 0002:000011e8       ??_C@_0P@GJMOGDPG@Content?9Type?3?5@ 000000014002b1e8     pjsip-core-x86_64-x64-vc14-release:sip_msg.obj
 0002:000011f8       ??_C@_03ELFADMOK@c?3?5@    000000014002b1f8     pjsip-core-x86_64-x64-vc14-release:sip_msg.obj
 0002:00001200       ??_C@_0O@EMLDOJH@mod?9msg?9print@ 000000014002b200     pjsip-core-x86_64-x64-vc14-release:sip_transport.obj
 0002:00001210       ??_C@_0M@NNPCGPMF@Unspecified@ 000000014002b210     pjsip-core-x86_64-x64-vc14-release:sip_transport.obj
 0002:0000121c       ??_C@_03OPEAKHDL@UDP@      000000014002b21c     pjsip-core-x86_64-x64-vc14-release:sip_transport.obj
 0002:00001220       ??_C@_0O@KHAHCMDL@UDP?5transport@ 000000014002b220     pjsip-core-x86_64-x64-vc14-release:sip_transport.obj
 0002:00001230       ??_C@_03FCLDNGNL@TCP@      000000014002b230     pjsip-core-x86_64-x64-vc14-release:sip_transport.obj
 0002:00001238       ??_C@_0O@EHHLMLBF@TCP?5transport@ 000000014002b238     pjsip-core-x86_64-x64-vc14-release:sip_transport.obj
 0002:00001248       ??_C@_03HCMCMCCF@TLS@      000000014002b248     pjsip-core-x86_64-x64-vc14-release:sip_transport.obj
 0002:00001250       ??_C@_0O@BHJFMMNA@TLS?5transport@ 000000014002b250     pjsip-core-x86_64-x64-vc14-release:sip_transport.obj
 0002:00001260       ??_C@_04DINHBEKN@DTLS@     000000014002b260     pjsip-core-x86_64-x64-vc14-release:sip_transport.obj
 0002:00001268       ??_C@_0P@FBHKKIOO@DTLS?5transport@ 000000014002b268     pjsip-core-x86_64-x64-vc14-release:sip_transport.obj
 0002:00001278       ??_C@_04BOMBJBBC@SCTP@     000000014002b278     pjsip-core-x86_64-x64-vc14-release:sip_transport.obj
 0002:00001280       ??_C@_0P@BEPMAJFA@SCTP?5transport@ 000000014002b280     pjsip-core-x86_64-x64-vc14-release:sip_transport.obj
 0002:00001290       ??_C@_04KGNEGCGI@LOOP@     000000014002b290     pjsip-core-x86_64-x64-vc14-release:sip_transport.obj
 0002:00001298       ??_C@_0BD@IJLEDLFM@Loopback?5transport@ 000000014002b298     pjsip-core-x86_64-x64-vc14-release:sip_transport.obj
 0002:000012b0       ??_C@_0L@PGGNCDOP@LOOP?9DGRAM@ 000000014002b2b0     pjsip-core-x86_64-x64-vc14-release:sip_transport.obj
 0002:000012c0       ??_C@_0BM@JFHDLEFO@Loopback?5datagram?5transport@ 000000014002b2c0     pjsip-core-x86_64-x64-vc14-release:sip_transport.obj
 0002:000012e0       ??_C@_0BD@LIBJHFGK@UDP?5IPv6?5transport@ 000000014002b2e0     pjsip-core-x86_64-x64-vc14-release:sip_transport.obj
 0002:000012f8       ??_C@_0BD@IONFPPFG@TCP?5IPv6?5transport@ 000000014002b2f8     pjsip-core-x86_64-x64-vc14-release:sip_transport.obj
 0002:00001310       ??_C@_0BD@CLDAAALK@TLS?5IPv6?5transport@ 000000014002b310     pjsip-core-x86_64-x64-vc14-release:sip_transport.obj
 0002:00001328       ??_C@_0BE@IFPIBJBH@DTLS?5IPv6?5transport@ 000000014002b328     pjsip-core-x86_64-x64-vc14-release:sip_transport.obj
 0002:0000133c       ??_C@_06HHKALCGB@tdta?$CFp@ 000000014002b33c     pjsip-core-x86_64-x64-vc14-release:sip_transport.obj
 0002:00001348       ??_C@_0BF@FNAOFPOF@Destroying?5txdata?5?$CFs@ 000000014002b348     pjsip-core-x86_64-x64-vc14-release:sip_transport.obj
 0002:00001360       ??_C@_0M@JCCICOOO@INVALID?5MSG@ 000000014002b360     pjsip-core-x86_64-x64-vc14-release:sip_transport.obj
 0002:00001370       ??_C@_0BO@FBJFIDDA@Request?5msg?5?$CF?4?$CKs?1cseq?$DN?$CFd?5?$CI?$CFs?$CJ@ 000000014002b370     pjsip-core-x86_64-x64-vc14-release:sip_transport.obj
 0002:00001390       ??_C@_0CC@DIPPPFIF@Response?5msg?5?$CFd?1?$CF?4?$CKs?1cseq?$DN?$CFd?5?$CI?$CF@ 000000014002b390     pjsip-core-x86_64-x64-vc14-release:sip_transport.obj
 0002:000013b4       ??_C@_04HIBGFPH@NULL@      000000014002b3b4     pjsip-core-x86_64-x64-vc14-release:sip_transport.obj
 0002:000013c0       ??_C@_0BA@BCOMPIDA@sip_transport?4c@ 000000014002b3c0     pjsip-core-x86_64-x64-vc14-release:sip_transport.obj
 0002:000013d0       ??_C@_05MIOBCJBH@rdata@    000000014002b3d0     pjsip-core-x86_64-x64-vc14-release:sip_transport.obj
 0002:000013d8       ??_C@_02BBAHNLBA@?$CFp@    000000014002b3d8     pjsip-core-x86_64-x64-vc14-release:sip_transport.obj
 0002:000013dc       ??_C@_05KBHICJDA@rtd?$CFp@ 000000014002b3dc     pjsip-core-x86_64-x64-vc14-release:sip_transport.obj
 0002:000013e8       ??_C@_0CG@GHPNJCCG@Unable?5to?5send?5?$CFs?3?5message?5is?5p@ 000000014002b3e8     pjsip-core-x86_64-x64-vc14-release:sip_transport.obj
 0002:00001410       ??_C@_0IB@PPGFIIKL@C?3?2Users?2WerBinIch?2Documents?2gi@ 000000014002b410     pjsip-core-x86_64-x64-vc14-release:sip_transport.obj
 0002:00001498       ??_C@_0DI@CNFAMKAC@Warning?3?5transport?5?$CFs?5being?5des@ 000000014002b498     pjsip-core-x86_64-x64-vc14-release:sip_transport.obj
 0002:000014d0       ??_C@_0EF@KMMKIKKG@Warning?3?5transport?5?$CFs?5being?5des@ 000000014002b4d0     pjsip-core-x86_64-x64-vc14-release:sip_transport.obj
 0002:00001518       ??_C@_05LOIBBIEL@tpmgr@    000000014002b518     pjsip-core-x86_64-x64-vc14-release:sip_transport.obj
 0002:00001520       ??_C@_06DFEDPGIK@tmgr?$CFp@ 000000014002b520     pjsip-core-x86_64-x64-vc14-release:sip_transport.obj
 0002:00001528       ??_C@_0BL@FCLJOKON@Transport?5manager?5created?4@ 000000014002b528     pjsip-core-x86_64-x64-vc14-release:sip_transport.obj
 0002:00001548       ??_C@_0BN@ICLNKKAJ@Destroying?5transport?5manager@ 000000014002b548     pjsip-core-x86_64-x64-vc14-release:sip_transport.obj
 0002:00001568       ??_C@_0CI@HJKHOKAG@Cleaned?5up?5dangling?5transmit?5bu@ 000000014002b568     pjsip-core-x86_64-x64-vc14-release:sip_transport.obj
 0002:00001590       ??_C@_0DM@LJBJFPEI@?3?5?$CFs?5exception?5when?5parsing?5?8?$CF?4@ 000000014002b590     pjsip-core-x86_64-x64-vc14-release:sip_transport.obj
 0002:000015d0       ??_C@_0EM@JMILNFHN@Error?5processing?5?$CFd?5bytes?5packe@ 000000014002b5d0     pjsip-core-x86_64-x64-vc14-release:sip_transport.obj
 0002:00001620       ??_C@_0DG@FPJFHIHG@Specified?5factory?5for?5creating?5@ 000000014002b620     pjsip-core-x86_64-x64-vc14-release:sip_transport.obj
 0002:00001658       ??_C@_0BE@FLCADGMP@?5Dumping?5listeners?3@ 000000014002b658     pjsip-core-x86_64-x64-vc14-release:sip_transport.obj
 0002:00001670       ??_C@_0BA@BNAMNLNN@?5?5?$CFs?5?$CFs?3?$CF?4?$CKs?3?$CFd@ 000000014002b670     pjsip-core-x86_64-x64-vc14-release:sip_transport.obj
 0002:00001680       ??_C@_0BF@HNGNBCHG@?5Dumping?5transports?3@ 000000014002b680     pjsip-core-x86_64-x64-vc14-release:sip_transport.obj
 0002:00001698       ??_C@_07DBMJBCPL@?5?$FLidle?$FN@ 000000014002b698     pjsip-core-x86_64-x64-vc14-release:sip_transport.obj
 0002:000016a0       ??_C@_01LBDDMOBJ@?$FN@     000000014002b6a0     pjsip-core-x86_64-x64-vc14-release:sip_transport.obj
 0002:000016a8       ??_C@_0L@GPPOBINL@?5listener?$FL@ 000000014002b6a8     pjsip-core-x86_64-x64-vc14-release:sip_transport.obj
 0002:000016b8       ??_C@_0BL@JGNBGEBF@?5?5?$CFs?5?$CFs?$CFs?$CFs?$CFs?$CIrefcnt?$DN?$CFd?$CFs?$CJ@ 000000014002b6b8     pjsip-core-x86_64-x64-vc14-release:sip_transport.obj
 0002:000016d8       ??_C@_0BJ@MGECBGBK@Module?5?$CC?$CF?4?$CKs?$CC?5registered@ 000000014002b6d8     pjsip-core-x86_64-x64-vc14-release:sip_endpoint.obj
 0002:000016f8       ??_C@_0P@EGLGAFCL@sip_endpoint?4c@ 000000014002b6f8     pjsip-core-x86_64-x64-vc14-release:sip_endpoint.obj
 0002:00001708       ??_C@_0CK@DNCAODEI@Module?5?$CC?$CF?4?$CKs?$CC?5can?5not?5be?5unregi@ 000000014002b708     pjsip-core-x86_64-x64-vc14-release:sip_endpoint.obj
 0002:00001738       ??_C@_0BL@HDLPHBNM@Module?5?$CC?$CF?4?$CKs?$CC?5unregistered@ 000000014002b738     pjsip-core-x86_64-x64-vc14-release:sip_endpoint.obj
 0002:00001758       ??_C@_0BO@COOMMINE@Creating?5endpoint?5instance?4?4?4@ 000000014002b758     pjsip-core-x86_64-x64-vc14-release:sip_endpoint.obj
 0002:00001778       ??_C@_06NKPEEELK@pept?$CFp@ 000000014002b778     pjsip-core-x86_64-x64-vc14-release:sip_endpoint.obj
 0002:00001780       ??_C@_05BKDCOKEM@ept?$CFp@ 000000014002b780     pjsip-core-x86_64-x64-vc14-release:sip_endpoint.obj
 0002:00001788       ??_C@_06CEEOCEHG@edpt?$CFp@ 000000014002b788     pjsip-core-x86_64-x64-vc14-release:sip_endpoint.obj
 0002:00001790       ??_C@_0CB@HGCDKNNC@Error?5creating?5resolver?5instanc@ 000000014002b790     pjsip-core-x86_64-x64-vc14-release:sip_endpoint.obj
 0002:000017b8       ??_C@_0BI@MLLMLNGM@Error?5creating?5endpoint@ 000000014002b7b8     pjsip-core-x86_64-x64-vc14-release:sip_endpoint.obj
 0002:000017d0       ??_C@_0BP@CHMMIAFL@Destroying?5endpoint?5instance?4?4@ 000000014002b7d0     pjsip-core-x86_64-x64-vc14-release:sip_endpoint.obj
 0002:000017f0       ??_C@_0BG@NIAFLHGE@Endpoint?5?$CFp?5destroyed@ 000000014002b7f0     pjsip-core-x86_64-x64-vc14-release:sip_endpoint.obj
 0002:00001808       ??_C@_0BK@KKFMILKM@Unable?5to?5create?5pool?5?$CFs?$CB@ 000000014002b808     pjsip-core-x86_64-x64-vc14-release:sip_endpoint.obj
 0002:00001824       ??_C@_05MMMMAHGD@?5From@   000000014002b824     pjsip-core-x86_64-x64-vc14-release:sip_endpoint.obj
 0002:0000182c       ??_C@_03PHFJHONJ@?5To@     000000014002b82c     pjsip-core-x86_64-x64-vc14-release:sip_endpoint.obj
 0002:00001830       ??_C@_04CNJKNNNB@?5Via@    000000014002b830     pjsip-core-x86_64-x64-vc14-release:sip_endpoint.obj
 0002:00001838       ??_C@_05PHECJIMD@?5CSeq@   000000014002b838     pjsip-core-x86_64-x64-vc14-release:sip_endpoint.obj
 0002:00001840       ??_C@_0EM@MDGMOKGH@Error?5processing?5packet?5from?5?$CFs@ 000000014002b840     pjsip-core-x86_64-x64-vc14-release:sip_endpoint.obj
 0002:00001890       ??_C@_0CA@HOLDFAO@Processing?5incoming?5message?3?5?$CFs@ 000000014002b890     pjsip-core-x86_64-x64-vc14-release:sip_endpoint.obj
 0002:000018b0       ??_C@_0DD@CJCKLIHE@?$CFs?5from?5?$CFs?3?$CFd?5was?5dropped?1unhan@ 000000014002b8b0     pjsip-core-x86_64-x64-vc14-release:sip_endpoint.obj
 0002:000018e8       ??_C@_0M@HFADNKMO@?3?5?$FLerr?5?$CFd?$FN?5@ 000000014002b8e8     pjsip-core-x86_64-x64-vc14-release:sip_endpoint.obj
 0002:000018f8       ??_C@_0BD@LFIBIDIN@pjsip_endpt_dump?$CI?$CJ@ 000000014002b8f8     pjsip-core-x86_64-x64-vc14-release:sip_endpoint.obj
 0002:00001910       ??_C@_0BF@NCGFABFO@Dumping?5endpoint?5?$CFp?3@ 000000014002b910     pjsip-core-x86_64-x64-vc14-release:sip_endpoint.obj
 0002:00001928       ??_C@_0CJ@IKGHIDDJ@?5Endpoint?5pool?5capacity?$DN?$CFu?0?5use@ 000000014002b928     pjsip-core-x86_64-x64-vc14-release:sip_endpoint.obj
 0002:00001958       ??_C@_0N@IDBMKGKC@UNIDENTIFIED@ 000000014002b958     pjsip-core-x86_64-x64-vc14-release:sip_util.obj
 0002:00001968       ??_C@_05BLGDNOJI@TIMER@    000000014002b968     pjsip-core-x86_64-x64-vc14-release:sip_util.obj
 0002:00001970       ??_C@_06FHCLPGGO@TX_MSG@   000000014002b970     pjsip-core-x86_64-x64-vc14-release:sip_util.obj
 0002:00001978       ??_C@_06DEPLMDFE@RX_MSG@   000000014002b978     pjsip-core-x86_64-x64-vc14-release:sip_util.obj
 0002:00001980       ??_C@_0BA@DJFINPGH@TRANSPORT_ERROR@ 000000014002b980     pjsip-core-x86_64-x64-vc14-release:sip_util.obj
 0002:00001990       ??_C@_09DGJBKMAD@TSX_STATE@ 000000014002b990     pjsip-core-x86_64-x64-vc14-release:sip_util.obj
 0002:0000199c       ??_C@_04OOEKJIOI@USER@     000000014002b99c     pjsip-core-x86_64-x64-vc14-release:sip_util.obj
 0002:000019a4       ??_C@_04CIMGMMMG@text@     000000014002b9a4     pjsip-core-x86_64-x64-vc14-release:sip_util.obj
 0002:000019ac       ??_C@_05CGDPOPDB@plain@    000000014002b9ac     pjsip-core-x86_64-x64-vc14-release:sip_util.obj
 0002:000019b8       ??_C@_0M@PJOLBNIF@?$CFs?5created?4@ 000000014002b9b8     pjsip-core-x86_64-x64-vc14-release:sip_util.obj
 0002:000019c8       ??_C@_08OKOOPKMJ@endpoint@ 000000014002b9c8     pjsip-core-x86_64-x64-vc14-release:sip_util.obj
 0002:000019d8       ??_C@_0L@IOBEOHFD@?$CFs?5created@ 000000014002b9d8     pjsip-core-x86_64-x64-vc14-release:sip_util.obj
 0002:000019f0       ??_C@_0ED@BNKEGDBC@Automatic?5switch?5to?5TLS?5transpo@ 000000014002b9f0     pjsip-core-x86_64-x64-vc14-release:sip_util.obj
 0002:00001a38       ??_C@_07LDFFKCFH@z9hG4bK@  000000014002ba38     pjsip-core-x86_64-x64-vc14-release:sip_util.obj
 0002:00001a40       ??_C@_05NKHOCLEE@alias@    000000014002ba40     pjsip-core-x86_64-x64-vc14-release:sip_util.obj
 0002:00001a48       ??_C@_0DF@HEHPNNHP@?$CFs?5exceeds?5UDP?5size?5threshold?5?$CI@ 000000014002ba48     pjsip-core-x86_64-x64-vc14-release:sip_util.obj
 0002:00001a80       ??_C@_0DO@JCGKHENM@?$CFs?3?5skipping?5target?5resolution?5@ 000000014002ba80     pjsip-core-x86_64-x64-vc14-release:sip_util.obj
 0002:00001ac0       ??_C@_0BB@JCEFLFJE@0123456789abcdef@ 000000014002bac0     pjsip-core-x86_64-x64-vc14-release:sip_util_proxy.obj
 0002:00001ad8       ??_C@_0BN@EPNAIMHL@Restarting?5SIP?5UDP?5transport@ 000000014002bad8     pjsip-core-x86_64-x64-vc14-release:sip_transport_udp.obj
 0002:00001af8       ??_C@_0CD@IKKKNOLK@Error?5restarting?5SIP?5UDP?5transp@ 000000014002baf8     pjsip-core-x86_64-x64-vc14-release:sip_transport_udp.obj
 0002:00001b20       ??_C@_0BE@KOJAAPOH@sip_transport_udp?4c@ 000000014002bb20     pjsip-core-x86_64-x64-vc14-release:sip_transport_udp.obj
 0002:00001b38       ??_C@_0BN@BEFELMIM@Warning?3?5pj_ioqueue_recvfrom@ 000000014002bb38     pjsip-core-x86_64-x64-vc14-release:sip_transport_udp.obj
 0002:00001b60       ??_C@_0EC@ICGMJAB@FATAL?3?5pj_ioqueue_recvfrom?$CI?$CJ?5er@ 000000014002bb60     pjsip-core-x86_64-x64-vc14-release:sip_transport_udp.obj
 0002:00001ba8       ??_C@_0BM@INPFFNPD@SIP?5UDP?5transport?5destroyed@ 000000014002bba8     pjsip-core-x86_64-x64-vc14-release:sip_transport_udp.obj
 0002:00001bc8       ??_C@_0BJ@MMFAKBFN@udp?5?$CFs?5?$FLpublished?5as?5?$CFs?$FN@ 000000014002bbc8     pjsip-core-x86_64-x64-vc14-release:sip_transport_udp.obj
 0002:00001be8       ??_C@_07LINNJFLK@udpv6?$CFp@ 000000014002bbe8     pjsip-core-x86_64-x64-vc14-release:sip_transport_udp.obj
 0002:00001bf0       ??_C@_01OHGJGJJP@?$FL@     000000014002bbf0     pjsip-core-x86_64-x64-vc14-release:sip_transport_udp.obj
 0002:00001bf4       ??_C@_05DOGEOMC@udp?$CFp@  000000014002bbf4     pjsip-core-x86_64-x64-vc14-release:sip_transport_udp.obj
 0002:00001c00       ??_C@_07OHKHACFK@0?40?40?40@ 000000014002bc00     pjsip-core-x86_64-x64-vc14-release:sip_transport_udp.obj
 0002:00001c08       ??_C@_03LHJHGOJD@?3?30@    000000014002bc08     pjsip-core-x86_64-x64-vc14-release:sip_transport_udp.obj
 0002:00001c10       ??_C@_0DB@MDELAJDF@SIP?5?$CFs?5started?0?5published?5addre@ 000000014002bc10     pjsip-core-x86_64-x64-vc14-release:sip_transport_udp.obj
 0002:00001c48       ??_C@_0BC@BDGDHMHI@SIP?5UDP?5transport@ 000000014002bc48     pjsip-core-x86_64-x64-vc14-release:sip_transport_udp.obj
 0002:00001c60       ??_C@_0DF@PEKBCPJC@SIP?5UDP?5transport?5restarted?0?5pu@ 000000014002bc60     pjsip-core-x86_64-x64-vc14-release:sip_transport_udp.obj
 0002:00001c98       ??_C@_06BMAPCEPF@?$DLuser?$DN@ 000000014002bc98     pjsip-core-x86_64-x64-vc14-release:sip_uri.obj
 0002:00001ca0       ??_C@_0M@OGEJDPOO@?$DLtransport?$DN@ 000000014002bca0     pjsip-core-x86_64-x64-vc14-release:sip_uri.obj
 0002:00001cac       ??_C@_03KFFFHGHD@?$DLlr@   000000014002bcac     pjsip-core-x86_64-x64-vc14-release:sip_uri.obj
 0002:00001cb0       ??_C@_04CCHAHKJA@user@     000000014002bcb0     pjsip-core-x86_64-x64-vc14-release:sip_parser.obj
 0002:00001cb8       ??_C@_06GABBCIBA@method@   000000014002bcb8     pjsip-core-x86_64-x64-vc14-release:sip_parser.obj
 0002:00001cc0       ??_C@_09PBENLGJM@transport@ 000000014002bcc0     pjsip-core-x86_64-x64-vc14-release:sip_parser.obj
 0002:00001ccc       ??_C@_05LIJGAEPJ@maddr@    000000014002bccc     pjsip-core-x86_64-x64-vc14-release:sip_parser.obj
 0002:00001cd4       ??_C@_02FMHKAPNN@lr@       000000014002bcd4     pjsip-core-x86_64-x64-vc14-release:sip_parser.obj
 0002:00001cd8       ??_C@_03LNLCDKEI@tel@      000000014002bcd8     pjsip-core-x86_64-x64-vc14-release:sip_parser.obj
 0002:00001cdc       ??_C@_06KAEOJLJM@branch@   000000014002bcdc     pjsip-core-x86_64-x64-vc14-release:sip_parser.obj
 0002:00001ce4       ??_C@_03KAFGPDAP@ttl@      000000014002bce4     pjsip-core-x86_64-x64-vc14-release:sip_parser.obj
 0002:00001ce8       ??_C@_08CIDECLFI@received@ 000000014002bce8     pjsip-core-x86_64-x64-vc14-release:sip_parser.obj
 0002:00001cf4       ??_C@_01IIACKFLH@q@        000000014002bcf4     pjsip-core-x86_64-x64-vc14-release:sip_parser.obj
 0002:00001cf8       ??_C@_07MJGJEDBB@expires@  000000014002bcf8     pjsip-core-x86_64-x64-vc14-release:sip_parser.obj
 0002:00001d00       ??_C@_03FJEPELFP@tag@      000000014002bd00     pjsip-core-x86_64-x64-vc14-release:sip_parser.obj
 0002:00001d04       ??_C@_05IOGGPFMA@rport@    000000014002bd04     pjsip-core-x86_64-x64-vc14-release:sip_parser.obj
 0002:00001d10       ??_C@_0EG@NDDOOCLK@NULL?5input?5string?0?5invalid?5inpu@ 000000014002bd10     pjsip-core-x86_64-x64-vc14-release:sip_parser.obj
 0002:00001d58       ??_C@_0DG@PAKEPEOC@String?5value?5was?5less?5than?5the?5@ 000000014002bd58     pjsip-core-x86_64-x64-vc14-release:sip_parser.obj
 0002:00001d90       ??_C@_0DJ@LBDEGIMP@String?5value?5was?5greater?5than?5t@ 000000014002bd90     pjsip-core-x86_64-x64-vc14-release:sip_parser.obj
 0002:00001dd0       ??_C@_0O@NIPGCINC@Unknown?5error@ 000000014002bdd0     pjsip-core-x86_64-x64-vc14-release:sip_parser.obj
 0002:00001de0       ??_C@_0BJ@JCIGOHAI@Error?5parsing?5?8?$CF?4?$CKs?8?3?5?$CFs@ 000000014002bde0     pjsip-core-x86_64-x64-vc14-release:sip_parser.obj
 0002:00001e00       ??_C@_0N@CDHGOKB@sip_parser?4c@ 000000014002be00     pjsip-core-x86_64-x64-vc14-release:sip_parser.obj
 0002:00001e10       ??_C@_0BN@NMLJIDND@Can?8t?5parse?5input?5string?3?5?$CFs@ 000000014002be10     pjsip-core-x86_64-x64-vc14-release:sip_parser.obj
 0002:00001e30       ??_C@_0BD@IGJCFAAL@PJSIP?5syntax?5error@ 000000014002be30     pjsip-core-x86_64-x64-vc14-release:sip_parser.obj
 0002:00001e48       ??_C@_0BK@PNNGKLIN@PJSIP?5invalid?5value?5error@ 000000014002be48     pjsip-core-x86_64-x64-vc14-release:sip_parser.obj
 0002:00001e64       ??_C@_02PCIJFNDE@?$AN?6@   000000014002be64     pjsip-core-x86_64-x64-vc14-release:sip_parser.obj
 0002:00001e68       ??_C@_03MGGIELLM@?0?$AN?6@ 000000014002be68     pjsip-core-x86_64-x64-vc14-release:sip_parser.obj
 0002:00001e70       ??_C@_0L@LGCFMBHL@?9?4?$CB?$CF?$CK_?$GA?8?$HO?$CL@ 000000014002be70     pjsip-core-x86_64-x64-vc14-release:sip_parser.obj
 0002:00001e7c       ??_C@_01FGNFDNOH@?$CF@     000000014002be7c     pjsip-core-x86_64-x64-vc14-release:sip_parser.obj
 0002:00001e80       ??_C@_03OEFOOLBP@?$FL?3?$FN@ 000000014002be80     pjsip-core-x86_64-x64-vc14-release:sip_parser.obj
 0002:00001e84       ??_C@_03HGEHODII@_?9?4@    000000014002be84     pjsip-core-x86_64-x64-vc14-release:sip_parser.obj
 0002:00001e88       ??_C@_0N@INHGOOCE@abcdefABCDEF@ 000000014002be88     pjsip-core-x86_64-x64-vc14-release:sip_parser.obj
 0002:00001e98       ??_C@_0BC@EIHPKHIH@?$FL?$FN?1?3?$CG?$CL$?9_?4?$CB?$HO?$CK?8?$CI?$CJ?$CF@ 000000014002be98     pjsip-core-x86_64-x64-vc14-release:sip_parser.obj
 0002:00001eb0       ??_C@_0BC@DHLPLEEN@?$FL?$FN?1?$DP?3?$CL$?9_?4?$CB?$HO?$CK?8?$CI?$CJ?$CF@ 000000014002beb0     pjsip-core-x86_64-x64-vc14-release:sip_parser.obj
 0002:00001ec8       ??_C@_0BD@FAKEDBHK@?9_?4?$CB?$HO?$CK?8?$CI?$CJ?$CF?$CG?$DN?$CL$?0?$DL?$DP?1@ 000000014002bec8     pjsip-core-x86_64-x64-vc14-release:sip_parser.obj
 0002:00001edc       ??_C@_01IPJKGB@?$CD@       000000014002bedc     pjsip-core-x86_64-x64-vc14-release:sip_parser.obj
 0002:00001ee0       ??_C@_0BA@GJPAFF@?9_?4?$CB?$HO?$CK?8?$CI?$CJ?$CF?$CG?$DN?$CL$?0@ 000000014002bee0     pjsip-core-x86_64-x64-vc14-release:sip_parser.obj
 0002:00001ef0       ??_C@_04INEOGBDO@?$EA?5?6?$DO@ 000000014002bef0     pjsip-core-x86_64-x64-vc14-release:sip_parser.obj
 0002:00001ef8       ??_C@_04FOECIMDB@?3?$AN?6?$DM@ 000000014002bef8     pjsip-core-x86_64-x64-vc14-release:sip_parser.obj
 0002:00001f00       ??_C@_0BH@KMKLEGFJ@?$CD?$DP?$DL?3?$EA?$CG?$DN?$CL?9_?4?$CB?$HO?$CK?8?$CI?$CJ?$CF$?0?1?$CF@ 000000014002bf00     pjsip-core-x86_64-x64-vc14-release:sip_parser.obj
 0002:00001f18       ??_C@_03EDDBLLFO@?6?$AN?6@ 000000014002bf18     pjsip-core-x86_64-x64-vc14-release:sip_parser.obj
 0002:00001f1c       ??_C@_03MCPDGLLE@SIP@      000000014002bf1c     pjsip-core-x86_64-x64-vc14-release:sip_parser.obj
 0002:00001f20       ??_C@_03GJAMENNA@2?40@     000000014002bf20     pjsip-core-x86_64-x64-vc14-release:sip_parser.obj
 0002:00001f28       ??_C@_09FEKOPBOI@multipart@ 000000014002bf28     pjsip-core-x86_64-x64-vc14-release:sip_parser.obj
 0002:00001f38       ??_C@_0N@KMCODECP@Request?5Line@ 000000014002bf38     pjsip-core-x86_64-x64-vc14-release:sip_parser.obj
 0002:00001f48       ??_C@_0M@KNCMEJPH@Status?5Line@ 000000014002bf48     pjsip-core-x86_64-x64-vc14-release:sip_parser.obj
 0002:00001f54       ??_C@_01CLKCMJKC@?5@       000000014002bf54     pjsip-core-x86_64-x64-vc14-release:sip_parser.obj
 0002:00001f58       ??_C@_0CM@MBFLJJMP@Error?5parsing?5header?3?5?8?$CF?4?$CKs?8?5li@ 000000014002bf58     pjsip-core-x86_64-x64-vc14-release:sip_parser.obj
 0002:00001f90       ??_C@_0FJ@MFGCGKIL@DNS?5resolver?5not?5available?0?5tar@ 000000014002bf90     pjsip-core-x86_64-x64-vc14-release:sip_resolve.obj
 0002:00001ff0       ??_C@_0O@DMBGNNMG@sip_resolve?4c@ 000000014002bff0     pjsip-core-x86_64-x64-vc14-release:sip_resolve.obj
 0002:00002000       ??_C@_0DH@DPGIKKNN@Target?5?8?$CF?4?$CKs?3?$CFd?8?5type?$DN?$CFs?5resolv@ 000000014002c000     pjsip-core-x86_64-x64-vc14-release:sip_resolve.obj
 0002:00002038       ??_C@_0M@EKOGDFHO@_sips?4_tcp?4@ 000000014002c038     pjsip-core-x86_64-x64-vc14-release:sip_resolve.obj
 0002:00002048       ??_C@_0L@CGLNHIHI@_sip?4_tcp?4@ 000000014002c048     pjsip-core-x86_64-x64-vc14-release:sip_resolve.obj
 0002:00002058       ??_C@_0L@IGAKGJHB@_sip?4_udp?4@ 000000014002c058     pjsip-core-x86_64-x64-vc14-release:sip_resolve.obj
 0002:00002070       ??_C@_0EE@KKBDDFND@Starting?5async?5DNS?5?$CFs?5query?3?5ta@ 000000014002c070     pjsip-core-x86_64-x64-vc14-release:sip_resolve.obj
 0002:000020b8       ??_C@_0BJ@LIPABGDO@Failed?5to?5resolve?5?8?$CF?4?$CKs?8@ 000000014002c0b8     pjsip-core-x86_64-x64-vc14-release:sip_resolve.obj
 0002:000020d8       ??_C@_0BP@NGGNJHPJ@DNS?5A?5record?5resolution?5failed@ 000000014002c0d8     pjsip-core-x86_64-x64-vc14-release:sip_resolve.obj
 0002:000020f8       ??_C@_0CC@PEAOFPBC@DNS?5AAAA?5record?5resolution?5fail@ 000000014002c0f8     pjsip-core-x86_64-x64-vc14-release:sip_resolve.obj
 0002:00002120       ??_C@_0CE@PFLKGBGN@DNS?5A?1AAAA?5record?5resolution?5fa@ 000000014002c120     pjsip-core-x86_64-x64-vc14-release:sip_resolve.obj
 0002:00002620       ??_C@_0BN@NDHPCAAG@Object?5is?5busy?5?$CIPJSIP_EBUSY?$CJ@ 000000014002c620     pjsip-core-x86_64-x64-vc14-release:sip_errno.obj
 0002:00002640       ??_C@_0DF@LHIGDAHP@Object?5with?5the?5same?5type?5exist@ 000000014002c640     pjsip-core-x86_64-x64-vc14-release:sip_errno.obj
 0002:00002678       ??_C@_0CK@JJDNDGNE@SIP?5stack?5shutting?5down?5?$CIPJSIP_@ 000000014002c678     pjsip-core-x86_64-x64-vc14-release:sip_errno.obj
 0002:000026a8       ??_C@_0DH@GEJHNFDM@SIP?5object?5is?5not?5initialized?4?5@ 000000014002c6a8     pjsip-core-x86_64-x64-vc14-release:sip_errno.obj
 0002:000026e0       ??_C@_0DF@DFCKLJD@Missing?5route?5set?5?$CIfor?5tel?3?5URI@ 000000014002c6e0     pjsip-core-x86_64-x64-vc14-release:sip_errno.obj
 0002:00002718       ??_C@_0DB@LNGCHBD@Invalid?5message?1syntax?5error?5?$CIP@ 000000014002c718     pjsip-core-x86_64-x64-vc14-release:sip_errno.obj
 0002:00002750       ??_C@_0DB@NNKMNMEK@Expecting?5request?5message?5?$CIPJSI@ 000000014002c750     pjsip-core-x86_64-x64-vc14-release:sip_errno.obj
 0002:00002788       ??_C@_0DD@MODFKCPK@Expecting?5response?5message?5?$CIPJS@ 000000014002c788     pjsip-core-x86_64-x64-vc14-release:sip_errno.obj
 0002:000027c0       ??_C@_0CF@NOACODOC@Message?5too?5long?5?$CIPJSIP_EMSGTOO@ 000000014002c7c0     pjsip-core-x86_64-x64-vc14-release:sip_errno.obj
 0002:000027e8       ??_C@_0CE@FONCLLMK@Partial?5message?5?$CIPJSIP_EPARTIAL@ 000000014002c7e8     pjsip-core-x86_64-x64-vc14-release:sip_errno.obj
 0002:00002810       ??_C@_0DK@HMGLEHFD@Invalid?1unexpected?5SIP?5status?5c@ 000000014002c810     pjsip-core-x86_64-x64-vc14-release:sip_errno.obj
 0002:00002850       ??_C@_0CA@ICJGNPBL@Invalid?5URI?5?$CIPJSIP_EINVALIDURI?$CJ@ 000000014002c850     pjsip-core-x86_64-x64-vc14-release:sip_errno.obj
 0002:00002870       ??_C@_0CK@PDIHHAGH@Invalid?5URI?5scheme?5?$CIPJSIP_EINVA@ 000000014002c870     pjsip-core-x86_64-x64-vc14-release:sip_errno.obj
 0002:000028a0       ??_C@_0CL@FGPCAKCH@Missing?5Request?9URI?5?$CIPJSIP_EMIS@ 000000014002c8a0     pjsip-core-x86_64-x64-vc14-release:sip_errno.obj
 0002:000028d0       ??_C@_0CL@JOKFDOLI@Invalid?5Request?5URI?5?$CIPJSIP_EINV@ 000000014002c8d0     pjsip-core-x86_64-x64-vc14-release:sip_errno.obj
 0002:00002900       ??_C@_0CE@NBJPLEOO@URI?5is?5too?5long?5?$CIPJSIP_EURITOOL@ 000000014002c900     pjsip-core-x86_64-x64-vc14-release:sip_errno.obj
 0002:00002928       ??_C@_0CP@PNHNBIME@Missing?5required?5header?$CIs?$CJ?5?$CIPJS@ 000000014002c928     pjsip-core-x86_64-x64-vc14-release:sip_errno.obj
 0002:00002958       ??_C@_0CJ@GFIBJIAO@Invalid?5header?5field?5?$CIPJSIP_EIN@ 000000014002c958     pjsip-core-x86_64-x64-vc14-release:sip_errno.obj
 0002:00002988       ??_C@_0CH@NDGOCBBP@Invalid?5Via?5header?5?$CIPJSIP_EINVA@ 000000014002c988     pjsip-core-x86_64-x64-vc14-release:sip_errno.obj
 0002:000029b0       ??_C@_0DG@HLMABLPG@Multiple?5Via?5headers?5in?5respons@ 000000014002c9b0     pjsip-core-x86_64-x64-vc14-release:sip_errno.obj
 0002:000029e8       ??_C@_0CK@LJCOFGPN@Missing?5message?5body?5?$CIPJSIP_EMI@ 000000014002c9e8     pjsip-core-x86_64-x64-vc14-release:sip_errno.obj
 0002:00002a18       ??_C@_0DB@NINEONMP@Invalid?1unexpected?5method?5?$CIPJSI@ 000000014002ca18     pjsip-core-x86_64-x64-vc14-release:sip_errno.obj
 0002:00002a50       ??_C@_0CO@MKNJKJDL@Unsupported?5transport?5?$CIPJSIP_EU@ 000000014002ca50     pjsip-core-x86_64-x64-vc14-release:sip_errno.obj
 0002:00002a80       ??_C@_0DD@FMJGJHHJ@Transmit?5buffer?5already?5pending@ 000000014002ca80     pjsip-core-x86_64-x64-vc14-release:sip_errno.obj
 0002:00002ab8       ??_C@_0CH@FGKEPDFL@Rx?5buffer?5overflow?5?$CIPJSIP_ERXOV@ 000000014002cab8     pjsip-core-x86_64-x64-vc14-release:sip_errno.obj
 0002:00002ae0       ??_C@_0CH@IPJBAOPN@Buffer?5destroyed?5?$CIPJSIP_EBUFDES@ 000000014002cae0     pjsip-core-x86_64-x64-vc14-release:sip_errno.obj
 0002:00002b08       ??_C@_0DF@PBAMDOH@Unsuitable?5transport?5selected?5?$CI@ 000000014002cb08     pjsip-core-x86_64-x64-vc14-release:sip_errno.obj
 0002:00002b40       ??_C@_0DE@NJLNEKOM@Transport?5not?5available?5for?5use@ 000000014002cb40     pjsip-core-x86_64-x64-vc14-release:sip_errno.obj
 0002:00002b78       ??_C@_0DF@DPMOHHML@Transaction?5has?5been?5destroyed?5@ 000000014002cb78     pjsip-core-x86_64-x64-vc14-release:sip_errno.obj
 0002:00002bb0       ??_C@_0FM@JGDLJGMK@No?5transaction?5is?5associated?5wi@ 000000014002cbb0     pjsip-core-x86_64-x64-vc14-release:sip_errno.obj
 0002:00002c10       ??_C@_0CH@EBPFAGMB@URI?5scheme?5mismatch?5?$CIPJSIP_ECMP@ 000000014002cc10     pjsip-core-x86_64-x64-vc14-release:sip_errno.obj
 0002:00002c38       ??_C@_0CI@DCNDLDIL@URI?5user?5part?5mismatch?5?$CIPJSIP_E@ 000000014002cc38     pjsip-core-x86_64-x64-vc14-release:sip_errno.obj
 0002:00002c60       ??_C@_0CO@NLCBDNGP@URI?5password?5part?5mismatch?5?$CIPJS@ 000000014002cc60     pjsip-core-x86_64-x64-vc14-release:sip_errno.obj
 0002:00002c90       ??_C@_0CI@CAAENIBN@URI?5host?5part?5mismatch?5?$CIPJSIP_E@ 000000014002cc90     pjsip-core-x86_64-x64-vc14-release:sip_errno.obj
 0002:00002cb8       ??_C@_0CD@LGFLCNGN@URI?5port?5mismatch?5?$CIPJSIP_ECMPPO@ 000000014002ccb8     pjsip-core-x86_64-x64-vc14-release:sip_errno.obj
 0002:00002ce0       ??_C@_0DG@KAIIGJOM@URI?5transport?5param?5mismatch?5?$CIP@ 000000014002cce0     pjsip-core-x86_64-x64-vc14-release:sip_errno.obj
 0002:00002d18       ??_C@_0CM@PONOAHFI@URI?5ttl?5param?5mismatch?5?$CIPJSIP_E@ 000000014002cd18     pjsip-core-x86_64-x64-vc14-release:sip_errno.obj
 0002:00002d48       ??_C@_0CO@PNILAMMK@URI?5user?5param?5mismatch?5?$CIPJSIP_@ 000000014002cd48     pjsip-core-x86_64-x64-vc14-release:sip_errno.obj
 0002:00002d78       ??_C@_0DC@BPANLPFC@URI?5method?5param?5mismatch?5?$CIPJSI@ 000000014002cd78     pjsip-core-x86_64-x64-vc14-release:sip_errno.obj
 0002:00002db0       ??_C@_0DA@HIHPGKKA@URI?5maddr?5param?5mismatch?5?$CIPJSIP@ 000000014002cdb0     pjsip-core-x86_64-x64-vc14-release:sip_errno.obj
 0002:00002de0       ??_C@_0DA@DADPPELC@URI?5other?5param?5mismatch?5?$CIPJSIP@ 000000014002cde0     pjsip-core-x86_64-x64-vc14-release:sip_errno.obj
 0002:00002e10       ??_C@_0DG@CFNMFPOM@URI?5header?5parameter?5mismatch?5?$CI@ 000000014002ce10     pjsip-core-x86_64-x64-vc14-release:sip_errno.obj
 0002:00002e48       ??_C@_0DM@LOOBEDNN@Credential?5failed?5to?5authentica@ 000000014002ce48     pjsip-core-x86_64-x64-vc14-release:sip_errno.obj
 0002:00002e88       ??_C@_0CN@IIEEILJJ@No?5suitable?5credential?5?$CIPJSIP_E@ 000000014002ce88     pjsip-core-x86_64-x64-vc14-release:sip_errno.obj
 0002:00002eb8       ??_C@_0DP@NGPGIDFF@Invalid?1unsupported?5digest?5algo@ 000000014002ceb8     pjsip-core-x86_64-x64-vc14-release:sip_errno.obj
 0002:00002ef8       ??_C@_0DD@GJOGBLMF@Invalid?1unsupported?5digest?5qop?5@ 000000014002cef8     pjsip-core-x86_64-x64-vc14-release:sip_errno.obj
 0002:00002f30       ??_C@_0DN@GPEKONDD@Unsupported?5authentication?5sche@ 000000014002cf30     pjsip-core-x86_64-x64-vc14-release:sip_errno.obj
 0002:00002f70       ??_C@_0CO@BMGFFPME@No?5previous?5challenge?5?$CIPJSIP_EA@ 000000014002cf70     pjsip-core-x86_64-x64-vc14-release:sip_errno.obj
 0002:00002fa0       ??_C@_0DF@DNNICPPN@No?5suitable?5authorization?5heade@ 000000014002cfa0     pjsip-core-x86_64-x64-vc14-release:sip_errno.obj
 0002:00002fd8       ??_C@_0DJ@LPEDCKOO@Account?5or?5credential?5not?5found@ 000000014002cfd8     pjsip-core-x86_64-x64-vc14-release:sip_errno.obj
 0002:00003018       ??_C@_0DL@CMLHLLPG@Account?5or?5credential?5is?5disabl@ 000000014002d018     pjsip-core-x86_64-x64-vc14-release:sip_errno.obj
 0002:00003058       ??_C@_0DG@HIIKPIBJ@Invalid?5authorization?5realm?5?$CIPJ@ 000000014002d058     pjsip-core-x86_64-x64-vc14-release:sip_errno.obj
 0002:00003090       ??_C@_0DI@MHHCMF@Invalid?5authorization?5digest?5?$CIP@ 000000014002d090     pjsip-core-x86_64-x64-vc14-release:sip_errno.obj
 0002:000030d0       ??_C@_0EB@JCHOOAEG@Maximum?5number?5of?5stale?5retries@ 000000014002d0d0     pjsip-core-x86_64-x64-vc14-release:sip_errno.obj
 0002:00003120       ??_C@_0EF@LIONEPAL@Invalid?5nonce?5value?5in?5authenti@ 000000014002d120     pjsip-core-x86_64-x64-vc14-release:sip_errno.obj
 0002:00003168       ??_C@_0CO@PNJFNJKN@Invalid?5AKA?5credential?5?$CIPJSIP_E@ 000000014002d168     pjsip-core-x86_64-x64-vc14-release:sip_errno.obj
 0002:00003198       ??_C@_0CK@IIJPHHCN@No?5challenge?5is?5found?5?$CIPJSIP_EA@ 000000014002d198     pjsip-core-x86_64-x64-vc14-release:sip_errno.obj
 0002:000031c8       ??_C@_0DC@HLPJEBKI@Missing?5From?1To?5tag?5parameter?5?$CI@ 000000014002d1c8     pjsip-core-x86_64-x64-vc14-release:sip_errno.obj
 0002:00003200       ??_C@_0CK@NLEHMEII@Expecting?5REFER?5request?5?$CIPJSIP_@ 000000014002d200     pjsip-core-x86_64-x64-vc14-release:sip_errno.obj
 0002:00003230       ??_C@_0DP@GMKFENNH@Not?5associated?5with?5REFER?5subsc@ 000000014002d230     pjsip-core-x86_64-x64-vc14-release:sip_errno.obj
 0002:00003270       ??_C@_0DN@EOKOKJCK@INVITE?5session?5already?5terminat@ 000000014002d270     pjsip-core-x86_64-x64-vc14-release:sip_errno.obj
 0002:000032b0       ??_C@_0DD@DMBFAKPC@Invalid?5INVITE?5session?5state?5?$CIP@ 000000014002d2b0     pjsip-core-x86_64-x64-vc14-release:sip_errno.obj
 0002:000032e8       ??_C@_0DK@CJAGEDOD@Require?5secure?5session?1transpor@ 000000014002d2e8     pjsip-core-x86_64-x64-vc14-release:sip_errno.obj
 0002:00003328       ??_C@_0CH@HBADBAEP@Unknown?5TLS?5error?5?$CIPJSIP_TLS_EU@ 000000014002d328     pjsip-core-x86_64-x64-vc14-release:sip_errno.obj
 0002:00003350       ??_C@_0DD@NFLPGFPJ@Invalid?5SSL?5protocol?5method?5?$CIPJ@ 000000014002d350     pjsip-core-x86_64-x64-vc14-release:sip_errno.obj
 0002:00003388       ??_C@_0DN@LHDHPIOK@Error?5loading?1verifying?5SSL?5CA?5@ 000000014002d388     pjsip-core-x86_64-x64-vc14-release:sip_errno.obj
 0002:000033c8       ??_C@_0DP@NPMNFNID@Error?5loading?5SSL?5certificate?5c@ 000000014002d3c8     pjsip-core-x86_64-x64-vc14-release:sip_errno.obj
 0002:00003410       ??_C@_0EI@PNDINLEB@Error?5adding?5private?5key?5from?5S@ 000000014002d410     pjsip-core-x86_64-x64-vc14-release:sip_errno.obj
 0002:00003458       ??_C@_0DC@HMDIEPNK@Error?5setting?5SSL?5cipher?5list?5?$CI@ 000000014002d458     pjsip-core-x86_64-x64-vc14-release:sip_errno.obj
 0002:00003490       ??_C@_0CM@KJHKFFIL@Error?5creating?5SSL?5context?5?$CIPJS@ 000000014002d490     pjsip-core-x86_64-x64-vc14-release:sip_errno.obj
 0002:000034c0       ??_C@_0DK@GBGOJKMK@Error?5creating?5SSL?5connection?5o@ 000000014002d4c0     pjsip-core-x86_64-x64-vc14-release:sip_errno.obj
 0002:00003500       ??_C@_0EB@LOJLDGBN@Unknown?5error?5when?5performing?5S@ 000000014002d500     pjsip-core-x86_64-x64-vc14-release:sip_errno.obj
 0002:00003548       ??_C@_0DP@CGFDGHCM@Unknown?5error?5when?5performing?5S@ 000000014002d548     pjsip-core-x86_64-x64-vc14-release:sip_errno.obj
 0002:00003588       ??_C@_0DG@LGELLHGA@Unknown?5error?5when?5sending?5SSL?5@ 000000014002d588     pjsip-core-x86_64-x64-vc14-release:sip_errno.obj
 0002:000035c0       ??_C@_0DG@GNCBAFL@Unknown?5error?5when?5reading?5SSL?5@ 000000014002d5c0     pjsip-core-x86_64-x64-vc14-release:sip_errno.obj
 0002:000035f8       ??_C@_0DE@NMMHGAJD@SSL?5negotiation?5has?5timed?5out?5?$CI@ 000000014002d5f8     pjsip-core-x86_64-x64-vc14-release:sip_errno.obj
 0002:00003630       ??_C@_0DK@PDMPPIHB@SSL?5certificate?5verification?5er@ 000000014002d630     pjsip-core-x86_64-x64-vc14-release:sip_errno.obj
 0002:00003670       ??_C@_0BH@IINGFMKF@Unknown?5pjsip?5error?5?$CFd@ 000000014002d670     pjsip-core-x86_64-x64-vc14-release:sip_errno.obj
 0002:00003688       ??_C@_04NBIELBDC@isub@     000000014002d688     pjsip-core-x86_64-x64-vc14-release:sip_tel_uri.obj
 0002:00003690       ??_C@_03MDPCKCMI@ext@      000000014002d690     pjsip-core-x86_64-x64-vc14-release:sip_tel_uri.obj
 0002:00003698       ??_C@_0O@IMLAOJJD@phone?9context@ 000000014002d698     pjsip-core-x86_64-x64-vc14-release:sip_tel_uri.obj
 0002:000036a8       ??_C@_05OGMJFBEO@?$DLext?$DN@ 000000014002d6a8     pjsip-core-x86_64-x64-vc14-release:sip_tel_uri.obj
 0002:000036b0       ??_C@_06CECEBCPK@?$DLisub?$DN@ 000000014002d6b0     pjsip-core-x86_64-x64-vc14-release:sip_tel_uri.obj
 0002:000036b8       ??_C@_0BA@JDMJBMEF@?$DLphone?9context?$DN@ 000000014002d6b8     pjsip-core-x86_64-x64-vc14-release:sip_tel_uri.obj
 0002:000036c8       ??_C@_0P@KBNHNABO@0123456789?9?4?$CI?$CJ@ 000000014002d6c8     pjsip-core-x86_64-x64-vc14-release:sip_tel_uri.obj
 0002:000036d8       ??_C@_0CM@MMELMJHM@0123456789aAbBcCdDeEfF?$CK?$CD?9?4?$CI?$CJ?$CL01@ 000000014002d6d8     pjsip-core-x86_64-x64-vc14-release:sip_tel_uri.obj
 0002:00003704       ??_C@_04DCHJLDOJ@?9?4?$CI?$CJ@ 000000014002d704     pjsip-core-x86_64-x64-vc14-release:sip_tel_uri.obj
 0002:00003710       ??_C@_0BA@NHFLMIGM@?$CL0123456789?9?4?$CI?$CJ@ 000000014002d710     pjsip-core-x86_64-x64-vc14-release:sip_tel_uri.obj
 0002:00003720       ??_C@_0BP@LJHGJILO@?1?3?$EA?$CG$?0?$CL0123456789?9_?4?$CB?$HO?$CK?8?$CI?$CJ?$CF?$FL?$FN?$CL@ 000000014002d720     pjsip-core-x86_64-x64-vc14-release:sip_tel_uri.obj
 0002:00003740       ??_C@_01JOAMLHOP@?9@       000000014002d740     pjsip-core-x86_64-x64-vc14-release:sip_tel_uri.obj
 0002:00003748       ??_C@_0BM@IILGPONN@?$FL?$FN?1?3?$CG?$CL$0123456789?9_?4?$CB?$HO?$CK?8?$CI?$CJ?$CF@ 000000014002d748     pjsip-core-x86_64-x64-vc14-release:sip_tel_uri.obj
 0002:00003764       ??_C@_01NEMOKFLO@?$DN@     000000014002d764     pjsip-core-x86_64-x64-vc14-release:sip_tel_uri.obj
 0002:00003768       ??_C@_0O@CDKJIHHI@mod?9tsx?9layer@ 000000014002d768     pjsip-core-x86_64-x64-vc14-release:sip_transaction.obj
 0002:00003778       ??_C@_04KHKKIIL@Null@      000000014002d778     pjsip-core-x86_64-x64-vc14-release:sip_transaction.obj
 0002:00003780       ??_C@_07BNCBFEGH@Calling@  000000014002d780     pjsip-core-x86_64-x64-vc14-release:sip_transaction.obj
 0002:00003788       ??_C@_0L@BKKAFK@Proceeding@ 000000014002d788     pjsip-core-x86_64-x64-vc14-release:sip_transaction.obj
 0002:00003798       ??_C@_09MIJAKHKB@Completed@ 000000014002d798     pjsip-core-x86_64-x64-vc14-release:sip_transaction.obj
 0002:000037a8       ??_C@_09ONANMLIC@Confirmed@ 000000014002d7a8     pjsip-core-x86_64-x64-vc14-release:sip_transaction.obj
 0002:000037b8       ??_C@_0L@NNDINIPK@Terminated@ 000000014002d7b8     pjsip-core-x86_64-x64-vc14-release:sip_transaction.obj
 0002:000037c8       ??_C@_09KDBKJCNL@Destroyed@ 000000014002d7c8     pjsip-core-x86_64-x64-vc14-release:sip_transaction.obj
 0002:000037d4       ??_C@_03IIGECEEC@UAC@      000000014002d7d4     pjsip-core-x86_64-x64-vc14-release:sip_transaction.obj
 0002:000037d8       ??_C@_03MCKGDGBD@UAS@      000000014002d7d8     pjsip-core-x86_64-x64-vc14-release:sip_transaction.obj
 0002:000037e0       ??_C@_0BC@LHFGMDJJ@sip_transaction?4c@ 000000014002d7e0     pjsip-core-x86_64-x64-vc14-release:sip_transaction.obj
 0002:000037f8       ??_C@_0CC@CEIKILH@Stopping?5transaction?5layer?5modu@ 000000014002d7f8     pjsip-core-x86_64-x64-vc14-release:sip_transaction.obj
 0002:00003820       ??_C@_0CB@HOMFNBLL@Stopped?5transaction?5layer?5modul@ 000000014002d820     pjsip-core-x86_64-x64-vc14-release:sip_transaction.obj
 0002:00003848       ??_C@_0CD@MKMHPCL@Transaction?5layer?5module?5destro@ 000000014002d848     pjsip-core-x86_64-x64-vc14-release:sip_transaction.obj
 0002:00003870       ??_C@_0DF@EFJDAPKP@Failed?5to?5register?5transaction?5@ 000000014002d870     pjsip-core-x86_64-x64-vc14-release:sip_transaction.obj
 0002:000038a8       ??_C@_0CI@CEFAFFOL@Retransmiting?5?$CFs?0?5count?$DN?$CFd?0?5res@ 000000014002d8a8     pjsip-core-x86_64-x64-vc14-release:sip_transaction.obj
 0002:000038d0       ??_C@_0CK@BFJIAGKI@Received?5illegal?5ACK?5for?5?$CF?4?$CKs?5t@ 000000014002d8d0     pjsip-core-x86_64-x64-vc14-release:sip_transaction.obj
 0002:00003900       ??_C@_0ID@HFOGAMPN@C?3?2Users?2WerBinIch?2Documents?2gi@ 000000014002d900     pjsip-core-x86_64-x64-vc14-release:sip_transaction.obj
 0002:00003988       ??_C@_0DE@PFNICBJL@Will?5destroy?5later?5because?5tran@ 000000014002d988     pjsip-core-x86_64-x64-vc14-release:sip_transaction.obj
 0002:000039c0       ??_C@_0CG@BHDJKKPD@State?5changed?5from?5?$CFs?5to?5?$CFs?0?5ev@ 000000014002d9c0     pjsip-core-x86_64-x64-vc14-release:sip_transaction.obj
 0002:000039e8       ??_C@_0CB@LPCILHMH@Request?5to?5terminate?5transactio@ 000000014002d9e8     pjsip-core-x86_64-x64-vc14-release:sip_transaction.obj
 0002:00003a10       ??_C@_0BI@PADDBGDM@Incoming?5?$CFs?5in?5state?5?$CFs@ 000000014002da10     pjsip-core-x86_64-x64-vc14-release:sip_transaction.obj
 0002:00003a28       ??_C@_0BP@MFDMMFDJ@Failed?5to?5send?5?$CFs?$CB?5err?$DN?$CFd?5?$CI?$CFs?$CJ@ 000000014002da28     pjsip-core-x86_64-x64-vc14-release:sip_transaction.obj
 0002:00003a48       ??_C@_0DG@HCJJGEJB@Temporary?5failure?5in?5sending?5?$CFs@ 000000014002da48     pjsip-core-x86_64-x64-vc14-release:sip_transaction.obj
 0002:00003a80       ??_C@_0BN@PMBJJBK@Transport?5failed?5to?5send?5?$CFs?$CB@ 000000014002da80     pjsip-core-x86_64-x64-vc14-release:sip_transaction.obj
 0002:00003aa0       ??_C@_0BB@HMFOJBGF@Error?5sending?5?$CFs@ 000000014002daa0     pjsip-core-x86_64-x64-vc14-release:sip_transaction.obj
 0002:00003ab8       ??_C@_0DG@EDJHIGCF@Transport?5error?0?5terminating?5tr@ 000000014002dab8     pjsip-core-x86_64-x64-vc14-release:sip_transaction.obj
 0002:00003af0       ??_C@_08KIKGFOKI@boundary@ 000000014002daf0     pjsip-core-x86_64-x64-vc14-release:sip_multipart.obj
 0002:00003afc       ??_C@_05IPHDHIPP@mixed@    000000014002dafc     pjsip-core-x86_64-x64-vc14-release:sip_multipart.obj
 0002:00003b08       ??_C@_0CI@MEJEAPPA@Warning?3?5error?5parsing?5multipar@ 000000014002db08     pjsip-core-x86_64-x64-vc14-release:sip_multipart.obj
 0002:00003b30       ??_C@_0BA@LBAHDFBC@sip_multipart?4c@ 000000014002db30     pjsip-core-x86_64-x64-vc14-release:sip_multipart.obj
 0002:00003b40       ??_C@_06IJPNAHC@digest@    000000014002db40     pjsip-core-x86_64-x64-vc14-release:sip_multipart.obj
 0002:00003b48       ??_C@_07ONPBMBOP@message@  000000014002db48     pjsip-core-x86_64-x64-vc14-release:sip_multipart.obj
 0002:00003b50       ??_C@_06OGFLLFJI@rfc822@   000000014002db50     pjsip-core-x86_64-x64-vc14-release:sip_multipart.obj
 0002:00003b60       ??_C@_0FD@FFFCNLOH@Warning?3?5boundary?5parameter?5not@ 000000014002db60     pjsip-core-x86_64-x64-vc14-release:sip_multipart.obj
 0002:00003bc0       ??_C@_0EO@HHPEFGCJ@Error?3?5multipart?5boundary?5not?5s@ 000000014002dbc0     pjsip-core-x86_64-x64-vc14-release:sip_multipart.obj
 0002:00003c10       pjsip_USERNAME_STR         000000014002dc10     pjsip-core-x86_64-x64-vc14-release:sip_auth_parser.obj
 0002:00003c20       pjsip_REALM_STR            000000014002dc20     pjsip-core-x86_64-x64-vc14-release:sip_auth_parser.obj
 0002:00003c30       pjsip_NONCE_STR            000000014002dc30     pjsip-core-x86_64-x64-vc14-release:sip_auth_parser.obj
 0002:00003c40       pjsip_URI_STR              000000014002dc40     pjsip-core-x86_64-x64-vc14-release:sip_auth_parser.obj
 0002:00003c50       pjsip_RESPONSE_STR         000000014002dc50     pjsip-core-x86_64-x64-vc14-release:sip_auth_parser.obj
 0002:00003c60       pjsip_ALGORITHM_STR        000000014002dc60     pjsip-core-x86_64-x64-vc14-release:sip_auth_parser.obj
 0002:00003c70       pjsip_DOMAIN_STR           000000014002dc70     pjsip-core-x86_64-x64-vc14-release:sip_auth_parser.obj
 0002:00003c80       pjsip_STALE_STR            000000014002dc80     pjsip-core-x86_64-x64-vc14-release:sip_auth_parser.obj
 0002:00003c90       pjsip_QOP_STR              000000014002dc90     pjsip-core-x86_64-x64-vc14-release:sip_auth_parser.obj
 0002:00003ca0       pjsip_CNONCE_STR           000000014002dca0     pjsip-core-x86_64-x64-vc14-release:sip_auth_parser.obj
 0002:00003cb0       pjsip_OPAQUE_STR           000000014002dcb0     pjsip-core-x86_64-x64-vc14-release:sip_auth_parser.obj
 0002:00003cc0       pjsip_NC_STR               000000014002dcc0     pjsip-core-x86_64-x64-vc14-release:sip_auth_parser.obj
 0002:00003cd0       pjsip_TRUE_STR             000000014002dcd0     pjsip-core-x86_64-x64-vc14-release:sip_auth_parser.obj
 0002:00003ce0       pjsip_FALSE_STR            000000014002dce0     pjsip-core-x86_64-x64-vc14-release:sip_auth_parser.obj
 0002:00003cf0       pjsip_DIGEST_STR           000000014002dcf0     pjsip-core-x86_64-x64-vc14-release:sip_auth_parser.obj
 0002:00003d00       pjsip_PGP_STR              000000014002dd00     pjsip-core-x86_64-x64-vc14-release:sip_auth_parser.obj
 0002:00003d10       pjsip_BEARER_STR           000000014002dd10     pjsip-core-x86_64-x64-vc14-release:sip_auth_parser.obj
 0002:00003d20       pjsip_MD5_STR              000000014002dd20     pjsip-core-x86_64-x64-vc14-release:sip_auth_parser.obj
 0002:00003d30       pjsip_AUTH_STR             000000014002dd30     pjsip-core-x86_64-x64-vc14-release:sip_auth_parser.obj
 0002:00003d40       pjsip_QUOTED_TRUE_STR      000000014002dd40     pjsip-core-x86_64-x64-vc14-release:sip_auth_parser.obj
 0002:00003d50       pjsip_QUOTED_FALSE_STR     000000014002dd50     pjsip-core-x86_64-x64-vc14-release:sip_auth_parser.obj
 0002:00003d60       pjsip_QUOTED_DIGEST_STR    000000014002dd60     pjsip-core-x86_64-x64-vc14-release:sip_auth_parser.obj
 0002:00003d70       pjsip_QUOTED_PGP_STR       000000014002dd70     pjsip-core-x86_64-x64-vc14-release:sip_auth_parser.obj
 0002:00003d80       pjsip_QUOTED_MD5_STR       000000014002dd80     pjsip-core-x86_64-x64-vc14-release:sip_auth_parser.obj
 0002:00003d90       pjsip_QUOTED_AUTH_STR      000000014002dd90     pjsip-core-x86_64-x64-vc14-release:sip_auth_parser.obj
 0002:00003da0       ??_C@_08ODGEKKOL@username@ 000000014002dda0     pjsip-core-x86_64-x64-vc14-release:sip_auth_parser.obj
 0002:00003dac       ??_C@_05ELABLNGD@realm@    000000014002ddac     pjsip-core-x86_64-x64-vc14-release:sip_auth_parser.obj
 0002:00003db4       ??_C@_05OOEDLKEB@nonce@    000000014002ddb4     pjsip-core-x86_64-x64-vc14-release:sip_auth_parser.obj
 0002:00003dbc       ??_C@_03GBBABMJN@uri@      000000014002ddbc     pjsip-core-x86_64-x64-vc14-release:sip_auth_parser.obj
 0002:00003dc0       ??_C@_08HKMEAON@response@  000000014002ddc0     pjsip-core-x86_64-x64-vc14-release:sip_auth_parser.obj
 0002:00003dd0       ??_C@_09JPNFBOJG@algorithm@ 000000014002ddd0     pjsip-core-x86_64-x64-vc14-release:sip_auth_parser.obj
 0002:00003ddc       ??_C@_06LKIIGAOE@domain@   000000014002dddc     pjsip-core-x86_64-x64-vc14-release:sip_auth_parser.obj
 0002:00003de4       ??_C@_05BFAEFKPM@stale@    000000014002dde4     pjsip-core-x86_64-x64-vc14-release:sip_auth_parser.obj
 0002:00003dec       ??_C@_03GBIMBCPB@qop@      000000014002ddec     pjsip-core-x86_64-x64-vc14-release:sip_auth_parser.obj
 0002:00003df0       ??_C@_06HILDJCOE@cnonce@   000000014002ddf0     pjsip-core-x86_64-x64-vc14-release:sip_auth_parser.obj
 0002:00003df8       ??_C@_06CJCOLNBB@opaque@   000000014002ddf8     pjsip-core-x86_64-x64-vc14-release:sip_auth_parser.obj
 0002:00003e00       ??_C@_02MCHPIKD@nc@        000000014002de00     pjsip-core-x86_64-x64-vc14-release:sip_auth_parser.obj
 0002:00003e04       ??_C@_04LOAJBDKD@true@     000000014002de04     pjsip-core-x86_64-x64-vc14-release:sip_auth_parser.obj
 0002:00003e0c       ??_C@_06JMFPOLAJ@?$CCtrue?$CC@ 000000014002de0c     pjsip-core-x86_64-x64-vc14-release:sip_auth_parser.obj
 0002:00003e14       ??_C@_05LAPONLG@false@     000000014002de14     pjsip-core-x86_64-x64-vc14-release:sip_auth_parser.obj
 0002:00003e20       ??_C@_07MGKGDKEI@?$CCfalse?$CC@ 000000014002de20     pjsip-core-x86_64-x64-vc14-release:sip_auth_parser.obj
 0002:00003e28       ??_C@_06MHCCOJOO@Digest@   000000014002de28     pjsip-core-x86_64-x64-vc14-release:sip_auth_parser.obj
 0002:00003e30       ??_C@_08MPOLMKFE@?$CCDigest?$CC@ 000000014002de30     pjsip-core-x86_64-x64-vc14-release:sip_auth_parser.obj
 0002:00003e3c       ??_C@_03NKNIOJFA@PGP@      000000014002de3c     pjsip-core-x86_64-x64-vc14-release:sip_auth_parser.obj
 0002:00003e40       ??_C@_05PBIHDNLO@?$CCPGP?$CC@ 000000014002de40     pjsip-core-x86_64-x64-vc14-release:sip_auth_parser.obj
 0002:00003e48       ??_C@_06NPEPPOGN@Bearer@   000000014002de48     pjsip-core-x86_64-x64-vc14-release:sip_auth_parser.obj
 0002:00003e50       ??_C@_03PKBIKOHH@md5@      000000014002de50     pjsip-core-x86_64-x64-vc14-release:sip_auth_parser.obj
 0002:00003e54       ??_C@_05FEKNEIJC@?$CCmd5?$CC@ 000000014002de54     pjsip-core-x86_64-x64-vc14-release:sip_auth_parser.obj
 0002:00003e5c       ??_C@_04DPLCCHJC@auth@     000000014002de5c     pjsip-core-x86_64-x64-vc14-release:sip_auth_parser.obj
 0002:00003e64       ??_C@_06MNAAFAAH@?$CCauth?$CC@ 000000014002de64     pjsip-core-x86_64-x64-vc14-release:sip_auth_parser.obj
 0002:00003e70       ??_C@_0BC@OBBFELDN@mod?9stateful?9util@ 000000014002de70     pjsip-core-x86_64-x64-vc14-release:sip_util_statefull.obj
 0002:00003e88       ??_C@_09FNNDBHOE@username?$DN@ 000000014002de88     pjsip-core-x86_64-x64-vc14-release:sip_auth_msg.obj
 0002:00003e94       ??_C@_06LAMIMJOG@?0?5uri?$DN@ 000000014002de94     pjsip-core-x86_64-x64-vc14-release:sip_auth_msg.obj
 0002:00003ea0       ??_C@_0M@LHKMMNIM@?0?5response?$DN@ 000000014002dea0     pjsip-core-x86_64-x64-vc14-release:sip_auth_msg.obj
 0002:00003eb0       ??_C@_0N@CGBNHFEJ@?0?5algorithm?$DN@ 000000014002deb0     pjsip-core-x86_64-x64-vc14-release:sip_auth_msg.obj
 0002:00003ec0       ??_C@_09JMMPALKP@?0?5cnonce?$DN@ 000000014002dec0     pjsip-core-x86_64-x64-vc14-release:sip_auth_msg.obj
 0002:00003ed0       ??_C@_09FBEJJABD@?0?5opaque?$DN@ 000000014002ded0     pjsip-core-x86_64-x64-vc14-release:sip_auth_msg.obj
 0002:00003edc       ??_C@_06PEMMHIJL@?0?5qop?$DN@ 000000014002dedc     pjsip-core-x86_64-x64-vc14-release:sip_auth_msg.obj
 0002:00003ee4       ??_C@_05EBCAJOC@?0?5nc?$DN@ 000000014002dee4     pjsip-core-x86_64-x64-vc14-release:sip_auth_msg.obj
 0002:00003eec       ??_C@_06EJKNIGMP@token?$DN@ 000000014002deec     pjsip-core-x86_64-x64-vc14-release:sip_auth_msg.obj
 0002:00003ef8       ??_C@_0M@FOCLKAFD@?0?5username?$DN@ 000000014002def8     pjsip-core-x86_64-x64-vc14-release:sip_auth_msg.obj
 0002:00003f04       ??_C@_03NHCDCECM@pgp@      000000014002df04     pjsip-core-x86_64-x64-vc14-release:sip_auth_msg.obj
 0002:00003f08       ??_C@_06LOBIHJOB@realm?$DN@ 000000014002df08     pjsip-core-x86_64-x64-vc14-release:sip_auth_msg.obj
 0002:00003f10       ??_C@_07DNEKANAM@?0nonce?$DN@ 000000014002df10     pjsip-core-x86_64-x64-vc14-release:sip_auth_msg.obj
 0002:00003f18       ??_C@_07IIGBIFNN@?0stale?$DN@ 000000014002df18     pjsip-core-x86_64-x64-vc14-release:sip_auth_msg.obj
 0002:00003f20       ??_C@_0M@HOHCEKCL@?0algorithm?$DN@ 000000014002df20     pjsip-core-x86_64-x64-vc14-release:sip_auth_msg.obj
 0002:00003f2c       ??_C@_05KHLNJFNF@?0qop?$DN@ 000000014002df2c     pjsip-core-x86_64-x64-vc14-release:sip_auth_msg.obj
 0002:00004300       ??_C@_0DI@FPKNFLPC@Unable?5to?5resolve?5STUN?5server?5?$CI@ 000000014002e300     pjlib-util-x86_64-x64-vc14-release:errno.obj
 0002:00004338       ??_C@_0DG@MLIAHJMC@Unknown?5STUN?5message?5type?5?$CIPJLI@ 000000014002e338     pjlib-util-x86_64-x64-vc14-release:errno.obj
 0002:00004370       ??_C@_0DH@BGLGMNML@Invalid?5STUN?5message?5length?5?$CIPJ@ 000000014002e370     pjlib-util-x86_64-x64-vc14-release:errno.obj
 0002:000043a8       ??_C@_0DI@MNKBLDCO@STUN?5attribute?5length?5error?5?$CIPJ@ 000000014002e3a8     pjlib-util-x86_64-x64-vc14-release:errno.obj
 0002:000043e0       ??_C@_0DJ@GEFJCPHI@Invalid?5STUN?5attribute?5type?5?$CIPJ@ 000000014002e3e0     pjlib-util-x86_64-x64-vc14-release:errno.obj
 0002:00004420       ??_C@_0DL@JFEBBJAB@Invalid?5STUN?5server?1socket?5inde@ 000000014002e420     pjlib-util-x86_64-x64-vc14-release:errno.obj
 0002:00004460       ??_C@_0EE@OMBAKMPD@No?5STUN?5binding?5response?5in?5the@ 000000014002e460     pjlib-util-x86_64-x64-vc14-release:errno.obj
 0002:000044a8       ??_C@_0DM@JJJKHKHH@Received?5STUN?5error?5attribute?5?$CI@ 000000014002e4a8     pjlib-util-x86_64-x64-vc14-release:errno.obj
 0002:000044e8       ??_C@_0DJ@BDPKKDEL@No?5STUN?5mapped?5address?5attribut@ 000000014002e4e8     pjlib-util-x86_64-x64-vc14-release:errno.obj
 0002:00004530       ??_C@_0ED@MIOBPJDH@Received?5no?5response?5from?5STUN?5@ 000000014002e530     pjlib-util-x86_64-x64-vc14-release:errno.obj
 0002:00004578       ??_C@_0DK@OILEGGA@Symetric?5NAT?5detected?5by?5STUN?5?$CI@ 000000014002e578     pjlib-util-x86_64-x64-vc14-release:errno.obj
 0002:000045b8       ??_C@_0CI@OKGDIDF@Invalid?5XML?5message?5?$CIPJLIB_UTIL@ 000000014002e5b8     pjlib-util-x86_64-x64-vc14-release:errno.obj
 0002:000045e0       ??_C@_0CL@IPLFEOJE@Invalid?5JSON?5document?5?$CIPJLIB_UT@ 000000014002e5e0     pjlib-util-x86_64-x64-vc14-release:errno.obj
 0002:00004610       ??_C@_0EC@KJLJANIE@DNS?5query?5packet?5buffer?5is?5too?5@ 000000014002e610     pjlib-util-x86_64-x64-vc14-release:errno.obj
 0002:00004658       ??_C@_0DC@JFKHADAC@Invalid?5DNS?5packet?5length?5?$CIPJLI@ 000000014002e658     pjlib-util-x86_64-x64-vc14-release:errno.obj
 0002:00004690       ??_C@_0CL@OCFDFFNM@Invalid?5DNS?5class?5?$CIPJLIB_UTIL_E@ 000000014002e690     pjlib-util-x86_64-x64-vc14-release:errno.obj
 0002:000046c0       ??_C@_0DE@FIPILDGP@Invalid?5DNS?5name?5pointer?5?$CIPJLIB@ 000000014002e6c0     pjlib-util-x86_64-x64-vc14-release:errno.obj
 0002:000046f8       ??_C@_0DJ@NBOGGJL@Invalid?5DNS?5nameserver?5address?5@ 000000014002e6f8     pjlib-util-x86_64-x64-vc14-release:errno.obj
 0002:00004738       ??_C@_0DH@LFJGDOHB@No?5nameserver?5is?5in?5DNS?5resolve@ 000000014002e738     pjlib-util-x86_64-x64-vc14-release:errno.obj
 0002:00004770       ??_C@_0DH@PHJBLCKD@No?5working?5DNS?5nameserver?5?$CIPJLI@ 000000014002e770     pjlib-util-x86_64-x64-vc14-release:errno.obj
 0002:000047b0       ??_C@_0EC@HJFBNLFC@No?5answer?5record?5in?5the?5DNS?5res@ 000000014002e7b0     pjlib-util-x86_64-x64-vc14-release:errno.obj
 0002:000047f8       ??_C@_0CN@DEFBDJKF@Invalid?5DNS?5answer?5?$CIPJLIB_UTIL_@ 000000014002e7f8     pjlib-util-x86_64-x64-vc14-release:errno.obj
 0002:00004828       ??_C@_0CN@BCAAPMPM@DNS?5?$CCFormat?5error?$CC?5?$CIPJLIB_UTIL_@ 000000014002e828     pjlib-util-x86_64-x64-vc14-release:errno.obj
 0002:00004858       ??_C@_0DA@NBPIIAHM@DNS?5?$CCServer?5failure?$CC?5?$CIPJLIB_UTI@ 000000014002e858     pjlib-util-x86_64-x64-vc14-release:errno.obj
 0002:00004888       ??_C@_0CM@CNNJNBCA@DNS?5?$CCName?5Error?$CC?5?$CIPJLIB_UTIL_ED@ 000000014002e888     pjlib-util-x86_64-x64-vc14-release:errno.obj
 0002:000048b8       ??_C@_0DA@DIMDKHPM@DNS?5?$CCNot?5Implemented?$CC?5?$CIPJLIB_UT@ 000000014002e8b8     pjlib-util-x86_64-x64-vc14-release:errno.obj
 0002:000048e8       ??_C@_0CI@LDMKLLKJ@DNS?5?$CCRefused?$CC?5?$CIPJLIB_UTIL_EDNS_@ 000000014002e8e8     pjlib-util-x86_64-x64-vc14-release:errno.obj
 0002:00004910       ??_C@_0DB@PFAMNHPJ@DNS?5?$CCThe?5name?5exists?$CC?5?$CIPJLIB_UT@ 000000014002e910     pjlib-util-x86_64-x64-vc14-release:errno.obj
 0002:00004948       ??_C@_0DO@OIIHMCI@DNS?5?$CCThe?5RRset?5?$CIname?0?5type?$CJ?5exi@ 000000014002e948     pjlib-util-x86_64-x64-vc14-release:errno.obj
 0002:00004990       ??_C@_0EG@OMHMBNML@DNS?5?$CCThe?5RRset?5?$CIname?0?5type?$CJ?5doe@ 000000014002e990     pjlib-util-x86_64-x64-vc14-release:errno.obj
 0002:000049d8       ??_C@_0CP@HJODAHHO@DNS?5?$CCNot?5authorized?$CC?5?$CIPJLIB_UTI@ 000000014002e9d8     pjlib-util-x86_64-x64-vc14-release:errno.obj
 0002:00004a10       ??_C@_0EB@GKEHOPAE@DNS?5?$CCThe?5zone?5specified?5is?5not?5@ 000000014002ea10     pjlib-util-x86_64-x64-vc14-release:errno.obj
 0002:00004a58       ??_C@_0DH@EMGNELGL@Too?5many?5STUN?5attributes?5?$CIPJLIB@ 000000014002ea58     pjlib-util-x86_64-x64-vc14-release:errno.obj
 0002:00004a90       ??_C@_0DF@KMIPDCMM@Unknown?5STUN?5attribute?5?$CIPJLIB_U@ 000000014002ea90     pjlib-util-x86_64-x64-vc14-release:errno.obj
 0002:00004ac8       ??_C@_0DP@PDBNFLFH@Invalid?5STUN?5socket?5address?5len@ 000000014002eac8     pjlib-util-x86_64-x64-vc14-release:errno.obj
 0002:00004b10       ??_C@_0EA@NAKPKGDE@STUN?5IPv6?5attribute?5not?5support@ 000000014002eb10     pjlib-util-x86_64-x64-vc14-release:errno.obj
 0002:00004b50       ??_C@_0DO@LEKPMIHP@Expecting?5STUN?5response?5message@ 000000014002eb50     pjlib-util-x86_64-x64-vc14-release:errno.obj
 0002:00004b90       ??_C@_0DJ@DDEJFFIL@STUN?5transaction?5ID?5mismatch?5?$CIP@ 000000014002eb90     pjlib-util-x86_64-x64-vc14-release:errno.obj
 0002:00004bd0       ??_C@_0EI@BNLBFIKH@Unable?5to?5find?5STUN?5handler?5for@ 000000014002ebd0     pjlib-util-x86_64-x64-vc14-release:errno.obj
 0002:00004c20       ??_C@_0FA@DIAPLEFD@Found?5non?9FINGERPRINT?5attr?4?5aft@ 000000014002ec20     pjlib-util-x86_64-x64-vc14-release:errno.obj
 0002:00004c70       ??_C@_0ED@CNMDGMPD@Found?5STUN?5attribute?5after?5FING@ 000000014002ec70     pjlib-util-x86_64-x64-vc14-release:errno.obj
 0002:00004cb8       ??_C@_0DN@JLMAJAKN@Missing?5STUN?5USERNAME?5attribute@ 000000014002ecb8     pjlib-util-x86_64-x64-vc14-release:errno.obj
 0002:00004d00       ??_C@_0EK@LMHKLKC@Missing?1invalid?5STUN?5MESSAGE?9IN@ 000000014002ed00     pjlib-util-x86_64-x64-vc14-release:errno.obj
 0002:00004d50       ??_C@_0DJ@BCFNCGF@Found?5duplicate?5STUN?5attribute?5@ 000000014002ed50     pjlib-util-x86_64-x64-vc14-release:errno.obj
 0002:00004d90       ??_C@_0DH@MMHMOPBG@Missing?5STUN?5REALM?5attribute?5?$CIP@ 000000014002ed90     pjlib-util-x86_64-x64-vc14-release:errno.obj
 0002:00004dd0       ??_C@_0EB@FGOGNHPO@Missing?1stale?5STUN?5NONCE?5attrib@ 000000014002edd0     pjlib-util-x86_64-x64-vc14-release:errno.obj
 0002:00004e20       ??_C@_0EF@HAPLEMIK@STUN?5transaction?5terminates?5wit@ 000000014002ee20     pjlib-util-x86_64-x64-vc14-release:errno.obj
 0002:00004e68       ??_C@_0CL@GOOAEBLJ@Invalid?5URL?5format?5?$CIPJLIB_UTIL_@ 000000014002ee68     pjlib-util-x86_64-x64-vc14-release:errno.obj
 0002:00004e98       ??_C@_0DB@BDFJPAOA@Invalid?5URL?5port?5number?5?$CIPJLIB_@ 000000014002ee98     pjlib-util-x86_64-x64-vc14-release:errno.obj
 0002:00004ed0       ??_C@_0DN@CABCKELB@Incomplete?5response?5header?5rece@ 000000014002eed0     pjlib-util-x86_64-x64-vc14-release:errno.obj
 0002:00004f10       ??_C@_0CN@MKMAKFDH@Insufficient?5buffer?5?$CIPJLIB_UTIL@ 000000014002ef10     pjlib-util-x86_64-x64-vc14-release:errno.obj
 0002:00004f40       ??_C@_0CH@JNBFBBKA@Connection?5lost?5?$CIPJLIB_UTIL_EHT@ 000000014002ef40     pjlib-util-x86_64-x64-vc14-release:errno.obj
 0002:00004f68       ??_C@_0CE@DHMMOEGP@Exit?5current?5session?5?$CIPJ_CLI_EE@ 000000014002ef68     pjlib-util-x86_64-x64-vc14-release:errno.obj
 0002:00004f90       ??_C@_0CG@LEDMCEME@Missing?5argument?5?$CIPJ_CLI_EMISSI@ 000000014002ef90     pjlib-util-x86_64-x64-vc14-release:errno.obj
 0002:00004fb8       ??_C@_0CJ@ECODGDHL@Too?5many?5arguments?5?$CIPJ_CLI_ETOO@ 000000014002efb8     pjlib-util-x86_64-x64-vc14-release:errno.obj
 0002:00004fe8       ??_C@_0CC@NLPGOLED@Invalid?5argument?5?$CIPJ_CLI_EINVAR@ 000000014002efe8     pjlib-util-x86_64-x64-vc14-release:errno.obj
 0002:00005010       ??_C@_0CO@OOEOBCH@Command?5name?5already?5exists?5?$CIPJ@ 000000014002f010     pjlib-util-x86_64-x64-vc14-release:errno.obj
 0002:00005040       ??_C@_0CK@MKOACJP@Command?5id?5already?5exists?5?$CIPJ_C@ 000000014002f040     pjlib-util-x86_64-x64-vc14-release:errno.obj
 0002:00005070       ??_C@_0CE@LHHCBFML@Invalid?5XML?5format?5?$CIPJ_CLI_EBAD@ 000000014002f070     pjlib-util-x86_64-x64-vc14-release:errno.obj
 0002:00005098       ??_C@_0CF@CKMLJLLP@Connection?5lost?5?$CIPJ_CLI_ETELNET@ 000000014002f098     pjlib-util-x86_64-x64-vc14-release:errno.obj
 0002:000050c0       ??_C@_0BM@LDLEGOFO@Unknown?5pjlib?9util?5error?5?$CFd@ 000000014002f0c0     pjlib-util-x86_64-x64-vc14-release:errno.obj
 0002:000050e0       ??_C@_07IAIHCIDD@Probing@  000000014002f0e0     pjlib-util-x86_64-x64-vc14-release:resolver.obj
 0002:000050e8       ??_C@_06MAFFGDO@Active@    000000014002f0e8     pjlib-util-x86_64-x64-vc14-release:resolver.obj
 0002:000050f0       ??_C@_03KHCCLPOB@Bad@      000000014002f0f0     pjlib-util-x86_64-x64-vc14-release:resolver.obj
 0002:00005100       ??_C@_0IG@HEKEAGJP@C?3?2Users?2WerBinIch?2Documents?2gi@ 000000014002f100     pjlib-util-x86_64-x64-vc14-release:resolver.obj
 0002:00005188       ??_C@_0BH@PPEBBIFJ@?0?5will?5try?5again?5later@ 000000014002f188     pjlib-util-x86_64-x64-vc14-release:resolver.obj
 0002:000051a0       ??_C@_0DC@GOFLGJND@Socket?5busy?5in?5transmitting?5DNS@ 000000014002f1a0     pjlib-util-x86_64-x64-vc14-release:resolver.obj
 0002:000051d8       ??_C@_0N@IBGJGPJN@Transmitting@ 000000014002f1d8     pjlib-util-x86_64-x64-vc14-release:resolver.obj
 0002:000051e8       ??_C@_0BA@JFAGDHFD@Re?9transmitting@ 000000014002f1e8     pjlib-util-x86_64-x64-vc14-release:resolver.obj
 0002:000051f8       ??_C@_0DC@PBGKNNLN@?$CFs?5?$CFd?5bytes?5to?5NS?5?$CFd?5?$CI?$CFs?3?$CFd?$CJ?3?5D@ 000000014002f1f8     pjlib-util-x86_64-x64-vc14-release:resolver.obj
 0002:00005230       ??_C@_0DE@LLACOPGB@Picked?5up?5DNS?5?$CFs?5record?5for?5?$CF?4?$CK@ 000000014002f230     pjlib-util-x86_64-x64-vc14-release:resolver.obj
 0002:00005268       ??_C@_0CJ@MMDCPKPE@Nameserver?5?$CFs?3?$CFd?5state?5changed?5@ 000000014002f268     pjlib-util-x86_64-x64-vc14-release:resolver.obj
 0002:00005298       ??_C@_0BL@DBKKFGCL@Error?5transmitting?5request@ 000000014002f298     pjlib-util-x86_64-x64-vc14-release:resolver.obj
 0002:000052b8       ??_C@_0BJ@DHDGEIGD@?5Dumping?5resolver?5state?3@ 000000014002f2b8     pjlib-util-x86_64-x64-vc14-release:resolver.obj
 0002:000052d8       ??_C@_0BA@BJIJOCOE@?5?5Name?5servers?3@ 000000014002f2d8     pjlib-util-x86_64-x64-vc14-release:resolver.obj
 0002:000052e8       ??_C@_0DA@FCCMJHFI@?5?5?5NS?5?$CFd?3?5?$CFs?3?$CFd?5?$CIstate?$DN?$CFs?5until@ 000000014002f2e8     pjlib-util-x86_64-x64-vc14-release:resolver.obj
 0002:00005318       ??_C@_0BO@LKJCLCIL@?5?5Nb?4?5of?5cached?5responses?3?5?$CFu@ 000000014002f318     pjlib-util-x86_64-x64-vc14-release:resolver.obj
 0002:00005338       ??_C@_0P@BMCOBHPI@?5?5?5Type?5?$CFs?3?5?$CFs@ 000000014002f338     pjlib-util-x86_64-x64-vc14-release:resolver.obj
 0002:00005348       ??_C@_0CC@ENHNPIME@?5?5Nb?4?5of?5pending?5queries?3?5?$CFu?5?$CI?$CF@ 000000014002f348     pjlib-util-x86_64-x64-vc14-release:resolver.obj
 0002:00005370       ??_C@_0CG@DNEONFED@?5?5Nb?4?5of?5pending?5query?5free?5nod@ 000000014002f370     pjlib-util-x86_64-x64-vc14-release:resolver.obj
 0002:00005398       ??_C@_0BL@OIOIOFBO@?5?5Nb?4?5of?5timer?5entries?3?5?$CFu@ 000000014002f398     pjlib-util-x86_64-x64-vc14-release:resolver.obj
 0002:000053b8       ??_C@_0CD@MOCMLNNF@?5?5Pool?5capacity?3?5?$CFd?0?5used?5size?3@ 000000014002f3b8     pjlib-util-x86_64-x64-vc14-release:resolver.obj
 0002:000053e0       __xmm@ffffffffffffffffffffffffffffffff 000000014002f3e0     pjlib-util-x86_64-x64-vc14-release:resolver.obj
 0002:000053f0       ??_C@_0IF@ECGJNPNE@C?3?2Users?2WerBinIch?2Documents?2gi@ 000000014002f3f0     pjlib-util-x86_64-x64-vc14-release:scanner.obj
 0002:00005480       __xmm@00000001000000010000000100000001 000000014002f480     pjlib-util-x86_64-x64-vc14-release:scanner.obj
 0002:00005490       ??_C@_01FHEEJDEE@A@        000000014002f490     pjlib-util-x86_64-x64-vc14-release:dns.obj
 0002:00005494       ??_C@_04OHNMNPPA@AAAA@     000000014002f494     pjlib-util-x86_64-x64-vc14-release:dns.obj
 0002:0000549c       ??_C@_03IENKIAKD@SRV@      000000014002f49c     pjlib-util-x86_64-x64-vc14-release:dns.obj
 0002:000054a0       ??_C@_02OLCMIILA@NS@       000000014002f4a0     pjlib-util-x86_64-x64-vc14-release:dns.obj
 0002:000054a4       ??_C@_05PGNGFKDN@CNAME@    000000014002f4a4     pjlib-util-x86_64-x64-vc14-release:dns.obj
 0002:000054ac       ??_C@_03PGIOJGPL@PTR@      000000014002f4ac     pjlib-util-x86_64-x64-vc14-release:dns.obj
 0002:000054b0       ??_C@_02KJOOPCC@MX@        000000014002f4b0     pjlib-util-x86_64-x64-vc14-release:dns.obj
 0002:000054b4       ??_C@_03CGKMFPEO@TXT@      000000014002f4b4     pjlib-util-x86_64-x64-vc14-release:dns.obj
 0002:000054b8       ??_C@_05DGMJPCKB@NAPTR@    000000014002f4b8     pjlib-util-x86_64-x64-vc14-release:dns.obj
 0002:000054c0       ??_C@_09ONJBBFFA@?$CIUnknown?$CJ@ 000000014002f4c0     pjlib-util-x86_64-x64-vc14-release:dns.obj
 0002:000054cc       ??_C@_01LFCBOECM@?4@       000000014002f4cc     pjlib-util-x86_64-x64-vc14-release:srv_resolver.obj
 0002:000054d0       ??_C@_0DA@GGGKMBOI@Starting?5async?5DNS?5?$CFs?5query_job@ 000000014002f4d0     pjlib-util-x86_64-x64-vc14-release:srv_resolver.obj
 0002:00005500       ??_C@_0CL@ICCMMEFF@Received?5non?5SRV?5answer?5for?5SRV@ 000000014002f500     pjlib-util-x86_64-x64-vc14-release:srv_resolver.obj
 0002:00005530       ??_C@_0BG@OENDJHLB@Hostname?5is?5too?5long?$CB@ 000000014002f530     pjlib-util-x86_64-x64-vc14-release:srv_resolver.obj
 0002:00005548       ??_C@_0BD@DHMAIAEI@Hostname?5is?5empty?$CB@ 000000014002f548     pjlib-util-x86_64-x64-vc14-release:srv_resolver.obj
 0002:00005560       ??_C@_0CJ@IGNPBKGN@Could?5not?5find?5SRV?5record?5in?5DN@ 000000014002f560     pjlib-util-x86_64-x64-vc14-release:srv_resolver.obj
 0002:00005590       ??_C@_0EE@LPMFAMKM@SRV?5query_job?5for?5?$CF?4?$CKs?5complete@ 000000014002f590     pjlib-util-x86_64-x64-vc14-release:srv_resolver.obj
 0002:000055d8       ??_C@_0BM@MJBLDIAG@?5?$CFd?3?5SRV?5?$CFd?5?$CFd?5?$CFd?5?$CF?4?$CKs?5?$CI?$CFs?$CJ@ 000000014002f5d8     pjlib-util-x86_64-x64-vc14-release:srv_resolver.obj
 0002:000055f8       ??_C@_0CI@IBPJGCBL@Starting?5async?5DNS?5A?5query_job?5@ 000000014002f5f8     pjlib-util-x86_64-x64-vc14-release:srv_resolver.obj
 0002:00005620       ??_C@_0CM@EKCLKLC@Discard?5truncated?5DNS?5SRV?5respo@ 000000014002f620     pjlib-util-x86_64-x64-vc14-release:srv_resolver.obj
 0002:00005650       ??_C@_0CH@COCLGFLO@DNS?5SRV?5resolution?5failed?5for?5?$CF@ 000000014002f650     pjlib-util-x86_64-x64-vc14-release:srv_resolver.obj
 0002:00005680       ??_C@_0EM@PBBBMOKP@DNS?5SRV?5resolution?5failed?5for?5?$CF@ 000000014002f680     pjlib-util-x86_64-x64-vc14-release:srv_resolver.obj
 0002:000056d0       ??_C@_0CG@JECPCAPF@DNS?5?$CFs?5record?5parse?5error?5for?5?8@ 000000014002f6d0     pjlib-util-x86_64-x64-vc14-release:srv_resolver.obj
 0002:000056f8       ??_C@_0CM@GNPJLEOH@Bad?5address?5family?5in?5DNS?5?$CFs?5qu@ 000000014002f6f8     pjlib-util-x86_64-x64-vc14-release:srv_resolver.obj
 0002:00005728       ??_C@_0BE@BLHHGJAP@DNS?5?$CFs?5for?5?$CF?4?$CKs?3?5?$CFs@ 000000014002f728     pjlib-util-x86_64-x64-vc14-release:srv_resolver.obj
 0002:00005740       ??_C@_0CA@PGHOBDIK@DNS?5?$CFs?5record?5resolution?5failed@ 000000014002f740     pjlib-util-x86_64-x64-vc14-release:srv_resolver.obj
 0002:00005760       ??_C@_0DF@NMOAKAGH@Server?5resolution?5complete?0?5?$CFd?5@ 000000014002f760     pjlib-util-x86_64-x64-vc14-release:srv_resolver.obj
 0002:00005798       ??_C@_0CL@MGFFFLJG@DNS?5?$CFs?5record?5resolution?5error?5@ 000000014002f798     pjlib-util-x86_64-x64-vc14-release:srv_resolver.obj
 0002:000057c4       ??_C@_04IFCNACLH@pj?$CFp@  000000014002f7c4     pjlib-x86_64-x64-vc14-release:os_core_win32.obj
 0002:000057d0       ??_C@_0BA@NGJFHJA@PJLIB?1No?5memory@ 000000014002f7d0     pjlib-x86_64-x64-vc14-release:os_core_win32.obj
 0002:000057e0       ??_C@_0BP@NGEKBPIB@pjlib?5?$CFs?5for?5win32?5initialized@ 000000014002f7e0     pjlib-x86_64-x64-vc14-release:os_core_win32.obj
 0002:00005800       ??_C@_0BA@FNCACAIG@os_core_win32?4c@ 000000014002f800     pjlib-x86_64-x64-vc14-release:os_core_win32.obj
 0002:00005810       ??_C@_0CI@EAKIIBBA@Main?5thread?5stack?5max?5usage?$DN?$CFu?5@ 000000014002f810     pjlib-x86_64-x64-vc14-release:os_core_win32.obj
 0002:00005840       ??_C@_0HO@NIBMBENE@C?3?2Users?2WerBinIch?2Documents?2gi@ 000000014002f840     pjlib-x86_64-x64-vc14-release:os_core_win32.obj
 0002:000058c0       ??_C@_05KHEDLION@thr?$CFp@ 000000014002f8c0     pjlib-x86_64-x64-vc14-release:os_core_win32.obj
 0002:000058c8       ??_C@_0CD@GPHECFNA@Thread?5stack?5max?5usage?$DN?$CFu?5by?5?$CFs@ 000000014002f8c8     pjlib-x86_64-x64-vc14-release:os_core_win32.obj
 0002:000058ec       ??_C@_05EJDHHBFJ@mtx?$CFp@ 000000014002f8ec     pjlib-x86_64-x64-vc14-release:os_core_win32.obj
 0002:000058f4       ??_C@_05EKKMALCN@sem?$CFp@ 000000014002f8f4     pjlib-x86_64-x64-vc14-release:os_core_win32.obj
 0002:00005a80       ??_C@_0BM@FLPPOGAG@Unknown?5Error?5?$CIPJ_EUNKNOWN?$CJ@ 000000014002fa80     pjlib-x86_64-x64-vc14-release:errno.obj
 0002:00005aa0       ??_C@_0CA@DCLOOJGD@Pending?5operation?5?$CIPJ_EPENDING?$CJ@ 000000014002faa0     pjlib-x86_64-x64-vc14-release:errno.obj
 0002:00005ac0       ??_C@_0CO@GABEOAFF@Too?5many?5connecting?5sockets?5?$CIPJ@ 000000014002fac0     pjlib-x86_64-x64-vc14-release:errno.obj
 0002:00005af0       ??_C@_0CG@CBCJBJGD@Invalid?5value?5or?5argument?5?$CIPJ_E@ 000000014002faf0     pjlib-x86_64-x64-vc14-release:errno.obj
 0002:00005b18       ??_C@_0CA@GJABNEKD@Name?5too?5long?5?$CIPJ_ENAMETOOLONG?$CJ@ 000000014002fb18     pjlib-x86_64-x64-vc14-release:errno.obj
 0002:00005b38       ??_C@_0BJ@JNKLPII@Not?5found?5?$CIPJ_ENOTFOUND?$CJ@ 000000014002fb38     pjlib-x86_64-x64-vc14-release:errno.obj
 0002:00005b58       ??_C@_0BO@GOLCMJKK@Not?5enough?5memory?5?$CIPJ_ENOMEM?$CJ@ 000000014002fb58     pjlib-x86_64-x64-vc14-release:errno.obj
 0002:00005b78       ??_C@_0BI@HHGDCAID@BUG?5DETECTED?$CB?5?$CIPJ_EBUG?$CJ@ 000000014002fb78     pjlib-x86_64-x64-vc14-release:errno.obj
 0002:00005b90       ??_C@_0CD@JOGIDHPJ@Operation?5timed?5out?5?$CIPJ_ETIMEDO@ 000000014002fb90     pjlib-x86_64-x64-vc14-release:errno.obj
 0002:00005bb8       ??_C@_0DF@MIFNAIHL@Too?5many?5objects?5of?5the?5specifi@ 000000014002fbb8     pjlib-x86_64-x64-vc14-release:errno.obj
 0002:00005bf0       ??_C@_0BK@OMPILOH@Object?5is?5busy?5?$CIPJ_EBUSY?$CJ@ 000000014002fbf0     pjlib-x86_64-x64-vc14-release:errno.obj
 0002:00005c10       ??_C@_0CP@BAIBJOJE@Option?1operation?5is?5not?5support@ 000000014002fc10     pjlib-x86_64-x64-vc14-release:errno.obj
 0002:00005c40       ??_C@_0CC@OEEEEEML@Invalid?5operation?5?$CIPJ_EINVALIDO@ 000000014002fc40     pjlib-x86_64-x64-vc14-release:errno.obj
 0002:00005c68       ??_C@_0CE@KDDMJLGF@Operation?5cancelled?5?$CIPJ_ECANCEL@ 000000014002fc68     pjlib-x86_64-x64-vc14-release:errno.obj
 0002:00005c90       ??_C@_0CD@LODOFNLC@Object?5already?5exists?5?$CIPJ_EEXIS@ 000000014002fc90     pjlib-x86_64-x64-vc14-release:errno.obj
 0002:00005cb8       ??_C@_0BG@GMBDFNLN@End?5of?5file?5?$CIPJ_EEOF?$CJ@ 000000014002fcb8     pjlib-x86_64-x64-vc14-release:errno.obj
 0002:00005cd0       ??_C@_0BN@PCCNBFLN@Size?5is?5too?5big?5?$CIPJ_ETOOBIG?$CJ@ 000000014002fcd0     pjlib-x86_64-x64-vc14-release:errno.obj
 0002:00005cf0       ??_C@_0DB@FDCHLEID@gethostbyname?$CI?$CJ?5has?5returned?5er@ 000000014002fcf0     pjlib-x86_64-x64-vc14-release:errno.obj
 0002:00005d28       ??_C@_0CB@MGGLJMNO@Size?5is?5too?5short?5?$CIPJ_ETOOSMALL@ 000000014002fd28     pjlib-x86_64-x64-vc14-release:errno.obj
 0002:00005d50       ??_C@_0BG@NBDJGAFI@Ignored?5?$CIPJ_EIGNORED?$CJ@ 000000014002fd50     pjlib-x86_64-x64-vc14-release:errno.obj
 0002:00005d68       ??_C@_0CH@OGOOBJBE@IPv6?5is?5not?5supported?5?$CIPJ_EIPV6@ 000000014002fd68     pjlib-x86_64-x64-vc14-release:errno.obj
 0002:00005d90       ??_C@_0CK@DJAHHNOI@Unsupported?5address?5family?5?$CIPJ_@ 000000014002fd90     pjlib-x86_64-x64-vc14-release:errno.obj
 0002:00005dc0       ??_C@_0CD@PDGCJOJH@Object?5no?5longer?5exists?5?$CIPJ_EGO@ 000000014002fdc0     pjlib-x86_64-x64-vc14-release:errno.obj
 0002:00005de8       ??_C@_0CI@LBHALONI@Socket?5is?5in?5bad?5state?5?$CIPJ_ESOC@ 000000014002fde8     pjlib-x86_64-x64-vc14-release:errno.obj
 0002:00005e10       ??_C@_0BH@ONDLFCEA@Unknown?5pjlib?5error?5?$CFd@ 000000014002fe10     pjlib-x86_64-x64-vc14-release:errno.obj
 0002:00005e28       ??_C@_07PBILKAFL@Success@  000000014002fe28     pjlib-x86_64-x64-vc14-release:errno.obj
 0002:00005e30       ??_C@_0BB@BIKLJNJD@Unknown?5error?5?$CFd@ 000000014002fe30     pjlib-x86_64-x64-vc14-release:errno.obj
 0002:00005e44       ??_C@_05NAOIJFC@Error@     000000014002fe44     pjlib-x86_64-x64-vc14-release:errno.obj
 0002:00005e4c       ??_C@_06DJHOIPC@?$CFs?3?5?$CFs@ 000000014002fe4c     pjlib-x86_64-x64-vc14-release:errno.obj
 0002:00005e54       PJ_AF_UNSPEC               000000014002fe54     pjlib-x86_64-x64-vc14-release:sock_bsd.obj
 0002:00005e58       PJ_AF_UNIX                 000000014002fe58     pjlib-x86_64-x64-vc14-release:sock_bsd.obj
 0002:00005e5c       PJ_AF_INET                 000000014002fe5c     pjlib-x86_64-x64-vc14-release:sock_bsd.obj
 0002:00005e60       PJ_AF_INET6                000000014002fe60     pjlib-x86_64-x64-vc14-release:sock_bsd.obj
 0002:00005e64       PJ_AF_PACKET               000000014002fe64     pjlib-x86_64-x64-vc14-release:sock_bsd.obj
 0002:00005e68       PJ_AF_IRDA                 000000014002fe68     pjlib-x86_64-x64-vc14-release:sock_bsd.obj
 0002:00005e6c       PJ_SOCK_STREAM             000000014002fe6c     pjlib-x86_64-x64-vc14-release:sock_bsd.obj
 0002:00005e70       PJ_SOCK_DGRAM              000000014002fe70     pjlib-x86_64-x64-vc14-release:sock_bsd.obj
 0002:00005e74       PJ_SOCK_RAW                000000014002fe74     pjlib-x86_64-x64-vc14-release:sock_bsd.obj
 0002:00005e78       PJ_SOCK_RDM                000000014002fe78     pjlib-x86_64-x64-vc14-release:sock_bsd.obj
 0002:00005e7c       PJ_SOL_SOCKET              000000014002fe7c     pjlib-x86_64-x64-vc14-release:sock_bsd.obj
 0002:00005e80       PJ_SOL_IP                  000000014002fe80     pjlib-x86_64-x64-vc14-release:sock_bsd.obj
 0002:00005e84       PJ_SOL_TCP                 000000014002fe84     pjlib-x86_64-x64-vc14-release:sock_bsd.obj
 0002:00005e88       PJ_SOL_UDP                 000000014002fe88     pjlib-x86_64-x64-vc14-release:sock_bsd.obj
 0002:00005e8c       PJ_SOL_IPV6                000000014002fe8c     pjlib-x86_64-x64-vc14-release:sock_bsd.obj
 0002:00005e90       PJ_IP_TOS                  000000014002fe90     pjlib-x86_64-x64-vc14-release:sock_bsd.obj
 0002:00005e94       PJ_IPTOS_LOWDELAY          000000014002fe94     pjlib-x86_64-x64-vc14-release:sock_bsd.obj
 0002:00005e98       PJ_IPTOS_THROUGHPUT        000000014002fe98     pjlib-x86_64-x64-vc14-release:sock_bsd.obj
 0002:00005e9c       PJ_IPTOS_RELIABILITY       000000014002fe9c     pjlib-x86_64-x64-vc14-release:sock_bsd.obj
 0002:00005ea0       PJ_IPTOS_MINCOST           000000014002fea0     pjlib-x86_64-x64-vc14-release:sock_bsd.obj
 0002:00005ea4       PJ_IPV6_TCLASS             000000014002fea4     pjlib-x86_64-x64-vc14-release:sock_bsd.obj
 0002:00005ea8       PJ_SO_TYPE                 000000014002fea8     pjlib-x86_64-x64-vc14-release:sock_bsd.obj
 0002:00005eac       PJ_SO_RCVBUF               000000014002feac     pjlib-x86_64-x64-vc14-release:sock_bsd.obj
 0002:00005eb0       PJ_SO_SNDBUF               000000014002feb0     pjlib-x86_64-x64-vc14-release:sock_bsd.obj
 0002:00005eb4       PJ_TCP_NODELAY             000000014002feb4     pjlib-x86_64-x64-vc14-release:sock_bsd.obj
 0002:00005eb8       PJ_SO_REUSEADDR            000000014002feb8     pjlib-x86_64-x64-vc14-release:sock_bsd.obj
 0002:00005ebc       PJ_SO_NOSIGPIPE            000000014002febc     pjlib-x86_64-x64-vc14-release:sock_bsd.obj
 0002:00005ec0       PJ_SO_PRIORITY             000000014002fec0     pjlib-x86_64-x64-vc14-release:sock_bsd.obj
 0002:00005ec4       PJ_IP_MULTICAST_IF         000000014002fec4     pjlib-x86_64-x64-vc14-release:sock_bsd.obj
 0002:00005ec8       PJ_IP_MULTICAST_TTL        000000014002fec8     pjlib-x86_64-x64-vc14-release:sock_bsd.obj
 0002:00005ecc       PJ_IP_MULTICAST_LOOP       000000014002fecc     pjlib-x86_64-x64-vc14-release:sock_bsd.obj
 0002:00005ed0       PJ_IP_ADD_MEMBERSHIP       000000014002fed0     pjlib-x86_64-x64-vc14-release:sock_bsd.obj
 0002:00005ed4       PJ_IP_DROP_MEMBERSHIP      000000014002fed4     pjlib-x86_64-x64-vc14-release:sock_bsd.obj
 0002:00005ed8       PJ_MSG_OOB                 000000014002fed8     pjlib-x86_64-x64-vc14-release:sock_bsd.obj
 0002:00005edc       PJ_MSG_PEEK                000000014002fedc     pjlib-x86_64-x64-vc14-release:sock_bsd.obj
 0002:00005ee0       PJ_MSG_DONTROUTE           000000014002fee0     pjlib-x86_64-x64-vc14-release:sock_bsd.obj
 0002:00005ef0       ??_C@_0HJ@FIMAEFMM@C?3?2Users?2WerBinIch?2Documents?2gi@ 000000014002fef0     pjlib-x86_64-x64-vc14-release:sock_bsd.obj
 0002:00005f70       ??_C@_0CE@IJGJDCPP@Warning?3?5error?5applying?5sock?5op@ 000000014002ff70     pjlib-x86_64-x64-vc14-release:sock_bsd.obj
 0002:00005f98       ??_C@_0L@NNKPLKFK@sock_bsd?4c@ 000000014002ff98     pjlib-x86_64-x64-vc14-release:sock_bsd.obj
 0002:00005fb0       ??_C@_0HF@IEAAJLHC@C?3?2Users?2WerBinIch?2Documents?2gi@ 000000014002ffb0     pjlib-x86_64-x64-vc14-release:pool.obj
 0002:00006030       ??_C@_0HN@GFOBEPN@C?3?2Users?2WerBinIch?2Documents?2gi@ 0000000140030030     pjlib-x86_64-x64-vc14-release:pool_caching.obj
 0002:000060b0       ??_C@_0M@IGFPEOLJ@cachingpool@ 00000001400300b0     pjlib-x86_64-x64-vc14-release:pool_caching.obj
 0002:000060c0       ??_C@_0DD@ECGDPCBA@Pool?5is?5not?5released?5by?5applica@ 00000001400300c0     pjlib-x86_64-x64-vc14-release:pool_caching.obj
 0002:000060f8       ??_C@_0BH@BBPHJKOA@?5Dumping?5caching?5pool?3@ 00000001400300f8     pjlib-x86_64-x64-vc14-release:pool_caching.obj
 0002:00006110       ??_C@_08COPEICHG@cachpool@ 0000000140030110     pjlib-x86_64-x64-vc14-release:pool_caching.obj
 0002:00006120       ??_C@_0CN@DOKPIIOH@?5?5?5Capacity?$DN?$CFu?0?5max_capacity?$DN?$CFu@ 0000000140030120     pjlib-x86_64-x64-vc14-release:pool_caching.obj
 0002:00006150       ??_C@_0BM@IDLDGCC@?5?5Dumping?5all?5active?5pools?3@ 0000000140030150     pjlib-x86_64-x64-vc14-release:pool_caching.obj
 0002:00006170       ??_C@_0CA@MMLIKIEG@?5?5?5?$CF16s?3?5?$CF8d?5of?5?$CF8d?5?$CI?$CFd?$CF?$CF?$CJ?5used@ 0000000140030170     pjlib-x86_64-x64-vc14-release:pool_caching.obj
 0002:00006190       ??_C@_0CB@GKBJPDKG@?5?5Total?5?$CF9d?5of?5?$CF9d?5?$CI?$CFd?5?$CF?$CF?$CJ?5used@ 0000000140030190     pjlib-x86_64-x64-vc14-release:pool_caching.obj
 0002:000061c0       ??_C@_0HH@JPNODECN@C?3?2Users?2WerBinIch?2Documents?2gi@ 00000001400301c0     pjlib-x86_64-x64-vc14-release:string.obj
 0002:00006238       ??_C@_03HODKBCIO@?3?$CFd@  0000000140030238     pjlib-x86_64-x64-vc14-release:sock_common.obj
 0002:00006240       ??_C@_08KJEDNCKC@?$CFs?$CFs?$CFs?$CFs@ 0000000140030240     pjlib-x86_64-x64-vc14-release:sock_common.obj
 0002:00006250       ??_C@_0HM@MMOOCFAF@C?3?2Users?2WerBinIch?2Documents?2gi@ 0000000140030250     pjlib-x86_64-x64-vc14-release:sock_common.obj
 0002:000062d0       ??_C@_07EBPGIHEF@1?41?41?41@ 00000001400302d0     pjlib-x86_64-x64-vc14-release:sock_common.obj
 0002:000062d8       ??_C@_04NFKLOGOF@1?3?31@   00000001400302d8     pjlib-x86_64-x64-vc14-release:sock_common.obj
 0002:000062e0       ??_C@_0M@HMJLLIPA@?$CFs?$CF?4?$CKs?$CFs?3?$CFd@ 00000001400302e0     pjlib-x86_64-x64-vc14-release:sock_common.obj
 0002:000062f0       ??_C@_08JLADFOFK@?$CFs?$CF?4?$CKs?$CFs@ 00000001400302f0     pjlib-x86_64-x64-vc14-release:sock_common.obj
 0002:000062fc       ??_C@_06DDFOEFIF@FATAL?3@  00000001400302fc     pjlib-x86_64-x64-vc14-release:log.obj
 0002:00006304       ??_C@_06PONDCDME@ERROR?3@  0000000140030304     pjlib-x86_64-x64-vc14-release:log.obj
 0002:0000630c       ??_C@_06OHJPOJDB@?5WARN?3@ 000000014003030c     pjlib-x86_64-x64-vc14-release:log.obj
 0002:00006314       ??_C@_06ICKKLHPE@?5INFO?3@ 0000000140030314     pjlib-x86_64-x64-vc14-release:log.obj
 0002:0000631c       ??_C@_06DNOFLLB@DEBUG?3@   000000014003031c     pjlib-x86_64-x64-vc14-release:log.obj
 0002:00006324       ??_C@_06ELIFFDKB@TRACE?3@  0000000140030324     pjlib-x86_64-x64-vc14-release:log.obj
 0002:0000632c       ??_C@_06HGKAKJPG@DETRC?3@  000000014003032c     pjlib-x86_64-x64-vc14-release:log.obj
 0002:00006334       ??_C@_03KOEHGMDN@Sun@      0000000140030334     pjlib-x86_64-x64-vc14-release:log.obj
 0002:00006338       ??_C@_03PDAGKDH@Mon@       0000000140030338     pjlib-x86_64-x64-vc14-release:log.obj
 0002:0000633c       ??_C@_03NAGEINEP@Tue@      000000014003033c     pjlib-x86_64-x64-vc14-release:log.obj
 0002:00006340       ??_C@_03MHOMLAJA@Wed@      0000000140030340     pjlib-x86_64-x64-vc14-release:log.obj
 0002:00006344       ??_C@_03IOFIKPDN@Thu@      0000000140030344     pjlib-x86_64-x64-vc14-release:log.obj
 0002:00006348       ??_C@_03IDIOELNC@Fri@      0000000140030348     pjlib-x86_64-x64-vc14-release:log.obj
 0002:0000634c       ??_C@_03FEFJNEK@Sat@       000000014003034c     pjlib-x86_64-x64-vc14-release:log.obj
 0002:00006350       ??_C@_0HE@ONAIBOBI@C?3?2Users?2WerBinIch?2Documents?2gi@ 0000000140030350     pjlib-x86_64-x64-vc14-release:log.obj
 0002:000063c8       ??_C@_0BO@BGMDCDKP@?$DMlogging?5error?3?5msg?5too?5long?$DO@ 00000001400303c8     pjlib-x86_64-x64-vc14-release:log.obj
 0002:000063e8       ??_C@_08PFPBFMIL@IpHlpApi@ 00000001400303e8     pjlib-x86_64-x64-vc14-release:ip_helper_win32.obj
 0002:000063f8       ??_C@_0P@PMIJPFPM@GetIpAddrTable@ 00000001400303f8     pjlib-x86_64-x64-vc14-release:ip_helper_win32.obj
 0002:00006408       ??_C@_0BF@LHFCIIHE@GetAdaptersAddresses@ 0000000140030408     pjlib-x86_64-x64-vc14-release:ip_helper_win32.obj
 0002:00006420       ??_C@_0L@BLHMKEDC@GetIfEntry@ 0000000140030420     pjlib-x86_64-x64-vc14-release:ip_helper_win32.obj
 0002:00006430       ??_C@_0ID@HEJLABNJ@C?3?2Users?2WerBinIch?2Documents?2gi@ 0000000140030430     pjlib-x86_64-x64-vc14-release:pool_policy_malloc.obj
 0002:000064c0       ??_C@_0ID@CCMBIOPL@C?3?2Users?2WerBinIch?2Documents?2gi@ 00000001400304c0     pjlib-x86_64-x64-vc14-release:ioqueue_select.obj
 0002:00006544       ??_C@_05LIJONKFG@ioq?$CFp@ 0000000140030544     pjlib-x86_64-x64-vc14-release:ioqueue_select.obj
 0002:00006550       ??_C@_0CA@IMDCINDN@select?$CI?$CJ?5I?1O?5Queue?5created?5?$CI?$CFp?$CJ@ 0000000140030550     pjlib-x86_64-x64-vc14-release:ioqueue_select.obj
 0002:00006570       ??_C@_05PHKAINEA@pjlib@    0000000140030570     pjlib-x86_64-x64-vc14-release:ioqueue_select.obj
 0002:00006578       ??_C@_0CJ@NPMLHLI@Bad?5ioqueue?5count?5in?5key?5unregi@ 0000000140030578     pjlib-x86_64-x64-vc14-release:ioqueue_select.obj
 0002:000065a8       ??_C@_0L@CAJCIPAG@ioq_select@ 00000001400305a8     pjlib-x86_64-x64-vc14-release:ioqueue_select.obj
 0002:000065b4       ??_C@_06HALIBNKJ@glck?$CFp@ 00000001400305b4     pjlib-x86_64-x64-vc14-release:lock.obj
 0002:000065c0       ??_C@_0HG@KOIEHONM@C?3?2Users?2WerBinIch?2Documents?2gi@ 00000001400305c0     pjlib-x86_64-x64-vc14-release:timer.obj
 0002:00006640       ??_C@_0GD@IKDOJBHK@Bug?$CB?5Trying?5to?5remove?5entry?5?$CFp?5@ 0000000140030640     pjlib-x86_64-x64-vc14-release:timer.obj
 0002:000066a8       ??_C@_07PEGEGJOK@timer?4c@ 00000001400306a8     pjlib-x86_64-x64-vc14-release:timer.obj
 0002:000066b0       ??_C@_0CN@BCAOBBMI@Warning?$CB?5Rescheduling?5outstandi@ 00000001400306b0     pjlib-x86_64-x64-vc14-release:timer.obj
 0002:000066e0       ??_C@_0FD@OKAOJAGN@Bug?$CB?5Polling?5entry?5?$CFp?5from?5?$CFs?5l@ 00000001400306e0     pjlib-x86_64-x64-vc14-release:timer.obj
 0002:00006738       ??_C@_0BE@PEPBNPID@Dumping?5timer?5heap?3@ 0000000140030738     pjlib-x86_64-x64-vc14-release:timer.obj
 0002:00006750       ??_C@_0CA@GBHLCEHA@?5?5Cur?5size?3?5?$CFd?5entries?0?5max?3?5?$CFd@ 0000000140030750     pjlib-x86_64-x64-vc14-release:timer.obj
 0002:00006770       ??_C@_0M@BOIDEIDM@?5?5Entries?3?5@ 0000000140030770     pjlib-x86_64-x64-vc14-release:timer.obj
 0002:00006780       ??_C@_0BK@HKHOIEEA@?5?5?5?5_id?7Id?7Elapsed?7Source@ 0000000140030780     pjlib-x86_64-x64-vc14-release:timer.obj
 0002:000067a0       ??_C@_0CH@INDCMHLK@?5?5?5?5?9?9?9?9?9?9?9?9?9?9?9?9?9?9?9?9?9?9?9?9?9?9?9?9?9?9?9@ 00000001400307a0     pjlib-x86_64-x64-vc14-release:timer.obj
 0002:000067c8       ??_C@_0BI@MDGGFDFM@?5?5?5?5?$CFd?7?$CFd?7?$CFd?4?$CF03d?7?$CFs?3?$CFd@ 00000001400307c8     pjlib-x86_64-x64-vc14-release:timer.obj
 0002:000067e0       ??_C@_0CD@KFHCCJFN@?$CB?$CB?$CBFATAL?3?5unhandled?5exception?5?$CF@ 00000001400307e0     pjlib-x86_64-x64-vc14-release:except.obj
 0002:00006808       ??_C@_08PDFMOJIE@except?4c@ 0000000140030808     pjlib-x86_64-x64-vc14-release:except.obj
 0002:00006818       ??_C@_0N@GJOLEKJC@?$DMInvalid?5ID?$DO@ 0000000140030818     pjlib-x86_64-x64-vc14-release:except.obj
 0002:00006828       ??_C@_0N@LJPLLMIL@exception?5?$CFd@ 0000000140030828     pjlib-x86_64-x64-vc14-release:except.obj
 0002:00006840       ??_C@_0HF@MAEJMFHP@C?3?2Users?2WerBinIch?2Documents?2gi@ 0000000140030840     pjlib-x86_64-x64-vc14-release:hash.obj
 0002:00006be0       ??_C@_0CD@FNMHLHMI@Interrupted?5system?5call?5?$CIWSAEIN@ 0000000140030be0     pjlib-x86_64-x64-vc14-release:os_error_win32.obj
 0002:00006c08       ??_C@_0BL@OKPDNKLH@Bad?5file?5number?5?$CIWSAEBADF?$CJ@ 0000000140030c08     pjlib-x86_64-x64-vc14-release:os_error_win32.obj
 0002:00006c28       ??_C@_0BO@BMBEEPBP@Permission?5denied?5?$CIWSAEACCES?$CJ@ 0000000140030c28     pjlib-x86_64-x64-vc14-release:os_error_win32.obj
 0002:00006c48       ??_C@_0BI@LAKHPJJ@Bad?5address?5?$CIWSAEFAULT?$CJ@ 0000000140030c48     pjlib-x86_64-x64-vc14-release:os_error_win32.obj
 0002:00006c60       ??_C@_0BN@FEIDINKH@Invalid?5argument?5?$CIWSAEINVAL?$CJ@ 0000000140030c60     pjlib-x86_64-x64-vc14-release:os_error_win32.obj
 0002:00006c80       ??_C@_0CC@HMKKNDGL@Too?5many?5open?5sockets?5?$CIWSAEMFIL@ 0000000140030c80     pjlib-x86_64-x64-vc14-release:os_error_win32.obj
 0002:00006ca8       ??_C@_0CH@GCPPFMGM@Operation?5would?5block?5?$CIWSAEWOUL@ 0000000140030ca8     pjlib-x86_64-x64-vc14-release:os_error_win32.obj
 0002:00006cd0       ??_C@_0CL@DKGHEPCD@Operation?5now?5in?5progress?5?$CIWSAE@ 0000000140030cd0     pjlib-x86_64-x64-vc14-release:os_error_win32.obj
 0002:00006d00       ??_C@_0CM@BEMCBKDH@Operation?5already?5in?5progress?5?$CI@ 0000000140030d00     pjlib-x86_64-x64-vc14-release:os_error_win32.obj
 0002:00006d30       ??_C@_0CN@PAFKDEBN@Socket?5operation?5on?5non?9socket?5@ 0000000140030d30     pjlib-x86_64-x64-vc14-release:os_error_win32.obj
 0002:00006d60       ??_C@_0CP@HCDICECK@Destination?5address?5required?5?$CIW@ 0000000140030d60     pjlib-x86_64-x64-vc14-release:os_error_win32.obj
 0002:00006d90       ??_C@_0BP@LNFPBFEK@Message?5too?5long?5?$CIWSAEMSGSIZE?$CJ@ 0000000140030d90     pjlib-x86_64-x64-vc14-release:os_error_win32.obj
 0002:00006db0       ??_C@_0CP@MMIMIEMF@Protocol?5wrong?5type?5for?5socket?5@ 0000000140030db0     pjlib-x86_64-x64-vc14-release:os_error_win32.obj
 0002:00006de0       ??_C@_0CF@HNFLHOHA@Bad?5protocol?5option?5?$CIWSAENOPROT@ 0000000140030de0     pjlib-x86_64-x64-vc14-release:os_error_win32.obj
 0002:00006e08       ??_C@_0CM@HPGHEHCE@Protocol?5not?5supported?5?$CIWSAEPRO@ 0000000140030e08     pjlib-x86_64-x64-vc14-release:os_error_win32.obj
 0002:00006e38       ??_C@_0CP@JLBNHCOL@Socket?5type?5not?5supported?5?$CIWSAE@ 0000000140030e38     pjlib-x86_64-x64-vc14-release:os_error_win32.obj
 0002:00006e68       ??_C@_0DC@GJMFANID@Operation?5not?5supported?5on?5sock@ 0000000140030e68     pjlib-x86_64-x64-vc14-release:os_error_win32.obj
 0002:00006ea0       ??_C@_0DA@GFNBENIG@Protocol?5family?5not?5supported?5?$CI@ 0000000140030ea0     pjlib-x86_64-x64-vc14-release:os_error_win32.obj
 0002:00006ed0       ??_C@_0CP@MMKHGIFC@Address?5family?5not?5supported?5?$CIW@ 0000000140030ed0     pjlib-x86_64-x64-vc14-release:os_error_win32.obj
 0002:00006f00       ??_C@_0CH@OCKNFBKE@Address?5already?5in?5use?5?$CIWSAEADD@ 0000000140030f00     pjlib-x86_64-x64-vc14-release:os_error_win32.obj
 0002:00006f28       ??_C@_0DC@FJJPJPOD@Can?8t?5assign?5requested?5address?5@ 0000000140030f28     pjlib-x86_64-x64-vc14-release:os_error_win32.obj
 0002:00006f60       ??_C@_0BO@IICKDHLJ@Network?5is?5down?5?$CIWSAENETDOWN?$CJ@ 0000000140030f60     pjlib-x86_64-x64-vc14-release:os_error_win32.obj
 0002:00006f80       ??_C@_0CI@NKJAACME@Network?5is?5unreachable?5?$CIWSAENET@ 0000000140030f80     pjlib-x86_64-x64-vc14-release:os_error_win32.obj
 0002:00006fa8       ??_C@_0CE@LJEEEFEC@Net?5connection?5reset?5?$CIWSAENETRE@ 0000000140030fa8     pjlib-x86_64-x64-vc14-release:os_error_win32.obj
 0002:00006fd0       ??_C@_0DD@PGDIHOBG@Software?5caused?5connection?5abor@ 0000000140030fd0     pjlib-x86_64-x64-vc14-release:os_error_win32.obj
 0002:00007008       ??_C@_0CJ@PJHCFAAN@Connection?5reset?5by?5peer?5?$CIWSAEC@ 0000000140031008     pjlib-x86_64-x64-vc14-release:os_error_win32.obj
 0002:00007038       ??_C@_0CH@EKNGIMKN@No?5buffer?5space?5available?5?$CIWSAE@ 0000000140031038     pjlib-x86_64-x64-vc14-release:os_error_win32.obj
 0002:00007060       ??_C@_0CJ@JOPBNNOD@Socket?5is?5already?5connected?5?$CIWS@ 0000000140031060     pjlib-x86_64-x64-vc14-release:os_error_win32.obj
 0002:00007090       ??_C@_0CG@CECDMHLL@Socket?5is?5not?5connected?5?$CIWSAENO@ 0000000140031090     pjlib-x86_64-x64-vc14-release:os_error_win32.obj
 0002:000070b8       ??_C@_0DA@JGJMJPNM@Can?8t?5send?5after?5socket?5shutdow@ 00000001400310b8     pjlib-x86_64-x64-vc14-release:os_error_win32.obj
 0002:000070e8       ??_C@_0DE@CAILNFFE@Too?5many?5references?0?5can?8t?5spli@ 00000001400310e8     pjlib-x86_64-x64-vc14-release:os_error_win32.obj
 0002:00007120       ??_C@_0CE@IIKHBGF@Connection?5timed?5out?5?$CIWSAETIMED@ 0000000140031120     pjlib-x86_64-x64-vc14-release:os_error_win32.obj
 0002:00007148       ??_C@_0CF@JMKFBJH@Connection?5refused?5?$CIWSAECONNREF@ 0000000140031148     pjlib-x86_64-x64-vc14-release:os_error_win32.obj
 0002:00007170       ??_C@_0CN@FCKBNFMB@Too?5many?5levels?5of?5symbolic?5lin@ 0000000140031170     pjlib-x86_64-x64-vc14-release:os_error_win32.obj
 0002:000071a0       ??_C@_0CF@MOFKOMBB@File?5name?5too?5long?5?$CIWSAENAMETOO@ 00000001400311a0     pjlib-x86_64-x64-vc14-release:os_error_win32.obj
 0002:000071c8       ??_C@_0BM@NCJCEEDP@Host?5is?5down?5?$CIWSAEHOSTDOWN?$CJ@ 00000001400311c8     pjlib-x86_64-x64-vc14-release:os_error_win32.obj
 0002:000071e8       ??_C@_0CD@ECJOJHBH@No?5route?5to?5host?5?$CIWSAEHOSTUNREA@ 00000001400311e8     pjlib-x86_64-x64-vc14-release:os_error_win32.obj
 0002:00007210       ??_C@_0CD@NEFLEHEG@Directory?5not?5empty?5?$CIWSAENOTEMP@ 0000000140031210     pjlib-x86_64-x64-vc14-release:os_error_win32.obj
 0002:00007238       ??_C@_0CB@GPCGLHOJ@Too?5many?5processes?5?$CIWSAEPROCLIM@ 0000000140031238     pjlib-x86_64-x64-vc14-release:os_error_win32.obj
 0002:00007260       ??_C@_0BL@IGHJMJKO@Too?5many?5users?5?$CIWSAEUSERS?$CJ@ 0000000140031260     pjlib-x86_64-x64-vc14-release:os_error_win32.obj
 0002:00007280       ??_C@_0CA@MIOFDKMA@Disc?5quota?5exceeded?5?$CIWSAEDQUOT?$CJ@ 0000000140031280     pjlib-x86_64-x64-vc14-release:os_error_win32.obj
 0002:000072a0       ??_C@_0CC@IMLIDHNH@Stale?5NFS?5file?5handle?5?$CIWSAESTAL@ 00000001400312a0     pjlib-x86_64-x64-vc14-release:os_error_win32.obj
 0002:000072c8       ??_C@_0CP@MLAFGPOA@Too?5many?5levels?5of?5remote?5in?5pa@ 00000001400312c8     pjlib-x86_64-x64-vc14-release:os_error_win32.obj
 0002:000072f8       ??_C@_0CP@IBAEMKGH@Network?5system?5is?5unavailable?5?$CI@ 00000001400312f8     pjlib-x86_64-x64-vc14-release:os_error_win32.obj
 0002:00007328       ??_C@_0DC@BLAKHMMJ@Winsock?5version?5out?5of?5range?5?$CIW@ 0000000140031328     pjlib-x86_64-x64-vc14-release:os_error_win32.obj
 0002:00007360       ??_C@_0CO@HPDHHDHA@WSAStartup?5not?5yet?5called?5?$CIWSAN@ 0000000140031360     pjlib-x86_64-x64-vc14-release:os_error_win32.obj
 0002:00007390       ??_C@_0CL@GFDHEKLB@Graceful?5shutdown?5in?5progress?5?$CI@ 0000000140031390     pjlib-x86_64-x64-vc14-release:os_error_win32.obj
 0002:000073c0       ??_C@_0CD@OEALOMDH@Host?5not?5found?5?$CIWSAHOST_NOT_FOU@ 00000001400313c0     pjlib-x86_64-x64-vc14-release:os_error_win32.obj
 0002:000073e8       ??_C@_0DB@KFPHELLI@No?5host?5data?5of?5that?5type?5was?5f@ 00000001400313e8     pjlib-x86_64-x64-vc14-release:os_error_win32.obj
 0002:00007420       ??_C@_0BE@JPHLLAEM@Win32?5error?5code?5?$CFu@ 0000000140031420     pjlib-x86_64-x64-vc14-release:os_error_win32.obj
 0002:00007434       PJ_GUID_STRING_LENGTH      0000000140031434     pjlib-x86_64-x64-vc14-release:guid_win32.obj
 0002:00007440       ??_C@_0HL@CBGAAIJG@C?3?2Users?2WerBinIch?2Documents?2gi@ 0000000140031440     pjlib-x86_64-x64-vc14-release:guid_win32.obj
 0002:000074c0       ??_C@_0HF@NBEBOKHE@C?3?2Users?2WerBinIch?2Documents?2gi@ 00000001400314c0     pjlib-x86_64-x64-vc14-release:rand.obj
 0002:00007568       ??_C@_0BC@GPHMAKPK@sock_qos_common?4c@ 0000000140031568     pjlib-x86_64-x64-vc14-release:sock_qos_common.obj
 0002:0000757c       ??_C@_06HBELJPBO@socket@   000000014003157c     pjlib-x86_64-x64-vc14-release:sock_qos_common.obj
 0002:00007588       ??_C@_0CA@EBJCMLJI@Error?5setting?5QoS?5type?5?$CFd?5to?5?$CFs@ 0000000140031588     pjlib-x86_64-x64-vc14-release:sock_qos_common.obj
 0002:000075a8       ??_C@_0CK@CGDCCPNL@Error?5setting?5QoS?5params?5?$CIflags@ 00000001400315a8     pjlib-x86_64-x64-vc14-release:sock_qos_common.obj
 0002:000075e0       ??_C@_0HG@MOKOJEDC@C?3?2Users?2WerBinIch?2Documents?2gi@ 00000001400315e0     pjlib-x86_64-x64-vc14-release:types.obj
 0002:00007658       ??_C@_08DOCHLGNA@config?4c@ 0000000140031658     pjlib-x86_64-x64-vc14-release:config.obj
 0002:00007664       ??_C@_04FIDOICFN@2?410@    0000000140031664     pjlib-x86_64-x64-vc14-release:config.obj
 0002:00007670       ??_C@_0IC@EGBMPJBH@C?3?2Users?2WerBinIch?2Documents?2gi@ 0000000140031670     pjlib-x86_64-x64-vc14-release:log_writer_stdout.obj
 0002:000076f4       ??_C@_02DKCKIIND@?$CFs@    00000001400316f4     pjlib-x86_64-x64-vc14-release:log_writer_stdout.obj
 0002:000076f8       __real@3ff0000000000000    00000001400316f8     pjlib-x86_64-x64-vc14-release:os_timestamp_common.obj
 0002:00007700       __real@408f400000000000    0000000140031700     pjlib-x86_64-x64-vc14-release:os_timestamp_common.obj
 0002:00007710       ??_C@_0HM@EBJOKIJP@C?3?2Users?2WerBinIch?2Documents?2gi@ 0000000140031710     pjlib-x86_64-x64-vc14-release:sock_select.obj
 0002:000077c0       _load_config_used          00000001400317c0     MSVCRT:loadcfg.obj
 0002:00007900       __volatile_metadata        0000000140031900     <linker-defined>
 0002:00007cb8       __rtc_iaa                  0000000140031cb8     MSVCRT:initsect.obj
 0002:00007cc0       __rtc_izz                  0000000140031cc0     MSVCRT:initsect.obj
 0002:00007cc8       __rtc_taa                  0000000140031cc8     MSVCRT:initsect.obj
 0002:00007cd0       __rtc_tzz                  0000000140031cd0     MSVCRT:initsect.obj
 0002:0000af9c       __IMPORT_DESCRIPTOR_ole32  0000000140034f9c     ole32:ole32.dll
 0002:0000afb0       __IMPORT_DESCRIPTOR_WS2_32 0000000140034fb0     ws2_32:WS2_32.dll
 0002:0000afc4       __IMPORT_DESCRIPTOR_KERNEL32 0000000140034fc4     kernel32:KERNEL32.dll
 0002:0000afd8       __IMPORT_DESCRIPTOR_VCRUNTIME140 0000000140034fd8     vcruntime:VCRUNTIME140.dll
 0002:0000afec       __IMPORT_DESCRIPTOR_api-ms-win-crt-stdio-l1-1-0 0000000140034fec     ucrt:api-ms-win-crt-stdio-l1-1-0.dll
 0002:0000b000       __IMPORT_DESCRIPTOR_api-ms-win-crt-convert-l1-1-0 0000000140035000     ucrt:api-ms-win-crt-convert-l1-1-0.dll
 0002:0000b014       __IMPORT_DESCRIPTOR_api-ms-win-crt-string-l1-1-0 0000000140035014     ucrt:api-ms-win-crt-string-l1-1-0.dll
 0002:0000b028       __IMPORT_DESCRIPTOR_api-ms-win-crt-heap-l1-1-0 0000000140035028     ucrt:api-ms-win-crt-heap-l1-1-0.dll
 0002:0000b03c       __IMPORT_DESCRIPTOR_api-ms-win-crt-utility-l1-1-0 000000014003503c     ucrt:api-ms-win-crt-utility-l1-1-0.dll
 0002:0000b050       __IMPORT_DESCRIPTOR_api-ms-win-crt-math-l1-1-0 0000000140035050     ucrt:api-ms-win-crt-math-l1-1-0.dll
 0002:0000b064       __IMPORT_DESCRIPTOR_api-ms-win-crt-runtime-l1-1-0 0000000140035064     ucrt:api-ms-win-crt-runtime-l1-1-0.dll
 0002:0000b078       __IMPORT_DESCRIPTOR_api-ms-win-crt-locale-l1-1-0 0000000140035078     ucrt:api-ms-win-crt-locale-l1-1-0.dll
 0002:0000b08c       __NULL_IMPORT_DESCRIPTOR   000000014003508c     ole32:ole32.dll
 0003:00000c30       PJSIP_SYN_ERR_EXCEPTION    0000000140036c30     pjsip-core-x86_64-x64-vc14-release:sip_parser.obj
 0003:00000c34       PJSIP_EINVAL_ERR_EXCEPTION 0000000140036c34     pjsip-core-x86_64-x64-vc14-release:sip_parser.obj
 0003:00000eb0       pjsip_sip_cfg_var          0000000140036eb0     pjsip-core-x86_64-x64-vc14-release:sip_config.obj
 0003:000010f0       mod_stateful_util          00000001400370f0     pjsip-core-x86_64-x64-vc14-release:sip_util_statefull.obj
 0003:00001190       pj_optind                  0000000140037190     pjlib-util-x86_64-x64-vc14-release:getopt.obj
 0003:00001194       pj_optopt                  0000000140037194     pjlib-util-x86_64-x64-vc14-release:getopt.obj
 0003:000012e8       pj_pool_factory_default_policy 00000001400372e8     pjlib-x86_64-x64-vc14-release:pool_policy_malloc.obj
 0003:000013a0       PJ_VERSION                 00000001400373a0     pjlib-x86_64-x64-vc14-release:config.obj
 0003:000013b0       __security_cookie_complement 00000001400373b0     MSVCRT:gs_cookie.obj
 0003:000013b8       __security_cookie          00000001400373b8     MSVCRT:gs_cookie.obj
 0003:000013c0       __isa_available            00000001400373c0     MSVCRT:cpu_disp.obj
 0003:000013c4       __isa_enabled              00000001400373c4     MSVCRT:cpu_disp.obj
 0003:000013c8       __memcpy_nt_iters          00000001400373c8     MSVCRT:cpu_disp.obj
 0003:000013d0       __memset_nt_iters          00000001400373d0     MSVCRT:cpu_disp.obj
 0003:000013d8       _fltused                   00000001400373d8     MSVCRT:fltused.obj
 0003:000013e0       __scrt_native_dllmain_reason 00000001400373e0     MSVCRT:utility.obj
 0003:000013e4       __scrt_default_matherr     00000001400373e4     MSVCRT:matherr.obj
 0003:000013f0       __scrt_ucrt_dll_is_in_use  00000001400373f0     MSVCRT:ucrt_stubs.obj
 0003:000069d8       pj_optarg                  000000014003c9d8     pjlib-util-x86_64-x64-vc14-release:getopt.obj
 0003:00007440       __favor                    000000014003d440     MSVCRT:cpu_disp.obj
 0003:00007448       __scrt_current_native_startup_state 000000014003d448     MSVCRT:utility.obj
 0003:00007450       __scrt_native_startup_lock 000000014003d450     MSVCRT:utility.obj
 0003:00007490       ?__type_info_root_node@@3U__type_info_node@@A 000000014003d490     MSVCRT:tncleanup.obj
 0003:000074a0       ?_OptionsStorage@?1??__local_stdio_scanf_options@@9@4_KA 000000014003d4a0     MSVCRT:default_local_stdio_options.obj
 0003:000074a8       __scrt_debugger_hook_flag  000000014003d4a8     MSVCRT:utility_desktop.obj
 0003:000074b0       __castguard_check_failure_os_handled_fptr 000000014003d4b0     MSVCRT:guard_support.obj
 0003:000074b8       ?_OptionsStorage@?1??__local_stdio_printf_options@@9@9 000000014003d4b8     <common>
 0003:000074c0       PJ_NO_MEMORY_EXCEPTION     000000014003d4c0     <common>
 0003:000074c8       __dyn_tls_dtor_callback    000000014003d4c8     <common>
 0003:000074d0       __dyn_tls_init_callback    000000014003d4d0     <common>

 entry point at        0001:00027480

 Static symbols

 0001:00000000       pjsip_uri_get_scheme       0000000140001000 f   stateless_proxy.obj
 0001:00000010       pjsip_uri_get_uri          0000000140001010 f   stateless_proxy.obj
 0001:00000020       pjsip_msg_insert_first_hdr 0000000140001020 f   stateless_proxy.obj
 0001:00000030       pj_bzero                   0000000140001030 f   stateless_proxy.obj
 0001:00000040       app_perror                 0000000140001040 f   stateless_proxy.obj
 0001:000000c0       usage                      00000001400010c0 f   stateless_proxy.obj
 0001:000000e0       init_options               00000001400010e0 f   stateless_proxy.obj
 0001:000002a0       logging_on_rx_msg          00000001400012a0 f   stateless_proxy.obj
 0001:00000340       logging_on_tx_msg          0000000140001340 f   stateless_proxy.obj
 0001:00000400       init_stack                 0000000140001400 f   stateless_proxy.obj
 0001:00000510       init_proxy                 0000000140001510 f   stateless_proxy.obj
 0001:00000840       worker_thread              0000000140001840 f   stateless_proxy.obj
 0001:00000890       is_uri_local               0000000140001890 f   stateless_proxy.obj
 0001:00000930       proxy_verify_request       0000000140001930 f   stateless_proxy.obj
 0001:00000a60       proxy_process_routing      0000000140001a60 f   stateless_proxy.obj
 0001:00000bb0       proxy_postprocess          0000000140001bb0 f   stateless_proxy.obj
 0001:00000c80       proxy_calculate_target     0000000140001c80 f   stateless_proxy.obj
 0001:00000d20       destroy_stack              0000000140001d20 f   stateless_proxy.obj
 0001:00000d60       on_rx_request              0000000140001d60 f   stateless_proxy.obj
 0001:00001110       on_rx_response             0000000140002110 f   stateless_proxy.obj
 0001:000012d0       init_stateless_proxy       00000001400022d0 f   stateless_proxy.obj
 0001:00001810       pjsip_generic_string_hdr_print 0000000140002810 f   pjsip-core-x86_64-x64-vc14-release:sip_msg.obj
 0001:000018b0       pjsip_generic_string_hdr_clone 00000001400028b0 f   pjsip-core-x86_64-x64-vc14-release:sip_msg.obj
 0001:00001990       pjsip_generic_string_hdr_shallow_clone 0000000140002990 f   pjsip-core-x86_64-x64-vc14-release:sip_msg.obj
 0001:000019d0       pjsip_generic_int_hdr_print 00000001400029d0 f   pjsip-core-x86_64-x64-vc14-release:sip_msg.obj
 0001:00001a60       pjsip_generic_int_hdr_clone 0000000140002a60 f   pjsip-core-x86_64-x64-vc14-release:sip_msg.obj
 0001:00001a60       pjsip_generic_int_hdr_shallow_clone 0000000140002a60 f   pjsip-core-x86_64-x64-vc14-release:sip_msg.obj
 0001:00001ab0       pjsip_generic_array_hdr_print 0000000140002ab0 f   pjsip-core-x86_64-x64-vc14-release:sip_msg.obj
 0001:00001bf0       pjsip_generic_array_hdr_clone 0000000140002bf0 f   pjsip-core-x86_64-x64-vc14-release:sip_msg.obj
 0001:00001cf0       pjsip_generic_array_hdr_shallow_clone 0000000140002cf0 f   pjsip-core-x86_64-x64-vc14-release:sip_msg.obj
 0001:00001da0       pjsip_clen_hdr_print       0000000140002da0 f   pjsip-core-x86_64-x64-vc14-release:sip_msg.obj
 0001:00001e40       pjsip_clen_hdr_clone       0000000140002e40 f   pjsip-core-x86_64-x64-vc14-release:sip_msg.obj
 0001:00001eb0       pjsip_cseq_hdr_print       0000000140002eb0 f   pjsip-core-x86_64-x64-vc14-release:sip_msg.obj
 0001:00001f50       pjsip_cseq_hdr_clone       0000000140002f50 f   pjsip-core-x86_64-x64-vc14-release:sip_msg.obj
 0001:00002010       pjsip_cseq_hdr_shallow_clone 0000000140003010 f   pjsip-core-x86_64-x64-vc14-release:sip_msg.obj
 0001:00002060       pjsip_contact_hdr_print    0000000140003060 f   pjsip-core-x86_64-x64-vc14-release:sip_msg.obj
 0001:000022b0       pjsip_contact_hdr_clone    00000001400032b0 f   pjsip-core-x86_64-x64-vc14-release:sip_msg.obj
 0001:000023b0       pjsip_contact_hdr_shallow_clone 00000001400033b0 f   pjsip-core-x86_64-x64-vc14-release:sip_msg.obj
 0001:000023b0       pjsip_fromto_hdr_shallow_clone 00000001400033b0 f   pjsip-core-x86_64-x64-vc14-release:sip_msg.obj
 0001:00002450       pjsip_ctype_hdr_print      0000000140003450 f   pjsip-core-x86_64-x64-vc14-release:sip_msg.obj
 0001:000024f0       pjsip_ctype_hdr_clone      00000001400034f0 f   pjsip-core-x86_64-x64-vc14-release:sip_msg.obj
 0001:000025e0       pjsip_fromto_hdr_print     00000001400035e0 f   pjsip-core-x86_64-x64-vc14-release:sip_msg.obj
 0001:00002730       pjsip_fromto_hdr_clone     0000000140003730 f   pjsip-core-x86_64-x64-vc14-release:sip_msg.obj
 0001:00002830       pjsip_routing_hdr_print    0000000140003830 f   pjsip-core-x86_64-x64-vc14-release:sip_msg.obj
 0001:000029a0       pjsip_routing_hdr_clone    00000001400039a0 f   pjsip-core-x86_64-x64-vc14-release:sip_msg.obj
 0001:00002a60       pjsip_routing_hdr_shallow_clone 0000000140003a60 f   pjsip-core-x86_64-x64-vc14-release:sip_msg.obj
 0001:00002b00       pjsip_retry_after_hdr_print 0000000140003b00 f   pjsip-core-x86_64-x64-vc14-release:sip_msg.obj
 0001:00002c30       pjsip_retry_after_hdr_clone 0000000140003c30 f   pjsip-core-x86_64-x64-vc14-release:sip_msg.obj
 0001:00002ce0       pjsip_retry_after_hdr_shallow_clone 0000000140003ce0 f   pjsip-core-x86_64-x64-vc14-release:sip_msg.obj
 0001:00002d80       pjsip_via_hdr_print        0000000140003d80 f   pjsip-core-x86_64-x64-vc14-release:sip_msg.obj
 0001:00003170       pjsip_via_hdr_clone        0000000140004170 f   pjsip-core-x86_64-x64-vc14-release:sip_msg.obj
 0001:000032a0       pjsip_via_hdr_shallow_clone 00000001400042a0 f   pjsip-core-x86_64-x64-vc14-release:sip_msg.obj
 0001:00003380       init_status_phrase         0000000140004380 f   pjsip-core-x86_64-x64-vc14-release:sip_msg.obj
 0001:00004ab0       print_media_type           0000000140005ab0 f   pjsip-core-x86_64-x64-vc14-release:sip_msg.obj
 0001:00004b50       mod_on_tx_msg              0000000140005b50 f   pjsip-core-x86_64-x64-vc14-release:sip_transport.obj
 0001:00004b60       destroy_transport          0000000140005b60 f   pjsip-core-x86_64-x64-vc14-release:sip_transport.obj
 0001:00004d10       get_msg_info               0000000140005d10 f   pjsip-core-x86_64-x64-vc14-release:sip_transport.obj
 0001:000069c0       tp_state_callback          00000001400079c0 f   pjsip-core-x86_64-x64-vc14-release:sip_transport.obj
 0001:00006a70       transport_idle_callback    0000000140007a70 f   pjsip-core-x86_64-x64-vc14-release:sip_transport.obj
 0001:00006af0       transport_send_callback    0000000140007af0 f   pjsip-core-x86_64-x64-vc14-release:sip_transport.obj
 0001:00006b40       tx_data_destroy            0000000140007b40 f   pjsip-core-x86_64-x64-vc14-release:sip_transport.obj
 0001:00006c10       cmp_mod_name               0000000140007c10 f   pjsip-core-x86_64-x64-vc14-release:sip_endpoint.obj
 0001:00006c20       endpt_on_rx_msg            0000000140007c20 f   pjsip-core-x86_64-x64-vc14-release:sip_endpoint.obj
 0001:00006f00       endpt_on_tx_msg            0000000140007f00 f   pjsip-core-x86_64-x64-vc14-release:sip_endpoint.obj
 0001:00007b90       pool_callback              0000000140008b90 f   pjsip-core-x86_64-x64-vc14-release:sip_endpoint.obj
 0001:00007bb0       unload_module              0000000140008bb0 f   pjsip-core-x86_64-x64-vc14-release:sip_endpoint.obj
 0001:00007c20       init_request_throw         0000000140008c20 f   pjsip-core-x86_64-x64-vc14-release:sip_util.obj
 0001:00009000       send_response_resolver_cb  000000014000a000 f   pjsip-core-x86_64-x64-vc14-release:sip_util.obj
 0001:000091b0       send_response_transport_cb 000000014000a1b0 f   pjsip-core-x86_64-x64-vc14-release:sip_util.obj
 0001:00009200       stateless_send_resolver_callback 000000014000a200 f   pjsip-core-x86_64-x64-vc14-release:sip_util.obj
 0001:00009480       stateless_send_transport_cb 000000014000a480 f   pjsip-core-x86_64-x64-vc14-release:sip_util.obj
 0001:00009830       digest2str                 000000014000a830 f   pjsip-core-x86_64-x64-vc14-release:sip_util_proxy.obj
 0001:00009f40       create_socket              000000014000af40 f   pjsip-core-x86_64-x64-vc14-release:sip_transport_udp.obj
 0001:0000a010       get_published_name         000000014000b010 f   pjsip-core-x86_64-x64-vc14-release:sip_transport_udp.obj
 0001:0000a5d0       register_to_ioqueue        000000014000b5d0 f   pjsip-core-x86_64-x64-vc14-release:sip_transport_udp.obj
 0001:0000a6b0       start_async_read           000000014000b6b0 f   pjsip-core-x86_64-x64-vc14-release:sip_transport_udp.obj
 0001:0000aa70       transport_attach           000000014000ba70 f   pjsip-core-x86_64-x64-vc14-release:sip_transport_udp.obj
 0001:0000ae50       udp_destroy                000000014000be50 f   pjsip-core-x86_64-x64-vc14-release:sip_transport_udp.obj
 0001:0000afc0       udp_on_destroy             000000014000bfc0 f   pjsip-core-x86_64-x64-vc14-release:sip_transport_udp.obj
 0001:0000b060       udp_on_read_complete       000000014000c060 f   pjsip-core-x86_64-x64-vc14-release:sip_transport_udp.obj
 0001:0000b340       udp_on_write_complete      000000014000c340 f   pjsip-core-x86_64-x64-vc14-release:sip_transport_udp.obj
 0001:0000b410       udp_send_msg               000000014000c410 f   pjsip-core-x86_64-x64-vc14-release:sip_transport_udp.obj
 0001:0000b570       udp_set_pub_name           000000014000c570 f   pjsip-core-x86_64-x64-vc14-release:sip_transport_udp.obj
 0001:0000b680       udp_shutdown               000000014000c680 f   pjsip-core-x86_64-x64-vc14-release:sip_transport_udp.obj
 0001:0000b690       other_uri_get_scheme       000000014000c690 f   pjsip-core-x86_64-x64-vc14-release:sip_uri.obj
 0001:0000b6a0       tel_uri_get_uri            000000014000c6a0 f   pjsip-core-x86_64-x64-vc14-release:sip_tel_uri.obj
 0001:0000b6a0       other_uri_get_uri          000000014000c6a0 f   pjsip-core-x86_64-x64-vc14-release:sip_uri.obj
 0001:0000b6a0       pjsip_get_uri              000000014000c6a0 f   pjsip-core-x86_64-x64-vc14-release:sip_uri.obj
 0001:0000b6b0       other_uri_print            000000014000c6b0 f   pjsip-core-x86_64-x64-vc14-release:sip_uri.obj
 0001:0000b750       other_uri_cmp              000000014000c750 f   pjsip-core-x86_64-x64-vc14-release:sip_uri.obj
 0001:0000b7c0       other_uri_clone            000000014000c7c0 f   pjsip-core-x86_64-x64-vc14-release:sip_uri.obj
 0001:0000b830       pjsip_url_get_scheme       000000014000c830 f   pjsip-core-x86_64-x64-vc14-release:sip_uri.obj
 0001:0000b840       pjsips_url_get_scheme      000000014000c840 f   pjsip-core-x86_64-x64-vc14-release:sip_uri.obj
 0001:0000b850       pjsip_name_addr_get_scheme 000000014000c850 f   pjsip-core-x86_64-x64-vc14-release:sip_uri.obj
 0001:0000b860       pjsip_name_addr_get_uri    000000014000c860 f   pjsip-core-x86_64-x64-vc14-release:sip_uri.obj
 0001:0000b870       pjsip_name_addr_clone      000000014000c870 f   pjsip-core-x86_64-x64-vc14-release:sip_uri.obj
 0001:0000b900       pjsip_name_addr_print      000000014000c900 f   pjsip-core-x86_64-x64-vc14-release:sip_uri.obj
 0001:0000ba40       pjsip_name_addr_compare    000000014000ca40 f   pjsip-core-x86_64-x64-vc14-release:sip_uri.obj
 0001:0000bab0       pjsip_url_print            000000014000cab0 f   pjsip-core-x86_64-x64-vc14-release:sip_uri.obj
 0001:0000c020       pjsip_url_compare          000000014000d020 f   pjsip-core-x86_64-x64-vc14-release:sip_uri.obj
 0001:0000c280       pjsip_url_clone            000000014000d280 f   pjsip-core-x86_64-x64-vc14-release:sip_uri.obj
 0001:0000c890       find_handler_imp           000000014000d890 f   pjsip-core-x86_64-x64-vc14-release:sip_parser.obj
 0001:0000c950       find_uri_handler           000000014000d950 f   pjsip-core-x86_64-x64-vc14-release:sip_parser.obj
 0001:0000c9e0       init_parser                000000014000d9e0 f   pjsip-core-x86_64-x64-vc14-release:sip_parser.obj
 0001:0000d1d0       int_parse_contact_param    000000014000e1d0 f   pjsip-core-x86_64-x64-vc14-release:sip_parser.obj
 0001:0000d550       int_parse_msg              000000014000e550 f   pjsip-core-x86_64-x64-vc14-release:sip_parser.obj
 0001:0000da30       int_parse_name_addr        000000014000ea30 f   pjsip-core-x86_64-x64-vc14-release:sip_parser.obj
 0001:0000db40       int_parse_other_uri        000000014000eb40 f   pjsip-core-x86_64-x64-vc14-release:sip_parser.obj
 0001:0000dbc0       int_parse_param            000000014000ebc0 f   pjsip-core-x86_64-x64-vc14-release:sip_parser.obj
 0001:0000dcc0       int_parse_sip_url          000000014000ecc0 f   pjsip-core-x86_64-x64-vc14-release:sip_parser.obj
 0001:0000e2a0       int_parse_status_line      000000014000f2a0 f   pjsip-core-x86_64-x64-vc14-release:sip_parser.obj
 0001:0000e390       int_parse_uri              000000014000f390 f   pjsip-core-x86_64-x64-vc14-release:sip_parser.obj
 0001:0000e470       int_parse_uri_or_name_addr 000000014000f470 f   pjsip-core-x86_64-x64-vc14-release:sip_parser.obj
 0001:0000e540       int_parse_via_param        000000014000f540 f   pjsip-core-x86_64-x64-vc14-release:sip_parser.obj
 0001:0000e860       int_register_parser        000000014000f860 f   pjsip-core-x86_64-x64-vc14-release:sip_parser.obj
 0001:0000ea60       on_str_parse_error         000000014000fa60 f   pjsip-core-x86_64-x64-vc14-release:sip_parser.obj
 0001:0000eb00       parse_pgp_challenge        000000014000fb00 f   pjsip-core-x86_64-x64-vc14-release:sip_auth_parser.obj
 0001:0000eb00       parse_pgp_credential       000000014000fb00 f   pjsip-core-x86_64-x64-vc14-release:sip_auth_parser.obj
 0001:0000eb00       on_syntax_error            000000014000fb00 f   pjsip-core-x86_64-x64-vc14-release:sip_parser.obj
 0001:0000eb10       parse_generic_array_hdr    000000014000fb10 f   pjsip-core-x86_64-x64-vc14-release:sip_parser.obj
 0001:0000ebe0       parse_hdr_accept           000000014000fbe0 f   pjsip-core-x86_64-x64-vc14-release:sip_parser.obj
 0001:0000ec20       parse_hdr_allow            000000014000fc20 f   pjsip-core-x86_64-x64-vc14-release:sip_parser.obj
 0001:0000ec60       parse_hdr_call_id          000000014000fc60 f   pjsip-core-x86_64-x64-vc14-release:sip_parser.obj
 0001:0000ecd0       parse_hdr_contact          000000014000fcd0 f   pjsip-core-x86_64-x64-vc14-release:sip_parser.obj
 0001:0000eda0       parse_hdr_content_len      000000014000fda0 f   pjsip-core-x86_64-x64-vc14-release:sip_parser.obj
 0001:0000ee20       parse_hdr_content_type     000000014000fe20 f   pjsip-core-x86_64-x64-vc14-release:sip_parser.obj
 0001:0000ef20       parse_hdr_cseq             000000014000ff20 f   pjsip-core-x86_64-x64-vc14-release:sip_parser.obj
 0001:0000eff0       parse_hdr_expires          000000014000fff0 f   pjsip-core-x86_64-x64-vc14-release:sip_parser.obj
 0001:0000f070       parse_hdr_from             0000000140010070 f   pjsip-core-x86_64-x64-vc14-release:sip_parser.obj
 0001:0000f0c0       parse_hdr_fromto           00000001400100c0 f   pjsip-core-x86_64-x64-vc14-release:sip_parser.obj
 0001:0000f250       parse_hdr_generic_string   0000000140010250 f   pjsip-core-x86_64-x64-vc14-release:sip_parser.obj
 0001:0000f3d0       parse_hdr_max_forwards     00000001400103d0 f   pjsip-core-x86_64-x64-vc14-release:sip_parser.obj
 0001:0000f460       parse_hdr_min_expires      0000000140010460 f   pjsip-core-x86_64-x64-vc14-release:sip_parser.obj
 0001:0000f4e0       parse_hdr_require          00000001400104e0 f   pjsip-core-x86_64-x64-vc14-release:sip_parser.obj
 0001:0000f580       parse_hdr_retry_after      0000000140010580 f   pjsip-core-x86_64-x64-vc14-release:sip_parser.obj
 0001:0000f6f0       parse_hdr_route            00000001400106f0 f   pjsip-core-x86_64-x64-vc14-release:sip_parser.obj
 0001:0000f7b0       parse_hdr_rr               00000001400107b0 f   pjsip-core-x86_64-x64-vc14-release:sip_parser.obj
 0001:0000f870       parse_hdr_rr_route         0000000140010870 f   pjsip-core-x86_64-x64-vc14-release:sip_parser.obj
 0001:0000f910       parse_hdr_supported        0000000140010910 f   pjsip-core-x86_64-x64-vc14-release:sip_parser.obj
 0001:0000f9b0       parse_hdr_to               00000001400109b0 f   pjsip-core-x86_64-x64-vc14-release:sip_parser.obj
 0001:0000fa00       parse_hdr_unsupported      0000000140010a00 f   pjsip-core-x86_64-x64-vc14-release:sip_parser.obj
 0001:0000fa40       parse_hdr_via              0000000140010a40 f   pjsip-core-x86_64-x64-vc14-release:sip_parser.obj
 0001:0000fc30       parse_sip_version          0000000140010c30 f   pjsip-core-x86_64-x64-vc14-release:sip_parser.obj
 0001:000105a0       dns_a_callback             00000001400115a0 f   pjsip-core-x86_64-x64-vc14-release:sip_resolve.obj
 0001:00010730       dns_aaaa_callback          0000000140011730 f   pjsip-core-x86_64-x64-vc14-release:sip_resolve.obj
 0001:00011000       srv_resolver_cb            0000000140012000 f   pjsip-core-x86_64-x64-vc14-release:sip_resolve.obj
 0001:00011350       tel_uri_get_scheme         0000000140012350 f   pjsip-core-x86_64-x64-vc14-release:sip_tel_uri.obj
 0001:00011370       tel_uri_print              0000000140012370 f   pjsip-core-x86_64-x64-vc14-release:sip_tel_uri.obj
 0001:00011580       tel_uri_cmp                0000000140012580 f   pjsip-core-x86_64-x64-vc14-release:sip_tel_uri.obj
 0001:000116c0       tel_uri_clone              00000001400126c0 f   pjsip-core-x86_64-x64-vc14-release:sip_tel_uri.obj
 0001:00011ad0       tel_uri_parse              0000000140012ad0 f   pjsip-core-x86_64-x64-vc14-release:sip_tel_uri.obj
 0001:00011d10       null_op                    0000000140012d10 f   pjlib-x86_64-x64-vc14-release:lock.obj
 0001:00011d10       mod_tsx_layer_load         0000000140012d10 f   pjsip-core-x86_64-x64-vc14-release:sip_transaction.obj
 0001:00011d10       mod_tsx_layer_start        0000000140012d10 f   pjsip-core-x86_64-x64-vc14-release:sip_transaction.obj
 0001:00011d20       mod_tsx_layer_stop         0000000140012d20 f   pjsip-core-x86_64-x64-vc14-release:sip_transaction.obj
 0001:00011ec0       mod_tsx_layer_unload       0000000140012ec0 f   pjsip-core-x86_64-x64-vc14-release:sip_transaction.obj
 0001:00011f60       mod_tsx_layer_on_rx_request 0000000140012f60 f   pjsip-core-x86_64-x64-vc14-release:sip_transaction.obj
 0001:000120f0       mod_tsx_layer_on_rx_response 00000001400130f0 f   pjsip-core-x86_64-x64-vc14-release:sip_transaction.obj
 0001:00012280       tsx_on_state_null          0000000140013280 f   pjsip-core-x86_64-x64-vc14-release:sip_transaction.obj
 0001:00012580       tsx_on_state_calling       0000000140013580 f   pjsip-core-x86_64-x64-vc14-release:sip_transaction.obj
 0001:00012780       tsx_on_state_trying        0000000140013780 f   pjsip-core-x86_64-x64-vc14-release:sip_transaction.obj
 0001:000128a0       tsx_on_state_proceeding_uas 00000001400138a0 f   pjsip-core-x86_64-x64-vc14-release:sip_transaction.obj
 0001:00012fa0       tsx_on_state_proceeding_uac 0000000140013fa0 f   pjsip-core-x86_64-x64-vc14-release:sip_transaction.obj
 0001:00013530       tsx_on_state_completed_uas 0000000140014530 f   pjsip-core-x86_64-x64-vc14-release:sip_transaction.obj
 0001:000138e0       tsx_on_state_completed_uac 00000001400148e0 f   pjsip-core-x86_64-x64-vc14-release:sip_transaction.obj
 0001:000139d0       tsx_on_state_confirmed     00000001400149d0 f   pjsip-core-x86_64-x64-vc14-release:sip_transaction.obj
 0001:00013a40       tsx_on_state_terminated    0000000140014a40 f   pjsip-core-x86_64-x64-vc14-release:sip_transaction.obj
 0001:00013a80       tsx_on_state_destroyed     0000000140014a80 f   pjsip-core-x86_64-x64-vc14-release:sip_transaction.obj
 0001:00013a90       create_tsx_key_2543        0000000140014a90 f   pjsip-core-x86_64-x64-vc14-release:sip_transaction.obj
 0001:00013c80       mod_tsx_layer_unregister_tsx 0000000140014c80 f   pjsip-core-x86_64-x64-vc14-release:sip_transaction.obj
 0001:00013db0       send_msg_callback          0000000140014db0 f   pjsip-core-x86_64-x64-vc14-release:sip_transaction.obj
 0001:000142c0       transport_callback         00000001400152c0 f   pjsip-core-x86_64-x64-vc14-release:sip_transaction.obj
 0001:000143c0       tsx_layer_destroy          00000001400153c0 f   pjsip-core-x86_64-x64-vc14-release:sip_transaction.obj
 0001:00014420       tsx_resched_retransmission 0000000140015420 f   pjsip-core-x86_64-x64-vc14-release:sip_transaction.obj
 0001:00014500       tsx_retransmit             0000000140015500 f   pjsip-core-x86_64-x64-vc14-release:sip_transaction.obj
 0001:000145c0       tsx_send_msg               00000001400155c0 f   pjsip-core-x86_64-x64-vc14-release:sip_transaction.obj
 0001:000148c0       tsx_set_state              00000001400158c0 f   pjsip-core-x86_64-x64-vc14-release:sip_transaction.obj
 0001:00014b20       tsx_shutdown               0000000140015b20 f   pjsip-core-x86_64-x64-vc14-release:sip_transaction.obj
 0001:00014c20       tsx_tp_state_callback      0000000140015c20 f   pjsip-core-x86_64-x64-vc14-release:sip_transaction.obj
 0001:00014cd0       tsx_update_transport       0000000140015cd0 f   pjsip-core-x86_64-x64-vc14-release:sip_transaction.obj
 0001:00014df0       multipart_clone_data       0000000140015df0 f   pjsip-core-x86_64-x64-vc14-release:sip_multipart.obj
 0001:00014f00       multipart_print_body       0000000140015f00 f   pjsip-core-x86_64-x64-vc14-release:sip_multipart.obj
 0001:000151d0       parse_multipart_part       00000001400161d0 f   pjsip-core-x86_64-x64-vc14-release:sip_multipart.obj
 0001:00015820       int_parse_hdr_authenticate 0000000140016820 f   pjsip-core-x86_64-x64-vc14-release:sip_auth_parser.obj
 0001:00015ab0       int_parse_hdr_authorization 0000000140016ab0 f   pjsip-core-x86_64-x64-vc14-release:sip_auth_parser.obj
 0001:00015d50       parse_hdr_authorization    0000000140016d50 f   pjsip-core-x86_64-x64-vc14-release:sip_auth_parser.obj
 0001:00015d90       parse_hdr_proxy_authenticate 0000000140016d90 f   pjsip-core-x86_64-x64-vc14-release:sip_auth_parser.obj
 0001:00015dd0       parse_hdr_proxy_authorization 0000000140016dd0 f   pjsip-core-x86_64-x64-vc14-release:sip_auth_parser.obj
 0001:00015e10       parse_hdr_www_authenticate 0000000140016e10 f   pjsip-core-x86_64-x64-vc14-release:sip_auth_parser.obj
 0001:00015ec0       mod_util_on_tsx_state      0000000140016ec0 f   pjsip-core-x86_64-x64-vc14-release:sip_util_statefull.obj
 0001:00015f10       pjsip_authorization_hdr_clone 0000000140016f10 f   pjsip-core-x86_64-x64-vc14-release:sip_auth_msg.obj
 0001:00016110       pjsip_authorization_hdr_shallow_clone 0000000140017110 f   pjsip-core-x86_64-x64-vc14-release:sip_auth_msg.obj
 0001:000161e0       pjsip_authorization_hdr_print 00000001400171e0 f   pjsip-core-x86_64-x64-vc14-release:sip_auth_msg.obj
 0001:00016300       pjsip_www_authenticate_hdr_print 0000000140017300 f   pjsip-core-x86_64-x64-vc14-release:sip_auth_msg.obj
 0001:000163f0       pjsip_www_authenticate_hdr_clone 00000001400173f0 f   pjsip-core-x86_64-x64-vc14-release:sip_auth_msg.obj
 0001:000165a0       pjsip_www_authenticate_hdr_shallow_clone 00000001400175a0 f   pjsip-core-x86_64-x64-vc14-release:sip_auth_msg.obj
 0001:00016870       print_digest_challenge     0000000140017870 f   pjsip-core-x86_64-x64-vc14-release:sip_auth_msg.obj
 0001:00016c20       print_digest_credential    0000000140017c20 f   pjsip-core-x86_64-x64-vc14-release:sip_auth_msg.obj
 0001:00017160       print_oauth_credential     0000000140018160 f   pjsip-core-x86_64-x64-vc14-release:sip_auth_msg.obj
 0001:00017550       _getopt_internal           0000000140018550 f   pjlib-util-x86_64-x64-vc14-release:getopt.obj
 0001:00017d30       exchange                   0000000140018d30 f   pjlib-util-x86_64-x64-vc14-release:getopt.obj
 0001:00018030       alloc_qnode                0000000140019030 f   pjlib-util-x86_64-x64-vc14-release:resolver.obj
 0001:000180f0       init_res_key               00000001400190f0 f   pjlib-util-x86_64-x64-vc14-release:resolver.obj
 0001:00018180       on_timeout                 0000000140019180 f   pjlib-util-x86_64-x64-vc14-release:resolver.obj
 0001:00018fe0       select_nameservers         0000000140019fe0 f   pjlib-util-x86_64-x64-vc14-release:resolver.obj
 0001:00019130       set_nameserver_state       000000014001a130 f   pjlib-util-x86_64-x64-vc14-release:resolver.obj
 0001:00019240       transmit_query             000000014001a240 f   pjlib-util-x86_64-x64-vc14-release:resolver.obj
 0001:000195d0       MD5Transform               000000014001a5d0 f   pjlib-util-x86_64-x64-vc14-release:md5.obj
 0001:0001a8b8       $LN15                      000000014001b8b8     pjlib-util-x86_64-x64-vc14-release:dns.obj
 0001:0001a8e0       $LN14                      000000014001b8e0     pjlib-util-x86_64-x64-vc14-release:dns.obj
 0001:0001aa50       build_server_entries       000000014001ba50 f   pjlib-util-x86_64-x64-vc14-release:srv_resolver.obj
 0001:0001b3f0       dns_callback               000000014001c3f0 f   pjlib-util-x86_64-x64-vc14-release:srv_resolver.obj
 0001:0001be10       init_mutex                 000000014001ce10 f   pjlib-x86_64-x64-vc14-release:os_core_win32.obj
 0001:0001d120       pj_sem_wait_for            000000014001e120 f   pjlib-x86_64-x64-vc14-release:os_core_win32.obj
 0001:0001d9c0       thread_main                000000014001e9c0 f   pjlib-x86_64-x64-vc14-release:os_core_win32.obj
 0001:0001da50       invoke_log                 000000014001ea50 f   pjlib-x86_64-x64-vc14-release:errno.obj
 0001:0001db70       pj_perror_imp              000000014001eb70 f   pjlib-x86_64-x64-vc14-release:errno.obj
 0001:0001f250       reset_pool                 0000000140020250 f   pjlib-x86_64-x64-vc14-release:pool.obj
 0001:0001f2f0       cpool_create_pool          00000001400202f0 f   pjlib-x86_64-x64-vc14-release:pool_caching.obj
 0001:0001f480       cpool_dump_status          0000000140020480 f   pjlib-x86_64-x64-vc14-release:pool_caching.obj
 0001:0001f630       cpool_on_block_alloc       0000000140020630 f   pjlib-x86_64-x64-vc14-release:pool_caching.obj
 0001:0001f650       cpool_on_block_free        0000000140020650 f   pjlib-x86_64-x64-vc14-release:pool_caching.obj
 0001:0001f660       cpool_release_pool         0000000140020660 f   pjlib-x86_64-x64-vc14-release:pool_caching.obj
 0001:00021680       logging_shutdown           0000000140022680 f   pjlib-x86_64-x64-vc14-release:log.obj
 0001:00021e44       $LN13                      0000000140022e44     pjlib-x86_64-x64-vc14-release:log.obj
 0001:00021f60       MyGetAdapterAddresses      0000000140022f60 f   pjlib-x86_64-x64-vc14-release:ip_helper_win32.obj
 0001:00022030       MyGetIpAddrTable           0000000140023030 f   pjlib-x86_64-x64-vc14-release:ip_helper_win32.obj
 0001:00022100       enum_ipv4_interface        0000000140023100 f   pjlib-x86_64-x64-vc14-release:ip_helper_win32.obj
 0001:00022350       enum_ipv4_ipv6_interface   0000000140023350 f   pjlib-x86_64-x64-vc14-release:ip_helper_win32.obj
 0001:00022580       unload_iphlp_module        0000000140023580 f   pjlib-x86_64-x64-vc14-release:ip_helper_win32.obj
 0001:000225c0       default_block_alloc        00000001400235c0 f   pjlib-x86_64-x64-vc14-release:pool_policy_malloc.obj
 0001:00022640       default_block_free         0000000140023640 f   pjlib-x86_64-x64-vc14-release:pool_policy_malloc.obj
 0001:000226a0       default_pool_callback      00000001400236a0 f   pjlib-x86_64-x64-vc14-release:pool_policy_malloc.obj
 0001:000226d0       decrement_counter          00000001400236d0 f   pjlib-x86_64-x64-vc14-release:ioqueue_select.obj
 0001:00023d60       scan_closing_keys          0000000140024d60 f   pjlib-x86_64-x64-vc14-release:ioqueue_select.obj
 0001:00023e00       grp_lock_acquire           0000000140024e00 f   pjlib-x86_64-x64-vc14-release:lock.obj
 0001:00023e70       grp_lock_destroy           0000000140024e70 f   pjlib-x86_64-x64-vc14-release:lock.obj
 0001:00023f60       grp_lock_release           0000000140024f60 f   pjlib-x86_64-x64-vc14-release:lock.obj
 0001:00023ff0       grp_lock_tryacquire        0000000140024ff0 f   pjlib-x86_64-x64-vc14-release:lock.obj
 0001:000245a0       insert_node                00000001400255a0 f   pjlib-x86_64-x64-vc14-release:timer.obj
 0001:000250a0       reheap_up                  00000001400260a0 f   pjlib-x86_64-x64-vc14-release:timer.obj
 0001:00025170       remove_node                0000000140026170 f   pjlib-x86_64-x64-vc14-release:timer.obj
 0001:00025380       exception_cleanup          0000000140026380 f   pjlib-x86_64-x64-vc14-release:except.obj
 0001:00026160       guid_to_str                0000000140027160 f   pjlib-x86_64-x64-vc14-release:guid_win32.obj
 0001:00026ab0       pool_buf_cleanup           0000000140027ab0 f   pjlib-x86_64-x64-vc14-release:pool_buf.obj
 0001:00026ae0       stack_alloc                0000000140027ae0 f   pjlib-x86_64-x64-vc14-release:pool_buf.obj
 0001:000271f0       $$000000                   00000001400281f0     MSVCRT:amdsecgs.obj
 0001:00027220       ?pre_c_initialization@@YAHXZ 0000000140028220 f   MSVCRT:exe_main.obj
 0001:000272d8       ?post_pgo_initialization@@YAHXZ 00000001400282d8 f   MSVCRT:exe_main.obj
 0001:000272e8       ?pre_cpp_initialization@@YAXXZ 00000001400282e8 f   MSVCRT:exe_main.obj
 0001:00027304       ?__scrt_common_main_seh@@YAHXZ 0000000140028304 f   MSVCRT:exe_main.obj
 0001:0002764c       capture_current_context    000000014002864c f   MSVCRT:gs_report.obj
 0001:000276bc       capture_previous_context   00000001400286bc f   MSVCRT:gs_report.obj
 0001:000278e0       $$000000                   00000001400288e0     MSVCRT:chkstk.obj
 0001:00028030       $$000000                   0000000140029030     MSVCRT:guard_dispatch.obj
 0001:00028050       $$000000                   0000000140029050     MSVCRT:guard_xfg_dispatch.obj
 0001:00028066       ?filt$0@?0??__scrt_common_main_seh@@YAHXZ@4HA 0000000140029066 f   MSVCRT:exe_main.obj
 0001:00028084       __scrt_is_nonwritable_in_current_image$filt$0 0000000140029084 f   MSVCRT:utility.obj
 0002:00000468       ?pre_cpp_initializer@@3P6AXXZEA 000000014002a468     MSVCRT:exe_main.obj
 0002:00000480       ?pre_c_initializer@@3P6AHXZEA 000000014002a480     MSVCRT:exe_main.obj
 0002:00000488       ?post_pgo_initializer@@3P6AHXZEA 000000014002a488     MSVCRT:exe_main.obj
 0002:00002150       err_str                    000000014002c150     pjsip-core-x86_64-x64-vc14-release:sip_errno.obj
 0002:00003f40       err_str                    000000014002df40     pjlib-util-x86_64-x64-vc14-release:errno.obj
 0002:00005900       err_str                    000000014002f900     pjlib-x86_64-x64-vc14-release:errno.obj
 0002:000068c0       gaErrorList                00000001400308c0     pjlib-x86_64-x64-vc14-release:os_error_win32.obj
 0002:00007538       qos_map                    0000000140031538     pjlib-x86_64-x64-vc14-release:sock_qos_common.obj
 0002:00007790       GS_ExceptionPointers       0000000140031790     MSVCRT:gs_report.obj
 0002:00007cd8       $unwind$printf             0000000140031cd8     stateless_proxy.obj
 0002:00007ce4       $unwind$_snprintf          0000000140031ce4     stateless_proxy.obj
 0002:00007cf4       $unwind$app_perror         0000000140031cf4     stateless_proxy.obj
 0002:00007d08       $unwind$init_options       0000000140031d08     stateless_proxy.obj
 0002:00007d24       $unwind$logging_on_rx_msg  0000000140031d24     stateless_proxy.obj
 0002:00007d2c       $chain$1$logging_on_rx_msg 0000000140031d2c     stateless_proxy.obj
 0002:00007d44       $chain$2$logging_on_rx_msg 0000000140031d44     stateless_proxy.obj
 0002:00007d54       $unwind$logging_on_tx_msg  0000000140031d54     stateless_proxy.obj
 0002:00007d5c       $chain$3$logging_on_tx_msg 0000000140031d5c     stateless_proxy.obj
 0002:00007d7c       $chain$4$logging_on_tx_msg 0000000140031d7c     stateless_proxy.obj
 0002:00007d8c       $unwind$init_stack         0000000140031d8c     stateless_proxy.obj
 0002:00007d9c       $unwind$init_proxy         0000000140031d9c     stateless_proxy.obj
 0002:00007dac       $chain$1$init_proxy        0000000140031dac     stateless_proxy.obj
 0002:00007dc4       $chain$2$init_proxy        0000000140031dc4     stateless_proxy.obj
 0002:00007dd8       $chain$3$init_proxy        0000000140031dd8     stateless_proxy.obj
 0002:00007de8       $chain$4$init_proxy        0000000140031de8     stateless_proxy.obj
 0002:00007df8       $unwind$worker_thread      0000000140031df8     stateless_proxy.obj
 0002:00007e00       $unwind$is_uri_local       0000000140031e00     stateless_proxy.obj
 0002:00007e10       $unwind$proxy_verify_request 0000000140031e10     stateless_proxy.obj
 0002:00007e18       $unwind$proxy_process_routing 0000000140031e18     stateless_proxy.obj
 0002:00007e2c       $unwind$proxy_postprocess  0000000140031e2c     stateless_proxy.obj
 0002:00007e40       $unwind$proxy_calculate_target 0000000140031e40     stateless_proxy.obj
 0002:00007e4c       $unwind$destroy_stack      0000000140031e4c     stateless_proxy.obj
 0002:00007e54       $unwind$on_rx_request      0000000140031e54     stateless_proxy.obj
 0002:00007e6c       $chain$1$on_rx_request     0000000140031e6c     stateless_proxy.obj
 0002:00007e84       $chain$2$on_rx_request     0000000140031e84     stateless_proxy.obj
 0002:00007e94       $unwind$on_rx_response     0000000140031e94     stateless_proxy.obj
 0002:00007ea8       $chain$0$on_rx_response    0000000140031ea8     stateless_proxy.obj
 0002:00007ebc       $chain$1$on_rx_response    0000000140031ebc     stateless_proxy.obj
 0002:00007ecc       $unwind$init_stateless_proxy 0000000140031ecc     stateless_proxy.obj
 0002:00007ed4       $unwind$main               0000000140031ed4     stateless_proxy.obj
 0002:00007ef0       $unwind$pj_hash_get        0000000140031ef0     pjlib-x86_64-x64-vc14-release:hash.obj
 0002:00007ef0       $unwind$pjsip_method_init_np 0000000140031ef0     pjsip-core-x86_64-x64-vc14-release:sip_msg.obj
 0002:00007f08       $unwind$pj_scan_peek       0000000140031f08     pjlib-util-x86_64-x64-vc14-release:scanner.obj
 0002:00007f08       $unwind$exception_cleanup  0000000140031f08     pjlib-x86_64-x64-vc14-release:except.obj
 0002:00007f08       $unwind$pj_exception_id_name 0000000140031f08     pjlib-x86_64-x64-vc14-release:except.obj
 0002:00007f08       $unwind$unload_iphlp_module 0000000140031f08     pjlib-x86_64-x64-vc14-release:ip_helper_win32.obj
 0002:00007f08       $unwind$pj_grp_lock_add_ref 0000000140031f08     pjlib-x86_64-x64-vc14-release:lock.obj
 0002:00007f08       $unwind$logging_shutdown   0000000140031f08     pjlib-x86_64-x64-vc14-release:log.obj
 0002:00007f08       $unwind$pj_log_pop_indent  0000000140031f08     pjlib-x86_64-x64-vc14-release:log.obj
 0002:00007f08       $unwind$pj_log_push_indent 0000000140031f08     pjlib-x86_64-x64-vc14-release:log.obj
 0002:00007f08       $unwind$pj_thread_local_set 0000000140031f08     pjlib-x86_64-x64-vc14-release:os_core_win32.obj
 0002:00007f08       $unwind$pj_get_netos_error 0000000140031f08     pjlib-x86_64-x64-vc14-release:os_error_win32.obj
 0002:00007f08       $unwind$pool_buf_cleanup   0000000140031f08     pjlib-x86_64-x64-vc14-release:pool_buf.obj
 0002:00007f08       $unwind$default_pool_callback 0000000140031f08     pjlib-x86_64-x64-vc14-release:pool_policy_malloc.obj
 0002:00007f08       $unwind$pj_gethostname     0000000140031f08     pjlib-x86_64-x64-vc14-release:sock_bsd.obj
 0002:00007f08       $unwind$pjsip_authorization_hdr_create 0000000140031f08     pjsip-core-x86_64-x64-vc14-release:sip_auth_msg.obj
 0002:00007f08       $unwind$pjsip_proxy_authenticate_hdr_create 0000000140031f08     pjsip-core-x86_64-x64-vc14-release:sip_auth_msg.obj
 0002:00007f08       $unwind$pjsip_proxy_authorization_hdr_create 0000000140031f08     pjsip-core-x86_64-x64-vc14-release:sip_auth_msg.obj
 0002:00007f08       $unwind$pjsip_www_authenticate_hdr_create 0000000140031f08     pjsip-core-x86_64-x64-vc14-release:sip_auth_msg.obj
 0002:00007f08       $unwind$parse_pgp_challenge 0000000140031f08     pjsip-core-x86_64-x64-vc14-release:sip_auth_parser.obj
 0002:00007f08       $unwind$parse_pgp_credential 0000000140031f08     pjsip-core-x86_64-x64-vc14-release:sip_auth_parser.obj
 0002:00007f08       $unwind$pjsip_auth_init_parser 0000000140031f08     pjsip-core-x86_64-x64-vc14-release:sip_auth_parser.obj
 0002:00007f08       $unwind$pool_callback      0000000140031f08     pjsip-core-x86_64-x64-vc14-release:sip_endpoint.obj
 0002:00007f08       $unwind$pjsip_accept_hdr_create 0000000140031f08     pjsip-core-x86_64-x64-vc14-release:sip_msg.obj
 0002:00007f08       $unwind$pjsip_allow_hdr_create 0000000140031f08     pjsip-core-x86_64-x64-vc14-release:sip_msg.obj
 0002:00007f08       $unwind$pjsip_cid_hdr_create 0000000140031f08     pjsip-core-x86_64-x64-vc14-release:sip_msg.obj
 0002:00007f08       $unwind$pjsip_clen_hdr_create 0000000140031f08     pjsip-core-x86_64-x64-vc14-release:sip_msg.obj
 0002:00007f08       $unwind$pjsip_contact_hdr_create 0000000140031f08     pjsip-core-x86_64-x64-vc14-release:sip_msg.obj
 0002:00007f08       $unwind$pjsip_cseq_hdr_create 0000000140031f08     pjsip-core-x86_64-x64-vc14-release:sip_msg.obj
 0002:00007f08       $unwind$pjsip_ctype_hdr_create 0000000140031f08     pjsip-core-x86_64-x64-vc14-release:sip_msg.obj
 0002:00007f08       $unwind$pjsip_from_hdr_create 0000000140031f08     pjsip-core-x86_64-x64-vc14-release:sip_msg.obj
 0002:00007f08       $unwind$pjsip_get_status_text 0000000140031f08     pjsip-core-x86_64-x64-vc14-release:sip_msg.obj
 0002:00007f08       $unwind$pjsip_require_hdr_create 0000000140031f08     pjsip-core-x86_64-x64-vc14-release:sip_msg.obj
 0002:00007f08       $unwind$pjsip_supported_hdr_create 0000000140031f08     pjsip-core-x86_64-x64-vc14-release:sip_msg.obj
 0002:00007f08       $unwind$pjsip_to_hdr_create 0000000140031f08     pjsip-core-x86_64-x64-vc14-release:sip_msg.obj
 0002:00007f08       $unwind$pjsip_unsupported_hdr_create 0000000140031f08     pjsip-core-x86_64-x64-vc14-release:sip_msg.obj
 0002:00007f08       $unwind$deinit_sip_parser  0000000140031f08     pjsip-core-x86_64-x64-vc14-release:sip_parser.obj
 0002:00007f08       $unwind$init_sip_parser    0000000140031f08     pjsip-core-x86_64-x64-vc14-release:sip_parser.obj
 0002:00007f08       $unwind$on_syntax_error    0000000140031f08     pjsip-core-x86_64-x64-vc14-release:sip_parser.obj
 0002:00007f08       $unwind$pjsip_tel_uri_subsys_init 0000000140031f08     pjsip-core-x86_64-x64-vc14-release:sip_tel_uri.obj
 0002:00007f08       $unwind$tel_uri_get_scheme 0000000140031f08     pjsip-core-x86_64-x64-vc14-release:sip_tel_uri.obj
 0002:00007f08       $unwind$mod_tsx_layer_unload 0000000140031f08     pjsip-core-x86_64-x64-vc14-release:sip_transaction.obj
 0002:00007f08       $unwind$tsx_layer_destroy  0000000140031f08     pjsip-core-x86_64-x64-vc14-release:sip_transaction.obj
 0002:00007f08       $unwind$pjsip_name_addr_create 0000000140031f08     pjsip-core-x86_64-x64-vc14-release:sip_uri.obj
 0002:00007f08       $unwind$pjsip_other_uri_create 0000000140031f08     pjsip-core-x86_64-x64-vc14-release:sip_uri.obj
 0002:00007f08       $unwind$__scrt_initialize_default_local_stdio_options 0000000140031f08     MSVCRT:default_local_stdio_options.obj
 0002:00007f08       $unwind$?post_pgo_initialization@@YAHXZ 0000000140031f08     MSVCRT:exe_main.obj
 0002:00007f08       $unwind$?pre_cpp_initialization@@YAXXZ 0000000140031f08     MSVCRT:exe_main.obj
 0002:00007f08       $unwind$mainCRTStartup     0000000140031f08     MSVCRT:exe_main.obj
 0002:00007f08       $unwind$__report_rangecheckfailure 0000000140031f08     MSVCRT:gs_report.obj
 0002:00007f08       $unwind$__GSHandlerCheck   0000000140031f08     MSVCRT:gshandler.obj
 0002:00007f08       $unwind$__scrt_acquire_startup_lock 0000000140031f08     MSVCRT:utility.obj
 0002:00007f08       $unwind$atexit             0000000140031f08     MSVCRT:utility.obj
 0002:00007f08       $unwind$__scrt_is_managed_app 0000000140031f08     MSVCRT:utility_desktop.obj
 0002:00007f10       $unwind$pjsip_media_type_cp 0000000140031f10     pjsip-core-x86_64-x64-vc14-release:sip_msg.obj
 0002:00007f20       $unwind$pj_cis_add_alpha   0000000140031f20     pjlib-util-x86_64-x64-vc14-release:scanner.obj
 0002:00007f20       $unwind$pj_cis_buf_init    0000000140031f20     pjlib-util-x86_64-x64-vc14-release:scanner.obj
 0002:00007f20       $unwind$pj_scan_get_char   0000000140031f20     pjlib-util-x86_64-x64-vc14-release:scanner.obj
 0002:00007f20       $unwind$pj_scan_skip_line  0000000140031f20     pjlib-util-x86_64-x64-vc14-release:scanner.obj
 0002:00007f20       $unwind$pj_exception_id_free 0000000140031f20     pjlib-x86_64-x64-vc14-release:except.obj
 0002:00007f20       $unwind$pj_pop_exception_handler_ 0000000140031f20     pjlib-x86_64-x64-vc14-release:except.obj
 0002:00007f20       $unwind$pj_push_exception_handler_ 0000000140031f20     pjlib-x86_64-x64-vc14-release:except.obj
 0002:00007f20       $unwind$pj_create_unique_string 0000000140031f20     pjlib-x86_64-x64-vc14-release:guid.obj
 0002:00007f20       $unwind$pj_hash_this       0000000140031f20     pjlib-x86_64-x64-vc14-release:hash.obj
 0002:00007f20       $unwind$pj_ioqueue_unregister 0000000140031f20     pjlib-x86_64-x64-vc14-release:ioqueue_select.obj
 0002:00007f20       $unwind$pj_grp_lock_dec_ref 0000000140031f20     pjlib-x86_64-x64-vc14-release:lock.obj
 0002:00007f20       $unwind$pj_log_init        0000000140031f20     pjlib-x86_64-x64-vc14-release:log.obj
 0002:00007f20       $unwind$pj_thread_local_alloc 0000000140031f20     pjlib-x86_64-x64-vc14-release:os_core_win32.obj
 0002:00007f20       $unwind$pj_get_timestamp   0000000140031f20     pjlib-x86_64-x64-vc14-release:os_timestamp_win32.obj
 0002:00007f20       $unwind$pj_get_timestamp_freq 0000000140031f20     pjlib-x86_64-x64-vc14-release:os_timestamp_win32.obj
 0002:00007f20       $unwind$pj_pool_destroy_int 0000000140031f20     pjlib-x86_64-x64-vc14-release:pool.obj
 0002:00007f20       $unwind$pj_pool_reset      0000000140031f20     pjlib-x86_64-x64-vc14-release:pool.obj
 0002:00007f20       $unwind$pj_rand            0000000140031f20     pjlib-x86_64-x64-vc14-release:rand.obj
 0002:00007f20       $unwind$pj_sock_close      0000000140031f20     pjlib-x86_64-x64-vc14-release:sock_bsd.obj
 0002:00007f20       $unwind$pj_sockaddr_set_port 0000000140031f20     pjlib-x86_64-x64-vc14-release:sock_common.obj
 0002:00007f20       $unwind$PJ_FD_ZERO         0000000140031f20     pjlib-x86_64-x64-vc14-release:sock_select.obj
 0002:00007f20       $unwind$pj_strcpy          0000000140031f20     pjlib-x86_64-x64-vc14-release:string.obj
 0002:00007f20       $unwind$pj_strcpy2         0000000140031f20     pjlib-x86_64-x64-vc14-release:string.obj
 0002:00007f20       $unwind$pj_timer_heap_destroy 0000000140031f20     pjlib-x86_64-x64-vc14-release:timer.obj
 0002:00007f20       $unwind$pj_time_val_normalize 0000000140031f20     pjlib-x86_64-x64-vc14-release:types.obj
 0002:00007f20       $unwind$pjsip_endpt_release_pool 0000000140031f20     pjsip-core-x86_64-x64-vc14-release:sip_endpoint.obj
 0002:00007f20       $unwind$pjsip_clen_hdr_clone 0000000140031f20     pjsip-core-x86_64-x64-vc14-release:sip_msg.obj
 0002:00007f20       $unwind$pjsip_cseq_hdr_shallow_clone 0000000140031f20     pjsip-core-x86_64-x64-vc14-release:sip_msg.obj
 0002:00007f20       $unwind$pjsip_expires_hdr_create 0000000140031f20     pjsip-core-x86_64-x64-vc14-release:sip_msg.obj
 0002:00007f20       $unwind$pjsip_generic_array_hdr_shallow_clone 0000000140031f20     pjsip-core-x86_64-x64-vc14-release:sip_msg.obj
 0002:00007f20       $unwind$pjsip_generic_int_hdr_clone 0000000140031f20     pjsip-core-x86_64-x64-vc14-release:sip_msg.obj
 0002:00007f20       $unwind$pjsip_generic_int_hdr_shallow_clone 0000000140031f20     pjsip-core-x86_64-x64-vc14-release:sip_msg.obj
 0002:00007f20       $unwind$pjsip_generic_string_hdr_shallow_clone 0000000140031f20     pjsip-core-x86_64-x64-vc14-release:sip_msg.obj
 0002:00007f20       $unwind$pjsip_max_fwd_hdr_create 0000000140031f20     pjsip-core-x86_64-x64-vc14-release:sip_msg.obj
 0002:00007f20       $unwind$pjsip_min_expires_hdr_create 0000000140031f20     pjsip-core-x86_64-x64-vc14-release:sip_msg.obj
 0002:00007f20       $unwind$pjsip_msg_create   0000000140031f20     pjsip-core-x86_64-x64-vc14-release:sip_msg.obj
 0002:00007f20       $unwind$pjsip_print_text_body 0000000140031f20     pjsip-core-x86_64-x64-vc14-release:sip_msg.obj
 0002:00007f20       $unwind$pjsip_retry_after_hdr_create 0000000140031f20     pjsip-core-x86_64-x64-vc14-release:sip_msg.obj
 0002:00007f20       $unwind$pjsip_route_hdr_create 0000000140031f20     pjsip-core-x86_64-x64-vc14-release:sip_msg.obj
 0002:00007f20       $unwind$pjsip_rr_hdr_create 0000000140031f20     pjsip-core-x86_64-x64-vc14-release:sip_msg.obj
 0002:00007f20       $unwind$pjsip_via_hdr_create 0000000140031f20     pjsip-core-x86_64-x64-vc14-release:sip_msg.obj
 0002:00007f20       $unwind$pjsip_resolver_create 0000000140031f20     pjsip-core-x86_64-x64-vc14-release:sip_resolve.obj
 0002:00007f20       $unwind$pjsip_resolver_destroy 0000000140031f20     pjsip-core-x86_64-x64-vc14-release:sip_resolve.obj
 0002:00007f20       $unwind$tsx_shutdown       0000000140031f20     pjsip-core-x86_64-x64-vc14-release:sip_transaction.obj
 0002:00007f20       $unwind$pjsip_tx_data_dec_ref 0000000140031f20     pjsip-core-x86_64-x64-vc14-release:sip_transport.obj
 0002:00007f20       $unwind$pjsip_tx_data_get_info 0000000140031f20     pjsip-core-x86_64-x64-vc14-release:sip_transport.obj
 0002:00007f20       $unwind$transport_send_callback 0000000140031f20     pjsip-core-x86_64-x64-vc14-release:sip_transport.obj
 0002:00007f20       $unwind$tx_data_destroy    0000000140031f20     pjsip-core-x86_64-x64-vc14-release:sip_transport.obj
 0002:00007f20       $unwind$udp_on_destroy     0000000140031f20     pjsip-core-x86_64-x64-vc14-release:sip_transport_udp.obj
 0002:00007f20       $unwind$?pre_c_initialization@@YAHXZ 0000000140031f20     MSVCRT:exe_main.obj
 0002:00007f20       $unwind$__raise_securityfailure 0000000140031f20     MSVCRT:gs_report.obj
 0002:00007f20       $unwind$__scrt_initialize_crt 0000000140031f20     MSVCRT:utility.obj
 0002:00007f20       $unwind$__scrt_initialize_onexit_tables 0000000140031f20     MSVCRT:utility.obj
 0002:00007f20       $unwind$__scrt_release_startup_lock 0000000140031f20     MSVCRT:utility.obj
 0002:00007f20       $unwind$__scrt_uninitialize_crt 0000000140031f20     MSVCRT:utility.obj
 0002:00007f20       $unwind$_onexit            0000000140031f20     MSVCRT:utility.obj
 0002:00007f28       $unwind$pjsip_clone_text_data 0000000140031f28     pjsip-core-x86_64-x64-vc14-release:sip_msg.obj
 0002:00007f30       $chain$1$pjsip_clone_text_data 0000000140031f30     pjsip-core-x86_64-x64-vc14-release:sip_msg.obj
 0002:00007f48       $chain$2$pjsip_clone_text_data 0000000140031f48     pjsip-core-x86_64-x64-vc14-release:sip_msg.obj
 0002:00007f58       $unwind$pjsip_msg_body_clone 0000000140031f58     pjsip-core-x86_64-x64-vc14-release:sip_msg.obj
 0002:00007f6c       $unwind$pj_md5_final       0000000140031f6c     pjlib-util-x86_64-x64-vc14-release:md5.obj
 0002:00007f6c       $unwind$guid_to_str        0000000140031f6c     pjlib-x86_64-x64-vc14-release:guid_win32.obj
 0002:00007f6c       $unwind$pj_hash_calc       0000000140031f6c     pjlib-x86_64-x64-vc14-release:hash.obj
 0002:00007f6c       $unwind$pj_hash_create     0000000140031f6c     pjlib-x86_64-x64-vc14-release:hash.obj
 0002:00007f6c       $unwind$MyGetIpAddrTable   0000000140031f6c     pjlib-x86_64-x64-vc14-release:ip_helper_win32.obj
 0002:00007f6c       $unwind$pj_enum_ip_interface 0000000140031f6c     pjlib-x86_64-x64-vc14-release:ip_helper_win32.obj
 0002:00007f6c       $unwind$grp_lock_acquire   0000000140031f6c     pjlib-x86_64-x64-vc14-release:lock.obj
 0002:00007f6c       $unwind$grp_lock_release   0000000140031f6c     pjlib-x86_64-x64-vc14-release:lock.obj
 0002:00007f6c       $unwind$pj_caching_pool_init 0000000140031f6c     pjlib-x86_64-x64-vc14-release:pool_caching.obj
 0002:00007f6c       $unwind$default_block_free 0000000140031f6c     pjlib-x86_64-x64-vc14-release:pool_policy_malloc.obj
 0002:00007f6c       $unwind$pj_sock_bind       0000000140031f6c     pjlib-x86_64-x64-vc14-release:sock_bsd.obj
 0002:00007f6c       $unwind$pj_sock_connect    0000000140031f6c     pjlib-x86_64-x64-vc14-release:sock_bsd.obj
 0002:00007f6c       $unwind$pj_sock_getsockname 0000000140031f6c     pjlib-x86_64-x64-vc14-release:sock_bsd.obj
 0002:00007f6c       $unwind$PJ_FD_CLR          0000000140031f6c     pjlib-x86_64-x64-vc14-release:sock_select.obj
 0002:00007f6c       $unwind$PJ_FD_SET          0000000140031f6c     pjlib-x86_64-x64-vc14-release:sock_select.obj
 0002:00007f6c       $unwind$pj_stricmp2        0000000140031f6c     pjlib-x86_64-x64-vc14-release:string.obj
 0002:00007f6c       $unwind$pj_utoa            0000000140031f6c     pjlib-x86_64-x64-vc14-release:string.obj
 0002:00007f6c       $unwind$pj_timer_heap_set_lock 0000000140031f6c     pjlib-x86_64-x64-vc14-release:timer.obj
 0002:00007f6c       $unwind$pjsip_authorization_hdr_shallow_clone 0000000140031f6c     pjsip-core-x86_64-x64-vc14-release:sip_auth_msg.obj
 0002:00007f6c       $unwind$pjsip_www_authenticate_hdr_shallow_clone 0000000140031f6c     pjsip-core-x86_64-x64-vc14-release:sip_auth_msg.obj
 0002:00007f6c       $unwind$pjsip_clen_hdr_print 0000000140031f6c     pjsip-core-x86_64-x64-vc14-release:sip_msg.obj
 0002:00007f6c       $unwind$pjsip_contact_hdr_shallow_clone 0000000140031f6c     pjsip-core-x86_64-x64-vc14-release:sip_msg.obj
 0002:00007f6c       $unwind$pjsip_cseq_hdr_clone 0000000140031f6c     pjsip-core-x86_64-x64-vc14-release:sip_msg.obj
 0002:00007f6c       $unwind$pjsip_fromto_hdr_shallow_clone 0000000140031f6c     pjsip-core-x86_64-x64-vc14-release:sip_msg.obj
 0002:00007f6c       $unwind$pjsip_generic_int_hdr_print 0000000140031f6c     pjsip-core-x86_64-x64-vc14-release:sip_msg.obj
 0002:00007f6c       $unwind$pjsip_generic_string_hdr_print 0000000140031f6c     pjsip-core-x86_64-x64-vc14-release:sip_msg.obj
 0002:00007f6c       $unwind$pjsip_msg_find_hdr_by_name 0000000140031f6c     pjsip-core-x86_64-x64-vc14-release:sip_msg.obj
 0002:00007f6c       $unwind$pjsip_retry_after_hdr_shallow_clone 0000000140031f6c     pjsip-core-x86_64-x64-vc14-release:sip_msg.obj
 0002:00007f6c       $unwind$pjsip_routing_hdr_shallow_clone 0000000140031f6c     pjsip-core-x86_64-x64-vc14-release:sip_msg.obj
 0002:00007f6c       $unwind$pjsip_via_hdr_shallow_clone 0000000140031f6c     pjsip-core-x86_64-x64-vc14-release:sip_msg.obj
 0002:00007f6c       $unwind$int_parse_other_uri 0000000140031f6c     pjsip-core-x86_64-x64-vc14-release:sip_parser.obj
 0002:00007f6c       $unwind$other_uri_clone    0000000140031f6c     pjsip-core-x86_64-x64-vc14-release:sip_uri.obj
 0002:00007f6c       $unwind$pjsip_name_addr_assign 0000000140031f6c     pjsip-core-x86_64-x64-vc14-release:sip_uri.obj
 0002:00007f6c       $unwind$pjsip_name_addr_clone 0000000140031f6c     pjsip-core-x86_64-x64-vc14-release:sip_uri.obj
 0002:00007f6c       $unwind$pjsip_name_addr_compare 0000000140031f6c     pjsip-core-x86_64-x64-vc14-release:sip_uri.obj
 0002:00007f6c       $unwind$pjsip_param_find   0000000140031f6c     pjsip-core-x86_64-x64-vc14-release:sip_uri.obj
 0002:00007f7c       $unwind$pjsip_msg_print    0000000140031f7c     pjsip-core-x86_64-x64-vc14-release:sip_msg.obj
 0002:00007fa4       $unwind$platform_strerror  0000000140031fa4     pjlib-x86_64-x64-vc14-release:os_error_win32.obj
 0002:00007fa4       $unwind$pjsip_endpt_schedule_timer_w_grp_lock_dbg 0000000140031fa4     pjsip-core-x86_64-x64-vc14-release:sip_endpoint.obj
 0002:00007fa4       $unwind$pjsip_generic_string_hdr_create 0000000140031fa4     pjsip-core-x86_64-x64-vc14-release:sip_msg.obj
 0002:00007fb8       $unwind$pj_strerror        0000000140031fb8     pjlib-x86_64-x64-vc14-release:errno.obj
 0002:00007fb8       $unwind$print_media_type   0000000140031fb8     pjsip-core-x86_64-x64-vc14-release:sip_msg.obj
 0002:00007fcc       $unwind$init_status_phrase 0000000140031fcc     pjsip-core-x86_64-x64-vc14-release:sip_msg.obj
 0002:00007fd4       $unwind$pjsip_generic_string_hdr_clone 0000000140031fd4     pjsip-core-x86_64-x64-vc14-release:sip_msg.obj
 0002:00007fec       $unwind$pj_hash_set_np     0000000140031fec     pjlib-x86_64-x64-vc14-release:hash.obj
 0002:00007fec       $unwind$pj_strtol2         0000000140031fec     pjlib-x86_64-x64-vc14-release:string.obj
 0002:00007fec       $unwind$pjsip_generic_array_hdr_print 0000000140031fec     pjsip-core-x86_64-x64-vc14-release:sip_msg.obj
 0002:00007fec       $unwind$pjsip_name_addr_print 0000000140031fec     pjsip-core-x86_64-x64-vc14-release:sip_uri.obj
 0002:00008008       $unwind$pj_list_search     0000000140032008     pjlib-x86_64-x64-vc14-release:list.obj
 0002:00008008       $unwind$grp_lock_tryacquire 0000000140032008     pjlib-x86_64-x64-vc14-release:lock.obj
 0002:00008008       $unwind$pj_grp_lock_add_handler 0000000140032008     pjlib-x86_64-x64-vc14-release:lock.obj
 0002:00008008       $unwind$pj_pool_init_int   0000000140032008     pjlib-x86_64-x64-vc14-release:pool.obj
 0002:00008008       $unwind$pj_sock_accept     0000000140032008     pjlib-x86_64-x64-vc14-release:sock_bsd.obj
 0002:00008008       $unwind$pj_sock_recv       0000000140032008     pjlib-x86_64-x64-vc14-release:sock_bsd.obj
 0002:00008008       $unwind$pj_sock_send       0000000140032008     pjlib-x86_64-x64-vc14-release:sock_bsd.obj
 0002:00008008       $unwind$pj_strtrim         0000000140032008     pjlib-x86_64-x64-vc14-release:string.obj
 0002:00008008       $unwind$pjsip_authorization_hdr_clone 0000000140032008     pjsip-core-x86_64-x64-vc14-release:sip_auth_msg.obj
 0002:00008008       $unwind$pjsip_www_authenticate_hdr_clone 0000000140032008     pjsip-core-x86_64-x64-vc14-release:sip_auth_msg.obj
 0002:00008008       $unwind$pjsip_contact_hdr_clone 0000000140032008     pjsip-core-x86_64-x64-vc14-release:sip_msg.obj
 0002:00008008       $unwind$pjsip_ctype_hdr_clone 0000000140032008     pjsip-core-x86_64-x64-vc14-release:sip_msg.obj
 0002:00008008       $unwind$pjsip_fromto_hdr_clone 0000000140032008     pjsip-core-x86_64-x64-vc14-release:sip_msg.obj
 0002:00008008       $unwind$pjsip_generic_array_hdr_clone 0000000140032008     pjsip-core-x86_64-x64-vc14-release:sip_msg.obj
 0002:00008008       $unwind$pjsip_retry_after_hdr_clone 0000000140032008     pjsip-core-x86_64-x64-vc14-release:sip_msg.obj
 0002:00008008       $unwind$pjsip_routing_hdr_clone 0000000140032008     pjsip-core-x86_64-x64-vc14-release:sip_msg.obj
 0002:00008008       $unwind$pjsip_via_hdr_clone 0000000140032008     pjsip-core-x86_64-x64-vc14-release:sip_msg.obj
 0002:00008008       $unwind$find_uri_handler   0000000140032008     pjsip-core-x86_64-x64-vc14-release:sip_parser.obj
 0002:00008008       $unwind$tel_uri_clone      0000000140032008     pjsip-core-x86_64-x64-vc14-release:sip_tel_uri.obj
 0002:00008008       $unwind$pjsip_transport_get_type_from_name 0000000140032008     pjsip-core-x86_64-x64-vc14-release:sip_transport.obj
 0002:00008008       $unwind$other_uri_print    0000000140032008     pjsip-core-x86_64-x64-vc14-release:sip_uri.obj
 0002:00008008       $unwind$pjsip_param_shallow_clone 0000000140032008     pjsip-core-x86_64-x64-vc14-release:sip_uri.obj
 0002:0000801c       $unwind$pjsip_cseq_hdr_print 000000014003201c     pjsip-core-x86_64-x64-vc14-release:sip_msg.obj
 0002:0000802c       $unwind$print_digest_challenge 000000014003202c     pjsip-core-x86_64-x64-vc14-release:sip_auth_msg.obj
 0002:0000802c       $unwind$print_digest_credential 000000014003202c     pjsip-core-x86_64-x64-vc14-release:sip_auth_msg.obj
 0002:0000802c       $unwind$pjsip_contact_hdr_print 000000014003202c     pjsip-core-x86_64-x64-vc14-release:sip_msg.obj
 0002:00008048       $unwind$pj_scan_init       0000000140032048     pjlib-util-x86_64-x64-vc14-release:scanner.obj
 0002:00008048       $unwind$pjsip_ctype_hdr_print 0000000140032048     pjsip-core-x86_64-x64-vc14-release:sip_msg.obj
 0002:00008048       $unwind$parse_hdr_require  0000000140032048     pjsip-core-x86_64-x64-vc14-release:sip_parser.obj
 0002:00008048       $unwind$parse_hdr_route    0000000140032048     pjsip-core-x86_64-x64-vc14-release:sip_parser.obj
 0002:00008048       $unwind$parse_hdr_rr       0000000140032048     pjsip-core-x86_64-x64-vc14-release:sip_parser.obj
 0002:00008048       $unwind$parse_hdr_supported 0000000140032048     pjsip-core-x86_64-x64-vc14-release:sip_parser.obj
 0002:0000805c       $unwind$pjsip_fromto_hdr_print 000000014003205c     pjsip-core-x86_64-x64-vc14-release:sip_msg.obj
 0002:00008078       $unwind$pjsip_routing_hdr_print 0000000140032078     pjsip-core-x86_64-x64-vc14-release:sip_msg.obj
 0002:00008078       $unwind$parse_multipart_part 0000000140032078     pjsip-core-x86_64-x64-vc14-release:sip_multipart.obj
 0002:00008094       $unwind$pjsip_retry_after_hdr_print 0000000140032094     pjsip-core-x86_64-x64-vc14-release:sip_msg.obj
 0002:000080a8       $chain$0$pjsip_retry_after_hdr_print 00000001400320a8     pjsip-core-x86_64-x64-vc14-release:sip_msg.obj
 0002:000080bc       $chain$1$pjsip_retry_after_hdr_print 00000001400320bc     pjsip-core-x86_64-x64-vc14-release:sip_msg.obj
 0002:000080cc       $unwind$pjsip_via_hdr_print 00000001400320cc     pjsip-core-x86_64-x64-vc14-release:sip_msg.obj
 0002:000080e8       $unwind$pjsip_rx_data_get_info 00000001400320e8     pjsip-core-x86_64-x64-vc14-release:sip_transport.obj
 0002:000080f8       $unwind$grp_lock_destroy   00000001400320f8     pjlib-x86_64-x64-vc14-release:lock.obj
 0002:000080f8       $unwind$pjsip_tx_data_create 00000001400320f8     pjsip-core-x86_64-x64-vc14-release:sip_transport.obj
 0002:00008104       $chain$0$pjsip_tx_data_create 0000000140032104     pjsip-core-x86_64-x64-vc14-release:sip_transport.obj
 0002:00008118       $chain$4$pjsip_tx_data_create 0000000140032118     pjsip-core-x86_64-x64-vc14-release:sip_transport.obj
 0002:00008134       $chain$6$pjsip_tx_data_create 0000000140032134     pjsip-core-x86_64-x64-vc14-release:sip_transport.obj
 0002:00008150       $chain$7$pjsip_tx_data_create 0000000140032150     pjsip-core-x86_64-x64-vc14-release:sip_transport.obj
 0002:00008160       $unwind$pjsip_tx_data_encode 0000000140032160     pjsip-core-x86_64-x64-vc14-release:sip_transport.obj
 0002:00008174       $unwind$pjsip_transport_register 0000000140032174     pjsip-core-x86_64-x64-vc14-release:sip_transport.obj
 0002:0000818c       $unwind$tsx_resched_retransmission 000000014003218c     pjsip-core-x86_64-x64-vc14-release:sip_transaction.obj
 0002:0000818c       $unwind$pjsip_transport_destroy 000000014003218c     pjsip-core-x86_64-x64-vc14-release:sip_transport.obj
 0002:0000818c       $unwind$transport_idle_callback 000000014003218c     pjsip-core-x86_64-x64-vc14-release:sip_transport.obj
 0002:00008194       $unwind$pjsip_transport_add_ref 0000000140032194     pjsip-core-x86_64-x64-vc14-release:sip_transport.obj
 0002:000081ac       $unwind$pjsip_transport_dec_ref 00000001400321ac     pjsip-core-x86_64-x64-vc14-release:sip_transport.obj
 0002:000081bc       $chain$1$pjsip_transport_dec_ref 00000001400321bc     pjsip-core-x86_64-x64-vc14-release:sip_transport.obj
 0002:000081d4       $chain$2$pjsip_transport_dec_ref 00000001400321d4     pjsip-core-x86_64-x64-vc14-release:sip_transport.obj
 0002:000081e4       $unwind$pjsip_tpmgr_receive_packet 00000001400321e4     pjsip-core-x86_64-x64-vc14-release:sip_transport.obj
 0002:00008200       $chain$1$pjsip_tpmgr_receive_packet 0000000140032200     pjsip-core-x86_64-x64-vc14-release:sip_transport.obj
 0002:00008218       $chain$2$pjsip_tpmgr_receive_packet 0000000140032218     pjsip-core-x86_64-x64-vc14-release:sip_transport.obj
 0002:00008228       $chain$3$pjsip_tpmgr_receive_packet 0000000140032228     pjsip-core-x86_64-x64-vc14-release:sip_transport.obj
 0002:00008240       $unwind$pjsip_tpmgr_create 0000000140032240     pjsip-core-x86_64-x64-vc14-release:sip_transport.obj
 0002:00008254       $chain$1$pjsip_tpmgr_create 0000000140032254     pjsip-core-x86_64-x64-vc14-release:sip_transport.obj
 0002:0000826c       $chain$2$pjsip_tpmgr_create 000000014003226c     pjsip-core-x86_64-x64-vc14-release:sip_transport.obj
 0002:0000826c       $chain$4$pjsip_tpmgr_create 000000014003226c     pjsip-core-x86_64-x64-vc14-release:sip_transport.obj
 0002:0000827c       $chain$3$pjsip_tpmgr_create 000000014003227c     pjsip-core-x86_64-x64-vc14-release:sip_transport.obj
 0002:00008294       $unwind$pj_thread_join     0000000140032294     pjlib-x86_64-x64-vc14-release:os_core_win32.obj
 0002:00008294       $unwind$pjsip_tpmgr_destroy 0000000140032294     pjsip-core-x86_64-x64-vc14-release:sip_transport.obj
 0002:00008294       $unwind$init_request_throw 0000000140032294     pjsip-core-x86_64-x64-vc14-release:sip_util.obj
 0002:0000829c       $chain$0$pjsip_tpmgr_destroy 000000014003229c     pjsip-core-x86_64-x64-vc14-release:sip_transport.obj
 0002:000082b0       $chain$2$pjsip_tpmgr_destroy 00000001400322b0     pjsip-core-x86_64-x64-vc14-release:sip_transport.obj
 0002:000082c8       $chain$3$pjsip_tpmgr_destroy 00000001400322c8     pjsip-core-x86_64-x64-vc14-release:sip_transport.obj
 0002:000082d8       $chain$4$pjsip_tpmgr_destroy 00000001400322d8     pjsip-core-x86_64-x64-vc14-release:sip_transport.obj
 0002:000082e8       $unwind$pjsip_tpmgr_dump_transports 00000001400322e8     pjsip-core-x86_64-x64-vc14-release:sip_transport.obj
 0002:000082f8       $chain$3$pjsip_tpmgr_dump_transports 00000001400322f8     pjsip-core-x86_64-x64-vc14-release:sip_transport.obj
 0002:00008318       $chain$4$pjsip_tpmgr_dump_transports 0000000140032318     pjsip-core-x86_64-x64-vc14-release:sip_transport.obj
 0002:00008328       $unwind$pjsip_tpmgr_acquire_transport2 0000000140032328     pjsip-core-x86_64-x64-vc14-release:sip_transport.obj
 0002:00008344       $chain$0$pjsip_tpmgr_acquire_transport2 0000000140032344     pjsip-core-x86_64-x64-vc14-release:sip_transport.obj
 0002:00008358       $chain$1$pjsip_tpmgr_acquire_transport2 0000000140032358     pjsip-core-x86_64-x64-vc14-release:sip_transport.obj
 0002:00008368       $chain$2$pjsip_tpmgr_acquire_transport2 0000000140032368     pjsip-core-x86_64-x64-vc14-release:sip_transport.obj
 0002:0000837c       $unwind$pjlib_util_strerror 000000014003237c     pjlib-util-x86_64-x64-vc14-release:errno.obj
 0002:0000837c       $unwind$pjsip_transport_send 000000014003237c     pjsip-core-x86_64-x64-vc14-release:sip_transport.obj
 0002:00008390       $chain$0$pjsip_transport_send 0000000140032390     pjsip-core-x86_64-x64-vc14-release:sip_transport.obj
 0002:000083a4       $chain$1$pjsip_transport_send 00000001400323a4     pjsip-core-x86_64-x64-vc14-release:sip_transport.obj
 0002:000083b4       $unwind$pjsip_transport_add_state_listener 00000001400323b4     pjsip-core-x86_64-x64-vc14-release:sip_transport.obj
 0002:000083c4       $chain$1$pjsip_transport_add_state_listener 00000001400323c4     pjsip-core-x86_64-x64-vc14-release:sip_transport.obj
 0002:000083dc       $chain$2$pjsip_transport_add_state_listener 00000001400323dc     pjsip-core-x86_64-x64-vc14-release:sip_transport.obj
 0002:000083ec       $unwind$pjsip_transport_remove_state_listener 00000001400323ec     pjsip-core-x86_64-x64-vc14-release:sip_transport.obj
 0002:000083fc       $chain$0$pjsip_transport_remove_state_listener 00000001400323fc     pjsip-core-x86_64-x64-vc14-release:sip_transport.obj
 0002:00008410       $chain$2$pjsip_transport_remove_state_listener 0000000140032410     pjsip-core-x86_64-x64-vc14-release:sip_transport.obj
 0002:00008424       $chain$3$pjsip_transport_remove_state_listener 0000000140032424     pjsip-core-x86_64-x64-vc14-release:sip_transport.obj
 0002:00008434       $unwind$tp_state_callback  0000000140032434     pjsip-core-x86_64-x64-vc14-release:sip_transport.obj
 0002:00008448       $chain$0$tp_state_callback 0000000140032448     pjsip-core-x86_64-x64-vc14-release:sip_transport.obj
 0002:0000845c       $chain$1$tp_state_callback 000000014003245c     pjsip-core-x86_64-x64-vc14-release:sip_transport.obj
 0002:0000846c       $unwind$get_msg_info       000000014003246c     pjsip-core-x86_64-x64-vc14-release:sip_transport.obj
 0002:00008484       $unwind$destroy_transport  0000000140032484     pjsip-core-x86_64-x64-vc14-release:sip_transport.obj
 0002:0000848c       $chain$3$destroy_transport 000000014003248c     pjsip-core-x86_64-x64-vc14-release:sip_transport.obj
 0002:000084ac       $chain$5$destroy_transport 00000001400324ac     pjsip-core-x86_64-x64-vc14-release:sip_transport.obj
 0002:000084c4       $chain$6$destroy_transport 00000001400324c4     pjsip-core-x86_64-x64-vc14-release:sip_transport.obj
 0002:000084d4       $chain$7$destroy_transport 00000001400324d4     pjsip-core-x86_64-x64-vc14-release:sip_transport.obj
 0002:000084e4       $unwind$pjsip_endpt_create 00000001400324e4     pjsip-core-x86_64-x64-vc14-release:sip_endpoint.obj
 0002:000084f4       $chain$1$pjsip_endpt_create 00000001400324f4     pjsip-core-x86_64-x64-vc14-release:sip_endpoint.obj
 0002:0000850c       $chain$3$pjsip_endpt_create 000000014003250c     pjsip-core-x86_64-x64-vc14-release:sip_endpoint.obj
 0002:00008524       $unwind$decrement_counter  0000000140032524     pjlib-x86_64-x64-vc14-release:ioqueue_select.obj
 0002:00008524       $unwind$pj_ioqueue_destroy 0000000140032524     pjlib-x86_64-x64-vc14-release:ioqueue_select.obj
 0002:00008524       $unwind$pjsip_endpt_destroy 0000000140032524     pjsip-core-x86_64-x64-vc14-release:sip_endpoint.obj
 0002:0000852c       $chain$1$pjsip_endpt_destroy 000000014003252c     pjsip-core-x86_64-x64-vc14-release:sip_endpoint.obj
 0002:00008544       $chain$2$pjsip_endpt_destroy 0000000140032544     pjsip-core-x86_64-x64-vc14-release:sip_endpoint.obj
 0002:00008558       $chain$3$pjsip_endpt_destroy 0000000140032558     pjsip-core-x86_64-x64-vc14-release:sip_endpoint.obj
 0002:0000856c       $chain$4$pjsip_endpt_destroy 000000014003256c     pjsip-core-x86_64-x64-vc14-release:sip_endpoint.obj
 0002:0000857c       $chain$5$pjsip_endpt_destroy 000000014003257c     pjsip-core-x86_64-x64-vc14-release:sip_endpoint.obj
 0002:0000858c       $chain$6$pjsip_endpt_destroy 000000014003258c     pjsip-core-x86_64-x64-vc14-release:sip_endpoint.obj
 0002:0000859c       $unwind$pjsip_endpt_handle_events 000000014003259c     pjsip-core-x86_64-x64-vc14-release:sip_endpoint.obj
 0002:0000859c       $unwind$pjsip_get_response_addr 000000014003259c     pjsip-core-x86_64-x64-vc14-release:sip_util.obj
 0002:000085b0       $unwind$pj_dns_resolver_cancel_query 00000001400325b0     pjlib-util-x86_64-x64-vc14-release:resolver.obj
 0002:000085b0       $unwind$pj_scan_get_quote  00000001400325b0     pjlib-util-x86_64-x64-vc14-release:scanner.obj
 0002:000085b0       $unwind$pj_exception_id_alloc 00000001400325b0     pjlib-x86_64-x64-vc14-release:except.obj
 0002:000085b0       $unwind$pj_throw_exception_ 00000001400325b0     pjlib-x86_64-x64-vc14-release:except.obj
 0002:000085b0       $unwind$pj_log_write       00000001400325b0     pjlib-x86_64-x64-vc14-release:log_writer_stdout.obj
 0002:000085b0       $unwind$pj_atomic_create   00000001400325b0     pjlib-x86_64-x64-vc14-release:os_core_win32.obj
 0002:000085b0       $unwind$pj_pool_calloc     00000001400325b0     pjlib-x86_64-x64-vc14-release:pool.obj
 0002:000085b0       $unwind$stack_alloc        00000001400325b0     pjlib-x86_64-x64-vc14-release:pool_buf.obj
 0002:000085b0       $unwind$pj_sockaddr_in_init 00000001400325b0     pjlib-x86_64-x64-vc14-release:sock_common.obj
 0002:000085b0       $unwind$PJ_FD_ISSET        00000001400325b0     pjlib-x86_64-x64-vc14-release:sock_select.obj
 0002:000085b0       $unwind$pj_strcat          00000001400325b0     pjlib-x86_64-x64-vc14-release:string.obj
 0002:000085b0       $unwind$pj_strcmp          00000001400325b0     pjlib-x86_64-x64-vc14-release:string.obj
 0002:000085b0       $unwind$pj_strdup          00000001400325b0     pjlib-x86_64-x64-vc14-release:string.obj
 0002:000085b0       $unwind$pj_strdup2         00000001400325b0     pjlib-x86_64-x64-vc14-release:string.obj
 0002:000085b0       $unwind$pj_strdup_with_null 00000001400325b0     pjlib-x86_64-x64-vc14-release:string.obj
 0002:000085b0       $unwind$pj_stricmp         00000001400325b0     pjlib-x86_64-x64-vc14-release:string.obj
 0002:000085b0       $unwind$pj_strncpy         00000001400325b0     pjlib-x86_64-x64-vc14-release:string.obj
 0002:000085b0       $unwind$pj_strncpy_with_null 00000001400325b0     pjlib-x86_64-x64-vc14-release:string.obj
 0002:000085b0       $unwind$parse_hdr_authorization 00000001400325b0     pjsip-core-x86_64-x64-vc14-release:sip_auth_parser.obj
 0002:000085b0       $unwind$parse_hdr_proxy_authenticate 00000001400325b0     pjsip-core-x86_64-x64-vc14-release:sip_auth_parser.obj
 0002:000085b0       $unwind$parse_hdr_proxy_authorization 00000001400325b0     pjsip-core-x86_64-x64-vc14-release:sip_auth_parser.obj
 0002:000085b0       $unwind$parse_hdr_www_authenticate 00000001400325b0     pjsip-core-x86_64-x64-vc14-release:sip_auth_parser.obj
 0002:000085b0       $unwind$pjsip_endpt_cancel_timer 00000001400325b0     pjsip-core-x86_64-x64-vc14-release:sip_endpoint.obj
 0002:000085b0       $unwind$unload_module      00000001400325b0     pjsip-core-x86_64-x64-vc14-release:sip_endpoint.obj
 0002:000085b0       $unwind$parse_generic_array_hdr 00000001400325b0     pjsip-core-x86_64-x64-vc14-release:sip_parser.obj
 0002:000085b0       $unwind$parse_hdr_accept   00000001400325b0     pjsip-core-x86_64-x64-vc14-release:sip_parser.obj
 0002:000085b0       $unwind$parse_hdr_allow    00000001400325b0     pjsip-core-x86_64-x64-vc14-release:sip_parser.obj
 0002:000085b0       $unwind$parse_hdr_call_id  00000001400325b0     pjsip-core-x86_64-x64-vc14-release:sip_parser.obj
 0002:000085b0       $unwind$parse_hdr_from     00000001400325b0     pjsip-core-x86_64-x64-vc14-release:sip_parser.obj
 0002:000085b0       $unwind$parse_hdr_to       00000001400325b0     pjsip-core-x86_64-x64-vc14-release:sip_parser.obj
 0002:000085b0       $unwind$parse_hdr_unsupported 00000001400325b0     pjsip-core-x86_64-x64-vc14-release:sip_parser.obj
 0002:000085b0       $unwind$other_uri_cmp      00000001400325b0     pjsip-core-x86_64-x64-vc14-release:sip_uri.obj
 0002:000085b0       $unwind$pjsip_sip_uri_create 00000001400325b0     pjsip-core-x86_64-x64-vc14-release:sip_uri.obj
 0002:000085b0       $unwind$_RTC_Initialize    00000001400325b0     MSVCRT:initsect.obj
 0002:000085b0       $unwind$_RTC_Terminate     00000001400325b0     MSVCRT:initsect.obj
 0002:000085b0       $unwind$__scrt_unhandled_exception_filter 00000001400325b0     MSVCRT:utility_desktop.obj
 0002:000085bc       $unwind$pjsip_endpt_register_module 00000001400325bc     pjsip-core-x86_64-x64-vc14-release:sip_endpoint.obj
 0002:000085cc       $chain$0$pjsip_endpt_register_module 00000001400325cc     pjsip-core-x86_64-x64-vc14-release:sip_endpoint.obj
 0002:000085e0       $chain$1$pjsip_endpt_register_module 00000001400325e0     pjsip-core-x86_64-x64-vc14-release:sip_endpoint.obj
 0002:000085f4       $chain$2$pjsip_endpt_register_module 00000001400325f4     pjsip-core-x86_64-x64-vc14-release:sip_endpoint.obj
 0002:00008604       $chain$3$pjsip_endpt_register_module 0000000140032604     pjsip-core-x86_64-x64-vc14-release:sip_endpoint.obj
 0002:00008614       $unwind$pjsip_endpt_unregister_module 0000000140032614     pjsip-core-x86_64-x64-vc14-release:sip_endpoint.obj
 0002:00008630       $unwind$pj_atomic_set      0000000140032630     pjlib-x86_64-x64-vc14-release:os_core_win32.obj
 0002:00008630       $unwind$pj_sem_wait_for    0000000140032630     pjlib-x86_64-x64-vc14-release:os_core_win32.obj
 0002:00008630       $unwind$pj_term_set_color  0000000140032630     pjlib-x86_64-x64-vc14-release:os_core_win32.obj
 0002:00008630       $unwind$pj_thread_check_stack 0000000140032630     pjlib-x86_64-x64-vc14-release:os_core_win32.obj
 0002:00008630       $unwind$pjsip_endpt_create_pool 0000000140032630     pjsip-core-x86_64-x64-vc14-release:sip_endpoint.obj
 0002:00008630       $unwind$int_parse_status_line 0000000140032630     pjsip-core-x86_64-x64-vc14-release:sip_parser.obj
 0002:00008630       $unwind$on_str_parse_error 0000000140032630     pjsip-core-x86_64-x64-vc14-release:sip_parser.obj
 0002:00008630       $unwind$parse_hdr_content_len 0000000140032630     pjsip-core-x86_64-x64-vc14-release:sip_parser.obj
 0002:00008630       $unwind$parse_hdr_expires  0000000140032630     pjsip-core-x86_64-x64-vc14-release:sip_parser.obj
 0002:00008630       $unwind$parse_hdr_min_expires 0000000140032630     pjsip-core-x86_64-x64-vc14-release:sip_parser.obj
 0002:00008630       $unwind$tsx_retransmit     0000000140032630     pjsip-core-x86_64-x64-vc14-release:sip_transaction.obj
 0002:0000863c       $unwind$pj_mutex_create    000000014003263c     pjlib-x86_64-x64-vc14-release:os_core_win32.obj
 0002:0000863c       $unwind$pj_mutex_create_recursive 000000014003263c     pjlib-x86_64-x64-vc14-release:os_core_win32.obj
 0002:0000863c       $unwind$pj_mutex_create_simple 000000014003263c     pjlib-x86_64-x64-vc14-release:os_core_win32.obj
 0002:0000863c       $unwind$pjsip_endpt_atexit 000000014003263c     pjsip-core-x86_64-x64-vc14-release:sip_endpoint.obj
 0002:0000863c       $unwind$pjsip_endpt_dump   000000014003263c     pjsip-core-x86_64-x64-vc14-release:sip_endpoint.obj
 0002:00008648       $chain$0$pjsip_endpt_dump  0000000140032648     pjsip-core-x86_64-x64-vc14-release:sip_endpoint.obj
 0002:0000865c       $chain$1$pjsip_endpt_dump  000000014003265c     pjsip-core-x86_64-x64-vc14-release:sip_endpoint.obj
 0002:0000866c       $chain$0$pjsip_endpt_atexit 000000014003266c     pjsip-core-x86_64-x64-vc14-release:sip_endpoint.obj
 0002:00008680       $chain$1$pjsip_endpt_atexit 0000000140032680     pjsip-core-x86_64-x64-vc14-release:sip_endpoint.obj
 0002:00008690       $unwind$pjsip_endpt_log_error 0000000140032690     pjsip-core-x86_64-x64-vc14-release:sip_endpoint.obj
 0002:000086ac       $chain$1$pjsip_endpt_log_error 00000001400326ac     pjsip-core-x86_64-x64-vc14-release:sip_endpoint.obj
 0002:000086c4       $chain$2$pjsip_endpt_log_error 00000001400326c4     pjsip-core-x86_64-x64-vc14-release:sip_endpoint.obj
 0002:000086d4       $unwind$endpt_on_rx_msg    00000001400326d4     pjsip-core-x86_64-x64-vc14-release:sip_endpoint.obj
 0002:000086ec       $chain$1$endpt_on_rx_msg   00000001400326ec     pjsip-core-x86_64-x64-vc14-release:sip_endpoint.obj
 0002:00008704       $chain$2$endpt_on_rx_msg   0000000140032704     pjsip-core-x86_64-x64-vc14-release:sip_endpoint.obj
 0002:00008714       $unwind$alloc_qnode        0000000140032714     pjlib-util-x86_64-x64-vc14-release:resolver.obj
 0002:00008714       $unwind$pj_utoa_pad        0000000140032714     pjlib-x86_64-x64-vc14-release:string.obj
 0002:00008714       $unwind$pjsip_authorization_hdr_print 0000000140032714     pjsip-core-x86_64-x64-vc14-release:sip_auth_msg.obj
 0002:00008714       $unwind$pjsip_www_authenticate_hdr_print 0000000140032714     pjsip-core-x86_64-x64-vc14-release:sip_auth_msg.obj
 0002:00008714       $unwind$endpt_on_tx_msg    0000000140032714     pjsip-core-x86_64-x64-vc14-release:sip_endpoint.obj
 0002:00008714       $unwind$parse_hdr_contact  0000000140032714     pjsip-core-x86_64-x64-vc14-release:sip_parser.obj
 0002:00008714       $unwind$pjsip_tel_nb_cmp   0000000140032714     pjsip-core-x86_64-x64-vc14-release:sip_tel_uri.obj
 0002:0000872c       $unwind$pjsip_endpt_create_request_from_hdr 000000014003272c     pjsip-core-x86_64-x64-vc14-release:sip_util.obj
 0002:0000874c       $unwind$pjsip_endpt_create_response 000000014003274c     pjsip-core-x86_64-x64-vc14-release:sip_util.obj
 0002:0000875c       $chain$0$pjsip_endpt_create_response 000000014003275c     pjsip-core-x86_64-x64-vc14-release:sip_util.obj
 0002:00008770       $chain$2$pjsip_endpt_create_response 0000000140032770     pjsip-core-x86_64-x64-vc14-release:sip_util.obj
 0002:00008784       $chain$4$pjsip_endpt_create_response 0000000140032784     pjsip-core-x86_64-x64-vc14-release:sip_util.obj
 0002:0000879c       $chain$5$pjsip_endpt_create_response 000000014003279c     pjsip-core-x86_64-x64-vc14-release:sip_util.obj
 0002:000087b0       $chain$6$pjsip_endpt_create_response 00000001400327b0     pjsip-core-x86_64-x64-vc14-release:sip_util.obj
 0002:000087c0       $chain$7$pjsip_endpt_create_response 00000001400327c0     pjsip-core-x86_64-x64-vc14-release:sip_util.obj
 0002:000087d0       $chain$8$pjsip_endpt_create_response 00000001400327d0     pjsip-core-x86_64-x64-vc14-release:sip_util.obj
 0002:000087e0       $unwind$pjsip_endpt_create_ack 00000001400327e0     pjsip-core-x86_64-x64-vc14-release:sip_util.obj
 0002:000087f4       $chain$0$pjsip_endpt_create_ack 00000001400327f4     pjsip-core-x86_64-x64-vc14-release:sip_util.obj
 0002:00008808       $chain$1$pjsip_endpt_create_ack 0000000140032808     pjsip-core-x86_64-x64-vc14-release:sip_util.obj
 0002:0000881c       $chain$2$pjsip_endpt_create_ack 000000014003281c     pjsip-core-x86_64-x64-vc14-release:sip_util.obj
 0002:0000882c       $chain$3$pjsip_endpt_create_ack 000000014003282c     pjsip-core-x86_64-x64-vc14-release:sip_util.obj
 0002:0000883c       $unwind$pjsip_get_dest_info 000000014003283c     pjsip-core-x86_64-x64-vc14-release:sip_util.obj
 0002:00008850       $chain$0$pjsip_get_dest_info 0000000140032850     pjsip-core-x86_64-x64-vc14-release:sip_util.obj
 0002:00008864       $chain$1$pjsip_get_dest_info 0000000140032864     pjsip-core-x86_64-x64-vc14-release:sip_util.obj
 0002:00008874       $unwind$pjsip_process_route_set 0000000140032874     pjsip-core-x86_64-x64-vc14-release:sip_util.obj
 0002:0000888c       $chain$4$pjsip_process_route_set 000000014003288c     pjsip-core-x86_64-x64-vc14-release:sip_util.obj
 0002:000088a4       $chain$5$pjsip_process_route_set 00000001400328a4     pjsip-core-x86_64-x64-vc14-release:sip_util.obj
 0002:000088b4       $unwind$pjsip_endpt_send_request_stateless 00000001400328b4     pjsip-core-x86_64-x64-vc14-release:sip_util.obj
 0002:000088c8       $chain$0$pjsip_endpt_send_request_stateless 00000001400328c8     pjsip-core-x86_64-x64-vc14-release:sip_util.obj
 0002:000088dc       $chain$2$pjsip_endpt_send_request_stateless 00000001400328dc     pjsip-core-x86_64-x64-vc14-release:sip_util.obj
 0002:000088f0       $chain$3$pjsip_endpt_send_request_stateless 00000001400328f0     pjsip-core-x86_64-x64-vc14-release:sip_util.obj
 0002:00008900       $chain$0$pjsip_get_response_addr 0000000140032900     pjsip-core-x86_64-x64-vc14-release:sip_util.obj
 0002:00008914       $chain$2$pjsip_get_response_addr 0000000140032914     pjsip-core-x86_64-x64-vc14-release:sip_util.obj
 0002:00008928       $chain$3$pjsip_get_response_addr 0000000140032928     pjsip-core-x86_64-x64-vc14-release:sip_util.obj
 0002:00008938       $unwind$tel_uri_print      0000000140032938     pjsip-core-x86_64-x64-vc14-release:sip_tel_uri.obj
 0002:00008938       $unwind$pjsip_endpt_send_response 0000000140032938     pjsip-core-x86_64-x64-vc14-release:sip_util.obj
 0002:00008950       $unwind$pjsip_endpt_respond_stateless 0000000140032950     pjsip-core-x86_64-x64-vc14-release:sip_util.obj
 0002:0000896c       $chain$1$init_request_throw 000000014003296c     pjsip-core-x86_64-x64-vc14-release:sip_util.obj
 0002:00008984       $chain$3$init_request_throw 0000000140032984     pjsip-core-x86_64-x64-vc14-release:sip_util.obj
 0002:0000899c       $chain$4$init_request_throw 000000014003299c     pjsip-core-x86_64-x64-vc14-release:sip_util.obj
 0002:000089b0       $chain$5$init_request_throw 00000001400329b0     pjsip-core-x86_64-x64-vc14-release:sip_util.obj
 0002:000089c0       $chain$6$init_request_throw 00000001400329c0     pjsip-core-x86_64-x64-vc14-release:sip_util.obj
 0002:000089d4       $chain$7$init_request_throw 00000001400329d4     pjsip-core-x86_64-x64-vc14-release:sip_util.obj
 0002:000089e4       $unwind$stateless_send_transport_cb 00000001400329e4     pjsip-core-x86_64-x64-vc14-release:sip_util.obj
 0002:00008a00       $unwind$stateless_send_resolver_callback 0000000140032a00     pjsip-core-x86_64-x64-vc14-release:sip_util.obj
 0002:00008a10       $chain$0$stateless_send_resolver_callback 0000000140032a10     pjsip-core-x86_64-x64-vc14-release:sip_util.obj
 0002:00008a24       $chain$1$stateless_send_resolver_callback 0000000140032a24     pjsip-core-x86_64-x64-vc14-release:sip_util.obj
 0002:00008a34       $unwind$cpool_release_pool 0000000140032a34     pjlib-x86_64-x64-vc14-release:pool_caching.obj
 0002:00008a34       $unwind$pj_timer_heap_cancel 0000000140032a34     pjlib-x86_64-x64-vc14-release:timer.obj
 0002:00008a34       $unwind$send_response_transport_cb 0000000140032a34     pjsip-core-x86_64-x64-vc14-release:sip_util.obj
 0002:00008a40       $unwind$send_response_resolver_cb 0000000140032a40     pjsip-core-x86_64-x64-vc14-release:sip_util.obj
 0002:00008a58       $unwind$pjsip_endpt_create_request_fwd 0000000140032a58     pjsip-core-x86_64-x64-vc14-release:sip_util_proxy.obj
 0002:00008a78       $unwind$pjsip_endpt_create_response_fwd 0000000140032a78     pjsip-core-x86_64-x64-vc14-release:sip_util_proxy.obj
 0002:00008a94       $unwind$pjsip_udp_transport_start2 0000000140032a94     pjsip-core-x86_64-x64-vc14-release:sip_transport_udp.obj
 0002:00008aac       $chain$0$pjsip_udp_transport_start2 0000000140032aac     pjsip-core-x86_64-x64-vc14-release:sip_transport_udp.obj
 0002:00008ac0       $chain$2$pjsip_udp_transport_start2 0000000140032ac0     pjsip-core-x86_64-x64-vc14-release:sip_transport_udp.obj
 0002:00008ad8       $chain$3$pjsip_udp_transport_start2 0000000140032ad8     pjsip-core-x86_64-x64-vc14-release:sip_transport_udp.obj
 0002:00008ae8       $chain$4$pjsip_udp_transport_start2 0000000140032ae8     pjsip-core-x86_64-x64-vc14-release:sip_transport_udp.obj
 0002:00008ae8       $chain$6$pjsip_udp_transport_start2 0000000140032ae8     pjsip-core-x86_64-x64-vc14-release:sip_transport_udp.obj
 0002:00008af8       $chain$5$pjsip_udp_transport_start2 0000000140032af8     pjsip-core-x86_64-x64-vc14-release:sip_transport_udp.obj
 0002:00008b14       $unwind$pjsip_udp_transport_start 0000000140032b14     pjsip-core-x86_64-x64-vc14-release:sip_transport_udp.obj
 0002:00008b30       $unwind$pjsip_udp_transport_restart2 0000000140032b30     pjsip-core-x86_64-x64-vc14-release:sip_transport_udp.obj
 0002:00008b4c       $unwind$udp_on_read_complete 0000000140032b4c     pjsip-core-x86_64-x64-vc14-release:sip_transport_udp.obj
 0002:00008b58       $chain$4$udp_on_read_complete 0000000140032b58     pjsip-core-x86_64-x64-vc14-release:sip_transport_udp.obj
 0002:00008b7c       $chain$5$udp_on_read_complete 0000000140032b7c     pjsip-core-x86_64-x64-vc14-release:sip_transport_udp.obj
 0002:00008b8c       $unwind$init_mutex         0000000140032b8c     pjlib-x86_64-x64-vc14-release:os_core_win32.obj
 0002:00008b8c       $unwind$pj_rwmutex_lock_read 0000000140032b8c     pjlib-x86_64-x64-vc14-release:os_core_win32.obj
 0002:00008b8c       $unwind$pj_rwmutex_unlock_read 0000000140032b8c     pjlib-x86_64-x64-vc14-release:os_core_win32.obj
 0002:00008b8c       $unwind$parse_hdr_max_forwards 0000000140032b8c     pjsip-core-x86_64-x64-vc14-release:sip_parser.obj
 0002:00008b8c       $unwind$udp_on_write_complete 0000000140032b8c     pjsip-core-x86_64-x64-vc14-release:sip_transport_udp.obj
 0002:00008b9c       $unwind$udp_send_msg       0000000140032b9c     pjsip-core-x86_64-x64-vc14-release:sip_transport_udp.obj
 0002:00008ba8       $chain$0$udp_send_msg      0000000140032ba8     pjsip-core-x86_64-x64-vc14-release:sip_transport_udp.obj
 0002:00008bbc       $chain$1$udp_send_msg      0000000140032bbc     pjsip-core-x86_64-x64-vc14-release:sip_transport_udp.obj
 0002:00008bcc       $chain$0$udp_on_destroy    0000000140032bcc     pjsip-core-x86_64-x64-vc14-release:sip_transport_udp.obj
 0002:00008be0       $chain$1$udp_on_destroy    0000000140032be0     pjsip-core-x86_64-x64-vc14-release:sip_transport_udp.obj
 0002:00008bf4       $chain$2$udp_on_destroy    0000000140032bf4     pjsip-core-x86_64-x64-vc14-release:sip_transport_udp.obj
 0002:00008c04       $chain$3$udp_on_destroy    0000000140032c04     pjsip-core-x86_64-x64-vc14-release:sip_transport_udp.obj
 0002:00008c14       $unwind$udp_destroy        0000000140032c14     pjsip-core-x86_64-x64-vc14-release:sip_transport_udp.obj
 0002:00008c24       $unwind$create_socket      0000000140032c24     pjsip-core-x86_64-x64-vc14-release:sip_transport_udp.obj
 0002:00008c3c       $unwind$get_published_name 0000000140032c3c     pjsip-core-x86_64-x64-vc14-release:sip_transport_udp.obj
 0002:00008c50       $unwind$udp_set_pub_name   0000000140032c50     pjsip-core-x86_64-x64-vc14-release:sip_transport_udp.obj
 0002:00008c6c       $unwind$register_to_ioqueue 0000000140032c6c     pjsip-core-x86_64-x64-vc14-release:sip_transport_udp.obj
 0002:00008c7c       $unwind$start_async_read   0000000140032c7c     pjsip-core-x86_64-x64-vc14-release:sip_transport_udp.obj
 0002:00008c94       $unwind$transport_attach   0000000140032c94     pjsip-core-x86_64-x64-vc14-release:sip_transport_udp.obj
 0002:00008cb0       $chain$2$transport_attach  0000000140032cb0     pjsip-core-x86_64-x64-vc14-release:sip_transport_udp.obj
 0002:00008ccc       $chain$3$transport_attach  0000000140032ccc     pjsip-core-x86_64-x64-vc14-release:sip_transport_udp.obj
 0002:00008ccc       $chain$5$transport_attach  0000000140032ccc     pjsip-core-x86_64-x64-vc14-release:sip_transport_udp.obj
 0002:00008cdc       $chain$4$transport_attach  0000000140032cdc     pjsip-core-x86_64-x64-vc14-release:sip_transport_udp.obj
 0002:00008cf8       $unwind$pj_hash_calc_tolower 0000000140032cf8     pjlib-x86_64-x64-vc14-release:hash.obj
 0002:00008cf8       $unwind$reheap_up          0000000140032cf8     pjlib-x86_64-x64-vc14-release:timer.obj
 0002:00008cf8       $unwind$pjsip_param_clone  0000000140032cf8     pjsip-core-x86_64-x64-vc14-release:sip_uri.obj
 0002:00008d0c       $chain$0$pjsip_param_clone 0000000140032d0c     pjsip-core-x86_64-x64-vc14-release:sip_uri.obj
 0002:00008d20       $chain$1$pjsip_param_clone 0000000140032d20     pjsip-core-x86_64-x64-vc14-release:sip_uri.obj
 0002:00008d30       $unwind$pjsip_param_print_on 0000000140032d30     pjsip-core-x86_64-x64-vc14-release:sip_uri.obj
 0002:00008d40       $chain$3$pjsip_param_print_on 0000000140032d40     pjsip-core-x86_64-x64-vc14-release:sip_uri.obj
 0002:00008d60       $chain$5$pjsip_param_print_on 0000000140032d60     pjsip-core-x86_64-x64-vc14-release:sip_uri.obj
 0002:00008d80       $chain$6$pjsip_param_print_on 0000000140032d80     pjsip-core-x86_64-x64-vc14-release:sip_uri.obj
 0002:00008d90       $unwind$pjsip_url_print    0000000140032d90     pjsip-core-x86_64-x64-vc14-release:sip_uri.obj
 0002:00008da8       $unwind$pjsip_url_compare  0000000140032da8     pjsip-core-x86_64-x64-vc14-release:sip_uri.obj
 0002:00008db4       $chain$3$pjsip_url_compare 0000000140032db4     pjsip-core-x86_64-x64-vc14-release:sip_uri.obj
 0002:00008dd4       $unwind$pjsip_url_clone    0000000140032dd4     pjsip-core-x86_64-x64-vc14-release:sip_uri.obj
 0002:00008dec       $unwind$pjsip_register_hdr_parser 0000000140032dec     pjsip-core-x86_64-x64-vc14-release:sip_parser.obj
 0002:00008e04       $chain$0$pjsip_register_hdr_parser 0000000140032e04     pjsip-core-x86_64-x64-vc14-release:sip_parser.obj
 0002:00008e18       $chain$1$pjsip_register_hdr_parser 0000000140032e18     pjsip-core-x86_64-x64-vc14-release:sip_parser.obj
 0002:00008e2c       $chain$2$pjsip_register_hdr_parser 0000000140032e2c     pjsip-core-x86_64-x64-vc14-release:sip_parser.obj
 0002:00008e3c       $chain$3$pjsip_register_hdr_parser 0000000140032e3c     pjsip-core-x86_64-x64-vc14-release:sip_parser.obj
 0002:00008e4c       $unwind$pj_atomic_dec_and_get 0000000140032e4c     pjlib-x86_64-x64-vc14-release:os_core_win32.obj
 0002:00008e4c       $unwind$pj_atomic_get      0000000140032e4c     pjlib-x86_64-x64-vc14-release:os_core_win32.obj
 0002:00008e4c       $unwind$pj_atomic_inc_and_get 0000000140032e4c     pjlib-x86_64-x64-vc14-release:os_core_win32.obj
 0002:00008e4c       $unwind$pj_mutex_destroy   0000000140032e4c     pjlib-x86_64-x64-vc14-release:os_core_win32.obj
 0002:00008e4c       $unwind$pj_mutex_lock      0000000140032e4c     pjlib-x86_64-x64-vc14-release:os_core_win32.obj
 0002:00008e4c       $unwind$pj_mutex_trylock   0000000140032e4c     pjlib-x86_64-x64-vc14-release:os_core_win32.obj
 0002:00008e4c       $unwind$pj_mutex_unlock    0000000140032e4c     pjlib-x86_64-x64-vc14-release:os_core_win32.obj
 0002:00008e4c       $unwind$pj_rwmutex_destroy 0000000140032e4c     pjlib-x86_64-x64-vc14-release:os_core_win32.obj
 0002:00008e4c       $unwind$pj_sem_destroy     0000000140032e4c     pjlib-x86_64-x64-vc14-release:os_core_win32.obj
 0002:00008e4c       $unwind$pj_sem_post        0000000140032e4c     pjlib-x86_64-x64-vc14-release:os_core_win32.obj
 0002:00008e4c       $unwind$pj_sem_trywait     0000000140032e4c     pjlib-x86_64-x64-vc14-release:os_core_win32.obj
 0002:00008e4c       $unwind$pj_sem_wait        0000000140032e4c     pjlib-x86_64-x64-vc14-release:os_core_win32.obj
 0002:00008e4c       $unwind$pj_thread_get_name 0000000140032e4c     pjlib-x86_64-x64-vc14-release:os_core_win32.obj
 0002:00008e4c       $unwind$pj_thread_local_free 0000000140032e4c     pjlib-x86_64-x64-vc14-release:os_core_win32.obj
 0002:00008e4c       $unwind$pj_thread_sleep    0000000140032e4c     pjlib-x86_64-x64-vc14-release:os_core_win32.obj
 0002:00008e4c       $unwind$thread_main        0000000140032e4c     pjlib-x86_64-x64-vc14-release:os_core_win32.obj
 0002:00008e4c       $unwind$pj_gettickcount    0000000140032e4c     pjlib-x86_64-x64-vc14-release:os_timestamp_common.obj
 0002:00008e4c       $unwind$pjsip_register_uri_parser 0000000140032e4c     pjsip-core-x86_64-x64-vc14-release:sip_parser.obj
 0002:00008e4c       $unwind$mod_tsx_layer_unregister_tsx 0000000140032e4c     pjsip-core-x86_64-x64-vc14-release:sip_transaction.obj
 0002:00008e4c       $unwind$tsx_on_state_completed_uac 0000000140032e4c     pjsip-core-x86_64-x64-vc14-release:sip_transaction.obj
 0002:00008e54       $unwind$pjsip_parse_rdata  0000000140032e54     pjsip-core-x86_64-x64-vc14-release:sip_parser.obj
 0002:00008e5c       $unwind$pjsip_find_msg     0000000140032e5c     pjsip-core-x86_64-x64-vc14-release:sip_parser.obj
 0002:00008e74       $unwind$pjsip_parse_headers 0000000140032e74     pjsip-core-x86_64-x64-vc14-release:sip_parser.obj
 0002:00008e8c       $unwind$MyGetAdapterAddresses 0000000140032e8c     pjlib-x86_64-x64-vc14-release:ip_helper_win32.obj
 0002:00008e8c       $unwind$pj_sock_getsockopt 0000000140032e8c     pjlib-x86_64-x64-vc14-release:sock_bsd.obj
 0002:00008e8c       $unwind$pj_sock_recvfrom   0000000140032e8c     pjlib-x86_64-x64-vc14-release:sock_bsd.obj
 0002:00008e8c       $unwind$pj_sock_sendto     0000000140032e8c     pjlib-x86_64-x64-vc14-release:sock_bsd.obj
 0002:00008e8c       $unwind$pj_sock_setsockopt 0000000140032e8c     pjlib-x86_64-x64-vc14-release:sock_bsd.obj
 0002:00008e8c       $unwind$int_parse_param    0000000140032e8c     pjsip-core-x86_64-x64-vc14-release:sip_parser.obj
 0002:00008e8c       $unwind$int_parse_uri_or_name_addr 0000000140032e8c     pjsip-core-x86_64-x64-vc14-release:sip_parser.obj
 0002:00008e8c       $unwind$pjsip_parse_param_imp 0000000140032e8c     pjsip-core-x86_64-x64-vc14-release:sip_parser.obj
 0002:00008ea0       $unwind$int_parse_msg      0000000140032ea0     pjsip-core-x86_64-x64-vc14-release:sip_parser.obj
 0002:00008ebc       $unwind$int_parse_sip_url  0000000140032ebc     pjsip-core-x86_64-x64-vc14-release:sip_parser.obj
 0002:00008ecc       $chain$2$int_parse_sip_url 0000000140032ecc     pjsip-core-x86_64-x64-vc14-release:sip_parser.obj
 0002:00008ee8       $chain$3$int_parse_sip_url 0000000140032ee8     pjsip-core-x86_64-x64-vc14-release:sip_parser.obj
 0002:00008ef8       $chain$4$int_parse_sip_url 0000000140032ef8     pjsip-core-x86_64-x64-vc14-release:sip_parser.obj
 0002:00008f14       $unwind$int_parse_name_addr 0000000140032f14     pjsip-core-x86_64-x64-vc14-release:sip_parser.obj
 0002:00008f24       $chain$0$int_parse_name_addr 0000000140032f24     pjsip-core-x86_64-x64-vc14-release:sip_parser.obj
 0002:00008f38       $chain$1$int_parse_name_addr 0000000140032f38     pjsip-core-x86_64-x64-vc14-release:sip_parser.obj
 0002:00008f48       $unwind$parse_hdr_content_type 0000000140032f48     pjsip-core-x86_64-x64-vc14-release:sip_parser.obj
 0002:00008f50       $chain$1$parse_hdr_content_type 0000000140032f50     pjsip-core-x86_64-x64-vc14-release:sip_parser.obj
 0002:00008f68       $chain$4$parse_hdr_content_type 0000000140032f68     pjsip-core-x86_64-x64-vc14-release:sip_parser.obj
 0002:00008f84       $chain$5$parse_hdr_content_type 0000000140032f84     pjsip-core-x86_64-x64-vc14-release:sip_parser.obj
 0002:00008f94       $chain$6$parse_hdr_content_type 0000000140032f94     pjsip-core-x86_64-x64-vc14-release:sip_parser.obj
 0002:00008fa8       $chain$7$parse_hdr_content_type 0000000140032fa8     pjsip-core-x86_64-x64-vc14-release:sip_parser.obj
 0002:00008fb8       $unwind$parse_hdr_cseq     0000000140032fb8     pjsip-core-x86_64-x64-vc14-release:sip_parser.obj
 0002:00008fc4       $chain$0$parse_hdr_cseq    0000000140032fc4     pjsip-core-x86_64-x64-vc14-release:sip_parser.obj
 0002:00008fd8       $chain$1$parse_hdr_cseq    0000000140032fd8     pjsip-core-x86_64-x64-vc14-release:sip_parser.obj
 0002:00008fe8       $unwind$parse_hdr_retry_after 0000000140032fe8     pjsip-core-x86_64-x64-vc14-release:sip_parser.obj
 0002:00008ff8       $chain$0$parse_hdr_retry_after 0000000140032ff8     pjsip-core-x86_64-x64-vc14-release:sip_parser.obj
 0002:0000900c       $chain$1$parse_hdr_retry_after 000000014003300c     pjsip-core-x86_64-x64-vc14-release:sip_parser.obj
 0002:0000901c       $chain$2$parse_hdr_retry_after 000000014003301c     pjsip-core-x86_64-x64-vc14-release:sip_parser.obj
 0002:00009030       $unwind$parse_hdr_via      0000000140033030     pjsip-core-x86_64-x64-vc14-release:sip_parser.obj
 0002:00009044       $unwind$parse_hdr_generic_string 0000000140033044     pjsip-core-x86_64-x64-vc14-release:sip_parser.obj
 0002:00009044       $unwind$capture_current_context 0000000140033044     MSVCRT:gs_report.obj
 0002:00009050       $chain$1$parse_hdr_generic_string 0000000140033050     pjsip-core-x86_64-x64-vc14-release:sip_parser.obj
 0002:00009068       $chain$2$parse_hdr_generic_string 0000000140033068     pjsip-core-x86_64-x64-vc14-release:sip_parser.obj
 0002:0000907c       $chain$3$parse_hdr_generic_string 000000014003307c     pjsip-core-x86_64-x64-vc14-release:sip_parser.obj
 0002:0000908c       $chain$4$parse_hdr_generic_string 000000014003308c     pjsip-core-x86_64-x64-vc14-release:sip_parser.obj
 0002:0000909c       $unwind$pj_getopt_long     000000014003309c     pjlib-util-x86_64-x64-vc14-release:getopt.obj
 0002:0000909c       $unwind$pj_hash_get_lower  000000014003309c     pjlib-x86_64-x64-vc14-release:hash.obj
 0002:0000909c       $unwind$pj_enter_critical_section 000000014003309c     pjlib-x86_64-x64-vc14-release:os_core_win32.obj
 0002:0000909c       $unwind$pj_leave_critical_section 000000014003309c     pjlib-x86_64-x64-vc14-release:os_core_win32.obj
 0002:0000909c       $unwind$pj_rwmutex_lock_write 000000014003309c     pjlib-x86_64-x64-vc14-release:os_core_win32.obj
 0002:0000909c       $unwind$init_parser        000000014003309c     pjsip-core-x86_64-x64-vc14-release:sip_parser.obj
 0002:0000909c       $unwind$tsx_on_state_confirmed 000000014003309c     pjsip-core-x86_64-x64-vc14-release:sip_transaction.obj
 0002:0000909c       $unwind$tsx_on_state_terminated 000000014003309c     pjsip-core-x86_64-x64-vc14-release:sip_transaction.obj
 0002:000090a4       $chain$1$init_parser       00000001400330a4     pjsip-core-x86_64-x64-vc14-release:sip_parser.obj
 0002:000090bc       $chain$3$init_parser       00000001400330bc     pjsip-core-x86_64-x64-vc14-release:sip_parser.obj
 0002:000090d4       $chain$4$init_parser       00000001400330d4     pjsip-core-x86_64-x64-vc14-release:sip_parser.obj
 0002:000090e4       $unwind$int_register_parser 00000001400330e4     pjsip-core-x86_64-x64-vc14-release:sip_parser.obj
 0002:000090f4       $chain$5$int_register_parser 00000001400330f4     pjsip-core-x86_64-x64-vc14-release:sip_parser.obj
 0002:0000911c       $chain$7$int_register_parser 000000014003311c     pjsip-core-x86_64-x64-vc14-release:sip_parser.obj
 0002:00009144       $unwind$pj_pool_create_int 0000000140033144     pjlib-x86_64-x64-vc14-release:pool.obj
 0002:00009144       $unwind$pj_caching_pool_destroy 0000000140033144     pjlib-x86_64-x64-vc14-release:pool_caching.obj
 0002:00009144       $unwind$pj_sockaddr_cmp    0000000140033144     pjlib-x86_64-x64-vc14-release:sock_common.obj
 0002:00009144       $unwind$print_oauth_credential 0000000140033144     pjsip-core-x86_64-x64-vc14-release:sip_auth_msg.obj
 0002:00009144       $unwind$find_handler_imp   0000000140033144     pjsip-core-x86_64-x64-vc14-release:sip_parser.obj
 0002:00009144       $unwind$tel_uri_cmp        0000000140033144     pjsip-core-x86_64-x64-vc14-release:sip_tel_uri.obj
 0002:0000915c       $unwind$parse_sip_version  000000014003315c     pjsip-core-x86_64-x64-vc14-release:sip_parser.obj
 0002:00009164       $unwind$int_parse_uri      0000000140033164     pjsip-core-x86_64-x64-vc14-release:sip_parser.obj
 0002:00009170       $chain$2$int_parse_uri     0000000140033170     pjsip-core-x86_64-x64-vc14-release:sip_parser.obj
 0002:0000918c       $chain$4$int_parse_uri     000000014003318c     pjsip-core-x86_64-x64-vc14-release:sip_parser.obj
 0002:000091a8       $chain$5$int_parse_uri     00000001400331a8     pjsip-core-x86_64-x64-vc14-release:sip_parser.obj
 0002:000091b8       $unwind$int_parse_contact_param 00000001400331b8     pjsip-core-x86_64-x64-vc14-release:sip_parser.obj
 0002:000091c8       $chain$2$int_parse_contact_param 00000001400331c8     pjsip-core-x86_64-x64-vc14-release:sip_parser.obj
 0002:000091e4       $chain$3$int_parse_contact_param 00000001400331e4     pjsip-core-x86_64-x64-vc14-release:sip_parser.obj
 0002:000091f4       $chain$4$int_parse_contact_param 00000001400331f4     pjsip-core-x86_64-x64-vc14-release:sip_parser.obj
 0002:00009210       $unwind$parse_hdr_fromto   0000000140033210     pjsip-core-x86_64-x64-vc14-release:sip_parser.obj
 0002:00009220       $unwind$int_parse_via_param 0000000140033220     pjsip-core-x86_64-x64-vc14-release:sip_parser.obj
 0002:00009230       $chain$1$int_parse_via_param 0000000140033230     pjsip-core-x86_64-x64-vc14-release:sip_parser.obj
 0002:00009248       $chain$2$int_parse_via_param 0000000140033248     pjsip-core-x86_64-x64-vc14-release:sip_parser.obj
 0002:00009258       $chain$3$int_parse_via_param 0000000140033258     pjsip-core-x86_64-x64-vc14-release:sip_parser.obj
 0002:00009270       $unwind$parse_hdr_rr_route 0000000140033270     pjsip-core-x86_64-x64-vc14-release:sip_parser.obj
 0002:00009280       $chain$1$parse_hdr_rr_route 0000000140033280     pjsip-core-x86_64-x64-vc14-release:sip_parser.obj
 0002:00009298       $chain$2$parse_hdr_rr_route 0000000140033298     pjsip-core-x86_64-x64-vc14-release:sip_parser.obj
 0002:000092a8       $unwind$pjsip_resolve      00000001400332a8     pjsip-core-x86_64-x64-vc14-release:sip_resolve.obj
 0002:000092c4       $chain$2$pjsip_resolve     00000001400332c4     pjsip-core-x86_64-x64-vc14-release:sip_resolve.obj
 0002:000092e0       $chain$3$pjsip_resolve     00000001400332e0     pjsip-core-x86_64-x64-vc14-release:sip_resolve.obj
 0002:000092f0       $unwind$srv_resolver_cb    00000001400332f0     pjsip-core-x86_64-x64-vc14-release:sip_resolve.obj
 0002:00009308       $chain$0$srv_resolver_cb   0000000140033308     pjsip-core-x86_64-x64-vc14-release:sip_resolve.obj
 0002:0000931c       $chain$3$srv_resolver_cb   000000014003331c     pjsip-core-x86_64-x64-vc14-release:sip_resolve.obj
 0002:00009338       $chain$4$srv_resolver_cb   0000000140033338     pjsip-core-x86_64-x64-vc14-release:sip_resolve.obj
 0002:00009348       $chain$5$srv_resolver_cb   0000000140033348     pjsip-core-x86_64-x64-vc14-release:sip_resolve.obj
 0002:00009358       $unwind$dns_a_callback     0000000140033358     pjsip-core-x86_64-x64-vc14-release:sip_resolve.obj
 0002:0000936c       $chain$1$dns_a_callback    000000014003336c     pjsip-core-x86_64-x64-vc14-release:sip_resolve.obj
 0002:00009384       $chain$2$dns_a_callback    0000000140033384     pjsip-core-x86_64-x64-vc14-release:sip_resolve.obj
 0002:00009398       $chain$3$dns_a_callback    0000000140033398     pjsip-core-x86_64-x64-vc14-release:sip_resolve.obj
 0002:000093ac       $chain$4$dns_a_callback    00000001400333ac     pjsip-core-x86_64-x64-vc14-release:sip_resolve.obj
 0002:000093bc       $chain$5$dns_a_callback    00000001400333bc     pjsip-core-x86_64-x64-vc14-release:sip_resolve.obj
 0002:000093cc       $chain$6$dns_a_callback    00000001400333cc     pjsip-core-x86_64-x64-vc14-release:sip_resolve.obj
 0002:000093dc       $unwind$dns_aaaa_callback  00000001400333dc     pjsip-core-x86_64-x64-vc14-release:sip_resolve.obj
 0002:000093f0       $chain$1$dns_aaaa_callback 00000001400333f0     pjsip-core-x86_64-x64-vc14-release:sip_resolve.obj
 0002:00009408       $chain$2$dns_aaaa_callback 0000000140033408     pjsip-core-x86_64-x64-vc14-release:sip_resolve.obj
 0002:0000941c       $chain$3$dns_aaaa_callback 000000014003341c     pjsip-core-x86_64-x64-vc14-release:sip_resolve.obj
 0002:00009430       $chain$4$dns_aaaa_callback 0000000140033430     pjsip-core-x86_64-x64-vc14-release:sip_resolve.obj
 0002:00009440       $chain$5$dns_aaaa_callback 0000000140033440     pjsip-core-x86_64-x64-vc14-release:sip_resolve.obj
 0002:00009450       $chain$6$dns_aaaa_callback 0000000140033450     pjsip-core-x86_64-x64-vc14-release:sip_resolve.obj
 0002:00009460       $unwind$pjsip_strerror     0000000140033460     pjsip-core-x86_64-x64-vc14-release:sip_errno.obj
 0002:00009474       $chain$1$pjsip_strerror    0000000140033474     pjsip-core-x86_64-x64-vc14-release:sip_errno.obj
 0002:00009488       $chain$2$pjsip_strerror    0000000140033488     pjsip-core-x86_64-x64-vc14-release:sip_errno.obj
 0002:00009498       $unwind$tel_uri_parse      0000000140033498     pjsip-core-x86_64-x64-vc14-release:sip_tel_uri.obj
 0002:000094a8       $chain$2$tel_uri_parse     00000001400334a8     pjsip-core-x86_64-x64-vc14-release:sip_tel_uri.obj
 0002:000094c4       $chain$3$tel_uri_parse     00000001400334c4     pjsip-core-x86_64-x64-vc14-release:sip_tel_uri.obj
 0002:000094dc       $chain$4$tel_uri_parse     00000001400334dc     pjsip-core-x86_64-x64-vc14-release:sip_tel_uri.obj
 0002:000094ec       $unwind$pjsip_tsx_recv_msg 00000001400334ec     pjsip-core-x86_64-x64-vc14-release:sip_transaction.obj
 0002:000094f8       $chain$1$pjsip_tsx_recv_msg 00000001400334f8     pjsip-core-x86_64-x64-vc14-release:sip_transaction.obj
 0002:00009510       $chain$2$pjsip_tsx_recv_msg 0000000140033510     pjsip-core-x86_64-x64-vc14-release:sip_transaction.obj
 0002:00009520       $unwind$pj_shutdown        0000000140033520     pjlib-x86_64-x64-vc14-release:os_core_win32.obj
 0002:00009520       $unwind$pj_strnicmp        0000000140033520     pjlib-x86_64-x64-vc14-release:string.obj
 0002:00009520       $unwind$mod_tsx_layer_stop 0000000140033520     pjsip-core-x86_64-x64-vc14-release:sip_transaction.obj
 0002:00009528       $chain$0$mod_tsx_layer_stop 0000000140033528     pjsip-core-x86_64-x64-vc14-release:sip_transaction.obj
 0002:0000953c       $chain$2$mod_tsx_layer_stop 000000014003353c     pjsip-core-x86_64-x64-vc14-release:sip_transaction.obj
 0002:00009554       $chain$3$mod_tsx_layer_stop 0000000140033554     pjsip-core-x86_64-x64-vc14-release:sip_transaction.obj
 0002:00009564       $chain$4$mod_tsx_layer_stop 0000000140033564     pjsip-core-x86_64-x64-vc14-release:sip_transaction.obj
 0002:00009574       $unwind$mod_tsx_layer_on_rx_request 0000000140033574     pjsip-core-x86_64-x64-vc14-release:sip_transaction.obj
 0002:00009574       $unwind$mod_tsx_layer_on_rx_response 0000000140033574     pjsip-core-x86_64-x64-vc14-release:sip_transaction.obj
 0002:00009588       $unwind$tsx_on_state_null  0000000140033588     pjsip-core-x86_64-x64-vc14-release:sip_transaction.obj
 0002:00009598       $chain$0$tsx_on_state_null 0000000140033598     pjsip-core-x86_64-x64-vc14-release:sip_transaction.obj
 0002:000095ac       $chain$1$tsx_on_state_null 00000001400335ac     pjsip-core-x86_64-x64-vc14-release:sip_transaction.obj
 0002:000095bc       $unwind$pj_pool_create_on_buf 00000001400335bc     pjlib-x86_64-x64-vc14-release:pool_buf.obj
 0002:000095bc       $unwind$tsx_on_state_calling 00000001400335bc     pjsip-core-x86_64-x64-vc14-release:sip_transaction.obj
 0002:000095cc       $unwind$tsx_on_state_trying 00000001400335cc     pjsip-core-x86_64-x64-vc14-release:sip_transaction.obj
 0002:000095dc       $unwind$tsx_on_state_proceeding_uas 00000001400335dc     pjsip-core-x86_64-x64-vc14-release:sip_transaction.obj
 0002:000095ec       $chain$0$tsx_on_state_proceeding_uas 00000001400335ec     pjsip-core-x86_64-x64-vc14-release:sip_transaction.obj
 0002:00009600       $chain$1$tsx_on_state_proceeding_uas 0000000140033600     pjsip-core-x86_64-x64-vc14-release:sip_transaction.obj
 0002:00009600       $chain$7$tsx_on_state_proceeding_uas 0000000140033600     pjsip-core-x86_64-x64-vc14-release:sip_transaction.obj
 0002:00009610       $chain$2$tsx_on_state_proceeding_uas 0000000140033610     pjsip-core-x86_64-x64-vc14-release:sip_transaction.obj
 0002:00009624       $chain$4$tsx_on_state_proceeding_uas 0000000140033624     pjsip-core-x86_64-x64-vc14-release:sip_transaction.obj
 0002:0000963c       $chain$5$tsx_on_state_proceeding_uas 000000014003363c     pjsip-core-x86_64-x64-vc14-release:sip_transaction.obj
 0002:00009650       $chain$6$tsx_on_state_proceeding_uas 0000000140033650     pjsip-core-x86_64-x64-vc14-release:sip_transaction.obj
 0002:00009660       $unwind$tsx_on_state_proceeding_uac 0000000140033660     pjsip-core-x86_64-x64-vc14-release:sip_transaction.obj
 0002:00009678       $unwind$tsx_on_state_completed_uas 0000000140033678     pjsip-core-x86_64-x64-vc14-release:sip_transaction.obj
 0002:00009684       $chain$0$tsx_on_state_completed_uas 0000000140033684     pjsip-core-x86_64-x64-vc14-release:sip_transaction.obj
 0002:00009698       $chain$1$tsx_on_state_completed_uas 0000000140033698     pjsip-core-x86_64-x64-vc14-release:sip_transaction.obj
 0002:000096a8       $unwind$tsx_tp_state_callback 00000001400336a8     pjsip-core-x86_64-x64-vc14-release:sip_transaction.obj
 0002:000096b0       $chain$0$tsx_tp_state_callback 00000001400336b0     pjsip-core-x86_64-x64-vc14-release:sip_transaction.obj
 0002:000096c4       $chain$1$tsx_tp_state_callback 00000001400336c4     pjsip-core-x86_64-x64-vc14-release:sip_transaction.obj
 0002:000096d4       $unwind$tsx_set_state      00000001400336d4     pjsip-core-x86_64-x64-vc14-release:sip_transaction.obj
 0002:000096ec       $unwind$tsx_send_msg       00000001400336ec     pjsip-core-x86_64-x64-vc14-release:sip_transaction.obj
 0002:00009708       $chain$0$tsx_send_msg      0000000140033708     pjsip-core-x86_64-x64-vc14-release:sip_transaction.obj
 0002:0000971c       $chain$1$tsx_send_msg      000000014003371c     pjsip-core-x86_64-x64-vc14-release:sip_transaction.obj
 0002:0000971c       $chain$3$tsx_send_msg      000000014003371c     pjsip-core-x86_64-x64-vc14-release:sip_transaction.obj
 0002:0000972c       $chain$2$tsx_send_msg      000000014003372c     pjsip-core-x86_64-x64-vc14-release:sip_transaction.obj
 0002:00009740       $unwind$transport_callback 0000000140033740     pjsip-core-x86_64-x64-vc14-release:sip_transaction.obj
 0002:00009740       $unwind$tsx_update_transport 0000000140033740     pjsip-core-x86_64-x64-vc14-release:sip_transaction.obj
 0002:00009750       $unwind$create_tsx_key_2543 0000000140033750     pjsip-core-x86_64-x64-vc14-release:sip_transaction.obj
 0002:00009760       $chain$0$create_tsx_key_2543 0000000140033760     pjsip-core-x86_64-x64-vc14-release:sip_transaction.obj
 0002:00009774       $chain$2$create_tsx_key_2543 0000000140033774     pjsip-core-x86_64-x64-vc14-release:sip_transaction.obj
 0002:0000978c       $chain$3$create_tsx_key_2543 000000014003378c     pjsip-core-x86_64-x64-vc14-release:sip_transaction.obj
 0002:0000979c       $chain$5$create_tsx_key_2543 000000014003379c     pjsip-core-x86_64-x64-vc14-release:sip_transaction.obj
 0002:000097b0       $chain$6$create_tsx_key_2543 00000001400337b0     pjsip-core-x86_64-x64-vc14-release:sip_transaction.obj
 0002:000097c0       $unwind$send_msg_callback  00000001400337c0     pjsip-core-x86_64-x64-vc14-release:sip_transaction.obj
 0002:000097e0       $unwind$pjsip_multipart_parse 00000001400337e0     pjsip-core-x86_64-x64-vc14-release:sip_multipart.obj
 0002:000097fc       $unwind$multipart_print_body 00000001400337fc     pjsip-core-x86_64-x64-vc14-release:sip_multipart.obj
 0002:00009814       $chain$3$multipart_print_body 0000000140033814     pjsip-core-x86_64-x64-vc14-release:sip_multipart.obj
 0002:00009834       $chain$4$multipart_print_body 0000000140033834     pjsip-core-x86_64-x64-vc14-release:sip_multipart.obj
 0002:00009834       $chain$6$multipart_print_body 0000000140033834     pjsip-core-x86_64-x64-vc14-release:sip_multipart.obj
 0002:00009844       $chain$5$multipart_print_body 0000000140033844     pjsip-core-x86_64-x64-vc14-release:sip_multipart.obj
 0002:00009864       $unwind$multipart_clone_data 0000000140033864     pjsip-core-x86_64-x64-vc14-release:sip_multipart.obj
 0002:00009874       $chain$2$multipart_clone_data 0000000140033874     pjsip-core-x86_64-x64-vc14-release:sip_multipart.obj
 0002:00009890       $chain$3$multipart_clone_data 0000000140033890     pjsip-core-x86_64-x64-vc14-release:sip_multipart.obj
 0002:000098a0       $unwind$int_parse_hdr_authorization 00000001400338a0     pjsip-core-x86_64-x64-vc14-release:sip_auth_parser.obj
 0002:000098b8       $unwind$int_parse_hdr_authenticate 00000001400338b8     pjsip-core-x86_64-x64-vc14-release:sip_auth_parser.obj
 0002:000098cc       $chain$0$int_parse_hdr_authenticate 00000001400338cc     pjsip-core-x86_64-x64-vc14-release:sip_auth_parser.obj
 0002:000098e0       $chain$1$int_parse_hdr_authenticate 00000001400338e0     pjsip-core-x86_64-x64-vc14-release:sip_auth_parser.obj
 0002:000098f4       $chain$3$int_parse_hdr_authenticate 00000001400338f4     pjsip-core-x86_64-x64-vc14-release:sip_auth_parser.obj
 0002:00009904       $chain$0$pjlib_util_strerror 0000000140033904     pjlib-util-x86_64-x64-vc14-release:errno.obj
 0002:00009918       $chain$1$pjlib_util_strerror 0000000140033918     pjlib-util-x86_64-x64-vc14-release:errno.obj
 0002:00009928       $unwind$_getopt_internal   0000000140033928     pjlib-util-x86_64-x64-vc14-release:getopt.obj
 0002:00009938       $chain$2$_getopt_internal  0000000140033938     pjlib-util-x86_64-x64-vc14-release:getopt.obj
 0002:00009954       $chain$4$_getopt_internal  0000000140033954     pjlib-util-x86_64-x64-vc14-release:getopt.obj
 0002:00009970       $chain$5$_getopt_internal  0000000140033970     pjlib-util-x86_64-x64-vc14-release:getopt.obj
 0002:00009980       $unwind$exchange           0000000140033980     pjlib-util-x86_64-x64-vc14-release:getopt.obj
 0002:00009994       $chain$0$exchange          0000000140033994     pjlib-util-x86_64-x64-vc14-release:getopt.obj
 0002:000099a8       $chain$1$exchange          00000001400339a8     pjlib-util-x86_64-x64-vc14-release:getopt.obj
 0002:000099b8       $unwind$pj_str_unescape    00000001400339b8     pjlib-util-x86_64-x64-vc14-release:string.obj
 0002:000099d0       $unwind$pj_strncpy2_escape 00000001400339d0     pjlib-util-x86_64-x64-vc14-release:string.obj
 0002:000099e4       $unwind$pj_dns_resolver_destroy 00000001400339e4     pjlib-util-x86_64-x64-vc14-release:resolver.obj
 0002:000099ec       $chain$1$pj_dns_resolver_destroy 00000001400339ec     pjlib-util-x86_64-x64-vc14-release:resolver.obj
 0002:00009a04       $chain$2$pj_dns_resolver_destroy 0000000140033a04     pjlib-util-x86_64-x64-vc14-release:resolver.obj
 0002:00009a18       $chain$3$pj_dns_resolver_destroy 0000000140033a18     pjlib-util-x86_64-x64-vc14-release:resolver.obj
 0002:00009a28       $chain$4$pj_dns_resolver_destroy 0000000140033a28     pjlib-util-x86_64-x64-vc14-release:resolver.obj
 0002:00009a3c       $unwind$pj_dns_resolver_start_query 0000000140033a3c     pjlib-util-x86_64-x64-vc14-release:resolver.obj
 0002:00009a58       $chain$1$pj_dns_resolver_start_query 0000000140033a58     pjlib-util-x86_64-x64-vc14-release:resolver.obj
 0002:00009a70       $chain$2$pj_dns_resolver_start_query 0000000140033a70     pjlib-util-x86_64-x64-vc14-release:resolver.obj
 0002:00009a70       $chain$4$pj_dns_resolver_start_query 0000000140033a70     pjlib-util-x86_64-x64-vc14-release:resolver.obj
 0002:00009a80       $chain$3$pj_dns_resolver_start_query 0000000140033a80     pjlib-util-x86_64-x64-vc14-release:resolver.obj
 0002:00009a98       $unwind$pj_dns_parse_addr_response 0000000140033a98     pjlib-util-x86_64-x64-vc14-release:resolver.obj
 0002:00009aa8       $chain$3$pj_dns_parse_addr_response 0000000140033aa8     pjlib-util-x86_64-x64-vc14-release:resolver.obj
 0002:00009ac8       $chain$5$pj_dns_parse_addr_response 0000000140033ac8     pjlib-util-x86_64-x64-vc14-release:resolver.obj
 0002:00009ae8       $chain$6$pj_dns_parse_addr_response 0000000140033ae8     pjlib-util-x86_64-x64-vc14-release:resolver.obj
 0002:00009af8       $unwind$pj_dns_resolver_dump 0000000140033af8     pjlib-util-x86_64-x64-vc14-release:resolver.obj
 0002:00009b0c       $chain$0$pj_dns_resolver_dump 0000000140033b0c     pjlib-util-x86_64-x64-vc14-release:resolver.obj
 0002:00009b20       $chain$4$pj_dns_resolver_dump 0000000140033b20     pjlib-util-x86_64-x64-vc14-release:resolver.obj
 0002:00009b40       $chain$6$pj_dns_resolver_dump 0000000140033b40     pjlib-util-x86_64-x64-vc14-release:resolver.obj
 0002:00009b58       $chain$7$pj_dns_resolver_dump 0000000140033b58     pjlib-util-x86_64-x64-vc14-release:resolver.obj
 0002:00009b68       $chain$8$pj_dns_resolver_dump 0000000140033b68     pjlib-util-x86_64-x64-vc14-release:resolver.obj
 0002:00009b84       $chain$9$pj_dns_resolver_dump 0000000140033b84     pjlib-util-x86_64-x64-vc14-release:resolver.obj
 0002:00009ba0       $chain$10$pj_dns_resolver_dump 0000000140033ba0     pjlib-util-x86_64-x64-vc14-release:resolver.obj
 0002:00009bb4       $unwind$on_timeout         0000000140033bb4     pjlib-util-x86_64-x64-vc14-release:resolver.obj
 0002:00009bc4       $chain$0$on_timeout        0000000140033bc4     pjlib-util-x86_64-x64-vc14-release:resolver.obj
 0002:00009bd8       $chain$1$on_timeout        0000000140033bd8     pjlib-util-x86_64-x64-vc14-release:resolver.obj
 0002:00009bec       $chain$2$on_timeout        0000000140033bec     pjlib-util-x86_64-x64-vc14-release:resolver.obj
 0002:00009bfc       $chain$3$on_timeout        0000000140033bfc     pjlib-util-x86_64-x64-vc14-release:resolver.obj
 0002:00009c0c       $unwind$select_nameservers 0000000140033c0c     pjlib-util-x86_64-x64-vc14-release:resolver.obj
 0002:00009c20       $chain$0$select_nameservers 0000000140033c20     pjlib-util-x86_64-x64-vc14-release:resolver.obj
 0002:00009c34       $chain$1$select_nameservers 0000000140033c34     pjlib-util-x86_64-x64-vc14-release:resolver.obj
 0002:00009c44       $unwind$transmit_query     0000000140033c44     pjlib-util-x86_64-x64-vc14-release:resolver.obj
 0002:00009c58       $chain$0$transmit_query    0000000140033c58     pjlib-util-x86_64-x64-vc14-release:resolver.obj
 0002:00009c6c       $chain$1$transmit_query    0000000140033c6c     pjlib-util-x86_64-x64-vc14-release:resolver.obj
 0002:00009c80       $chain$3$transmit_query    0000000140033c80     pjlib-util-x86_64-x64-vc14-release:resolver.obj
 0002:00009c98       $chain$4$transmit_query    0000000140033c98     pjlib-util-x86_64-x64-vc14-release:resolver.obj
 0002:00009cac       $chain$5$transmit_query    0000000140033cac     pjlib-util-x86_64-x64-vc14-release:resolver.obj
 0002:00009cc0       $chain$6$transmit_query    0000000140033cc0     pjlib-util-x86_64-x64-vc14-release:resolver.obj
 0002:00009cd0       $chain$7$transmit_query    0000000140033cd0     pjlib-util-x86_64-x64-vc14-release:resolver.obj
 0002:00009ce0       $chain$8$transmit_query    0000000140033ce0     pjlib-util-x86_64-x64-vc14-release:resolver.obj
 0002:00009cf0       $chain$9$transmit_query    0000000140033cf0     pjlib-util-x86_64-x64-vc14-release:resolver.obj
 0002:00009d00       $chain$10$transmit_query   0000000140033d00     pjlib-util-x86_64-x64-vc14-release:resolver.obj
 0002:00009d10       $unwind$init_res_key       0000000140033d10     pjlib-util-x86_64-x64-vc14-release:resolver.obj
 0002:00009d20       $chain$0$init_res_key      0000000140033d20     pjlib-util-x86_64-x64-vc14-release:resolver.obj
 0002:00009d34       $chain$1$init_res_key      0000000140033d34     pjlib-util-x86_64-x64-vc14-release:resolver.obj
 0002:00009d44       $unwind$set_nameserver_state 0000000140033d44     pjlib-util-x86_64-x64-vc14-release:resolver.obj
 0002:00009d5c       $chain$1$set_nameserver_state 0000000140033d5c     pjlib-util-x86_64-x64-vc14-release:resolver.obj
 0002:00009d74       $chain$2$set_nameserver_state 0000000140033d74     pjlib-util-x86_64-x64-vc14-release:resolver.obj
 0002:00009d84       $unwind$pj_md5_update      0000000140033d84     pjlib-util-x86_64-x64-vc14-release:md5.obj
 0002:00009d9c       $unwind$MD5Transform       0000000140033d9c     pjlib-util-x86_64-x64-vc14-release:md5.obj
 0002:00009db4       $unwind$pj_cis_add_cis     0000000140033db4     pjlib-util-x86_64-x64-vc14-release:scanner.obj
 0002:00009db4       $unwind$pj_cis_dup         0000000140033db4     pjlib-util-x86_64-x64-vc14-release:scanner.obj
 0002:00009dbc       $unwind$pj_cis_add_range   0000000140033dbc     pjlib-util-x86_64-x64-vc14-release:scanner.obj
 0002:00009dc4       $chain$2$pj_cis_add_range  0000000140033dc4     pjlib-util-x86_64-x64-vc14-release:scanner.obj
 0002:00009de0       $chain$3$pj_cis_add_range  0000000140033de0     pjlib-util-x86_64-x64-vc14-release:scanner.obj
 0002:00009df0       $unwind$pj_scan_get        0000000140033df0     pjlib-util-x86_64-x64-vc14-release:scanner.obj
 0002:00009df0       $unwind$__GSHandlerCheckCommon 0000000140033df0     MSVCRT:gshandler.obj
 0002:00009df8       $unwind$pj_dns_make_query  0000000140033df8     pjlib-util-x86_64-x64-vc14-release:dns.obj
 0002:00009e04       $chain$1$pj_dns_make_query 0000000140033e04     pjlib-util-x86_64-x64-vc14-release:dns.obj
 0002:00009e1c       $chain$3$pj_dns_make_query 0000000140033e1c     pjlib-util-x86_64-x64-vc14-release:dns.obj
 0002:00009e34       $chain$4$pj_dns_make_query 0000000140033e34     pjlib-util-x86_64-x64-vc14-release:dns.obj
 0002:00009e44       $chain$5$pj_dns_make_query 0000000140033e44     pjlib-util-x86_64-x64-vc14-release:dns.obj
 0002:00009e54       $unwind$pj_dns_srv_resolve 0000000140033e54     pjlib-util-x86_64-x64-vc14-release:srv_resolver.obj
 0002:00009e6c       $unwind$dns_callback       0000000140033e6c     pjlib-util-x86_64-x64-vc14-release:srv_resolver.obj
 0002:00009e88       $chain$1$dns_callback      0000000140033e88     pjlib-util-x86_64-x64-vc14-release:srv_resolver.obj
 0002:00009ea0       $chain$2$dns_callback      0000000140033ea0     pjlib-util-x86_64-x64-vc14-release:srv_resolver.obj
 0002:00009eb0       $unwind$build_server_entries 0000000140033eb0     pjlib-util-x86_64-x64-vc14-release:srv_resolver.obj
 0002:00009ecc       $chain$0$build_server_entries 0000000140033ecc     pjlib-util-x86_64-x64-vc14-release:srv_resolver.obj
 0002:00009ee0       $chain$1$build_server_entries 0000000140033ee0     pjlib-util-x86_64-x64-vc14-release:srv_resolver.obj
 0002:00009ef4       $chain$2$build_server_entries 0000000140033ef4     pjlib-util-x86_64-x64-vc14-release:srv_resolver.obj
 0002:00009f04       $unwind$pj_init            0000000140033f04     pjlib-x86_64-x64-vc14-release:os_core_win32.obj
 0002:00009f18       $chain$1$pj_shutdown       0000000140033f18     pjlib-x86_64-x64-vc14-release:os_core_win32.obj
 0002:00009f30       $chain$2$pj_shutdown       0000000140033f30     pjlib-x86_64-x64-vc14-release:os_core_win32.obj
 0002:00009f40       $unwind$pj_thread_create   0000000140033f40     pjlib-x86_64-x64-vc14-release:os_core_win32.obj
 0002:00009f58       $chain$1$pj_thread_create  0000000140033f58     pjlib-x86_64-x64-vc14-release:os_core_win32.obj
 0002:00009f6c       $chain$2$pj_thread_create  0000000140033f6c     pjlib-x86_64-x64-vc14-release:os_core_win32.obj
 0002:00009f6c       $chain$4$pj_thread_create  0000000140033f6c     pjlib-x86_64-x64-vc14-release:os_core_win32.obj
 0002:00009f7c       $chain$3$pj_thread_create  0000000140033f7c     pjlib-x86_64-x64-vc14-release:os_core_win32.obj
 0002:00009f90       $chain$0$pj_thread_join    0000000140033f90     pjlib-x86_64-x64-vc14-release:os_core_win32.obj
 0002:00009fa4       $chain$2$pj_thread_join    0000000140033fa4     pjlib-x86_64-x64-vc14-release:os_core_win32.obj
 0002:00009fa4       $chain$4$pj_thread_join    0000000140033fa4     pjlib-x86_64-x64-vc14-release:os_core_win32.obj
 0002:00009fa4       $chain$6$pj_thread_join    0000000140033fa4     pjlib-x86_64-x64-vc14-release:os_core_win32.obj
 0002:00009fb8       $unwind$pj_atomic_inc      0000000140033fb8     pjlib-x86_64-x64-vc14-release:os_core_win32.obj
 0002:00009fc0       $chain$0$pj_mutex_create   0000000140033fc0     pjlib-x86_64-x64-vc14-release:os_core_win32.obj
 0002:00009fd4       $chain$2$pj_mutex_create   0000000140033fd4     pjlib-x86_64-x64-vc14-release:os_core_win32.obj
 0002:00009fe8       $chain$3$pj_mutex_create   0000000140033fe8     pjlib-x86_64-x64-vc14-release:os_core_win32.obj
 0002:00009ff8       $chain$0$pj_mutex_create_recursive 0000000140033ff8     pjlib-x86_64-x64-vc14-release:os_core_win32.obj
 0002:00009ff8       $chain$0$pj_mutex_create_simple 0000000140033ff8     pjlib-x86_64-x64-vc14-release:os_core_win32.obj
 0002:0000a00c       $chain$2$pj_mutex_create_recursive 000000014003400c     pjlib-x86_64-x64-vc14-release:os_core_win32.obj
 0002:0000a00c       $chain$2$pj_mutex_create_simple 000000014003400c     pjlib-x86_64-x64-vc14-release:os_core_win32.obj
 0002:0000a020       $chain$3$pj_mutex_create_recursive 0000000140034020     pjlib-x86_64-x64-vc14-release:os_core_win32.obj
 0002:0000a020       $chain$3$pj_mutex_create_simple 0000000140034020     pjlib-x86_64-x64-vc14-release:os_core_win32.obj
 0002:0000a030       $unwind$pj_rwmutex_create  0000000140034030     pjlib-x86_64-x64-vc14-release:os_core_win32.obj
 0002:0000a040       $chain$1$pj_rwmutex_create 0000000140034040     pjlib-x86_64-x64-vc14-release:os_core_win32.obj
 0002:0000a058       $chain$2$pj_rwmutex_create 0000000140034058     pjlib-x86_64-x64-vc14-release:os_core_win32.obj
 0002:0000a06c       $chain$3$pj_rwmutex_create 000000014003406c     pjlib-x86_64-x64-vc14-release:os_core_win32.obj
 0002:0000a07c       $chain$5$pj_rwmutex_create 000000014003407c     pjlib-x86_64-x64-vc14-release:os_core_win32.obj
 0002:0000a098       $chain$6$pj_rwmutex_create 0000000140034098     pjlib-x86_64-x64-vc14-release:os_core_win32.obj
 0002:0000a0b0       $chain$7$pj_rwmutex_create 00000001400340b0     pjlib-x86_64-x64-vc14-release:os_core_win32.obj
 0002:0000a0c0       $chain$0$pj_rwmutex_lock_write 00000001400340c0     pjlib-x86_64-x64-vc14-release:os_core_win32.obj
 0002:0000a0d4       $chain$2$pj_rwmutex_lock_write 00000001400340d4     pjlib-x86_64-x64-vc14-release:os_core_win32.obj
 0002:0000a0e8       $chain$0$pj_rwmutex_destroy 00000001400340e8     pjlib-x86_64-x64-vc14-release:os_core_win32.obj
 0002:0000a0fc       $chain$1$pj_rwmutex_destroy 00000001400340fc     pjlib-x86_64-x64-vc14-release:os_core_win32.obj
 0002:0000a110       $chain$2$pj_rwmutex_destroy 0000000140034110     pjlib-x86_64-x64-vc14-release:os_core_win32.obj
 0002:0000a120       $chain$3$pj_rwmutex_destroy 0000000140034120     pjlib-x86_64-x64-vc14-release:os_core_win32.obj
 0002:0000a130       $unwind$pj_perror          0000000140034130     pjlib-x86_64-x64-vc14-release:errno.obj
 0002:0000a130       $unwind$__report_gsfailure 0000000140034130     MSVCRT:gs_report.obj
 0002:0000a138       $unwind$pj_register_strerror 0000000140034138     pjlib-x86_64-x64-vc14-release:errno.obj
 0002:0000a140       $chain$0$pj_register_strerror 0000000140034140     pjlib-x86_64-x64-vc14-release:errno.obj
 0002:0000a154       $chain$2$pj_register_strerror 0000000140034154     pjlib-x86_64-x64-vc14-release:errno.obj
 0002:0000a168       $chain$3$pj_register_strerror 0000000140034168     pjlib-x86_64-x64-vc14-release:errno.obj
 0002:0000a178       $unwind$pj_perror_1        0000000140034178     pjlib-x86_64-x64-vc14-release:errno.obj
 0002:0000a178       $unwind$pj_perror_2        0000000140034178     pjlib-x86_64-x64-vc14-release:errno.obj
 0002:0000a178       $unwind$pj_perror_3        0000000140034178     pjlib-x86_64-x64-vc14-release:errno.obj
 0002:0000a178       $unwind$pj_perror_4        0000000140034178     pjlib-x86_64-x64-vc14-release:errno.obj
 0002:0000a180       $unwind$invoke_log         0000000140034180     pjlib-x86_64-x64-vc14-release:errno.obj
 0002:0000a188       $unwind$pj_perror_imp      0000000140034188     pjlib-x86_64-x64-vc14-release:errno.obj
 0002:0000a1a4       $unwind$pj_inet_aton       00000001400341a4     pjlib-x86_64-x64-vc14-release:sock_bsd.obj
 0002:0000a1b8       $unwind$pj_inet_pton       00000001400341b8     pjlib-x86_64-x64-vc14-release:sock_bsd.obj
 0002:0000a1cc       $chain$0$pj_inet_pton      00000001400341cc     pjlib-x86_64-x64-vc14-release:sock_bsd.obj
 0002:0000a1e0       $chain$1$pj_inet_pton      00000001400341e0     pjlib-x86_64-x64-vc14-release:sock_bsd.obj
 0002:0000a1f0       $chain$2$pj_inet_pton      00000001400341f0     pjlib-x86_64-x64-vc14-release:sock_bsd.obj
 0002:0000a204       $unwind$pj_inet_ntop       0000000140034204     pjlib-x86_64-x64-vc14-release:sock_bsd.obj
 0002:0000a214       $chain$0$pj_gethostname    0000000140034214     pjlib-x86_64-x64-vc14-release:sock_bsd.obj
 0002:0000a228       $chain$2$pj_gethostname    0000000140034228     pjlib-x86_64-x64-vc14-release:sock_bsd.obj
 0002:0000a23c       $chain$3$pj_gethostname    000000014003423c     pjlib-x86_64-x64-vc14-release:sock_bsd.obj
 0002:0000a24c       $unwind$pj_sock_socket     000000014003424c     pjlib-x86_64-x64-vc14-release:sock_bsd.obj
 0002:0000a260       $unwind$pj_sock_setsockopt_params 0000000140034260     pjlib-x86_64-x64-vc14-release:sock_bsd.obj
 0002:0000a26c       $chain$4$pj_sock_setsockopt_params 000000014003426c     pjlib-x86_64-x64-vc14-release:sock_bsd.obj
 0002:0000a290       $chain$5$pj_sock_setsockopt_params 0000000140034290     pjlib-x86_64-x64-vc14-release:sock_bsd.obj
 0002:0000a2a0       $unwind$pj_pool_alloc      00000001400342a0     pjlib-x86_64-x64-vc14-release:pool.obj
 0002:0000a2b0       $chain$1$pj_pool_alloc     00000001400342b0     pjlib-x86_64-x64-vc14-release:pool.obj
 0002:0000a2c8       $chain$2$pj_pool_alloc     00000001400342c8     pjlib-x86_64-x64-vc14-release:pool.obj
 0002:0000a2dc       $chain$3$pj_pool_alloc     00000001400342dc     pjlib-x86_64-x64-vc14-release:pool.obj
 0002:0000a2ec       $chain$5$pj_pool_alloc     00000001400342ec     pjlib-x86_64-x64-vc14-release:pool.obj
 0002:0000a308       $unwind$reset_pool         0000000140034308     pjlib-x86_64-x64-vc14-release:pool.obj
 0002:0000a318       $chain$0$reset_pool        0000000140034318     pjlib-x86_64-x64-vc14-release:pool.obj
 0002:0000a32c       $chain$1$reset_pool        000000014003432c     pjlib-x86_64-x64-vc14-release:pool.obj
 0002:0000a33c       $unwind$cpool_create_pool  000000014003433c     pjlib-x86_64-x64-vc14-release:pool_caching.obj
 0002:0000a354       $chain$0$cpool_release_pool 0000000140034354     pjlib-x86_64-x64-vc14-release:pool_caching.obj
 0002:0000a368       $chain$1$cpool_release_pool 0000000140034368     pjlib-x86_64-x64-vc14-release:pool_caching.obj
 0002:0000a368       $chain$3$cpool_release_pool 0000000140034368     pjlib-x86_64-x64-vc14-release:pool_caching.obj
 0002:0000a378       $chain$2$cpool_release_pool 0000000140034378     pjlib-x86_64-x64-vc14-release:pool_caching.obj
 0002:0000a38c       $unwind$cpool_dump_status  000000014003438c     pjlib-x86_64-x64-vc14-release:pool_caching.obj
 0002:0000a398       $chain$2$cpool_dump_status 0000000140034398     pjlib-x86_64-x64-vc14-release:pool_caching.obj
 0002:0000a3b4       $chain$5$cpool_dump_status 00000001400343b4     pjlib-x86_64-x64-vc14-release:pool_caching.obj
 0002:0000a3d0       $chain$6$cpool_dump_status 00000001400343d0     pjlib-x86_64-x64-vc14-release:pool_caching.obj
 0002:0000a3e0       $chain$7$cpool_dump_status 00000001400343e0     pjlib-x86_64-x64-vc14-release:pool_caching.obj
 0002:0000a3f0       $unwind$pj_strcat2         00000001400343f0     pjlib-x86_64-x64-vc14-release:string.obj
 0002:0000a3f8       $chain$0$pj_strcat2        00000001400343f8     pjlib-x86_64-x64-vc14-release:string.obj
 0002:0000a40c       $chain$1$pj_strcat2        000000014003440c     pjlib-x86_64-x64-vc14-release:string.obj
 0002:0000a41c       $unwind$pj_strstr          000000014003441c     pjlib-x86_64-x64-vc14-release:string.obj
 0002:0000a428       $chain$0$pj_strstr         0000000140034428     pjlib-x86_64-x64-vc14-release:string.obj
 0002:0000a43c       $chain$2$pj_strstr         000000014003443c     pjlib-x86_64-x64-vc14-release:string.obj
 0002:0000a450       $unwind$pj_strtoul         0000000140034450     pjlib-x86_64-x64-vc14-release:string.obj
 0002:0000a460       $chain$0$pj_strtoul        0000000140034460     pjlib-x86_64-x64-vc14-release:string.obj
 0002:0000a474       $chain$1$pj_strtoul        0000000140034474     pjlib-x86_64-x64-vc14-release:string.obj
 0002:0000a484       $unwind$pj_sockaddr_print  0000000140034484     pjlib-x86_64-x64-vc14-release:sock_common.obj
 0002:0000a4a0       $chain$1$pj_sockaddr_print 00000001400344a0     pjlib-x86_64-x64-vc14-release:sock_common.obj
 0002:0000a4b4       $chain$2$pj_sockaddr_print 00000001400344b4     pjlib-x86_64-x64-vc14-release:sock_common.obj
 0002:0000a4c4       $unwind$pj_sockaddr_init   00000001400344c4     pjlib-x86_64-x64-vc14-release:sock_common.obj
 0002:0000a4dc       $chain$0$pj_sockaddr_init  00000001400344dc     pjlib-x86_64-x64-vc14-release:sock_common.obj
 0002:0000a4f0       $chain$1$pj_sockaddr_init  00000001400344f0     pjlib-x86_64-x64-vc14-release:sock_common.obj
 0002:0000a500       $unwind$pj_sockaddr_in_set_str_addr 0000000140034500     pjlib-x86_64-x64-vc14-release:sock_common.obj
 0002:0000a518       $unwind$pj_addr_str_print  0000000140034518     pjlib-x86_64-x64-vc14-release:sock_common.obj
 0002:0000a530       $unwind$pj_gethostip       0000000140034530     pjlib-x86_64-x64-vc14-release:sock_common.obj
 0002:0000a554       $unwind$pj_getipinterface  0000000140034554     pjlib-x86_64-x64-vc14-release:sock_common.obj
 0002:0000a574       $unwind$pj_log             0000000140034574     pjlib-x86_64-x64-vc14-release:log.obj
 0002:0000a590       $chain$2$pj_log            0000000140034590     pjlib-x86_64-x64-vc14-release:log.obj
 0002:0000a5ac       $chain$3$pj_log            00000001400345ac     pjlib-x86_64-x64-vc14-release:log.obj
 0002:0000a5ac       $chain$5$pj_log            00000001400345ac     pjlib-x86_64-x64-vc14-release:log.obj
 0002:0000a5c0       $chain$4$pj_log            00000001400345c0     pjlib-x86_64-x64-vc14-release:log.obj
 0002:0000a5d0       $unwind$pj_log_1           00000001400345d0     pjlib-x86_64-x64-vc14-release:log.obj
 0002:0000a5d0       $unwind$pj_log_2           00000001400345d0     pjlib-x86_64-x64-vc14-release:log.obj
 0002:0000a5d0       $unwind$pj_log_3           00000001400345d0     pjlib-x86_64-x64-vc14-release:log.obj
 0002:0000a5d0       $unwind$pj_log_4           00000001400345d0     pjlib-x86_64-x64-vc14-release:log.obj
 0002:0000a5d0       $unwind$pj_log_5           00000001400345d0     pjlib-x86_64-x64-vc14-release:log.obj
 0002:0000a5d8       $unwind$enum_ipv4_interface 00000001400345d8     pjlib-x86_64-x64-vc14-release:ip_helper_win32.obj
 0002:0000a5f0       $chain$0$enum_ipv4_interface 00000001400345f0     pjlib-x86_64-x64-vc14-release:ip_helper_win32.obj
 0002:0000a604       $chain$1$enum_ipv4_interface 0000000140034604     pjlib-x86_64-x64-vc14-release:ip_helper_win32.obj
 0002:0000a604       $chain$8$enum_ipv4_interface 0000000140034604     pjlib-x86_64-x64-vc14-release:ip_helper_win32.obj
 0002:0000a614       $chain$2$enum_ipv4_interface 0000000140034614     pjlib-x86_64-x64-vc14-release:ip_helper_win32.obj
 0002:0000a628       $chain$5$enum_ipv4_interface 0000000140034628     pjlib-x86_64-x64-vc14-release:ip_helper_win32.obj
 0002:0000a644       $chain$6$enum_ipv4_interface 0000000140034644     pjlib-x86_64-x64-vc14-release:ip_helper_win32.obj
 0002:0000a658       $unwind$enum_ipv4_ipv6_interface 0000000140034658     pjlib-x86_64-x64-vc14-release:ip_helper_win32.obj
 0002:0000a678       $unwind$default_block_alloc 0000000140034678     pjlib-x86_64-x64-vc14-release:pool_policy_malloc.obj
 0002:0000a688       $unwind$pj_ioqueue_create  0000000140034688     pjlib-x86_64-x64-vc14-release:ioqueue_select.obj
 0002:0000a6a0       $chain$1$pj_ioqueue_destroy 00000001400346a0     pjlib-x86_64-x64-vc14-release:ioqueue_select.obj
 0002:0000a6b8       $chain$2$pj_ioqueue_destroy 00000001400346b8     pjlib-x86_64-x64-vc14-release:ioqueue_select.obj
 0002:0000a6c8       $unwind$pj_ioqueue_register_sock2 00000001400346c8     pjlib-x86_64-x64-vc14-release:ioqueue_select.obj
 0002:0000a6e0       $chain$0$pj_ioqueue_unregister 00000001400346e0     pjlib-x86_64-x64-vc14-release:ioqueue_select.obj
 0002:0000a6f4       $chain$2$pj_ioqueue_unregister 00000001400346f4     pjlib-x86_64-x64-vc14-release:ioqueue_select.obj
 0002:0000a708       $unwind$pj_ioqueue_poll    0000000140034708     pjlib-x86_64-x64-vc14-release:ioqueue_select.obj
 0002:0000a71c       $chain$0$pj_ioqueue_poll   000000014003471c     pjlib-x86_64-x64-vc14-release:ioqueue_select.obj
 0002:0000a730       $chain$2$pj_ioqueue_poll   0000000140034730     pjlib-x86_64-x64-vc14-release:ioqueue_select.obj
 0002:0000a748       $chain$4$pj_ioqueue_poll   0000000140034748     pjlib-x86_64-x64-vc14-release:ioqueue_select.obj
 0002:0000a760       $chain$5$pj_ioqueue_poll   0000000140034760     pjlib-x86_64-x64-vc14-release:ioqueue_select.obj
 0002:0000a774       $chain$6$pj_ioqueue_poll   0000000140034774     pjlib-x86_64-x64-vc14-release:ioqueue_select.obj
 0002:0000a784       $chain$7$pj_ioqueue_poll   0000000140034784     pjlib-x86_64-x64-vc14-release:ioqueue_select.obj
 0002:0000a794       $chain$8$pj_ioqueue_poll   0000000140034794     pjlib-x86_64-x64-vc14-release:ioqueue_select.obj
 0002:0000a7a4       $chain$9$pj_ioqueue_poll   00000001400347a4     pjlib-x86_64-x64-vc14-release:ioqueue_select.obj
 0002:0000a7b4       $unwind$pj_ioqueue_recvfrom 00000001400347b4     pjlib-x86_64-x64-vc14-release:ioqueue_select.obj
 0002:0000a7c4       $chain$2$pj_ioqueue_recvfrom 00000001400347c4     pjlib-x86_64-x64-vc14-release:ioqueue_select.obj
 0002:0000a7e0       $chain$4$pj_ioqueue_recvfrom 00000001400347e0     pjlib-x86_64-x64-vc14-release:ioqueue_select.obj
 0002:0000a7fc       $chain$5$pj_ioqueue_recvfrom 00000001400347fc     pjlib-x86_64-x64-vc14-release:ioqueue_select.obj
 0002:0000a80c       $unwind$pj_ioqueue_sendto  000000014003480c     pjlib-x86_64-x64-vc14-release:ioqueue_select.obj
 0002:0000a81c       $chain$3$pj_ioqueue_sendto 000000014003481c     pjlib-x86_64-x64-vc14-release:ioqueue_select.obj
 0002:0000a83c       $chain$5$pj_ioqueue_sendto 000000014003483c     pjlib-x86_64-x64-vc14-release:ioqueue_select.obj
 0002:0000a85c       $chain$6$pj_ioqueue_sendto 000000014003485c     pjlib-x86_64-x64-vc14-release:ioqueue_select.obj
 0002:0000a86c       $unwind$ioqueue_dispatch_write_event 000000014003486c     pjlib-x86_64-x64-vc14-release:ioqueue_select.obj
 0002:0000a884       $unwind$ioqueue_dispatch_read_event 0000000140034884     pjlib-x86_64-x64-vc14-release:ioqueue_select.obj
 0002:0000a89c       $unwind$ioqueue_dispatch_exception_event 000000014003489c     pjlib-x86_64-x64-vc14-release:ioqueue_select.obj
 0002:0000a8a8       $chain$0$ioqueue_dispatch_exception_event 00000001400348a8     pjlib-x86_64-x64-vc14-release:ioqueue_select.obj
 0002:0000a8bc       $chain$1$ioqueue_dispatch_exception_event 00000001400348bc     pjlib-x86_64-x64-vc14-release:ioqueue_select.obj
 0002:0000a8cc       $unwind$scan_closing_keys  00000001400348cc     pjlib-x86_64-x64-vc14-release:ioqueue_select.obj
 0002:0000a8dc       $chain$0$scan_closing_keys 00000001400348dc     pjlib-x86_64-x64-vc14-release:ioqueue_select.obj
 0002:0000a8f0       $chain$1$scan_closing_keys 00000001400348f0     pjlib-x86_64-x64-vc14-release:ioqueue_select.obj
 0002:0000a900       $chain$0$decrement_counter 0000000140034900     pjlib-x86_64-x64-vc14-release:ioqueue_select.obj
 0002:0000a914       $chain$1$decrement_counter 0000000140034914     pjlib-x86_64-x64-vc14-release:ioqueue_select.obj
 0002:0000a924       $unwind$pj_lock_create_recursive_mutex 0000000140034924     pjlib-x86_64-x64-vc14-release:lock.obj
 0002:0000a924       $unwind$pj_lock_create_simple_mutex 0000000140034924     pjlib-x86_64-x64-vc14-release:lock.obj
 0002:0000a934       $chain$0$pj_lock_create_simple_mutex 0000000140034934     pjlib-x86_64-x64-vc14-release:lock.obj
 0002:0000a948       $chain$2$pj_lock_create_simple_mutex 0000000140034948     pjlib-x86_64-x64-vc14-release:lock.obj
 0002:0000a95c       $chain$3$pj_lock_create_simple_mutex 000000014003495c     pjlib-x86_64-x64-vc14-release:lock.obj
 0002:0000a96c       $chain$0$pj_lock_create_recursive_mutex 000000014003496c     pjlib-x86_64-x64-vc14-release:lock.obj
 0002:0000a980       $chain$2$pj_lock_create_recursive_mutex 0000000140034980     pjlib-x86_64-x64-vc14-release:lock.obj
 0002:0000a994       $chain$3$pj_lock_create_recursive_mutex 0000000140034994     pjlib-x86_64-x64-vc14-release:lock.obj
 0002:0000a9a4       $unwind$pj_grp_lock_create 00000001400349a4     pjlib-x86_64-x64-vc14-release:lock.obj
 0002:0000a9b0       $chain$0$pj_grp_lock_create 00000001400349b0     pjlib-x86_64-x64-vc14-release:lock.obj
 0002:0000a9c4       $chain$6$pj_grp_lock_create 00000001400349c4     pjlib-x86_64-x64-vc14-release:lock.obj
 0002:0000a9e8       $chain$8$pj_grp_lock_create 00000001400349e8     pjlib-x86_64-x64-vc14-release:lock.obj
 0002:0000aa0c       $chain$9$pj_grp_lock_create 0000000140034a0c     pjlib-x86_64-x64-vc14-release:lock.obj
 0002:0000aa1c       $chain$0$grp_lock_destroy  0000000140034a1c     pjlib-x86_64-x64-vc14-release:lock.obj
 0002:0000aa30       $chain$2$grp_lock_destroy  0000000140034a30     pjlib-x86_64-x64-vc14-release:lock.obj
 0002:0000aa48       $chain$3$grp_lock_destroy  0000000140034a48     pjlib-x86_64-x64-vc14-release:lock.obj
 0002:0000aa5c       $chain$4$grp_lock_destroy  0000000140034a5c     pjlib-x86_64-x64-vc14-release:lock.obj
 0002:0000aa6c       $unwind$pj_timer_heap_create 0000000140034a6c     pjlib-x86_64-x64-vc14-release:timer.obj
 0002:0000aa7c       $chain$1$pj_timer_heap_create 0000000140034a7c     pjlib-x86_64-x64-vc14-release:timer.obj
 0002:0000aa94       $chain$3$pj_timer_heap_create 0000000140034a94     pjlib-x86_64-x64-vc14-release:timer.obj
 0002:0000aaac       $chain$4$pj_timer_heap_create 0000000140034aac     pjlib-x86_64-x64-vc14-release:timer.obj
 0002:0000aabc       $unwind$pj_timer_heap_schedule_w_grp_lock_dbg 0000000140034abc     pjlib-x86_64-x64-vc14-release:timer.obj
 0002:0000aacc       $chain$0$pj_timer_heap_schedule_w_grp_lock_dbg 0000000140034acc     pjlib-x86_64-x64-vc14-release:timer.obj
 0002:0000aae0       $chain$1$pj_timer_heap_schedule_w_grp_lock_dbg 0000000140034ae0     pjlib-x86_64-x64-vc14-release:timer.obj
 0002:0000aaf0       $chain$0$pj_timer_heap_cancel 0000000140034af0     pjlib-x86_64-x64-vc14-release:timer.obj
 0002:0000ab04       $chain$1$pj_timer_heap_cancel 0000000140034b04     pjlib-x86_64-x64-vc14-release:timer.obj
 0002:0000ab14       $unwind$pj_timer_heap_cancel_if_active 0000000140034b14     pjlib-x86_64-x64-vc14-release:timer.obj
 0002:0000ab24       $chain$0$pj_timer_heap_cancel_if_active 0000000140034b24     pjlib-x86_64-x64-vc14-release:timer.obj
 0002:0000ab38       $chain$1$pj_timer_heap_cancel_if_active 0000000140034b38     pjlib-x86_64-x64-vc14-release:timer.obj
 0002:0000ab4c       $chain$2$pj_timer_heap_cancel_if_active 0000000140034b4c     pjlib-x86_64-x64-vc14-release:timer.obj
 0002:0000ab5c       $chain$3$pj_timer_heap_cancel_if_active 0000000140034b5c     pjlib-x86_64-x64-vc14-release:timer.obj
 0002:0000ab6c       $unwind$pj_timer_heap_poll 0000000140034b6c     pjlib-x86_64-x64-vc14-release:timer.obj
 0002:0000ab78       $chain$5$pj_timer_heap_poll 0000000140034b78     pjlib-x86_64-x64-vc14-release:timer.obj
 0002:0000aba0       $chain$6$pj_timer_heap_poll 0000000140034ba0     pjlib-x86_64-x64-vc14-release:timer.obj
 0002:0000abb4       $unwind$pj_timer_heap_dump 0000000140034bb4     pjlib-x86_64-x64-vc14-release:timer.obj
 0002:0000abbc       $chain$0$pj_timer_heap_dump 0000000140034bbc     pjlib-x86_64-x64-vc14-release:timer.obj
 0002:0000abd0       $chain$2$pj_timer_heap_dump 0000000140034bd0     pjlib-x86_64-x64-vc14-release:timer.obj
 0002:0000abe8       $chain$3$pj_timer_heap_dump 0000000140034be8     pjlib-x86_64-x64-vc14-release:timer.obj
 0002:0000abfc       $chain$4$pj_timer_heap_dump 0000000140034bfc     pjlib-x86_64-x64-vc14-release:timer.obj
 0002:0000ac0c       $chain$5$pj_timer_heap_dump 0000000140034c0c     pjlib-x86_64-x64-vc14-release:timer.obj
 0002:0000ac1c       $chain$6$pj_timer_heap_dump 0000000140034c1c     pjlib-x86_64-x64-vc14-release:timer.obj
 0002:0000ac2c       $chain$0$reheap_up         0000000140034c2c     pjlib-x86_64-x64-vc14-release:timer.obj
 0002:0000ac40       $chain$1$reheap_up         0000000140034c40     pjlib-x86_64-x64-vc14-release:timer.obj
 0002:0000ac50       $unwind$remove_node        0000000140034c50     pjlib-x86_64-x64-vc14-release:timer.obj
 0002:0000ac64       $chain$0$remove_node       0000000140034c64     pjlib-x86_64-x64-vc14-release:timer.obj
 0002:0000ac78       $chain$1$remove_node       0000000140034c78     pjlib-x86_64-x64-vc14-release:timer.obj
 0002:0000ac88       $unwind$insert_node        0000000140034c88     pjlib-x86_64-x64-vc14-release:timer.obj
 0002:0000aca4       $chain$0$pj_hash_calc_tolower 0000000140034ca4     pjlib-x86_64-x64-vc14-release:hash.obj
 0002:0000acb8       $chain$1$pj_hash_calc_tolower 0000000140034cb8     pjlib-x86_64-x64-vc14-release:hash.obj
 0002:0000acc8       $chain$2$pj_hash_get_lower 0000000140034cc8     pjlib-x86_64-x64-vc14-release:hash.obj
 0002:0000ace4       $chain$5$pj_hash_get_lower 0000000140034ce4     pjlib-x86_64-x64-vc14-release:hash.obj
 0002:0000ad00       $chain$6$pj_hash_get_lower 0000000140034d00     pjlib-x86_64-x64-vc14-release:hash.obj
 0002:0000ad14       $chain$7$pj_hash_get_lower 0000000140034d14     pjlib-x86_64-x64-vc14-release:hash.obj
 0002:0000ad24       $chain$8$pj_hash_get_lower 0000000140034d24     pjlib-x86_64-x64-vc14-release:hash.obj
 0002:0000ad3c       $chain$9$pj_hash_get_lower 0000000140034d3c     pjlib-x86_64-x64-vc14-release:hash.obj
 0002:0000ad4c       $unwind$pj_hash_set        0000000140034d4c     pjlib-x86_64-x64-vc14-release:hash.obj
 0002:0000ad68       $unwind$pj_hash_set_lower  0000000140034d68     pjlib-x86_64-x64-vc14-release:hash.obj
 0002:0000ad80       $unwind$pj_generate_unique_string 0000000140034d80     pjlib-x86_64-x64-vc14-release:guid_win32.obj
 0002:0000ad90       $unwind$pj_sock_apply_qos2 0000000140034d90     pjlib-x86_64-x64-vc14-release:sock_qos_common.obj
 0002:0000ada8       $unwind$pj_gettimeofday    0000000140034da8     pjlib-x86_64-x64-vc14-release:os_time_win32.obj
 0002:0000adbc       $unwind$pj_time_decode     0000000140034dbc     pjlib-x86_64-x64-vc14-release:os_time_win32.obj
 0002:0000add0       $unwind$pj_getaddrinfo     0000000140034dd0     pjlib-x86_64-x64-vc14-release:addr_resolv_sock.obj
 0002:0000ade4       $chain$0$pj_getaddrinfo    0000000140034de4     pjlib-x86_64-x64-vc14-release:addr_resolv_sock.obj
 0002:0000adf8       $chain$1$pj_getaddrinfo    0000000140034df8     pjlib-x86_64-x64-vc14-release:addr_resolv_sock.obj
 0002:0000adf8       $chain$9$pj_getaddrinfo    0000000140034df8     pjlib-x86_64-x64-vc14-release:addr_resolv_sock.obj
 0002:0000ae08       $chain$10$pj_getaddrinfo   0000000140034e08     pjlib-x86_64-x64-vc14-release:addr_resolv_sock.obj
 0002:0000ae08       $chain$2$pj_getaddrinfo    0000000140034e08     pjlib-x86_64-x64-vc14-release:addr_resolv_sock.obj
 0002:0000ae1c       $chain$7$pj_getaddrinfo    0000000140034e1c     pjlib-x86_64-x64-vc14-release:addr_resolv_sock.obj
 0002:0000ae40       $chain$0$pj_gettickcount   0000000140034e40     pjlib-x86_64-x64-vc14-release:os_timestamp_common.obj
 0002:0000ae54       $chain$2$pj_gettickcount   0000000140034e54     pjlib-x86_64-x64-vc14-release:os_timestamp_common.obj
 0002:0000ae68       $chain$3$pj_gettickcount   0000000140034e68     pjlib-x86_64-x64-vc14-release:os_timestamp_common.obj
 0002:0000ae78       $unwind$pj_sock_select     0000000140034e78     pjlib-x86_64-x64-vc14-release:sock_select.obj
 0002:0000ae8c       $unwind$pj_sock_set_qos_type 0000000140034e8c     pjlib-x86_64-x64-vc14-release:sock_qos_bsd.obj
 0002:0000ae9c       $chain$0$pj_sock_set_qos_type 0000000140034e9c     pjlib-x86_64-x64-vc14-release:sock_qos_bsd.obj
 0002:0000aeb0       $chain$1$pj_sock_set_qos_type 0000000140034eb0     pjlib-x86_64-x64-vc14-release:sock_qos_bsd.obj
 0002:0000aec0       $unwind$pj_sock_set_qos_params 0000000140034ec0     pjlib-x86_64-x64-vc14-release:sock_qos_bsd.obj
 0002:0000aed8       $xdatasym                  0000000140034ed8     MSVCRT:amdsecgs.obj
 0002:0000aedc       $unwind$?__scrt_common_main_seh@@YAHXZ 0000000140034edc     MSVCRT:exe_main.obj
 0002:0000af14       $unwind$?filt$0@?0??__scrt_common_main_seh@@YAHXZ@4HA 0000000140034f14     MSVCRT:exe_main.obj
 0002:0000af1c       $unwind$__report_securityfailure 0000000140034f1c     MSVCRT:gs_report.obj
 0002:0000af24       $unwind$capture_previous_context 0000000140034f24     MSVCRT:gs_report.obj
 0002:0000af30       $unwind$__isa_available_init 0000000140034f30     MSVCRT:cpu_disp.obj
 0002:0000af40       $xdatasym                  0000000140034f40     MSVCRT:chkstk.obj
 0002:0000af48       $unwind$__scrt_is_nonwritable_in_current_image 0000000140034f48     MSVCRT:utility.obj
 0002:0000af68       $unwind$__scrt_is_nonwritable_in_current_image$filt$0 0000000140034f68     MSVCRT:utility.obj
 0002:0000af70       $unwind$__security_init_cookie 0000000140034f70     MSVCRT:gs_support.obj
 0002:0000af7c       $unwind$__scrt_fastfail    0000000140034f7c     MSVCRT:utility_desktop.obj
 0002:0000af90       $xdatasym                  0000000140034f90     MSVCRT:guard_dispatch.obj
 0002:0000af98       $xdatasym                  0000000140034f98     MSVCRT:guard_xfg_dispatch.obj
 0002:0000b4e8       .idata$6                   00000001400354e8     ole32:ole32.dll
 0002:0000b538       .idata$6                   0000000140035538     ws2_32:WS2_32.dll
 0002:0000b8a2       .idata$6                   00000001400358a2     kernel32:KERNEL32.dll
 0002:0000b958       .idata$6                   0000000140035958     vcruntime:VCRUNTIME140.dll
 0002:0000bbf0       .idata$6                   0000000140035bf0     ucrt:api-ms-win-crt-stdio-l1-1-0.dll
 0002:0000bc10       .idata$6                   0000000140035c10     ucrt:api-ms-win-crt-convert-l1-1-0.dll
 0002:0000bc32       .idata$6                   0000000140035c32     ucrt:api-ms-win-crt-string-l1-1-0.dll
 0002:0000bc54       .idata$6                   0000000140035c54     ucrt:api-ms-win-crt-heap-l1-1-0.dll
 0002:0000bc74       .idata$6                   0000000140035c74     ucrt:api-ms-win-crt-utility-l1-1-0.dll
 0002:0000bc96       .idata$6                   0000000140035c96     ucrt:api-ms-win-crt-math-l1-1-0.dll
 0002:0000bcb6       .idata$6                   0000000140035cb6     ucrt:api-ms-win-crt-runtime-l1-1-0.dll
 0002:0000bcd8       .idata$6                   0000000140035cd8     ucrt:api-ms-win-crt-locale-l1-1-0.dll
 0003:00000000       $SG21996                   0000000140036000     stateless_proxy.obj
 0003:00000010       $SG22195                   0000000140036010     stateless_proxy.obj
 0003:00000024       $SG21929                   0000000140036024     stateless_proxy.obj
 0003:00000030       $SG21930                   0000000140036030     stateless_proxy.obj
 0003:00000044       $SG21950                   0000000140036044     stateless_proxy.obj
 0003:00000050       $SG21934                   0000000140036050     stateless_proxy.obj
 0003:00000118       $SG21952                   0000000140036118     stateless_proxy.obj
 0003:0000011c       $SG22107                   000000014003611c     stateless_proxy.obj
 0003:00000120       $SG21954                   0000000140036120     stateless_proxy.obj
 0003:0000012c       $SG21956                   000000014003612c     stateless_proxy.obj
 0003:00000134       $SG21957                   0000000140036134     stateless_proxy.obj
 0003:00000140       $SG21959                   0000000140036140     stateless_proxy.obj
 0003:00000158       $SG21961                   0000000140036158     stateless_proxy.obj
 0003:00000178       $SG21965                   0000000140036178     stateless_proxy.obj
 0003:000001a8       $SG21975                   00000001400361a8     stateless_proxy.obj
 0003:000001d8       $SG21976                   00000001400361d8     stateless_proxy.obj
 0003:000001f0       $SG21986                   00000001400361f0     stateless_proxy.obj
 0003:00000220       $SG21987                   0000000140036220     stateless_proxy.obj
 0003:00000238       $SG22058                   0000000140036238     stateless_proxy.obj
 0003:00000260       mod_msg_logger             0000000140036260     stateless_proxy.obj
 0003:000002d0       $SG22023                   00000001400362d0     stateless_proxy.obj
 0003:000002e0       $SG22055                   00000001400362e0     stateless_proxy.obj
 0003:000002f0       $SG22056                   00000001400362f0     stateless_proxy.obj
 0003:00000300       $SG22059                   0000000140036300     stateless_proxy.obj
 0003:00000318       $SG22061                   0000000140036318     stateless_proxy.obj
 0003:00000330       $SG22062                   0000000140036330     stateless_proxy.obj
 0003:00000348       $SG22064                   0000000140036348     stateless_proxy.obj
 0003:00000358       $SG22065                   0000000140036358     stateless_proxy.obj
 0003:00000370       $SG22068                   0000000140036370     stateless_proxy.obj
 0003:00000388       $SG22069                   0000000140036388     stateless_proxy.obj
 0003:000003a0       $SG22105                   00000001400363a0     stateless_proxy.obj
 0003:000003b0       $SG22108                   00000001400363b0     stateless_proxy.obj
 0003:000003b8       $SG22151                   00000001400363b8     stateless_proxy.obj
 0003:000003c8       $SG22152                   00000001400363c8     stateless_proxy.obj
 0003:000003e0       ?mod_stateless_proxy@?1??init_stateless_proxy@@9@9 00000001400363e0     stateless_proxy.obj
 0003:00000450       $SG22210                   0000000140036450     stateless_proxy.obj
 0003:00000468       $SG22215                   0000000140036468     stateless_proxy.obj
 0003:00000488       $SG22217                   0000000140036488     stateless_proxy.obj
 0003:000004a8       $SG22231                   00000001400364a8     stateless_proxy.obj
 0003:000004c0       $SG22237                   00000001400364c0     stateless_proxy.obj
 0003:000004e0       $SG22253                   00000001400364e0     stateless_proxy.obj
 0003:00000500       $SG22255                   0000000140036500     stateless_proxy.obj
 0003:00000520       $SG22257                   0000000140036520     stateless_proxy.obj
 0003:00000544       $SG22258                   0000000140036544     stateless_proxy.obj
 0003:00000550       $SG22260                   0000000140036550     stateless_proxy.obj
 0003:00000570       $SG22261                   0000000140036570     stateless_proxy.obj
 0003:000005b8       $SG22263                   00000001400365b8     stateless_proxy.obj
 0003:000005e8       method_names               00000001400365e8     pjsip-core-x86_64-x64-vc14-release:sip_msg.obj
 0003:00000618       generic_hdr_vptr           0000000140036618     pjsip-core-x86_64-x64-vc14-release:sip_msg.obj
 0003:00000630       generic_int_hdr_vptr       0000000140036630     pjsip-core-x86_64-x64-vc14-release:sip_msg.obj
 0003:00000648       generic_array_hdr_vptr     0000000140036648     pjsip-core-x86_64-x64-vc14-release:sip_msg.obj
 0003:00000660       clen_hdr_vptr              0000000140036660     pjsip-core-x86_64-x64-vc14-release:sip_msg.obj
 0003:00000678       cseq_hdr_vptr              0000000140036678     pjsip-core-x86_64-x64-vc14-release:sip_msg.obj
 0003:00000690       contact_hdr_vptr           0000000140036690     pjsip-core-x86_64-x64-vc14-release:sip_msg.obj
 0003:000006a8       ctype_hdr_vptr             00000001400366a8     pjsip-core-x86_64-x64-vc14-release:sip_msg.obj
 0003:000006c0       fromto_hdr_vptr            00000001400366c0     pjsip-core-x86_64-x64-vc14-release:sip_msg.obj
 0003:000006d8       routing_hdr_vptr           00000001400366d8     pjsip-core-x86_64-x64-vc14-release:sip_msg.obj
 0003:000006f0       retry_after_hdr_vptr       00000001400366f0     pjsip-core-x86_64-x64-vc14-release:sip_msg.obj
 0003:00000708       via_hdr_vptr               0000000140036708     pjsip-core-x86_64-x64-vc14-release:sip_msg.obj
 0003:00000720       mod_msg_print              0000000140036720     pjsip-core-x86_64-x64-vc14-release:sip_transport.obj
 0003:00000790       transport_names            0000000140036790     pjsip-core-x86_64-x64-vc14-release:sip_transport.obj
 0003:00000b10       event_str                  0000000140036b10     pjsip-core-x86_64-x64-vc14-release:sip_util.obj
 0003:00000b48       str_TEXT                   0000000140036b48     pjsip-core-x86_64-x64-vc14-release:sip_util.obj
 0003:00000b58       str_PLAIN                  0000000140036b58     pjsip-core-x86_64-x64-vc14-release:sip_util.obj
 0003:00000b68       sip_str                    0000000140036b68     pjsip-core-x86_64-x64-vc14-release:sip_uri.obj
 0003:00000b78       sips_str                   0000000140036b78     pjsip-core-x86_64-x64-vc14-release:sip_uri.obj
 0003:00000b88       sips_url_vptr              0000000140036b88     pjsip-core-x86_64-x64-vc14-release:sip_uri.obj
 0003:00000bb0       sip_url_vptr               0000000140036bb0     pjsip-core-x86_64-x64-vc14-release:sip_uri.obj
 0003:00000bd8       name_addr_vptr             0000000140036bd8     pjsip-core-x86_64-x64-vc14-release:sip_uri.obj
 0003:00000c00       other_uri_vptr             0000000140036c00     pjsip-core-x86_64-x64-vc14-release:sip_uri.obj
 0003:00000c40       pconst                     0000000140036c40     pjsip-core-x86_64-x64-vc14-release:sip_parser.obj
 0003:00000f08       pjsip_ISUB_STR             0000000140036f08     pjsip-core-x86_64-x64-vc14-release:sip_tel_uri.obj
 0003:00000f18       pjsip_EXT_STR              0000000140036f18     pjsip-core-x86_64-x64-vc14-release:sip_tel_uri.obj
 0003:00000f28       pjsip_PH_CTX_STR           0000000140036f28     pjsip-core-x86_64-x64-vc14-release:sip_tel_uri.obj
 0003:00000f38       tel_uri_vptr               0000000140036f38     pjsip-core-x86_64-x64-vc14-release:sip_tel_uri.obj
 0003:00000f60       mod_tsx_layer              0000000140036f60     pjsip-core-x86_64-x64-vc14-release:sip_transaction.obj
 0003:00000ff0       t1_timer_val               0000000140036ff0     pjsip-core-x86_64-x64-vc14-release:sip_transaction.obj
 0003:00000ff8       t2_timer_val               0000000140036ff8     pjsip-core-x86_64-x64-vc14-release:sip_transaction.obj
 0003:00001000       t4_timer_val               0000000140037000     pjsip-core-x86_64-x64-vc14-release:sip_transaction.obj
 0003:00001008       td_timer_val               0000000140037008     pjsip-core-x86_64-x64-vc14-release:sip_transaction.obj
 0003:00001010       timeout_timer_val          0000000140037010     pjsip-core-x86_64-x64-vc14-release:sip_transaction.obj
 0003:00001020       state_str                  0000000140037020     pjsip-core-x86_64-x64-vc14-release:sip_transaction.obj
 0003:00001060       role_name                  0000000140037060     pjsip-core-x86_64-x64-vc14-release:sip_transaction.obj
 0003:00001070       tsx_state_handler_uac      0000000140037070     pjsip-core-x86_64-x64-vc14-release:sip_transaction.obj
 0003:000010b0       tsx_state_handler_uas      00000001400370b0     pjsip-core-x86_64-x64-vc14-release:sip_transaction.obj
 0003:00001160       authorization_hdr_vptr     0000000140037160     pjsip-core-x86_64-x64-vc14-release:sip_auth_msg.obj
 0003:00001178       www_authenticate_hdr_vptr  0000000140037178     pjsip-core-x86_64-x64-vc14-release:sip_auth_msg.obj
 0003:00001198       state_names                0000000140037198     pjlib-util-x86_64-x64-vc14-release:resolver.obj
 0003:000011b0       thread_tls_id              00000001400371b0     pjlib-x86_64-x64-vc14-release:os_core_win32.obj
 0003:000011c0       pool_sizes                 00000001400371c0     pjlib-x86_64-x64-vc14-release:pool_caching.obj
 0003:00001240       pj_log_max_level           0000000140037240     pjlib-x86_64-x64-vc14-release:log.obj
 0003:00001244       thread_suspended_tls_id    0000000140037244     pjlib-x86_64-x64-vc14-release:log.obj
 0003:00001248       thread_indent_tls_id       0000000140037248     pjlib-x86_64-x64-vc14-release:log.obj
 0003:0000124c       log_decor                  000000014003724c     pjlib-x86_64-x64-vc14-release:log.obj
 0003:00001250       log_writer                 0000000140037250     pjlib-x86_64-x64-vc14-release:log.obj
 0003:00001258       PJ_LOG_COLOR_0             0000000140037258     pjlib-x86_64-x64-vc14-release:log.obj
 0003:0000125c       PJ_LOG_COLOR_1             000000014003725c     pjlib-x86_64-x64-vc14-release:log.obj
 0003:00001260       PJ_LOG_COLOR_2             0000000140037260     pjlib-x86_64-x64-vc14-release:log.obj
 0003:00001264       PJ_LOG_COLOR_3             0000000140037264     pjlib-x86_64-x64-vc14-release:log.obj
 0003:00001268       PJ_LOG_COLOR_4             0000000140037268     pjlib-x86_64-x64-vc14-release:log.obj
 0003:0000126c       PJ_LOG_COLOR_5             000000014003726c     pjlib-x86_64-x64-vc14-release:log.obj
 0003:00001270       PJ_LOG_COLOR_6             0000000140037270     pjlib-x86_64-x64-vc14-release:log.obj
 0003:00001274       PJ_LOG_COLOR_77            0000000140037274     pjlib-x86_64-x64-vc14-release:log.obj
 0003:00001278       ?ltexts@?2??pj_log@@9@9    0000000140037278     pjlib-x86_64-x64-vc14-release:log.obj
 0003:000012b0       ?wdays@?3??pj_log@@9@9     00000001400372b0     pjlib-x86_64-x64-vc14-release:log.obj
 0003:00001308       mutex_lock_template        0000000140037308     pjlib-x86_64-x64-vc14-release:lock.obj
 0003:00001330       null_lock_template         0000000140037330     pjlib-x86_64-x64-vc14-release:lock.obj
 0003:00001358       sem_lock_template          0000000140037358     pjlib-x86_64-x64-vc14-release:lock.obj
 0003:00001380       thread_local_id            0000000140037380     pjlib-x86_64-x64-vc14-release:except.obj
 0003:00001388       ?hex@?1??hex2digit@@9@9    0000000140037388     pjlib-x86_64-x64-vc14-release:guid_win32.obj
 0003:00001398       tls                        0000000140037398     pjlib-x86_64-x64-vc14-release:pool_buf.obj
 0003:000013a8       id                         00000001400373a8     pjlib-x86_64-x64-vc14-release:config.obj
 0003:00001400       global                     0000000140037400     stateless_proxy.obj
 0003:00001940       status_phrase              0000000140037940     pjsip-core-x86_64-x64-vc14-release:sip_msg.obj
 0003:000045a0       ?is_initialized@?1??pjsip_get_status_text@@9@9 000000014003a5a0     pjsip-core-x86_64-x64-vc14-release:sip_msg.obj
 0003:000045b0       handler                    000000014003a5b0     pjsip-core-x86_64-x64-vc14-release:sip_parser.obj
 0003:000060b0       handler_count              000000014003c0b0     pjsip-core-x86_64-x64-vc14-release:sip_parser.obj
 0003:000060b4       parser_is_initialized      000000014003c0b4     pjsip-core-x86_64-x64-vc14-release:sip_parser.obj
 0003:000060b8       uri_handler_count          000000014003c0b8     pjsip-core-x86_64-x64-vc14-release:sip_parser.obj
 0003:000060c0       uri_handler                000000014003c0c0     pjsip-core-x86_64-x64-vc14-release:sip_parser.obj
 0003:00006120       cis_buf                    000000014003c120     pjsip-core-x86_64-x64-vc14-release:sip_parser.obj
 0003:00006530       pjsip_TEL_NUMBER_SPEC      000000014003c530     pjsip-core-x86_64-x64-vc14-release:sip_tel_uri.obj
 0003:00006540       pjsip_TEL_EXT_VALUE_SPEC   000000014003c540     pjsip-core-x86_64-x64-vc14-release:sip_tel_uri.obj
 0003:00006550       pjsip_TEL_PHONE_CONTEXT_SPEC 000000014003c550     pjsip-core-x86_64-x64-vc14-release:sip_tel_uri.obj
 0003:00006560       pjsip_TEL_URIC_SPEC        000000014003c560     pjsip-core-x86_64-x64-vc14-release:sip_tel_uri.obj
 0003:00006570       pjsip_TEL_PNAME_SPEC       000000014003c570     pjsip-core-x86_64-x64-vc14-release:sip_tel_uri.obj
 0003:00006580       pjsip_TEL_PVALUE_SPEC      000000014003c580     pjsip-core-x86_64-x64-vc14-release:sip_tel_uri.obj
 0003:00006590       cis_buf                    000000014003c590     pjsip-core-x86_64-x64-vc14-release:sip_tel_uri.obj
 0003:00006998       pjsip_TEL_VISUAL_SEP_SPEC  000000014003c998     pjsip-core-x86_64-x64-vc14-release:sip_tel_uri.obj
 0003:000069a8       pjsip_TEL_PVALUE_SPEC_ESC  000000014003c9a8     pjsip-core-x86_64-x64-vc14-release:sip_tel_uri.obj
 0003:000069b8       pjsip_TEL_PARSING_PVALUE_SPEC 000000014003c9b8     pjsip-core-x86_64-x64-vc14-release:sip_tel_uri.obj
 0003:000069c8       pjsip_TEL_PARSING_PVALUE_SPEC_ESC 000000014003c9c8     pjsip-core-x86_64-x64-vc14-release:sip_tel_uri.obj
 0003:000069e0       __getopt_initialized       000000014003c9e0     pjlib-util-x86_64-x64-vc14-release:getopt.obj
 0003:000069e4       ordering                   000000014003c9e4     pjlib-util-x86_64-x64-vc14-release:getopt.obj
 0003:000069e8       nextchar                   000000014003c9e8     pjlib-util-x86_64-x64-vc14-release:getopt.obj
 0003:000069f0       posixly_correct            000000014003c9f0     pjlib-util-x86_64-x64-vc14-release:getopt.obj
 0003:000069f8       first_nonopt               000000014003c9f8     pjlib-util-x86_64-x64-vc14-release:getopt.obj
 0003:000069fc       last_nonopt                000000014003c9fc     pjlib-util-x86_64-x64-vc14-release:getopt.obj
 0003:00006a00       initialized                000000014003ca00     pjlib-x86_64-x64-vc14-release:os_core_win32.obj
 0003:00006a04       atexit_count               000000014003ca04     pjlib-x86_64-x64-vc14-release:os_core_win32.obj
 0003:00006a10       main_thread                000000014003ca10     pjlib-x86_64-x64-vc14-release:os_core_win32.obj
 0003:00006b10       critical_section_mutex     000000014003cb10     pjlib-x86_64-x64-vc14-release:os_core_win32.obj
 0003:00006b60       atexit_func                000000014003cb60     pjlib-x86_64-x64-vc14-release:os_core_win32.obj
 0003:00006c60       err_msg_hnd_cnt            000000014003cc60     pjlib-x86_64-x64-vc14-release:errno.obj
 0003:00006c70       err_msg_hnd                000000014003cc70     pjlib-x86_64-x64-vc14-release:errno.obj
 0003:00006d10       ?buf@?1??pj_gethostname@@9@9 000000014003cd10     pjlib-x86_64-x64-vc14-release:sock_bsd.obj
 0003:00006d90       ?hostname@?1??pj_gethostname@@9@9 000000014003cd90     pjlib-x86_64-x64-vc14-release:sock_bsd.obj
 0003:00006da0       g_last_thread              000000014003cda0     pjlib-x86_64-x64-vc14-release:log.obj
 0003:00006da8       s_hDLL                     000000014003cda8     pjlib-x86_64-x64-vc14-release:ip_helper_win32.obj
 0003:00006db0       s_pfnGetIpAddrTable        000000014003cdb0     pjlib-x86_64-x64-vc14-release:ip_helper_win32.obj
 0003:00006db8       s_pfnGetAdapterAddresses   000000014003cdb8     pjlib-x86_64-x64-vc14-release:ip_helper_win32.obj
 0003:00006dc0       s_pfnGetIpForwardTable     000000014003cdc0     pjlib-x86_64-x64-vc14-release:ip_helper_win32.obj
 0003:00006dc8       s_pfnGetIfEntry            000000014003cdc8     pjlib-x86_64-x64-vc14-release:ip_helper_win32.obj
 0003:00006dd0       exception_id_names         000000014003cdd0     pjlib-x86_64-x64-vc14-release:except.obj
 0003:00006e50       ?unknown_name@?1??pj_exception_id_name@@9@9 000000014003ce50     pjlib-x86_64-x64-vc14-release:except.obj
 0003:00006e70       base_time                  000000014003ce70     pjlib-x86_64-x64-vc14-release:os_time_win32.obj
 0003:00006e80       stack_based_factory        000000014003ce80     pjlib-x86_64-x64-vc14-release:pool_buf.obj
 0003:00006ec8       is_initialized             000000014003cec8     pjlib-x86_64-x64-vc14-release:pool_buf.obj
 0003:00006ed0       GS_ExceptionRecord         000000014003ced0     MSVCRT:gs_report.obj
 0003:00006f70       GS_ContextRecord           000000014003cf70     MSVCRT:gs_report.obj
 0003:00007458       ?is_initialized_as_dll@@3_NA 000000014003d458     MSVCRT:utility.obj
 0003:00007459       ?module_local_atexit_table_initialized@@3_NA 000000014003d459     MSVCRT:utility.obj
 0003:00007460       ?module_local_atexit_table@@3U_onexit_table_t@@A 000000014003d460     MSVCRT:utility.obj
 0003:00007478       ?module_local_at_quick_exit_table@@3U_onexit_table_t@@A 000000014003d478     MSVCRT:utility.obj
