 confsample

 Timestamp is 60aeb742 (Wed May 26 23:01:54 2021)

 Preferred load address is 0000000140000000

 Start         Length     Name                   Class
 0001:00000000 000812a0H .text$mn                CODE
 0001:000812a0 00001040H .text$mn$00             CODE
 0001:000822e0 0000108dH .text$x                 CODE
 0002:00000000 00000110H .CRT$XCA                DATA
 0002:00000110 00000110H .CRT$XCAA               DATA
 0002:00000220 00000110H .CRT$XCZ                DATA
 0002:00000330 00000110H .CRT$XIA                DATA
 0002:00000440 00000110H .CRT$XIAA               DATA
 0002:00000550 00000110H .CRT$XIAC               DATA
 0002:00000660 00000110H .CRT$XIZ                DATA
 0002:00000770 00000110H .CRT$XPA                DATA
 0002:00000880 00000110H .CRT$XPZ                DATA
 0002:00000990 00000110H .CRT$XTA                DATA
 0002:00000aa0 00000110H .CRT$XTZ                DATA
 0002:00000bb0 0001aa50H .rdata                  DATA
 0002:0001b600 00000110H .rdata$CastGuardVftablesA DATA
 0002:0001b710 0000010cH .rdata$CastGuardVftablesC DATA
 0002:0001b81c 00000204H .rdata$zzzdbg           DATA
 0002:0001ba20 00000110H .rtc$IAA                DATA
 0002:0001bb30 00000110H .rtc$IZZ                DATA
 0002:0001bc40 00000110H .rtc$TAA                DATA
 0002:0001bd50 00000110H .rtc$TZZ                DATA
 0002:0001be60 000030bbH .xdata                  DATA
 0002:0001ef1b 00000000H .edata                  DATA
 0003:00000000 00038780H .data                   DATA
 0003:00038780 00002879H .bss                    DATA
 0004:00000000 00003fc0H .pdata                  DATA
 0005:00000000 00000948H .idata$5                DATA
 0005:00000948 00000078H .idata$2                DATA
 0005:000009c0 00000018H .idata$3                DATA
 0005:000009d8 00000948H .idata$4                DATA
 0005:00001320 00000d85H .idata$6                DATA
 0006:00000000 00000151H .00cfg                  DATA

  Address         Publics by Value              Rva+Base               Lib:Object

 0000:00000000       __guard_iat_count          0000000000000000     <absolute>
 0000:00000000       __AbsoluteZero             0000000000000000     <absolute>
 0000:00000000       __guard_fids_count         0000000000000000     <absolute>
 0000:00000000       ___safe_se_handler_count   0000000000000000     <absolute>
 0000:00000000       __enclave_config           0000000000000000     <absolute>
 0000:00000000       __arm64x_redirection_metadata_count 0000000000000000     <absolute>
 0000:00000000       ___safe_se_handler_table   0000000000000000     <absolute>
 0000:00000000       __guard_eh_cont_table      0000000000000000     <absolute>
 0000:00000000       __hybrid_auxiliary_iat     0000000000000000     <absolute>
 0000:00000000       __x64_code_ranges_to_entry_points_count 0000000000000000     <absolute>
 0000:00000000       __arm64x_extra_rfe_table_size 0000000000000000     <absolute>
 0000:00000000       __volatile_metadata        0000000000000000     <absolute>
 0000:00000000       __guard_iat_table          0000000000000000     <absolute>
 0000:00000000       __guard_longjmp_table      0000000000000000     <absolute>
 0000:00000000       __arm64x_native_entrypoint 0000000000000000     <absolute>
 0000:00000000       __arm64x_redirection_metadata 0000000000000000     <absolute>
 0000:00000000       __arm64x_extra_rfe_table   0000000000000000     <absolute>
 0000:00000000       __guard_eh_cont_count      0000000000000000     <absolute>
 0000:00000000       __guard_check_icall_a64n_fptr 0000000000000000     <absolute>
 0000:00000000       __hybrid_code_map_count    0000000000000000     <absolute>
 0000:00000000       __x64_code_ranges_to_entry_points 0000000000000000     <absolute>
 0000:00000000       __dynamic_value_reloc_table 0000000000000000     <absolute>
 0000:00000000       __guard_longjmp_count      0000000000000000     <absolute>
 0000:00000000       __hybrid_code_map          0000000000000000     <absolute>
 0000:00000000       __hybrid_auxiliary_iat_copy 0000000000000000     <absolute>
 0000:00000000       __guard_fids_table         0000000000000000     <absolute>
 0000:00000100       __guard_flags              0000000000000100     <absolute>
 0000:00000000       __ImageBase                0000000140000000     <linker-defined>
 0001:000023f0       get_snd_options            00000001400033f0 f   confsample.obj
 0001:00002860       dump_pool_usage            0000000140003860 f   confsample.obj
 0001:00002f20       main                       0000000140003f20 f   confsample.obj
 0001:00004340       __local_stdio_printf_options 0000000140005340 f i confsample.obj
 0001:00004350       _vfprintf_l                0000000140005350 f i confsample.obj
 0001:000043b0       _vsnprintf_l               00000001400053b0 f i confsample.obj
 0001:00004450       _vsprintf_l                0000000140005450 f i confsample.obj
 0001:000044b0       printf                     00000001400054b0 f i confsample.obj
 0001:00004520       sprintf                    0000000140005520 f i confsample.obj
 0001:00004590       pjmedia_aud_subsys_init    0000000140005590 f   pjmedia-audiodev-x86_64-x64-vc14-debug-dynamic:audiodev.obj
 0001:000046e0       pjmedia_aud_subsys_get_pool_factory 00000001400056e0 f   pjmedia-audiodev-x86_64-x64-vc14-debug-dynamic:audiodev.obj
 0001:00004710       pjmedia_aud_subsys_shutdown 0000000140005710 f   pjmedia-audiodev-x86_64-x64-vc14-debug-dynamic:audiodev.obj
 0001:00004790       pjmedia_aud_register_factory 0000000140005790 f   pjmedia-audiodev-x86_64-x64-vc14-debug-dynamic:audiodev.obj
 0001:00004820       pjmedia_aud_unregister_factory 0000000140005820 f   pjmedia-audiodev-x86_64-x64-vc14-debug-dynamic:audiodev.obj
 0001:000049d0       pjmedia_audiodev_strerror  00000001400059d0 f   pjmedia-audiodev-x86_64-x64-vc14-debug-dynamic:errno.obj
 0001:00004e10       _snprintf                  0000000140005e10 f i pjmedia-audiodev-x86_64-x64-vc14-debug-dynamic:errno.obj
 0001:00004e80       _vsnprintf                 0000000140005e80 f i pjmedia-audiodev-x86_64-x64-vc14-debug-dynamic:errno.obj
 0001:000067a0       pjmedia_wmme_factory       00000001400077a0 f   pjmedia-audiodev-x86_64-x64-vc14-debug-dynamic:wmme_dev.obj
 0001:00008d40       pjmedia_port_info_init     0000000140009d40 f   pjmedia-x86_64-x64-vc14-debug-dynamic:port.obj
 0001:00008e90       pjmedia_port_info_init2    0000000140009e90 f   pjmedia-x86_64-x64-vc14-debug-dynamic:port.obj
 0001:00008f10       pjmedia_port_get_clock_src 0000000140009f10 f   pjmedia-x86_64-x64-vc14-debug-dynamic:port.obj
 0001:00008f60       pjmedia_port_get_frame     0000000140009f60 f   pjmedia-x86_64-x64-vc14-debug-dynamic:port.obj
 0001:00009000       pjmedia_port_put_frame     000000014000a000 f   pjmedia-x86_64-x64-vc14-debug-dynamic:port.obj
 0001:00009090       pjmedia_port_destroy       000000014000a090 f   pjmedia-x86_64-x64-vc14-debug-dynamic:port.obj
 0001:00009490       pjmedia_conf_create        000000014000a490 f   pjmedia-x86_64-x64-vc14-debug-dynamic:conference.obj
 0001:00009800       pjmedia_conf_destroy       000000014000a800 f   pjmedia-x86_64-x64-vc14-debug-dynamic:conference.obj
 0001:00009980       pjmedia_conf_get_master_port 000000014000a980 f   pjmedia-x86_64-x64-vc14-debug-dynamic:conference.obj
 0001:00009a20       pjmedia_conf_set_port0_name 000000014000aa20 f   pjmedia-x86_64-x64-vc14-debug-dynamic:conference.obj
 0001:00009b50       pjmedia_conf_add_port      000000014000ab50 f   pjmedia-x86_64-x64-vc14-debug-dynamic:conference.obj
 0001:00009da0       pjmedia_conf_configure_port 000000014000ada0 f   pjmedia-x86_64-x64-vc14-debug-dynamic:conference.obj
 0001:00009eb0       pjmedia_conf_connect_port  000000014000aeb0 f   pjmedia-x86_64-x64-vc14-debug-dynamic:conference.obj
 0001:0000a160       pjmedia_conf_disconnect_port 000000014000b160 f   pjmedia-x86_64-x64-vc14-debug-dynamic:conference.obj
 0001:0000a430       pjmedia_conf_get_port_count 000000014000b430 f   pjmedia-x86_64-x64-vc14-debug-dynamic:conference.obj
 0001:0000a450       pjmedia_conf_get_connect_count 000000014000b450 f   pjmedia-x86_64-x64-vc14-debug-dynamic:conference.obj
 0001:0000a470       pjmedia_conf_remove_port   000000014000b470 f   pjmedia-x86_64-x64-vc14-debug-dynamic:conference.obj
 0001:0000a7d0       pjmedia_conf_enum_ports    000000014000b7d0 f   pjmedia-x86_64-x64-vc14-debug-dynamic:conference.obj
 0001:0000a8e0       pjmedia_conf_get_port_info 000000014000b8e0 f   pjmedia-x86_64-x64-vc14-debug-dynamic:conference.obj
 0001:0000aa90       pjmedia_conf_get_ports_info 000000014000ba90 f   pjmedia-x86_64-x64-vc14-debug-dynamic:conference.obj
 0001:0000abb0       pjmedia_conf_get_signal_level 000000014000bbb0 f   pjmedia-x86_64-x64-vc14-debug-dynamic:conference.obj
 0001:0000acb0       pjmedia_conf_adjust_rx_level 000000014000bcb0 f   pjmedia-x86_64-x64-vc14-debug-dynamic:conference.obj
 0001:0000adc0       pjmedia_conf_adjust_tx_level 000000014000bdc0 f   pjmedia-x86_64-x64-vc14-debug-dynamic:conference.obj
 0001:0000aed0       pjmedia_conf_adjust_conn_level 000000014000bed0 f   pjmedia-x86_64-x64-vc14-debug-dynamic:conference.obj
 0001:0000e910       pjmedia_endpt_create2      000000014000f910 f   pjmedia-x86_64-x64-vc14-debug-dynamic:endpoint.obj
 0001:0000ec90       pjmedia_endpt_destroy2     000000014000fc90 f   pjmedia-x86_64-x64-vc14-debug-dynamic:endpoint.obj
 0001:0000ed60       pjmedia_endpt_set_flag     000000014000fd60 f   pjmedia-x86_64-x64-vc14-debug-dynamic:endpoint.obj
 0001:0000edf0       pjmedia_endpt_get_flag     000000014000fdf0 f   pjmedia-x86_64-x64-vc14-debug-dynamic:endpoint.obj
 0001:0000ee80       pjmedia_endpt_get_ioqueue  000000014000fe80 f   pjmedia-x86_64-x64-vc14-debug-dynamic:endpoint.obj
 0001:0000eee0       pjmedia_endpt_get_thread_count 000000014000fee0 f   pjmedia-x86_64-x64-vc14-debug-dynamic:endpoint.obj
 0001:0000ef40       pjmedia_endpt_get_thread   000000014000ff40 f   pjmedia-x86_64-x64-vc14-debug-dynamic:endpoint.obj
 0001:0000eff0       pjmedia_endpt_stop_threads 000000014000fff0 f   pjmedia-x86_64-x64-vc14-debug-dynamic:endpoint.obj
 0001:0000f0d0       pjmedia_endpt_create_pool  00000001400100d0 f   pjmedia-x86_64-x64-vc14-debug-dynamic:endpoint.obj
 0001:0000f140       pjmedia_endpt_get_codec_mgr 0000000140010140 f   pjmedia-x86_64-x64-vc14-debug-dynamic:endpoint.obj
 0001:0000f160       pjmedia_endpt_create_sdp   0000000140010160 f   pjmedia-x86_64-x64-vc14-debug-dynamic:endpoint.obj
 0001:0000f310       pjmedia_endpt_create_base_sdp 0000000140010310 f   pjmedia-x86_64-x64-vc14-debug-dynamic:endpoint.obj
 0001:0000f5a0       pjmedia_endpt_create_audio_sdp 00000001400105a0 f   pjmedia-x86_64-x64-vc14-debug-dynamic:endpoint.obj
 0001:000101b0       pjmedia_endpt_dump         00000001400111b0 f   pjmedia-x86_64-x64-vc14-debug-dynamic:endpoint.obj
 0001:000105d0       pjmedia_endpt_atexit       00000001400115d0 f   pjmedia-x86_64-x64-vc14-debug-dynamic:endpoint.obj
 0001:00011400       pjmedia_wav_player_port_create 0000000140012400 f   pjmedia-x86_64-x64-vc14-debug-dynamic:wav_player.obj
 0001:00011bf0       pjmedia_wav_player_get_info 0000000140012bf0 f   pjmedia-x86_64-x64-vc14-debug-dynamic:wav_player.obj
 0001:00011da0       pjmedia_wav_player_get_len 0000000140012da0 f   pjmedia-x86_64-x64-vc14-debug-dynamic:wav_player.obj
 0001:00011e70       pjmedia_wav_player_port_set_pos 0000000140012e70 f   pjmedia-x86_64-x64-vc14-debug-dynamic:wav_player.obj
 0001:00012010       pjmedia_wav_player_port_get_pos 0000000140013010 f   pjmedia-x86_64-x64-vc14-debug-dynamic:wav_player.obj
 0001:00012160       pjmedia_wav_player_set_eof_cb 0000000140013160 f   pjmedia-x86_64-x64-vc14-debug-dynamic:wav_player.obj
 0001:00012250       pjmedia_wav_player_set_eof_cb2 0000000140013250 f   pjmedia-x86_64-x64-vc14-debug-dynamic:wav_player.obj
 0001:000137c0       pjmedia_wav_writer_port_create 00000001400147c0 f   pjmedia-x86_64-x64-vc14-debug-dynamic:wav_writer.obj
 0001:00013e00       pjmedia_wav_writer_port_get_pos 0000000140014e00 f   pjmedia-x86_64-x64-vc14-debug-dynamic:wav_writer.obj
 0001:00013eb0       pjmedia_wav_writer_port_set_cb 0000000140014eb0 f   pjmedia-x86_64-x64-vc14-debug-dynamic:wav_writer.obj
 0001:00013fd0       pjmedia_wav_writer_port_set_cb2 0000000140014fd0 f   pjmedia-x86_64-x64-vc14-debug-dynamic:wav_writer.obj
 0001:00014d80       pjmedia_get_aud_subsys     0000000140015d80 f   pjmedia-x86_64-x64-vc14-debug-dynamic:audiodev.obj
 0001:00014d90       pjmedia_aud_driver_init    0000000140015d90 f   pjmedia-x86_64-x64-vc14-debug-dynamic:audiodev.obj
 0001:000150f0       pjmedia_aud_driver_deinit  00000001400160f0 f   pjmedia-x86_64-x64-vc14-debug-dynamic:audiodev.obj
 0001:00015190       pjmedia_aud_dev_cap_name   0000000140016190 f   pjmedia-x86_64-x64-vc14-debug-dynamic:audiodev.obj
 0001:00015250       pjmedia_aud_param_set_cap  0000000140016250 f   pjmedia-x86_64-x64-vc14-debug-dynamic:audiodev.obj
 0001:000152d0       pjmedia_aud_param_get_cap  00000001400162d0 f   pjmedia-x86_64-x64-vc14-debug-dynamic:audiodev.obj
 0001:00015360       pjmedia_aud_dev_refresh    0000000140016360 f   pjmedia-x86_64-x64-vc14-debug-dynamic:audiodev.obj
 0001:00015440       pjmedia_aud_dev_count      0000000140016440 f   pjmedia-x86_64-x64-vc14-debug-dynamic:audiodev.obj
 0001:00015450       pjmedia_aud_dev_get_info   0000000140016450 f   pjmedia-x86_64-x64-vc14-debug-dynamic:audiodev.obj
 0001:00015530       pjmedia_aud_dev_lookup     0000000140016530 f   pjmedia-x86_64-x64-vc14-debug-dynamic:audiodev.obj
 0001:00015760       pjmedia_aud_dev_default_param 0000000140016760 f   pjmedia-x86_64-x64-vc14-debug-dynamic:audiodev.obj
 0001:00015890       pjmedia_aud_stream_create  0000000140016890 f   pjmedia-x86_64-x64-vc14-debug-dynamic:audiodev.obj
 0001:00015be0       pjmedia_aud_stream_get_param 0000000140016be0 f   pjmedia-x86_64-x64-vc14-debug-dynamic:audiodev.obj
 0001:00015ce0       pjmedia_aud_stream_get_cap 0000000140016ce0 f   pjmedia-x86_64-x64-vc14-debug-dynamic:audiodev.obj
 0001:00015d20       pjmedia_aud_stream_set_cap 0000000140016d20 f   pjmedia-x86_64-x64-vc14-debug-dynamic:audiodev.obj
 0001:00015d60       pjmedia_aud_stream_start   0000000140016d60 f   pjmedia-x86_64-x64-vc14-debug-dynamic:audiodev.obj
 0001:00015d90       pjmedia_aud_stream_stop    0000000140016d90 f   pjmedia-x86_64-x64-vc14-debug-dynamic:audiodev.obj
 0001:00015dc0       pjmedia_aud_stream_destroy 0000000140016dc0 f   pjmedia-x86_64-x64-vc14-debug-dynamic:audiodev.obj
 0001:00016950       pjmedia_event_mgr_create   0000000140017950 f   pjmedia-x86_64-x64-vc14-debug-dynamic:event.obj
 0001:00016af0       pjmedia_event_mgr_instance 0000000140017af0 f   pjmedia-x86_64-x64-vc14-debug-dynamic:event.obj
 0001:00016b00       pjmedia_event_mgr_set_instance 0000000140017b00 f   pjmedia-x86_64-x64-vc14-debug-dynamic:event.obj
 0001:00016b20       pjmedia_event_mgr_destroy  0000000140017b20 f   pjmedia-x86_64-x64-vc14-debug-dynamic:event.obj
 0001:00016c30       pjmedia_event_init         0000000140017c30 f   pjmedia-x86_64-x64-vc14-debug-dynamic:event.obj
 0001:00016cb0       pjmedia_event_subscribe    0000000140017cb0 f   pjmedia-x86_64-x64-vc14-debug-dynamic:event.obj
 0001:00016e90       pjmedia_event_unsubscribe  0000000140017e90 f   pjmedia-x86_64-x64-vc14-debug-dynamic:event.obj
 0001:00017070       pjmedia_event_publish      0000000140018070 f   pjmedia-x86_64-x64-vc14-debug-dynamic:event.obj
 0001:000179a0       pjmedia_format_copy        00000001400189a0 f   pjmedia-x86_64-x64-vc14-debug-dynamic:format.obj
 0001:000179d0       pjmedia_format_get_audio_format_detail 00000001400189d0 f   pjmedia-x86_64-x64-vc14-debug-dynamic:format.obj
 0001:00017aa0       pjmedia_delay_buf_create   0000000140018aa0 f   pjmedia-x86_64-x64-vc14-debug-dynamic:delaybuf.obj
 0001:00017d40       pjmedia_delay_buf_put      0000000140018d40 f   pjmedia-x86_64-x64-vc14-debug-dynamic:delaybuf.obj
 0001:00017f50       pjmedia_delay_buf_get      0000000140018f50 f   pjmedia-x86_64-x64-vc14-debug-dynamic:delaybuf.obj
 0001:00018180       pjmedia_delay_buf_reset    0000000140019180 f   pjmedia-x86_64-x64-vc14-debug-dynamic:delaybuf.obj
 0001:00018250       pjmedia_delay_buf_destroy  0000000140019250 f   pjmedia-x86_64-x64-vc14-debug-dynamic:delaybuf.obj
 0001:00019290       pjmedia_resample_create    000000014001a290 f   pjmedia-x86_64-x64-vc14-debug-dynamic:resample_resample.obj
 0001:00019750       pjmedia_resample_run       000000014001a750 f   pjmedia-x86_64-x64-vc14-debug-dynamic:resample_resample.obj
 0001:00019b20       pjmedia_resample_get_input_size 000000014001ab20 f   pjmedia-x86_64-x64-vc14-debug-dynamic:resample_resample.obj
 0001:00019b80       pjmedia_resample_destroy   000000014001ab80 f   pjmedia-x86_64-x64-vc14-debug-dynamic:resample_resample.obj
 0001:00019f00       pjmedia_snd_port_param_default 000000014001af00 f   pjmedia-x86_64-x64-vc14-debug-dynamic:sound_port.obj
 0001:00019f30       pjmedia_snd_port_create    000000014001af30 f   pjmedia-x86_64-x64-vc14-debug-dynamic:sound_port.obj
 0001:0001a050       pjmedia_snd_port_create_rec 000000014001b050 f   pjmedia-x86_64-x64-vc14-debug-dynamic:sound_port.obj
 0001:0001a150       pjmedia_snd_port_create_player 000000014001b150 f   pjmedia-x86_64-x64-vc14-debug-dynamic:sound_port.obj
 0001:0001a250       pjmedia_snd_port_create2   000000014001b250 f   pjmedia-x86_64-x64-vc14-debug-dynamic:sound_port.obj
 0001:0001a4e0       pjmedia_snd_port_destroy   000000014001b4e0 f   pjmedia-x86_64-x64-vc14-debug-dynamic:sound_port.obj
 0001:0001a540       pjmedia_snd_port_get_snd_stream 000000014001b540 f   pjmedia-x86_64-x64-vc14-debug-dynamic:sound_port.obj
 0001:0001a5a0       pjmedia_snd_port_set_ec    000000014001b5a0 f   pjmedia-x86_64-x64-vc14-debug-dynamic:sound_port.obj
 0001:0001a9a0       pjmedia_snd_port_get_ec_tail 000000014001b9a0 f   pjmedia-x86_64-x64-vc14-debug-dynamic:sound_port.obj
 0001:0001aae0       pjmedia_snd_port_get_ec_stat 000000014001bae0 f   pjmedia-x86_64-x64-vc14-debug-dynamic:sound_port.obj
 0001:0001ab70       pjmedia_snd_port_get_clock_src 000000014001bb70 f   pjmedia-x86_64-x64-vc14-debug-dynamic:sound_port.obj
 0001:0001abc0       pjmedia_snd_port_connect   000000014001bbc0 f   pjmedia-x86_64-x64-vc14-debug-dynamic:sound_port.obj
 0001:0001acd0       pjmedia_snd_port_get_port  000000014001bcd0 f   pjmedia-x86_64-x64-vc14-debug-dynamic:sound_port.obj
 0001:0001ad30       pjmedia_snd_port_disconnect 000000014001bd30 f   pjmedia-x86_64-x64-vc14-debug-dynamic:sound_port.obj
 0001:0001bcc0       pjmedia_sdp_attr_create    000000014001ccc0 f   pjmedia-x86_64-x64-vc14-debug-dynamic:sdp.obj
 0001:0001bda0       pjmedia_sdp_attr_clone     000000014001cda0 f   pjmedia-x86_64-x64-vc14-debug-dynamic:sdp.obj
 0001:0001be60       pjmedia_sdp_attr_find      000000014001ce60 f   pjmedia-x86_64-x64-vc14-debug-dynamic:sdp.obj
 0001:0001bf70       pjmedia_sdp_attr_find2     000000014001cf70 f   pjmedia-x86_64-x64-vc14-debug-dynamic:sdp.obj
 0001:0001bfd0       pjmedia_sdp_attr_add       000000014001cfd0 f   pjmedia-x86_64-x64-vc14-debug-dynamic:sdp.obj
 0001:0001c0b0       pjmedia_sdp_attr_remove_all 000000014001d0b0 f   pjmedia-x86_64-x64-vc14-debug-dynamic:sdp.obj
 0001:0001c210       pjmedia_sdp_attr_remove    000000014001d210 f   pjmedia-x86_64-x64-vc14-debug-dynamic:sdp.obj
 0001:0001c360       pjmedia_sdp_attr_to_rtpmap 000000014001d360 f   pjmedia-x86_64-x64-vc14-debug-dynamic:sdp.obj
 0001:0001c440       pjmedia_sdp_attr_get_rtpmap 000000014001d440 f   pjmedia-x86_64-x64-vc14-debug-dynamic:sdp.obj
 0001:0001c7c0       pjmedia_sdp_rtpmap_to_attr 000000014001d7c0 f   pjmedia-x86_64-x64-vc14-debug-dynamic:sdp.obj
 0001:0001ca90       pjmedia_sdp_attr_get_fmtp  000000014001da90 f   pjmedia-x86_64-x64-vc14-debug-dynamic:sdp.obj
 0001:0001cc00       pjmedia_sdp_attr_get_rtcp  000000014001dc00 f   pjmedia-x86_64-x64-vc14-debug-dynamic:sdp.obj
 0001:0001ce30       pjmedia_sdp_attr_create_rtcp 000000014001de30 f   pjmedia-x86_64-x64-vc14-debug-dynamic:sdp.obj
 0001:0001cff0       pjmedia_sdp_attr_get_ssrc  000000014001dff0 f   pjmedia-x86_64-x64-vc14-debug-dynamic:sdp.obj
 0001:0001d210       pjmedia_sdp_attr_create_ssrc 000000014001e210 f   pjmedia-x86_64-x64-vc14-debug-dynamic:sdp.obj
 0001:0001d300       pjmedia_sdp_conn_clone     000000014001e300 f   pjmedia-x86_64-x64-vc14-debug-dynamic:sdp.obj
 0001:0001d3c0       pjmedia_sdp_bandw_clone    000000014001e3c0 f   pjmedia-x86_64-x64-vc14-debug-dynamic:sdp.obj
 0001:0001d440       pjmedia_sdp_media_clone    000000014001e440 f   pjmedia-x86_64-x64-vc14-debug-dynamic:sdp.obj
 0001:0001d780       pjmedia_sdp_media_find_attr 000000014001e780 f   pjmedia-x86_64-x64-vc14-debug-dynamic:sdp.obj
 0001:0001d810       pjmedia_sdp_media_find_attr2 000000014001e810 f   pjmedia-x86_64-x64-vc14-debug-dynamic:sdp.obj
 0001:0001d8a0       pjmedia_sdp_media_add_attr 000000014001e8a0 f   pjmedia-x86_64-x64-vc14-debug-dynamic:sdp.obj
 0001:0001d8e0       pjmedia_sdp_media_remove_all_attr 000000014001e8e0 f   pjmedia-x86_64-x64-vc14-debug-dynamic:sdp.obj
 0001:0001d920       pjmedia_sdp_media_remove_attr 000000014001e920 f   pjmedia-x86_64-x64-vc14-debug-dynamic:sdp.obj
 0001:0001d960       pjmedia_sdp_transport_cmp  000000014001e960 f   pjmedia-x86_64-x64-vc14-debug-dynamic:sdp.obj
 0001:0001d9e0       pjmedia_sdp_transport_get_proto 000000014001e9e0 f   pjmedia-x86_64-x64-vc14-debug-dynamic:sdp.obj
 0001:0001dba0       pjmedia_sdp_media_deactivate 000000014001eba0 f   pjmedia-x86_64-x64-vc14-debug-dynamic:sdp.obj
 0001:0001dc10       pjmedia_sdp_media_clone_deactivate 000000014001ec10 f   pjmedia-x86_64-x64-vc14-debug-dynamic:sdp.obj
 0001:0001de80       pjmedia_sdp_parse          000000014001ee80 f   pjmedia-x86_64-x64-vc14-debug-dynamic:sdp.obj
 0001:0001e500       pjmedia_sdp_print          000000014001f500 f   pjmedia-x86_64-x64-vc14-debug-dynamic:sdp.obj
 0001:0001e540       pjmedia_sdp_validate       000000014001f540 f   pjmedia-x86_64-x64-vc14-debug-dynamic:sdp.obj
 0001:0001e570       pjmedia_sdp_validate2      000000014001f570 f   pjmedia-x86_64-x64-vc14-debug-dynamic:sdp.obj
 0001:0001e8b0       pjmedia_sdp_session_clone  000000014001f8b0 f   pjmedia-x86_64-x64-vc14-debug-dynamic:sdp.obj
 0001:0001ebf0       pjmedia_sdp_session_add_attr 000000014001fbf0 f   pjmedia-x86_64-x64-vc14-debug-dynamic:sdp.obj
 0001:000219f0       pjmedia_codec_param_clone  00000001400229f0 f   pjmedia-x86_64-x64-vc14-debug-dynamic:codec.obj
 0001:00021bb0       pjmedia_codec_mgr_init     0000000140022bb0 f   pjmedia-x86_64-x64-vc14-debug-dynamic:codec.obj
 0001:00021cc0       pjmedia_codec_mgr_destroy  0000000140022cc0 f   pjmedia-x86_64-x64-vc14-debug-dynamic:codec.obj
 0001:00021e30       pjmedia_codec_mgr_register_factory 0000000140022e30 f   pjmedia-x86_64-x64-vc14-debug-dynamic:codec.obj
 0001:000220f0       pjmedia_codec_mgr_unregister_factory 00000001400230f0 f   pjmedia-x86_64-x64-vc14-debug-dynamic:codec.obj
 0001:000222a0       pjmedia_codec_mgr_enum_codecs 00000001400232a0 f   pjmedia-x86_64-x64-vc14-debug-dynamic:codec.obj
 0001:00022400       pjmedia_codec_mgr_get_codec_info 0000000140023400 f   pjmedia-x86_64-x64-vc14-debug-dynamic:codec.obj
 0001:00022510       pjmedia_codec_info_to_id   0000000140023510 f   pjmedia-x86_64-x64-vc14-debug-dynamic:codec.obj
 0001:00022600       pjmedia_codec_mgr_find_codecs_by_id 0000000140023600 f   pjmedia-x86_64-x64-vc14-debug-dynamic:codec.obj
 0001:000227b0       pjmedia_codec_mgr_set_codec_priority 00000001400237b0 f   pjmedia-x86_64-x64-vc14-debug-dynamic:codec.obj
 0001:000228f0       pjmedia_codec_mgr_get_default_param 00000001400238f0 f   pjmedia-x86_64-x64-vc14-debug-dynamic:codec.obj
 0001:00022ba0       pjmedia_codec_mgr_set_default_param 0000000140023ba0 f   pjmedia-x86_64-x64-vc14-debug-dynamic:codec.obj
 0001:00022e60       pjmedia_codec_mgr_alloc_codec 0000000140023e60 f   pjmedia-x86_64-x64-vc14-debug-dynamic:codec.obj
 0001:00022f90       pjmedia_codec_mgr_dealloc_codec 0000000140023f90 f   pjmedia-x86_64-x64-vc14-debug-dynamic:codec.obj
 0001:00023850       pjmedia_strerror           0000000140024850 f   pjmedia-x86_64-x64-vc14-debug-dynamic:errno.obj
 0001:00023bc0       pjmedia_wave_hdr_file_to_host 0000000140024bc0 f   pjmedia-x86_64-x64-vc14-debug-dynamic:wave.obj
 0001:00023be0       pjmedia_wave_hdr_host_to_file 0000000140024be0 f   pjmedia-x86_64-x64-vc14-debug-dynamic:wave.obj
 0001:00023c20       pjmedia_wsola_create       0000000140024c20 f   pjmedia-x86_64-x64-vc14-debug-dynamic:wsola.obj
 0001:00024030       pjmedia_wsola_set_max_expand 0000000140025030 f   pjmedia-x86_64-x64-vc14-debug-dynamic:wsola.obj
 0001:000240b0       pjmedia_wsola_destroy      00000001400250b0 f   pjmedia-x86_64-x64-vc14-debug-dynamic:wsola.obj
 0001:000240c0       pjmedia_wsola_reset        00000001400250c0 f   pjmedia-x86_64-x64-vc14-debug-dynamic:wsola.obj
 0001:00024190       pjmedia_wsola_save         0000000140025190 f   pjmedia-x86_64-x64-vc14-debug-dynamic:wsola.obj
 0001:000247c0       pjmedia_wsola_generate     00000001400257c0 f   pjmedia-x86_64-x64-vc14-debug-dynamic:wsola.obj
 0001:000248e0       pjmedia_wsola_discard      00000001400258e0 f   pjmedia-x86_64-x64-vc14-debug-dynamic:wsola.obj
 0001:00026d10       pjmedia_clock_src_init     0000000140027d10 f   pjmedia-x86_64-x64-vc14-debug-dynamic:clock_thread.obj
 0001:00026dc0       pjmedia_clock_src_update   0000000140027dc0 f   pjmedia-x86_64-x64-vc14-debug-dynamic:clock_thread.obj
 0001:00026e50       pjmedia_clock_src_get_current_timestamp 0000000140027e50 f   pjmedia-x86_64-x64-vc14-debug-dynamic:clock_thread.obj
 0001:00026f20       pjmedia_clock_src_get_time_msec 0000000140027f20 f   pjmedia-x86_64-x64-vc14-debug-dynamic:clock_thread.obj
 0001:00026fa0       pjmedia_clock_create       0000000140027fa0 f   pjmedia-x86_64-x64-vc14-debug-dynamic:clock_thread.obj
 0001:00027020       pjmedia_clock_create2      0000000140028020 f   pjmedia-x86_64-x64-vc14-debug-dynamic:clock_thread.obj
 0001:00027230       pjmedia_clock_start        0000000140028230 f   pjmedia-x86_64-x64-vc14-debug-dynamic:clock_thread.obj
 0001:00027360       pjmedia_clock_stop         0000000140028360 f   pjmedia-x86_64-x64-vc14-debug-dynamic:clock_thread.obj
 0001:00027420       pjmedia_clock_modify       0000000140028420 f   pjmedia-x86_64-x64-vc14-debug-dynamic:clock_thread.obj
 0001:00027480       pjmedia_clock_wait         0000000140028480 f   pjmedia-x86_64-x64-vc14-debug-dynamic:clock_thread.obj
 0001:00027630       pjmedia_clock_destroy      0000000140028630 f   pjmedia-x86_64-x64-vc14-debug-dynamic:clock_thread.obj
 0001:00027c80       pjmedia_echo_stat_default  0000000140028c80 f   pjmedia-x86_64-x64-vc14-debug-dynamic:echo_common.obj
 0001:00027d00       pjmedia_echo_create        0000000140028d00 f   pjmedia-x86_64-x64-vc14-debug-dynamic:echo_common.obj
 0001:00027d60       pjmedia_echo_create2       0000000140028d60 f   pjmedia-x86_64-x64-vc14-debug-dynamic:echo_common.obj
 0001:000281c0       pjmedia_echo_destroy       00000001400291c0 f   pjmedia-x86_64-x64-vc14-debug-dynamic:echo_common.obj
 0001:00028220       pjmedia_echo_reset         0000000140029220 f   pjmedia-x86_64-x64-vc14-debug-dynamic:echo_common.obj
 0001:000282c0       pjmedia_echo_get_stat      00000001400292c0 f   pjmedia-x86_64-x64-vc14-debug-dynamic:echo_common.obj
 0001:00028350       pjmedia_echo_playback      0000000140029350 f   pjmedia-x86_64-x64-vc14-debug-dynamic:echo_common.obj
 0001:00028490       pjmedia_echo_capture       0000000140029490 f   pjmedia-x86_64-x64-vc14-debug-dynamic:echo_common.obj
 0001:000285e0       pjmedia_echo_cancel        00000001400295e0 f   pjmedia-x86_64-x64-vc14-debug-dynamic:echo_common.obj
 0001:00028f20       pjmedia_srtp_init_lib      0000000140029f20 f   pjmedia-x86_64-x64-vc14-debug-dynamic:transport_srtp.obj
 0001:00028ff0       pjmedia_srtp_setting_default 0000000140029ff0 f   pjmedia-x86_64-x64-vc14-debug-dynamic:transport_srtp.obj
 0001:00029050       pjmedia_srtp_enum_crypto   000000014002a050 f   pjmedia-x86_64-x64-vc14-debug-dynamic:transport_srtp.obj
 0001:00029160       pjmedia_srtp_enum_keying   000000014002a160 f   pjmedia-x86_64-x64-vc14-debug-dynamic:transport_srtp.obj
 0001:00029210       pjmedia_transport_srtp_create 000000014002a210 f   pjmedia-x86_64-x64-vc14-debug-dynamic:transport_srtp.obj
 0001:00029770       pjmedia_transport_srtp_dtls_get_fingerprint 000000014002a770 f   pjmedia-x86_64-x64-vc14-debug-dynamic:transport_srtp.obj
 0001:00029790       pjmedia_transport_srtp_dtls_start_nego 000000014002a790 f   pjmedia-x86_64-x64-vc14-debug-dynamic:transport_srtp.obj
 0001:000297b0       pjmedia_transport_srtp_start 000000014002a7b0 f   pjmedia-x86_64-x64-vc14-debug-dynamic:transport_srtp.obj
 0001:0002a180       pjmedia_transport_srtp_stop 000000014002b180 f   pjmedia-x86_64-x64-vc14-debug-dynamic:transport_srtp.obj
 0001:0002a300       pjmedia_transport_srtp_decrypt_pkt 000000014002b300 f   pjmedia-x86_64-x64-vc14-debug-dynamic:transport_srtp.obj
 0001:0002a520       pjmedia_transport_srtp_get_member 000000014002b520 f   pjmedia-x86_64-x64-vc14-debug-dynamic:transport_srtp.obj
 0001:0002c3e0       get_libsrtp_errstr         000000014002d3e0 f   pjmedia-x86_64-x64-vc14-debug-dynamic:transport_srtp.obj
 0001:0002f0e0       echo_supp_create           00000001400300e0 f   pjmedia-x86_64-x64-vc14-debug-dynamic:echo_suppress.obj
 0001:0002f330       echo_supp_destroy          0000000140030330 f   pjmedia-x86_64-x64-vc14-debug-dynamic:echo_suppress.obj
 0001:0002f340       echo_supp_get_stat         0000000140030340 f   pjmedia-x86_64-x64-vc14-debug-dynamic:echo_suppress.obj
 0001:0002f570       echo_supp_reset            0000000140030570 f   pjmedia-x86_64-x64-vc14-debug-dynamic:echo_suppress.obj
 0001:0002f6f0       echo_supp_cancel_echo      00000001400306f0 f   pjmedia-x86_64-x64-vc14-debug-dynamic:echo_suppress.obj
 0001:0002fcd0       echo_supp_soft_reset       0000000140030cd0 f   pjmedia-x86_64-x64-vc14-debug-dynamic:echo_suppress.obj
 0001:00031430       speex_aec_create           0000000140032430 f   pjmedia-x86_64-x64-vc14-debug-dynamic:echo_speex.obj
 0001:000316d0       speex_aec_destroy          00000001400326d0 f   pjmedia-x86_64-x64-vc14-debug-dynamic:echo_speex.obj
 0001:00031810       speex_aec_reset            0000000140032810 f   pjmedia-x86_64-x64-vc14-debug-dynamic:echo_speex.obj
 0001:00031840       speex_aec_cancel_echo      0000000140032840 f   pjmedia-x86_64-x64-vc14-debug-dynamic:echo_speex.obj
 0001:00031a50       speex_aec_playback         0000000140032a50 f   pjmedia-x86_64-x64-vc14-debug-dynamic:echo_speex.obj
 0001:00031b20       speex_aec_capture          0000000140032b20 f   pjmedia-x86_64-x64-vc14-debug-dynamic:echo_speex.obj
 0001:00031f40       pjmedia_silence_det_create 0000000140032f40 f   pjmedia-x86_64-x64-vc14-debug-dynamic:silencedet.obj
 0001:00032050       pjmedia_silence_det_set_name 0000000140033050 f   pjmedia-x86_64-x64-vc14-debug-dynamic:silencedet.obj
 0001:000320f0       pjmedia_silence_det_set_fixed 00000001400330f0 f   pjmedia-x86_64-x64-vc14-debug-dynamic:silencedet.obj
 0001:00032170       pjmedia_silence_det_set_adaptive 0000000140033170 f   pjmedia-x86_64-x64-vc14-debug-dynamic:silencedet.obj
 0001:000321f0       pjmedia_silence_det_set_params 00000001400331f0 f   pjmedia-x86_64-x64-vc14-debug-dynamic:silencedet.obj
 0001:000322a0       pjmedia_silence_det_disable 00000001400332a0 f   pjmedia-x86_64-x64-vc14-debug-dynamic:silencedet.obj
 0001:00032300       pjmedia_silence_det_detect 0000000140033300 f   pjmedia-x86_64-x64-vc14-debug-dynamic:silencedet.obj
 0001:00032360       pjmedia_calc_avg_signal    0000000140033360 f   pjmedia-x86_64-x64-vc14-debug-dynamic:silencedet.obj
 0001:00032410       pjmedia_silence_det_apply  0000000140033410 f   pjmedia-x86_64-x64-vc14-debug-dynamic:silencedet.obj
 0001:00032a00       pj_getopt                  0000000140033a00 f   pjlib-util-x86_64-x64-vc14-debug-dynamic:getopt.obj
 0001:00032a50       pj_getopt_long             0000000140033a50 f   pjlib-util-x86_64-x64-vc14-debug-dynamic:getopt.obj
 0001:00033f70       pj_cis_buf_init            0000000140034f70 f   pjlib-util-x86_64-x64-vc14-debug-dynamic:scanner.obj
 0001:00033fb0       pj_cis_init                0000000140034fb0 f   pjlib-util-x86_64-x64-vc14-debug-dynamic:scanner.obj
 0001:00034070       pj_cis_dup                 0000000140035070 f   pjlib-util-x86_64-x64-vc14-debug-dynamic:scanner.obj
 0001:000341a0       pj_cis_add_range           00000001400351a0 f   pjlib-util-x86_64-x64-vc14-debug-dynamic:scanner.obj
 0001:00034240       pj_cis_add_alpha           0000000140035240 f   pjlib-util-x86_64-x64-vc14-debug-dynamic:scanner.obj
 0001:00034280       pj_cis_add_num             0000000140035280 f   pjlib-util-x86_64-x64-vc14-debug-dynamic:scanner.obj
 0001:000342b0       pj_cis_add_str             00000001400352b0 f   pjlib-util-x86_64-x64-vc14-debug-dynamic:scanner.obj
 0001:00034330       pj_cis_add_cis             0000000140035330 f   pjlib-util-x86_64-x64-vc14-debug-dynamic:scanner.obj
 0001:000343f0       pj_cis_del_range           00000001400353f0 f   pjlib-util-x86_64-x64-vc14-debug-dynamic:scanner.obj
 0001:00034470       pj_cis_del_str             0000000140035470 f   pjlib-util-x86_64-x64-vc14-debug-dynamic:scanner.obj
 0001:000344f0       pj_cis_invert              00000001400354f0 f   pjlib-util-x86_64-x64-vc14-debug-dynamic:scanner.obj
 0001:000345f0       pj_scan_init               00000001400355f0 f   pjlib-util-x86_64-x64-vc14-debug-dynamic:scanner.obj
 0001:000346b0       pj_scan_fini               00000001400356b0 f   pjlib-util-x86_64-x64-vc14-debug-dynamic:scanner.obj
 0001:000346e0       pj_scan_peek               00000001400356e0 f   pjlib-util-x86_64-x64-vc14-debug-dynamic:scanner.obj
 0001:00034780       pj_scan_peek_n             0000000140035780 f   pjlib-util-x86_64-x64-vc14-debug-dynamic:scanner.obj
 0001:00034800       pj_scan_peek_until         0000000140035800 f   pjlib-util-x86_64-x64-vc14-debug-dynamic:scanner.obj
 0001:000348b0       pj_scan_get                00000001400358b0 f   pjlib-util-x86_64-x64-vc14-debug-dynamic:scanner.obj
 0001:000349a0       pj_scan_get_unescape       00000001400359a0 f   pjlib-util-x86_64-x64-vc14-debug-dynamic:scanner.obj
 0001:00034c50       pj_scan_get_quote          0000000140035c50 f   pjlib-util-x86_64-x64-vc14-debug-dynamic:scanner.obj
 0001:00034cb0       pj_scan_get_quotes         0000000140035cb0 f   pjlib-util-x86_64-x64-vc14-debug-dynamic:scanner.obj
 0001:00034ef0       pj_scan_get_n              0000000140035ef0 f   pjlib-util-x86_64-x64-vc14-debug-dynamic:scanner.obj
 0001:00034f90       pj_scan_get_char           0000000140035f90 f   pjlib-util-x86_64-x64-vc14-debug-dynamic:scanner.obj
 0001:00035010       pj_scan_get_until          0000000140036010 f   pjlib-util-x86_64-x64-vc14-debug-dynamic:scanner.obj
 0001:000350e0       pj_scan_get_until_ch       00000001400360e0 f   pjlib-util-x86_64-x64-vc14-debug-dynamic:scanner.obj
 0001:000351a0       pj_scan_get_until_chr      00000001400361a0 f   pjlib-util-x86_64-x64-vc14-debug-dynamic:scanner.obj
 0001:00035280       pj_scan_advance_n          0000000140036280 f   pjlib-util-x86_64-x64-vc14-debug-dynamic:scanner.obj
 0001:00035300       pj_scan_strcmp             0000000140036300 f   pjlib-util-x86_64-x64-vc14-debug-dynamic:scanner.obj
 0001:00035370       pj_scan_stricmp            0000000140036370 f   pjlib-util-x86_64-x64-vc14-debug-dynamic:scanner.obj
 0001:000353e0       pj_scan_stricmp_alnum      00000001400363e0 f   pjlib-util-x86_64-x64-vc14-debug-dynamic:scanner.obj
 0001:00035450       pj_scan_get_newline        0000000140036450 f   pjlib-util-x86_64-x64-vc14-debug-dynamic:scanner.obj
 0001:00035510       pj_scan_skip_whitespace    0000000140036510 f   pjlib-util-x86_64-x64-vc14-debug-dynamic:scanner.obj
 0001:00035760       pj_scan_skip_line          0000000140036760 f   pjlib-util-x86_64-x64-vc14-debug-dynamic:scanner.obj
 0001:000357f0       pj_scan_save_state         00000001400367f0 f   pjlib-util-x86_64-x64-vc14-debug-dynamic:scanner.obj
 0001:00035840       pj_scan_restore_state      0000000140036840 f   pjlib-util-x86_64-x64-vc14-debug-dynamic:scanner.obj
 0001:00036130       pj_base64_encode           0000000140037130 f   pjlib-util-x86_64-x64-vc14-debug-dynamic:base64.obj
 0001:00036370       pj_base64_decode           0000000140037370 f   pjlib-util-x86_64-x64-vc14-debug-dynamic:base64.obj
 0001:00036ab0       pj_init                    0000000140037ab0 f   pjlib-x86_64-x64-vc14-debug-dynamic:os_core_win32.obj
 0001:00036c80       pj_shutdown                0000000140037c80 f   pjlib-x86_64-x64-vc14-debug-dynamic:os_core_win32.obj
 0001:00036dc0       pj_atexit                  0000000140037dc0 f   pjlib-x86_64-x64-vc14-debug-dynamic:os_core_win32.obj
 0001:00036e10       pj_getpid                  0000000140037e10 f   pjlib-x86_64-x64-vc14-debug-dynamic:os_core_win32.obj
 0001:00036e40       pj_thread_create           0000000140037e40 f   pjlib-x86_64-x64-vc14-debug-dynamic:os_core_win32.obj
 0001:000370a0       pj_thread_register         00000001400380a0 f   pjlib-x86_64-x64-vc14-debug-dynamic:os_core_win32.obj
 0001:00037210       pj_thread_is_registered    0000000140038210 f   pjlib-x86_64-x64-vc14-debug-dynamic:os_core_win32.obj
 0001:00037250       pj_thread_get_prio         0000000140038250 f   pjlib-x86_64-x64-vc14-debug-dynamic:os_core_win32.obj
 0001:00037280       pj_thread_set_prio         0000000140038280 f   pjlib-x86_64-x64-vc14-debug-dynamic:os_core_win32.obj
 0001:00037380       pj_thread_get_prio_min     0000000140038380 f   pjlib-x86_64-x64-vc14-debug-dynamic:os_core_win32.obj
 0001:000373a0       pj_thread_get_prio_max     00000001400383a0 f   pjlib-x86_64-x64-vc14-debug-dynamic:os_core_win32.obj
 0001:000373c0       pj_thread_get_os_handle    00000001400383c0 f   pjlib-x86_64-x64-vc14-debug-dynamic:os_core_win32.obj
 0001:00037420       pj_thread_get_name         0000000140038420 f   pjlib-x86_64-x64-vc14-debug-dynamic:os_core_win32.obj
 0001:00037490       pj_thread_resume           0000000140038490 f   pjlib-x86_64-x64-vc14-debug-dynamic:os_core_win32.obj
 0001:00037560       pj_thread_this             0000000140038560 f   pjlib-x86_64-x64-vc14-debug-dynamic:os_core_win32.obj
 0001:000375c0       pj_thread_join             00000001400385c0 f   pjlib-x86_64-x64-vc14-debug-dynamic:os_core_win32.obj
 0001:000376d0       pj_thread_destroy          00000001400386d0 f   pjlib-x86_64-x64-vc14-debug-dynamic:os_core_win32.obj
 0001:000377a0       pj_thread_sleep            00000001400387a0 f   pjlib-x86_64-x64-vc14-debug-dynamic:os_core_win32.obj
 0001:000377d0       pj_thread_check_stack      00000001400387d0 f   pjlib-x86_64-x64-vc14-debug-dynamic:os_core_win32.obj
 0001:000378d0       pj_thread_get_stack_max_usage 00000001400388d0 f   pjlib-x86_64-x64-vc14-debug-dynamic:os_core_win32.obj
 0001:000378f0       pj_thread_get_stack_info   00000001400388f0 f   pjlib-x86_64-x64-vc14-debug-dynamic:os_core_win32.obj
 0001:00037960       pj_thread_local_alloc      0000000140038960 f   pjlib-x86_64-x64-vc14-debug-dynamic:os_core_win32.obj
 0001:00037a10       pj_thread_local_free       0000000140038a10 f   pjlib-x86_64-x64-vc14-debug-dynamic:os_core_win32.obj
 0001:00037a40       pj_thread_local_set        0000000140038a40 f   pjlib-x86_64-x64-vc14-debug-dynamic:os_core_win32.obj
 0001:00037ad0       pj_thread_local_get        0000000140038ad0 f   pjlib-x86_64-x64-vc14-debug-dynamic:os_core_win32.obj
 0001:00037af0       pj_atomic_create           0000000140038af0 f   pjlib-x86_64-x64-vc14-debug-dynamic:os_core_win32.obj
 0001:00037b50       pj_atomic_destroy          0000000140038b50 f   pjlib-x86_64-x64-vc14-debug-dynamic:os_core_win32.obj
 0001:00037ba0       pj_atomic_set              0000000140038ba0 f   pjlib-x86_64-x64-vc14-debug-dynamic:os_core_win32.obj
 0001:00037c10       pj_atomic_get              0000000140038c10 f   pjlib-x86_64-x64-vc14-debug-dynamic:os_core_win32.obj
 0001:00037c80       pj_atomic_inc              0000000140038c80 f   pjlib-x86_64-x64-vc14-debug-dynamic:os_core_win32.obj
 0001:00037ce0       pj_atomic_inc_and_get      0000000140038ce0 f   pjlib-x86_64-x64-vc14-debug-dynamic:os_core_win32.obj
 0001:00037d20       pj_atomic_dec              0000000140038d20 f   pjlib-x86_64-x64-vc14-debug-dynamic:os_core_win32.obj
 0001:00037d80       pj_atomic_dec_and_get      0000000140038d80 f   pjlib-x86_64-x64-vc14-debug-dynamic:os_core_win32.obj
 0001:00037dc0       pj_atomic_add              0000000140038dc0 f   pjlib-x86_64-x64-vc14-debug-dynamic:os_core_win32.obj
 0001:00037e20       pj_atomic_add_and_get      0000000140038e20 f   pjlib-x86_64-x64-vc14-debug-dynamic:os_core_win32.obj
 0001:00037e60       pj_mutex_create            0000000140038e60 f   pjlib-x86_64-x64-vc14-debug-dynamic:os_core_win32.obj
 0001:00037f20       pj_mutex_create_simple     0000000140038f20 f   pjlib-x86_64-x64-vc14-debug-dynamic:os_core_win32.obj
 0001:00037f60       pj_mutex_create_recursive  0000000140038f60 f   pjlib-x86_64-x64-vc14-debug-dynamic:os_core_win32.obj
 0001:00037fa0       pj_mutex_lock              0000000140038fa0 f   pjlib-x86_64-x64-vc14-debug-dynamic:os_core_win32.obj
 0001:00038060       pj_mutex_unlock            0000000140039060 f   pjlib-x86_64-x64-vc14-debug-dynamic:os_core_win32.obj
 0001:00038140       pj_mutex_trylock           0000000140039140 f   pjlib-x86_64-x64-vc14-debug-dynamic:os_core_win32.obj
 0001:00038220       pj_mutex_destroy           0000000140039220 f   pjlib-x86_64-x64-vc14-debug-dynamic:os_core_win32.obj
 0001:000382a0       pj_mutex_is_locked         00000001400392a0 f   pjlib-x86_64-x64-vc14-debug-dynamic:os_core_win32.obj
 0001:000382e0       pj_rwmutex_create          00000001400392e0 f   pjlib-x86_64-x64-vc14-debug-dynamic:os_core_win32.obj
 0001:00038400       pj_rwmutex_lock_read       0000000140039400 f   pjlib-x86_64-x64-vc14-debug-dynamic:os_core_win32.obj
 0001:00038500       pj_rwmutex_lock_write      0000000140039500 f   pjlib-x86_64-x64-vc14-debug-dynamic:os_core_win32.obj
 0001:00038560       pj_rwmutex_unlock_read     0000000140039560 f   pjlib-x86_64-x64-vc14-debug-dynamic:os_core_win32.obj
 0001:00038660       pj_rwmutex_unlock_write    0000000140039660 f   pjlib-x86_64-x64-vc14-debug-dynamic:os_core_win32.obj
 0001:000386f0       pj_rwmutex_destroy         00000001400396f0 f   pjlib-x86_64-x64-vc14-debug-dynamic:os_core_win32.obj
 0001:00038760       pj_enter_critical_section  0000000140039760 f   pjlib-x86_64-x64-vc14-debug-dynamic:os_core_win32.obj
 0001:00038780       pj_leave_critical_section  0000000140039780 f   pjlib-x86_64-x64-vc14-debug-dynamic:os_core_win32.obj
 0001:000387a0       pj_sem_create              00000001400397a0 f   pjlib-x86_64-x64-vc14-debug-dynamic:os_core_win32.obj
 0001:00038940       pj_sem_wait                0000000140039940 f   pjlib-x86_64-x64-vc14-debug-dynamic:os_core_win32.obj
 0001:000389b0       pj_sem_trywait             00000001400399b0 f   pjlib-x86_64-x64-vc14-debug-dynamic:os_core_win32.obj
 0001:00038a20       pj_sem_post                0000000140039a20 f   pjlib-x86_64-x64-vc14-debug-dynamic:os_core_win32.obj
 0001:00038af0       pj_sem_destroy             0000000140039af0 f   pjlib-x86_64-x64-vc14-debug-dynamic:os_core_win32.obj
 0001:00038bc0       pj_event_create            0000000140039bc0 f   pjlib-x86_64-x64-vc14-debug-dynamic:os_core_win32.obj
 0001:00038da0       pj_event_wait              0000000140039da0 f   pjlib-x86_64-x64-vc14-debug-dynamic:os_core_win32.obj
 0001:00038e00       pj_event_trywait           0000000140039e00 f   pjlib-x86_64-x64-vc14-debug-dynamic:os_core_win32.obj
 0001:00038e60       pj_event_set               0000000140039e60 f   pjlib-x86_64-x64-vc14-debug-dynamic:os_core_win32.obj
 0001:00038f30       pj_event_pulse             0000000140039f30 f   pjlib-x86_64-x64-vc14-debug-dynamic:os_core_win32.obj
 0001:00039000       pj_event_reset             000000014003a000 f   pjlib-x86_64-x64-vc14-debug-dynamic:os_core_win32.obj
 0001:000390d0       pj_event_destroy           000000014003a0d0 f   pjlib-x86_64-x64-vc14-debug-dynamic:os_core_win32.obj
 0001:000391a0       pj_term_set_color          000000014003a1a0 f   pjlib-x86_64-x64-vc14-debug-dynamic:os_core_win32.obj
 0001:00039260       pj_term_get_color          000000014003a260 f   pjlib-x86_64-x64-vc14-debug-dynamic:os_core_win32.obj
 0001:000392c0       pj_run_app                 000000014003a2c0 f   pjlib-x86_64-x64-vc14-debug-dynamic:os_core_win32.obj
 0001:000392f0       pj_thread_init             000000014003a2f0 f   pjlib-x86_64-x64-vc14-debug-dynamic:os_core_win32.obj
 0001:0003a3d0       pj_pool_create             000000014003b3d0 f   pjlib-x86_64-x64-vc14-debug-dynamic:pool.obj
 0001:0003a420       pj_pool_release            000000014003b420 f   pjlib-x86_64-x64-vc14-debug-dynamic:pool.obj
 0001:0003a460       pj_pool_safe_release       000000014003b460 f   pjlib-x86_64-x64-vc14-debug-dynamic:pool.obj
 0001:0003a4a0       pj_pool_secure_release     000000014003b4a0 f   pjlib-x86_64-x64-vc14-debug-dynamic:pool.obj
 0001:0003a550       pj_pool_getobjname         000000014003b550 f   pjlib-x86_64-x64-vc14-debug-dynamic:pool.obj
 0001:0003a570       pj_pool_reset              000000014003b570 f   pjlib-x86_64-x64-vc14-debug-dynamic:pool.obj
 0001:0003a5a0       pj_pool_get_capacity       000000014003b5a0 f   pjlib-x86_64-x64-vc14-debug-dynamic:pool.obj
 0001:0003a5c0       pj_pool_get_used_size      000000014003b5c0 f   pjlib-x86_64-x64-vc14-debug-dynamic:pool.obj
 0001:0003a630       pj_pool_alloc              000000014003b630 f   pjlib-x86_64-x64-vc14-debug-dynamic:pool.obj
 0001:0003a690       pj_pool_calloc             000000014003b690 f   pjlib-x86_64-x64-vc14-debug-dynamic:pool.obj
 0001:0003a6f0       pj_pool_alloc_from_block   000000014003b6f0 f   pjlib-x86_64-x64-vc14-debug-dynamic:pool.obj
 0001:0003a780       pj_pool_allocate_find      000000014003b780 f   pjlib-x86_64-x64-vc14-debug-dynamic:pool.obj
 0001:0003a900       pj_NO_MEMORY_EXCEPTION     000000014003b900 f   pjlib-x86_64-x64-vc14-debug-dynamic:pool.obj
 0001:0003a910       pj_pool_create_int         000000014003b910 f   pjlib-x86_64-x64-vc14-debug-dynamic:pool.obj
 0001:0003aaa0       pj_pool_init_int           000000014003baa0 f   pjlib-x86_64-x64-vc14-debug-dynamic:pool.obj
 0001:0003ab80       pj_pool_destroy_int        000000014003bb80 f   pjlib-x86_64-x64-vc14-debug-dynamic:pool.obj
 0001:0003b180       pj_caching_pool_init       000000014003c180 f   pjlib-x86_64-x64-vc14-debug-dynamic:pool_caching.obj
 0001:0003b2e0       pj_caching_pool_destroy    000000014003c2e0 f   pjlib-x86_64-x64-vc14-debug-dynamic:pool_caching.obj
 0001:0003be90       pj_strerror                000000014003ce90 f   pjlib-x86_64-x64-vc14-debug-dynamic:errno.obj
 0001:0003c130       pj_perror                  000000014003d130 f   pjlib-x86_64-x64-vc14-debug-dynamic:errno.obj
 0001:0003c190       pj_register_strerror       000000014003d190 f   pjlib-x86_64-x64-vc14-debug-dynamic:errno.obj
 0001:0003c3f0       pj_errno_clear_handlers    000000014003d3f0 f   pjlib-x86_64-x64-vc14-debug-dynamic:errno.obj
 0001:0003c420       pj_perror_1                000000014003d420 f   pjlib-x86_64-x64-vc14-debug-dynamic:errno.obj
 0001:0003c480       pj_perror_2                000000014003d480 f   pjlib-x86_64-x64-vc14-debug-dynamic:errno.obj
 0001:0003c4e0       pj_perror_3                000000014003d4e0 f   pjlib-x86_64-x64-vc14-debug-dynamic:errno.obj
 0001:0003c540       pj_perror_4                000000014003d540 f   pjlib-x86_64-x64-vc14-debug-dynamic:errno.obj
 0001:0003c5a0       pj_perror_5                000000014003d5a0 f   pjlib-x86_64-x64-vc14-debug-dynamic:errno.obj
 0001:0003cb30       pj_log                     000000014003db30 f   pjlib-x86_64-x64-vc14-debug-dynamic:log.obj
 0001:0003d3a0       pj_log_set_log_func        000000014003e3a0 f   pjlib-x86_64-x64-vc14-debug-dynamic:log.obj
 0001:0003d3c0       pj_log_get_log_func        000000014003e3c0 f   pjlib-x86_64-x64-vc14-debug-dynamic:log.obj
 0001:0003d3d0       pj_log_set_level           000000014003e3d0 f   pjlib-x86_64-x64-vc14-debug-dynamic:log.obj
 0001:0003d3f0       pj_log_get_level           000000014003e3f0 f   pjlib-x86_64-x64-vc14-debug-dynamic:log.obj
 0001:0003d400       pj_log_set_decor           000000014003e400 f   pjlib-x86_64-x64-vc14-debug-dynamic:log.obj
 0001:0003d420       pj_log_get_decor           000000014003e420 f   pjlib-x86_64-x64-vc14-debug-dynamic:log.obj
 0001:0003d430       pj_log_add_indent          000000014003e430 f   pjlib-x86_64-x64-vc14-debug-dynamic:log.obj
 0001:0003d460       pj_log_push_indent         000000014003e460 f   pjlib-x86_64-x64-vc14-debug-dynamic:log.obj
 0001:0003d480       pj_log_pop_indent          000000014003e480 f   pjlib-x86_64-x64-vc14-debug-dynamic:log.obj
 0001:0003d4a0       pj_log_set_color           000000014003e4a0 f   pjlib-x86_64-x64-vc14-debug-dynamic:log.obj
 0001:0003d5c0       pj_log_get_color           000000014003e5c0 f   pjlib-x86_64-x64-vc14-debug-dynamic:log.obj
 0001:0003d660       pj_log_init                000000014003e660 f   pjlib-x86_64-x64-vc14-debug-dynamic:log.obj
 0001:0003d6e0       pj_log_1                   000000014003e6e0 f   pjlib-x86_64-x64-vc14-debug-dynamic:log.obj
 0001:0003d730       pj_log_2                   000000014003e730 f   pjlib-x86_64-x64-vc14-debug-dynamic:log.obj
 0001:0003d780       pj_log_3                   000000014003e780 f   pjlib-x86_64-x64-vc14-debug-dynamic:log.obj
 0001:0003d7d0       pj_log_4                   000000014003e7d0 f   pjlib-x86_64-x64-vc14-debug-dynamic:log.obj
 0001:0003d820       pj_log_5                   000000014003e820 f   pjlib-x86_64-x64-vc14-debug-dynamic:log.obj
 0001:0003de70       pj_pool_factory_get_default_policy 000000014003ee70 f   pjlib-x86_64-x64-vc14-debug-dynamic:pool_policy_malloc.obj
 0001:0003e000       pj_str                     000000014003f000 f   pjlib-x86_64-x64-vc14-debug-dynamic:string.obj
 0001:0003e070       pj_strassign               000000014003f070 f   pjlib-x86_64-x64-vc14-debug-dynamic:string.obj
 0001:0003e0b0       pj_strcpy                  000000014003f0b0 f   pjlib-x86_64-x64-vc14-debug-dynamic:string.obj
 0001:0003e110       pj_strcpy2                 000000014003f110 f   pjlib-x86_64-x64-vc14-debug-dynamic:string.obj
 0001:0003e190       pj_strncpy                 000000014003f190 f   pjlib-x86_64-x64-vc14-debug-dynamic:string.obj
 0001:0003e230       pj_strncpy_with_null       000000014003f230 f   pjlib-x86_64-x64-vc14-debug-dynamic:string.obj
 0001:0003e2e0       pj_strdup                  000000014003f2e0 f   pjlib-x86_64-x64-vc14-debug-dynamic:string.obj
 0001:0003e370       pj_strdup_with_null        000000014003f370 f   pjlib-x86_64-x64-vc14-debug-dynamic:string.obj
 0001:0003e410       pj_strdup2                 000000014003f410 f   pjlib-x86_64-x64-vc14-debug-dynamic:string.obj
 0001:0003e4c0       pj_strdup2_with_null       000000014003f4c0 f   pjlib-x86_64-x64-vc14-debug-dynamic:string.obj
 0001:0003e570       pj_strdup3                 000000014003f570 f   pjlib-x86_64-x64-vc14-debug-dynamic:string.obj
 0001:0003e5c0       pj_strcmp                  000000014003f5c0 f   pjlib-x86_64-x64-vc14-debug-dynamic:string.obj
 0001:0003e6f0       pj_strcmp2                 000000014003f6f0 f   pjlib-x86_64-x64-vc14-debug-dynamic:string.obj
 0001:0003e750       pj_strncmp                 000000014003f750 f   pjlib-x86_64-x64-vc14-debug-dynamic:string.obj
 0001:0003e7e0       pj_strncmp2                000000014003f7e0 f   pjlib-x86_64-x64-vc14-debug-dynamic:string.obj
 0001:0003e840       pj_stricmp                 000000014003f840 f   pjlib-x86_64-x64-vc14-debug-dynamic:string.obj
 0001:0003e970       pj_stricmp2                000000014003f970 f   pjlib-x86_64-x64-vc14-debug-dynamic:string.obj
 0001:0003e9d0       pj_strnicmp                000000014003f9d0 f   pjlib-x86_64-x64-vc14-debug-dynamic:string.obj
 0001:0003ea60       pj_strnicmp2               000000014003fa60 f   pjlib-x86_64-x64-vc14-debug-dynamic:string.obj
 0001:0003eac0       pj_strcat                  000000014003fac0 f   pjlib-x86_64-x64-vc14-debug-dynamic:string.obj
 0001:0003eb30       pj_strcat2                 000000014003fb30 f   pjlib-x86_64-x64-vc14-debug-dynamic:string.obj
 0001:0003ebc0       pj_strspn                  000000014003fbc0 f   pjlib-x86_64-x64-vc14-debug-dynamic:string.obj
 0001:0003ec80       pj_strspn2                 000000014003fc80 f   pjlib-x86_64-x64-vc14-debug-dynamic:string.obj
 0001:0003ed50       pj_strcspn                 000000014003fd50 f   pjlib-x86_64-x64-vc14-debug-dynamic:string.obj
 0001:0003edf0       pj_strcspn2                000000014003fdf0 f   pjlib-x86_64-x64-vc14-debug-dynamic:string.obj
 0001:0003eea0       pj_strtok                  000000014003fea0 f   pjlib-x86_64-x64-vc14-debug-dynamic:string.obj
 0001:0003efc0       pj_strtok2                 000000014003ffc0 f   pjlib-x86_64-x64-vc14-debug-dynamic:string.obj
 0001:0003f0e0       pj_strstr                  00000001400400e0 f   pjlib-x86_64-x64-vc14-debug-dynamic:string.obj
 0001:0003f190       pj_stristr                 0000000140040190 f   pjlib-x86_64-x64-vc14-debug-dynamic:string.obj
 0001:0003f240       pj_strltrim                0000000140040240 f   pjlib-x86_64-x64-vc14-debug-dynamic:string.obj
 0001:0003f2e0       pj_strrtrim                00000001400402e0 f   pjlib-x86_64-x64-vc14-debug-dynamic:string.obj
 0001:0003f380       pj_strtrim                 0000000140040380 f   pjlib-x86_64-x64-vc14-debug-dynamic:string.obj
 0001:0003f3b0       pj_create_random_string    00000001400403b0 f   pjlib-x86_64-x64-vc14-debug-dynamic:string.obj
 0001:0003f500       pj_strtol                  0000000140040500 f   pjlib-x86_64-x64-vc14-debug-dynamic:string.obj
 0001:0003f5e0       pj_strtol2                 00000001400405e0 f   pjlib-x86_64-x64-vc14-debug-dynamic:string.obj
 0001:0003f7d0       pj_strtoul                 00000001400407d0 f   pjlib-x86_64-x64-vc14-debug-dynamic:string.obj
 0001:0003f860       pj_strtoul2                0000000140040860 f   pjlib-x86_64-x64-vc14-debug-dynamic:string.obj
 0001:0003f9f0       pj_strtoul3                00000001400409f0 f   pjlib-x86_64-x64-vc14-debug-dynamic:string.obj
 0001:0003fcd0       pj_strtof                  0000000140040cd0 f   pjlib-x86_64-x64-vc14-debug-dynamic:string.obj
 0001:0003fea0       pj_utoa                    0000000140040ea0 f   pjlib-x86_64-x64-vc14-debug-dynamic:string.obj
 0001:0003fed0       pj_utoa_pad                0000000140040ed0 f   pjlib-x86_64-x64-vc14-debug-dynamic:string.obj
 0001:00040a20       pj_get_os_error            0000000140041a20 f   pjlib-x86_64-x64-vc14-debug-dynamic:os_error_win32.obj
 0001:00040a60       pj_set_os_error            0000000140041a60 f   pjlib-x86_64-x64-vc14-debug-dynamic:os_error_win32.obj
 0001:00040aa0       pj_get_netos_error         0000000140041aa0 f   pjlib-x86_64-x64-vc14-debug-dynamic:os_error_win32.obj
 0001:00040ae0       pj_set_netos_error         0000000140041ae0 f   pjlib-x86_64-x64-vc14-debug-dynamic:os_error_win32.obj
 0001:00040b60       platform_strerror          0000000140041b60 f   pjlib-x86_64-x64-vc14-debug-dynamic:os_error_win32.obj
 0001:00040ea0       pj_array_insert            0000000140041ea0 f   pjlib-x86_64-x64-vc14-debug-dynamic:array.obj
 0001:00040f60       pj_array_erase             0000000140041f60 f   pjlib-x86_64-x64-vc14-debug-dynamic:array.obj
 0001:00041010       pj_array_find              0000000140042010 f   pjlib-x86_64-x64-vc14-debug-dynamic:array.obj
 0001:00041160       pj_inet_ntop2              0000000140042160 f   pjlib-x86_64-x64-vc14-debug-dynamic:sock_common.obj
 0001:000411c0       pj_sockaddr_print          00000001400421c0 f   pjlib-x86_64-x64-vc14-debug-dynamic:sock_common.obj
 0001:00041360       pj_inet_addr               0000000140042360 f   pjlib-x86_64-x64-vc14-debug-dynamic:sock_common.obj
 0001:00041390       pj_inet_addr2              0000000140042390 f   pjlib-x86_64-x64-vc14-debug-dynamic:sock_common.obj
 0001:000413e0       pj_sockaddr_in_init        00000001400423e0 f   pjlib-x86_64-x64-vc14-debug-dynamic:sock_common.obj
 0001:00041490       pj_sockaddr_init           0000000140042490 f   pjlib-x86_64-x64-vc14-debug-dynamic:sock_common.obj
 0001:00041580       pj_sockaddr_cmp            0000000140042580 f   pjlib-x86_64-x64-vc14-debug-dynamic:sock_common.obj
 0001:00041690       pj_sockaddr_get_addr       0000000140042690 f   pjlib-x86_64-x64-vc14-debug-dynamic:sock_common.obj
 0001:00041750       pj_sockaddr_has_addr       0000000140042750 f   pjlib-x86_64-x64-vc14-debug-dynamic:sock_common.obj
 0001:00041840       pj_sockaddr_get_addr_len   0000000140042840 f   pjlib-x86_64-x64-vc14-debug-dynamic:sock_common.obj
 0001:00041900       pj_sockaddr_get_len        0000000140042900 f   pjlib-x86_64-x64-vc14-debug-dynamic:sock_common.obj
 0001:000419c0       pj_sockaddr_copy_addr      00000001400429c0 f   pjlib-x86_64-x64-vc14-debug-dynamic:sock_common.obj
 0001:00041a30       pj_sockaddr_cp             0000000140042a30 f   pjlib-x86_64-x64-vc14-debug-dynamic:sock_common.obj
 0001:00041a70       pj_sockaddr_synthesize     0000000140042a70 f   pjlib-x86_64-x64-vc14-debug-dynamic:sock_common.obj
 0001:00041c00       pj_sockaddr_in_get_addr    0000000140042c00 f   pjlib-x86_64-x64-vc14-debug-dynamic:sock_common.obj
 0001:00041c30       pj_sockaddr_in_set_addr    0000000140042c30 f   pjlib-x86_64-x64-vc14-debug-dynamic:sock_common.obj
 0001:00041c60       pj_sockaddr_in_set_str_addr 0000000140042c60 f   pjlib-x86_64-x64-vc14-debug-dynamic:sock_common.obj
 0001:00041e10       pj_sockaddr_set_str_addr   0000000140042e10 f   pjlib-x86_64-x64-vc14-debug-dynamic:sock_common.obj
 0001:00041fb0       pj_sockaddr_get_port       0000000140042fb0 f   pjlib-x86_64-x64-vc14-debug-dynamic:sock_common.obj
 0001:00042080       pj_sockaddr_in_get_port    0000000140043080 f   pjlib-x86_64-x64-vc14-debug-dynamic:sock_common.obj
 0001:000420b0       pj_sockaddr_set_port       00000001400430b0 f   pjlib-x86_64-x64-vc14-debug-dynamic:sock_common.obj
 0001:00042170       pj_sockaddr_in_set_port    0000000140043170 f   pjlib-x86_64-x64-vc14-debug-dynamic:sock_common.obj
 0001:000421a0       pj_sockaddr_parse          00000001400431a0 f   pjlib-x86_64-x64-vc14-debug-dynamic:sock_common.obj
 0001:00042320       pj_sockaddr_parse2         0000000140043320 f   pjlib-x86_64-x64-vc14-debug-dynamic:sock_common.obj
 0001:00042870       pj_gethostaddr             0000000140043870 f   pjlib-x86_64-x64-vc14-debug-dynamic:sock_common.obj
 0001:000428c0       pj_sock_bind_random        00000001400438c0 f   pjlib-x86_64-x64-vc14-debug-dynamic:sock_common.obj
 0001:00042a40       pj_sock_setsockopt_sobuf   0000000140043a40 f   pjlib-x86_64-x64-vc14-debug-dynamic:sock_common.obj
 0001:00042c60       pj_addr_str_print          0000000140043c60 f   pjlib-x86_64-x64-vc14-debug-dynamic:sock_common.obj
 0001:00042ef0       pj_gethostip               0000000140043ef0 f   pjlib-x86_64-x64-vc14-debug-dynamic:sock_common.obj
 0001:00043a40       pj_getipinterface          0000000140044a40 f   pjlib-x86_64-x64-vc14-debug-dynamic:sock_common.obj
 0001:00043cc0       pj_getdefaultipinterface   0000000140044cc0 f   pjlib-x86_64-x64-vc14-debug-dynamic:sock_common.obj
 0001:00044890       pj_list_insert_before      0000000140045890 f   pjlib-x86_64-x64-vc14-debug-dynamic:list.obj
 0001:000448c0       pj_list_insert_nodes_before 00000001400458c0 f   pjlib-x86_64-x64-vc14-debug-dynamic:list.obj
 0001:000448f0       pj_list_insert_after       00000001400458f0 f   pjlib-x86_64-x64-vc14-debug-dynamic:list.obj
 0001:00044940       pj_list_insert_nodes_after 0000000140045940 f   pjlib-x86_64-x64-vc14-debug-dynamic:list.obj
 0001:000449a0       pj_list_merge_first        00000001400459a0 f   pjlib-x86_64-x64-vc14-debug-dynamic:list.obj
 0001:00044a00       pj_list_merge_last         0000000140045a00 f   pjlib-x86_64-x64-vc14-debug-dynamic:list.obj
 0001:00044a60       pj_list_erase              0000000140045a60 f   pjlib-x86_64-x64-vc14-debug-dynamic:list.obj
 0001:00044aa0       pj_list_find_node          0000000140045aa0 f   pjlib-x86_64-x64-vc14-debug-dynamic:list.obj
 0001:00044b10       pj_list_search             0000000140045b10 f   pjlib-x86_64-x64-vc14-debug-dynamic:list.obj
 0001:00044b90       pj_list_size               0000000140045b90 f   pjlib-x86_64-x64-vc14-debug-dynamic:list.obj
 0001:00044d40       pj_gettimeofday            0000000140045d40 f   pjlib-x86_64-x64-vc14-debug-dynamic:os_time_win32.obj
 0001:00044e00       pj_time_decode             0000000140045e00 f   pjlib-x86_64-x64-vc14-debug-dynamic:os_time_win32.obj
 0001:00044f00       pj_time_encode             0000000140045f00 f   pjlib-x86_64-x64-vc14-debug-dynamic:os_time_win32.obj
 0001:000451d0       pj_ioqueue_name            00000001400461d0 f   pjlib-x86_64-x64-vc14-debug-dynamic:ioqueue_select.obj
 0001:000451e0       pj_ioqueue_create          00000001400461e0 f   pjlib-x86_64-x64-vc14-debug-dynamic:ioqueue_select.obj
 0001:000454d0       pj_ioqueue_destroy         00000001400464d0 f   pjlib-x86_64-x64-vc14-debug-dynamic:ioqueue_select.obj
 0001:00045610       pj_ioqueue_set_lock        0000000140046610 f   pjlib-x86_64-x64-vc14-debug-dynamic:ioqueue_select.obj
 0001:000456c0       pj_ioqueue_set_default_concurrency 00000001400466c0 f   pjlib-x86_64-x64-vc14-debug-dynamic:ioqueue_select.obj
 0001:00045720       pj_ioqueue_register_sock   0000000140046720 f   pjlib-x86_64-x64-vc14-debug-dynamic:ioqueue_select.obj
 0001:00045780       pj_ioqueue_register_sock2  0000000140046780 f   pjlib-x86_64-x64-vc14-debug-dynamic:ioqueue_select.obj
 0001:00045a30       pj_ioqueue_unregister      0000000140046a30 f   pjlib-x86_64-x64-vc14-debug-dynamic:ioqueue_select.obj
 0001:00045c40       pj_ioqueue_get_user_data   0000000140046c40 f   pjlib-x86_64-x64-vc14-debug-dynamic:ioqueue_select.obj
 0001:00045ca0       pj_ioqueue_set_user_data   0000000140046ca0 f   pjlib-x86_64-x64-vc14-debug-dynamic:ioqueue_select.obj
 0001:00045d20       pj_ioqueue_set_concurrency 0000000140046d20 f   pjlib-x86_64-x64-vc14-debug-dynamic:ioqueue_select.obj
 0001:00045dd0       pj_ioqueue_lock_key        0000000140046dd0 f   pjlib-x86_64-x64-vc14-debug-dynamic:ioqueue_select.obj
 0001:00045e10       pj_ioqueue_trylock_key     0000000140046e10 f   pjlib-x86_64-x64-vc14-debug-dynamic:ioqueue_select.obj
 0001:00045e50       pj_ioqueue_unlock_key      0000000140046e50 f   pjlib-x86_64-x64-vc14-debug-dynamic:ioqueue_select.obj
 0001:00045e90       pj_ioqueue_op_key_init     0000000140046e90 f   pjlib-x86_64-x64-vc14-debug-dynamic:ioqueue_select.obj
 0001:00045ec0       pj_ioqueue_is_pending      0000000140046ec0 f   pjlib-x86_64-x64-vc14-debug-dynamic:ioqueue_select.obj
 0001:00045f10       pj_ioqueue_post_completion 0000000140046f10 f   pjlib-x86_64-x64-vc14-debug-dynamic:ioqueue_select.obj
 0001:000460f0       pj_ioqueue_accept          00000001400470f0 f   pjlib-x86_64-x64-vc14-debug-dynamic:ioqueue_select.obj
 0001:00046340       pj_ioqueue_connect         0000000140047340 f   pjlib-x86_64-x64-vc14-debug-dynamic:ioqueue_select.obj
 0001:000464a0       pj_ioqueue_poll            00000001400474a0 f   pjlib-x86_64-x64-vc14-debug-dynamic:ioqueue_select.obj
 0001:00046a80       pj_ioqueue_recv            0000000140047a80 f   pjlib-x86_64-x64-vc14-debug-dynamic:ioqueue_select.obj
 0001:00046cb0       pj_ioqueue_recvfrom        0000000140047cb0 f   pjlib-x86_64-x64-vc14-debug-dynamic:ioqueue_select.obj
 0001:00046f20       pj_ioqueue_send            0000000140047f20 f   pjlib-x86_64-x64-vc14-debug-dynamic:ioqueue_select.obj
 0001:00047160       pj_ioqueue_sendto          0000000140048160 f   pjlib-x86_64-x64-vc14-debug-dynamic:ioqueue_select.obj
 0001:000479d0       ioqueue_dispatch_write_event 00000001400489d0 f   pjlib-x86_64-x64-vc14-debug-dynamic:ioqueue_select.obj
 0001:00047ea0       ioqueue_dispatch_read_event 0000000140048ea0 f   pjlib-x86_64-x64-vc14-debug-dynamic:ioqueue_select.obj
 0001:00048240       ioqueue_dispatch_exception_event 0000000140049240 f   pjlib-x86_64-x64-vc14-debug-dynamic:ioqueue_select.obj
 0001:00049400       pj_ntohs                   000000014004a400 f   pjlib-x86_64-x64-vc14-debug-dynamic:sock_bsd.obj
 0001:00049420       pj_htons                   000000014004a420 f   pjlib-x86_64-x64-vc14-debug-dynamic:sock_bsd.obj
 0001:00049440       pj_ntohl                   000000014004a440 f   pjlib-x86_64-x64-vc14-debug-dynamic:sock_bsd.obj
 0001:00049460       pj_htonl                   000000014004a460 f   pjlib-x86_64-x64-vc14-debug-dynamic:sock_bsd.obj
 0001:00049480       pj_inet_ntoa               000000014004a480 f   pjlib-x86_64-x64-vc14-debug-dynamic:sock_bsd.obj
 0001:000494c0       pj_inet_aton               000000014004a4c0 f   pjlib-x86_64-x64-vc14-debug-dynamic:sock_bsd.obj
 0001:000495f0       pj_inet_pton               000000014004a5f0 f   pjlib-x86_64-x64-vc14-debug-dynamic:sock_bsd.obj
 0001:00049890       pj_inet_ntop               000000014004a890 f   pjlib-x86_64-x64-vc14-debug-dynamic:sock_bsd.obj
 0001:00049af0       pj_gethostname             000000014004aaf0 f   pjlib-x86_64-x64-vc14-debug-dynamic:sock_bsd.obj
 0001:00049b80       pj_sock_socket             000000014004ab80 f   pjlib-x86_64-x64-vc14-debug-dynamic:sock_bsd.obj
 0001:00049d20       pj_sock_close              000000014004ad20 f   pjlib-x86_64-x64-vc14-debug-dynamic:sock_bsd.obj
 0001:00049db0       pj_sock_bind               000000014004adb0 f   pjlib-x86_64-x64-vc14-debug-dynamic:sock_bsd.obj
 0001:00049e90       pj_sock_bind_in            000000014004ae90 f   pjlib-x86_64-x64-vc14-debug-dynamic:sock_bsd.obj
 0001:00049f30       pj_sock_listen             000000014004af30 f   pjlib-x86_64-x64-vc14-debug-dynamic:sock_bsd.obj
 0001:00049fc0       pj_sock_accept             000000014004afc0 f   pjlib-x86_64-x64-vc14-debug-dynamic:sock_bsd.obj
 0001:0004a0a0       pj_sock_connect            000000014004b0a0 f   pjlib-x86_64-x64-vc14-debug-dynamic:sock_bsd.obj
 0001:0004a140       pj_sock_getpeername        000000014004b140 f   pjlib-x86_64-x64-vc14-debug-dynamic:sock_bsd.obj
 0001:0004a1e0       pj_sock_getsockname        000000014004b1e0 f   pjlib-x86_64-x64-vc14-debug-dynamic:sock_bsd.obj
 0001:0004a280       pj_sock_getsockopt         000000014004b280 f   pjlib-x86_64-x64-vc14-debug-dynamic:sock_bsd.obj
 0001:0004a380       pj_sock_setsockopt         000000014004b380 f   pjlib-x86_64-x64-vc14-debug-dynamic:sock_bsd.obj
 0001:0004a460       pj_sock_setsockopt_params  000000014004b460 f   pjlib-x86_64-x64-vc14-debug-dynamic:sock_bsd.obj
 0001:0004a5b0       pj_sock_recv               000000014004b5b0 f   pjlib-x86_64-x64-vc14-debug-dynamic:sock_bsd.obj
 0001:0004a6b0       pj_sock_recvfrom           000000014004b6b0 f   pjlib-x86_64-x64-vc14-debug-dynamic:sock_bsd.obj
 0001:0004a7c0       pj_sock_send               000000014004b7c0 f   pjlib-x86_64-x64-vc14-debug-dynamic:sock_bsd.obj
 0001:0004a8b0       pj_sock_sendto             000000014004b8b0 f   pjlib-x86_64-x64-vc14-debug-dynamic:sock_bsd.obj
 0001:0004a9b0       pj_sock_shutdown           000000014004b9b0 f   pjlib-x86_64-x64-vc14-debug-dynamic:sock_bsd.obj
 0001:0004b050       pj_file_exists             000000014004c050 f   pjlib-x86_64-x64-vc14-debug-dynamic:file_access_win32.obj
 0001:0004b0f0       pj_file_size               000000014004c0f0 f   pjlib-x86_64-x64-vc14-debug-dynamic:file_access_win32.obj
 0001:0004b1b0       pj_file_delete             000000014004c1b0 f   pjlib-x86_64-x64-vc14-debug-dynamic:file_access_win32.obj
 0001:0004b260       pj_file_move               000000014004c260 f   pjlib-x86_64-x64-vc14-debug-dynamic:file_access_win32.obj
 0001:0004b330       pj_file_getstat            000000014004c330 f   pjlib-x86_64-x64-vc14-debug-dynamic:file_access_win32.obj
 0001:0004ba70       pj_file_open               000000014004ca70 f   pjlib-x86_64-x64-vc14-debug-dynamic:file_io_win32.obj
 0001:0004bcc0       pj_file_close              000000014004ccc0 f   pjlib-x86_64-x64-vc14-debug-dynamic:file_io_win32.obj
 0001:0004bd30       pj_file_write              000000014004cd30 f   pjlib-x86_64-x64-vc14-debug-dynamic:file_io_win32.obj
 0001:0004bde0       pj_file_read               000000014004cde0 f   pjlib-x86_64-x64-vc14-debug-dynamic:file_io_win32.obj
 0001:0004be90       pj_file_setpos             000000014004ce90 f   pjlib-x86_64-x64-vc14-debug-dynamic:file_io_win32.obj
 0001:0004bf80       pj_file_getpos             000000014004cf80 f   pjlib-x86_64-x64-vc14-debug-dynamic:file_io_win32.obj
 0001:0004c000       pj_file_flush              000000014004d000 f   pjlib-x86_64-x64-vc14-debug-dynamic:file_io_win32.obj
 0001:0004c300       pj_lock_create_simple_mutex 000000014004d300 f   pjlib-x86_64-x64-vc14-debug-dynamic:lock.obj
 0001:0004c340       pj_lock_create_recursive_mutex 000000014004d340 f   pjlib-x86_64-x64-vc14-debug-dynamic:lock.obj
 0001:0004c380       pj_lock_create_null_mutex  000000014004d380 f   pjlib-x86_64-x64-vc14-debug-dynamic:lock.obj
 0001:0004c3f0       pj_lock_create_semaphore   000000014004d3f0 f   pjlib-x86_64-x64-vc14-debug-dynamic:lock.obj
 0001:0004c500       pj_lock_acquire            000000014004d500 f   pjlib-x86_64-x64-vc14-debug-dynamic:lock.obj
 0001:0004c560       pj_lock_tryacquire         000000014004d560 f   pjlib-x86_64-x64-vc14-debug-dynamic:lock.obj
 0001:0004c5c0       pj_lock_release            000000014004d5c0 f   pjlib-x86_64-x64-vc14-debug-dynamic:lock.obj
 0001:0004c620       pj_lock_destroy            000000014004d620 f   pjlib-x86_64-x64-vc14-debug-dynamic:lock.obj
 0001:0004c680       pj_grp_lock_config_default 000000014004d680 f   pjlib-x86_64-x64-vc14-debug-dynamic:lock.obj
 0001:0004c6b0       pj_grp_lock_create         000000014004d6b0 f   pjlib-x86_64-x64-vc14-debug-dynamic:lock.obj
 0001:0004c8a0       pj_grp_lock_create_w_handler 000000014004d8a0 f   pjlib-x86_64-x64-vc14-debug-dynamic:lock.obj
 0001:0004c910       pj_grp_lock_destroy        000000014004d910 f   pjlib-x86_64-x64-vc14-debug-dynamic:lock.obj
 0001:0004c930       pj_grp_lock_replace        000000014004d930 f   pjlib-x86_64-x64-vc14-debug-dynamic:lock.obj
 0001:0004c9f0       pj_grp_lock_acquire        000000014004d9f0 f   pjlib-x86_64-x64-vc14-debug-dynamic:lock.obj
 0001:0004ca10       pj_grp_lock_tryacquire     000000014004da10 f   pjlib-x86_64-x64-vc14-debug-dynamic:lock.obj
 0001:0004ca30       pj_grp_lock_release        000000014004da30 f   pjlib-x86_64-x64-vc14-debug-dynamic:lock.obj
 0001:0004ca50       pj_grp_lock_add_handler    000000014004da50 f   pjlib-x86_64-x64-vc14-debug-dynamic:lock.obj
 0001:0004caa0       pj_grp_lock_del_handler    000000014004daa0 f   pjlib-x86_64-x64-vc14-debug-dynamic:lock.obj
 0001:0004cb40       pj_grp_lock_add_ref        000000014004db40 f   pjlib-x86_64-x64-vc14-debug-dynamic:lock.obj
 0001:0004cb60       pj_grp_lock_dec_ref        000000014004db60 f   pjlib-x86_64-x64-vc14-debug-dynamic:lock.obj
 0001:0004cb80       pj_grp_lock_get_ref        000000014004db80 f   pjlib-x86_64-x64-vc14-debug-dynamic:lock.obj
 0001:0004cbb0       pj_grp_lock_dump           000000014004dbb0 f   pjlib-x86_64-x64-vc14-debug-dynamic:lock.obj
 0001:0004cc00       pj_grp_lock_chain_lock     000000014004dc00 f   pjlib-x86_64-x64-vc14-debug-dynamic:lock.obj
 0001:0004ccf0       pj_grp_lock_unchain_lock   000000014004dcf0 f   pjlib-x86_64-x64-vc14-debug-dynamic:lock.obj
 0001:0004d9f0       pj_exception_id_alloc      000000014004e9f0 f   pjlib-x86_64-x64-vc14-debug-dynamic:except.obj
 0001:0004da70       pj_exception_id_free       000000014004ea70 f   pjlib-x86_64-x64-vc14-debug-dynamic:except.obj
 0001:0004daf0       pj_exception_id_name       000000014004eaf0 f   pjlib-x86_64-x64-vc14-debug-dynamic:except.obj
 0001:0004dba0       pj_throw_exception_        000000014004eba0 f   pjlib-x86_64-x64-vc14-debug-dynamic:except.obj
 0001:0004dc40       pj_push_exception_handler_ 000000014004ec40 f   pjlib-x86_64-x64-vc14-debug-dynamic:except.obj
 0001:0004dce0       pj_pop_exception_handler_  000000014004ece0 f   pjlib-x86_64-x64-vc14-debug-dynamic:except.obj
 0001:0004de70       pj_get_timestamp           000000014004ee70 f   pjlib-x86_64-x64-vc14-debug-dynamic:os_timestamp_win32.obj
 0001:0004def0       pj_get_timestamp_freq      000000014004eef0 f   pjlib-x86_64-x64-vc14-debug-dynamic:os_timestamp_win32.obj
 0001:0004dfa0       pj_gettickcount            000000014004efa0 f   pjlib-x86_64-x64-vc14-debug-dynamic:os_timestamp_common.obj
 0001:0004e000       pj_elapsed_time            000000014004f000 f   pjlib-x86_64-x64-vc14-debug-dynamic:os_timestamp_common.obj
 0001:0004e0c0       pj_elapsed_msec            000000014004f0c0 f   pjlib-x86_64-x64-vc14-debug-dynamic:os_timestamp_common.obj
 0001:0004e0f0       pj_elapsed_msec64          000000014004f0f0 f   pjlib-x86_64-x64-vc14-debug-dynamic:os_timestamp_common.obj
 0001:0004e150       pj_elapsed_usec            000000014004f150 f   pjlib-x86_64-x64-vc14-debug-dynamic:os_timestamp_common.obj
 0001:0004e180       pj_elapsed_nanosec         000000014004f180 f   pjlib-x86_64-x64-vc14-debug-dynamic:os_timestamp_common.obj
 0001:0004e220       pj_elapsed_cycle           000000014004f220 f   pjlib-x86_64-x64-vc14-debug-dynamic:os_timestamp_common.obj
 0001:0004e4f0       pj_srand                   000000014004f4f0 f   pjlib-x86_64-x64-vc14-debug-dynamic:rand.obj
 0001:0004e520       pj_rand                    000000014004f520 f   pjlib-x86_64-x64-vc14-debug-dynamic:rand.obj
 0001:0004e5a0       pj_GUID_STRING_LENGTH      000000014004f5a0 f   pjlib-x86_64-x64-vc14-debug-dynamic:guid_win32.obj
 0001:0004e5b0       pj_generate_unique_string  000000014004f5b0 f   pjlib-x86_64-x64-vc14-debug-dynamic:guid_win32.obj
 0001:0004e7b0       pj_get_version             000000014004f7b0 f   pjlib-x86_64-x64-vc14-debug-dynamic:config.obj
 0001:0004e7c0       pj_dump_config             000000014004f7c0 f   pjlib-x86_64-x64-vc14-debug-dynamic:config.obj
 0001:0004eea0       pj_pool_create_on_buf      000000014004fea0 f   pjlib-x86_64-x64-vc14-debug-dynamic:pool_buf.obj
 0001:0004f190       pj_log_write               0000000140050190 f   pjlib-x86_64-x64-vc14-debug-dynamic:log_writer_stdout.obj
 0001:0004f320       pj_enum_ip_interface       0000000140050320 f   pjlib-x86_64-x64-vc14-debug-dynamic:ip_helper_win32.obj
 0001:0004f460       pj_enum_ip_interface2      0000000140050460 f   pjlib-x86_64-x64-vc14-debug-dynamic:ip_helper_win32.obj
 0001:0004f4d0       pj_enum_ip_route           00000001400504d0 f   pjlib-x86_64-x64-vc14-debug-dynamic:ip_helper_win32.obj
 0001:000503f0       pj_gethostbyname           00000001400513f0 f   pjlib-x86_64-x64-vc14-debug-dynamic:addr_resolv_sock.obj
 0001:00050560       pj_getaddrinfo             0000000140051560 f   pjlib-x86_64-x64-vc14-debug-dynamic:addr_resolv_sock.obj
 0001:00050940       pj_time_val_normalize      0000000140051940 f   pjlib-x86_64-x64-vc14-debug-dynamic:types.obj
 0001:00050ab0       PJ_FD_ZERO                 0000000140051ab0 f   pjlib-x86_64-x64-vc14-debug-dynamic:sock_select.obj
 0001:00050b00       PJ_FD_COUNT                0000000140051b00 f   pjlib-x86_64-x64-vc14-debug-dynamic:sock_select.obj
 0001:00050b20       PJ_FD_SET                  0000000140051b20 f   pjlib-x86_64-x64-vc14-debug-dynamic:sock_select.obj
 0001:00050c60       PJ_FD_CLR                  0000000140051c60 f   pjlib-x86_64-x64-vc14-debug-dynamic:sock_select.obj
 0001:00050dc0       PJ_FD_ISSET                0000000140051dc0 f   pjlib-x86_64-x64-vc14-debug-dynamic:sock_select.obj
 0001:00050e20       pj_sock_select             0000000140051e20 f   pjlib-x86_64-x64-vc14-debug-dynamic:sock_select.obj
 0001:00051080       res_SrcLinear              0000000140052080 f   libresample-x86_64-x64-vc14-debug-dynamic:resamplesubs.obj
 0001:000510c0       res_Resample               00000001400520c0 f   libresample-x86_64-x64-vc14-debug-dynamic:resamplesubs.obj
 0001:00051290       res_GetXOFF                0000000140052290 f   libresample-x86_64-x64-vc14-debug-dynamic:resamplesubs.obj
 0001:000521d0       speex_echo_state_init      00000001400531d0 f   libspeex-x86_64-x64-vc14-debug-dynamic:mdf.obj
 0001:00052200       speex_echo_state_init_mc   0000000140053200 f   libspeex-x86_64-x64-vc14-debug-dynamic:mdf.obj
 0001:00052a50       speex_echo_state_destroy   0000000140053a50 f   libspeex-x86_64-x64-vc14-debug-dynamic:mdf.obj
 0001:00052c30       speex_echo_cancellation    0000000140053c30 f   libspeex-x86_64-x64-vc14-debug-dynamic:mdf.obj
 0001:00055640       speex_echo_cancel          0000000140056640 f   libspeex-x86_64-x64-vc14-debug-dynamic:mdf.obj
 0001:00055680       speex_echo_capture         0000000140056680 f   libspeex-x86_64-x64-vc14-debug-dynamic:mdf.obj
 0001:00055820       speex_echo_playback        0000000140056820 f   libspeex-x86_64-x64-vc14-debug-dynamic:mdf.obj
 0001:000559e0       speex_echo_state_reset     00000001400569e0 f   libspeex-x86_64-x64-vc14-debug-dynamic:mdf.obj
 0001:00055db0       speex_echo_ctl             0000000140056db0 f   libspeex-x86_64-x64-vc14-debug-dynamic:mdf.obj
 0001:000560c0       speex_echo_get_residual    00000001400570c0 f   libspeex-x86_64-x64-vc14-debug-dynamic:mdf.obj
 0001:000580b0       speex_decorrelate_new      00000001400590b0 f   libspeex-x86_64-x64-vc14-debug-dynamic:scal.obj
 0001:00058330       speex_decorrelate          0000000140059330 f   libspeex-x86_64-x64-vc14-debug-dynamic:scal.obj
 0001:00058c20       speex_decorrelate_destroy  0000000140059c20 f   libspeex-x86_64-x64-vc14-debug-dynamic:scal.obj
 0001:000590d0       speex_preprocess_state_init 000000014005a0d0 f   libspeex-x86_64-x64-vc14-debug-dynamic:preprocess.obj
 0001:00059a10       speex_preprocess_state_destroy 000000014005aa10 f   libspeex-x86_64-x64-vc14-debug-dynamic:preprocess.obj
 0001:00059bc0       speex_preprocess_run       000000014005abc0 f   libspeex-x86_64-x64-vc14-debug-dynamic:preprocess.obj
 0001:0005b690       speex_preprocess           000000014005c690 f   libspeex-x86_64-x64-vc14-debug-dynamic:preprocess.obj
 0001:0005b6c0       speex_preprocess_estimate_update 000000014005c6c0 f   libspeex-x86_64-x64-vc14-debug-dynamic:preprocess.obj
 0001:0005b930       speex_preprocess_ctl       000000014005c930 f   libspeex-x86_64-x64-vc14-debug-dynamic:preprocess.obj
 0001:0005e590       spx_fft_init               000000014005f590 f   libspeex-x86_64-x64-vc14-debug-dynamic:fftwrap.obj
 0001:0005e5d0       spx_fft_destroy            000000014005f5d0 f   libspeex-x86_64-x64-vc14-debug-dynamic:fftwrap.obj
 0001:0005e600       spx_fft                    000000014005f600 f   libspeex-x86_64-x64-vc14-debug-dynamic:fftwrap.obj
 0001:0005e740       spx_ifft                   000000014005f740 f   libspeex-x86_64-x64-vc14-debug-dynamic:fftwrap.obj
 0001:0005e7f0       spx_fft_float              000000014005f7f0 f   libspeex-x86_64-x64-vc14-debug-dynamic:fftwrap.obj
 0001:0005e830       spx_ifft_float             000000014005f830 f   libspeex-x86_64-x64-vc14-debug-dynamic:fftwrap.obj
 0001:0005e930       filterbank_new             000000014005f930 f   libspeex-x86_64-x64-vc14-debug-dynamic:filterbank.obj
 0001:0005ee40       filterbank_destroy         000000014005fe40 f   libspeex-x86_64-x64-vc14-debug-dynamic:filterbank.obj
 0001:0005eeb0       filterbank_compute_bank32  000000014005feb0 f   libspeex-x86_64-x64-vc14-debug-dynamic:filterbank.obj
 0001:0005efe0       filterbank_compute_psd16   000000014005ffe0 f   libspeex-x86_64-x64-vc14-debug-dynamic:filterbank.obj
 0001:0005f0d0       filterbank_compute_bank    00000001400600d0 f   libspeex-x86_64-x64-vc14-debug-dynamic:filterbank.obj
 0001:0005f250       filterbank_compute_psd     0000000140060250 f   libspeex-x86_64-x64-vc14-debug-dynamic:filterbank.obj
 0001:0005f390       filterbank_psy_smooth      0000000140060390 f   libspeex-x86_64-x64-vc14-debug-dynamic:filterbank.obj
 0001:0005f7c0       spx_drft_forward           00000001400607c0 f   libspeex-x86_64-x64-vc14-debug-dynamic:smallft.obj
 0001:0005f830       spx_drft_backward          0000000140060830 f   libspeex-x86_64-x64-vc14-debug-dynamic:smallft.obj
 0001:0005f8a0       spx_drft_init              00000001400608a0 f   libspeex-x86_64-x64-vc14-debug-dynamic:smallft.obj
 0001:0005f910       spx_drft_clear             0000000140060910 f   libspeex-x86_64-x64-vc14-debug-dynamic:smallft.obj
 0001:00066ce0       srtp_init                  0000000140067ce0 f   libsrtp-x86_64-x64-vc14-debug-dynamic:srtp.obj
 0001:00066d30       srtp_shutdown              0000000140067d30 f   libsrtp-x86_64-x64-vc14-debug-dynamic:srtp.obj
 0001:00066d60       srtp_protect               0000000140067d60 f   libsrtp-x86_64-x64-vc14-debug-dynamic:srtp.obj
 0001:00066da0       srtp_protect_mki           0000000140067da0 f   libsrtp-x86_64-x64-vc14-debug-dynamic:srtp.obj
 0001:000677c0       srtp_unprotect             00000001400687c0 f   libsrtp-x86_64-x64-vc14-debug-dynamic:srtp.obj
 0001:00067800       srtp_unprotect_mki         0000000140068800 f   libsrtp-x86_64-x64-vc14-debug-dynamic:srtp.obj
 0001:00068310       srtp_create                0000000140069310 f   libsrtp-x86_64-x64-vc14-debug-dynamic:srtp.obj
 0001:000683f0       srtp_add_stream            00000001400693f0 f   libsrtp-x86_64-x64-vc14-debug-dynamic:srtp.obj
 0001:00068550       srtp_remove_stream         0000000140069550 f   libsrtp-x86_64-x64-vc14-debug-dynamic:srtp.obj
 0001:00068630       srtp_update                0000000140069630 f   libsrtp-x86_64-x64-vc14-debug-dynamic:srtp.obj
 0001:000686b0       srtp_update_stream         00000001400696b0 f   libsrtp-x86_64-x64-vc14-debug-dynamic:srtp.obj
 0001:00068750       srtp_crypto_policy_set_rtp_default 0000000140069750 f   libsrtp-x86_64-x64-vc14-debug-dynamic:srtp.obj
 0001:000687b0       srtp_crypto_policy_set_rtcp_default 00000001400697b0 f   libsrtp-x86_64-x64-vc14-debug-dynamic:srtp.obj
 0001:00068810       srtp_crypto_policy_set_aes_cm_128_hmac_sha1_32 0000000140069810 f   libsrtp-x86_64-x64-vc14-debug-dynamic:srtp.obj
 0001:00068870       srtp_crypto_policy_set_aes_cm_128_null_auth 0000000140069870 f   libsrtp-x86_64-x64-vc14-debug-dynamic:srtp.obj
 0001:000688d0       srtp_crypto_policy_set_null_cipher_hmac_sha1_80 00000001400698d0 f   libsrtp-x86_64-x64-vc14-debug-dynamic:srtp.obj
 0001:00068930       srtp_crypto_policy_set_null_cipher_hmac_null 0000000140069930 f   libsrtp-x86_64-x64-vc14-debug-dynamic:srtp.obj
 0001:00068990       srtp_crypto_policy_set_aes_cm_256_hmac_sha1_80 0000000140069990 f   libsrtp-x86_64-x64-vc14-debug-dynamic:srtp.obj
 0001:000689f0       srtp_crypto_policy_set_aes_cm_256_hmac_sha1_32 00000001400699f0 f   libsrtp-x86_64-x64-vc14-debug-dynamic:srtp.obj
 0001:00068a50       srtp_crypto_policy_set_aes_cm_256_null_auth 0000000140069a50 f   libsrtp-x86_64-x64-vc14-debug-dynamic:srtp.obj
 0001:00068ab0       srtp_dealloc               0000000140069ab0 f   libsrtp-x86_64-x64-vc14-debug-dynamic:srtp.obj
 0001:00068b50       srtp_crypto_policy_set_from_profile_for_rtp 0000000140069b50 f   libsrtp-x86_64-x64-vc14-debug-dynamic:srtp.obj
 0001:00068bc0       srtp_crypto_policy_set_from_profile_for_rtcp 0000000140069bc0 f   libsrtp-x86_64-x64-vc14-debug-dynamic:srtp.obj
 0001:00068c30       srtp_profile_get_master_key_length 0000000140069c30 f   libsrtp-x86_64-x64-vc14-debug-dynamic:srtp.obj
 0001:00068cc0       srtp_profile_get_master_salt_length 0000000140069cc0 f   libsrtp-x86_64-x64-vc14-debug-dynamic:srtp.obj
 0001:00068d50       srtp_append_salt_to_key    0000000140069d50 f   libsrtp-x86_64-x64-vc14-debug-dynamic:srtp.obj
 0001:00068da0       srtp_protect_rtcp          0000000140069da0 f   libsrtp-x86_64-x64-vc14-debug-dynamic:srtp.obj
 0001:00068de0       srtp_protect_rtcp_mki      0000000140069de0 f   libsrtp-x86_64-x64-vc14-debug-dynamic:srtp.obj
 0001:000694b0       srtp_unprotect_rtcp        000000014006a4b0 f   libsrtp-x86_64-x64-vc14-debug-dynamic:srtp.obj
 0001:000694f0       srtp_unprotect_rtcp_mki    000000014006a4f0 f   libsrtp-x86_64-x64-vc14-debug-dynamic:srtp.obj
 0001:00069dd0       srtp_set_user_data         000000014006add0 f   libsrtp-x86_64-x64-vc14-debug-dynamic:srtp.obj
 0001:00069df0       srtp_get_user_data         000000014006adf0 f   libsrtp-x86_64-x64-vc14-debug-dynamic:srtp.obj
 0001:00069e10       srtp_install_event_handler 000000014006ae10 f   libsrtp-x86_64-x64-vc14-debug-dynamic:srtp.obj
 0001:00069e30       srtp_get_version_string    000000014006ae30 f   libsrtp-x86_64-x64-vc14-debug-dynamic:srtp.obj
 0001:00069e40       srtp_get_version           000000014006ae40 f   libsrtp-x86_64-x64-vc14-debug-dynamic:srtp.obj
 0001:00069ef0       srtp_set_debug_module      000000014006aef0 f   libsrtp-x86_64-x64-vc14-debug-dynamic:srtp.obj
 0001:00069f20       srtp_list_debug_modules    000000014006af20 f   libsrtp-x86_64-x64-vc14-debug-dynamic:srtp.obj
 0001:00069f40       srtp_install_log_handler   000000014006af40 f   libsrtp-x86_64-x64-vc14-debug-dynamic:srtp.obj
 0001:00069fa0       srtp_get_protect_trailer_length 000000014006afa0 f   libsrtp-x86_64-x64-vc14-debug-dynamic:srtp.obj
 0001:0006a0b0       srtp_get_protect_rtcp_trailer_length 000000014006b0b0 f   libsrtp-x86_64-x64-vc14-debug-dynamic:srtp.obj
 0001:0006a1e0       srtp_set_stream_roc        000000014006b1e0 f   libsrtp-x86_64-x64-vc14-debug-dynamic:srtp.obj
 0001:0006a240       srtp_get_stream_roc        000000014006b240 f   libsrtp-x86_64-x64-vc14-debug-dynamic:srtp.obj
 0001:0006a310       srtp_get_stream            000000014006b310 f   libsrtp-x86_64-x64-vc14-debug-dynamic:srtp.obj
 0001:0006a360       srtp_stream_init_keys      000000014006b360 f   libsrtp-x86_64-x64-vc14-debug-dynamic:srtp.obj
 0001:0006af00       srtp_stream_init           000000014006bf00 f   libsrtp-x86_64-x64-vc14-debug-dynamic:srtp.obj
 0001:0006b340       srtp_stream_alloc          000000014006c340 f   libsrtp-x86_64-x64-vc14-debug-dynamic:srtp.obj
 0001:0006b7d0       srtp_stream_dealloc        000000014006c7d0 f   libsrtp-x86_64-x64-vc14-debug-dynamic:srtp.obj
 0001:0006bb00       srtp_stream_clone          000000014006cb00 f   libsrtp-x86_64-x64-vc14-debug-dynamic:srtp.obj
 0001:0006c130       srtp_validate_policy_master_keys 000000014006d130 f   libsrtp-x86_64-x64-vc14-debug-dynamic:srtp.obj
 0001:0006c1e0       srtp_get_session_keys_with_mki_index 000000014006d1e0 f   libsrtp-x86_64-x64-vc14-debug-dynamic:srtp.obj
 0001:0006c230       srtp_inject_mki            000000014006d230 f   libsrtp-x86_64-x64-vc14-debug-dynamic:srtp.obj
 0001:0006c290       srtp_stream_init_all_master_keys 000000014006d290 f   libsrtp-x86_64-x64-vc14-debug-dynamic:srtp.obj
 0001:0006c380       srtp_event_reporter        000000014006d380 f   libsrtp-x86_64-x64-vc14-debug-dynamic:srtp.obj
 0001:0006ca50       srtp_get_session_keys      000000014006da50 f   libsrtp-x86_64-x64-vc14-debug-dynamic:srtp.obj
 0001:0006e6a0       srtp_err_handler           000000014006f6a0 f   libsrtp-x86_64-x64-vc14-debug-dynamic:srtp.obj
 0001:000705c0       __local_stdio_scanf_options 00000001400715c0 f i libsrtp-x86_64-x64-vc14-debug-dynamic:srtp.obj
 0001:000705d0       _vsscanf_l                 00000001400715d0 f i libsrtp-x86_64-x64-vc14-debug-dynamic:srtp.obj
 0001:00070640       sscanf                     0000000140071640 f i libsrtp-x86_64-x64-vc14-debug-dynamic:srtp.obj
 0001:000706b0       srtp_crypto_alloc          00000001400716b0 f   libsrtp-x86_64-x64-vc14-debug-dynamic:alloc.obj
 0001:00070730       srtp_crypto_free           0000000140071730 f   libsrtp-x86_64-x64-vc14-debug-dynamic:alloc.obj
 0001:000707a0       octet_get_weight           00000001400717a0 f   libsrtp-x86_64-x64-vc14-debug-dynamic:datatypes.obj
 0001:000707c0       srtp_octet_string_hex_string 00000001400717c0 f   libsrtp-x86_64-x64-vc14-debug-dynamic:datatypes.obj
 0001:000708b0       v128_bit_string            00000001400718b0 f   libsrtp-x86_64-x64-vc14-debug-dynamic:datatypes.obj
 0001:00070990       v128_hex_string            0000000140071990 f   libsrtp-x86_64-x64-vc14-debug-dynamic:datatypes.obj
 0001:00070a60       v128_copy_octet_string     0000000140071a60 f   libsrtp-x86_64-x64-vc14-debug-dynamic:datatypes.obj
 0001:00070cc0       v128_left_shift            0000000140071cc0 f   libsrtp-x86_64-x64-vc14-debug-dynamic:datatypes.obj
 0001:00070e80       v128_right_shift           0000000140071e80 f   libsrtp-x86_64-x64-vc14-debug-dynamic:datatypes.obj
 0001:00071030       octet_string_is_eq         0000000140072030 f   libsrtp-x86_64-x64-vc14-debug-dynamic:datatypes.obj
 0001:000710d0       srtp_cleanse               00000001400720d0 f   libsrtp-x86_64-x64-vc14-debug-dynamic:datatypes.obj
 0001:00071130       octet_string_set_to_zero   0000000140072130 f   libsrtp-x86_64-x64-vc14-debug-dynamic:datatypes.obj
 0001:00071160       bitvector_alloc            0000000140072160 f   libsrtp-x86_64-x64-vc14-debug-dynamic:datatypes.obj
 0001:00071210       bitvector_dealloc          0000000140072210 f   libsrtp-x86_64-x64-vc14-debug-dynamic:datatypes.obj
 0001:00071260       bitvector_set_to_zero      0000000140072260 f   libsrtp-x86_64-x64-vc14-debug-dynamic:datatypes.obj
 0001:000712a0       bitvector_left_shift       00000001400722a0 f   libsrtp-x86_64-x64-vc14-debug-dynamic:datatypes.obj
 0001:00071480       bitvector_bit_string       0000000140072480 f   libsrtp-x86_64-x64-vc14-debug-dynamic:datatypes.obj
 0001:00071560       srtp_nibble_to_hex_char    0000000140072560 f   libsrtp-x86_64-x64-vc14-debug-dynamic:datatypes.obj
 0001:00071980       srtp_err_reporting_init    0000000140072980 f   libsrtp-x86_64-x64-vc14-debug-dynamic:srtp_err.obj
 0001:00071990       srtp_install_err_report_handler 0000000140072990 f   libsrtp-x86_64-x64-vc14-debug-dynamic:srtp_err.obj
 0001:000719a0       srtp_err_report            00000001400729a0 f   libsrtp-x86_64-x64-vc14-debug-dynamic:srtp_err.obj
 0001:00071a00       srtp_err_reporting_set_level 0000000140072a00 f   libsrtp-x86_64-x64-vc14-debug-dynamic:srtp_err.obj
 0001:00071a40       srtp_rdbx_init             0000000140072a40 f   libsrtp-x86_64-x64-vc14-debug-dynamic:rdbx.obj
 0001:00071aa0       srtp_rdbx_dealloc          0000000140072aa0 f   libsrtp-x86_64-x64-vc14-debug-dynamic:rdbx.obj
 0001:00071ad0       srtp_rdbx_estimate_index   0000000140072ad0 f   libsrtp-x86_64-x64-vc14-debug-dynamic:rdbx.obj
 0001:00071b40       srtp_rdbx_check            0000000140072b40 f   libsrtp-x86_64-x64-vc14-debug-dynamic:rdbx.obj
 0001:00071be0       srtp_rdbx_add_index        0000000140072be0 f   libsrtp-x86_64-x64-vc14-debug-dynamic:rdbx.obj
 0001:00071d00       srtp_rdbx_set_roc          0000000140072d00 f   libsrtp-x86_64-x64-vc14-debug-dynamic:rdbx.obj
 0001:00071d80       srtp_rdbx_get_packet_index 0000000140072d80 f   libsrtp-x86_64-x64-vc14-debug-dynamic:rdbx.obj
 0001:00071da0       srtp_rdbx_get_window_size  0000000140072da0 f   libsrtp-x86_64-x64-vc14-debug-dynamic:rdbx.obj
 0001:00071dc0       srtp_index_init            0000000140072dc0 f   libsrtp-x86_64-x64-vc14-debug-dynamic:rdbx.obj
 0001:00071de0       srtp_index_advance         0000000140072de0 f   libsrtp-x86_64-x64-vc14-debug-dynamic:rdbx.obj
 0001:00071e10       srtp_index_guess           0000000140072e10 f   libsrtp-x86_64-x64-vc14-debug-dynamic:rdbx.obj
 0001:00071f30       srtp_rdbx_get_roc          0000000140072f30 f   libsrtp-x86_64-x64-vc14-debug-dynamic:rdbx.obj
 0001:00071f60       srtp_rdbx_set_roc_seq      0000000140072f60 f   libsrtp-x86_64-x64-vc14-debug-dynamic:rdbx.obj
 0001:00072140       srtp_rdb_init              0000000140073140 f   libsrtp-x86_64-x64-vc14-debug-dynamic:rdb.obj
 0001:000721c0       srtp_rdb_check             00000001400731c0 f   libsrtp-x86_64-x64-vc14-debug-dynamic:rdb.obj
 0001:00072250       srtp_rdb_add_index         0000000140073250 f   libsrtp-x86_64-x64-vc14-debug-dynamic:rdb.obj
 0001:00072320       srtp_rdb_increment         0000000140073320 f   libsrtp-x86_64-x64-vc14-debug-dynamic:rdb.obj
 0001:00072360       srtp_rdb_get_value         0000000140073360 f   libsrtp-x86_64-x64-vc14-debug-dynamic:rdb.obj
 0001:00072400       srtp_cipher_get_key_length 0000000140073400 f   libsrtp-x86_64-x64-vc14-debug-dynamic:cipher.obj
 0001:00072420       srtp_cipher_type_self_test 0000000140073420 f   libsrtp-x86_64-x64-vc14-debug-dynamic:cipher.obj
 0001:00072450       srtp_cipher_type_test      0000000140073450 f   libsrtp-x86_64-x64-vc14-debug-dynamic:cipher.obj
 0001:000732b0       srtp_cipher_bits_per_second 00000001400742b0 f   libsrtp-x86_64-x64-vc14-debug-dynamic:cipher.obj
 0001:00073430       srtp_cipher_type_alloc     0000000140074430 f   libsrtp-x86_64-x64-vc14-debug-dynamic:cipher.obj
 0001:00073490       srtp_cipher_dealloc        0000000140074490 f   libsrtp-x86_64-x64-vc14-debug-dynamic:cipher.obj
 0001:000734d0       srtp_cipher_init           00000001400744d0 f   libsrtp-x86_64-x64-vc14-debug-dynamic:cipher.obj
 0001:00073530       srtp_cipher_set_iv         0000000140074530 f   libsrtp-x86_64-x64-vc14-debug-dynamic:cipher.obj
 0001:000735a0       srtp_cipher_output         00000001400745a0 f   libsrtp-x86_64-x64-vc14-debug-dynamic:cipher.obj
 0001:000735f0       srtp_cipher_encrypt        00000001400745f0 f   libsrtp-x86_64-x64-vc14-debug-dynamic:cipher.obj
 0001:00073660       srtp_cipher_decrypt        0000000140074660 f   libsrtp-x86_64-x64-vc14-debug-dynamic:cipher.obj
 0001:000736d0       srtp_cipher_get_tag        00000001400746d0 f   libsrtp-x86_64-x64-vc14-debug-dynamic:cipher.obj
 0001:00073750       srtp_cipher_set_aad        0000000140074750 f   libsrtp-x86_64-x64-vc14-debug-dynamic:cipher.obj
 0001:00073d40       srtp_auth_get_key_length   0000000140074d40 f   libsrtp-x86_64-x64-vc14-debug-dynamic:auth.obj
 0001:00073d60       srtp_auth_get_tag_length   0000000140074d60 f   libsrtp-x86_64-x64-vc14-debug-dynamic:auth.obj
 0001:00073d80       srtp_auth_get_prefix_length 0000000140074d80 f   libsrtp-x86_64-x64-vc14-debug-dynamic:auth.obj
 0001:00073da0       srtp_auth_type_self_test   0000000140074da0 f   libsrtp-x86_64-x64-vc14-debug-dynamic:auth.obj
 0001:00073dd0       srtp_auth_type_test        0000000140074dd0 f   libsrtp-x86_64-x64-vc14-debug-dynamic:auth.obj
 0001:00074260       srtp_key_limit_set         0000000140075260 f   libsrtp-x86_64-x64-vc14-debug-dynamic:key.obj
 0001:000742a0       srtp_key_limit_clone       00000001400752a0 f   libsrtp-x86_64-x64-vc14-debug-dynamic:key.obj
 0001:000742d0       srtp_key_limit_check       00000001400752d0 f   libsrtp-x86_64-x64-vc14-debug-dynamic:key.obj
 0001:000742f0       srtp_key_limit_update      00000001400752f0 f   libsrtp-x86_64-x64-vc14-debug-dynamic:key.obj
 0001:000743a0       srtp_replace_cipher_type   00000001400753a0 f   libsrtp-x86_64-x64-vc14-debug-dynamic:crypto_kernel.obj
 0001:000743d0       srtp_replace_auth_type     00000001400753d0 f   libsrtp-x86_64-x64-vc14-debug-dynamic:crypto_kernel.obj
 0001:00074400       srtp_crypto_kernel_init    0000000140075400 f   libsrtp-x86_64-x64-vc14-debug-dynamic:crypto_kernel.obj
 0001:000745d0       srtp_crypto_kernel_shutdown 00000001400755d0 f   libsrtp-x86_64-x64-vc14-debug-dynamic:crypto_kernel.obj
 0001:00074710       srtp_crypto_kernel_status  0000000140075710 f   libsrtp-x86_64-x64-vc14-debug-dynamic:crypto_kernel.obj
 0001:00074870       srtp_crypto_kernel_list_debug_modules 0000000140075870 f   libsrtp-x86_64-x64-vc14-debug-dynamic:crypto_kernel.obj
 0001:00074910       srtp_crypto_kernel_load_cipher_type 0000000140075910 f   libsrtp-x86_64-x64-vc14-debug-dynamic:crypto_kernel.obj
 0001:00074940       srtp_crypto_kernel_load_auth_type 0000000140075940 f   libsrtp-x86_64-x64-vc14-debug-dynamic:crypto_kernel.obj
 0001:00074970       srtp_crypto_kernel_load_debug_module 0000000140075970 f   libsrtp-x86_64-x64-vc14-debug-dynamic:crypto_kernel.obj
 0001:00074a30       srtp_crypto_kernel_alloc_cipher 0000000140075a30 f   libsrtp-x86_64-x64-vc14-debug-dynamic:crypto_kernel.obj
 0001:00074aa0       srtp_crypto_kernel_alloc_auth 0000000140075aa0 f   libsrtp-x86_64-x64-vc14-debug-dynamic:crypto_kernel.obj
 0001:00074b10       srtp_crypto_kernel_set_debug_module 0000000140075b10 f   libsrtp-x86_64-x64-vc14-debug-dynamic:crypto_kernel.obj
 0001:00074cf0       srtp_crypto_kernel_do_load_auth_type 0000000140075cf0 f   libsrtp-x86_64-x64-vc14-debug-dynamic:crypto_kernel.obj
 0001:00074e50       srtp_crypto_kernel_get_cipher_type 0000000140075e50 f   libsrtp-x86_64-x64-vc14-debug-dynamic:crypto_kernel.obj
 0001:00074ea0       srtp_crypto_kernel_get_auth_type 0000000140075ea0 f   libsrtp-x86_64-x64-vc14-debug-dynamic:crypto_kernel.obj
 0001:000751c0       srtp_ekt_octets_after_base_tag 00000001400761c0 f   libsrtp-x86_64-x64-vc14-debug-dynamic:ekt.obj
 0001:00075200       srtp_ekt_alloc             0000000140076200 f   libsrtp-x86_64-x64-vc14-debug-dynamic:ekt.obj
 0001:00075240       srtp_ekt_stream_init_from_policy 0000000140076240 f   libsrtp-x86_64-x64-vc14-debug-dynamic:ekt.obj
 0001:00075260       srtp_stream_init_from_ekt  0000000140076260 f   libsrtp-x86_64-x64-vc14-debug-dynamic:ekt.obj
 0001:000753b0       srtp_ekt_write_data        00000001400763b0 f   libsrtp-x86_64-x64-vc14-debug-dynamic:ekt.obj
 0001:00075680       aes_decrypt_with_raw_key   0000000140076680 f   libsrtp-x86_64-x64-vc14-debug-dynamic:ekt.obj
 0001:00075700       srtcp_ekt_trailer          0000000140076700 f   libsrtp-x86_64-x64-vc14-debug-dynamic:ekt.obj
 0001:00075870       stat_test_monobit          0000000140076870 f   libsrtp-x86_64-x64-vc14-debug-dynamic:stat.obj
 0001:00075920       stat_test_poker            0000000140076920 f   libsrtp-x86_64-x64-vc14-debug-dynamic:stat.obj
 0001:00075b20       stat_test_runs             0000000140076b20 f   libsrtp-x86_64-x64-vc14-debug-dynamic:stat.obj
 0001:00077de0       srtp_aes_expand_encryption_key 0000000140078de0 f   libsrtp-x86_64-x64-vc14-debug-dynamic:aes.obj
 0001:00077e50       srtp_aes_expand_decryption_key 0000000140078e50 f   libsrtp-x86_64-x64-vc14-debug-dynamic:aes.obj
 0001:00078670       srtp_aes_encrypt           0000000140079670 f   libsrtp-x86_64-x64-vc14-debug-dynamic:aes.obj
 0001:000789b0       srtp_aes_decrypt           00000001400799b0 f   libsrtp-x86_64-x64-vc14-debug-dynamic:aes.obj
 0001:0007ab10       srtp_sha1_init             000000014007bb10 f   libsrtp-x86_64-x64-vc14-debug-dynamic:sha1.obj
 0001:0007aba0       srtp_sha1_update           000000014007bba0 f   libsrtp-x86_64-x64-vc14-debug-dynamic:sha1.obj
 0001:0007ad50       srtp_sha1_final            000000014007bd50 f   libsrtp-x86_64-x64-vc14-debug-dynamic:sha1.obj
 0001:0007b950       srtp_sha1_core             000000014007c950 f   libsrtp-x86_64-x64-vc14-debug-dynamic:sha1.obj
 0001:0007c580       srtp_sha1                  000000014007d580 f   libsrtp-x86_64-x64-vc14-debug-dynamic:sha1.obj
 0001:0007ccae       CoCreateGuid               000000014007dcae f   ole32:ole32.dll
 0001:0007ccb4       WSAStartup                 000000014007dcb4 f   ws2_32:WS2_32.dll
 0001:0007ccba       WSACleanup                 000000014007dcba f   ws2_32:WS2_32.dll
 0001:0007ccc0       WSAGetLastError            000000014007dcc0 f   ws2_32:WS2_32.dll
 0001:0007ccc6       WSASetLastError            000000014007dcc6 f   ws2_32:WS2_32.dll
 0001:0007cccc       ioctlsocket                000000014007dccc f   ws2_32:WS2_32.dll
 0001:0007ccd2       accept                     000000014007dcd2 f   ws2_32:WS2_32.dll
 0001:0007ccd8       bind                       000000014007dcd8 f   ws2_32:WS2_32.dll
 0001:0007ccde       closesocket                000000014007dcde f   ws2_32:WS2_32.dll
 0001:0007cce4       connect                    000000014007dce4 f   ws2_32:WS2_32.dll
 0001:0007ccea       getpeername                000000014007dcea f   ws2_32:WS2_32.dll
 0001:0007ccf0       getsockname                000000014007dcf0 f   ws2_32:WS2_32.dll
 0001:0007ccf6       getsockopt                 000000014007dcf6 f   ws2_32:WS2_32.dll
 0001:0007ccfc       htonl                      000000014007dcfc f   ws2_32:WS2_32.dll
 0001:0007cd02       htons                      000000014007dd02 f   ws2_32:WS2_32.dll
 0001:0007cd08       inet_addr                  000000014007dd08 f   ws2_32:WS2_32.dll
 0001:0007cd0e       inet_ntoa                  000000014007dd0e f   ws2_32:WS2_32.dll
 0001:0007cd14       listen                     000000014007dd14 f   ws2_32:WS2_32.dll
 0001:0007cd1a       ntohl                      000000014007dd1a f   ws2_32:WS2_32.dll
 0001:0007cd20       ntohs                      000000014007dd20 f   ws2_32:WS2_32.dll
 0001:0007cd26       recv                       000000014007dd26 f   ws2_32:WS2_32.dll
 0001:0007cd2c       recvfrom                   000000014007dd2c f   ws2_32:WS2_32.dll
 0001:0007cd32       send                       000000014007dd32 f   ws2_32:WS2_32.dll
 0001:0007cd38       sendto                     000000014007dd38 f   ws2_32:WS2_32.dll
 0001:0007cd3e       setsockopt                 000000014007dd3e f   ws2_32:WS2_32.dll
 0001:0007cd44       shutdown                   000000014007dd44 f   ws2_32:WS2_32.dll
 0001:0007cd4a       gethostname                000000014007dd4a f   ws2_32:WS2_32.dll
 0001:0007cd50       WSAIoctl                   000000014007dd50 f   ws2_32:WS2_32.dll
 0001:0007cd56       WSASocketA                 000000014007dd56 f   ws2_32:WS2_32.dll
 0001:0007cd5c       WSAAddressToStringA        000000014007dd5c f   ws2_32:WS2_32.dll
 0001:0007cd62       WSAStringToAddressA        000000014007dd62 f   ws2_32:WS2_32.dll
 0001:0007cd68       gethostbyname              000000014007dd68 f   ws2_32:WS2_32.dll
 0001:0007cd6e       __WSAFDIsSet               000000014007dd6e f   ws2_32:WS2_32.dll
 0001:0007cd74       select                     000000014007dd74 f   ws2_32:WS2_32.dll
 0001:0007cd80       __raise_securityfailure    000000014007dd80 f   MSVCRTD:gs_report.obj
 0001:0007cdd0       __report_gsfailure         000000014007ddd0 f   MSVCRTD:gs_report.obj
 0001:0007cee0       __report_rangecheckfailure 000000014007dee0 f   MSVCRTD:gs_report.obj
 0001:0007cf00       __report_securityfailure   000000014007df00 f   MSVCRTD:gs_report.obj
 0001:0007cfd0       __report_securityfailureEx 000000014007dfd0 f   MSVCRTD:gs_report.obj
 0001:0007d2d0       __GSHandlerCheck           000000014007e2d0 f   MSVCRTD:gshandler.obj
 0001:0007d320       __GSHandlerCheckCommon     000000014007e320 f   MSVCRTD:gshandler.obj
 0001:0007d470       _alloca_probe              000000014007e470 f   MSVCRTD:chkstk.obj
 0001:0007d470       __chkstk                   000000014007e470 f   MSVCRTD:chkstk.obj
 0001:0007d4f0       __security_check_cookie    000000014007e4f0 f   MSVCRTD:amdsecgs.obj
 0001:0007d870       ?configure_argv@__scrt_narrow_argv_policy@@SAHXZ 000000014007e870 f i MSVCRTD:exe_main.obj
 0001:0007d890       ?initialize_environment@__scrt_narrow_environment_policy@@SAHXZ 000000014007e890 f i MSVCRTD:exe_main.obj
 0001:0007d900       ?set_app_type@__scrt_main_policy@@SAXXZ 000000014007e900 f i MSVCRTD:exe_main.obj
 0001:0007d920       ?set_commode@__scrt_file_policy@@SAXXZ 000000014007e920 f i MSVCRTD:exe_main.obj
 0001:0007d950       ?set_fmode@__scrt_file_policy@@SAXXZ 000000014007e950 f i MSVCRTD:exe_main.obj
 0001:0007d970       mainCRTStartup             000000014007e970 f   MSVCRTD:exe_main.obj
 0001:0007db40       NtCurrentTeb               000000014007eb40 f i MSVCRTD:utility.obj
 0001:0007db50       __scrt_acquire_startup_lock 000000014007eb50 f   MSVCRTD:utility.obj
 0001:0007dbd0       __scrt_dllmain_after_initialize_c 000000014007ebd0 f   MSVCRTD:utility.obj
 0001:0007dc10       __scrt_dllmain_before_initialize_c 000000014007ec10 f   MSVCRTD:utility.obj
 0001:0007dc40       __scrt_dllmain_crt_thread_attach 000000014007ec40 f   MSVCRTD:utility.obj
 0001:0007dc80       __scrt_dllmain_crt_thread_detach 000000014007ec80 f   MSVCRTD:utility.obj
 0001:0007dca0       __scrt_dllmain_exception_filter 000000014007eca0 f   MSVCRTD:utility.obj
 0001:0007dd20       __scrt_dllmain_uninitialize_c 000000014007ed20 f   MSVCRTD:utility.obj
 0001:0007dd60       __scrt_dllmain_uninitialize_critical 000000014007ed60 f   MSVCRTD:utility.obj
 0001:0007dd80       __scrt_initialize_crt      000000014007ed80 f   MSVCRTD:utility.obj
 0001:0007dde0       __scrt_initialize_onexit_tables 000000014007ede0 f   MSVCRTD:utility.obj
 0001:0007df30       __scrt_is_nonwritable_in_current_image 000000014007ef30 f   MSVCRTD:utility.obj
 0001:0007dfe0       __scrt_release_startup_lock 000000014007efe0 f   MSVCRTD:utility.obj
 0001:0007e020       __scrt_uninitialize_crt    000000014007f020 f   MSVCRTD:utility.obj
 0001:0007e070       _onexit                    000000014007f070 f   MSVCRTD:utility.obj
 0001:0007e110       at_quick_exit              000000014007f110 f   MSVCRTD:utility.obj
 0001:0007e170       atexit                     000000014007f170 f   MSVCRTD:utility.obj
 0001:0007e2a0       __security_init_cookie     000000014007f2a0 f   MSVCRTD:gs_support.obj
 0001:0007e340       _matherr                   000000014007f340 f   MSVCRTD:matherr.obj
 0001:0007e350       _get_startup_argv_mode     000000014007f350 f   MSVCRTD:argv_mode.obj
 0001:0007e360       _get_startup_commit_mode   000000014007f360 f   MSVCRTD:commit_mode.obj
 0001:0007e370       _get_startup_file_mode     000000014007f370 f   MSVCRTD:file_mode.obj
 0001:0007e380       _get_startup_new_mode      000000014007f380 f   MSVCRTD:new_mode.obj
 0001:0007e390       _get_startup_thread_locale_mode 000000014007f390 f   MSVCRTD:thread_locale.obj
 0001:0007e3a0       ?__scrt_initialize_type_info@@YAXXZ 000000014007f3a0 f   MSVCRTD:tncleanup.obj
 0001:0007e3c0       ?__scrt_uninitialize_type_info@@YAXXZ 000000014007f3c0 f   MSVCRTD:tncleanup.obj
 0001:0007e3e0       _should_initialize_environment 000000014007f3e0 f   MSVCRTD:env_mode.obj
 0001:0007e3f0       _initialize_invalid_parameter_handler 000000014007f3f0 f   MSVCRTD:invalid_parameter_handler.obj
 0001:0007e400       _initialize_denormal_control 000000014007f400 f   MSVCRTD:denormal_control.obj
 0001:0007e410       __scrt_initialize_default_local_stdio_options 000000014007f410 f   MSVCRTD:default_local_stdio_options.obj
 0001:0007e470       __scrt_is_user_matherr_present 000000014007f470 f   MSVCRTD:matherr_detection.obj
 0001:0007e4a0       __scrt_get_dyn_tls_init_callback 000000014007f4a0 f   MSVCRTD:dyn_tls_init.obj
 0001:0007e4b0       __scrt_get_dyn_tls_dtor_callback 000000014007f4b0 f   MSVCRTD:dyn_tls_dtor.obj
 0001:0007e4c0       __crt_debugger_hook        000000014007f4c0 f   MSVCRTD:utility_desktop.obj
 0001:0007e4e0       __scrt_fastfail            000000014007f4e0 f   MSVCRTD:utility_desktop.obj
 0001:0007e6e0       __scrt_get_show_window_mode 000000014007f6e0 f   MSVCRTD:utility_desktop.obj
 0001:0007e750       __scrt_initialize_mta      000000014007f750 f   MSVCRTD:utility_desktop.obj
 0001:0007e770       __scrt_initialize_winrt    000000014007f770 f   MSVCRTD:utility_desktop.obj
 0001:0007e780       __scrt_is_managed_app      000000014007f780 f   MSVCRTD:utility_desktop.obj
 0001:0007e850       __scrt_set_unhandled_exception_filter 000000014007f850 f   MSVCRTD:utility_desktop.obj
 0001:0007e870       __scrt_exe_initialize_mta  000000014007f870 f   MSVCRTD:utility_desktop.obj
 0001:0007e870       __scrt_stub_for_initialize_mta 000000014007f870 f   MSVCRTD:utility_desktop.obj
 0001:0007e880       __scrt_unhandled_exception_filter 000000014007f880 f   MSVCRTD:utility_desktop.obj
 0001:0007e940       _RTC_Initialize            000000014007f940 f   MSVCRTD:initsect.obj
 0001:0007e9a0       _RTC_Terminate             000000014007f9a0 f   MSVCRTD:initsect.obj
 0001:0007ea00       _guard_check_icall_nop     000000014007fa00 f i MSVCRTD:guard_support.obj
 0001:0007ea10       ReadNoFence64              000000014007fa10 f i MSVCRTD:guard_support.obj
 0001:0007ea40       ReadPointerNoFence         000000014007fa40 f i MSVCRTD:guard_support.obj
 0001:0007ea60       __castguard_check_failure_debugbreak 000000014007fa60 f i MSVCRTD:guard_support.obj
 0001:0007ea90       __castguard_check_failure_fastfail 000000014007fa90 f i MSVCRTD:guard_support.obj
 0001:0007eac0       __castguard_check_failure_nop 000000014007fac0 f i MSVCRTD:guard_support.obj
 0001:0007ead0       __castguard_check_failure_os_handled 000000014007fad0 f i MSVCRTD:guard_support.obj
 0001:0007ebc0       __castguard_slow_path_check_debugbreak 000000014007fbc0 f i MSVCRTD:guard_support.obj
 0001:0007ec10       __castguard_slow_path_check_fastfail 000000014007fc10 f i MSVCRTD:guard_support.obj
 0001:0007ec70       __castguard_slow_path_check_nop 000000014007fc70 f i MSVCRTD:guard_support.obj
 0001:0007ec90       __castguard_slow_path_check_os_handled 000000014007fc90 f i MSVCRTD:guard_support.obj
 0001:0007eda0       _guard_icall_checks_enforced 000000014007fda0 f i MSVCRTD:guard_support.obj
 0001:0007edf0       _guard_rf_checks_enforced  000000014007fdf0 f i MSVCRTD:guard_support.obj
 0001:0007ee00       __isa_available_init       000000014007fe00 f   MSVCRTD:cpu_disp.obj
 0001:0007f280       __scrt_is_ucrt_dll_in_use  0000000140080280 f   MSVCRTD:ucrt_detection.obj
 0001:0007f2b0       waveOutGetErrorTextA       00000001400802b0 f   winmm:WINMM.dll
 0001:0007f2b6       waveInGetErrorTextA        00000001400802b6 f   winmm:WINMM.dll
 0001:0007f2bc       waveOutGetNumDevs          00000001400802bc f   winmm:WINMM.dll
 0001:0007f2c2       waveOutGetDevCapsA         00000001400802c2 f   winmm:WINMM.dll
 0001:0007f2c8       waveOutGetVolume           00000001400802c8 f   winmm:WINMM.dll
 0001:0007f2ce       waveOutSetVolume           00000001400802ce f   winmm:WINMM.dll
 0001:0007f2d4       waveOutOpen                00000001400802d4 f   winmm:WINMM.dll
 0001:0007f2da       waveOutClose               00000001400802da f   winmm:WINMM.dll
 0001:0007f2e0       waveOutPrepareHeader       00000001400802e0 f   winmm:WINMM.dll
 0001:0007f2e6       waveOutUnprepareHeader     00000001400802e6 f   winmm:WINMM.dll
 0001:0007f2ec       waveOutWrite               00000001400802ec f   winmm:WINMM.dll
 0001:0007f2f2       waveOutPause               00000001400802f2 f   winmm:WINMM.dll
 0001:0007f2f8       waveOutRestart             00000001400802f8 f   winmm:WINMM.dll
 0001:0007f2fe       waveOutReset               00000001400802fe f   winmm:WINMM.dll
 0001:0007f304       waveInGetNumDevs           0000000140080304 f   winmm:WINMM.dll
 0001:0007f30a       waveInGetDevCapsA          000000014008030a f   winmm:WINMM.dll
 0001:0007f310       waveInOpen                 0000000140080310 f   winmm:WINMM.dll
 0001:0007f316       waveInClose                0000000140080316 f   winmm:WINMM.dll
 0001:0007f31c       waveInPrepareHeader        000000014008031c f   winmm:WINMM.dll
 0001:0007f322       waveInUnprepareHeader      0000000140080322 f   winmm:WINMM.dll
 0001:0007f328       waveInAddBuffer            0000000140080328 f   winmm:WINMM.dll
 0001:0007f32e       waveInStart                000000014008032e f   winmm:WINMM.dll
 0001:0007f334       waveInStop                 0000000140080334 f   winmm:WINMM.dll
 0001:0007f33a       waveInReset                000000014008033a f   winmm:WINMM.dll
 0001:0007f340       CloseHandle                0000000140080340 f   kernel32:KERNEL32.dll
 0001:0007f346       SetEvent                   0000000140080346 f   kernel32:KERNEL32.dll
 0001:0007f34c       CreateEventA               000000014008034c f   kernel32:KERNEL32.dll
 0001:0007f352       WaitForMultipleObjects     0000000140080352 f   kernel32:KERNEL32.dll
 0001:0007f358       GetCurrentThread           0000000140080358 f   kernel32:KERNEL32.dll
 0001:0007f35e       SetThreadPriority          000000014008035e f   kernel32:KERNEL32.dll
 0001:0007f364       GetStdHandle               0000000140080364 f   kernel32:KERNEL32.dll
 0001:0007f36a       GetLastError               000000014008036a f   kernel32:KERNEL32.dll
 0001:0007f370       InitializeCriticalSection  0000000140080370 f   kernel32:KERNEL32.dll
 0001:0007f376       EnterCriticalSection       0000000140080376 f   kernel32:KERNEL32.dll
 0001:0007f37c       LeaveCriticalSection       000000014008037c f   kernel32:KERNEL32.dll
 0001:0007f382       TryEnterCriticalSection    0000000140080382 f   kernel32:KERNEL32.dll
 0001:0007f388       DeleteCriticalSection      0000000140080388 f   kernel32:KERNEL32.dll
 0001:0007f38e       ResetEvent                 000000014008038e f   kernel32:KERNEL32.dll
 0001:0007f394       ReleaseSemaphore           0000000140080394 f   kernel32:KERNEL32.dll
 0001:0007f39a       WaitForSingleObject        000000014008039a f   kernel32:KERNEL32.dll
 0001:0007f3a0       Sleep                      00000001400803a0 f   kernel32:KERNEL32.dll
 0001:0007f3a6       GetCurrentProcessId        00000001400803a6 f   kernel32:KERNEL32.dll
 0001:0007f3ac       CreateThread               00000001400803ac f   kernel32:KERNEL32.dll
 0001:0007f3b2       GetCurrentThreadId         00000001400803b2 f   kernel32:KERNEL32.dll
 0001:0007f3b8       GetThreadPriority          00000001400803b8 f   kernel32:KERNEL32.dll
 0001:0007f3be       ResumeThread               00000001400803be f   kernel32:KERNEL32.dll
 0001:0007f3c4       TlsAlloc                   00000001400803c4 f   kernel32:KERNEL32.dll
 0001:0007f3ca       TlsGetValue                00000001400803ca f   kernel32:KERNEL32.dll
 0001:0007f3d0       TlsSetValue                00000001400803d0 f   kernel32:KERNEL32.dll
 0001:0007f3d6       TlsFree                    00000001400803d6 f   kernel32:KERNEL32.dll
 0001:0007f3dc       PulseEvent                 00000001400803dc f   kernel32:KERNEL32.dll
 0001:0007f3e2       CreateSemaphoreA           00000001400803e2 f   kernel32:KERNEL32.dll
 0001:0007f3e8       GetConsoleScreenBufferInfo 00000001400803e8 f   kernel32:KERNEL32.dll
 0001:0007f3ee       SetConsoleTextAttribute    00000001400803ee f   kernel32:KERNEL32.dll
 0001:0007f3f4       SetLastError               00000001400803f4 f   kernel32:KERNEL32.dll
 0001:0007f3fa       FormatMessageA             00000001400803fa f   kernel32:KERNEL32.dll
 0001:0007f400       GetLocalTime               0000000140080400 f   kernel32:KERNEL32.dll
 0001:0007f406       FileTimeToSystemTime       0000000140080406 f   kernel32:KERNEL32.dll
 0001:0007f40c       SystemTimeToFileTime       000000014008040c f   kernel32:KERNEL32.dll
 0001:0007f412       CreateFileA                0000000140080412 f   kernel32:KERNEL32.dll
 0001:0007f418       DeleteFileA                0000000140080418 f   kernel32:KERNEL32.dll
 0001:0007f41e       FileTimeToLocalFileTime    000000014008041e f   kernel32:KERNEL32.dll
 0001:0007f424       GetFileSize                0000000140080424 f   kernel32:KERNEL32.dll
 0001:0007f42a       GetFileTime                000000014008042a f   kernel32:KERNEL32.dll
 0001:0007f430       MoveFileExA                0000000140080430 f   kernel32:KERNEL32.dll
 0001:0007f436       FlushFileBuffers           0000000140080436 f   kernel32:KERNEL32.dll
 0001:0007f43c       ReadFile                   000000014008043c f   kernel32:KERNEL32.dll
 0001:0007f442       SetFilePointer             0000000140080442 f   kernel32:KERNEL32.dll
 0001:0007f448       WriteFile                  0000000140080448 f   kernel32:KERNEL32.dll
 0001:0007f44e       QueryPerformanceCounter    000000014008044e f   kernel32:KERNEL32.dll
 0001:0007f454       QueryPerformanceFrequency  0000000140080454 f   kernel32:KERNEL32.dll
 0001:0007f45a       FreeLibrary                000000014008045a f   kernel32:KERNEL32.dll
 0001:0007f460       GetProcAddress             0000000140080460 f   kernel32:KERNEL32.dll
 0001:0007f466       LoadLibraryA               0000000140080466 f   kernel32:KERNEL32.dll
 0001:0007f46c       RtlCaptureContext          000000014008046c f   kernel32:KERNEL32.dll
 0001:0007f472       RtlLookupFunctionEntry     0000000140080472 f   kernel32:KERNEL32.dll
 0001:0007f478       RtlVirtualUnwind           0000000140080478 f   kernel32:KERNEL32.dll
 0001:0007f47e       UnhandledExceptionFilter   000000014008047e f   kernel32:KERNEL32.dll
 0001:0007f484       SetUnhandledExceptionFilter 0000000140080484 f   kernel32:KERNEL32.dll
 0001:0007f48a       GetCurrentProcess          000000014008048a f   kernel32:KERNEL32.dll
 0001:0007f490       TerminateProcess           0000000140080490 f   kernel32:KERNEL32.dll
 0001:0007f496       IsProcessorFeaturePresent  0000000140080496 f   kernel32:KERNEL32.dll
 0001:0007f49c       GetSystemTimeAsFileTime    000000014008049c f   kernel32:KERNEL32.dll
 0001:0007f4a2       InitializeSListHead        00000001400804a2 f   kernel32:KERNEL32.dll
 0001:0007f4a8       IsDebuggerPresent          00000001400804a8 f   kernel32:KERNEL32.dll
 0001:0007f4ae       GetStartupInfoW            00000001400804ae f   kernel32:KERNEL32.dll
 0001:0007f4b4       GetModuleHandleW           00000001400804b4 f   kernel32:KERNEL32.dll
 0001:0007f4ba       memcpy                     00000001400804ba f   vcruntimed:VCRUNTIME140D.dll
 0001:0007f4c0       memset                     00000001400804c0 f   vcruntimed:VCRUNTIME140D.dll
 0001:0007f4c6       memmove                    00000001400804c6 f   vcruntimed:VCRUNTIME140D.dll
 0001:0007f4cc       memchr                     00000001400804cc f   vcruntimed:VCRUNTIME140D.dll
 0001:0007f4d2       strchr                     00000001400804d2 f   vcruntimed:VCRUNTIME140D.dll
 0001:0007f4d8       memcmp                     00000001400804d8 f   vcruntimed:VCRUNTIME140D.dll
 0001:0007f4de       longjmp                    00000001400804de f   vcruntimed:VCRUNTIME140D.dll
 0001:0007f4e4       __C_specific_handler       00000001400804e4 f   vcruntimed:VCRUNTIME140D.dll
 0001:0007f4ea       __intrinsic_setjmp         00000001400804ea f   vcruntimed:VCRUNTIME140D.dll
 0001:0007f4ea       _setjmp                    00000001400804ea f   vcruntimed:VCRUNTIME140D.dll
 0001:0007f4f0       __std_type_info_destroy_list 00000001400804f0 f   vcruntimed:VCRUNTIME140D.dll
 0001:0007f4f6       __current_exception        00000001400804f6 f   vcruntimed:VCRUNTIME140D.dll
 0001:0007f4fc       __current_exception_context 00000001400804fc f   vcruntimed:VCRUNTIME140D.dll
 0001:0007f502       strcat                     0000000140080502 f   ucrtd:ucrtbased.dll
 0001:0007f508       __acrt_iob_func            0000000140080508 f   ucrtd:ucrtbased.dll
 0001:0007f50e       fflush                     000000014008050e f   ucrtd:ucrtbased.dll
 0001:0007f514       fgets                      0000000140080514 f   ucrtd:ucrtbased.dll
 0001:0007f51a       puts                       000000014008051a f   ucrtd:ucrtbased.dll
 0001:0007f520       __stdio_common_vfprintf    0000000140080520 f   ucrtd:ucrtbased.dll
 0001:0007f526       __stdio_common_vsprintf    0000000140080526 f   ucrtd:ucrtbased.dll
 0001:0007f52c       strtol                     000000014008052c f   ucrtd:ucrtbased.dll
 0001:0007f532       _wassert                   0000000140080532 f   ucrtd:ucrtbased.dll
 0001:0007f538       strlen                     0000000140080538 f   ucrtd:ucrtbased.dll
 0001:0007f53e       strcpy                     000000014008053e f   ucrtd:ucrtbased.dll
 0001:0007f544       strncpy                    0000000140080544 f   ucrtd:ucrtbased.dll
 0001:0007f54a       _stricmp                   000000014008054a f   ucrtd:ucrtbased.dll
 0001:0007f550       isdigit                    0000000140080550 f   ucrtd:ucrtbased.dll
 0001:0007f556       cos                        0000000140080556 f   ucrtd:ucrtbased.dll
 0001:0007f55c       strcmp                     000000014008055c f   ucrtd:ucrtbased.dll
 0001:0007f562       strncmp                    0000000140080562 f   ucrtd:ucrtbased.dll
 0001:0007f568       isxdigit                   0000000140080568 f   ucrtd:ucrtbased.dll
 0001:0007f56e       _strnicmp                  000000014008056e f   ucrtd:ucrtbased.dll
 0001:0007f574       free                       0000000140080574 f   ucrtd:ucrtbased.dll
 0001:0007f57a       malloc                     000000014008057a f   ucrtd:ucrtbased.dll
 0001:0007f580       isspace                    0000000140080580 f   ucrtd:ucrtbased.dll
 0001:0007f586       fmod                       0000000140080586 f   ucrtd:ucrtbased.dll
 0001:0007f58c       srand                      000000014008058c f   ucrtd:ucrtbased.dll
 0001:0007f592       rand                       0000000140080592 f   ucrtd:ucrtbased.dll
 0001:0007f598       calloc                     0000000140080598 f   ucrtd:ucrtbased.dll
 0001:0007f59e       exp                        000000014008059e f   ucrtd:ucrtbased.dll
 0001:0007f5a4       sqrt                       00000001400805a4 f   ucrtd:ucrtbased.dll
 0001:0007f5aa       floor                      00000001400805aa f   ucrtd:ucrtbased.dll
 0001:0007f5b0       pow                        00000001400805b0 f   ucrtd:ucrtbased.dll
 0001:0007f5b6       sin                        00000001400805b6 f   ucrtd:ucrtbased.dll
 0001:0007f5bc       fabs                       00000001400805bc f   ucrtd:ucrtbased.dll
 0001:0007f5c2       log                        00000001400805c2 f   ucrtd:ucrtbased.dll
 0001:0007f5c8       atan                       00000001400805c8 f   ucrtd:ucrtbased.dll
 0001:0007f5ce       __stdio_common_vsscanf     00000001400805ce f   ucrtd:ucrtbased.dll
 0001:0007f5d4       clock                      00000001400805d4 f   ucrtd:ucrtbased.dll
 0001:0007f5da       exit                       00000001400805da f   ucrtd:ucrtbased.dll
 0001:0007f5e0       _seh_filter_exe            00000001400805e0 f   ucrtd:ucrtbased.dll
 0001:0007f5e6       _set_app_type              00000001400805e6 f   ucrtd:ucrtbased.dll
 0001:0007f5ec       __setusermatherr           00000001400805ec f   ucrtd:ucrtbased.dll
 0001:0007f5f2       _configure_narrow_argv     00000001400805f2 f   ucrtd:ucrtbased.dll
 0001:0007f5f8       _initialize_narrow_environment 00000001400805f8 f   ucrtd:ucrtbased.dll
 0001:0007f5fe       _get_initial_narrow_environment 00000001400805fe f   ucrtd:ucrtbased.dll
 0001:0007f604       _initterm                  0000000140080604 f   ucrtd:ucrtbased.dll
 0001:0007f60a       _initterm_e                000000014008060a f   ucrtd:ucrtbased.dll
 0001:0007f610       _exit                      0000000140080610 f   ucrtd:ucrtbased.dll
 0001:0007f616       _set_fmode                 0000000140080616 f   ucrtd:ucrtbased.dll
 0001:0007f61c       __p___argc                 000000014008061c f   ucrtd:ucrtbased.dll
 0001:0007f622       __p___argv                 0000000140080622 f   ucrtd:ucrtbased.dll
 0001:0007f628       _cexit                     0000000140080628 f   ucrtd:ucrtbased.dll
 0001:0007f62e       _c_exit                    000000014008062e f   ucrtd:ucrtbased.dll
 0001:0007f634       _register_thread_local_exe_atexit_callback 0000000140080634 f   ucrtd:ucrtbased.dll
 0001:0007f63a       _configthreadlocale        000000014008063a f   ucrtd:ucrtbased.dll
 0001:0007f640       _set_new_mode              0000000140080640 f   ucrtd:ucrtbased.dll
 0001:0007f646       __p__commode               0000000140080646 f   ucrtd:ucrtbased.dll
 0001:0007f64c       _seh_filter_dll            000000014008064c f   ucrtd:ucrtbased.dll
 0001:0007f652       _initialize_onexit_table   0000000140080652 f   ucrtd:ucrtbased.dll
 0001:0007f658       _register_onexit_function  0000000140080658 f   ucrtd:ucrtbased.dll
 0001:0007f65e       _execute_onexit_table      000000014008065e f   ucrtd:ucrtbased.dll
 0001:0007f664       _crt_atexit                0000000140080664 f   ucrtd:ucrtbased.dll
 0001:0007f66a       _crt_at_quick_exit         000000014008066a f   ucrtd:ucrtbased.dll
 0001:0007f670       terminate                  0000000140080670 f   ucrtd:ucrtbased.dll
 0001:0007f680       __scrt_stub_for_acrt_initialize 0000000140080680 f   MSVCRTD:ucrt_stubs.obj
 0001:0007f680       __acrt_initialize          0000000140080680 f   MSVCRTD:ucrt_stubs.obj
 0001:0007f680       __vcrt_initialize          0000000140080680 f   MSVCRTD:ucrt_stubs.obj
 0001:0007f690       __acrt_thread_attach       0000000140080690 f   MSVCRTD:ucrt_stubs.obj
 0001:0007f690       __scrt_stub_for_acrt_thread_attach 0000000140080690 f   MSVCRTD:ucrt_stubs.obj
 0001:0007f690       __vcrt_thread_attach       0000000140080690 f   MSVCRTD:ucrt_stubs.obj
 0001:0007f6a0       __vcrt_thread_detach       00000001400806a0 f   MSVCRTD:ucrt_stubs.obj
 0001:0007f6a0       __scrt_stub_for_acrt_thread_detach 00000001400806a0 f   MSVCRTD:ucrt_stubs.obj
 0001:0007f6a0       __acrt_thread_detach       00000001400806a0 f   MSVCRTD:ucrt_stubs.obj
 0001:0007f6b0       __acrt_uninitialize        00000001400806b0 f   MSVCRTD:ucrt_stubs.obj
 0001:0007f6b0       __scrt_stub_for_acrt_uninitialize 00000001400806b0 f   MSVCRTD:ucrt_stubs.obj
 0001:0007f6b0       __vcrt_uninitialize        00000001400806b0 f   MSVCRTD:ucrt_stubs.obj
 0001:0007f6c0       __vcrt_uninitialize_critical 00000001400806c0 f   MSVCRTD:ucrt_stubs.obj
 0001:0007f6c0       __scrt_stub_for_acrt_uninitialize_critical 00000001400806c0 f   MSVCRTD:ucrt_stubs.obj
 0001:0007f6c0       __acrt_uninitialize_critical 00000001400806c0 f   MSVCRTD:ucrt_stubs.obj
 0001:0007f6d0       __scrt_stub_for_is_c_termination_complete 00000001400806d0 f   MSVCRTD:ucrt_stubs.obj
 0001:0007f6d0       _is_c_termination_complete 00000001400806d0 f   MSVCRTD:ucrt_stubs.obj
 0001:000812b0       _guard_dispatch_icall_nop  00000001400822b0 f   MSVCRTD:guard_dispatch.obj
 0001:000812d0       _guard_xfg_dispatch_icall_nop 00000001400822d0 f   MSVCRTD:guard_xfg_dispatch.obj
 0002:00000000       __xc_a                     0000000140085000     MSVCRTD:initializers.obj
 0002:00000220       __xc_z                     0000000140085220     MSVCRTD:initializers.obj
 0002:00000330       __xi_a                     0000000140085330     MSVCRTD:initializers.obj
 0002:00000660       __xi_z                     0000000140085660     MSVCRTD:initializers.obj
 0002:00000770       __xp_a                     0000000140085770     MSVCRTD:initializers.obj
 0002:00000880       __xp_z                     0000000140085880     MSVCRTD:initializers.obj
 0002:00000990       __xt_a                     0000000140085990     MSVCRTD:initializers.obj
 0002:00000aa0       __xt_z                     0000000140085aa0     MSVCRTD:initializers.obj
 0002:00000c98       __real@3fe0000000000000    0000000140085c98     pjmedia-x86_64-x64-vc14-debug-dynamic:conference.obj
 0002:00000ca8       __real@3ff0000000000000    0000000140085ca8     pjmedia-x86_64-x64-vc14-debug-dynamic:conference.obj
 0002:00000d30       pjmedia_linear2ulaw_tab    0000000140085d30     pjmedia-x86_64-x64-vc14-debug-dynamic:alaw_ulaw_table.obj
 0002:00004d30       pjmedia_linear2alaw_tab    0000000140089d30     pjmedia-x86_64-x64-vc14-debug-dynamic:alaw_ulaw_table.obj
 0002:00008d30       pjmedia_ulaw2linear_tab    000000014008dd30     pjmedia-x86_64-x64-vc14-debug-dynamic:alaw_ulaw_table.obj
 0002:00008f30       pjmedia_alaw2linear_tab    000000014008df30     pjmedia-x86_64-x64-vc14-debug-dynamic:alaw_ulaw_table.obj
 0002:0000b394       __real@00000000            0000000140090394     pjmedia-x86_64-x64-vc14-debug-dynamic:wsola.obj
 0002:0000b398       __real@3f800000            0000000140090398     pjmedia-x86_64-x64-vc14-debug-dynamic:wsola.obj
 0002:0000b3a0       __real@3ff8000000000000    00000001400903a0     pjmedia-x86_64-x64-vc14-debug-dynamic:wsola.obj
 0002:0000b3b0       __real@401921fb54442d18    00000001400903b0     pjmedia-x86_64-x64-vc14-debug-dynamic:wsola.obj
 0002:0000b3bc       __real@497423f0            00000001400903bc     pjmedia-x86_64-x64-vc14-debug-dynamic:echo_common.obj
 0002:0000b3fc       __real@40000000            00000001400903fc     pjmedia-x86_64-x64-vc14-debug-dynamic:echo_suppress.obj
 0002:0000b400       __real@4004000000000000    0000000140090400     pjmedia-x86_64-x64-vc14-debug-dynamic:echo_suppress.obj
 0002:0000b40c       __real@40400000            000000014009040c     pjmedia-x86_64-x64-vc14-debug-dynamic:echo_suppress.obj
 0002:0000b410       __real@41980000            0000000140090410     pjmedia-x86_64-x64-vc14-debug-dynamic:echo_suppress.obj
 0002:0000b414       __real@41a00000            0000000140090414     pjmedia-x86_64-x64-vc14-debug-dynamic:echo_suppress.obj
 0002:0000b418       __real@447a0000            0000000140090418     pjmedia-x86_64-x64-vc14-debug-dynamic:echo_suppress.obj
 0002:0000b41c       __real@7efffff8            000000014009041c     pjmedia-x86_64-x64-vc14-debug-dynamic:echo_suppress.obj
 0002:0000b420       __xmm@80000000800000008000000080000000 0000000140090420     pjmedia-x86_64-x64-vc14-debug-dynamic:echo_suppress.obj
 0002:0000b65c       __real@41200000            000000014009065c     pjlib-x86_64-x64-vc14-debug-dynamic:string.obj
 0002:0000ba20       PJ_AF_UNSPEC               0000000140090a20     pjlib-x86_64-x64-vc14-debug-dynamic:sock_bsd.obj
 0002:0000ba24       PJ_AF_UNIX                 0000000140090a24     pjlib-x86_64-x64-vc14-debug-dynamic:sock_bsd.obj
 0002:0000ba28       PJ_AF_INET                 0000000140090a28     pjlib-x86_64-x64-vc14-debug-dynamic:sock_bsd.obj
 0002:0000ba2c       PJ_AF_INET6                0000000140090a2c     pjlib-x86_64-x64-vc14-debug-dynamic:sock_bsd.obj
 0002:0000ba30       PJ_AF_PACKET               0000000140090a30     pjlib-x86_64-x64-vc14-debug-dynamic:sock_bsd.obj
 0002:0000ba34       PJ_AF_IRDA                 0000000140090a34     pjlib-x86_64-x64-vc14-debug-dynamic:sock_bsd.obj
 0002:0000ba38       PJ_SOCK_STREAM             0000000140090a38     pjlib-x86_64-x64-vc14-debug-dynamic:sock_bsd.obj
 0002:0000ba3c       PJ_SOCK_DGRAM              0000000140090a3c     pjlib-x86_64-x64-vc14-debug-dynamic:sock_bsd.obj
 0002:0000ba40       PJ_SOCK_RAW                0000000140090a40     pjlib-x86_64-x64-vc14-debug-dynamic:sock_bsd.obj
 0002:0000ba44       PJ_SOCK_RDM                0000000140090a44     pjlib-x86_64-x64-vc14-debug-dynamic:sock_bsd.obj
 0002:0000ba48       PJ_SOL_SOCKET              0000000140090a48     pjlib-x86_64-x64-vc14-debug-dynamic:sock_bsd.obj
 0002:0000ba4c       PJ_SOL_IP                  0000000140090a4c     pjlib-x86_64-x64-vc14-debug-dynamic:sock_bsd.obj
 0002:0000ba50       PJ_SOL_TCP                 0000000140090a50     pjlib-x86_64-x64-vc14-debug-dynamic:sock_bsd.obj
 0002:0000ba54       PJ_SOL_UDP                 0000000140090a54     pjlib-x86_64-x64-vc14-debug-dynamic:sock_bsd.obj
 0002:0000ba58       PJ_SOL_IPV6                0000000140090a58     pjlib-x86_64-x64-vc14-debug-dynamic:sock_bsd.obj
 0002:0000ba5c       PJ_IP_TOS                  0000000140090a5c     pjlib-x86_64-x64-vc14-debug-dynamic:sock_bsd.obj
 0002:0000ba60       PJ_IPTOS_LOWDELAY          0000000140090a60     pjlib-x86_64-x64-vc14-debug-dynamic:sock_bsd.obj
 0002:0000ba64       PJ_IPTOS_THROUGHPUT        0000000140090a64     pjlib-x86_64-x64-vc14-debug-dynamic:sock_bsd.obj
 0002:0000ba68       PJ_IPTOS_RELIABILITY       0000000140090a68     pjlib-x86_64-x64-vc14-debug-dynamic:sock_bsd.obj
 0002:0000ba6c       PJ_IPTOS_MINCOST           0000000140090a6c     pjlib-x86_64-x64-vc14-debug-dynamic:sock_bsd.obj
 0002:0000ba70       PJ_IPV6_TCLASS             0000000140090a70     pjlib-x86_64-x64-vc14-debug-dynamic:sock_bsd.obj
 0002:0000ba74       PJ_SO_TYPE                 0000000140090a74     pjlib-x86_64-x64-vc14-debug-dynamic:sock_bsd.obj
 0002:0000ba78       PJ_SO_RCVBUF               0000000140090a78     pjlib-x86_64-x64-vc14-debug-dynamic:sock_bsd.obj
 0002:0000ba7c       PJ_SO_SNDBUF               0000000140090a7c     pjlib-x86_64-x64-vc14-debug-dynamic:sock_bsd.obj
 0002:0000ba80       PJ_TCP_NODELAY             0000000140090a80     pjlib-x86_64-x64-vc14-debug-dynamic:sock_bsd.obj
 0002:0000ba84       PJ_SO_REUSEADDR            0000000140090a84     pjlib-x86_64-x64-vc14-debug-dynamic:sock_bsd.obj
 0002:0000ba88       PJ_SO_NOSIGPIPE            0000000140090a88     pjlib-x86_64-x64-vc14-debug-dynamic:sock_bsd.obj
 0002:0000ba8c       PJ_SO_PRIORITY             0000000140090a8c     pjlib-x86_64-x64-vc14-debug-dynamic:sock_bsd.obj
 0002:0000ba90       PJ_IP_MULTICAST_IF         0000000140090a90     pjlib-x86_64-x64-vc14-debug-dynamic:sock_bsd.obj
 0002:0000ba94       PJ_IP_MULTICAST_TTL        0000000140090a94     pjlib-x86_64-x64-vc14-debug-dynamic:sock_bsd.obj
 0002:0000ba98       PJ_IP_MULTICAST_LOOP       0000000140090a98     pjlib-x86_64-x64-vc14-debug-dynamic:sock_bsd.obj
 0002:0000ba9c       PJ_IP_ADD_MEMBERSHIP       0000000140090a9c     pjlib-x86_64-x64-vc14-debug-dynamic:sock_bsd.obj
 0002:0000baa0       PJ_IP_DROP_MEMBERSHIP      0000000140090aa0     pjlib-x86_64-x64-vc14-debug-dynamic:sock_bsd.obj
 0002:0000baa4       PJ_MSG_OOB                 0000000140090aa4     pjlib-x86_64-x64-vc14-debug-dynamic:sock_bsd.obj
 0002:0000baa8       PJ_MSG_PEEK                0000000140090aa8     pjlib-x86_64-x64-vc14-debug-dynamic:sock_bsd.obj
 0002:0000baac       PJ_MSG_DONTROUTE           0000000140090aac     pjlib-x86_64-x64-vc14-debug-dynamic:sock_bsd.obj
 0002:0000bad0       __real@0000000000000000    0000000140090ad0     pjlib-x86_64-x64-vc14-debug-dynamic:os_timestamp_common.obj
 0002:0000bae0       __real@408f400000000000    0000000140090ae0     pjlib-x86_64-x64-vc14-debug-dynamic:os_timestamp_common.obj
 0002:0000baf0       __real@412e848000000000    0000000140090af0     pjlib-x86_64-x64-vc14-debug-dynamic:os_timestamp_common.obj
 0002:0000bb00       __real@41cdcd6500000000    0000000140090b00     pjlib-x86_64-x64-vc14-debug-dynamic:os_timestamp_common.obj
 0002:0000bb10       __real@43e0000000000000    0000000140090b10     pjlib-x86_64-x64-vc14-debug-dynamic:os_timestamp_common.obj
 0002:0000bb1c       PJ_GUID_STRING_LENGTH      0000000140090b1c     pjlib-x86_64-x64-vc14-debug-dynamic:guid_win32.obj
 0002:00017ff0       __real@401c000000000000    000000014009cff0     libresample-x86_64-x64-vc14-debug-dynamic:resamplesubs.obj
 0002:00018000       __real@4040800000000000    000000014009d000     libresample-x86_64-x64-vc14-debug-dynamic:resamplesubs.obj
 0002:00018010       __real@4060000000000000    000000014009d010     libresample-x86_64-x64-vc14-debug-dynamic:resamplesubs.obj
 0002:00018020       __real@4070000000000000    000000014009d020     libresample-x86_64-x64-vc14-debug-dynamic:resamplesubs.obj
 0002:00018030       __real@40c9a40000000000    000000014009d030     libresample-x86_64-x64-vc14-debug-dynamic:resamplesubs.obj
 0002:00018040       __real@40cccd0000000000    000000014009d040     libresample-x86_64-x64-vc14-debug-dynamic:resamplesubs.obj
 0002:00018050       __real@40e0000000000000    000000014009d050     libresample-x86_64-x64-vc14-debug-dynamic:resamplesubs.obj
 0002:00018078       __real@3cf5c28f            000000014009d078     libspeex-x86_64-x64-vc14-debug-dynamic:mdf.obj
 0002:0001807c       __real@3dcccccd            000000014009d07c     libspeex-x86_64-x64-vc14-debug-dynamic:mdf.obj
 0002:00018080       __real@3e19999a            000000014009d080     libspeex-x86_64-x64-vc14-debug-dynamic:mdf.obj
 0002:00018084       __real@3e800000            000000014009d084     libspeex-x86_64-x64-vc14-debug-dynamic:mdf.obj
 0002:00018088       __real@3ecccccd            000000014009d088     libspeex-x86_64-x64-vc14-debug-dynamic:mdf.obj
 0002:0001808c       __real@3f000000            000000014009d08c     libspeex-x86_64-x64-vc14-debug-dynamic:mdf.obj
 0002:00018090       __real@3f19999a            000000014009d090     libspeex-x86_64-x64-vc14-debug-dynamic:mdf.obj
 0002:00018098       __real@3f1a36e2eb1c432d    000000014009d098     libspeex-x86_64-x64-vc14-debug-dynamic:mdf.obj
 0002:000180a4       __real@3f333333            000000014009d0a4     libspeex-x86_64-x64-vc14-debug-dynamic:mdf.obj
 0002:000180a8       __real@3f4ccccd            000000014009d0a8     libspeex-x86_64-x64-vc14-debug-dynamic:mdf.obj
 0002:000180ac       __real@3f59999a            000000014009d0ac     libspeex-x86_64-x64-vc14-debug-dynamic:mdf.obj
 0002:000180b0       __real@3f666666            000000014009d0b0     libspeex-x86_64-x64-vc14-debug-dynamic:mdf.obj
 0002:000180b4       __real@3f7b645a            000000014009d0b4     libspeex-x86_64-x64-vc14-debug-dynamic:mdf.obj
 0002:000180b8       __real@3f7d70a4            000000014009d0b8     libspeex-x86_64-x64-vc14-debug-dynamic:mdf.obj
 0002:000180bc       __real@3f7df3b6            000000014009d0bc     libspeex-x86_64-x64-vc14-debug-dynamic:mdf.obj
 0002:000180c0       __real@3fd0000000000000    000000014009d0c0     libspeex-x86_64-x64-vc14-debug-dynamic:mdf.obj
 0002:000180d0       __real@3fd3333333333333    000000014009d0d0     libspeex-x86_64-x64-vc14-debug-dynamic:mdf.obj
 0002:000180e0       __real@3fd6666666666666    000000014009d0e0     libspeex-x86_64-x64-vc14-debug-dynamic:mdf.obj
 0002:000180f0       __real@3fe6666666666666    000000014009d0f0     libspeex-x86_64-x64-vc14-debug-dynamic:mdf.obj
 0002:00018100       __real@4008000000000000    000000014009d100     libspeex-x86_64-x64-vc14-debug-dynamic:mdf.obj
 0002:0001810c       __real@4019999a            000000014009d10c     libspeex-x86_64-x64-vc14-debug-dynamic:mdf.obj
 0002:00018110       __real@42c80000            000000014009d110     libspeex-x86_64-x64-vc14-debug-dynamic:mdf.obj
 0002:00018114       __real@461c4000            000000014009d114     libspeex-x86_64-x64-vc14-debug-dynamic:mdf.obj
 0002:00018118       __real@467ffc00            000000014009d118     libspeex-x86_64-x64-vc14-debug-dynamic:mdf.obj
 0002:0001811c       __real@46fffd00            000000014009d11c     libspeex-x86_64-x64-vc14-debug-dynamic:mdf.obj
 0002:00018120       __real@46fffe00            000000014009d120     libspeex-x86_64-x64-vc14-debug-dynamic:mdf.obj
 0002:00018124       __real@c6ffff00            000000014009d124     libspeex-x86_64-x64-vc14-debug-dynamic:mdf.obj
 0002:00018128       __real@3f847ae147ae147b    000000014009d128     libspeex-x86_64-x64-vc14-debug-dynamic:scal.obj
 0002:00018138       __real@3fa47ae147ae147b    000000014009d138     libspeex-x86_64-x64-vc14-debug-dynamic:scal.obj
 0002:00018148       __real@3fd999999999999a    000000014009d148     libspeex-x86_64-x64-vc14-debug-dynamic:scal.obj
 0002:00018158       __real@3fe43d1cc100e6b0    000000014009d158     libspeex-x86_64-x64-vc14-debug-dynamic:scal.obj
 0002:00018168       __real@3feeb851eb851eb8    000000014009d168     libspeex-x86_64-x64-vc14-debug-dynamic:scal.obj
 0002:00018178       __real@3fef5c28f5c28f5c    000000014009d178     libspeex-x86_64-x64-vc14-debug-dynamic:scal.obj
 0002:00018188       __real@3ff921fb54442d18    000000014009d188     libspeex-x86_64-x64-vc14-debug-dynamic:scal.obj
 0002:00018198       __real@400921fb54442d18    000000014009d198     libspeex-x86_64-x64-vc14-debug-dynamic:scal.obj
 0002:000181a4       __real@c6fffe00            000000014009d1a4     libspeex-x86_64-x64-vc14-debug-dynamic:scal.obj
 0002:00018214       __real@26901d7d            000000014009d214     libspeex-x86_64-x64-vc14-debug-dynamic:preprocess.obj
 0002:00018218       __real@38d1b717            000000014009d218     libspeex-x86_64-x64-vc14-debug-dynamic:preprocess.obj
 0002:0001821c       __real@3a83126f            000000014009d21c     libspeex-x86_64-x64-vc14-debug-dynamic:preprocess.obj
 0002:00018220       __real@3c23d70a            000000014009d220     libspeex-x86_64-x64-vc14-debug-dynamic:preprocess.obj
 0002:00018224       __real@3d4ccccd            000000014009d224     libspeex-x86_64-x64-vc14-debug-dynamic:preprocess.obj
 0002:00018228       __real@3d99999a            000000014009d228     libspeex-x86_64-x64-vc14-debug-dynamic:preprocess.obj
 0002:0001822c       __real@3debc947            000000014009d22c     libspeex-x86_64-x64-vc14-debug-dynamic:preprocess.obj
 0002:00018230       __real@3e4bc6a8            000000014009d230     libspeex-x86_64-x64-vc14-debug-dynamic:preprocess.obj
 0002:00018234       __real@3e4ccccd            000000014009d234     libspeex-x86_64-x64-vc14-debug-dynamic:preprocess.obj
 0002:00018238       __real@3e6bc8e2            000000014009d238     libspeex-x86_64-x64-vc14-debug-dynamic:preprocess.obj
 0002:0001823c       __real@3e99999a            000000014009d23c     libspeex-x86_64-x64-vc14-debug-dynamic:preprocess.obj
 0002:00018240       __real@3eaa7efa            000000014009d240     libspeex-x86_64-x64-vc14-debug-dynamic:preprocess.obj
 0002:00018244       __real@3eb33333            000000014009d244     libspeex-x86_64-x64-vc14-debug-dynamic:preprocess.obj
 0002:00018248       __real@3f63d70a            000000014009d248     libspeex-x86_64-x64-vc14-debug-dynamic:preprocess.obj
 0002:0001824c       __real@3f6624dd            000000014009d24c     libspeex-x86_64-x64-vc14-debug-dynamic:preprocess.obj
 0002:00018250       __real@3f733333            000000014009d250     libspeex-x86_64-x64-vc14-debug-dynamic:preprocess.obj
 0002:00018258       __real@3f9eb851eb851eb8    000000014009d258     libspeex-x86_64-x64-vc14-debug-dynamic:preprocess.obj
 0002:00018264       __real@3fa2cdb8            000000014009d264     libspeex-x86_64-x64-vc14-debug-dynamic:preprocess.obj
 0002:00018268       __real@3fc096bb98c7e282    000000014009d268     libspeex-x86_64-x64-vc14-debug-dynamic:preprocess.obj
 0002:00018278       __real@3fc999999999999a    000000014009d278     libspeex-x86_64-x64-vc14-debug-dynamic:preprocess.obj
 0002:00018288       __real@3fe75c2900000000    000000014009d288     libspeex-x86_64-x64-vc14-debug-dynamic:preprocess.obj
 0002:00018298       __real@3ff61adea8000000    000000014009d298     libspeex-x86_64-x64-vc14-debug-dynamic:preprocess.obj
 0002:000182a8       __real@4014000000000000    000000014009d2a8     libspeex-x86_64-x64-vc14-debug-dynamic:preprocess.obj
 0002:000182b8       __real@40215f212d773190    000000014009d2b8     libspeex-x86_64-x64-vc14-debug-dynamic:preprocess.obj
 0002:000182c4       __real@40800000            000000014009d2c4     libspeex-x86_64-x64-vc14-debug-dynamic:preprocess.obj
 0002:000182c8       __real@41f00000            000000014009d2c8     libspeex-x86_64-x64-vc14-debug-dynamic:preprocess.obj
 0002:000182cc       __real@456d8000            000000014009d2cc     libspeex-x86_64-x64-vc14-debug-dynamic:preprocess.obj
 0002:000182d0       __real@45fa0000            000000014009d2d0     libspeex-x86_64-x64-vc14-debug-dynamic:preprocess.obj
 0002:000182d4       __real@467a0000            000000014009d2d4     libspeex-x86_64-x64-vc14-debug-dynamic:preprocess.obj
 0002:000182d8       __real@46dac000            000000014009d2d8     libspeex-x86_64-x64-vc14-debug-dynamic:preprocess.obj
 0002:000182dc       __real@47000000            000000014009d2dc     libspeex-x86_64-x64-vc14-debug-dynamic:preprocess.obj
 0002:000182e0       __real@495bba00            000000014009d2e0     libspeex-x86_64-x64-vc14-debug-dynamic:preprocess.obj
 0002:000182e4       __real@4e6e6b28            000000014009d2e4     libspeex-x86_64-x64-vc14-debug-dynamic:preprocess.obj
 0002:000182e8       __real@bf000000            000000014009d2e8     libspeex-x86_64-x64-vc14-debug-dynamic:preprocess.obj
 0002:000182f0       __real@bfc99999a0000000    000000014009d2f0     libspeex-x86_64-x64-vc14-debug-dynamic:preprocess.obj
 0002:00018300       __real@c0126bb98c000000    000000014009d300     libspeex-x86_64-x64-vc14-debug-dynamic:preprocess.obj
 0002:0001830c       __real@329ee9ee            000000014009d30c     libspeex-x86_64-x64-vc14-debug-dynamic:filterbank.obj
 0002:00018310       __real@3a41fc8f            000000014009d310     libspeex-x86_64-x64-vc14-debug-dynamic:filterbank.obj
 0002:00018314       __real@3eaed289            000000014009d314     libspeex-x86_64-x64-vc14-debug-dynamic:filterbank.obj
 0002:00018318       __real@3f004dfd            000000014009d318     libspeex-x86_64-x64-vc14-debug-dynamic:filterbank.obj
 0002:00018320       __real@4001eb8520000000    000000014009d320     libspeex-x86_64-x64-vc14-debug-dynamic:filterbank.obj
 0002:00018330       __real@402a333340000000    000000014009d330     libspeex-x86_64-x64-vc14-debug-dynamic:filterbank.obj
 0002:00018340       __real@3f6a36e2eb1c432d    000000014009d340     libsrtp-x86_64-x64-vc14-debug-dynamic:stat.obj
 0002:00018350       __real@400147ae147ae148    000000014009d350     libsrtp-x86_64-x64-vc14-debug-dynamic:stat.obj
 0002:00018360       __real@404715c28f5c28f6    000000014009d360     libsrtp-x86_64-x64-vc14-debug-dynamic:stat.obj
 0002:00018370       __real@40b3880000000000    000000014009d370     libsrtp-x86_64-x64-vc14-debug-dynamic:stat.obj
 0002:000183f0       srtp_null_cipher           000000014009d3f0     libsrtp-x86_64-x64-vc14-debug-dynamic:null_cipher.obj
 0002:00018470       srtp_aes_icm_128           000000014009d470     libsrtp-x86_64-x64-vc14-debug-dynamic:aes_icm.obj
 0002:000184d0       srtp_aes_icm_256           000000014009d4d0     libsrtp-x86_64-x64-vc14-debug-dynamic:aes_icm.obj
 0002:000187e0       srtp_null_auth             000000014009d7e0     libsrtp-x86_64-x64-vc14-debug-dynamic:null_auth.obj
 0002:000188f0       srtp_hmac                  000000014009d8f0     libsrtp-x86_64-x64-vc14-debug-dynamic:hmac.obj
 0002:0001b290       _load_config_used          00000001400a0290     MSVCRTD:loadcfg.obj
 0002:0001b600       __CastGuardVftablesStart   00000001400a0600     MSVCRTD:guard_support.obj
 0002:0001b710       __CastGuardVftablesEnd     00000001400a0710     MSVCRTD:guard_support.obj
 0002:0001ba20       __rtc_iaa                  00000001400a0a20     MSVCRTD:initsect.obj
 0002:0001bb30       __rtc_izz                  00000001400a0b30     MSVCRTD:initsect.obj
 0002:0001bc40       __rtc_taa                  00000001400a0c40     MSVCRTD:initsect.obj
 0002:0001bd50       __rtc_tzz                  00000001400a0d50     MSVCRTD:initsect.obj
 0003:0000861c       pjmedia_add_rtpmap_for_static_pt 00000001400ac61c     pjmedia-x86_64-x64-vc14-debug-dynamic:endpoint.obj
 0003:0000863c       pjmedia_add_bandwidth_tias_in_sdp 00000001400ac63c     pjmedia-x86_64-x64-vc14-debug-dynamic:endpoint.obj
 0003:00021390       pj_optind                  00000001400c5390     pjlib-util-x86_64-x64-vc14-debug-dynamic:getopt.obj
 0003:00021394       pj_optopt                  00000001400c5394     pjlib-util-x86_64-x64-vc14-debug-dynamic:getopt.obj
 0003:00029d70       pj_pool_factory_default_policy 00000001400cdd70     pjlib-x86_64-x64-vc14-debug-dynamic:pool_policy_malloc.obj
 0003:00035188       PJ_VERSION                 00000001400d9188     pjlib-x86_64-x64-vc14-debug-dynamic:config.obj
 0003:00036bb0       mod_srtp                   00000001400dabb0     libsrtp-x86_64-x64-vc14-debug-dynamic:srtp.obj
 0003:00037490       mod_alloc                  00000001400db490     libsrtp-x86_64-x64-vc14-debug-dynamic:alloc.obj
 0003:00037530       octet_weight               00000001400db530     libsrtp-x86_64-x64-vc14-debug-dynamic:datatypes.obj
 0003:00037a10       srtp_mod_cipher            00000001400dba10     libsrtp-x86_64-x64-vc14-debug-dynamic:cipher.obj
 0003:00037d48       srtp_mod_auth              00000001400dbd48     libsrtp-x86_64-x64-vc14-debug-dynamic:auth.obj
 0003:00037e58       srtp_mod_crypto_kernel     00000001400dbe58     libsrtp-x86_64-x64-vc14-debug-dynamic:crypto_kernel.obj
 0003:000380b0       mod_stat                   00000001400dc0b0     libsrtp-x86_64-x64-vc14-debug-dynamic:stat.obj
 0003:00038228       srtp_mod_aes_icm           00000001400dc228     libsrtp-x86_64-x64-vc14-debug-dynamic:aes_icm.obj
 0003:000383a8       srtp_mod_hmac              00000001400dc3a8     libsrtp-x86_64-x64-vc14-debug-dynamic:hmac.obj
 0003:000384a8       srtp_mod_sha1              00000001400dc4a8     libsrtp-x86_64-x64-vc14-debug-dynamic:sha1.obj
 0003:000384c0       SHA_K0                     00000001400dc4c0     libsrtp-x86_64-x64-vc14-debug-dynamic:sha1.obj
 0003:000384c4       SHA_K1                     00000001400dc4c4     libsrtp-x86_64-x64-vc14-debug-dynamic:sha1.obj
 0003:000384c8       SHA_K2                     00000001400dc4c8     libsrtp-x86_64-x64-vc14-debug-dynamic:sha1.obj
 0003:000384cc       SHA_K3                     00000001400dc4cc     libsrtp-x86_64-x64-vc14-debug-dynamic:sha1.obj
 0003:000385b0       __security_cookie_complement 00000001400dc5b0     MSVCRTD:gs_cookie.obj
 0003:000385b8       __security_cookie          00000001400dc5b8     MSVCRTD:gs_cookie.obj
 0003:000385c4       _fltused                   00000001400dc5c4     MSVCRTD:fltused.obj
 0003:000385c8       __scrt_native_dllmain_reason 00000001400dc5c8     MSVCRTD:utility.obj
 0003:000385cc       __scrt_default_matherr     00000001400dc5cc     MSVCRTD:matherr.obj
 0003:000385d0       __isa_available            00000001400dc5d0     MSVCRTD:cpu_disp.obj
 0003:000385d4       __isa_enabled              00000001400dc5d4     MSVCRTD:cpu_disp.obj
 0003:000385d8       __memcpy_nt_iters          00000001400dc5d8     MSVCRTD:cpu_disp.obj
 0003:000385e0       __memset_nt_iters          00000001400dc5e0     MSVCRTD:cpu_disp.obj
 0003:000385f0       __scrt_ucrt_dll_is_in_use  00000001400dc5f0     MSVCRTD:ucrt_stubs.obj
 0003:00039cf0       pj_optarg                  00000001400ddcf0     pjlib-util-x86_64-x64-vc14-debug-dynamic:getopt.obj
 0003:0003a334       err_level                  00000001400de334     libsrtp-x86_64-x64-vc14-debug-dynamic:srtp_err.obj
 0003:0003a338       crypto_kernel              00000001400de338     libsrtp-x86_64-x64-vc14-debug-dynamic:crypto_kernel.obj
 0003:0003aa18       __scrt_current_native_startup_state 00000001400dea18     MSVCRTD:utility.obj
 0003:0003aa20       __scrt_native_startup_lock 00000001400dea20     MSVCRTD:utility.obj
 0003:0003aa70       ?__type_info_root_node@@3U__type_info_node@@A 00000001400dea70     MSVCRTD:tncleanup.obj
 0003:0003aa88       ?_OptionsStorage@?1??__local_stdio_printf_options@@9@4_KA 00000001400dea88     MSVCRTD:default_local_stdio_options.obj
 0003:0003aa98       ?_OptionsStorage@?1??__local_stdio_scanf_options@@9@4_KA 00000001400dea98     MSVCRTD:default_local_stdio_options.obj
 0003:0003aaa4       __scrt_debugger_hook_flag  00000001400deaa4     MSVCRTD:utility_desktop.obj
 0003:0003aaa8       __castguard_check_failure_os_handled_fptr 00000001400deaa8     MSVCRTD:guard_support.obj
 0003:0003aab4       __favor                    00000001400deab4     MSVCRTD:cpu_disp.obj
 0003:0003aab8       ?_OptionsStorage@?1??__local_stdio_printf_options@@9@9 00000001400deab8     <common>
 0003:0003aacc       PJ_NO_MEMORY_EXCEPTION     00000001400deacc     <common>
 0003:0003aae0       bit_string                 00000001400deae0     <common>
 0003:0003afb8       ?_OptionsStorage@?1??__local_stdio_scanf_options@@9@9 00000001400defb8     <common>
 0003:0003afd0       __dyn_tls_dtor_callback    00000001400defd0     <common>
 0003:0003afe8       __dyn_tls_init_callback    00000001400defe8     <common>
 0005:00000000       __imp_GetFileTime          00000001400e3000     kernel32:KERNEL32.dll
 0005:00000008       __imp_GetModuleHandleW     00000001400e3008     kernel32:KERNEL32.dll
 0005:00000010       __imp_GetStartupInfoW      00000001400e3010     kernel32:KERNEL32.dll
 0005:00000018       __imp_IsDebuggerPresent    00000001400e3018     kernel32:KERNEL32.dll
 0005:00000020       __imp_InitializeSListHead  00000001400e3020     kernel32:KERNEL32.dll
 0005:00000028       __imp_GetSystemTimeAsFileTime 00000001400e3028     kernel32:KERNEL32.dll
 0005:00000030       __imp_IsProcessorFeaturePresent 00000001400e3030     kernel32:KERNEL32.dll
 0005:00000038       __imp_TerminateProcess     00000001400e3038     kernel32:KERNEL32.dll
 0005:00000040       __imp_GetCurrentProcess    00000001400e3040     kernel32:KERNEL32.dll
 0005:00000048       __imp_SetUnhandledExceptionFilter 00000001400e3048     kernel32:KERNEL32.dll
 0005:00000050       __imp_UnhandledExceptionFilter 00000001400e3050     kernel32:KERNEL32.dll
 0005:00000058       __imp_RtlVirtualUnwind     00000001400e3058     kernel32:KERNEL32.dll
 0005:00000060       __imp_RtlLookupFunctionEntry 00000001400e3060     kernel32:KERNEL32.dll
 0005:00000068       __imp_RtlCaptureContext    00000001400e3068     kernel32:KERNEL32.dll
 0005:00000070       __imp_LoadLibraryA         00000001400e3070     kernel32:KERNEL32.dll
 0005:00000078       __imp_GetProcAddress       00000001400e3078     kernel32:KERNEL32.dll
 0005:00000080       __imp_FreeLibrary          00000001400e3080     kernel32:KERNEL32.dll
 0005:00000088       __imp_QueryPerformanceFrequency 00000001400e3088     kernel32:KERNEL32.dll
 0005:00000090       __imp_QueryPerformanceCounter 00000001400e3090     kernel32:KERNEL32.dll
 0005:00000098       __imp_WriteFile            00000001400e3098     kernel32:KERNEL32.dll
 0005:000000a0       __imp_SetFilePointer       00000001400e30a0     kernel32:KERNEL32.dll
 0005:000000a8       __imp_ReadFile             00000001400e30a8     kernel32:KERNEL32.dll
 0005:000000b0       __imp_FlushFileBuffers     00000001400e30b0     kernel32:KERNEL32.dll
 0005:000000b8       __imp_MoveFileExA          00000001400e30b8     kernel32:KERNEL32.dll
 0005:000000c0       __imp_GetFileSize          00000001400e30c0     kernel32:KERNEL32.dll
 0005:000000c8       __imp_FileTimeToLocalFileTime 00000001400e30c8     kernel32:KERNEL32.dll
 0005:000000d0       __imp_DeleteFileA          00000001400e30d0     kernel32:KERNEL32.dll
 0005:000000d8       __imp_CreateFileA          00000001400e30d8     kernel32:KERNEL32.dll
 0005:000000e0       __imp_SystemTimeToFileTime 00000001400e30e0     kernel32:KERNEL32.dll
 0005:000000e8       __imp_FileTimeToSystemTime 00000001400e30e8     kernel32:KERNEL32.dll
 0005:000000f0       __imp_GetLocalTime         00000001400e30f0     kernel32:KERNEL32.dll
 0005:000000f8       __imp_FormatMessageA       00000001400e30f8     kernel32:KERNEL32.dll
 0005:00000100       __imp_SetLastError         00000001400e3100     kernel32:KERNEL32.dll
 0005:00000108       __imp_SetConsoleTextAttribute 00000001400e3108     kernel32:KERNEL32.dll
 0005:00000110       __imp_GetConsoleScreenBufferInfo 00000001400e3110     kernel32:KERNEL32.dll
 0005:00000118       __imp_CreateSemaphoreA     00000001400e3118     kernel32:KERNEL32.dll
 0005:00000120       __imp_PulseEvent           00000001400e3120     kernel32:KERNEL32.dll
 0005:00000128       __imp_TlsFree              00000001400e3128     kernel32:KERNEL32.dll
 0005:00000130       __imp_TlsSetValue          00000001400e3130     kernel32:KERNEL32.dll
 0005:00000138       __imp_TlsGetValue          00000001400e3138     kernel32:KERNEL32.dll
 0005:00000140       __imp_TlsAlloc             00000001400e3140     kernel32:KERNEL32.dll
 0005:00000148       __imp_ResumeThread         00000001400e3148     kernel32:KERNEL32.dll
 0005:00000150       __imp_GetThreadPriority    00000001400e3150     kernel32:KERNEL32.dll
 0005:00000158       __imp_GetCurrentThreadId   00000001400e3158     kernel32:KERNEL32.dll
 0005:00000160       __imp_CreateThread         00000001400e3160     kernel32:KERNEL32.dll
 0005:00000168       __imp_GetCurrentProcessId  00000001400e3168     kernel32:KERNEL32.dll
 0005:00000170       __imp_Sleep                00000001400e3170     kernel32:KERNEL32.dll
 0005:00000178       __imp_WaitForSingleObject  00000001400e3178     kernel32:KERNEL32.dll
 0005:00000180       __imp_ReleaseSemaphore     00000001400e3180     kernel32:KERNEL32.dll
 0005:00000188       __imp_ResetEvent           00000001400e3188     kernel32:KERNEL32.dll
 0005:00000190       __imp_DeleteCriticalSection 00000001400e3190     kernel32:KERNEL32.dll
 0005:00000198       __imp_TryEnterCriticalSection 00000001400e3198     kernel32:KERNEL32.dll
 0005:000001a0       __imp_LeaveCriticalSection 00000001400e31a0     kernel32:KERNEL32.dll
 0005:000001a8       __imp_EnterCriticalSection 00000001400e31a8     kernel32:KERNEL32.dll
 0005:000001b0       __imp_InitializeCriticalSection 00000001400e31b0     kernel32:KERNEL32.dll
 0005:000001b8       __imp_GetLastError         00000001400e31b8     kernel32:KERNEL32.dll
 0005:000001c0       __imp_GetStdHandle         00000001400e31c0     kernel32:KERNEL32.dll
 0005:000001c8       __imp_SetThreadPriority    00000001400e31c8     kernel32:KERNEL32.dll
 0005:000001d0       __imp_GetCurrentThread     00000001400e31d0     kernel32:KERNEL32.dll
 0005:000001d8       __imp_WaitForMultipleObjects 00000001400e31d8     kernel32:KERNEL32.dll
 0005:000001e0       __imp_CreateEventA         00000001400e31e0     kernel32:KERNEL32.dll
 0005:000001e8       __imp_CloseHandle          00000001400e31e8     kernel32:KERNEL32.dll
 0005:000001f0       __imp_SetEvent             00000001400e31f0     kernel32:KERNEL32.dll
 0005:000001f8       \177KERNEL32_NULL_THUNK_DATA 00000001400e31f8     kernel32:KERNEL32.dll
 0005:000002b0       __imp___current_exception_context 00000001400e32b0     vcruntimed:VCRUNTIME140D.dll
 0005:000002b8       __imp_memcpy               00000001400e32b8     vcruntimed:VCRUNTIME140D.dll
 0005:000002c0       __imp_memset               00000001400e32c0     vcruntimed:VCRUNTIME140D.dll
 0005:000002c8       __imp_memmove              00000001400e32c8     vcruntimed:VCRUNTIME140D.dll
 0005:000002d0       __imp_memchr               00000001400e32d0     vcruntimed:VCRUNTIME140D.dll
 0005:000002d8       __imp_strchr               00000001400e32d8     vcruntimed:VCRUNTIME140D.dll
 0005:000002e0       __imp_memcmp               00000001400e32e0     vcruntimed:VCRUNTIME140D.dll
 0005:000002e8       __imp_longjmp              00000001400e32e8     vcruntimed:VCRUNTIME140D.dll
 0005:000002f0       __imp___C_specific_handler 00000001400e32f0     vcruntimed:VCRUNTIME140D.dll
 0005:000002f8       __imp___intrinsic_setjmp   00000001400e32f8     vcruntimed:VCRUNTIME140D.dll
 0005:00000300       __imp___std_type_info_destroy_list 00000001400e3300     vcruntimed:VCRUNTIME140D.dll
 0005:00000308       __imp___current_exception  00000001400e3308     vcruntimed:VCRUNTIME140D.dll
 0005:00000310       \177VCRUNTIME140D_NULL_THUNK_DATA 00000001400e3310     vcruntimed:VCRUNTIME140D.dll
 0005:00000378       __imp_waveOutWrite         00000001400e3378     winmm:WINMM.dll
 0005:00000380       __imp_waveOutUnprepareHeader 00000001400e3380     winmm:WINMM.dll
 0005:00000388       __imp_waveOutPrepareHeader 00000001400e3388     winmm:WINMM.dll
 0005:00000390       __imp_waveOutClose         00000001400e3390     winmm:WINMM.dll
 0005:00000398       __imp_waveOutOpen          00000001400e3398     winmm:WINMM.dll
 0005:000003a0       __imp_waveOutPause         00000001400e33a0     winmm:WINMM.dll
 0005:000003a8       __imp_waveOutGetVolume     00000001400e33a8     winmm:WINMM.dll
 0005:000003b0       __imp_waveOutGetDevCapsA   00000001400e33b0     winmm:WINMM.dll
 0005:000003b8       __imp_waveOutGetNumDevs    00000001400e33b8     winmm:WINMM.dll
 0005:000003c0       __imp_waveInGetErrorTextA  00000001400e33c0     winmm:WINMM.dll
 0005:000003c8       __imp_waveOutGetErrorTextA 00000001400e33c8     winmm:WINMM.dll
 0005:000003d0       __imp_waveOutRestart       00000001400e33d0     winmm:WINMM.dll
 0005:000003d8       __imp_waveOutReset         00000001400e33d8     winmm:WINMM.dll
 0005:000003e0       __imp_waveInGetNumDevs     00000001400e33e0     winmm:WINMM.dll
 0005:000003e8       __imp_waveInGetDevCapsA    00000001400e33e8     winmm:WINMM.dll
 0005:000003f0       __imp_waveInOpen           00000001400e33f0     winmm:WINMM.dll
 0005:000003f8       __imp_waveInClose          00000001400e33f8     winmm:WINMM.dll
 0005:00000400       __imp_waveInPrepareHeader  00000001400e3400     winmm:WINMM.dll
 0005:00000408       __imp_waveInUnprepareHeader 00000001400e3408     winmm:WINMM.dll
 0005:00000410       __imp_waveInAddBuffer      00000001400e3410     winmm:WINMM.dll
 0005:00000418       __imp_waveInStart          00000001400e3418     winmm:WINMM.dll
 0005:00000420       __imp_waveInStop           00000001400e3420     winmm:WINMM.dll
 0005:00000428       __imp_waveInReset          00000001400e3428     winmm:WINMM.dll
 0005:00000430       __imp_waveOutSetVolume     00000001400e3430     winmm:WINMM.dll
 0005:00000438       \177WINMM_NULL_THUNK_DATA  00000001400e3438     winmm:WINMM.dll
 0005:000004b0       __imp_recvfrom             00000001400e34b0     ws2_32:WS2_32.dll
 0005:000004b8       __imp_recv                 00000001400e34b8     ws2_32:WS2_32.dll
 0005:000004c0       __imp_ntohs                00000001400e34c0     ws2_32:WS2_32.dll
 0005:000004c8       __imp_ntohl                00000001400e34c8     ws2_32:WS2_32.dll
 0005:000004d0       __imp_listen               00000001400e34d0     ws2_32:WS2_32.dll
 0005:000004d8       __imp_inet_ntoa            00000001400e34d8     ws2_32:WS2_32.dll
 0005:000004e0       __imp_inet_addr            00000001400e34e0     ws2_32:WS2_32.dll
 0005:000004e8       __imp_htons                00000001400e34e8     ws2_32:WS2_32.dll
 0005:000004f0       __imp_htonl                00000001400e34f0     ws2_32:WS2_32.dll
 0005:000004f8       __imp_getsockopt           00000001400e34f8     ws2_32:WS2_32.dll
 0005:00000500       __imp_getsockname          00000001400e3500     ws2_32:WS2_32.dll
 0005:00000508       __imp_getpeername          00000001400e3508     ws2_32:WS2_32.dll
 0005:00000510       __imp_connect              00000001400e3510     ws2_32:WS2_32.dll
 0005:00000518       __imp_closesocket          00000001400e3518     ws2_32:WS2_32.dll
 0005:00000520       __imp_bind                 00000001400e3520     ws2_32:WS2_32.dll
 0005:00000528       __imp_accept               00000001400e3528     ws2_32:WS2_32.dll
 0005:00000530       __imp_ioctlsocket          00000001400e3530     ws2_32:WS2_32.dll
 0005:00000538       __imp_WSASetLastError      00000001400e3538     ws2_32:WS2_32.dll
 0005:00000540       __imp_WSAGetLastError      00000001400e3540     ws2_32:WS2_32.dll
 0005:00000548       __imp_WSACleanup           00000001400e3548     ws2_32:WS2_32.dll
 0005:00000550       __imp_WSAStartup           00000001400e3550     ws2_32:WS2_32.dll
 0005:00000558       __imp_send                 00000001400e3558     ws2_32:WS2_32.dll
 0005:00000560       __imp_sendto               00000001400e3560     ws2_32:WS2_32.dll
 0005:00000568       __imp_setsockopt           00000001400e3568     ws2_32:WS2_32.dll
 0005:00000570       __imp_shutdown             00000001400e3570     ws2_32:WS2_32.dll
 0005:00000578       __imp_gethostname          00000001400e3578     ws2_32:WS2_32.dll
 0005:00000580       __imp_WSAIoctl             00000001400e3580     ws2_32:WS2_32.dll
 0005:00000588       __imp_WSASocketA           00000001400e3588     ws2_32:WS2_32.dll
 0005:00000590       __imp_WSAAddressToStringA  00000001400e3590     ws2_32:WS2_32.dll
 0005:00000598       __imp_WSAStringToAddressA  00000001400e3598     ws2_32:WS2_32.dll
 0005:000005a0       __imp_gethostbyname        00000001400e35a0     ws2_32:WS2_32.dll
 0005:000005a8       __imp___WSAFDIsSet         00000001400e35a8     ws2_32:WS2_32.dll
 0005:000005b0       __imp_select               00000001400e35b0     ws2_32:WS2_32.dll
 0005:000005b8       \177WS2_32_NULL_THUNK_DATA 00000001400e35b8     ws2_32:WS2_32.dll
 0005:00000640       __imp_CoCreateGuid         00000001400e3640     ole32:ole32.dll
 0005:00000648       \177ole32_NULL_THUNK_DATA  00000001400e3648     ole32:ole32.dll
 0005:000006a0       __imp_strcat               00000001400e36a0     ucrtd:ucrtbased.dll
 0005:000006a8       __imp___acrt_iob_func      00000001400e36a8     ucrtd:ucrtbased.dll
 0005:000006b0       __imp_fflush               00000001400e36b0     ucrtd:ucrtbased.dll
 0005:000006b8       __imp_fgets                00000001400e36b8     ucrtd:ucrtbased.dll
 0005:000006c0       __imp_puts                 00000001400e36c0     ucrtd:ucrtbased.dll
 0005:000006c8       __imp___stdio_common_vfprintf 00000001400e36c8     ucrtd:ucrtbased.dll
 0005:000006d0       __imp___stdio_common_vsprintf 00000001400e36d0     ucrtd:ucrtbased.dll
 0005:000006d8       __imp_strtol               00000001400e36d8     ucrtd:ucrtbased.dll
 0005:000006e0       __imp__wassert             00000001400e36e0     ucrtd:ucrtbased.dll
 0005:000006e8       __imp_strlen               00000001400e36e8     ucrtd:ucrtbased.dll
 0005:000006f0       __imp_strcpy               00000001400e36f0     ucrtd:ucrtbased.dll
 0005:000006f8       __imp_strncpy              00000001400e36f8     ucrtd:ucrtbased.dll
 0005:00000700       __imp__stricmp             00000001400e3700     ucrtd:ucrtbased.dll
 0005:00000708       __imp_isdigit              00000001400e3708     ucrtd:ucrtbased.dll
 0005:00000710       __imp_cos                  00000001400e3710     ucrtd:ucrtbased.dll
 0005:00000718       __imp_strcmp               00000001400e3718     ucrtd:ucrtbased.dll
 0005:00000720       __imp_strncmp              00000001400e3720     ucrtd:ucrtbased.dll
 0005:00000728       __imp_isxdigit             00000001400e3728     ucrtd:ucrtbased.dll
 0005:00000730       __imp__strnicmp            00000001400e3730     ucrtd:ucrtbased.dll
 0005:00000738       __imp_free                 00000001400e3738     ucrtd:ucrtbased.dll
 0005:00000740       __imp_malloc               00000001400e3740     ucrtd:ucrtbased.dll
 0005:00000748       __imp_isspace              00000001400e3748     ucrtd:ucrtbased.dll
 0005:00000750       __imp_fmod                 00000001400e3750     ucrtd:ucrtbased.dll
 0005:00000758       __imp_srand                00000001400e3758     ucrtd:ucrtbased.dll
 0005:00000760       __imp_rand                 00000001400e3760     ucrtd:ucrtbased.dll
 0005:00000768       __imp_calloc               00000001400e3768     ucrtd:ucrtbased.dll
 0005:00000770       __imp_exp                  00000001400e3770     ucrtd:ucrtbased.dll
 0005:00000778       __imp_sqrt                 00000001400e3778     ucrtd:ucrtbased.dll
 0005:00000780       __imp_floor                00000001400e3780     ucrtd:ucrtbased.dll
 0005:00000788       __imp_pow                  00000001400e3788     ucrtd:ucrtbased.dll
 0005:00000790       __imp_sin                  00000001400e3790     ucrtd:ucrtbased.dll
 0005:00000798       __imp_fabs                 00000001400e3798     ucrtd:ucrtbased.dll
 0005:000007a0       __imp_log                  00000001400e37a0     ucrtd:ucrtbased.dll
 0005:000007a8       __imp_atan                 00000001400e37a8     ucrtd:ucrtbased.dll
 0005:000007b0       __imp___stdio_common_vsscanf 00000001400e37b0     ucrtd:ucrtbased.dll
 0005:000007b8       __imp_clock                00000001400e37b8     ucrtd:ucrtbased.dll
 0005:000007c0       __imp_exit                 00000001400e37c0     ucrtd:ucrtbased.dll
 0005:000007c8       __imp__seh_filter_exe      00000001400e37c8     ucrtd:ucrtbased.dll
 0005:000007d0       __imp__set_app_type        00000001400e37d0     ucrtd:ucrtbased.dll
 0005:000007d8       __imp___setusermatherr     00000001400e37d8     ucrtd:ucrtbased.dll
 0005:000007e0       __imp__configure_narrow_argv 00000001400e37e0     ucrtd:ucrtbased.dll
 0005:000007e8       __imp__initialize_narrow_environment 00000001400e37e8     ucrtd:ucrtbased.dll
 0005:000007f0       __imp__get_initial_narrow_environment 00000001400e37f0     ucrtd:ucrtbased.dll
 0005:000007f8       __imp__initterm            00000001400e37f8     ucrtd:ucrtbased.dll
 0005:00000800       __imp__initterm_e          00000001400e3800     ucrtd:ucrtbased.dll
 0005:00000808       __imp__exit                00000001400e3808     ucrtd:ucrtbased.dll
 0005:00000810       __imp__set_fmode           00000001400e3810     ucrtd:ucrtbased.dll
 0005:00000818       __imp___p___argc           00000001400e3818     ucrtd:ucrtbased.dll
 0005:00000820       __imp___p___argv           00000001400e3820     ucrtd:ucrtbased.dll
 0005:00000828       __imp__cexit               00000001400e3828     ucrtd:ucrtbased.dll
 0005:00000830       __imp__c_exit              00000001400e3830     ucrtd:ucrtbased.dll
 0005:00000838       __imp__register_thread_local_exe_atexit_callback 00000001400e3838     ucrtd:ucrtbased.dll
 0005:00000840       __imp__configthreadlocale  00000001400e3840     ucrtd:ucrtbased.dll
 0005:00000848       __imp__set_new_mode        00000001400e3848     ucrtd:ucrtbased.dll
 0005:00000850       __imp___p__commode         00000001400e3850     ucrtd:ucrtbased.dll
 0005:00000858       __imp__seh_filter_dll      00000001400e3858     ucrtd:ucrtbased.dll
 0005:00000860       __imp__initialize_onexit_table 00000001400e3860     ucrtd:ucrtbased.dll
 0005:00000868       __imp__register_onexit_function 00000001400e3868     ucrtd:ucrtbased.dll
 0005:00000870       __imp__execute_onexit_table 00000001400e3870     ucrtd:ucrtbased.dll
 0005:00000878       __imp__crt_atexit          00000001400e3878     ucrtd:ucrtbased.dll
 0005:00000880       __imp__crt_at_quick_exit   00000001400e3880     ucrtd:ucrtbased.dll
 0005:00000888       __imp_terminate            00000001400e3888     ucrtd:ucrtbased.dll
 0005:00000890       \177ucrtbased_NULL_THUNK_DATA 00000001400e3890     ucrtd:ucrtbased.dll
 0005:00000948       __IMPORT_DESCRIPTOR_ole32  00000001400e3948     ole32:ole32.dll
 0005:0000095c       __IMPORT_DESCRIPTOR_WS2_32 00000001400e395c     ws2_32:WS2_32.dll
 0005:00000970       __IMPORT_DESCRIPTOR_WINMM  00000001400e3970     winmm:WINMM.dll
 0005:00000984       __IMPORT_DESCRIPTOR_KERNEL32 00000001400e3984     kernel32:KERNEL32.dll
 0005:00000998       __IMPORT_DESCRIPTOR_VCRUNTIME140D 00000001400e3998     vcruntimed:VCRUNTIME140D.dll
 0005:000009ac       __IMPORT_DESCRIPTOR_ucrtbased 00000001400e39ac     ucrtd:ucrtbased.dll
 0005:000009c0       __NULL_IMPORT_DESCRIPTOR   00000001400e39c0     ole32:ole32.dll
 0006:00000000       __guard_check_icall_fptr   00000001400e6000     MSVCRTD:guard_support.obj
 0006:00000010       __guard_xfg_check_icall_fptr 00000001400e6010     MSVCRTD:guard_support.obj
 0006:00000020       __guard_dispatch_icall_fptr 00000001400e6020     MSVCRTD:guard_support.obj
 0006:00000030       __guard_xfg_dispatch_icall_fptr 00000001400e6030     MSVCRTD:guard_support.obj
 0006:00000040       __guard_xfg_table_dispatch_icall_fptr 00000001400e6040     MSVCRTD:guard_support.obj

 entry point at        0001:00000a28

 Static symbols

 0000:fff1a000       _volmd                     0000000140000000     confsample.obj
 0000:fff1a000       _volmd                     0000000140000000     pjlib-util-x86_64-x64-vc14-debug-dynamic:base64.obj
 0000:fff1a000       _volmd                     0000000140000000     pjlib-x86_64-x64-vc14-debug-dynamic:addr_resolv_sock.obj
 0002:fff7b000       $unwind$_snprintf          0000000140000000     pjlib-x86_64-x64-vc14-debug-dynamic:errno.obj
 0002:fff7b000       $unwind$_vsnprintf         0000000140000000     pjlib-x86_64-x64-vc14-debug-dynamic:errno.obj
 0002:fff7b000       $unwind$_vsnprintf_l       0000000140000000     pjlib-x86_64-x64-vc14-debug-dynamic:errno.obj
 0000:fff1a000       _volmd                     0000000140000000     pjlib-x86_64-x64-vc14-debug-dynamic:errno.obj
 0002:fff7b000       $unwind$_snprintf          0000000140000000     pjlib-x86_64-x64-vc14-debug-dynamic:except.obj
 0002:fff7b000       $unwind$_vsnprintf         0000000140000000     pjlib-x86_64-x64-vc14-debug-dynamic:except.obj
 0002:fff7b000       $unwind$_vsnprintf_l       0000000140000000     pjlib-x86_64-x64-vc14-debug-dynamic:except.obj
 0000:fff1a000       _volmd                     0000000140000000     pjlib-x86_64-x64-vc14-debug-dynamic:file_access_win32.obj
 0000:fff1a000       _volmd                     0000000140000000     pjlib-x86_64-x64-vc14-debug-dynamic:guid_win32.obj
 0000:fff1a000       _volmd                     0000000140000000     pjlib-x86_64-x64-vc14-debug-dynamic:ioqueue_select.obj
 0000:fff1a000       _volmd                     0000000140000000     pjlib-x86_64-x64-vc14-debug-dynamic:ip_helper_win32.obj
 0002:fff7b000       $unwind$_snprintf          0000000140000000     pjlib-x86_64-x64-vc14-debug-dynamic:log.obj
 0002:fff7b000       $unwind$_vsnprintf         0000000140000000     pjlib-x86_64-x64-vc14-debug-dynamic:log.obj
 0002:fff7b000       $unwind$_vsnprintf_l       0000000140000000     pjlib-x86_64-x64-vc14-debug-dynamic:log.obj
 0000:fff1a000       _volmd                     0000000140000000     pjlib-x86_64-x64-vc14-debug-dynamic:log.obj
 0002:fff7b000       $unwind$_vfprintf_l        0000000140000000     pjlib-x86_64-x64-vc14-debug-dynamic:log_writer_stdout.obj
 0002:fff7b000       $unwind$printf             0000000140000000     pjlib-x86_64-x64-vc14-debug-dynamic:log_writer_stdout.obj
 0002:fff7b000       $unwind$_snprintf          0000000140000000     pjlib-x86_64-x64-vc14-debug-dynamic:os_core_win32.obj
 0002:fff7b000       $unwind$_vsnprintf         0000000140000000     pjlib-x86_64-x64-vc14-debug-dynamic:os_core_win32.obj
 0002:fff7b000       $unwind$_vsnprintf_l       0000000140000000     pjlib-x86_64-x64-vc14-debug-dynamic:os_core_win32.obj
 0000:fff1a000       _volmd                     0000000140000000     pjlib-x86_64-x64-vc14-debug-dynamic:os_core_win32.obj
 0002:fff7b000       $unwind$_snprintf          0000000140000000     pjlib-x86_64-x64-vc14-debug-dynamic:os_error_win32.obj
 0002:fff7b000       $unwind$_vsnprintf         0000000140000000     pjlib-x86_64-x64-vc14-debug-dynamic:os_error_win32.obj
 0002:fff7b000       $unwind$_vsnprintf_l       0000000140000000     pjlib-x86_64-x64-vc14-debug-dynamic:os_error_win32.obj
 0000:fff1a000       _volmd                     0000000140000000     pjlib-x86_64-x64-vc14-debug-dynamic:os_time_win32.obj
 0002:fff7b000       $unwind$_snprintf          0000000140000000     pjlib-x86_64-x64-vc14-debug-dynamic:pool.obj
 0002:fff7b000       $unwind$_vsnprintf         0000000140000000     pjlib-x86_64-x64-vc14-debug-dynamic:pool.obj
 0002:fff7b000       $unwind$_vsnprintf_l       0000000140000000     pjlib-x86_64-x64-vc14-debug-dynamic:pool.obj
 0000:fff1a000       _volmd                     0000000140000000     pjlib-x86_64-x64-vc14-debug-dynamic:pool.obj
 0000:fff1a000       _volmd                     0000000140000000     pjlib-x86_64-x64-vc14-debug-dynamic:sock_bsd.obj
 0002:fff7b000       $unwind$_snprintf          0000000140000000     pjlib-x86_64-x64-vc14-debug-dynamic:sock_common.obj
 0002:fff7b000       $unwind$_vsnprintf         0000000140000000     pjlib-x86_64-x64-vc14-debug-dynamic:sock_common.obj
 0002:fff7b000       $unwind$_vsnprintf_l       0000000140000000     pjlib-x86_64-x64-vc14-debug-dynamic:sock_common.obj
 0000:fff1a000       _volmd                     0000000140000000     pjlib-x86_64-x64-vc14-debug-dynamic:sock_common.obj
 0002:fff7b000       $unwind$_vsnprintf_l       0000000140000000     pjmedia-audiodev-x86_64-x64-vc14-debug-dynamic:errno.obj
 0000:fff1a000       _volmd                     0000000140000000     pjmedia-audiodev-x86_64-x64-vc14-debug-dynamic:wmme_dev.obj
 0000:fff1a000       _volmd                     0000000140000000     pjmedia-x86_64-x64-vc14-debug-dynamic:audiodev.obj
 0002:fff7b000       $unwind$_snprintf          0000000140000000     pjmedia-x86_64-x64-vc14-debug-dynamic:codec.obj
 0002:fff7b000       $unwind$_vsnprintf         0000000140000000     pjmedia-x86_64-x64-vc14-debug-dynamic:codec.obj
 0002:fff7b000       $unwind$_vsnprintf_l       0000000140000000     pjmedia-x86_64-x64-vc14-debug-dynamic:codec.obj
 0000:fff1a000       _volmd                     0000000140000000     pjmedia-x86_64-x64-vc14-debug-dynamic:codec.obj
 0000:fff1a000       _volmd                     0000000140000000     pjmedia-x86_64-x64-vc14-debug-dynamic:conference.obj
 0002:fff7b000       $unwind$_snprintf          0000000140000000     pjmedia-x86_64-x64-vc14-debug-dynamic:echo_suppress.obj
 0002:fff7b000       $unwind$_vsnprintf         0000000140000000     pjmedia-x86_64-x64-vc14-debug-dynamic:echo_suppress.obj
 0002:fff7b000       $unwind$_vsnprintf_l       0000000140000000     pjmedia-x86_64-x64-vc14-debug-dynamic:echo_suppress.obj
 0002:fff7b000       $unwind$_snprintf          0000000140000000     pjmedia-x86_64-x64-vc14-debug-dynamic:endpoint.obj
 0002:fff7b000       $unwind$_vsnprintf         0000000140000000     pjmedia-x86_64-x64-vc14-debug-dynamic:endpoint.obj
 0002:fff7b000       $unwind$_vsnprintf_l       0000000140000000     pjmedia-x86_64-x64-vc14-debug-dynamic:endpoint.obj
 0002:fff7b000       $unwind$_vsprintf_l        0000000140000000     pjmedia-x86_64-x64-vc14-debug-dynamic:endpoint.obj
 0002:fff7b000       $unwind$sprintf            0000000140000000     pjmedia-x86_64-x64-vc14-debug-dynamic:endpoint.obj
 0000:fff1a000       _volmd                     0000000140000000     pjmedia-x86_64-x64-vc14-debug-dynamic:endpoint.obj
 0002:fff7b000       $unwind$_snprintf          0000000140000000     pjmedia-x86_64-x64-vc14-debug-dynamic:errno.obj
 0002:fff7b000       $unwind$_vsnprintf         0000000140000000     pjmedia-x86_64-x64-vc14-debug-dynamic:errno.obj
 0002:fff7b000       $unwind$_vsnprintf_l       0000000140000000     pjmedia-x86_64-x64-vc14-debug-dynamic:errno.obj
 0000:fff1a000       _volmd                     0000000140000000     pjmedia-x86_64-x64-vc14-debug-dynamic:event.obj
 0002:fff7b000       $unwind$_snprintf          0000000140000000     pjmedia-x86_64-x64-vc14-debug-dynamic:sdp.obj
 0002:fff7b000       $unwind$_vsnprintf         0000000140000000     pjmedia-x86_64-x64-vc14-debug-dynamic:sdp.obj
 0002:fff7b000       $unwind$_vsnprintf_l       0000000140000000     pjmedia-x86_64-x64-vc14-debug-dynamic:sdp.obj
 0000:fff1a000       _volmd                     0000000140000000     pjmedia-x86_64-x64-vc14-debug-dynamic:sdp.obj
 0002:fff7b000       $unwind$_snprintf          0000000140000000     pjmedia-x86_64-x64-vc14-debug-dynamic:silencedet.obj
 0002:fff7b000       $unwind$_vsnprintf         0000000140000000     pjmedia-x86_64-x64-vc14-debug-dynamic:silencedet.obj
 0002:fff7b000       $unwind$_vsnprintf_l       0000000140000000     pjmedia-x86_64-x64-vc14-debug-dynamic:silencedet.obj
 0000:fff1a000       _volmd                     0000000140000000     pjmedia-x86_64-x64-vc14-debug-dynamic:sound_port.obj
 0002:fff7b000       $unwind$_snprintf          0000000140000000     pjmedia-x86_64-x64-vc14-debug-dynamic:transport_srtp.obj
 0002:fff7b000       $unwind$_vsnprintf         0000000140000000     pjmedia-x86_64-x64-vc14-debug-dynamic:transport_srtp.obj
 0002:fff7b000       $unwind$_vsnprintf_l       0000000140000000     pjmedia-x86_64-x64-vc14-debug-dynamic:transport_srtp.obj
 0002:fff7b000       $unwind$_vsprintf_l        0000000140000000     pjmedia-x86_64-x64-vc14-debug-dynamic:transport_srtp.obj
 0002:fff7b000       $unwind$sprintf            0000000140000000     pjmedia-x86_64-x64-vc14-debug-dynamic:transport_srtp.obj
 0000:fff1a000       _volmd                     0000000140000000     pjmedia-x86_64-x64-vc14-debug-dynamic:transport_srtp.obj
 0000:fff1a000       _volmd                     0000000140000000     pjmedia-x86_64-x64-vc14-debug-dynamic:wav_player.obj
 0000:fff1a000       _volmd                     0000000140000000     pjmedia-x86_64-x64-vc14-debug-dynamic:wav_writer.obj
 0000:fff1a000       _volmd                     0000000140000000     libspeex-x86_64-x64-vc14-debug-dynamic:filterbank.obj
 0000:fff1a000       _volmd                     0000000140000000     libsrtp-x86_64-x64-vc14-debug-dynamic:aes.obj
 0000:fff1a000       _volmd                     0000000140000000     libsrtp-x86_64-x64-vc14-debug-dynamic:aes_icm.obj
 0000:fff1a000       _volmd                     0000000140000000     libsrtp-x86_64-x64-vc14-debug-dynamic:auth.obj
 0000:fff1a000       _volmd                     0000000140000000     libsrtp-x86_64-x64-vc14-debug-dynamic:cipher.obj
 0000:fff1a000       _volmd                     0000000140000000     libsrtp-x86_64-x64-vc14-debug-dynamic:datatypes.obj
 0000:fff1a000       _volmd                     0000000140000000     libsrtp-x86_64-x64-vc14-debug-dynamic:ekt.obj
 0000:fff1a000       _volmd                     0000000140000000     libsrtp-x86_64-x64-vc14-debug-dynamic:hmac.obj
 0000:fff1a000       _volmd                     0000000140000000     libsrtp-x86_64-x64-vc14-debug-dynamic:sha1.obj
 0000:fff1a000       _volmd                     0000000140000000     libsrtp-x86_64-x64-vc14-debug-dynamic:srtp.obj
 0000:fff1a000       _volmd                     0000000140000000     libsrtp-x86_64-x64-vc14-debug-dynamic:stat.obj
 0000:fff1a000       _volmd                     0000000140000000     MSVCRTD:cpu_disp.obj
 0000:fff1a000       __guard_ehcont_?__scrt_common_main_seh@@YAHXZ 0000000140000000     MSVCRTD:exe_main.obj
 0000:fff1a000       __guard_fids_?pre_c_initialization@@YAHXZ 0000000140000000     MSVCRTD:exe_main.obj
 0000:fff1a000       __guard_fids__             0000000140000000     MSVCRTD:exe_main.obj
 0000:fff1a000       _volmd                     0000000140000000     MSVCRTD:gs_report.obj
 0000:fff1a000       _volmd                     0000000140000000     MSVCRTD:gs_report.obj
 0000:fff1a000       _volmd                     0000000140000000     MSVCRTD:gs_report.obj
 0000:fff1a000       __guard_fids__             0000000140000000     MSVCRTD:guard_support.obj
 0000:fff1a000       __guard_fids__             0000000140000000     MSVCRTD:guard_support.obj
 0000:fff1a000       __guard_fids__guard_icall_checks_enforced 0000000140000000     MSVCRTD:guard_support.obj
 0000:fff1a000       _volmd                     0000000140000000     MSVCRTD:guard_support.obj
 0000:fff1a000       _volmd                     0000000140000000     MSVCRTD:guard_support.obj
 0000:fff1a000       _volmd                     0000000140000000     MSVCRTD:guard_support.obj
 0002:fff7b000       $unwind$?configure_argv@__scrt_narrow_argv_policy@@SAHXZ 0000000140000000     MSVCRTD:utility.obj
 0002:fff7b000       $unwind$?initialize_environment@__scrt_narrow_environment_policy@@SAHXZ 0000000140000000     MSVCRTD:utility.obj
 0000:fff1a000       __guard_ehcont___scrt_is_nonwritable_in_current_image 0000000140000000     MSVCRTD:utility.obj
 0000:fff1a000       _volmd                     0000000140000000     MSVCRTD:utility.obj
 0000:fff1a000       _volmd                     0000000140000000     MSVCRTD:utility.obj
 0000:fff1a000       _volmd                     0000000140000000     MSVCRTD:utility.obj
 0000:fff1a000       __guard_fids___scrt_set_unhandled_exception_filter 0000000140000000     MSVCRTD:utility_desktop.obj
 0000:fff1a000       _volmd                     0000000140000000     MSVCRTD:utility_desktop.obj
 0000:fff18000       .debug$S                   0000000140000000     vcruntimed:VCRUNTIME140D.dll
 0000:fff18000       .debug$S                   0000000140000000     vcruntimed:VCRUNTIME140D.dll
 0000:fff18000       .debug$S                   0000000140000000     vcruntimed:VCRUNTIME140D.dll
 0000:fff18000       .debug$S                   0000000140000000     vcruntimed:VCRUNTIME140D.dll
 0000:fff18000       .debug$S                   0000000140000000     vcruntimed:VCRUNTIME140D.dll
 0000:fff18000       .debug$S                   0000000140000000     vcruntimed:VCRUNTIME140D.dll
 0000:fff18000       .debug$S                   0000000140000000     vcruntimed:VCRUNTIME140D.dll
 0000:fff18000       .debug$S                   0000000140000000     vcruntimed:VCRUNTIME140D.dll
 0000:fff18000       .debug$S                   0000000140000000     vcruntimed:VCRUNTIME140D.dll
 0000:fff18000       .debug$S                   0000000140000000     vcruntimed:VCRUNTIME140D.dll
 0000:fff18000       .debug$S                   0000000140000000     vcruntimed:VCRUNTIME140D.dll
 0000:fff18000       .debug$S                   0000000140000000     vcruntimed:VCRUNTIME140D.dll
 0000:fff18000       .debug$S                   0000000140000000     ucrtd:ucrtbased.dll
 0000:fff18000       .debug$S                   0000000140000000     ucrtd:ucrtbased.dll
 0000:fff18000       .debug$S                   0000000140000000     ucrtd:ucrtbased.dll
 0000:fff18000       .debug$S                   0000000140000000     ucrtd:ucrtbased.dll
 0000:fff18000       .debug$S                   0000000140000000     ucrtd:ucrtbased.dll
 0000:fff18000       .debug$S                   0000000140000000     ucrtd:ucrtbased.dll
 0000:fff18000       .debug$S                   0000000140000000     ucrtd:ucrtbased.dll
 0000:fff18000       .debug$S                   0000000140000000     ucrtd:ucrtbased.dll
 0000:fff18000       .debug$S                   0000000140000000     ucrtd:ucrtbased.dll
 0000:fff18000       .debug$S                   0000000140000000     ucrtd:ucrtbased.dll
 0000:fff18000       .debug$S                   0000000140000000     ucrtd:ucrtbased.dll
 0000:fff18000       .debug$S                   0000000140000000     ucrtd:ucrtbased.dll
 0000:fff18000       .debug$S                   0000000140000000     ucrtd:ucrtbased.dll
 0000:fff18000       .debug$S                   0000000140000000     ucrtd:ucrtbased.dll
 0000:fff18000       .debug$S                   0000000140000000     ucrtd:ucrtbased.dll
 0000:fff18000       .debug$S                   0000000140000000     ucrtd:ucrtbased.dll
 0000:fff18000       .debug$S                   0000000140000000     ucrtd:ucrtbased.dll
 0000:fff18000       .debug$S                   0000000140000000     ucrtd:ucrtbased.dll
 0000:fff18000       .debug$S                   0000000140000000     ucrtd:ucrtbased.dll
 0000:fff18000       .debug$S                   0000000140000000     ucrtd:ucrtbased.dll
 0000:fff18000       .debug$S                   0000000140000000     ucrtd:ucrtbased.dll
 0000:fff18000       .debug$S                   0000000140000000     ucrtd:ucrtbased.dll
 0000:fff18000       .debug$S                   0000000140000000     ucrtd:ucrtbased.dll
 0000:fff18000       .debug$S                   0000000140000000     ucrtd:ucrtbased.dll
 0000:fff18000       .debug$S                   0000000140000000     ucrtd:ucrtbased.dll
 0000:fff18000       .debug$S                   0000000140000000     ucrtd:ucrtbased.dll
 0000:fff18000       .debug$S                   0000000140000000     ucrtd:ucrtbased.dll
 0000:fff18000       .debug$S                   0000000140000000     ucrtd:ucrtbased.dll
 0000:fff18000       .debug$S                   0000000140000000     ucrtd:ucrtbased.dll
 0000:fff18000       .debug$S                   0000000140000000     ucrtd:ucrtbased.dll
 0000:fff18000       .debug$S                   0000000140000000     ucrtd:ucrtbased.dll
 0000:fff18000       .debug$S                   0000000140000000     ucrtd:ucrtbased.dll
 0000:fff18000       .debug$S                   0000000140000000     ucrtd:ucrtbased.dll
 0000:fff18000       .debug$S                   0000000140000000     ucrtd:ucrtbased.dll
 0000:fff18000       .debug$S                   0000000140000000     ucrtd:ucrtbased.dll
 0000:fff18000       .debug$S                   0000000140000000     ucrtd:ucrtbased.dll
 0000:fff18000       .debug$S                   0000000140000000     ucrtd:ucrtbased.dll
 0000:fff18000       .debug$S                   0000000140000000     ucrtd:ucrtbased.dll
 0000:fff18000       .debug$S                   0000000140000000     ucrtd:ucrtbased.dll
 0000:fff18000       .debug$S                   0000000140000000     ucrtd:ucrtbased.dll
 0000:fff18000       .debug$S                   0000000140000000     ucrtd:ucrtbased.dll
 0000:fff18000       .debug$S                   0000000140000000     ucrtd:ucrtbased.dll
 0000:fff18000       .debug$S                   0000000140000000     ucrtd:ucrtbased.dll
 0000:fff18000       .debug$S                   0000000140000000     ucrtd:ucrtbased.dll
 0000:fff18000       .debug$S                   0000000140000000     ucrtd:ucrtbased.dll
 0000:fff18000       .debug$S                   0000000140000000     ucrtd:ucrtbased.dll
 0000:fff18000       .debug$S                   0000000140000000     ucrtd:ucrtbased.dll
 0000:fff18000       .debug$S                   0000000140000000     ucrtd:ucrtbased.dll
 0000:fff18000       .debug$S                   0000000140000000     ucrtd:ucrtbased.dll
 0000:fff18000       .debug$S                   0000000140000000     ucrtd:ucrtbased.dll
 0000:fff18000       .debug$S                   0000000140000000     ucrtd:ucrtbased.dll
 0000:fff18000       .debug$S                   0000000140000000     ucrtd:ucrtbased.dll
 0000:fff18000       .debug$S                   0000000140000000     ucrtd:ucrtbased.dll
 0000:fff18000       .debug$S                   0000000140000000     ucrtd:ucrtbased.dll
 0000:fff18000       .debug$S                   0000000140000000     ucrtd:ucrtbased.dll
 0000:fff18000       .debug$S                   0000000140000000     ucrtd:ucrtbased.dll
 0000:fff18000       .debug$S                   0000000140000000     ucrtd:ucrtbased.dll
 0000:fff18000       .debug$S                   0000000140000000     ucrtd:ucrtbased.dll
 0000:fff18000       .debug$S                   0000000140000000     ucrtd:ucrtbased.dll
 0000:fff18000       .debug$S                   0000000140000000     ucrtd:ucrtbased.dll
 0000:fff18000       .debug$S                   0000000140000000     ucrtd:ucrtbased.dll
 0000:fff18000       .debug$S                   0000000140000000     ucrtd:ucrtbased.dll
 0000:fff18000       .debug$S                   0000000140000000     kernel32:KERNEL32.dll
 0000:fff18000       .debug$S                   0000000140000000     kernel32:KERNEL32.dll
 0000:fff18000       .debug$S                   0000000140000000     kernel32:KERNEL32.dll
 0000:fff18000       .debug$S                   0000000140000000     kernel32:KERNEL32.dll
 0000:fff18000       .debug$S                   0000000140000000     kernel32:KERNEL32.dll
 0000:fff18000       .debug$S                   0000000140000000     kernel32:KERNEL32.dll
 0000:fff18000       .debug$S                   0000000140000000     kernel32:KERNEL32.dll
 0000:fff18000       .debug$S                   0000000140000000     kernel32:KERNEL32.dll
 0000:fff18000       .debug$S                   0000000140000000     kernel32:KERNEL32.dll
 0000:fff18000       .debug$S                   0000000140000000     kernel32:KERNEL32.dll
 0000:fff18000       .debug$S                   0000000140000000     kernel32:KERNEL32.dll
 0000:fff18000       .debug$S                   0000000140000000     kernel32:KERNEL32.dll
 0000:fff18000       .debug$S                   0000000140000000     kernel32:KERNEL32.dll
 0000:fff18000       .debug$S                   0000000140000000     kernel32:KERNEL32.dll
 0000:fff18000       .debug$S                   0000000140000000     kernel32:KERNEL32.dll
 0000:fff18000       .debug$S                   0000000140000000     kernel32:KERNEL32.dll
 0000:fff18000       .debug$S                   0000000140000000     kernel32:KERNEL32.dll
 0000:fff18000       .debug$S                   0000000140000000     kernel32:KERNEL32.dll
 0000:fff18000       .debug$S                   0000000140000000     kernel32:KERNEL32.dll
 0000:fff18000       .debug$S                   0000000140000000     kernel32:KERNEL32.dll
 0000:fff18000       .debug$S                   0000000140000000     kernel32:KERNEL32.dll
 0000:fff18000       .debug$S                   0000000140000000     kernel32:KERNEL32.dll
 0000:fff18000       .debug$S                   0000000140000000     kernel32:KERNEL32.dll
 0000:fff18000       .debug$S                   0000000140000000     kernel32:KERNEL32.dll
 0000:fff18000       .debug$S                   0000000140000000     kernel32:KERNEL32.dll
 0000:fff18000       .debug$S                   0000000140000000     kernel32:KERNEL32.dll
 0000:fff18000       .debug$S                   0000000140000000     kernel32:KERNEL32.dll
 0000:fff18000       .debug$S                   0000000140000000     kernel32:KERNEL32.dll
 0000:fff18000       .debug$S                   0000000140000000     kernel32:KERNEL32.dll
 0000:fff18000       .debug$S                   0000000140000000     kernel32:KERNEL32.dll
 0000:fff18000       .debug$S                   0000000140000000     kernel32:KERNEL32.dll
 0000:fff18000       .debug$S                   0000000140000000     kernel32:KERNEL32.dll
 0000:fff18000       .debug$S                   0000000140000000     kernel32:KERNEL32.dll
 0000:fff18000       .debug$S                   0000000140000000     kernel32:KERNEL32.dll
 0000:fff18000       .debug$S                   0000000140000000     kernel32:KERNEL32.dll
 0000:fff18000       .debug$S                   0000000140000000     kernel32:KERNEL32.dll
 0000:fff18000       .debug$S                   0000000140000000     kernel32:KERNEL32.dll
 0000:fff18000       .debug$S                   0000000140000000     kernel32:KERNEL32.dll
 0000:fff18000       .debug$S                   0000000140000000     kernel32:KERNEL32.dll
 0000:fff18000       .debug$S                   0000000140000000     kernel32:KERNEL32.dll
 0000:fff18000       .debug$S                   0000000140000000     kernel32:KERNEL32.dll
 0000:fff18000       .debug$S                   0000000140000000     kernel32:KERNEL32.dll
 0000:fff18000       .debug$S                   0000000140000000     kernel32:KERNEL32.dll
 0000:fff18000       .debug$S                   0000000140000000     kernel32:KERNEL32.dll
 0000:fff18000       .debug$S                   0000000140000000     kernel32:KERNEL32.dll
 0000:fff18000       .debug$S                   0000000140000000     kernel32:KERNEL32.dll
 0000:fff18000       .debug$S                   0000000140000000     kernel32:KERNEL32.dll
 0000:fff18000       .debug$S                   0000000140000000     kernel32:KERNEL32.dll
 0000:fff18000       .debug$S                   0000000140000000     kernel32:KERNEL32.dll
 0000:fff18000       .debug$S                   0000000140000000     kernel32:KERNEL32.dll
 0000:fff18000       .debug$S                   0000000140000000     kernel32:KERNEL32.dll
 0000:fff18000       .debug$S                   0000000140000000     kernel32:KERNEL32.dll
 0000:fff18000       .debug$S                   0000000140000000     kernel32:KERNEL32.dll
 0000:fff18000       .debug$S                   0000000140000000     kernel32:KERNEL32.dll
 0000:fff18000       .debug$S                   0000000140000000     kernel32:KERNEL32.dll
 0000:fff18000       .debug$S                   0000000140000000     kernel32:KERNEL32.dll
 0000:fff18000       .debug$S                   0000000140000000     kernel32:KERNEL32.dll
 0000:fff18000       .debug$S                   0000000140000000     kernel32:KERNEL32.dll
 0000:fff18000       .debug$S                   0000000140000000     kernel32:KERNEL32.dll
 0000:fff18000       .debug$S                   0000000140000000     kernel32:KERNEL32.dll
 0000:fff18000       .debug$S                   0000000140000000     kernel32:KERNEL32.dll
 0000:fff18000       .debug$S                   0000000140000000     kernel32:KERNEL32.dll
 0000:fff18000       .debug$S                   0000000140000000     kernel32:KERNEL32.dll
 0000:fff18000       .debug$S                   0000000140000000     ole32:ole32.dll
 0000:fff18000       .debug$S                   0000000140000000     winmm:WINMM.dll
 0000:fff18000       .debug$S                   0000000140000000     winmm:WINMM.dll
 0000:fff18000       .debug$S                   0000000140000000     winmm:WINMM.dll
 0000:fff18000       .debug$S                   0000000140000000     winmm:WINMM.dll
 0000:fff18000       .debug$S                   0000000140000000     winmm:WINMM.dll
 0000:fff18000       .debug$S                   0000000140000000     winmm:WINMM.dll
 0000:fff18000       .debug$S                   0000000140000000     winmm:WINMM.dll
 0000:fff18000       .debug$S                   0000000140000000     winmm:WINMM.dll
 0000:fff18000       .debug$S                   0000000140000000     winmm:WINMM.dll
 0000:fff18000       .debug$S                   0000000140000000     winmm:WINMM.dll
 0000:fff18000       .debug$S                   0000000140000000     winmm:WINMM.dll
 0000:fff18000       .debug$S                   0000000140000000     winmm:WINMM.dll
 0000:fff18000       .debug$S                   0000000140000000     winmm:WINMM.dll
 0000:fff18000       .debug$S                   0000000140000000     winmm:WINMM.dll
 0000:fff18000       .debug$S                   0000000140000000     winmm:WINMM.dll
 0000:fff18000       .debug$S                   0000000140000000     winmm:WINMM.dll
 0000:fff18000       .debug$S                   0000000140000000     winmm:WINMM.dll
 0000:fff18000       .debug$S                   0000000140000000     winmm:WINMM.dll
 0000:fff18000       .debug$S                   0000000140000000     winmm:WINMM.dll
 0000:fff18000       .debug$S                   0000000140000000     winmm:WINMM.dll
 0000:fff18000       .debug$S                   0000000140000000     winmm:WINMM.dll
 0000:fff18000       .debug$S                   0000000140000000     winmm:WINMM.dll
 0000:fff18000       .debug$S                   0000000140000000     winmm:WINMM.dll
 0000:fff18000       .debug$S                   0000000140000000     winmm:WINMM.dll
 0000:fff18000       .debug$S                   0000000140000000     ws2_32:WS2_32.dll
 0000:fff18000       .debug$S                   0000000140000000     ws2_32:WS2_32.dll
 0000:fff18000       .debug$S                   0000000140000000     ws2_32:WS2_32.dll
 0000:fff18000       .debug$S                   0000000140000000     ws2_32:WS2_32.dll
 0000:fff18000       .debug$S                   0000000140000000     ws2_32:WS2_32.dll
 0000:fff18000       .debug$S                   0000000140000000     ws2_32:WS2_32.dll
 0000:fff18000       .debug$S                   0000000140000000     ws2_32:WS2_32.dll
 0000:fff18000       .debug$S                   0000000140000000     ws2_32:WS2_32.dll
 0000:fff18000       .debug$S                   0000000140000000     ws2_32:WS2_32.dll
 0000:fff18000       .debug$S                   0000000140000000     ws2_32:WS2_32.dll
 0000:fff18000       .debug$S                   0000000140000000     ws2_32:WS2_32.dll
 0000:fff18000       .debug$S                   0000000140000000     ws2_32:WS2_32.dll
 0000:fff18000       .debug$S                   0000000140000000     ws2_32:WS2_32.dll
 0000:fff18000       .debug$S                   0000000140000000     ws2_32:WS2_32.dll
 0000:fff18000       .debug$S                   0000000140000000     ws2_32:WS2_32.dll
 0000:fff18000       .debug$S                   0000000140000000     ws2_32:WS2_32.dll
 0000:fff18000       .debug$S                   0000000140000000     ws2_32:WS2_32.dll
 0000:fff18000       .debug$S                   0000000140000000     ws2_32:WS2_32.dll
 0000:fff18000       .debug$S                   0000000140000000     ws2_32:WS2_32.dll
 0000:fff18000       .debug$S                   0000000140000000     ws2_32:WS2_32.dll
 0000:fff18000       .debug$S                   0000000140000000     ws2_32:WS2_32.dll
 0000:fff18000       .debug$S                   0000000140000000     ws2_32:WS2_32.dll
 0000:fff18000       .debug$S                   0000000140000000     ws2_32:WS2_32.dll
 0000:fff18000       .debug$S                   0000000140000000     ws2_32:WS2_32.dll
 0000:fff18000       .debug$S                   0000000140000000     ws2_32:WS2_32.dll
 0000:fff18000       .debug$S                   0000000140000000     ws2_32:WS2_32.dll
 0000:fff18000       .debug$S                   0000000140000000     ws2_32:WS2_32.dll
 0000:fff18000       .debug$S                   0000000140000000     ws2_32:WS2_32.dll
 0000:fff18000       .debug$S                   0000000140000000     ws2_32:WS2_32.dll
 0000:fff18000       .debug$S                   0000000140000000     ws2_32:WS2_32.dll
 0000:fff18000       .debug$S                   0000000140000000     ws2_32:WS2_32.dll
 0000:fff18000       .debug$S                   0000000140000000     ws2_32:WS2_32.dll
 0000:fff18000       .debug$S                   0000000140000000     ws2_32:WS2_32.dll
 0000:fff1a004       __guard_fids__             0000000140000004     MSVCRTD:exe_main.obj
 0000:fff1a008       _volmd                     0000000140000008     pjlib-x86_64-x64-vc14-debug-dynamic:os_core_win32.obj
 0000:fff1a008       _volmd                     0000000140000008     libsrtp-x86_64-x64-vc14-debug-dynamic:datatypes.obj
 0000:fff1a008       __guard_fids__             0000000140000008     MSVCRTD:exe_main.obj
 0000:fff1a00c       _volmd                     000000014000000c     confsample.obj
 0000:fff1a00c       _volmd                     000000014000000c     pjlib-x86_64-x64-vc14-debug-dynamic:ip_helper_win32.obj
 0000:fff1a00c       _volmd                     000000014000000c     pjlib-x86_64-x64-vc14-debug-dynamic:os_time_win32.obj
 0000:fff1a00c       _volmd                     000000014000000c     pjlib-x86_64-x64-vc14-debug-dynamic:sock_bsd.obj
 0000:fff1a00c       _volmd                     000000014000000c     pjlib-x86_64-x64-vc14-debug-dynamic:sock_common.obj
 0000:fff1a00c       _volmd                     000000014000000c     pjmedia-audiodev-x86_64-x64-vc14-debug-dynamic:wmme_dev.obj
 0000:fff1a00c       _volmd                     000000014000000c     pjmedia-x86_64-x64-vc14-debug-dynamic:audiodev.obj
 0000:fff1a00c       _volmd                     000000014000000c     pjmedia-x86_64-x64-vc14-debug-dynamic:codec.obj
 0000:fff1a00c       _volmd                     000000014000000c     pjmedia-x86_64-x64-vc14-debug-dynamic:endpoint.obj
 0000:fff1a00c       _volmd                     000000014000000c     pjmedia-x86_64-x64-vc14-debug-dynamic:sdp.obj
 0000:fff1a00c       _volmd                     000000014000000c     pjmedia-x86_64-x64-vc14-debug-dynamic:sound_port.obj
 0000:fff1a00c       _volmd                     000000014000000c     pjmedia-x86_64-x64-vc14-debug-dynamic:transport_srtp.obj
 0000:fff1a00c       _volmd                     000000014000000c     pjmedia-x86_64-x64-vc14-debug-dynamic:wav_player.obj
 0000:fff1a00c       _volmd                     000000014000000c     pjmedia-x86_64-x64-vc14-debug-dynamic:wav_writer.obj
 0000:fff1a00c       _volmd                     000000014000000c     libsrtp-x86_64-x64-vc14-debug-dynamic:cipher.obj
 0000:fff1a00c       _volmd                     000000014000000c     libsrtp-x86_64-x64-vc14-debug-dynamic:ekt.obj
 0000:fff1a00c       _volmd                     000000014000000c     libsrtp-x86_64-x64-vc14-debug-dynamic:hmac.obj
 0000:fff1a00c       _volmd                     000000014000000c     libsrtp-x86_64-x64-vc14-debug-dynamic:sha1.obj
 0000:fff1a00c       _volmd                     000000014000000c     libsrtp-x86_64-x64-vc14-debug-dynamic:srtp.obj
 0000:fff1a00c       _volmd                     000000014000000c     libsrtp-x86_64-x64-vc14-debug-dynamic:stat.obj
 0000:fff1a010       _volmd                     0000000140000010     pjlib-x86_64-x64-vc14-debug-dynamic:os_core_win32.obj
 0000:fff1a018       _volmd                     0000000140000018     confsample.obj
 0000:fff1a018       _volmd                     0000000140000018     pjlib-x86_64-x64-vc14-debug-dynamic:ip_helper_win32.obj
 0000:fff1a018       _volmd                     0000000140000018     pjlib-x86_64-x64-vc14-debug-dynamic:os_core_win32.obj
 0000:fff1a018       _volmd                     0000000140000018     pjlib-x86_64-x64-vc14-debug-dynamic:os_time_win32.obj
 0000:fff1a018       _volmd                     0000000140000018     pjlib-x86_64-x64-vc14-debug-dynamic:sock_bsd.obj
 0000:fff1a018       _volmd                     0000000140000018     pjlib-x86_64-x64-vc14-debug-dynamic:sock_common.obj
 0000:fff1a018       _volmd                     0000000140000018     pjmedia-audiodev-x86_64-x64-vc14-debug-dynamic:wmme_dev.obj
 0000:fff1a018       _volmd                     0000000140000018     pjmedia-x86_64-x64-vc14-debug-dynamic:audiodev.obj
 0000:fff1a018       _volmd                     0000000140000018     pjmedia-x86_64-x64-vc14-debug-dynamic:codec.obj
 0000:fff1a018       _volmd                     0000000140000018     pjmedia-x86_64-x64-vc14-debug-dynamic:endpoint.obj
 0000:fff1a018       _volmd                     0000000140000018     pjmedia-x86_64-x64-vc14-debug-dynamic:sdp.obj
 0000:fff1a018       _volmd                     0000000140000018     pjmedia-x86_64-x64-vc14-debug-dynamic:sound_port.obj
 0000:fff1a018       _volmd                     0000000140000018     pjmedia-x86_64-x64-vc14-debug-dynamic:transport_srtp.obj
 0000:fff1a018       _volmd                     0000000140000018     libsrtp-x86_64-x64-vc14-debug-dynamic:sha1.obj
 0000:fff1a018       _volmd                     0000000140000018     libsrtp-x86_64-x64-vc14-debug-dynamic:srtp.obj
 0000:fff1a020       _volmd                     0000000140000020     pjlib-x86_64-x64-vc14-debug-dynamic:os_core_win32.obj
 0000:fff1a024       _volmd                     0000000140000024     confsample.obj
 0000:fff1a024       _volmd                     0000000140000024     pjlib-x86_64-x64-vc14-debug-dynamic:os_time_win32.obj
 0000:fff1a024       _volmd                     0000000140000024     pjlib-x86_64-x64-vc14-debug-dynamic:sock_bsd.obj
 0000:fff1a024       _volmd                     0000000140000024     pjlib-x86_64-x64-vc14-debug-dynamic:sock_common.obj
 0000:fff1a024       _volmd                     0000000140000024     pjmedia-audiodev-x86_64-x64-vc14-debug-dynamic:wmme_dev.obj
 0000:fff1a024       _volmd                     0000000140000024     pjmedia-x86_64-x64-vc14-debug-dynamic:codec.obj
 0000:fff1a024       _volmd                     0000000140000024     pjmedia-x86_64-x64-vc14-debug-dynamic:endpoint.obj
 0000:fff1a024       _volmd                     0000000140000024     pjmedia-x86_64-x64-vc14-debug-dynamic:sdp.obj
 0000:fff1a024       _volmd                     0000000140000024     pjmedia-x86_64-x64-vc14-debug-dynamic:sound_port.obj
 0000:fff1a024       _volmd                     0000000140000024     pjmedia-x86_64-x64-vc14-debug-dynamic:transport_srtp.obj
 0000:fff1a024       _volmd                     0000000140000024     libsrtp-x86_64-x64-vc14-debug-dynamic:srtp.obj
 0000:fff1a028       _volmd                     0000000140000028     pjlib-x86_64-x64-vc14-debug-dynamic:os_core_win32.obj
 0000:fff1a030       _volmd                     0000000140000030     confsample.obj
 0000:fff1a030       _volmd                     0000000140000030     pjlib-x86_64-x64-vc14-debug-dynamic:sock_common.obj
 0000:fff1a030       _volmd                     0000000140000030     pjmedia-x86_64-x64-vc14-debug-dynamic:sdp.obj
 0000:fff1a030       _volmd                     0000000140000030     pjmedia-x86_64-x64-vc14-debug-dynamic:sound_port.obj
 0000:fff1a030       _volmd                     0000000140000030     pjmedia-x86_64-x64-vc14-debug-dynamic:transport_srtp.obj
 0000:fff1a030       _volmd                     0000000140000030     libsrtp-x86_64-x64-vc14-debug-dynamic:srtp.obj
 0000:fff1a034       _volmd                     0000000140000034     pjlib-x86_64-x64-vc14-debug-dynamic:os_core_win32.obj
 0000:fff1a03c       _volmd                     000000014000003c     pjlib-x86_64-x64-vc14-debug-dynamic:sock_common.obj
 0000:fff1a03c       _volmd                     000000014000003c     pjmedia-x86_64-x64-vc14-debug-dynamic:sdp.obj
 0000:fff1a03c       _volmd                     000000014000003c     libsrtp-x86_64-x64-vc14-debug-dynamic:srtp.obj
 0000:fff1a048       _volmd                     0000000140000048     pjlib-x86_64-x64-vc14-debug-dynamic:sock_common.obj
 0000:fff1a048       _volmd                     0000000140000048     libsrtp-x86_64-x64-vc14-debug-dynamic:srtp.obj
 0000:fff1a054       _volmd                     0000000140000054     pjlib-x86_64-x64-vc14-debug-dynamic:sock_common.obj
 0000:fff1a054       _volmd                     0000000140000054     libsrtp-x86_64-x64-vc14-debug-dynamic:srtp.obj
 0000:fff1a060       _volmd                     0000000140000060     pjlib-x86_64-x64-vc14-debug-dynamic:sock_common.obj
 0000:fff1a060       _volmd                     0000000140000060     libsrtp-x86_64-x64-vc14-debug-dynamic:srtp.obj
 0000:fff1a06c       _volmd                     000000014000006c     pjlib-x86_64-x64-vc14-debug-dynamic:sock_common.obj
 0000:fff1a06c       _volmd                     000000014000006c     libsrtp-x86_64-x64-vc14-debug-dynamic:srtp.obj
 0000:fff1a078       _volmd                     0000000140000078     libsrtp-x86_64-x64-vc14-debug-dynamic:srtp.obj
 0000:fff1a084       _volmd                     0000000140000084     libsrtp-x86_64-x64-vc14-debug-dynamic:srtp.obj
 0000:fff1a090       _volmd                     0000000140000090     libsrtp-x86_64-x64-vc14-debug-dynamic:srtp.obj
 0000:fff1a09c       _volmd                     000000014000009c     libsrtp-x86_64-x64-vc14-debug-dynamic:srtp.obj
 0000:fff1a0a8       _volmd                     00000001400000a8     libsrtp-x86_64-x64-vc14-debug-dynamic:srtp.obj
 0001:000022a0       pjmedia_endpt_create       00000001400032a0 f   confsample.obj
 0001:00002310       pjmedia_endpt_destroy      0000000140003310 f   confsample.obj
 0001:00002340       app_perror                 0000000140003340 f   confsample.obj
 0001:00002950       conf_list                  0000000140003950 f   confsample.obj
 0001:00002bf0       monitor_level              0000000140003bf0 f   confsample.obj
 0001:00002e20       usage                      0000000140003e20 f   confsample.obj
 0001:00002e50       input                      0000000140003e50 f   confsample.obj
 0001:00003c60       $LN84                      0000000140004c60     confsample.obj
 0001:00004ed0       pjmedia_format_init_audio  0000000140005ed0 f   pjmedia-audiodev-x86_64-x64-vc14-debug-dynamic:wmme_dev.obj
 0001:00004f60       pj_bzero                   0000000140005f60 f   pjmedia-audiodev-x86_64-x64-vc14-debug-dynamic:wmme_dev.obj
 0001:00004f90       pj_memset                  0000000140005f90 f   pjmedia-audiodev-x86_64-x64-vc14-debug-dynamic:wmme_dev.obj
 0001:00004fc0       pj_memcpy                  0000000140005fc0 f   pjmedia-audiodev-x86_64-x64-vc14-debug-dynamic:wmme_dev.obj
 0001:00005000       pjmedia_frame_ext_append_subframe 0000000140006000 f   pjmedia-audiodev-x86_64-x64-vc14-debug-dynamic:wmme_dev.obj
 0001:000050f0       pjmedia_frame_ext_get_subframe 00000001400060f0 f   pjmedia-audiodev-x86_64-x64-vc14-debug-dynamic:wmme_dev.obj
 0001:00005190       pjmedia_frame_ext_copy_payload 0000000140006190 f   pjmedia-audiodev-x86_64-x64-vc14-debug-dynamic:wmme_dev.obj
 0001:00005270       factory_init               0000000140006270 f   pjmedia-audiodev-x86_64-x64-vc14-debug-dynamic:wmme_dev.obj
 0001:000052d0       factory_destroy            00000001400062d0 f   pjmedia-audiodev-x86_64-x64-vc14-debug-dynamic:wmme_dev.obj
 0001:00005330       factory_refresh            0000000140006330 f   pjmedia-audiodev-x86_64-x64-vc14-debug-dynamic:wmme_dev.obj
 0001:00005860       factory_get_dev_count      0000000140006860 f   pjmedia-audiodev-x86_64-x64-vc14-debug-dynamic:wmme_dev.obj
 0001:00005890       factory_get_dev_info       0000000140006890 f   pjmedia-audiodev-x86_64-x64-vc14-debug-dynamic:wmme_dev.obj
 0001:00005930       factory_default_param      0000000140006930 f   pjmedia-audiodev-x86_64-x64-vc14-debug-dynamic:wmme_dev.obj
 0001:00005af0       factory_create_stream      0000000140006af0 f   pjmedia-audiodev-x86_64-x64-vc14-debug-dynamic:wmme_dev.obj
 0001:00005fd0       stream_get_param           0000000140006fd0 f   pjmedia-audiodev-x86_64-x64-vc14-debug-dynamic:wmme_dev.obj
 0001:00006090       stream_get_cap             0000000140007090 f   pjmedia-audiodev-x86_64-x64-vc14-debug-dynamic:wmme_dev.obj
 0001:000061d0       stream_set_cap             00000001400071d0 f   pjmedia-audiodev-x86_64-x64-vc14-debug-dynamic:wmme_dev.obj
 0001:00006310       stream_start               0000000140007310 f   pjmedia-audiodev-x86_64-x64-vc14-debug-dynamic:wmme_dev.obj
 0001:000063f0       stream_stop                00000001400073f0 f   pjmedia-audiodev-x86_64-x64-vc14-debug-dynamic:wmme_dev.obj
 0001:00006500       stream_destroy             0000000140007500 f   pjmedia-audiodev-x86_64-x64-vc14-debug-dynamic:wmme_dev.obj
 0001:00006830       get_dev_names              0000000140007830 f   pjmedia-audiodev-x86_64-x64-vc14-debug-dynamic:wmme_dev.obj
 0001:00006840       build_dev_info             0000000140007840 f   pjmedia-audiodev-x86_64-x64-vc14-debug-dynamic:wmme_dev.obj
 0001:00006b00       init_waveformatex          0000000140007b00 f   pjmedia-audiodev-x86_64-x64-vc14-debug-dynamic:wmme_dev.obj
 0001:00006cb0       get_fmt_name               0000000140007cb0 f   pjmedia-audiodev-x86_64-x64-vc14-debug-dynamic:wmme_dev.obj
 0001:00006d20       init_player_stream         0000000140007d20 f   pjmedia-audiodev-x86_64-x64-vc14-debug-dynamic:wmme_dev.obj
 0001:00007160       init_capture_stream        0000000140008160 f   pjmedia-audiodev-x86_64-x64-vc14-debug-dynamic:wmme_dev.obj
 0001:00007560       wmme_dev_thread            0000000140008560 f   pjmedia-audiodev-x86_64-x64-vc14-debug-dynamic:wmme_dev.obj
 0001:00008c50       pj_pool_zalloc             0000000140009c50 f   pjmedia-audiodev-x86_64-x64-vc14-debug-dynamic:wmme_dev.obj
 0001:00008c80       pjmedia_format_init_audio  0000000140009c80 f   pjmedia-x86_64-x64-vc14-debug-dynamic:port.obj
 0001:00008d10       pj_bzero                   0000000140009d10 f   pjmedia-x86_64-x64-vc14-debug-dynamic:port.obj
 0001:00009230       pj_pool_zalloc             000000014000a230 f   pjmedia-x86_64-x64-vc14-debug-dynamic:conference.obj
 0001:00009260       PJMEDIA_SPF                000000014000a260 f   pjmedia-x86_64-x64-vc14-debug-dynamic:conference.obj
 0001:000092a0       PJMEDIA_AFD_SPF            000000014000a2a0 f   pjmedia-x86_64-x64-vc14-debug-dynamic:conference.obj
 0001:000092e0       pj_bzero                   000000014000a2e0 f   pjmedia-x86_64-x64-vc14-debug-dynamic:conference.obj
 0001:00009310       pj_memcpy                  000000014000a310 f   pjmedia-x86_64-x64-vc14-debug-dynamic:conference.obj
 0001:00009350       pj_memmove                 000000014000a350 f   pjmedia-x86_64-x64-vc14-debug-dynamic:conference.obj
 0001:00009390       pjmedia_zero_samples       000000014000a390 f   pjmedia-x86_64-x64-vc14-debug-dynamic:conference.obj
 0001:000093c0       pjmedia_copy_samples       000000014000a3c0 f   pjmedia-x86_64-x64-vc14-debug-dynamic:conference.obj
 0001:00009400       pjmedia_move_samples       000000014000a400 f   pjmedia-x86_64-x64-vc14-debug-dynamic:conference.obj
 0001:00009440       PJMEDIA_PIA_CCNT           000000014000a440 f   pjmedia-x86_64-x64-vc14-debug-dynamic:conference.obj
 0001:0000b090       pjmedia_convert_channel_nto1 000000014000c090 f   pjmedia-x86_64-x64-vc14-debug-dynamic:conference.obj
 0001:0000b240       pjmedia_convert_channel_1ton 000000014000c240 f   pjmedia-x86_64-x64-vc14-debug-dynamic:conference.obj
 0001:0000b390       put_frame                  000000014000c390 f   pjmedia-x86_64-x64-vc14-debug-dynamic:conference.obj
 0001:0000b4f0       get_frame                  000000014000c4f0 f   pjmedia-x86_64-x64-vc14-debug-dynamic:conference.obj
 0001:0000bdd0       destroy_port               000000014000cdd0 f   pjmedia-x86_64-x64-vc14-debug-dynamic:conference.obj
 0001:0000be00       create_conf_port           000000014000ce00 f   pjmedia-x86_64-x64-vc14-debug-dynamic:conference.obj
 0001:0000c530       create_pasv_port           000000014000d530 f   pjmedia-x86_64-x64-vc14-debug-dynamic:conference.obj
 0001:0000c640       create_sound_port          000000014000d640 f   pjmedia-x86_64-x64-vc14-debug-dynamic:conference.obj
 0001:0000c8e0       pause_sound                000000014000d8e0 f   pjmedia-x86_64-x64-vc14-debug-dynamic:conference.obj
 0001:0000c8f0       resume_sound               000000014000d8f0 f   pjmedia-x86_64-x64-vc14-debug-dynamic:conference.obj
 0001:0000c900       read_port                  000000014000d900 f   pjmedia-x86_64-x64-vc14-debug-dynamic:conference.obj
 0001:0000ce10       write_port                 000000014000de10 f   pjmedia-x86_64-x64-vc14-debug-dynamic:conference.obj
 0001:0000e850       pj_list_init               000000014000f850 f   pjmedia-x86_64-x64-vc14-debug-dynamic:endpoint.obj
 0001:0000e880       pj_list_push_back          000000014000f880 f   pjmedia-x86_64-x64-vc14-debug-dynamic:endpoint.obj
 0001:0000e8b0       pj_pool_zalloc             000000014000f8b0 f   pjmedia-x86_64-x64-vc14-debug-dynamic:endpoint.obj
 0001:0000e8e0       pj_bzero                   000000014000f8e0 f   pjmedia-x86_64-x64-vc14-debug-dynamic:endpoint.obj
 0001:00010690       worker_proc                0000000140011690 f   pjmedia-x86_64-x64-vc14-debug-dynamic:endpoint.obj
 0001:000106f0       init_sdp_media             00000001400116f0 f   pjmedia-x86_64-x64-vc14-debug-dynamic:endpoint.obj
 0001:000109d0       good_number                00000001400119d0 f   pjmedia-x86_64-x64-vc14-debug-dynamic:endpoint.obj
 0001:00011330       pj_pool_zalloc             0000000140012330 f   pjmedia-x86_64-x64-vc14-debug-dynamic:wav_player.obj
 0001:00011360       pj_bzero                   0000000140012360 f   pjmedia-x86_64-x64-vc14-debug-dynamic:wav_player.obj
 0001:00011390       pj_memset                  0000000140012390 f   pjmedia-x86_64-x64-vc14-debug-dynamic:wav_player.obj
 0001:000113c0       pj_memcpy                  00000001400123c0 f   pjmedia-x86_64-x64-vc14-debug-dynamic:wav_player.obj
 0001:00012320       file_get_frame             0000000140013320 f   pjmedia-x86_64-x64-vc14-debug-dynamic:wav_player.obj
 0001:00012ae0       file_on_destroy            0000000140013ae0 f   pjmedia-x86_64-x64-vc14-debug-dynamic:wav_player.obj
 0001:00012b70       create_file_port           0000000140013b70 f   pjmedia-x86_64-x64-vc14-debug-dynamic:wav_player.obj
 0001:00012c30       fill_buffer                0000000140013c30 f   pjmedia-x86_64-x64-vc14-debug-dynamic:wav_player.obj
 0001:00012ec0       file_on_event              0000000140013ec0 f   pjmedia-x86_64-x64-vc14-debug-dynamic:wav_player.obj
 0001:00013610       pj_pool_zalloc             0000000140014610 f   pjmedia-x86_64-x64-vc14-debug-dynamic:wav_writer.obj
 0001:00013640       PJMEDIA_FSZ                0000000140014640 f   pjmedia-x86_64-x64-vc14-debug-dynamic:wav_writer.obj
 0001:00013670       PJMEDIA_AFD_AVG_FSZ        0000000140014670 f   pjmedia-x86_64-x64-vc14-debug-dynamic:wav_writer.obj
 0001:000136a0       pj_bzero                   00000001400146a0 f   pjmedia-x86_64-x64-vc14-debug-dynamic:wav_writer.obj
 0001:000136d0       pj_memcpy                  00000001400146d0 f   pjmedia-x86_64-x64-vc14-debug-dynamic:wav_writer.obj
 0001:00013710       PJMEDIA_PIA_SRATE          0000000140014710 f   pjmedia-x86_64-x64-vc14-debug-dynamic:wav_writer.obj
 0001:00013760       PJMEDIA_PIA_AVG_FSZ        0000000140014760 f   pjmedia-x86_64-x64-vc14-debug-dynamic:wav_writer.obj
 0001:000140d0       file_put_frame             00000001400150d0 f   pjmedia-x86_64-x64-vc14-debug-dynamic:wav_writer.obj
 0001:000144c0       file_get_frame             00000001400154c0 f   pjmedia-x86_64-x64-vc14-debug-dynamic:wav_writer.obj
 0001:000144e0       file_on_destroy            00000001400154e0 f   pjmedia-x86_64-x64-vc14-debug-dynamic:wav_writer.obj
 0001:000147a0       flush_buffer               00000001400157a0 f   pjmedia-x86_64-x64-vc14-debug-dynamic:wav_writer.obj
 0001:00014820       file_on_event              0000000140015820 f   pjmedia-x86_64-x64-vc14-debug-dynamic:wav_writer.obj
 0001:00014d10       pj_bzero                   0000000140015d10 f   pjmedia-x86_64-x64-vc14-debug-dynamic:audiodev.obj
 0001:00014d40       pj_memcpy                  0000000140015d40 f   pjmedia-x86_64-x64-vc14-debug-dynamic:audiodev.obj
 0001:00015df0       get_cap_pointer            0000000140016df0 f   pjmedia-x86_64-x64-vc14-debug-dynamic:audiodev.obj
 0001:00016010       make_global_index          0000000140017010 f   pjmedia-x86_64-x64-vc14-debug-dynamic:audiodev.obj
 0001:00016130       lookup_dev                 0000000140017130 f   pjmedia-x86_64-x64-vc14-debug-dynamic:audiodev.obj
 0001:00016850       pj_list_init               0000000140017850 f   pjmedia-x86_64-x64-vc14-debug-dynamic:event.obj
 0001:00016880       pj_list_push_back          0000000140017880 f   pjmedia-x86_64-x64-vc14-debug-dynamic:event.obj
 0001:000168b0       pj_pool_zalloc             00000001400178b0 f   pjmedia-x86_64-x64-vc14-debug-dynamic:event.obj
 0001:000168e0       pj_bzero                   00000001400178e0 f   pjmedia-x86_64-x64-vc14-debug-dynamic:event.obj
 0001:00016910       pj_memcpy                  0000000140017910 f   pjmedia-x86_64-x64-vc14-debug-dynamic:event.obj
 0001:00017280       event_queue_add_event      0000000140018280 f   pjmedia-x86_64-x64-vc14-debug-dynamic:event.obj
 0001:00017390       event_mgr_distribute_events 0000000140018390 f   pjmedia-x86_64-x64-vc14-debug-dynamic:event.obj
 0001:00017500       event_worker_thread        0000000140018500 f   pjmedia-x86_64-x64-vc14-debug-dynamic:event.obj
 0001:000178e0       pjmedia_fourcc_name        00000001400188e0 f   pjmedia-x86_64-x64-vc14-debug-dynamic:event.obj
 0001:00017a40       pj_memcpy                  0000000140018a40 f   pjmedia-x86_64-x64-vc14-debug-dynamic:format.obj
 0001:00018320       pj_bzero                   0000000140019320 f   pjmedia-x86_64-x64-vc14-debug-dynamic:delaybuf.obj
 0001:00018350       pj_memcpy                  0000000140019350 f   pjmedia-x86_64-x64-vc14-debug-dynamic:delaybuf.obj
 0001:00018390       pjmedia_zero_samples       0000000140019390 f   pjmedia-x86_64-x64-vc14-debug-dynamic:delaybuf.obj
 0001:000183c0       pjmedia_copy_samples       00000001400193c0 f   pjmedia-x86_64-x64-vc14-debug-dynamic:delaybuf.obj
 0001:00018400       pjmedia_circ_buf_create    0000000140019400 f   pjmedia-x86_64-x64-vc14-debug-dynamic:delaybuf.obj
 0001:00018490       pjmedia_circ_buf_reset     0000000140019490 f   pjmedia-x86_64-x64-vc14-debug-dynamic:delaybuf.obj
 0001:000184c0       pjmedia_circ_buf_get_len   00000001400194c0 f   pjmedia-x86_64-x64-vc14-debug-dynamic:delaybuf.obj
 0001:000184e0       pjmedia_circ_buf_set_len   00000001400194e0 f   pjmedia-x86_64-x64-vc14-debug-dynamic:delaybuf.obj
 0001:00018500       pjmedia_circ_buf_adv_read_ptr 0000000140019500 f   pjmedia-x86_64-x64-vc14-debug-dynamic:delaybuf.obj
 0001:000185b0       pjmedia_circ_buf_adv_write_ptr 00000001400195b0 f   pjmedia-x86_64-x64-vc14-debug-dynamic:delaybuf.obj
 0001:00018600       pjmedia_circ_buf_get_read_regions 0000000140019600 f   pjmedia-x86_64-x64-vc14-debug-dynamic:delaybuf.obj
 0001:000186d0       pjmedia_circ_buf_get_write_regions 00000001400196d0 f   pjmedia-x86_64-x64-vc14-debug-dynamic:delaybuf.obj
 0001:00018800       pjmedia_circ_buf_read      0000000140019800 f   pjmedia-x86_64-x64-vc14-debug-dynamic:delaybuf.obj
 0001:000188d0       pjmedia_circ_buf_write     00000001400198d0 f   pjmedia-x86_64-x64-vc14-debug-dynamic:delaybuf.obj
 0001:000189a0       shrink_buffer              00000001400199a0 f   pjmedia-x86_64-x64-vc14-debug-dynamic:delaybuf.obj
 0001:00018ac0       update                     0000000140019ac0 f   pjmedia-x86_64-x64-vc14-debug-dynamic:delaybuf.obj
 0001:00019150       pj_pool_zalloc             000000014001a150 f   pjmedia-x86_64-x64-vc14-debug-dynamic:delaybuf.obj
 0001:00019180       pj_pool_zalloc             000000014001a180 f   pjmedia-x86_64-x64-vc14-debug-dynamic:resample_resample.obj
 0001:000191b0       pj_bzero                   000000014001a1b0 f   pjmedia-x86_64-x64-vc14-debug-dynamic:resample_resample.obj
 0001:000191e0       pj_memcpy                  000000014001a1e0 f   pjmedia-x86_64-x64-vc14-debug-dynamic:resample_resample.obj
 0001:00019220       pjmedia_zero_samples       000000014001a220 f   pjmedia-x86_64-x64-vc14-debug-dynamic:resample_resample.obj
 0001:00019250       pjmedia_copy_samples       000000014001a250 f   pjmedia-x86_64-x64-vc14-debug-dynamic:resample_resample.obj
 0001:00019e10       PJMEDIA_SPF                000000014001ae10 f   pjmedia-x86_64-x64-vc14-debug-dynamic:sound_port.obj
 0001:00019e50       PJMEDIA_AFD_SPF            000000014001ae50 f   pjmedia-x86_64-x64-vc14-debug-dynamic:sound_port.obj
 0001:00019e90       pj_bzero                   000000014001ae90 f   pjmedia-x86_64-x64-vc14-debug-dynamic:sound_port.obj
 0001:00019ec0       pj_memcpy                  000000014001aec0 f   pjmedia-x86_64-x64-vc14-debug-dynamic:sound_port.obj
 0001:0001ad90       play_cb                    000000014001bd90 f   pjmedia-x86_64-x64-vc14-debug-dynamic:sound_port.obj
 0001:0001b010       rec_cb                     000000014001c010 f   pjmedia-x86_64-x64-vc14-debug-dynamic:sound_port.obj
 0001:0001b0f0       play_cb_ext                000000014001c0f0 f   pjmedia-x86_64-x64-vc14-debug-dynamic:sound_port.obj
 0001:0001b180       rec_cb_ext                 000000014001c180 f   pjmedia-x86_64-x64-vc14-debug-dynamic:sound_port.obj
 0001:0001b200       start_sound_device         000000014001c200 f   pjmedia-x86_64-x64-vc14-debug-dynamic:sound_port.obj
 0001:0001b5f0       stop_sound_device          000000014001c5f0 f   pjmedia-x86_64-x64-vc14-debug-dynamic:sound_port.obj
 0001:0001bc90       pj_pool_zalloc             000000014001cc90 f   pjmedia-x86_64-x64-vc14-debug-dynamic:sound_port.obj
 0001:0001e454       $LN73                      000000014001f454     pjmedia-x86_64-x64-vc14-debug-dynamic:sdp.obj
 0001:0001e480       $LN72                      000000014001f480     pjmedia-x86_64-x64-vc14-debug-dynamic:sdp.obj
 0001:0001ec30       pj_scan_get_col            000000014001fc30 f   pjmedia-x86_64-x64-vc14-debug-dynamic:sdp.obj
 0001:0001ec60       pj_strset                  000000014001fc60 f   pjmedia-x86_64-x64-vc14-debug-dynamic:sdp.obj
 0001:0001eca0       pj_bzero                   000000014001fca0 f   pjmedia-x86_64-x64-vc14-debug-dynamic:sdp.obj
 0001:0001ecd0       pj_memcpy                  000000014001fcd0 f   pjmedia-x86_64-x64-vc14-debug-dynamic:sdp.obj
 0001:0001ed10       pj_pool_zalloc             000000014001fd10 f   pjmedia-x86_64-x64-vc14-debug-dynamic:sdp.obj
 0001:0001ed40       pj_isdigit                 000000014001fd40 f   pjmedia-x86_64-x64-vc14-debug-dynamic:sdp.obj
 0001:0001ed60       parse_version              000000014001fd60 f   pjmedia-x86_64-x64-vc14-debug-dynamic:sdp.obj
 0001:0001edd0       parse_origin               000000014001fdd0 f   pjmedia-x86_64-x64-vc14-debug-dynamic:sdp.obj
 0001:0001ef20       parse_time                 000000014001ff20 f   pjmedia-x86_64-x64-vc14-debug-dynamic:sdp.obj
 0001:0001eff0       parse_generic_line         000000014001fff0 f   pjmedia-x86_64-x64-vc14-debug-dynamic:sdp.obj
 0001:0001f070       parse_connection_info      0000000140020070 f   pjmedia-x86_64-x64-vc14-debug-dynamic:sdp.obj
 0001:0001f120       parse_bandwidth_info       0000000140020120 f   pjmedia-x86_64-x64-vc14-debug-dynamic:sdp.obj
 0001:0001f1b0       parse_attr                 00000001400201b0 f   pjmedia-x86_64-x64-vc14-debug-dynamic:sdp.obj
 0001:0001f320       parse_media                0000000140020320 f   pjmedia-x86_64-x64-vc14-debug-dynamic:sdp.obj
 0001:0001f540       on_scanner_error           0000000140020540 f   pjmedia-x86_64-x64-vc14-debug-dynamic:sdp.obj
 0001:0001f560       init_sdp_parser            0000000140020560 f   pjmedia-x86_64-x64-vc14-debug-dynamic:sdp.obj
 0001:0001f610       print_connection_info      0000000140020610 f   pjmedia-x86_64-x64-vc14-debug-dynamic:sdp.obj
 0001:0001f6c0       print_bandw                00000001400206c0 f   pjmedia-x86_64-x64-vc14-debug-dynamic:sdp.obj
 0001:0001f7e0       print_attr                 00000001400207e0 f   pjmedia-x86_64-x64-vc14-debug-dynamic:sdp.obj
 0001:0001f930       print_media_desc           0000000140020930 f   pjmedia-x86_64-x64-vc14-debug-dynamic:sdp.obj
 0001:0001fcf0       print_session              0000000140020cf0 f   pjmedia-x86_64-x64-vc14-debug-dynamic:sdp.obj
 0001:000202f0       apply_media_direction      00000001400212f0 f   pjmedia-x86_64-x64-vc14-debug-dynamic:sdp.obj
 0001:00020590       validate_sdp_conn          0000000140021590 f   pjmedia-x86_64-x64-vc14-debug-dynamic:sdp.obj
 0001:000218a0       pj_scan_is_eof             00000001400228a0 f   pjmedia-x86_64-x64-vc14-debug-dynamic:sdp.obj
 0001:000218f0       pj_list_init               00000001400228f0 f   pjmedia-x86_64-x64-vc14-debug-dynamic:codec.obj
 0001:00021920       pj_list_push_back          0000000140022920 f   pjmedia-x86_64-x64-vc14-debug-dynamic:codec.obj
 0001:00021950       pj_pool_zalloc             0000000140022950 f   pjmedia-x86_64-x64-vc14-debug-dynamic:codec.obj
 0001:00021980       pj_bzero                   0000000140022980 f   pjmedia-x86_64-x64-vc14-debug-dynamic:codec.obj
 0001:000219b0       pj_memcpy                  00000001400229b0 f   pjmedia-x86_64-x64-vc14-debug-dynamic:codec.obj
 0001:00023010       sort_codecs                0000000140024010 f   pjmedia-x86_64-x64-vc14-debug-dynamic:codec.obj
 0001:00023130       swap_codec                 0000000140024130 f   pjmedia-x86_64-x64-vc14-debug-dynamic:codec.obj
 0001:00023c10       wave_hdr_swap_bytes        0000000140024c10 f   pjmedia-x86_64-x64-vc14-debug-dynamic:wave.obj
 0001:00024e00       pj_bzero                   0000000140025e00 f   pjmedia-x86_64-x64-vc14-debug-dynamic:wsola.obj
 0001:00024e30       pj_memcpy                  0000000140025e30 f   pjmedia-x86_64-x64-vc14-debug-dynamic:wsola.obj
 0001:00024e70       pj_memmove                 0000000140025e70 f   pjmedia-x86_64-x64-vc14-debug-dynamic:wsola.obj
 0001:00024eb0       pjmedia_zero_samples       0000000140025eb0 f   pjmedia-x86_64-x64-vc14-debug-dynamic:wsola.obj
 0001:00024ee0       pjmedia_copy_samples       0000000140025ee0 f   pjmedia-x86_64-x64-vc14-debug-dynamic:wsola.obj
 0001:00024f20       pjmedia_move_samples       0000000140025f20 f   pjmedia-x86_64-x64-vc14-debug-dynamic:wsola.obj
 0001:00024f60       pjmedia_circ_buf_create    0000000140025f60 f   pjmedia-x86_64-x64-vc14-debug-dynamic:wsola.obj
 0001:00024ff0       pjmedia_circ_buf_reset     0000000140025ff0 f   pjmedia-x86_64-x64-vc14-debug-dynamic:wsola.obj
 0001:00025020       pjmedia_circ_buf_get_len   0000000140026020 f   pjmedia-x86_64-x64-vc14-debug-dynamic:wsola.obj
 0001:00025040       pjmedia_circ_buf_set_len   0000000140026040 f   pjmedia-x86_64-x64-vc14-debug-dynamic:wsola.obj
 0001:00025060       pjmedia_circ_buf_adv_read_ptr 0000000140026060 f   pjmedia-x86_64-x64-vc14-debug-dynamic:wsola.obj
 0001:00025110       pjmedia_circ_buf_adv_write_ptr 0000000140026110 f   pjmedia-x86_64-x64-vc14-debug-dynamic:wsola.obj
 0001:00025160       pjmedia_circ_buf_get_read_regions 0000000140026160 f   pjmedia-x86_64-x64-vc14-debug-dynamic:wsola.obj
 0001:00025230       pjmedia_circ_buf_get_write_regions 0000000140026230 f   pjmedia-x86_64-x64-vc14-debug-dynamic:wsola.obj
 0001:00025360       pjmedia_circ_buf_write     0000000140026360 f   pjmedia-x86_64-x64-vc14-debug-dynamic:wsola.obj
 0001:00025430       pjmedia_circ_buf_copy      0000000140026430 f   pjmedia-x86_64-x64-vc14-debug-dynamic:wsola.obj
 0001:00025540       pjmedia_circ_buf_pack_buffer 0000000140026540 f   pjmedia-x86_64-x64-vc14-debug-dynamic:wsola.obj
 0001:000256d0       find_pitch                 00000001400266d0 f   pjmedia-x86_64-x64-vc14-debug-dynamic:wsola.obj
 0001:000259b0       overlapp_add               00000001400269b0 f   pjmedia-x86_64-x64-vc14-debug-dynamic:wsola.obj
 0001:00025a50       overlapp_add_simple        0000000140026a50 f   pjmedia-x86_64-x64-vc14-debug-dynamic:wsola.obj
 0001:00025b20       create_win                 0000000140026b20 f   pjmedia-x86_64-x64-vc14-debug-dynamic:wsola.obj
 0001:00025bf0       fade_in                    0000000140026bf0 f   pjmedia-x86_64-x64-vc14-debug-dynamic:wsola.obj
 0001:00025d00       wsola_fade_out             0000000140026d00 f   pjmedia-x86_64-x64-vc14-debug-dynamic:wsola.obj
 0001:00025e90       expand                     0000000140026e90 f   pjmedia-x86_64-x64-vc14-debug-dynamic:wsola.obj
 0001:00026100       compress                   0000000140027100 f   pjmedia-x86_64-x64-vc14-debug-dynamic:wsola.obj
 0001:00026ce0       pj_pool_zalloc             0000000140027ce0 f   pjmedia-x86_64-x64-vc14-debug-dynamic:wsola.obj
 0001:00027710       pj_add_timestamp32         0000000140028710 f   pjmedia-x86_64-x64-vc14-debug-dynamic:clock_thread.obj
 0001:00027740       pj_memcpy                  0000000140028740 f   pjmedia-x86_64-x64-vc14-debug-dynamic:clock_thread.obj
 0001:00027780       clock_thread               0000000140028780 f   pjmedia-x86_64-x64-vc14-debug-dynamic:clock_thread.obj
 0001:000278f0       clock_calc_next_tick       00000001400288f0 f   pjmedia-x86_64-x64-vc14-debug-dynamic:clock_thread.obj
 0001:00027c50       pj_set_timestamp32         0000000140028c50 f   pjmedia-x86_64-x64-vc14-debug-dynamic:clock_thread.obj
 0001:00028640       pj_bzero                   0000000140029640 f   pjmedia-x86_64-x64-vc14-debug-dynamic:echo_common.obj
 0001:00028670       pj_memcpy                  0000000140029670 f   pjmedia-x86_64-x64-vc14-debug-dynamic:echo_common.obj
 0001:000286b0       pjmedia_zero_samples       00000001400296b0 f   pjmedia-x86_64-x64-vc14-debug-dynamic:echo_common.obj
 0001:000286e0       pjmedia_copy_samples       00000001400296e0 f   pjmedia-x86_64-x64-vc14-debug-dynamic:echo_common.obj
 0001:00028720       pj_list_init               0000000140029720 f   pjmedia-x86_64-x64-vc14-debug-dynamic:echo_common.obj
 0001:00028750       pj_list_empty              0000000140029750 f   pjmedia-x86_64-x64-vc14-debug-dynamic:echo_common.obj
 0001:00028790       pj_list_push_back          0000000140029790 f   pjmedia-x86_64-x64-vc14-debug-dynamic:echo_common.obj
 0001:000287c0       pj_pool_zalloc             00000001400297c0 f   pjmedia-x86_64-x64-vc14-debug-dynamic:echo_common.obj
 0001:00028ac0       pj_strset                  0000000140029ac0 f   pjmedia-x86_64-x64-vc14-debug-dynamic:transport_srtp.obj
 0001:00028b00       pj_bzero                   0000000140029b00 f   pjmedia-x86_64-x64-vc14-debug-dynamic:transport_srtp.obj
 0001:00028b30       pj_memcpy                  0000000140029b30 f   pjmedia-x86_64-x64-vc14-debug-dynamic:transport_srtp.obj
 0001:00028b70       pj_memmove                 0000000140029b70 f   pjmedia-x86_64-x64-vc14-debug-dynamic:transport_srtp.obj
 0001:00028bb0       pjmedia_transport_get_info 0000000140029bb0 f   pjmedia-x86_64-x64-vc14-debug-dynamic:transport_srtp.obj
 0001:00028c10       pjmedia_transport_attach2  0000000140029c10 f   pjmedia-x86_64-x64-vc14-debug-dynamic:transport_srtp.obj
 0001:00028cc0       pjmedia_transport_detach   0000000140029cc0 f   pjmedia-x86_64-x64-vc14-debug-dynamic:transport_srtp.obj
 0001:00028cf0       pjmedia_transport_send_rtp 0000000140029cf0 f   pjmedia-x86_64-x64-vc14-debug-dynamic:transport_srtp.obj
 0001:00028d30       pjmedia_transport_send_rtcp2 0000000140029d30 f   pjmedia-x86_64-x64-vc14-debug-dynamic:transport_srtp.obj
 0001:00028d80       pjmedia_transport_media_create 0000000140029d80 f   pjmedia-x86_64-x64-vc14-debug-dynamic:transport_srtp.obj
 0001:00028dd0       pjmedia_transport_encode_sdp 0000000140029dd0 f   pjmedia-x86_64-x64-vc14-debug-dynamic:transport_srtp.obj
 0001:00028e20       pjmedia_transport_media_start 0000000140029e20 f   pjmedia-x86_64-x64-vc14-debug-dynamic:transport_srtp.obj
 0001:00028e70       pjmedia_transport_media_stop 0000000140029e70 f   pjmedia-x86_64-x64-vc14-debug-dynamic:transport_srtp.obj
 0001:00028ea0       pjmedia_transport_close    0000000140029ea0 f   pjmedia-x86_64-x64-vc14-debug-dynamic:transport_srtp.obj
 0001:00028ee0       pjmedia_transport_simulate_lost 0000000140029ee0 f   pjmedia-x86_64-x64-vc14-debug-dynamic:transport_srtp.obj
 0001:0002a580       pj_pool_zalloc             000000014002b580 f   pjmedia-x86_64-x64-vc14-debug-dynamic:transport_srtp.obj
 0001:0002a5b0       pj_isdigit                 000000014002b5b0 f   pjmedia-x86_64-x64-vc14-debug-dynamic:transport_srtp.obj
 0001:0002a5d0       srtp_rtp_cb                000000014002b5d0 f   pjmedia-x86_64-x64-vc14-debug-dynamic:transport_srtp.obj
 0001:0002aa90       srtp_rtcp_cb               000000014002ba90 f   pjmedia-x86_64-x64-vc14-debug-dynamic:transport_srtp.obj
 0001:0002ac40       transport_get_info         000000014002bc40 f   pjmedia-x86_64-x64-vc14-debug-dynamic:transport_srtp.obj
 0001:0002ae90       transport_detach           000000014002be90 f   pjmedia-x86_64-x64-vc14-debug-dynamic:transport_srtp.obj
 0001:0002af80       transport_send_rtp         000000014002bf80 f   pjmedia-x86_64-x64-vc14-debug-dynamic:transport_srtp.obj
 0001:0002b0c0       transport_send_rtcp        000000014002c0c0 f   pjmedia-x86_64-x64-vc14-debug-dynamic:transport_srtp.obj
 0001:0002b100       transport_send_rtcp2       000000014002c100 f   pjmedia-x86_64-x64-vc14-debug-dynamic:transport_srtp.obj
 0001:0002b270       transport_media_create     000000014002c270 f   pjmedia-x86_64-x64-vc14-debug-dynamic:transport_srtp.obj
 0001:0002b590       transport_encode_sdp       000000014002c590 f   pjmedia-x86_64-x64-vc14-debug-dynamic:transport_srtp.obj
 0001:0002b960       transport_media_start      000000014002c960 f   pjmedia-x86_64-x64-vc14-debug-dynamic:transport_srtp.obj
 0001:0002bbb0       transport_media_stop       000000014002cbb0 f   pjmedia-x86_64-x64-vc14-debug-dynamic:transport_srtp.obj
 0001:0002bcb0       transport_simulate_lost    000000014002ccb0 f   pjmedia-x86_64-x64-vc14-debug-dynamic:transport_srtp.obj
 0001:0002bd30       transport_destroy          000000014002cd30 f   pjmedia-x86_64-x64-vc14-debug-dynamic:transport_srtp.obj
 0001:0002be40       transport_attach2          000000014002ce40 f   pjmedia-x86_64-x64-vc14-debug-dynamic:transport_srtp.obj
 0001:0002c0b0       get_crypto_idx             000000014002d0b0 f   pjmedia-x86_64-x64-vc14-debug-dynamic:transport_srtp.obj
 0001:0002c130       srtp_crypto_empty          000000014002d130 f   pjmedia-x86_64-x64-vc14-debug-dynamic:transport_srtp.obj
 0001:0002c170       srtp_crypto_cmp            000000014002d170 f   pjmedia-x86_64-x64-vc14-debug-dynamic:transport_srtp.obj
 0001:0002c200       start_srtp                 000000014002d200 f   pjmedia-x86_64-x64-vc14-debug-dynamic:transport_srtp.obj
 0001:0002c440       sdes_media_create          000000014002d440 f   pjmedia-x86_64-x64-vc14-debug-dynamic:transport_srtp.obj
 0001:0002c530       sdes_encode_sdp            000000014002d530 f   pjmedia-x86_64-x64-vc14-debug-dynamic:transport_srtp.obj
 0001:0002cce0       sdes_media_start           000000014002dce0 f   pjmedia-x86_64-x64-vc14-debug-dynamic:transport_srtp.obj
 0001:0002d110       sdes_media_stop            000000014002e110 f   pjmedia-x86_64-x64-vc14-debug-dynamic:transport_srtp.obj
 0001:0002d120       sdes_create                000000014002e120 f   pjmedia-x86_64-x64-vc14-debug-dynamic:transport_srtp.obj
 0001:0002d200       generate_crypto_attr_value 000000014002e200 f   pjmedia-x86_64-x64-vc14-debug-dynamic:transport_srtp.obj
 0001:0002d630       parse_attr_crypto          000000014002e630 f   pjmedia-x86_64-x64-vc14-debug-dynamic:transport_srtp.obj
 0001:0002da50       fill_local_crypto          000000014002ea50 f   pjmedia-x86_64-x64-vc14-debug-dynamic:transport_srtp.obj
 0001:0002dbd0       pjmedia_srtp_deinit_lib    000000014002ebd0 f   pjmedia-x86_64-x64-vc14-debug-dynamic:transport_srtp.obj
 0001:0002f080       pj_bzero                   0000000140030080 f   pjmedia-x86_64-x64-vc14-debug-dynamic:echo_suppress.obj
 0001:0002f0b0       pj_pool_zalloc             00000001400300b0 f   pjmedia-x86_64-x64-vc14-debug-dynamic:echo_suppress.obj
 0001:0002fca0       FABS                       0000000140030ca0 f   pjmedia-x86_64-x64-vc14-debug-dynamic:echo_suppress.obj
 0001:0002fde0       echo_supp_set_state        0000000140030de0 f   pjmedia-x86_64-x64-vc14-debug-dynamic:echo_suppress.obj
 0001:0002fe10       echo_supp_update           0000000140030e10 f   pjmedia-x86_64-x64-vc14-debug-dynamic:echo_suppress.obj
 0001:00030c20       amplify_frame              0000000140031c20 f   pjmedia-x86_64-x64-vc14-debug-dynamic:echo_suppress.obj
 0001:00031380       pj_memcpy                  0000000140032380 f   pjmedia-x86_64-x64-vc14-debug-dynamic:echo_speex.obj
 0001:000313c0       pjmedia_copy_samples       00000001400323c0 f   pjmedia-x86_64-x64-vc14-debug-dynamic:echo_speex.obj
 0001:00031400       pj_pool_zalloc             0000000140032400 f   pjmedia-x86_64-x64-vc14-debug-dynamic:echo_speex.obj
 0001:000329d0       pj_pool_zalloc             00000001400339d0 f   pjmedia-x86_64-x64-vc14-debug-dynamic:silencedet.obj
 0001:00032aa0       _getopt_internal           0000000140033aa0 f   pjlib-util-x86_64-x64-vc14-debug-dynamic:getopt.obj
 0001:00033800       my_index                   0000000140034800 f   pjlib-util-x86_64-x64-vc14-debug-dynamic:getopt.obj
 0001:00033850       exchange                   0000000140034850 f   pjlib-util-x86_64-x64-vc14-debug-dynamic:getopt.obj
 0001:00033a60       _getopt_initialize         0000000140034a60 f   pjlib-util-x86_64-x64-vc14-debug-dynamic:getopt.obj
 0001:00035890       pj_isxdigit                0000000140036890 f   pjlib-util-x86_64-x64-vc14-debug-dynamic:scanner.obj
 0001:000358b0       pj_hex_digit_to_val        00000001400368b0 f   pjlib-util-x86_64-x64-vc14-debug-dynamic:scanner.obj
 0001:00035900       pj_strset                  0000000140036900 f   pjlib-util-x86_64-x64-vc14-debug-dynamic:scanner.obj
 0001:00035940       pj_strset3                 0000000140036940 f   pjlib-util-x86_64-x64-vc14-debug-dynamic:scanner.obj
 0001:00035990       pj_bzero                   0000000140036990 f   pjlib-util-x86_64-x64-vc14-debug-dynamic:scanner.obj
 0001:000359c0       pj_memmove                 00000001400369c0 f   pjlib-util-x86_64-x64-vc14-debug-dynamic:scanner.obj
 0001:00035a00       pj_scan_syntax_err         0000000140036a00 f   pjlib-util-x86_64-x64-vc14-debug-dynamic:scanner.obj
 0001:000360d0       pj_cis_match               00000001400370d0 f   pjlib-util-x86_64-x64-vc14-debug-dynamic:scanner.obj
 0001:000366d0       base256to64                00000001400376d0 f   pjlib-util-x86_64-x64-vc14-debug-dynamic:base64.obj
 0001:000369f0       base256_char               00000001400379f0 f   pjlib-util-x86_64-x64-vc14-debug-dynamic:base64.obj
 0001:00039340       pj_strlen                  000000014003a340 f   pjlib-x86_64-x64-vc14-debug-dynamic:os_core_win32.obj
 0001:00039360       pj_bzero                   000000014003a360 f   pjlib-x86_64-x64-vc14-debug-dynamic:os_core_win32.obj
 0001:00039390       init_mutex                 000000014003a390 f   pjlib-x86_64-x64-vc14-debug-dynamic:os_core_win32.obj
 0001:00039470       thread_main                000000014003a470 f   pjlib-x86_64-x64-vc14-debug-dynamic:os_core_win32.obj
 0001:00039550       pj_sem_wait_for            000000014003a550 f   pjlib-x86_64-x64-vc14-debug-dynamic:os_core_win32.obj
 0001:00039660       pj_event_wait_for          000000014003a660 f   pjlib-x86_64-x64-vc14-debug-dynamic:os_core_win32.obj
 0001:00039770       pj_color_to_os_attr        000000014003a770 f   pjlib-x86_64-x64-vc14-debug-dynamic:os_core_win32.obj
 0001:000397f0       os_attr_to_pj_color        000000014003a7f0 f   pjlib-x86_64-x64-vc14-debug-dynamic:os_core_win32.obj
 0001:0003ac00       pj_bzero                   000000014003bc00 f   pjlib-x86_64-x64-vc14-debug-dynamic:pool.obj
 0001:0003ac30       pj_pool_create_block       000000014003bc30 f   pjlib-x86_64-x64-vc14-debug-dynamic:pool.obj
 0001:0003ad60       reset_pool                 000000014003bd60 f   pjlib-x86_64-x64-vc14-debug-dynamic:pool.obj
 0001:0003b110       pj_list_init               000000014003c110 f   pjlib-x86_64-x64-vc14-debug-dynamic:pool.obj
 0001:0003b140       pj_list_empty              000000014003c140 f   pjlib-x86_64-x64-vc14-debug-dynamic:pool_caching.obj
 0001:0003b440       pj_bzero                   000000014003c440 f   pjlib-x86_64-x64-vc14-debug-dynamic:pool_caching.obj
 0001:0003b470       pj_memcpy                  000000014003c470 f   pjlib-x86_64-x64-vc14-debug-dynamic:pool_caching.obj
 0001:0003b4b0       cpool_create_pool          000000014003c4b0 f   pjlib-x86_64-x64-vc14-debug-dynamic:pool_caching.obj
 0001:0003b720       cpool_release_pool         000000014003c720 f   pjlib-x86_64-x64-vc14-debug-dynamic:pool_caching.obj
 0001:0003b8f0       cpool_dump_status          000000014003c8f0 f   pjlib-x86_64-x64-vc14-debug-dynamic:pool_caching.obj
 0001:0003bb20       cpool_on_block_alloc       000000014003cb20 f   pjlib-x86_64-x64-vc14-debug-dynamic:pool_caching.obj
 0001:0003bb80       cpool_on_block_free        000000014003cb80 f   pjlib-x86_64-x64-vc14-debug-dynamic:pool_caching.obj
 0001:0003be60       pj_list_init               000000014003ce60 f   pjlib-x86_64-x64-vc14-debug-dynamic:pool_caching.obj
 0001:0003c600       pj_bzero                   000000014003d600 f   pjlib-x86_64-x64-vc14-debug-dynamic:errno.obj
 0001:0003c630       pj_memcpy                  000000014003d630 f   pjlib-x86_64-x64-vc14-debug-dynamic:errno.obj
 0001:0003c670       pjlib_error                000000014003d670 f   pjlib-x86_64-x64-vc14-debug-dynamic:errno.obj
 0001:0003c780       invoke_log                 000000014003d780 f   pjlib-x86_64-x64-vc14-debug-dynamic:errno.obj
 0001:0003c7d0       pj_perror_imp              000000014003d7d0 f   pjlib-x86_64-x64-vc14-debug-dynamic:errno.obj
 0001:0003d53c       $LN15                      000000014003e53c     pjlib-x86_64-x64-vc14-debug-dynamic:log.obj
 0001:0003d560       $LN14                      000000014003e560     pjlib-x86_64-x64-vc14-debug-dynamic:log.obj
 0001:0003d630       $LN13                      000000014003e630     pjlib-x86_64-x64-vc14-debug-dynamic:log.obj
 0001:0003d870       pj_memset                  000000014003e870 f   pjlib-x86_64-x64-vc14-debug-dynamic:log.obj
 0001:0003d8a0       logging_shutdown           000000014003e8a0 f   pjlib-x86_64-x64-vc14-debug-dynamic:log.obj
 0001:0003d8f0       log_set_indent             000000014003e8f0 f   pjlib-x86_64-x64-vc14-debug-dynamic:log.obj
 0001:0003d930       log_get_raw_indent         000000014003e930 f   pjlib-x86_64-x64-vc14-debug-dynamic:log.obj
 0001:0003d950       log_get_indent             000000014003e950 f   pjlib-x86_64-x64-vc14-debug-dynamic:log.obj
 0001:0003d990       suspend_logging            000000014003e990 f   pjlib-x86_64-x64-vc14-debug-dynamic:log.obj
 0001:0003d9e0       resume_logging             000000014003e9e0 f   pjlib-x86_64-x64-vc14-debug-dynamic:log.obj
 0001:0003da30       is_logging_suspended       000000014003ea30 f   pjlib-x86_64-x64-vc14-debug-dynamic:log.obj
 0001:0003de80       default_block_alloc        000000014003ee80 f   pjlib-x86_64-x64-vc14-debug-dynamic:pool_policy_malloc.obj
 0001:0003df20       default_block_free         000000014003ef20 f   pjlib-x86_64-x64-vc14-debug-dynamic:pool_policy_malloc.obj
 0001:0003df80       default_pool_callback      000000014003ef80 f   pjlib-x86_64-x64-vc14-debug-dynamic:pool_policy_malloc.obj
 0001:00040000       pj_memcpy                  0000000140041000 f   pjlib-x86_64-x64-vc14-debug-dynamic:string.obj
 0001:00040040       pj_memcmp                  0000000140041040 f   pjlib-x86_64-x64-vc14-debug-dynamic:string.obj
 0001:00040080       pj_memchr                  0000000140041080 f   pjlib-x86_64-x64-vc14-debug-dynamic:string.obj
 0001:000400b0       pj_isdigit                 00000001400410b0 f   pjlib-x86_64-x64-vc14-debug-dynamic:string.obj
 0001:000400d0       pj_isspace                 00000001400410d0 f   pjlib-x86_64-x64-vc14-debug-dynamic:string.obj
 0001:000400f0       pj_isxdigit                00000001400410f0 f   pjlib-x86_64-x64-vc14-debug-dynamic:string.obj
 0001:00040110       pj_val_to_hex_digit        0000000140041110 f   pjlib-x86_64-x64-vc14-debug-dynamic:string.obj
 0001:00040170       pj_hex_digit_to_val        0000000140041170 f   pjlib-x86_64-x64-vc14-debug-dynamic:string.obj
 0001:00040b20       pj_memcpy                  0000000140041b20 f   pjlib-x86_64-x64-vc14-debug-dynamic:os_error_win32.obj
 0001:000410a0       pj_memmove                 00000001400420a0 f   pjlib-x86_64-x64-vc14-debug-dynamic:array.obj
 0001:00042dd0       pj_isdigit                 0000000140043dd0 f   pjlib-x86_64-x64-vc14-debug-dynamic:sock_common.obj
 0001:00042df0       pj_strchr                  0000000140043df0 f   pjlib-x86_64-x64-vc14-debug-dynamic:sock_common.obj
 0001:00042e40       pj_bzero                   0000000140043e40 f   pjlib-x86_64-x64-vc14-debug-dynamic:sock_common.obj
 0001:00042e70       pj_memcpy                  0000000140043e70 f   pjlib-x86_64-x64-vc14-debug-dynamic:sock_common.obj
 0001:00042eb0       pj_memcmp                  0000000140043eb0 f   pjlib-x86_64-x64-vc14-debug-dynamic:sock_common.obj
 0001:00044850       pj_list_empty              0000000140045850 f   pjlib-x86_64-x64-vc14-debug-dynamic:list.obj
 0001:00044bf0       pj_link_node               0000000140045bf0 f   pjlib-x86_64-x64-vc14-debug-dynamic:list.obj
 0001:00044d10       pj_list_init               0000000140045d10 f   pjlib-x86_64-x64-vc14-debug-dynamic:list.obj
 0001:00045010       pj_bzero                   0000000140046010 f   pjlib-x86_64-x64-vc14-debug-dynamic:os_time_win32.obj
 0001:00045040       get_base_time              0000000140046040 f   pjlib-x86_64-x64-vc14-debug-dynamic:os_time_win32.obj
 0001:00047430       pj_list_empty              0000000140048430 f   pjlib-x86_64-x64-vc14-debug-dynamic:ioqueue_select.obj
 0001:00047470       pj_list_push_back          0000000140048470 f   pjlib-x86_64-x64-vc14-debug-dynamic:ioqueue_select.obj
 0001:000474a0       pj_bzero                   00000001400484a0 f   pjlib-x86_64-x64-vc14-debug-dynamic:ioqueue_select.obj
 0001:000474d0       pj_memcpy                  00000001400484d0 f   pjlib-x86_64-x64-vc14-debug-dynamic:ioqueue_select.obj
 0001:00047510       ioqueue_add_to_set         0000000140048510 f   pjlib-x86_64-x64-vc14-debug-dynamic:ioqueue_select.obj
 0001:000475e0       ioqueue_remove_from_set    00000001400485e0 f   pjlib-x86_64-x64-vc14-debug-dynamic:ioqueue_select.obj
 0001:000476b0       ioqueue_init               00000001400486b0 f   pjlib-x86_64-x64-vc14-debug-dynamic:ioqueue_select.obj
 0001:000476e0       ioqueue_destroy            00000001400486e0 f   pjlib-x86_64-x64-vc14-debug-dynamic:ioqueue_select.obj
 0001:00047730       ioqueue_init_key           0000000140048730 f   pjlib-x86_64-x64-vc14-debug-dynamic:ioqueue_select.obj
 0001:000478d0       key_has_pending_write      00000001400488d0 f   pjlib-x86_64-x64-vc14-debug-dynamic:ioqueue_select.obj
 0001:00047920       key_has_pending_read       0000000140048920 f   pjlib-x86_64-x64-vc14-debug-dynamic:ioqueue_select.obj
 0001:00047960       key_has_pending_accept     0000000140048960 f   pjlib-x86_64-x64-vc14-debug-dynamic:ioqueue_select.obj
 0001:000479b0       key_has_pending_connect    00000001400489b0 f   pjlib-x86_64-x64-vc14-debug-dynamic:ioqueue_select.obj
 0001:000483e0       scan_closing_keys          00000001400493e0 f   pjlib-x86_64-x64-vc14-debug-dynamic:ioqueue_select.obj
 0001:000484f0       rescan_fdset               00000001400494f0 f   pjlib-x86_64-x64-vc14-debug-dynamic:ioqueue_select.obj
 0001:00048510       increment_counter          0000000140049510 f   pjlib-x86_64-x64-vc14-debug-dynamic:ioqueue_select.obj
 0001:00048570       decrement_counter          0000000140049570 f   pjlib-x86_64-x64-vc14-debug-dynamic:ioqueue_select.obj
 0001:000493d0       pj_list_init               000000014004a3d0 f   pjlib-x86_64-x64-vc14-debug-dynamic:ioqueue_select.obj
 0001:0004aa40       pj_bzero                   000000014004ba40 f   pjlib-x86_64-x64-vc14-debug-dynamic:sock_bsd.obj
 0001:0004aa70       pj_memcpy                  000000014004ba70 f   pjlib-x86_64-x64-vc14-debug-dynamic:sock_bsd.obj
 0001:0004b5c0       pj_bzero                   000000014004c5c0 f   pjlib-x86_64-x64-vc14-debug-dynamic:file_access_win32.obj
 0001:0004b5f0       get_file_size              000000014004c5f0 f   pjlib-x86_64-x64-vc14-debug-dynamic:file_access_win32.obj
 0001:0004b6b0       create_file                000000014004c6b0 f   pjlib-x86_64-x64-vc14-debug-dynamic:file_access_win32.obj
 0001:0004b710       file_time_to_time_val      000000014004c710 f   pjlib-x86_64-x64-vc14-debug-dynamic:file_access_win32.obj
 0001:0004c080       set_file_pointer           000000014004d080 f   pjlib-x86_64-x64-vc14-debug-dynamic:file_io_win32.obj
 0001:0004cdb0       pj_list_push_back          000000014004ddb0 f   pjlib-x86_64-x64-vc14-debug-dynamic:lock.obj
 0001:0004cde0       pj_pool_zalloc             000000014004dde0 f   pjlib-x86_64-x64-vc14-debug-dynamic:lock.obj
 0001:0004ce10       pj_bzero                   000000014004de10 f   pjlib-x86_64-x64-vc14-debug-dynamic:lock.obj
 0001:0004ce40       pj_memcpy                  000000014004de40 f   pjlib-x86_64-x64-vc14-debug-dynamic:lock.obj
 0001:0004ce80       create_mutex_lock          000000014004de80 f   pjlib-x86_64-x64-vc14-debug-dynamic:lock.obj
 0001:0004cf70       null_op                    000000014004df70 f   pjlib-x86_64-x64-vc14-debug-dynamic:lock.obj
 0001:0004cf80       grp_lock_set_owner_thread  000000014004df80 f   pjlib-x86_64-x64-vc14-debug-dynamic:lock.obj
 0001:0004d000       grp_lock_unset_owner_thread 000000014004e000 f   pjlib-x86_64-x64-vc14-debug-dynamic:lock.obj
 0001:0004d0b0       grp_lock_acquire           000000014004e0b0 f   pjlib-x86_64-x64-vc14-debug-dynamic:lock.obj
 0001:0004d150       grp_lock_tryacquire        000000014004e150 f   pjlib-x86_64-x64-vc14-debug-dynamic:lock.obj
 0001:0004d240       grp_lock_release           000000014004e240 f   pjlib-x86_64-x64-vc14-debug-dynamic:lock.obj
 0001:0004d2b0       grp_lock_add_handler       000000014004e2b0 f   pjlib-x86_64-x64-vc14-debug-dynamic:lock.obj
 0001:0004d360       grp_lock_destroy           000000014004e360 f   pjlib-x86_64-x64-vc14-debug-dynamic:lock.obj
 0001:0004d4a0       grp_lock_add_ref           000000014004e4a0 f   pjlib-x86_64-x64-vc14-debug-dynamic:lock.obj
 0001:0004d4d0       grp_lock_dec_ref           000000014004e4d0 f   pjlib-x86_64-x64-vc14-debug-dynamic:lock.obj
 0001:0004d9c0       pj_list_init               000000014004e9c0 f   pjlib-x86_64-x64-vc14-debug-dynamic:lock.obj
 0001:0004dd30       exception_cleanup          000000014004ed30 f   pjlib-x86_64-x64-vc14-debug-dynamic:except.obj
 0001:0004e250       get_elapsed                000000014004f250 f   pjlib-x86_64-x64-vc14-debug-dynamic:os_timestamp_common.obj
 0001:0004e280       elapsed_msec               000000014004f280 f   pjlib-x86_64-x64-vc14-debug-dynamic:os_timestamp_common.obj
 0001:0004e320       elapsed_usec               000000014004f320 f   pjlib-x86_64-x64-vc14-debug-dynamic:os_timestamp_common.obj
 0001:0004e4c0       pj_set_timestamp32         000000014004f4c0 f   pjlib-x86_64-x64-vc14-debug-dynamic:os_timestamp_common.obj
 0001:0004e560       platform_rand              000000014004f560 f   pjlib-x86_64-x64-vc14-debug-dynamic:rand.obj
 0001:0004e610       hex2digit                  000000014004f610 f   pjlib-x86_64-x64-vc14-debug-dynamic:guid_win32.obj
 0001:0004e680       guid_to_str                000000014004f680 f   pjlib-x86_64-x64-vc14-debug-dynamic:guid_win32.obj
 0001:0004efd0       stack_alloc                000000014004ffd0 f   pjlib-x86_64-x64-vc14-debug-dynamic:pool_buf.obj
 0001:0004f080       pool_buf_cleanup           0000000140050080 f   pjlib-x86_64-x64-vc14-debug-dynamic:pool_buf.obj
 0001:0004f0c0       pool_buf_initialize        00000001400500c0 f   pjlib-x86_64-x64-vc14-debug-dynamic:pool_buf.obj
 0001:0004f200       term_set_color             0000000140050200 f   pjlib-x86_64-x64-vc14-debug-dynamic:log_writer_stdout.obj
 0001:0004f230       term_restore_color         0000000140050230 f   pjlib-x86_64-x64-vc14-debug-dynamic:log_writer_stdout.obj
 0001:0004f280       pj_bzero                   0000000140050280 f   pjlib-x86_64-x64-vc14-debug-dynamic:ip_helper_win32.obj
 0001:0004f2b0       pj_memcpy                  00000001400502b0 f   pjlib-x86_64-x64-vc14-debug-dynamic:ip_helper_win32.obj
 0001:0004f2f0       pj_enum_ip_option_default  00000001400502f0 f   pjlib-x86_64-x64-vc14-debug-dynamic:ip_helper_win32.obj
 0001:0004f7e0       unload_iphlp_module        00000001400507e0 f   pjlib-x86_64-x64-vc14-debug-dynamic:ip_helper_win32.obj
 0001:0004f840       GetIpHlpApiProc            0000000140050840 f   pjlib-x86_64-x64-vc14-debug-dynamic:ip_helper_win32.obj
 0001:0004f8b0       MyGetIpAddrTable           00000001400508b0 f   pjlib-x86_64-x64-vc14-debug-dynamic:ip_helper_win32.obj
 0001:0004f920       MyGetAdapterAddresses      0000000140050920 f   pjlib-x86_64-x64-vc14-debug-dynamic:ip_helper_win32.obj
 0001:0004f9a0       MyGetIfEntry               00000001400509a0 f   pjlib-x86_64-x64-vc14-debug-dynamic:ip_helper_win32.obj
 0001:0004f9f0       MyGetIpForwardTable        00000001400509f0 f   pjlib-x86_64-x64-vc14-debug-dynamic:ip_helper_win32.obj
 0001:0004fa60       enum_ipv4_interface        0000000140050a60 f   pjlib-x86_64-x64-vc14-debug-dynamic:ip_helper_win32.obj
 0001:0004fd80       enum_ipv4_ipv6_interface   0000000140050d80 f   pjlib-x86_64-x64-vc14-debug-dynamic:ip_helper_win32.obj
 0001:000507d0       pj_bzero                   00000001400517d0 f   pjlib-x86_64-x64-vc14-debug-dynamic:addr_resolv_sock.obj
 0001:00050800       pj_memcpy                  0000000140051800 f   pjlib-x86_64-x64-vc14-debug-dynamic:addr_resolv_sock.obj
 0001:00051360       SrcLinear                  0000000140052360 f   libresample-x86_64-x64-vc14-debug-dynamic:resamplesubs.obj
 0001:000514f0       FilterUp                   00000001400524f0 f   libresample-x86_64-x64-vc14-debug-dynamic:resamplesubs.obj
 0001:00051730       FilterUD                   0000000140052730 f   libresample-x86_64-x64-vc14-debug-dynamic:resamplesubs.obj
 0001:00051960       SrcUp                      0000000140052960 f   libresample-x86_64-x64-vc14-debug-dynamic:resamplesubs.obj
 0001:00051b60       SrcUD                      0000000140052b60 f   libresample-x86_64-x64-vc14-debug-dynamic:resamplesubs.obj
 0001:00052120       WordToHword                0000000140053120 f   libresample-x86_64-x64-vc14-debug-dynamic:resamplesubs.obj
 0001:00056070       speex_alloc                0000000140057070 f   libspeex-x86_64-x64-vc14-debug-dynamic:mdf.obj
 0001:000560a0       speex_free                 00000001400570a0 f   libspeex-x86_64-x64-vc14-debug-dynamic:mdf.obj
 0001:00056220       filter_dc_notch16          0000000140057220 f   libspeex-x86_64-x64-vc14-debug-dynamic:mdf.obj
 0001:000563a0       mdf_inner_prod             00000001400573a0 f   libspeex-x86_64-x64-vc14-debug-dynamic:mdf.obj
 0001:00056490       power_spectrum             0000000140057490 f   libspeex-x86_64-x64-vc14-debug-dynamic:mdf.obj
 0001:000565b0       power_spectrum_accum       00000001400575b0 f   libspeex-x86_64-x64-vc14-debug-dynamic:mdf.obj
 0001:00056710       spectral_mul_accum         0000000140057710 f   libspeex-x86_64-x64-vc14-debug-dynamic:mdf.obj
 0001:00056950       weighted_spectral_mul_conj 0000000140057950 f   libspeex-x86_64-x64-vc14-debug-dynamic:mdf.obj
 0001:00056b70       mdf_adjust_prop            0000000140057b70 f   libspeex-x86_64-x64-vc14-debug-dynamic:mdf.obj
 0001:00058ca0       speex_alloc                0000000140059ca0 f   libspeex-x86_64-x64-vc14-debug-dynamic:scal.obj
 0001:00058cd0       speex_free                 0000000140059cd0 f   libspeex-x86_64-x64-vc14-debug-dynamic:scal.obj
 0001:00058cf0       uni_rand                   0000000140059cf0 f   libspeex-x86_64-x64-vc14-debug-dynamic:scal.obj
 0001:00058d70       irand                      0000000140059d70 f   libspeex-x86_64-x64-vc14-debug-dynamic:scal.obj
 0001:0005c210       $LN86                      000000014005d210     libspeex-x86_64-x64-vc14-debug-dynamic:preprocess.obj
 0001:0005c2e0       speex_alloc                000000014005d2e0 f   libspeex-x86_64-x64-vc14-debug-dynamic:preprocess.obj
 0001:0005c310       speex_free                 000000014005d310 f   libspeex-x86_64-x64-vc14-debug-dynamic:preprocess.obj
 0001:0005c330       conj_window                000000014005d330 f   libspeex-x86_64-x64-vc14-debug-dynamic:preprocess.obj
 0001:0005c500       hypergeom_gain             000000014005d500 f   libspeex-x86_64-x64-vc14-debug-dynamic:preprocess.obj
 0001:0005c650       qcurve                     000000014005d650 f   libspeex-x86_64-x64-vc14-debug-dynamic:preprocess.obj
 0001:0005c6a0       compute_gain_floor         000000014005d6a0 f   libspeex-x86_64-x64-vc14-debug-dynamic:preprocess.obj
 0001:0005c7f0       speex_compute_agc          000000014005d7f0 f   libspeex-x86_64-x64-vc14-debug-dynamic:preprocess.obj
 0001:0005cc30       preprocess_analysis        000000014005dc30 f   libspeex-x86_64-x64-vc14-debug-dynamic:preprocess.obj
 0001:0005cf40       update_noise_prob          000000014005df40 f   libspeex-x86_64-x64-vc14-debug-dynamic:preprocess.obj
 0001:0005e540       speex_alloc                000000014005f540 f   libspeex-x86_64-x64-vc14-debug-dynamic:fftwrap.obj
 0001:0005e570       speex_free                 000000014005f570 f   libspeex-x86_64-x64-vc14-debug-dynamic:fftwrap.obj
 0001:0005f340       speex_alloc                0000000140060340 f   libspeex-x86_64-x64-vc14-debug-dynamic:filterbank.obj
 0001:0005f370       speex_free                 0000000140060370 f   libspeex-x86_64-x64-vc14-debug-dynamic:filterbank.obj
 0001:0005f960       speex_alloc                0000000140060960 f   libspeex-x86_64-x64-vc14-debug-dynamic:smallft.obj
 0001:0005f990       speex_free                 0000000140060990 f   libspeex-x86_64-x64-vc14-debug-dynamic:smallft.obj
 0001:0005f9b0       drfti1                     00000001400609b0 f   libspeex-x86_64-x64-vc14-debug-dynamic:smallft.obj
 0001:0005fd10       fdrffti                    0000000140060d10 f   libspeex-x86_64-x64-vc14-debug-dynamic:smallft.obj
 0001:0005fd60       dradf2                     0000000140060d60 f   libspeex-x86_64-x64-vc14-debug-dynamic:smallft.obj
 0001:00060160       dradf4                     0000000140061160 f   libspeex-x86_64-x64-vc14-debug-dynamic:smallft.obj
 0001:00060a50       dradfg                     0000000140061a50 f   libspeex-x86_64-x64-vc14-debug-dynamic:smallft.obj
 0001:00062200       drftf1                     0000000140063200 f   libspeex-x86_64-x64-vc14-debug-dynamic:smallft.obj
 0001:000625f0       dradb2                     00000001400635f0 f   libspeex-x86_64-x64-vc14-debug-dynamic:smallft.obj
 0001:00062a00       dradb3                     0000000140063a00 f   libspeex-x86_64-x64-vc14-debug-dynamic:smallft.obj
 0001:00062fe0       dradb4                     0000000140063fe0 f   libspeex-x86_64-x64-vc14-debug-dynamic:smallft.obj
 0001:00063970       dradbg                     0000000140064970 f   libspeex-x86_64-x64-vc14-debug-dynamic:smallft.obj
 0001:000650e0       drftb1                     00000001400660e0 f   libspeex-x86_64-x64-vc14-debug-dynamic:smallft.obj
 0001:00068c98       $LN12                      0000000140069c98     libsrtp-x86_64-x64-vc14-debug-dynamic:srtp.obj
 0001:00068d28       $LN12                      0000000140069d28     libsrtp-x86_64-x64-vc14-debug-dynamic:srtp.obj
 0001:0006a2b0       be64_to_cpu                000000014006b2b0 f   libsrtp-x86_64-x64-vc14-debug-dynamic:srtp.obj
 0001:0006b0f0       srtp_validate_rtp_header   000000014006c0f0 f   libsrtp-x86_64-x64-vc14-debug-dynamic:srtp.obj
 0001:0006b1e0       srtp_stream_free           000000014006c1e0 f   libsrtp-x86_64-x64-vc14-debug-dynamic:srtp.obj
 0001:0006bec0       srtp_kdf_init              000000014006cec0 f   libsrtp-x86_64-x64-vc14-debug-dynamic:srtp.obj
 0001:0006bf80       srtp_kdf_generate          000000014006cf80 f   libsrtp-x86_64-x64-vc14-debug-dynamic:srtp.obj
 0001:0006c080       srtp_kdf_clear             000000014006d080 f   libsrtp-x86_64-x64-vc14-debug-dynamic:srtp.obj
 0001:0006c0c0       base_key_length            000000014006d0c0 f   libsrtp-x86_64-x64-vc14-debug-dynamic:srtp.obj
 0001:0006c440       srtp_protect_extension_header 000000014006d440 f   libsrtp-x86_64-x64-vc14-debug-dynamic:srtp.obj
 0001:0006c4c0       srtp_process_header_encryption 000000014006d4c0 f   libsrtp-x86_64-x64-vc14-debug-dynamic:srtp.obj
 0001:0006c830       srtp_calc_aead_iv          000000014006d830 f   libsrtp-x86_64-x64-vc14-debug-dynamic:srtp.obj
 0001:0006cc10       srtp_estimate_index        000000014006dc10 f   libsrtp-x86_64-x64-vc14-debug-dynamic:srtp.obj
 0001:0006cce0       srtp_get_est_pkt_index     000000014006dce0 f   libsrtp-x86_64-x64-vc14-debug-dynamic:srtp.obj
 0001:0006cdb0       srtp_protect_aead          000000014006ddb0 f   libsrtp-x86_64-x64-vc14-debug-dynamic:srtp.obj
 0001:0006d2d0       srtp_unprotect_aead        000000014006e2d0 f   libsrtp-x86_64-x64-vc14-debug-dynamic:srtp.obj
 0001:0006d800       update_template_streams    000000014006e800 f   libsrtp-x86_64-x64-vc14-debug-dynamic:srtp.obj
 0001:0006dae0       update_stream              000000014006eae0 f   libsrtp-x86_64-x64-vc14-debug-dynamic:srtp.obj
 0001:0006dc30       srtp_calc_aead_iv_srtcp    000000014006ec30 f   libsrtp-x86_64-x64-vc14-debug-dynamic:srtp.obj
 0001:0006de40       srtp_protect_rtcp_aead     000000014006ee40 f   libsrtp-x86_64-x64-vc14-debug-dynamic:srtp.obj
 0001:0006e240       srtp_unprotect_rtcp_aead   000000014006f240 f   libsrtp-x86_64-x64-vc14-debug-dynamic:srtp.obj
 0001:000737d0       srtp_cipher_rand           00000001400747d0 f   libsrtp-x86_64-x64-vc14-debug-dynamic:cipher.obj
 0001:00074b90       srtp_crypto_kernel_do_load_cipher_type 0000000140075b90 f   libsrtp-x86_64-x64-vc14-debug-dynamic:crypto_kernel.obj
 0001:000755c0       srtcp_packet_get_ekt_spi   00000001400765c0 f   libsrtp-x86_64-x64-vc14-debug-dynamic:ekt.obj
 0001:00075600       srtcp_packet_get_ekt_roc   0000000140076600 f   libsrtp-x86_64-x64-vc14-debug-dynamic:ekt.obj
 0001:00075640       srtcp_packet_get_emk_location 0000000140076640 f   libsrtp-x86_64-x64-vc14-debug-dynamic:ekt.obj
 0001:00076160       srtp_null_cipher_alloc     0000000140077160 f   libsrtp-x86_64-x64-vc14-debug-dynamic:null_cipher.obj
 0001:00076220       srtp_null_cipher_dealloc   0000000140077220 f   libsrtp-x86_64-x64-vc14-debug-dynamic:null_cipher.obj
 0001:00076250       srtp_null_cipher_init      0000000140077250 f   libsrtp-x86_64-x64-vc14-debug-dynamic:null_cipher.obj
 0001:00076290       srtp_null_cipher_set_iv    0000000140077290 f   libsrtp-x86_64-x64-vc14-debug-dynamic:null_cipher.obj
 0001:000762b0       srtp_null_cipher_encrypt   00000001400772b0 f   libsrtp-x86_64-x64-vc14-debug-dynamic:null_cipher.obj
 0001:00076320       srtp_aes_icm_alloc         0000000140077320 f   libsrtp-x86_64-x64-vc14-debug-dynamic:aes_icm.obj
 0001:00076480       srtp_aes_icm_dealloc       0000000140077480 f   libsrtp-x86_64-x64-vc14-debug-dynamic:aes_icm.obj
 0001:000764e0       srtp_aes_icm_context_init  00000001400774e0 f   libsrtp-x86_64-x64-vc14-debug-dynamic:aes_icm.obj
 0001:000767d0       srtp_aes_icm_set_iv        00000001400777d0 f   libsrtp-x86_64-x64-vc14-debug-dynamic:aes_icm.obj
 0001:00076960       srtp_aes_icm_advance       0000000140077960 f   libsrtp-x86_64-x64-vc14-debug-dynamic:aes_icm.obj
 0001:00076af0       srtp_aes_icm_encrypt       0000000140077af0 f   libsrtp-x86_64-x64-vc14-debug-dynamic:aes_icm.obj
 0001:00077580       srtp_null_auth_alloc       0000000140078580 f   libsrtp-x86_64-x64-vc14-debug-dynamic:null_auth.obj
 0001:00077670       srtp_null_auth_dealloc     0000000140078670 f   libsrtp-x86_64-x64-vc14-debug-dynamic:null_auth.obj
 0001:000776a0       srtp_null_auth_init        00000001400786a0 f   libsrtp-x86_64-x64-vc14-debug-dynamic:null_auth.obj
 0001:000776c0       srtp_null_auth_compute     00000001400786c0 f   libsrtp-x86_64-x64-vc14-debug-dynamic:null_auth.obj
 0001:000776e0       srtp_null_auth_update      00000001400786e0 f   libsrtp-x86_64-x64-vc14-debug-dynamic:null_auth.obj
 0001:00077700       srtp_null_auth_start       0000000140078700 f   libsrtp-x86_64-x64-vc14-debug-dynamic:null_auth.obj
 0001:00077770       srtp_hmac_alloc            0000000140078770 f   libsrtp-x86_64-x64-vc14-debug-dynamic:hmac.obj
 0001:00077880       srtp_hmac_dealloc          0000000140078880 f   libsrtp-x86_64-x64-vc14-debug-dynamic:hmac.obj
 0001:000778b0       srtp_hmac_init             00000001400788b0 f   libsrtp-x86_64-x64-vc14-debug-dynamic:hmac.obj
 0001:00077a30       srtp_hmac_start            0000000140078a30 f   libsrtp-x86_64-x64-vc14-debug-dynamic:hmac.obj
 0001:00077a80       srtp_hmac_update           0000000140078a80 f   libsrtp-x86_64-x64-vc14-debug-dynamic:hmac.obj
 0001:00077b00       srtp_hmac_compute          0000000140078b00 f   libsrtp-x86_64-x64-vc14-debug-dynamic:hmac.obj
 0001:00078cf0       aes_128_expand_encryption_key 0000000140079cf0 f   libsrtp-x86_64-x64-vc14-debug-dynamic:aes.obj
 0001:00079080       aes_256_expand_encryption_key 000000014007a080 f   libsrtp-x86_64-x64-vc14-debug-dynamic:aes.obj
 0001:00079590       aes_round                  000000014007a590 f   libsrtp-x86_64-x64-vc14-debug-dynamic:aes.obj
 0001:00079830       aes_inv_round              000000014007a830 f   libsrtp-x86_64-x64-vc14-debug-dynamic:aes.obj
 0001:00079ad0       aes_final_round            000000014007aad0 f   libsrtp-x86_64-x64-vc14-debug-dynamic:aes.obj
 0001:00079e70       aes_inv_final_round        000000014007ae70 f   libsrtp-x86_64-x64-vc14-debug-dynamic:aes.obj
 0001:0007d130       capture_current_context    000000014007e130 f   MSVCRTD:gs_report.obj
 0001:0007d1f0       capture_previous_context   000000014007e1f0 f   MSVCRTD:gs_report.obj
 0001:0007d460       $$000000                   000000014007e460     MSVCRTD:chkstk.obj
 0001:0007d4e0       $$000000                   000000014007e4e0     MSVCRTD:amdsecgs.obj
 0001:0007d520       ?pre_c_initialization@@YAHXZ 000000014007e520 f   MSVCRTD:exe_main.obj
 0001:0007d600       ?post_pgo_initialization@@YAHXZ 000000014007e600 f   MSVCRTD:exe_main.obj
 0001:0007d620       ?pre_cpp_initialization@@YAXXZ 000000014007e620 f   MSVCRTD:exe_main.obj
 0001:0007d640       ?__scrt_common_main@@YAHXZ 000000014007e640 f   MSVCRTD:exe_main.obj
 0001:0007d660       ?__scrt_common_main_seh@@YAHXZ 000000014007e660 f   MSVCRTD:exe_main.obj
 0001:0007d8b0       ?invoke_main@@YAHXZ        000000014007e8b0 f   MSVCRTD:exe_main.obj
 0001:0007d990       ?find_pe_section@@YAPEAU_IMAGE_SECTION_HEADER@@QEAE_K@Z 000000014007e990 f   MSVCRTD:utility.obj
 0001:0007da90       ?is_potentially_valid_image_base@@YA_NQEAX@Z 000000014007ea90 f   MSVCRTD:utility.obj
 0001:0007e1b0       __get_entropy              000000014007f1b0 f   MSVCRTD:gs_support.obj
 0001:0007eb30       __castguard_compat_check   000000014007fb30 f   MSVCRTD:guard_support.obj
 0001:0007ed10       __castguard_slow_path_compat_check 000000014007fd10 f   MSVCRTD:guard_support.obj
 0001:000812a0       $$000000                   00000001400822a0     MSVCRTD:guard_dispatch.obj
 0001:000812c0       $$000000                   00000001400822c0     MSVCRTD:guard_xfg_dispatch.obj
 0001:000822e0       ?filt$0@?0??__scrt_common_main_seh@@YAHXZ@4HA 00000001400832e0 f   MSVCRTD:exe_main.obj
 0001:00082320       __scrt_is_nonwritable_in_current_image$filt$0 0000000140083320 f   MSVCRTD:utility.obj
 0002:00000110       ?pre_cpp_initializer@@3P6AXXZEA 0000000140085110     MSVCRTD:exe_main.obj
 0002:00000440       ?pre_c_initializer@@3P6AHXZEA 0000000140085440     MSVCRTD:exe_main.obj
 0002:00000550       ?post_pgo_initializer@@3P6AHXZEA 0000000140085550     MSVCRTD:exe_main.obj
 0002:00000bb0       err_str                    0000000140085bb0     pjmedia-audiodev-x86_64-x64-vc14-debug-dynamic:errno.obj
 0002:00000cb8       STR_IN                     0000000140085cb8     pjmedia-x86_64-x64-vc14-debug-dynamic:endpoint.obj
 0002:00000cc8       STR_IP4                    0000000140085cc8     pjmedia-x86_64-x64-vc14-debug-dynamic:endpoint.obj
 0002:00000cd8       STR_IP6                    0000000140085cd8     pjmedia-x86_64-x64-vc14-debug-dynamic:endpoint.obj
 0002:00000ce8       STR_RTP_AVP                0000000140085ce8     pjmedia-x86_64-x64-vc14-debug-dynamic:endpoint.obj
 0002:00000cf8       STR_SDP_NAME               0000000140085cf8     pjmedia-x86_64-x64-vc14-debug-dynamic:endpoint.obj
 0002:00000d08       STR_SENDRECV               0000000140085d08     pjmedia-x86_64-x64-vc14-debug-dynamic:endpoint.obj
 0002:0000aba0       err_str                    000000014008fba0     pjmedia-x86_64-x64-vc14-debug-dynamic:errno.obj
 0002:0000b3c0       ID_RTP_AVP                 00000001400903c0     pjmedia-x86_64-x64-vc14-debug-dynamic:transport_srtp.obj
 0002:0000b3d0       ID_RTP_SAVP                00000001400903d0     pjmedia-x86_64-x64-vc14-debug-dynamic:transport_srtp.obj
 0002:0000b3e0       ID_CRYPTO                  00000001400903e0     pjmedia-x86_64-x64-vc14-debug-dynamic:transport_srtp.obj
 0002:0000b440       base64_char                0000000140090440     pjlib-util-x86_64-x64-vc14-debug-dynamic:base64.obj
 0002:0000b490       err_str                    0000000140090490     pjlib-x86_64-x64-vc14-debug-dynamic:errno.obj
 0002:0000b660       gaErrorList                0000000140090660     pjlib-x86_64-x64-vc14-debug-dynamic:os_error_win32.obj
 0002:0000bb20       SMALL_FILTER_IMP           0000000140090b20     libresample-x86_64-x64-vc14-debug-dynamic:resamplesubs.obj
 0002:0000c720       SMALL_FILTER_IMPD          0000000140091720     libresample-x86_64-x64-vc14-debug-dynamic:resamplesubs.obj
 0002:0000df20       LARGE_FILTER_IMP           0000000140092f20     libresample-x86_64-x64-vc14-debug-dynamic:resamplesubs.obj
 0002:00011f20       LARGE_FILTER_IMPD          0000000140096f20     libresample-x86_64-x64-vc14-debug-dynamic:resamplesubs.obj
 0002:0001805c       MIN_LEAK                   000000014009d05c     libspeex-x86_64-x64-vc14-debug-dynamic:mdf.obj
 0002:00018060       VAR1_SMOOTH                000000014009d060     libspeex-x86_64-x64-vc14-debug-dynamic:mdf.obj
 0002:00018064       VAR2_SMOOTH                000000014009d064     libspeex-x86_64-x64-vc14-debug-dynamic:mdf.obj
 0002:00018068       VAR1_UPDATE                000000014009d068     libspeex-x86_64-x64-vc14-debug-dynamic:mdf.obj
 0002:0001806c       VAR2_UPDATE                000000014009d06c     libspeex-x86_64-x64-vc14-debug-dynamic:mdf.obj
 0002:00018070       VAR_BACKTRACK              000000014009d070     libspeex-x86_64-x64-vc14-debug-dynamic:mdf.obj
 0002:000181b0       ?table@?1??hypergeom_gain@@9@9 000000014009d1b0     libspeex-x86_64-x64-vc14-debug-dynamic:preprocess.obj
 0002:00018380       srtp_null_cipher_description 000000014009d380     libsrtp-x86_64-x64-vc14-debug-dynamic:null_cipher.obj
 0002:00018390       srtp_null_cipher_test_0    000000014009d390     libsrtp-x86_64-x64-vc14-debug-dynamic:null_cipher.obj
 0002:00018528       srtp_aes_icm_128_description 000000014009d528     libsrtp-x86_64-x64-vc14-debug-dynamic:aes_icm.obj
 0002:00018548       srtp_aes_icm_256_description 000000014009d548     libsrtp-x86_64-x64-vc14-debug-dynamic:aes_icm.obj
 0002:00018568       srtp_aes_icm_128_test_case_0_key 000000014009d568     libsrtp-x86_64-x64-vc14-debug-dynamic:aes_icm.obj
 0002:00018588       srtp_aes_icm_128_test_case_0_plaintext 000000014009d588     libsrtp-x86_64-x64-vc14-debug-dynamic:aes_icm.obj
 0002:000185a8       srtp_aes_icm_128_test_case_0_ciphertext 000000014009d5a8     libsrtp-x86_64-x64-vc14-debug-dynamic:aes_icm.obj
 0002:000185d0       srtp_aes_icm_128_test_case_0 000000014009d5d0     libsrtp-x86_64-x64-vc14-debug-dynamic:aes_icm.obj
 0002:00018628       srtp_aes_icm_256_test_case_0_key 000000014009d628     libsrtp-x86_64-x64-vc14-debug-dynamic:aes_icm.obj
 0002:00018658       srtp_aes_icm_256_test_case_0_plaintext 000000014009d658     libsrtp-x86_64-x64-vc14-debug-dynamic:aes_icm.obj
 0002:00018678       srtp_aes_icm_256_test_case_0_ciphertext 000000014009d678     libsrtp-x86_64-x64-vc14-debug-dynamic:aes_icm.obj
 0002:000186a0       srtp_aes_icm_256_test_case_0 000000014009d6a0     libsrtp-x86_64-x64-vc14-debug-dynamic:aes_icm.obj
 0002:00018780       srtp_null_auth_test_case_0 000000014009d780     libsrtp-x86_64-x64-vc14-debug-dynamic:null_auth.obj
 0002:000187b8       srtp_null_auth_description 000000014009d7b8     libsrtp-x86_64-x64-vc14-debug-dynamic:null_auth.obj
 0002:00018850       srtp_hmac_test_case_0_key  000000014009d850     libsrtp-x86_64-x64-vc14-debug-dynamic:hmac.obj
 0002:00018868       srtp_hmac_test_case_0_data 000000014009d868     libsrtp-x86_64-x64-vc14-debug-dynamic:hmac.obj
 0002:00018870       srtp_hmac_test_case_0_tag  000000014009d870     libsrtp-x86_64-x64-vc14-debug-dynamic:hmac.obj
 0002:00018888       srtp_hmac_test_case_0      000000014009d888     libsrtp-x86_64-x64-vc14-debug-dynamic:hmac.obj
 0002:000188c0       srtp_hmac_description      000000014009d8c0     libsrtp-x86_64-x64-vc14-debug-dynamic:hmac.obj
 0002:00018970       T0                         000000014009d970     libsrtp-x86_64-x64-vc14-debug-dynamic:aes.obj
 0002:00018d70       T1                         000000014009dd70     libsrtp-x86_64-x64-vc14-debug-dynamic:aes.obj
 0002:00019170       T2                         000000014009e170     libsrtp-x86_64-x64-vc14-debug-dynamic:aes.obj
 0002:00019570       T3                         000000014009e570     libsrtp-x86_64-x64-vc14-debug-dynamic:aes.obj
 0002:00019970       U0                         000000014009e970     libsrtp-x86_64-x64-vc14-debug-dynamic:aes.obj
 0002:00019d70       U1                         000000014009ed70     libsrtp-x86_64-x64-vc14-debug-dynamic:aes.obj
 0002:0001a170       U2                         000000014009f170     libsrtp-x86_64-x64-vc14-debug-dynamic:aes.obj
 0002:0001a570       U3                         000000014009f570     libsrtp-x86_64-x64-vc14-debug-dynamic:aes.obj
 0002:0001a970       aes_sbox                   000000014009f970     libsrtp-x86_64-x64-vc14-debug-dynamic:aes.obj
 0002:0001aa70       aes_inv_sbox               000000014009fa70     libsrtp-x86_64-x64-vc14-debug-dynamic:aes.obj
 0002:0001b240       GS_ExceptionPointers       00000001400a0240     MSVCRTD:gs_report.obj
 0002:0001be60       $unwind$_vfprintf_l        00000001400a0e60     confsample.obj
 0002:0001be68       $unwind$printf             00000001400a0e68     confsample.obj
 0002:0001be70       $unwind$_vsnprintf_l       00000001400a0e70     confsample.obj
 0002:0001be78       $unwind$_vsprintf_l        00000001400a0e78     confsample.obj
 0002:0001be80       $unwind$sprintf            00000001400a0e80     confsample.obj
 0002:0001be88       $unwind$pjmedia_endpt_create 00000001400a0e88     confsample.obj
 0002:0001be90       $unwind$pjmedia_endpt_destroy 00000001400a0e90     confsample.obj
 0002:0001be98       $unwind$app_perror         00000001400a0e98     confsample.obj
 0002:0001bea8       $unwind$get_snd_options    00000001400a0ea8     confsample.obj
 0002:0001beb8       $unwind$dump_pool_usage    00000001400a0eb8     confsample.obj
 0002:0001bec0       $unwind$conf_list          00000001400a0ec0     confsample.obj
 0002:0001bed0       $unwind$monitor_level      00000001400a0ed0     confsample.obj
 0002:0001bee0       $unwind$usage              00000001400a0ee0     confsample.obj
 0002:0001bee8       $unwind$input              00000001400a0ee8     confsample.obj
 0002:0001bef0       $unwind$main               00000001400a0ef0     confsample.obj
 0002:0001bf0c       $unwind$pjmedia_aud_subsys_init 00000001400a0f0c     pjmedia-audiodev-x86_64-x64-vc14-debug-dynamic:audiodev.obj
 0002:0001bf14       $unwind$pjmedia_aud_subsys_get_pool_factory 00000001400a0f14     pjmedia-audiodev-x86_64-x64-vc14-debug-dynamic:audiodev.obj
 0002:0001bf1c       $unwind$pjmedia_aud_subsys_shutdown 00000001400a0f1c     pjmedia-audiodev-x86_64-x64-vc14-debug-dynamic:audiodev.obj
 0002:0001bf24       $unwind$pjmedia_aud_register_factory 00000001400a0f24     pjmedia-audiodev-x86_64-x64-vc14-debug-dynamic:audiodev.obj
 0002:0001bf2c       $unwind$pjmedia_aud_unregister_factory 00000001400a0f2c     pjmedia-audiodev-x86_64-x64-vc14-debug-dynamic:audiodev.obj
 0002:0001bf38       $unwind$pjmedia_audiodev_strerror 00000001400a0f38     pjmedia-audiodev-x86_64-x64-vc14-debug-dynamic:errno.obj
 0002:0001bf48       $unwind$_vsnprintf         00000001400a0f48     pjmedia-audiodev-x86_64-x64-vc14-debug-dynamic:errno.obj
 0002:0001bf50       $unwind$_snprintf          00000001400a0f50     pjmedia-audiodev-x86_64-x64-vc14-debug-dynamic:errno.obj
 0002:0001bf58       $unwind$pj_pool_zalloc     00000001400a0f58     pjmedia-audiodev-x86_64-x64-vc14-debug-dynamic:wmme_dev.obj
 0002:0001bf60       $unwind$pj_bzero           00000001400a0f60     pjmedia-audiodev-x86_64-x64-vc14-debug-dynamic:wmme_dev.obj
 0002:0001bf68       $unwind$pj_memset          00000001400a0f68     pjmedia-audiodev-x86_64-x64-vc14-debug-dynamic:wmme_dev.obj
 0002:0001bf70       $unwind$pj_memcpy          00000001400a0f70     pjmedia-audiodev-x86_64-x64-vc14-debug-dynamic:wmme_dev.obj
 0002:0001bf78       $unwind$pjmedia_frame_ext_append_subframe 00000001400a0f78     pjmedia-audiodev-x86_64-x64-vc14-debug-dynamic:wmme_dev.obj
 0002:0001bf80       $unwind$pjmedia_frame_ext_get_subframe 00000001400a0f80     pjmedia-audiodev-x86_64-x64-vc14-debug-dynamic:wmme_dev.obj
 0002:0001bf88       $unwind$pjmedia_frame_ext_copy_payload 00000001400a0f88     pjmedia-audiodev-x86_64-x64-vc14-debug-dynamic:wmme_dev.obj
 0002:0001bf90       $unwind$factory_init       00000001400a0f90     pjmedia-audiodev-x86_64-x64-vc14-debug-dynamic:wmme_dev.obj
 0002:0001bf98       $unwind$factory_destroy    00000001400a0f98     pjmedia-audiodev-x86_64-x64-vc14-debug-dynamic:wmme_dev.obj
 0002:0001bfa0       $unwind$factory_refresh    00000001400a0fa0     pjmedia-audiodev-x86_64-x64-vc14-debug-dynamic:wmme_dev.obj
 0002:0001bfb0       $unwind$factory_get_dev_count 00000001400a0fb0     pjmedia-audiodev-x86_64-x64-vc14-debug-dynamic:wmme_dev.obj
 0002:0001bfb8       $unwind$factory_get_dev_info 00000001400a0fb8     pjmedia-audiodev-x86_64-x64-vc14-debug-dynamic:wmme_dev.obj
 0002:0001bfc0       $unwind$factory_default_param 00000001400a0fc0     pjmedia-audiodev-x86_64-x64-vc14-debug-dynamic:wmme_dev.obj
 0002:0001bfc8       $unwind$factory_create_stream 00000001400a0fc8     pjmedia-audiodev-x86_64-x64-vc14-debug-dynamic:wmme_dev.obj
 0002:0001bfd0       $unwind$stream_get_param   00000001400a0fd0     pjmedia-audiodev-x86_64-x64-vc14-debug-dynamic:wmme_dev.obj
 0002:0001bfd8       $unwind$stream_get_cap     00000001400a0fd8     pjmedia-audiodev-x86_64-x64-vc14-debug-dynamic:wmme_dev.obj
 0002:0001bfe0       $unwind$stream_set_cap     00000001400a0fe0     pjmedia-audiodev-x86_64-x64-vc14-debug-dynamic:wmme_dev.obj
 0002:0001bfe8       $unwind$stream_start       00000001400a0fe8     pjmedia-audiodev-x86_64-x64-vc14-debug-dynamic:wmme_dev.obj
 0002:0001bff0       $unwind$stream_stop        00000001400a0ff0     pjmedia-audiodev-x86_64-x64-vc14-debug-dynamic:wmme_dev.obj
 0002:0001bff8       $unwind$stream_destroy     00000001400a0ff8     pjmedia-audiodev-x86_64-x64-vc14-debug-dynamic:wmme_dev.obj
 0002:0001c000       $unwind$pjmedia_wmme_factory 00000001400a1000     pjmedia-audiodev-x86_64-x64-vc14-debug-dynamic:wmme_dev.obj
 0002:0001c008       $unwind$build_dev_info     00000001400a1008     pjmedia-audiodev-x86_64-x64-vc14-debug-dynamic:wmme_dev.obj
 0002:0001c010       $unwind$init_waveformatex  00000001400a1010     pjmedia-audiodev-x86_64-x64-vc14-debug-dynamic:wmme_dev.obj
 0002:0001c018       $unwind$get_fmt_name       00000001400a1018     pjmedia-audiodev-x86_64-x64-vc14-debug-dynamic:wmme_dev.obj
 0002:0001c020       $unwind$init_player_stream 00000001400a1020     pjmedia-audiodev-x86_64-x64-vc14-debug-dynamic:wmme_dev.obj
 0002:0001c030       $unwind$init_capture_stream 00000001400a1030     pjmedia-audiodev-x86_64-x64-vc14-debug-dynamic:wmme_dev.obj
 0002:0001c040       $unwind$wmme_dev_thread    00000001400a1040     pjmedia-audiodev-x86_64-x64-vc14-debug-dynamic:wmme_dev.obj
 0002:0001c068       $unwind$pj_bzero           00000001400a1068     pjmedia-x86_64-x64-vc14-debug-dynamic:port.obj
 0002:0001c070       $unwind$pjmedia_port_info_init 00000001400a1070     pjmedia-x86_64-x64-vc14-debug-dynamic:port.obj
 0002:0001c07c       $unwind$pjmedia_port_info_init2 00000001400a107c     pjmedia-x86_64-x64-vc14-debug-dynamic:port.obj
 0002:0001c088       $unwind$pjmedia_port_get_clock_src 00000001400a1088     pjmedia-x86_64-x64-vc14-debug-dynamic:port.obj
 0002:0001c090       $unwind$pjmedia_port_get_frame 00000001400a1090     pjmedia-x86_64-x64-vc14-debug-dynamic:port.obj
 0002:0001c098       $unwind$pjmedia_port_put_frame 00000001400a1098     pjmedia-x86_64-x64-vc14-debug-dynamic:port.obj
 0002:0001c0a0       $unwind$pjmedia_port_destroy 00000001400a10a0     pjmedia-x86_64-x64-vc14-debug-dynamic:port.obj
 0002:0001c0b0       $unwind$pj_pool_zalloc     00000001400a10b0     pjmedia-x86_64-x64-vc14-debug-dynamic:conference.obj
 0002:0001c0b8       $unwind$PJMEDIA_AFD_SPF    00000001400a10b8     pjmedia-x86_64-x64-vc14-debug-dynamic:conference.obj
 0002:0001c0c0       $unwind$pj_bzero           00000001400a10c0     pjmedia-x86_64-x64-vc14-debug-dynamic:conference.obj
 0002:0001c0c8       $unwind$pj_memcpy          00000001400a10c8     pjmedia-x86_64-x64-vc14-debug-dynamic:conference.obj
 0002:0001c0d0       $unwind$pj_memmove         00000001400a10d0     pjmedia-x86_64-x64-vc14-debug-dynamic:conference.obj
 0002:0001c0d8       $unwind$pjmedia_zero_samples 00000001400a10d8     pjmedia-x86_64-x64-vc14-debug-dynamic:conference.obj
 0002:0001c0e0       $unwind$pjmedia_copy_samples 00000001400a10e0     pjmedia-x86_64-x64-vc14-debug-dynamic:conference.obj
 0002:0001c0e8       $unwind$pjmedia_move_samples 00000001400a10e8     pjmedia-x86_64-x64-vc14-debug-dynamic:conference.obj
 0002:0001c0f0       $unwind$PJMEDIA_PIA_CCNT   00000001400a10f0     pjmedia-x86_64-x64-vc14-debug-dynamic:conference.obj
 0002:0001c0f8       $unwind$pjmedia_conf_create 00000001400a10f8     pjmedia-x86_64-x64-vc14-debug-dynamic:conference.obj
 0002:0001c100       $unwind$pjmedia_conf_destroy 00000001400a1100     pjmedia-x86_64-x64-vc14-debug-dynamic:conference.obj
 0002:0001c108       $unwind$pjmedia_conf_get_master_port 00000001400a1108     pjmedia-x86_64-x64-vc14-debug-dynamic:conference.obj
 0002:0001c110       $unwind$pjmedia_conf_set_port0_name 00000001400a1110     pjmedia-x86_64-x64-vc14-debug-dynamic:conference.obj
 0002:0001c11c       $unwind$pjmedia_conf_add_port 00000001400a111c     pjmedia-x86_64-x64-vc14-debug-dynamic:conference.obj
 0002:0001c124       $unwind$pjmedia_conf_configure_port 00000001400a1124     pjmedia-x86_64-x64-vc14-debug-dynamic:conference.obj
 0002:0001c12c       $unwind$pjmedia_conf_connect_port 00000001400a112c     pjmedia-x86_64-x64-vc14-debug-dynamic:conference.obj
 0002:0001c134       $unwind$pjmedia_conf_disconnect_port 00000001400a1134     pjmedia-x86_64-x64-vc14-debug-dynamic:conference.obj
 0002:0001c13c       $unwind$pjmedia_conf_remove_port 00000001400a113c     pjmedia-x86_64-x64-vc14-debug-dynamic:conference.obj
 0002:0001c144       $unwind$pjmedia_conf_enum_ports 00000001400a1144     pjmedia-x86_64-x64-vc14-debug-dynamic:conference.obj
 0002:0001c14c       $unwind$pjmedia_conf_get_port_info 00000001400a114c     pjmedia-x86_64-x64-vc14-debug-dynamic:conference.obj
 0002:0001c158       $unwind$pjmedia_conf_get_ports_info 00000001400a1158     pjmedia-x86_64-x64-vc14-debug-dynamic:conference.obj
 0002:0001c160       $unwind$pjmedia_conf_get_signal_level 00000001400a1160     pjmedia-x86_64-x64-vc14-debug-dynamic:conference.obj
 0002:0001c168       $unwind$pjmedia_conf_adjust_rx_level 00000001400a1168     pjmedia-x86_64-x64-vc14-debug-dynamic:conference.obj
 0002:0001c170       $unwind$pjmedia_conf_adjust_tx_level 00000001400a1170     pjmedia-x86_64-x64-vc14-debug-dynamic:conference.obj
 0002:0001c178       $unwind$pjmedia_conf_adjust_conn_level 00000001400a1178     pjmedia-x86_64-x64-vc14-debug-dynamic:conference.obj
 0002:0001c180       $unwind$pjmedia_convert_channel_nto1 00000001400a1180     pjmedia-x86_64-x64-vc14-debug-dynamic:conference.obj
 0002:0001c188       $unwind$pjmedia_convert_channel_1ton 00000001400a1188     pjmedia-x86_64-x64-vc14-debug-dynamic:conference.obj
 0002:0001c190       $unwind$put_frame          00000001400a1190     pjmedia-x86_64-x64-vc14-debug-dynamic:conference.obj
 0002:0001c198       $unwind$get_frame          00000001400a1198     pjmedia-x86_64-x64-vc14-debug-dynamic:conference.obj
 0002:0001c1a0       $unwind$destroy_port       00000001400a11a0     pjmedia-x86_64-x64-vc14-debug-dynamic:conference.obj
 0002:0001c1a8       $unwind$create_conf_port   00000001400a11a8     pjmedia-x86_64-x64-vc14-debug-dynamic:conference.obj
 0002:0001c1b0       $unwind$create_pasv_port   00000001400a11b0     pjmedia-x86_64-x64-vc14-debug-dynamic:conference.obj
 0002:0001c1b8       $unwind$create_sound_port  00000001400a11b8     pjmedia-x86_64-x64-vc14-debug-dynamic:conference.obj
 0002:0001c1c8       $unwind$read_port          00000001400a11c8     pjmedia-x86_64-x64-vc14-debug-dynamic:conference.obj
 0002:0001c1d0       $unwind$write_port         00000001400a11d0     pjmedia-x86_64-x64-vc14-debug-dynamic:conference.obj
 0002:0001c1f8       $unwind$pj_list_push_back  00000001400a11f8     pjmedia-x86_64-x64-vc14-debug-dynamic:endpoint.obj
 0002:0001c200       $unwind$pj_pool_zalloc     00000001400a1200     pjmedia-x86_64-x64-vc14-debug-dynamic:endpoint.obj
 0002:0001c208       $unwind$pj_bzero           00000001400a1208     pjmedia-x86_64-x64-vc14-debug-dynamic:endpoint.obj
 0002:0001c210       $unwind$pjmedia_endpt_create2 00000001400a1210     pjmedia-x86_64-x64-vc14-debug-dynamic:endpoint.obj
 0002:0001c218       $unwind$pjmedia_endpt_destroy2 00000001400a1218     pjmedia-x86_64-x64-vc14-debug-dynamic:endpoint.obj
 0002:0001c220       $unwind$pjmedia_endpt_set_flag 00000001400a1220     pjmedia-x86_64-x64-vc14-debug-dynamic:endpoint.obj
 0002:0001c228       $unwind$pjmedia_endpt_get_flag 00000001400a1228     pjmedia-x86_64-x64-vc14-debug-dynamic:endpoint.obj
 0002:0001c230       $unwind$pjmedia_endpt_get_ioqueue 00000001400a1230     pjmedia-x86_64-x64-vc14-debug-dynamic:endpoint.obj
 0002:0001c238       $unwind$pjmedia_endpt_get_thread_count 00000001400a1238     pjmedia-x86_64-x64-vc14-debug-dynamic:endpoint.obj
 0002:0001c240       $unwind$pjmedia_endpt_get_thread 00000001400a1240     pjmedia-x86_64-x64-vc14-debug-dynamic:endpoint.obj
 0002:0001c248       $unwind$pjmedia_endpt_stop_threads 00000001400a1248     pjmedia-x86_64-x64-vc14-debug-dynamic:endpoint.obj
 0002:0001c250       $unwind$pjmedia_endpt_create_pool 00000001400a1250     pjmedia-x86_64-x64-vc14-debug-dynamic:endpoint.obj
 0002:0001c258       $unwind$pjmedia_endpt_create_sdp 00000001400a1258     pjmedia-x86_64-x64-vc14-debug-dynamic:endpoint.obj
 0002:0001c260       $unwind$pjmedia_endpt_create_base_sdp 00000001400a1260     pjmedia-x86_64-x64-vc14-debug-dynamic:endpoint.obj
 0002:0001c274       $unwind$pjmedia_endpt_create_audio_sdp 00000001400a1274     pjmedia-x86_64-x64-vc14-debug-dynamic:endpoint.obj
 0002:0001c288       $unwind$pjmedia_endpt_dump 00000001400a1288     pjmedia-x86_64-x64-vc14-debug-dynamic:endpoint.obj
 0002:0001c298       $unwind$pjmedia_endpt_atexit 00000001400a1298     pjmedia-x86_64-x64-vc14-debug-dynamic:endpoint.obj
 0002:0001c2a0       $unwind$worker_proc        00000001400a12a0     pjmedia-x86_64-x64-vc14-debug-dynamic:endpoint.obj
 0002:0001c2a8       $unwind$init_sdp_media     00000001400a12a8     pjmedia-x86_64-x64-vc14-debug-dynamic:endpoint.obj
 0002:0001c2bc       $unwind$good_number        00000001400a12bc     pjmedia-x86_64-x64-vc14-debug-dynamic:endpoint.obj
 0002:0001c2d8       $unwind$pj_pool_zalloc     00000001400a12d8     pjmedia-x86_64-x64-vc14-debug-dynamic:wav_player.obj
 0002:0001c2e0       $unwind$pj_bzero           00000001400a12e0     pjmedia-x86_64-x64-vc14-debug-dynamic:wav_player.obj
 0002:0001c2e8       $unwind$pj_memset          00000001400a12e8     pjmedia-x86_64-x64-vc14-debug-dynamic:wav_player.obj
 0002:0001c2f0       $unwind$pj_memcpy          00000001400a12f0     pjmedia-x86_64-x64-vc14-debug-dynamic:wav_player.obj
 0002:0001c2f8       $unwind$pjmedia_wav_player_port_create 00000001400a12f8     pjmedia-x86_64-x64-vc14-debug-dynamic:wav_player.obj
 0002:0001c308       $unwind$pjmedia_wav_player_get_info 00000001400a1308     pjmedia-x86_64-x64-vc14-debug-dynamic:wav_player.obj
 0002:0001c310       $unwind$pjmedia_wav_player_get_len 00000001400a1310     pjmedia-x86_64-x64-vc14-debug-dynamic:wav_player.obj
 0002:0001c318       $unwind$pjmedia_wav_player_port_set_pos 00000001400a1318     pjmedia-x86_64-x64-vc14-debug-dynamic:wav_player.obj
 0002:0001c320       $unwind$pjmedia_wav_player_port_get_pos 00000001400a1320     pjmedia-x86_64-x64-vc14-debug-dynamic:wav_player.obj
 0002:0001c328       $unwind$pjmedia_wav_player_set_eof_cb 00000001400a1328     pjmedia-x86_64-x64-vc14-debug-dynamic:wav_player.obj
 0002:0001c330       $unwind$pjmedia_wav_player_set_eof_cb2 00000001400a1330     pjmedia-x86_64-x64-vc14-debug-dynamic:wav_player.obj
 0002:0001c338       $unwind$file_get_frame     00000001400a1338     pjmedia-x86_64-x64-vc14-debug-dynamic:wav_player.obj
 0002:0001c348       $unwind$file_on_destroy    00000001400a1348     pjmedia-x86_64-x64-vc14-debug-dynamic:wav_player.obj
 0002:0001c350       $unwind$create_file_port   00000001400a1350     pjmedia-x86_64-x64-vc14-debug-dynamic:wav_player.obj
 0002:0001c35c       $unwind$fill_buffer        00000001400a135c     pjmedia-x86_64-x64-vc14-debug-dynamic:wav_player.obj
 0002:0001c364       $unwind$file_on_event      00000001400a1364     pjmedia-x86_64-x64-vc14-debug-dynamic:wav_player.obj
 0002:0001c37c       $unwind$pj_pool_zalloc     00000001400a137c     pjmedia-x86_64-x64-vc14-debug-dynamic:wav_writer.obj
 0002:0001c384       $unwind$PJMEDIA_AFD_AVG_FSZ 00000001400a1384     pjmedia-x86_64-x64-vc14-debug-dynamic:wav_writer.obj
 0002:0001c38c       $unwind$pj_bzero           00000001400a138c     pjmedia-x86_64-x64-vc14-debug-dynamic:wav_writer.obj
 0002:0001c394       $unwind$pj_memcpy          00000001400a1394     pjmedia-x86_64-x64-vc14-debug-dynamic:wav_writer.obj
 0002:0001c39c       $unwind$PJMEDIA_PIA_SRATE  00000001400a139c     pjmedia-x86_64-x64-vc14-debug-dynamic:wav_writer.obj
 0002:0001c3a4       $unwind$PJMEDIA_PIA_AVG_FSZ 00000001400a13a4     pjmedia-x86_64-x64-vc14-debug-dynamic:wav_writer.obj
 0002:0001c3ac       $unwind$pjmedia_wav_writer_port_create 00000001400a13ac     pjmedia-x86_64-x64-vc14-debug-dynamic:wav_writer.obj
 0002:0001c3bc       $unwind$pjmedia_wav_writer_port_get_pos 00000001400a13bc     pjmedia-x86_64-x64-vc14-debug-dynamic:wav_writer.obj
 0002:0001c3c4       $unwind$pjmedia_wav_writer_port_set_cb 00000001400a13c4     pjmedia-x86_64-x64-vc14-debug-dynamic:wav_writer.obj
 0002:0001c3cc       $unwind$pjmedia_wav_writer_port_set_cb2 00000001400a13cc     pjmedia-x86_64-x64-vc14-debug-dynamic:wav_writer.obj
 0002:0001c3d4       $unwind$file_put_frame     00000001400a13d4     pjmedia-x86_64-x64-vc14-debug-dynamic:wav_writer.obj
 0002:0001c3e4       $unwind$file_on_destroy    00000001400a13e4     pjmedia-x86_64-x64-vc14-debug-dynamic:wav_writer.obj
 0002:0001c3ec       $unwind$flush_buffer       00000001400a13ec     pjmedia-x86_64-x64-vc14-debug-dynamic:wav_writer.obj
 0002:0001c3f4       $unwind$file_on_event      00000001400a13f4     pjmedia-x86_64-x64-vc14-debug-dynamic:wav_writer.obj
 0002:0001c408       $unwind$pj_bzero           00000001400a1408     pjmedia-x86_64-x64-vc14-debug-dynamic:audiodev.obj
 0002:0001c410       $unwind$pj_memcpy          00000001400a1410     pjmedia-x86_64-x64-vc14-debug-dynamic:audiodev.obj
 0002:0001c418       $unwind$pjmedia_aud_driver_init 00000001400a1418     pjmedia-x86_64-x64-vc14-debug-dynamic:audiodev.obj
 0002:0001c428       $unwind$pjmedia_aud_driver_deinit 00000001400a1428     pjmedia-x86_64-x64-vc14-debug-dynamic:audiodev.obj
 0002:0001c430       $unwind$pjmedia_aud_dev_cap_name 00000001400a1430     pjmedia-x86_64-x64-vc14-debug-dynamic:audiodev.obj
 0002:0001c438       $unwind$pjmedia_aud_param_set_cap 00000001400a1438     pjmedia-x86_64-x64-vc14-debug-dynamic:audiodev.obj
 0002:0001c440       $unwind$pjmedia_aud_param_get_cap 00000001400a1440     pjmedia-x86_64-x64-vc14-debug-dynamic:audiodev.obj
 0002:0001c448       $unwind$pjmedia_aud_dev_refresh 00000001400a1448     pjmedia-x86_64-x64-vc14-debug-dynamic:audiodev.obj
 0002:0001c450       $unwind$pjmedia_aud_dev_get_info 00000001400a1450     pjmedia-x86_64-x64-vc14-debug-dynamic:audiodev.obj
 0002:0001c458       $unwind$pjmedia_aud_dev_lookup 00000001400a1458     pjmedia-x86_64-x64-vc14-debug-dynamic:audiodev.obj
 0002:0001c468       $unwind$pjmedia_aud_dev_default_param 00000001400a1468     pjmedia-x86_64-x64-vc14-debug-dynamic:audiodev.obj
 0002:0001c470       $unwind$pjmedia_aud_stream_create 00000001400a1470     pjmedia-x86_64-x64-vc14-debug-dynamic:audiodev.obj
 0002:0001c480       $unwind$pjmedia_aud_stream_get_param 00000001400a1480     pjmedia-x86_64-x64-vc14-debug-dynamic:audiodev.obj
 0002:0001c488       $unwind$pjmedia_aud_stream_get_cap 00000001400a1488     pjmedia-x86_64-x64-vc14-debug-dynamic:audiodev.obj
 0002:0001c490       $unwind$pjmedia_aud_stream_set_cap 00000001400a1490     pjmedia-x86_64-x64-vc14-debug-dynamic:audiodev.obj
 0002:0001c498       $unwind$pjmedia_aud_stream_start 00000001400a1498     pjmedia-x86_64-x64-vc14-debug-dynamic:audiodev.obj
 0002:0001c4a0       $unwind$pjmedia_aud_stream_stop 00000001400a14a0     pjmedia-x86_64-x64-vc14-debug-dynamic:audiodev.obj
 0002:0001c4a8       $unwind$pjmedia_aud_stream_destroy 00000001400a14a8     pjmedia-x86_64-x64-vc14-debug-dynamic:audiodev.obj
 0002:0001c4b0       $unwind$get_cap_pointer    00000001400a14b0     pjmedia-x86_64-x64-vc14-debug-dynamic:audiodev.obj
 0002:0001c4b8       $unwind$make_global_index  00000001400a14b8     pjmedia-x86_64-x64-vc14-debug-dynamic:audiodev.obj
 0002:0001c4c0       $unwind$lookup_dev         00000001400a14c0     pjmedia-x86_64-x64-vc14-debug-dynamic:audiodev.obj
 0002:0001c4dc       $unwind$pj_list_push_back  00000001400a14dc     pjmedia-x86_64-x64-vc14-debug-dynamic:event.obj
 0002:0001c4e4       $unwind$pj_pool_zalloc     00000001400a14e4     pjmedia-x86_64-x64-vc14-debug-dynamic:event.obj
 0002:0001c4ec       $unwind$pj_bzero           00000001400a14ec     pjmedia-x86_64-x64-vc14-debug-dynamic:event.obj
 0002:0001c4f4       $unwind$pj_memcpy          00000001400a14f4     pjmedia-x86_64-x64-vc14-debug-dynamic:event.obj
 0002:0001c4fc       $unwind$pjmedia_event_mgr_create 00000001400a14fc     pjmedia-x86_64-x64-vc14-debug-dynamic:event.obj
 0002:0001c504       $unwind$pjmedia_event_mgr_destroy 00000001400a1504     pjmedia-x86_64-x64-vc14-debug-dynamic:event.obj
 0002:0001c50c       $unwind$pjmedia_event_init 00000001400a150c     pjmedia-x86_64-x64-vc14-debug-dynamic:event.obj
 0002:0001c514       $unwind$pjmedia_event_subscribe 00000001400a1514     pjmedia-x86_64-x64-vc14-debug-dynamic:event.obj
 0002:0001c51c       $unwind$pjmedia_event_unsubscribe 00000001400a151c     pjmedia-x86_64-x64-vc14-debug-dynamic:event.obj
 0002:0001c524       $unwind$pjmedia_event_publish 00000001400a1524     pjmedia-x86_64-x64-vc14-debug-dynamic:event.obj
 0002:0001c52c       $unwind$event_queue_add_event 00000001400a152c     pjmedia-x86_64-x64-vc14-debug-dynamic:event.obj
 0002:0001c53c       $unwind$event_mgr_distribute_events 00000001400a153c     pjmedia-x86_64-x64-vc14-debug-dynamic:event.obj
 0002:0001c544       $unwind$event_worker_thread 00000001400a1544     pjmedia-x86_64-x64-vc14-debug-dynamic:event.obj
 0002:0001c558       $unwind$pjmedia_format_copy 00000001400a1558     pjmedia-x86_64-x64-vc14-debug-dynamic:format.obj
 0002:0001c560       $unwind$pjmedia_format_get_audio_format_detail 00000001400a1560     pjmedia-x86_64-x64-vc14-debug-dynamic:format.obj
 0002:0001c568       $unwind$pj_memcpy          00000001400a1568     pjmedia-x86_64-x64-vc14-debug-dynamic:format.obj
 0002:0001c574       $unwind$pjmedia_delay_buf_create 00000001400a1574     pjmedia-x86_64-x64-vc14-debug-dynamic:delaybuf.obj
 0002:0001c57c       $unwind$pjmedia_delay_buf_put 00000001400a157c     pjmedia-x86_64-x64-vc14-debug-dynamic:delaybuf.obj
 0002:0001c584       $unwind$pjmedia_delay_buf_get 00000001400a1584     pjmedia-x86_64-x64-vc14-debug-dynamic:delaybuf.obj
 0002:0001c58c       $unwind$pjmedia_delay_buf_reset 00000001400a158c     pjmedia-x86_64-x64-vc14-debug-dynamic:delaybuf.obj
 0002:0001c594       $unwind$pjmedia_delay_buf_destroy 00000001400a1594     pjmedia-x86_64-x64-vc14-debug-dynamic:delaybuf.obj
 0002:0001c59c       $unwind$pj_bzero           00000001400a159c     pjmedia-x86_64-x64-vc14-debug-dynamic:delaybuf.obj
 0002:0001c5a4       $unwind$pj_memcpy          00000001400a15a4     pjmedia-x86_64-x64-vc14-debug-dynamic:delaybuf.obj
 0002:0001c5ac       $unwind$pjmedia_zero_samples 00000001400a15ac     pjmedia-x86_64-x64-vc14-debug-dynamic:delaybuf.obj
 0002:0001c5b4       $unwind$pjmedia_copy_samples 00000001400a15b4     pjmedia-x86_64-x64-vc14-debug-dynamic:delaybuf.obj
 0002:0001c5bc       $unwind$pjmedia_circ_buf_create 00000001400a15bc     pjmedia-x86_64-x64-vc14-debug-dynamic:delaybuf.obj
 0002:0001c5c4       $unwind$pjmedia_circ_buf_adv_read_ptr 00000001400a15c4     pjmedia-x86_64-x64-vc14-debug-dynamic:delaybuf.obj
 0002:0001c5cc       $unwind$pjmedia_circ_buf_read 00000001400a15cc     pjmedia-x86_64-x64-vc14-debug-dynamic:delaybuf.obj
 0002:0001c5d4       $unwind$pjmedia_circ_buf_write 00000001400a15d4     pjmedia-x86_64-x64-vc14-debug-dynamic:delaybuf.obj
 0002:0001c5dc       $unwind$shrink_buffer      00000001400a15dc     pjmedia-x86_64-x64-vc14-debug-dynamic:delaybuf.obj
 0002:0001c5e4       $unwind$update             00000001400a15e4     pjmedia-x86_64-x64-vc14-debug-dynamic:delaybuf.obj
 0002:0001c5f8       $unwind$pj_pool_zalloc     00000001400a15f8     pjmedia-x86_64-x64-vc14-debug-dynamic:delaybuf.obj
 0002:0001c600       $unwind$pj_pool_zalloc     00000001400a1600     pjmedia-x86_64-x64-vc14-debug-dynamic:resample_resample.obj
 0002:0001c608       $unwind$pj_bzero           00000001400a1608     pjmedia-x86_64-x64-vc14-debug-dynamic:resample_resample.obj
 0002:0001c610       $unwind$pj_memcpy          00000001400a1610     pjmedia-x86_64-x64-vc14-debug-dynamic:resample_resample.obj
 0002:0001c618       $unwind$pjmedia_zero_samples 00000001400a1618     pjmedia-x86_64-x64-vc14-debug-dynamic:resample_resample.obj
 0002:0001c620       $unwind$pjmedia_copy_samples 00000001400a1620     pjmedia-x86_64-x64-vc14-debug-dynamic:resample_resample.obj
 0002:0001c628       $unwind$pjmedia_resample_create 00000001400a1628     pjmedia-x86_64-x64-vc14-debug-dynamic:resample_resample.obj
 0002:0001c630       $unwind$pjmedia_resample_run 00000001400a1630     pjmedia-x86_64-x64-vc14-debug-dynamic:resample_resample.obj
 0002:0001c638       $unwind$pjmedia_resample_get_input_size 00000001400a1638     pjmedia-x86_64-x64-vc14-debug-dynamic:resample_resample.obj
 0002:0001c648       $unwind$pj_pool_zalloc     00000001400a1648     pjmedia-x86_64-x64-vc14-debug-dynamic:sound_port.obj
 0002:0001c650       $unwind$PJMEDIA_AFD_SPF    00000001400a1650     pjmedia-x86_64-x64-vc14-debug-dynamic:sound_port.obj
 0002:0001c658       $unwind$pj_bzero           00000001400a1658     pjmedia-x86_64-x64-vc14-debug-dynamic:sound_port.obj
 0002:0001c660       $unwind$pj_memcpy          00000001400a1660     pjmedia-x86_64-x64-vc14-debug-dynamic:sound_port.obj
 0002:0001c668       $unwind$pjmedia_snd_port_param_default 00000001400a1668     pjmedia-x86_64-x64-vc14-debug-dynamic:sound_port.obj
 0002:0001c670       $unwind$pjmedia_snd_port_create 00000001400a1670     pjmedia-x86_64-x64-vc14-debug-dynamic:sound_port.obj
 0002:0001c680       $unwind$pjmedia_snd_port_create_rec 00000001400a1680     pjmedia-x86_64-x64-vc14-debug-dynamic:sound_port.obj
 0002:0001c690       $unwind$pjmedia_snd_port_create_player 00000001400a1690     pjmedia-x86_64-x64-vc14-debug-dynamic:sound_port.obj
 0002:0001c6a0       $unwind$pjmedia_snd_port_create2 00000001400a16a0     pjmedia-x86_64-x64-vc14-debug-dynamic:sound_port.obj
 0002:0001c6a8       $unwind$pjmedia_snd_port_destroy 00000001400a16a8     pjmedia-x86_64-x64-vc14-debug-dynamic:sound_port.obj
 0002:0001c6b0       $unwind$pjmedia_snd_port_get_snd_stream 00000001400a16b0     pjmedia-x86_64-x64-vc14-debug-dynamic:sound_port.obj
 0002:0001c6b8       $unwind$pjmedia_snd_port_set_ec 00000001400a16b8     pjmedia-x86_64-x64-vc14-debug-dynamic:sound_port.obj
 0002:0001c6c8       $unwind$pjmedia_snd_port_get_ec_tail 00000001400a16c8     pjmedia-x86_64-x64-vc14-debug-dynamic:sound_port.obj
 0002:0001c6d0       $unwind$pjmedia_snd_port_get_ec_stat 00000001400a16d0     pjmedia-x86_64-x64-vc14-debug-dynamic:sound_port.obj
 0002:0001c6d8       $unwind$pjmedia_snd_port_get_clock_src 00000001400a16d8     pjmedia-x86_64-x64-vc14-debug-dynamic:sound_port.obj
 0002:0001c6e0       $unwind$pjmedia_snd_port_connect 00000001400a16e0     pjmedia-x86_64-x64-vc14-debug-dynamic:sound_port.obj
 0002:0001c6e8       $unwind$pjmedia_snd_port_get_port 00000001400a16e8     pjmedia-x86_64-x64-vc14-debug-dynamic:sound_port.obj
 0002:0001c6f0       $unwind$pjmedia_snd_port_disconnect 00000001400a16f0     pjmedia-x86_64-x64-vc14-debug-dynamic:sound_port.obj
 0002:0001c6f8       $unwind$play_cb            00000001400a16f8     pjmedia-x86_64-x64-vc14-debug-dynamic:sound_port.obj
 0002:0001c700       $unwind$rec_cb             00000001400a1700     pjmedia-x86_64-x64-vc14-debug-dynamic:sound_port.obj
 0002:0001c708       $unwind$play_cb_ext        00000001400a1708     pjmedia-x86_64-x64-vc14-debug-dynamic:sound_port.obj
 0002:0001c710       $unwind$rec_cb_ext         00000001400a1710     pjmedia-x86_64-x64-vc14-debug-dynamic:sound_port.obj
 0002:0001c718       $unwind$start_sound_device 00000001400a1718     pjmedia-x86_64-x64-vc14-debug-dynamic:sound_port.obj
 0002:0001c728       $unwind$stop_sound_device  00000001400a1728     pjmedia-x86_64-x64-vc14-debug-dynamic:sound_port.obj
 0002:0001c748       $unwind$pjmedia_sdp_attr_create 00000001400a1748     pjmedia-x86_64-x64-vc14-debug-dynamic:sdp.obj
 0002:0001c750       $unwind$pjmedia_sdp_attr_clone 00000001400a1750     pjmedia-x86_64-x64-vc14-debug-dynamic:sdp.obj
 0002:0001c758       $unwind$pjmedia_sdp_attr_find 00000001400a1758     pjmedia-x86_64-x64-vc14-debug-dynamic:sdp.obj
 0002:0001c760       $unwind$pjmedia_sdp_attr_find2 00000001400a1760     pjmedia-x86_64-x64-vc14-debug-dynamic:sdp.obj
 0002:0001c768       $unwind$pjmedia_sdp_attr_add 00000001400a1768     pjmedia-x86_64-x64-vc14-debug-dynamic:sdp.obj
 0002:0001c770       $unwind$pjmedia_sdp_attr_remove_all 00000001400a1770     pjmedia-x86_64-x64-vc14-debug-dynamic:sdp.obj
 0002:0001c778       $unwind$pjmedia_sdp_attr_remove 00000001400a1778     pjmedia-x86_64-x64-vc14-debug-dynamic:sdp.obj
 0002:0001c780       $unwind$pjmedia_sdp_attr_to_rtpmap 00000001400a1780     pjmedia-x86_64-x64-vc14-debug-dynamic:sdp.obj
 0002:0001c788       $unwind$pjmedia_sdp_attr_get_rtpmap 00000001400a1788     pjmedia-x86_64-x64-vc14-debug-dynamic:sdp.obj
 0002:0001c798       $unwind$pjmedia_sdp_rtpmap_to_attr 00000001400a1798     pjmedia-x86_64-x64-vc14-debug-dynamic:sdp.obj
 0002:0001c7a8       $unwind$pjmedia_sdp_attr_get_fmtp 00000001400a17a8     pjmedia-x86_64-x64-vc14-debug-dynamic:sdp.obj
 0002:0001c7b4       $unwind$pjmedia_sdp_attr_get_rtcp 00000001400a17b4     pjmedia-x86_64-x64-vc14-debug-dynamic:sdp.obj
 0002:0001c7c4       $unwind$pjmedia_sdp_attr_create_rtcp 00000001400a17c4     pjmedia-x86_64-x64-vc14-debug-dynamic:sdp.obj
 0002:0001c7d8       $unwind$pjmedia_sdp_attr_get_ssrc 00000001400a17d8     pjmedia-x86_64-x64-vc14-debug-dynamic:sdp.obj
 0002:0001c7e8       $unwind$pjmedia_sdp_attr_create_ssrc 00000001400a17e8     pjmedia-x86_64-x64-vc14-debug-dynamic:sdp.obj
 0002:0001c7f4       $unwind$pjmedia_sdp_conn_clone 00000001400a17f4     pjmedia-x86_64-x64-vc14-debug-dynamic:sdp.obj
 0002:0001c7fc       $unwind$pjmedia_sdp_bandw_clone 00000001400a17fc     pjmedia-x86_64-x64-vc14-debug-dynamic:sdp.obj
 0002:0001c804       $unwind$pjmedia_sdp_media_clone 00000001400a1804     pjmedia-x86_64-x64-vc14-debug-dynamic:sdp.obj
 0002:0001c80c       $unwind$pjmedia_sdp_media_find_attr 00000001400a180c     pjmedia-x86_64-x64-vc14-debug-dynamic:sdp.obj
 0002:0001c814       $unwind$pjmedia_sdp_media_find_attr2 00000001400a1814     pjmedia-x86_64-x64-vc14-debug-dynamic:sdp.obj
 0002:0001c81c       $unwind$pjmedia_sdp_media_add_attr 00000001400a181c     pjmedia-x86_64-x64-vc14-debug-dynamic:sdp.obj
 0002:0001c824       $unwind$pjmedia_sdp_media_remove_all_attr 00000001400a1824     pjmedia-x86_64-x64-vc14-debug-dynamic:sdp.obj
 0002:0001c82c       $unwind$pjmedia_sdp_media_remove_attr 00000001400a182c     pjmedia-x86_64-x64-vc14-debug-dynamic:sdp.obj
 0002:0001c834       $unwind$pjmedia_sdp_transport_cmp 00000001400a1834     pjmedia-x86_64-x64-vc14-debug-dynamic:sdp.obj
 0002:0001c83c       $unwind$pjmedia_sdp_transport_get_proto 00000001400a183c     pjmedia-x86_64-x64-vc14-debug-dynamic:sdp.obj
 0002:0001c844       $unwind$pjmedia_sdp_media_deactivate 00000001400a1844     pjmedia-x86_64-x64-vc14-debug-dynamic:sdp.obj
 0002:0001c84c       $unwind$pjmedia_sdp_media_clone_deactivate 00000001400a184c     pjmedia-x86_64-x64-vc14-debug-dynamic:sdp.obj
 0002:0001c854       $unwind$pjmedia_sdp_parse  00000001400a1854     pjmedia-x86_64-x64-vc14-debug-dynamic:sdp.obj
 0002:0001c864       $unwind$pjmedia_sdp_print  00000001400a1864     pjmedia-x86_64-x64-vc14-debug-dynamic:sdp.obj
 0002:0001c86c       $unwind$pjmedia_sdp_validate 00000001400a186c     pjmedia-x86_64-x64-vc14-debug-dynamic:sdp.obj
 0002:0001c874       $unwind$pjmedia_sdp_validate2 00000001400a1874     pjmedia-x86_64-x64-vc14-debug-dynamic:sdp.obj
 0002:0001c87c       $unwind$pjmedia_sdp_session_clone 00000001400a187c     pjmedia-x86_64-x64-vc14-debug-dynamic:sdp.obj
 0002:0001c884       $unwind$pjmedia_sdp_session_add_attr 00000001400a1884     pjmedia-x86_64-x64-vc14-debug-dynamic:sdp.obj
 0002:0001c88c       $unwind$pj_bzero           00000001400a188c     pjmedia-x86_64-x64-vc14-debug-dynamic:sdp.obj
 0002:0001c894       $unwind$pj_memcpy          00000001400a1894     pjmedia-x86_64-x64-vc14-debug-dynamic:sdp.obj
 0002:0001c89c       $unwind$pj_pool_zalloc     00000001400a189c     pjmedia-x86_64-x64-vc14-debug-dynamic:sdp.obj
 0002:0001c8a4       $unwind$pj_isdigit         00000001400a18a4     pjmedia-x86_64-x64-vc14-debug-dynamic:sdp.obj
 0002:0001c8ac       $unwind$parse_version      00000001400a18ac     pjmedia-x86_64-x64-vc14-debug-dynamic:sdp.obj
 0002:0001c8b4       $unwind$parse_origin       00000001400a18b4     pjmedia-x86_64-x64-vc14-debug-dynamic:sdp.obj
 0002:0001c8bc       $unwind$parse_time         00000001400a18bc     pjmedia-x86_64-x64-vc14-debug-dynamic:sdp.obj
 0002:0001c8c4       $unwind$parse_generic_line 00000001400a18c4     pjmedia-x86_64-x64-vc14-debug-dynamic:sdp.obj
 0002:0001c8cc       $unwind$parse_connection_info 00000001400a18cc     pjmedia-x86_64-x64-vc14-debug-dynamic:sdp.obj
 0002:0001c8d4       $unwind$parse_bandwidth_info 00000001400a18d4     pjmedia-x86_64-x64-vc14-debug-dynamic:sdp.obj
 0002:0001c8dc       $unwind$parse_attr         00000001400a18dc     pjmedia-x86_64-x64-vc14-debug-dynamic:sdp.obj
 0002:0001c8e4       $unwind$parse_media        00000001400a18e4     pjmedia-x86_64-x64-vc14-debug-dynamic:sdp.obj
 0002:0001c8f0       $unwind$on_scanner_error   00000001400a18f0     pjmedia-x86_64-x64-vc14-debug-dynamic:sdp.obj
 0002:0001c8f8       $unwind$init_sdp_parser    00000001400a18f8     pjmedia-x86_64-x64-vc14-debug-dynamic:sdp.obj
 0002:0001c900       $unwind$print_connection_info 00000001400a1900     pjmedia-x86_64-x64-vc14-debug-dynamic:sdp.obj
 0002:0001c908       $unwind$print_bandw        00000001400a1908     pjmedia-x86_64-x64-vc14-debug-dynamic:sdp.obj
 0002:0001c910       $unwind$print_attr         00000001400a1910     pjmedia-x86_64-x64-vc14-debug-dynamic:sdp.obj
 0002:0001c918       $unwind$print_media_desc   00000001400a1918     pjmedia-x86_64-x64-vc14-debug-dynamic:sdp.obj
 0002:0001c920       $unwind$print_session      00000001400a1920     pjmedia-x86_64-x64-vc14-debug-dynamic:sdp.obj
 0002:0001c928       $unwind$apply_media_direction 00000001400a1928     pjmedia-x86_64-x64-vc14-debug-dynamic:sdp.obj
 0002:0001c930       $unwind$validate_sdp_conn  00000001400a1930     pjmedia-x86_64-x64-vc14-debug-dynamic:sdp.obj
 0002:0001c96c       $unwind$pj_scan_is_eof     00000001400a196c     pjmedia-x86_64-x64-vc14-debug-dynamic:sdp.obj
 0002:0001c974       $unwind$pj_list_push_back  00000001400a1974     pjmedia-x86_64-x64-vc14-debug-dynamic:codec.obj
 0002:0001c97c       $unwind$pj_pool_zalloc     00000001400a197c     pjmedia-x86_64-x64-vc14-debug-dynamic:codec.obj
 0002:0001c984       $unwind$pj_bzero           00000001400a1984     pjmedia-x86_64-x64-vc14-debug-dynamic:codec.obj
 0002:0001c98c       $unwind$pj_memcpy          00000001400a198c     pjmedia-x86_64-x64-vc14-debug-dynamic:codec.obj
 0002:0001c994       $unwind$pjmedia_codec_param_clone 00000001400a1994     pjmedia-x86_64-x64-vc14-debug-dynamic:codec.obj
 0002:0001c99c       $unwind$pjmedia_codec_mgr_init 00000001400a199c     pjmedia-x86_64-x64-vc14-debug-dynamic:codec.obj
 0002:0001c9a4       $unwind$pjmedia_codec_mgr_destroy 00000001400a19a4     pjmedia-x86_64-x64-vc14-debug-dynamic:codec.obj
 0002:0001c9ac       $unwind$pjmedia_codec_mgr_register_factory 00000001400a19ac     pjmedia-x86_64-x64-vc14-debug-dynamic:codec.obj
 0002:0001c9bc       $unwind$pjmedia_codec_mgr_unregister_factory 00000001400a19bc     pjmedia-x86_64-x64-vc14-debug-dynamic:codec.obj
 0002:0001c9c4       $unwind$pjmedia_codec_mgr_enum_codecs 00000001400a19c4     pjmedia-x86_64-x64-vc14-debug-dynamic:codec.obj
 0002:0001c9cc       $unwind$pjmedia_codec_mgr_get_codec_info 00000001400a19cc     pjmedia-x86_64-x64-vc14-debug-dynamic:codec.obj
 0002:0001c9d4       $unwind$pjmedia_codec_info_to_id 00000001400a19d4     pjmedia-x86_64-x64-vc14-debug-dynamic:codec.obj
 0002:0001c9dc       $unwind$pjmedia_codec_mgr_find_codecs_by_id 00000001400a19dc     pjmedia-x86_64-x64-vc14-debug-dynamic:codec.obj
 0002:0001c9e4       $unwind$pjmedia_codec_mgr_set_codec_priority 00000001400a19e4     pjmedia-x86_64-x64-vc14-debug-dynamic:codec.obj
 0002:0001c9ec       $unwind$pjmedia_codec_mgr_get_default_param 00000001400a19ec     pjmedia-x86_64-x64-vc14-debug-dynamic:codec.obj
 0002:0001c9fc       $unwind$pjmedia_codec_mgr_set_default_param 00000001400a19fc     pjmedia-x86_64-x64-vc14-debug-dynamic:codec.obj
 0002:0001ca0c       $unwind$pjmedia_codec_mgr_alloc_codec 00000001400a1a0c     pjmedia-x86_64-x64-vc14-debug-dynamic:codec.obj
 0002:0001ca14       $unwind$pjmedia_codec_mgr_dealloc_codec 00000001400a1a14     pjmedia-x86_64-x64-vc14-debug-dynamic:codec.obj
 0002:0001ca1c       $unwind$sort_codecs        00000001400a1a1c     pjmedia-x86_64-x64-vc14-debug-dynamic:codec.obj
 0002:0001ca24       $unwind$swap_codec         00000001400a1a24     pjmedia-x86_64-x64-vc14-debug-dynamic:codec.obj
 0002:0001ca48       $unwind$pjmedia_strerror   00000001400a1a48     pjmedia-x86_64-x64-vc14-debug-dynamic:errno.obj
 0002:0001ca58       $unwind$pjmedia_wave_hdr_file_to_host 00000001400a1a58     pjmedia-x86_64-x64-vc14-debug-dynamic:wave.obj
 0002:0001ca60       $unwind$pjmedia_wave_hdr_host_to_file 00000001400a1a60     pjmedia-x86_64-x64-vc14-debug-dynamic:wave.obj
 0002:0001ca6c       $unwind$pjmedia_wsola_create 00000001400a1a6c     pjmedia-x86_64-x64-vc14-debug-dynamic:wsola.obj
 0002:0001ca74       $unwind$pjmedia_wsola_set_max_expand 00000001400a1a74     pjmedia-x86_64-x64-vc14-debug-dynamic:wsola.obj
 0002:0001ca7c       $unwind$pjmedia_wsola_reset 00000001400a1a7c     pjmedia-x86_64-x64-vc14-debug-dynamic:wsola.obj
 0002:0001ca84       $unwind$pjmedia_wsola_save 00000001400a1a84     pjmedia-x86_64-x64-vc14-debug-dynamic:wsola.obj
 0002:0001ca8c       $unwind$pjmedia_wsola_generate 00000001400a1a8c     pjmedia-x86_64-x64-vc14-debug-dynamic:wsola.obj
 0002:0001ca94       $unwind$pjmedia_wsola_discard 00000001400a1a94     pjmedia-x86_64-x64-vc14-debug-dynamic:wsola.obj
 0002:0001ca9c       $unwind$pj_bzero           00000001400a1a9c     pjmedia-x86_64-x64-vc14-debug-dynamic:wsola.obj
 0002:0001caa4       $unwind$pj_memcpy          00000001400a1aa4     pjmedia-x86_64-x64-vc14-debug-dynamic:wsola.obj
 0002:0001caac       $unwind$pj_memmove         00000001400a1aac     pjmedia-x86_64-x64-vc14-debug-dynamic:wsola.obj
 0002:0001cab4       $unwind$pjmedia_zero_samples 00000001400a1ab4     pjmedia-x86_64-x64-vc14-debug-dynamic:wsola.obj
 0002:0001cabc       $unwind$pjmedia_copy_samples 00000001400a1abc     pjmedia-x86_64-x64-vc14-debug-dynamic:wsola.obj
 0002:0001cac4       $unwind$pjmedia_move_samples 00000001400a1ac4     pjmedia-x86_64-x64-vc14-debug-dynamic:wsola.obj
 0002:0001cacc       $unwind$pjmedia_circ_buf_create 00000001400a1acc     pjmedia-x86_64-x64-vc14-debug-dynamic:wsola.obj
 0002:0001cad4       $unwind$pjmedia_circ_buf_adv_read_ptr 00000001400a1ad4     pjmedia-x86_64-x64-vc14-debug-dynamic:wsola.obj
 0002:0001cadc       $unwind$pjmedia_circ_buf_write 00000001400a1adc     pjmedia-x86_64-x64-vc14-debug-dynamic:wsola.obj
 0002:0001cae4       $unwind$pjmedia_circ_buf_copy 00000001400a1ae4     pjmedia-x86_64-x64-vc14-debug-dynamic:wsola.obj
 0002:0001caec       $unwind$pjmedia_circ_buf_pack_buffer 00000001400a1aec     pjmedia-x86_64-x64-vc14-debug-dynamic:wsola.obj
 0002:0001caf4       $unwind$find_pitch         00000001400a1af4     pjmedia-x86_64-x64-vc14-debug-dynamic:wsola.obj
 0002:0001cafc       $unwind$overlapp_add       00000001400a1afc     pjmedia-x86_64-x64-vc14-debug-dynamic:wsola.obj
 0002:0001cb04       $unwind$overlapp_add_simple 00000001400a1b04     pjmedia-x86_64-x64-vc14-debug-dynamic:wsola.obj
 0002:0001cb0c       $unwind$create_win         00000001400a1b0c     pjmedia-x86_64-x64-vc14-debug-dynamic:wsola.obj
 0002:0001cb14       $unwind$fade_in            00000001400a1b14     pjmedia-x86_64-x64-vc14-debug-dynamic:wsola.obj
 0002:0001cb1c       $unwind$wsola_fade_out     00000001400a1b1c     pjmedia-x86_64-x64-vc14-debug-dynamic:wsola.obj
 0002:0001cb24       $unwind$expand             00000001400a1b24     pjmedia-x86_64-x64-vc14-debug-dynamic:wsola.obj
 0002:0001cb2c       $unwind$compress           00000001400a1b2c     pjmedia-x86_64-x64-vc14-debug-dynamic:wsola.obj
 0002:0001cb48       $unwind$pj_pool_zalloc     00000001400a1b48     pjmedia-x86_64-x64-vc14-debug-dynamic:wsola.obj
 0002:0001cb50       $unwind$pjmedia_clock_src_init 00000001400a1b50     pjmedia-x86_64-x64-vc14-debug-dynamic:clock_thread.obj
 0002:0001cb58       $unwind$pjmedia_clock_src_update 00000001400a1b58     pjmedia-x86_64-x64-vc14-debug-dynamic:clock_thread.obj
 0002:0001cb60       $unwind$pjmedia_clock_src_get_current_timestamp 00000001400a1b60     pjmedia-x86_64-x64-vc14-debug-dynamic:clock_thread.obj
 0002:0001cb68       $unwind$pjmedia_clock_src_get_time_msec 00000001400a1b68     pjmedia-x86_64-x64-vc14-debug-dynamic:clock_thread.obj
 0002:0001cb70       $unwind$pjmedia_clock_create 00000001400a1b70     pjmedia-x86_64-x64-vc14-debug-dynamic:clock_thread.obj
 0002:0001cb78       $unwind$pjmedia_clock_create2 00000001400a1b78     pjmedia-x86_64-x64-vc14-debug-dynamic:clock_thread.obj
 0002:0001cb80       $unwind$pjmedia_clock_start 00000001400a1b80     pjmedia-x86_64-x64-vc14-debug-dynamic:clock_thread.obj
 0002:0001cb88       $unwind$pjmedia_clock_stop 00000001400a1b88     pjmedia-x86_64-x64-vc14-debug-dynamic:clock_thread.obj
 0002:0001cb90       $unwind$pjmedia_clock_wait 00000001400a1b90     pjmedia-x86_64-x64-vc14-debug-dynamic:clock_thread.obj
 0002:0001cb98       $unwind$pjmedia_clock_destroy 00000001400a1b98     pjmedia-x86_64-x64-vc14-debug-dynamic:clock_thread.obj
 0002:0001cba0       $unwind$pj_memcpy          00000001400a1ba0     pjmedia-x86_64-x64-vc14-debug-dynamic:clock_thread.obj
 0002:0001cba8       $unwind$clock_thread       00000001400a1ba8     pjmedia-x86_64-x64-vc14-debug-dynamic:clock_thread.obj
 0002:0001cbbc       $unwind$pjmedia_echo_stat_default 00000001400a1bbc     pjmedia-x86_64-x64-vc14-debug-dynamic:echo_common.obj
 0002:0001cbc4       $unwind$pjmedia_echo_create 00000001400a1bc4     pjmedia-x86_64-x64-vc14-debug-dynamic:echo_common.obj
 0002:0001cbcc       $unwind$pjmedia_echo_create2 00000001400a1bcc     pjmedia-x86_64-x64-vc14-debug-dynamic:echo_common.obj
 0002:0001cbd4       $unwind$pjmedia_echo_destroy 00000001400a1bd4     pjmedia-x86_64-x64-vc14-debug-dynamic:echo_common.obj
 0002:0001cbdc       $unwind$pjmedia_echo_reset 00000001400a1bdc     pjmedia-x86_64-x64-vc14-debug-dynamic:echo_common.obj
 0002:0001cbe4       $unwind$pjmedia_echo_get_stat 00000001400a1be4     pjmedia-x86_64-x64-vc14-debug-dynamic:echo_common.obj
 0002:0001cbec       $unwind$pjmedia_echo_playback 00000001400a1bec     pjmedia-x86_64-x64-vc14-debug-dynamic:echo_common.obj
 0002:0001cbf4       $unwind$pjmedia_echo_capture 00000001400a1bf4     pjmedia-x86_64-x64-vc14-debug-dynamic:echo_common.obj
 0002:0001cbfc       $unwind$pjmedia_echo_cancel 00000001400a1bfc     pjmedia-x86_64-x64-vc14-debug-dynamic:echo_common.obj
 0002:0001cc04       $unwind$pj_bzero           00000001400a1c04     pjmedia-x86_64-x64-vc14-debug-dynamic:echo_common.obj
 0002:0001cc0c       $unwind$pj_memcpy          00000001400a1c0c     pjmedia-x86_64-x64-vc14-debug-dynamic:echo_common.obj
 0002:0001cc14       $unwind$pjmedia_zero_samples 00000001400a1c14     pjmedia-x86_64-x64-vc14-debug-dynamic:echo_common.obj
 0002:0001cc1c       $unwind$pjmedia_copy_samples 00000001400a1c1c     pjmedia-x86_64-x64-vc14-debug-dynamic:echo_common.obj
 0002:0001cc24       $unwind$pj_list_empty      00000001400a1c24     pjmedia-x86_64-x64-vc14-debug-dynamic:echo_common.obj
 0002:0001cc2c       $unwind$pj_list_push_back  00000001400a1c2c     pjmedia-x86_64-x64-vc14-debug-dynamic:echo_common.obj
 0002:0001cc34       $unwind$pj_pool_zalloc     00000001400a1c34     pjmedia-x86_64-x64-vc14-debug-dynamic:echo_common.obj
 0002:0001cc48       $unwind$pj_bzero           00000001400a1c48     pjmedia-x86_64-x64-vc14-debug-dynamic:transport_srtp.obj
 0002:0001cc50       $unwind$pj_memcpy          00000001400a1c50     pjmedia-x86_64-x64-vc14-debug-dynamic:transport_srtp.obj
 0002:0001cc58       $unwind$pj_memmove         00000001400a1c58     pjmedia-x86_64-x64-vc14-debug-dynamic:transport_srtp.obj
 0002:0001cc60       $unwind$pjmedia_transport_get_info 00000001400a1c60     pjmedia-x86_64-x64-vc14-debug-dynamic:transport_srtp.obj
 0002:0001cc68       $unwind$pjmedia_transport_attach2 00000001400a1c68     pjmedia-x86_64-x64-vc14-debug-dynamic:transport_srtp.obj
 0002:0001cc70       $unwind$pjmedia_transport_detach 00000001400a1c70     pjmedia-x86_64-x64-vc14-debug-dynamic:transport_srtp.obj
 0002:0001cc78       $unwind$pjmedia_transport_send_rtp 00000001400a1c78     pjmedia-x86_64-x64-vc14-debug-dynamic:transport_srtp.obj
 0002:0001cc80       $unwind$pjmedia_transport_send_rtcp2 00000001400a1c80     pjmedia-x86_64-x64-vc14-debug-dynamic:transport_srtp.obj
 0002:0001cc88       $unwind$pjmedia_transport_media_create 00000001400a1c88     pjmedia-x86_64-x64-vc14-debug-dynamic:transport_srtp.obj
 0002:0001cc90       $unwind$pjmedia_transport_encode_sdp 00000001400a1c90     pjmedia-x86_64-x64-vc14-debug-dynamic:transport_srtp.obj
 0002:0001cc98       $unwind$pjmedia_transport_media_start 00000001400a1c98     pjmedia-x86_64-x64-vc14-debug-dynamic:transport_srtp.obj
 0002:0001cca0       $unwind$pjmedia_transport_media_stop 00000001400a1ca0     pjmedia-x86_64-x64-vc14-debug-dynamic:transport_srtp.obj
 0002:0001cca8       $unwind$pjmedia_transport_close 00000001400a1ca8     pjmedia-x86_64-x64-vc14-debug-dynamic:transport_srtp.obj
 0002:0001ccb0       $unwind$pjmedia_transport_simulate_lost 00000001400a1cb0     pjmedia-x86_64-x64-vc14-debug-dynamic:transport_srtp.obj
 0002:0001ccb8       $unwind$pjmedia_srtp_init_lib 00000001400a1cb8     pjmedia-x86_64-x64-vc14-debug-dynamic:transport_srtp.obj
 0002:0001ccc0       $unwind$pjmedia_srtp_setting_default 00000001400a1cc0     pjmedia-x86_64-x64-vc14-debug-dynamic:transport_srtp.obj
 0002:0001ccc8       $unwind$pjmedia_srtp_enum_crypto 00000001400a1cc8     pjmedia-x86_64-x64-vc14-debug-dynamic:transport_srtp.obj
 0002:0001ccd4       $unwind$pjmedia_srtp_enum_keying 00000001400a1cd4     pjmedia-x86_64-x64-vc14-debug-dynamic:transport_srtp.obj
 0002:0001ccdc       $unwind$pjmedia_transport_srtp_create 00000001400a1cdc     pjmedia-x86_64-x64-vc14-debug-dynamic:transport_srtp.obj
 0002:0001cce8       $unwind$pjmedia_transport_srtp_start 00000001400a1ce8     pjmedia-x86_64-x64-vc14-debug-dynamic:transport_srtp.obj
 0002:0001ccfc       $unwind$pjmedia_transport_srtp_stop 00000001400a1cfc     pjmedia-x86_64-x64-vc14-debug-dynamic:transport_srtp.obj
 0002:0001cd04       $unwind$pjmedia_transport_srtp_decrypt_pkt 00000001400a1d04     pjmedia-x86_64-x64-vc14-debug-dynamic:transport_srtp.obj
 0002:0001cd0c       $unwind$pjmedia_transport_srtp_get_member 00000001400a1d0c     pjmedia-x86_64-x64-vc14-debug-dynamic:transport_srtp.obj
 0002:0001cd14       $unwind$pj_pool_zalloc     00000001400a1d14     pjmedia-x86_64-x64-vc14-debug-dynamic:transport_srtp.obj
 0002:0001cd1c       $unwind$pj_isdigit         00000001400a1d1c     pjmedia-x86_64-x64-vc14-debug-dynamic:transport_srtp.obj
 0002:0001cd24       $unwind$srtp_rtp_cb        00000001400a1d24     pjmedia-x86_64-x64-vc14-debug-dynamic:transport_srtp.obj
 0002:0001cd30       $unwind$srtp_rtcp_cb       00000001400a1d30     pjmedia-x86_64-x64-vc14-debug-dynamic:transport_srtp.obj
 0002:0001cd38       $unwind$transport_get_info 00000001400a1d38     pjmedia-x86_64-x64-vc14-debug-dynamic:transport_srtp.obj
 0002:0001cd44       $unwind$transport_detach   00000001400a1d44     pjmedia-x86_64-x64-vc14-debug-dynamic:transport_srtp.obj
 0002:0001cd4c       $unwind$transport_send_rtp 00000001400a1d4c     pjmedia-x86_64-x64-vc14-debug-dynamic:transport_srtp.obj
 0002:0001cd54       $unwind$transport_send_rtcp 00000001400a1d54     pjmedia-x86_64-x64-vc14-debug-dynamic:transport_srtp.obj
 0002:0001cd5c       $unwind$transport_send_rtcp2 00000001400a1d5c     pjmedia-x86_64-x64-vc14-debug-dynamic:transport_srtp.obj
 0002:0001cd64       $unwind$transport_media_create 00000001400a1d64     pjmedia-x86_64-x64-vc14-debug-dynamic:transport_srtp.obj
 0002:0001cd6c       $unwind$transport_encode_sdp 00000001400a1d6c     pjmedia-x86_64-x64-vc14-debug-dynamic:transport_srtp.obj
 0002:0001cd74       $unwind$transport_media_start 00000001400a1d74     pjmedia-x86_64-x64-vc14-debug-dynamic:transport_srtp.obj
 0002:0001cd7c       $unwind$transport_media_stop 00000001400a1d7c     pjmedia-x86_64-x64-vc14-debug-dynamic:transport_srtp.obj
 0002:0001cd84       $unwind$transport_simulate_lost 00000001400a1d84     pjmedia-x86_64-x64-vc14-debug-dynamic:transport_srtp.obj
 0002:0001cd8c       $unwind$transport_destroy  00000001400a1d8c     pjmedia-x86_64-x64-vc14-debug-dynamic:transport_srtp.obj
 0002:0001cd94       $unwind$transport_attach2  00000001400a1d94     pjmedia-x86_64-x64-vc14-debug-dynamic:transport_srtp.obj
 0002:0001cda8       $unwind$get_crypto_idx     00000001400a1da8     pjmedia-x86_64-x64-vc14-debug-dynamic:transport_srtp.obj
 0002:0001cdb0       $unwind$srtp_crypto_empty  00000001400a1db0     pjmedia-x86_64-x64-vc14-debug-dynamic:transport_srtp.obj
 0002:0001cdb8       $unwind$srtp_crypto_cmp    00000001400a1db8     pjmedia-x86_64-x64-vc14-debug-dynamic:transport_srtp.obj
 0002:0001cdc0       $unwind$start_srtp         00000001400a1dc0     pjmedia-x86_64-x64-vc14-debug-dynamic:transport_srtp.obj
 0002:0001cdc8       $unwind$get_libsrtp_errstr 00000001400a1dc8     pjmedia-x86_64-x64-vc14-debug-dynamic:transport_srtp.obj
 0002:0001cdd0       $unwind$sdes_media_create  00000001400a1dd0     pjmedia-x86_64-x64-vc14-debug-dynamic:transport_srtp.obj
 0002:0001cdd8       $unwind$sdes_encode_sdp    00000001400a1dd8     pjmedia-x86_64-x64-vc14-debug-dynamic:transport_srtp.obj
 0002:0001cdec       $unwind$sdes_media_start   00000001400a1dec     pjmedia-x86_64-x64-vc14-debug-dynamic:transport_srtp.obj
 0002:0001ce00       $unwind$sdes_create        00000001400a1e00     pjmedia-x86_64-x64-vc14-debug-dynamic:transport_srtp.obj
 0002:0001ce08       $unwind$generate_crypto_attr_value 00000001400a1e08     pjmedia-x86_64-x64-vc14-debug-dynamic:transport_srtp.obj
 0002:0001ce18       $unwind$parse_attr_crypto  00000001400a1e18     pjmedia-x86_64-x64-vc14-debug-dynamic:transport_srtp.obj
 0002:0001ce24       $unwind$fill_local_crypto  00000001400a1e24     pjmedia-x86_64-x64-vc14-debug-dynamic:transport_srtp.obj
 0002:0001ce30       $unwind$pjmedia_srtp_deinit_lib 00000001400a1e30     pjmedia-x86_64-x64-vc14-debug-dynamic:transport_srtp.obj
 0002:0001ce6c       $unwind$pj_bzero           00000001400a1e6c     pjmedia-x86_64-x64-vc14-debug-dynamic:echo_suppress.obj
 0002:0001ce74       $unwind$pj_pool_zalloc     00000001400a1e74     pjmedia-x86_64-x64-vc14-debug-dynamic:echo_suppress.obj
 0002:0001ce7c       $unwind$echo_supp_create   00000001400a1e7c     pjmedia-x86_64-x64-vc14-debug-dynamic:echo_suppress.obj
 0002:0001ce84       $unwind$echo_supp_get_stat 00000001400a1e84     pjmedia-x86_64-x64-vc14-debug-dynamic:echo_suppress.obj
 0002:0001ce8c       $unwind$echo_supp_reset    00000001400a1e8c     pjmedia-x86_64-x64-vc14-debug-dynamic:echo_suppress.obj
 0002:0001ce94       $unwind$echo_supp_cancel_echo 00000001400a1e94     pjmedia-x86_64-x64-vc14-debug-dynamic:echo_suppress.obj
 0002:0001ce9c       $unwind$echo_supp_soft_reset 00000001400a1e9c     pjmedia-x86_64-x64-vc14-debug-dynamic:echo_suppress.obj
 0002:0001cea4       $unwind$echo_supp_update   00000001400a1ea4     pjmedia-x86_64-x64-vc14-debug-dynamic:echo_suppress.obj
 0002:0001ceac       $unwind$amplify_frame      00000001400a1eac     pjmedia-x86_64-x64-vc14-debug-dynamic:echo_suppress.obj
 0002:0001cebc       $unwind$pj_memcpy          00000001400a1ebc     pjmedia-x86_64-x64-vc14-debug-dynamic:echo_speex.obj
 0002:0001cec4       $unwind$pjmedia_copy_samples 00000001400a1ec4     pjmedia-x86_64-x64-vc14-debug-dynamic:echo_speex.obj
 0002:0001cecc       $unwind$pj_pool_zalloc     00000001400a1ecc     pjmedia-x86_64-x64-vc14-debug-dynamic:echo_speex.obj
 0002:0001ced4       $unwind$speex_aec_create   00000001400a1ed4     pjmedia-x86_64-x64-vc14-debug-dynamic:echo_speex.obj
 0002:0001cedc       $unwind$speex_aec_destroy  00000001400a1edc     pjmedia-x86_64-x64-vc14-debug-dynamic:echo_speex.obj
 0002:0001cee4       $unwind$speex_aec_reset    00000001400a1ee4     pjmedia-x86_64-x64-vc14-debug-dynamic:echo_speex.obj
 0002:0001ceec       $unwind$speex_aec_cancel_echo 00000001400a1eec     pjmedia-x86_64-x64-vc14-debug-dynamic:echo_speex.obj
 0002:0001cef4       $unwind$speex_aec_playback 00000001400a1ef4     pjmedia-x86_64-x64-vc14-debug-dynamic:echo_speex.obj
 0002:0001cefc       $unwind$speex_aec_capture  00000001400a1efc     pjmedia-x86_64-x64-vc14-debug-dynamic:echo_speex.obj
 0002:0001cf0c       $unwind$pjmedia_silence_det_create 00000001400a1f0c     pjmedia-x86_64-x64-vc14-debug-dynamic:silencedet.obj
 0002:0001cf14       $unwind$pjmedia_silence_det_set_name 00000001400a1f14     pjmedia-x86_64-x64-vc14-debug-dynamic:silencedet.obj
 0002:0001cf1c       $unwind$pjmedia_silence_det_set_fixed 00000001400a1f1c     pjmedia-x86_64-x64-vc14-debug-dynamic:silencedet.obj
 0002:0001cf24       $unwind$pjmedia_silence_det_set_adaptive 00000001400a1f24     pjmedia-x86_64-x64-vc14-debug-dynamic:silencedet.obj
 0002:0001cf2c       $unwind$pjmedia_silence_det_set_params 00000001400a1f2c     pjmedia-x86_64-x64-vc14-debug-dynamic:silencedet.obj
 0002:0001cf34       $unwind$pjmedia_silence_det_disable 00000001400a1f34     pjmedia-x86_64-x64-vc14-debug-dynamic:silencedet.obj
 0002:0001cf3c       $unwind$pjmedia_silence_det_detect 00000001400a1f3c     pjmedia-x86_64-x64-vc14-debug-dynamic:silencedet.obj
 0002:0001cf44       $unwind$pjmedia_calc_avg_signal 00000001400a1f44     pjmedia-x86_64-x64-vc14-debug-dynamic:silencedet.obj
 0002:0001cf4c       $unwind$pjmedia_silence_det_apply 00000001400a1f4c     pjmedia-x86_64-x64-vc14-debug-dynamic:silencedet.obj
 0002:0001cf5c       $unwind$pj_pool_zalloc     00000001400a1f5c     pjmedia-x86_64-x64-vc14-debug-dynamic:silencedet.obj
 0002:0001cf64       $unwind$pj_getopt          00000001400a1f64     pjlib-util-x86_64-x64-vc14-debug-dynamic:getopt.obj
 0002:0001cf6c       $unwind$pj_getopt_long     00000001400a1f6c     pjlib-util-x86_64-x64-vc14-debug-dynamic:getopt.obj
 0002:0001cf74       $unwind$_getopt_internal   00000001400a1f74     pjlib-util-x86_64-x64-vc14-debug-dynamic:getopt.obj
 0002:0001cf7c       $unwind$exchange           00000001400a1f7c     pjlib-util-x86_64-x64-vc14-debug-dynamic:getopt.obj
 0002:0001cf88       $unwind$pj_cis_buf_init    00000001400a1f88     pjlib-util-x86_64-x64-vc14-debug-dynamic:scanner.obj
 0002:0001cf90       $unwind$pj_cis_init        00000001400a1f90     pjlib-util-x86_64-x64-vc14-debug-dynamic:scanner.obj
 0002:0001cf98       $unwind$pj_cis_dup         00000001400a1f98     pjlib-util-x86_64-x64-vc14-debug-dynamic:scanner.obj
 0002:0001cfa0       $unwind$pj_cis_add_range   00000001400a1fa0     pjlib-util-x86_64-x64-vc14-debug-dynamic:scanner.obj
 0002:0001cfa8       $unwind$pj_cis_add_alpha   00000001400a1fa8     pjlib-util-x86_64-x64-vc14-debug-dynamic:scanner.obj
 0002:0001cfb0       $unwind$pj_cis_add_num     00000001400a1fb0     pjlib-util-x86_64-x64-vc14-debug-dynamic:scanner.obj
 0002:0001cfb8       $unwind$pj_cis_add_str     00000001400a1fb8     pjlib-util-x86_64-x64-vc14-debug-dynamic:scanner.obj
 0002:0001cfc0       $unwind$pj_cis_add_cis     00000001400a1fc0     pjlib-util-x86_64-x64-vc14-debug-dynamic:scanner.obj
 0002:0001cfc8       $unwind$pj_cis_del_range   00000001400a1fc8     pjlib-util-x86_64-x64-vc14-debug-dynamic:scanner.obj
 0002:0001cfd0       $unwind$pj_cis_del_str     00000001400a1fd0     pjlib-util-x86_64-x64-vc14-debug-dynamic:scanner.obj
 0002:0001cfd8       $unwind$pj_cis_invert      00000001400a1fd8     pjlib-util-x86_64-x64-vc14-debug-dynamic:scanner.obj
 0002:0001cfe0       $unwind$pj_scan_init       00000001400a1fe0     pjlib-util-x86_64-x64-vc14-debug-dynamic:scanner.obj
 0002:0001cfe8       $unwind$pj_scan_fini       00000001400a1fe8     pjlib-util-x86_64-x64-vc14-debug-dynamic:scanner.obj
 0002:0001cff0       $unwind$pj_scan_peek       00000001400a1ff0     pjlib-util-x86_64-x64-vc14-debug-dynamic:scanner.obj
 0002:0001cff8       $unwind$pj_scan_peek_n     00000001400a1ff8     pjlib-util-x86_64-x64-vc14-debug-dynamic:scanner.obj
 0002:0001d000       $unwind$pj_scan_peek_until 00000001400a2000     pjlib-util-x86_64-x64-vc14-debug-dynamic:scanner.obj
 0002:0001d008       $unwind$pj_scan_get        00000001400a2008     pjlib-util-x86_64-x64-vc14-debug-dynamic:scanner.obj
 0002:0001d010       $unwind$pj_scan_get_unescape 00000001400a2010     pjlib-util-x86_64-x64-vc14-debug-dynamic:scanner.obj
 0002:0001d018       $unwind$pj_scan_get_quote  00000001400a2018     pjlib-util-x86_64-x64-vc14-debug-dynamic:scanner.obj
 0002:0001d020       $unwind$pj_scan_get_quotes 00000001400a2020     pjlib-util-x86_64-x64-vc14-debug-dynamic:scanner.obj
 0002:0001d028       $unwind$pj_scan_get_n      00000001400a2028     pjlib-util-x86_64-x64-vc14-debug-dynamic:scanner.obj
 0002:0001d030       $unwind$pj_scan_get_char   00000001400a2030     pjlib-util-x86_64-x64-vc14-debug-dynamic:scanner.obj
 0002:0001d038       $unwind$pj_scan_get_until  00000001400a2038     pjlib-util-x86_64-x64-vc14-debug-dynamic:scanner.obj
 0002:0001d040       $unwind$pj_scan_get_until_ch 00000001400a2040     pjlib-util-x86_64-x64-vc14-debug-dynamic:scanner.obj
 0002:0001d048       $unwind$pj_scan_get_until_chr 00000001400a2048     pjlib-util-x86_64-x64-vc14-debug-dynamic:scanner.obj
 0002:0001d050       $unwind$pj_scan_advance_n  00000001400a2050     pjlib-util-x86_64-x64-vc14-debug-dynamic:scanner.obj
 0002:0001d058       $unwind$pj_scan_strcmp     00000001400a2058     pjlib-util-x86_64-x64-vc14-debug-dynamic:scanner.obj
 0002:0001d060       $unwind$pj_scan_stricmp    00000001400a2060     pjlib-util-x86_64-x64-vc14-debug-dynamic:scanner.obj
 0002:0001d068       $unwind$pj_scan_stricmp_alnum 00000001400a2068     pjlib-util-x86_64-x64-vc14-debug-dynamic:scanner.obj
 0002:0001d070       $unwind$pj_scan_get_newline 00000001400a2070     pjlib-util-x86_64-x64-vc14-debug-dynamic:scanner.obj
 0002:0001d078       $unwind$pj_scan_skip_whitespace 00000001400a2078     pjlib-util-x86_64-x64-vc14-debug-dynamic:scanner.obj
 0002:0001d080       $unwind$pj_scan_skip_line  00000001400a2080     pjlib-util-x86_64-x64-vc14-debug-dynamic:scanner.obj
 0002:0001d088       $unwind$pj_isxdigit        00000001400a2088     pjlib-util-x86_64-x64-vc14-debug-dynamic:scanner.obj
 0002:0001d090       $unwind$pj_bzero           00000001400a2090     pjlib-util-x86_64-x64-vc14-debug-dynamic:scanner.obj
 0002:0001d098       $unwind$pj_memmove         00000001400a2098     pjlib-util-x86_64-x64-vc14-debug-dynamic:scanner.obj
 0002:0001d0a0       $unwind$pj_scan_syntax_err 00000001400a20a0     pjlib-util-x86_64-x64-vc14-debug-dynamic:scanner.obj
 0002:0001d0c4       $unwind$pj_cis_match       00000001400a20c4     pjlib-util-x86_64-x64-vc14-debug-dynamic:scanner.obj
 0002:0001d0cc       $unwind$pj_base64_encode   00000001400a20cc     pjlib-util-x86_64-x64-vc14-debug-dynamic:base64.obj
 0002:0001d0d4       $unwind$pj_base64_decode   00000001400a20d4     pjlib-util-x86_64-x64-vc14-debug-dynamic:base64.obj
 0002:0001d0e4       $unwind$base256to64        00000001400a20e4     pjlib-util-x86_64-x64-vc14-debug-dynamic:base64.obj
 0002:0001d0f0       $unwind$pj_init            00000001400a20f0     pjlib-x86_64-x64-vc14-debug-dynamic:os_core_win32.obj
 0002:0001d100       $unwind$pj_shutdown        00000001400a2100     pjlib-x86_64-x64-vc14-debug-dynamic:os_core_win32.obj
 0002:0001d108       $unwind$pj_getpid          00000001400a2108     pjlib-x86_64-x64-vc14-debug-dynamic:os_core_win32.obj
 0002:0001d110       $unwind$pj_thread_create   00000001400a2110     pjlib-x86_64-x64-vc14-debug-dynamic:os_core_win32.obj
 0002:0001d118       $unwind$pj_thread_register 00000001400a2118     pjlib-x86_64-x64-vc14-debug-dynamic:os_core_win32.obj
 0002:0001d124       $unwind$pj_thread_is_registered 00000001400a2124     pjlib-x86_64-x64-vc14-debug-dynamic:os_core_win32.obj
 0002:0001d12c       $unwind$pj_thread_get_prio 00000001400a212c     pjlib-x86_64-x64-vc14-debug-dynamic:os_core_win32.obj
 0002:0001d134       $unwind$pj_thread_set_prio 00000001400a2134     pjlib-x86_64-x64-vc14-debug-dynamic:os_core_win32.obj
 0002:0001d13c       $unwind$pj_thread_get_os_handle 00000001400a213c     pjlib-x86_64-x64-vc14-debug-dynamic:os_core_win32.obj
 0002:0001d144       $unwind$pj_thread_get_name 00000001400a2144     pjlib-x86_64-x64-vc14-debug-dynamic:os_core_win32.obj
 0002:0001d14c       $unwind$pj_thread_resume   00000001400a214c     pjlib-x86_64-x64-vc14-debug-dynamic:os_core_win32.obj
 0002:0001d154       $unwind$pj_thread_this     00000001400a2154     pjlib-x86_64-x64-vc14-debug-dynamic:os_core_win32.obj
 0002:0001d15c       $unwind$pj_thread_join     00000001400a215c     pjlib-x86_64-x64-vc14-debug-dynamic:os_core_win32.obj
 0002:0001d164       $unwind$pj_thread_destroy  00000001400a2164     pjlib-x86_64-x64-vc14-debug-dynamic:os_core_win32.obj
 0002:0001d16c       $unwind$pj_thread_sleep    00000001400a216c     pjlib-x86_64-x64-vc14-debug-dynamic:os_core_win32.obj
 0002:0001d174       $unwind$pj_thread_check_stack 00000001400a2174     pjlib-x86_64-x64-vc14-debug-dynamic:os_core_win32.obj
 0002:0001d17c       $unwind$pj_thread_get_stack_info 00000001400a217c     pjlib-x86_64-x64-vc14-debug-dynamic:os_core_win32.obj
 0002:0001d184       $unwind$pj_thread_local_alloc 00000001400a2184     pjlib-x86_64-x64-vc14-debug-dynamic:os_core_win32.obj
 0002:0001d18c       $unwind$pj_thread_local_free 00000001400a218c     pjlib-x86_64-x64-vc14-debug-dynamic:os_core_win32.obj
 0002:0001d194       $unwind$pj_thread_local_set 00000001400a2194     pjlib-x86_64-x64-vc14-debug-dynamic:os_core_win32.obj
 0002:0001d19c       $unwind$pj_thread_local_get 00000001400a219c     pjlib-x86_64-x64-vc14-debug-dynamic:os_core_win32.obj
 0002:0001d1a4       $unwind$pj_atomic_create   00000001400a21a4     pjlib-x86_64-x64-vc14-debug-dynamic:os_core_win32.obj
 0002:0001d1ac       $unwind$pj_atomic_destroy  00000001400a21ac     pjlib-x86_64-x64-vc14-debug-dynamic:os_core_win32.obj
 0002:0001d1b4       $unwind$pj_atomic_set      00000001400a21b4     pjlib-x86_64-x64-vc14-debug-dynamic:os_core_win32.obj
 0002:0001d1bc       $unwind$pj_atomic_get      00000001400a21bc     pjlib-x86_64-x64-vc14-debug-dynamic:os_core_win32.obj
 0002:0001d1c4       $unwind$pj_atomic_inc      00000001400a21c4     pjlib-x86_64-x64-vc14-debug-dynamic:os_core_win32.obj
 0002:0001d1cc       $unwind$pj_atomic_inc_and_get 00000001400a21cc     pjlib-x86_64-x64-vc14-debug-dynamic:os_core_win32.obj
 0002:0001d1d4       $unwind$pj_atomic_dec      00000001400a21d4     pjlib-x86_64-x64-vc14-debug-dynamic:os_core_win32.obj
 0002:0001d1dc       $unwind$pj_atomic_dec_and_get 00000001400a21dc     pjlib-x86_64-x64-vc14-debug-dynamic:os_core_win32.obj
 0002:0001d1e4       $unwind$pj_atomic_add      00000001400a21e4     pjlib-x86_64-x64-vc14-debug-dynamic:os_core_win32.obj
 0002:0001d1ec       $unwind$pj_atomic_add_and_get 00000001400a21ec     pjlib-x86_64-x64-vc14-debug-dynamic:os_core_win32.obj
 0002:0001d1f4       $unwind$pj_mutex_create    00000001400a21f4     pjlib-x86_64-x64-vc14-debug-dynamic:os_core_win32.obj
 0002:0001d1fc       $unwind$pj_mutex_create_simple 00000001400a21fc     pjlib-x86_64-x64-vc14-debug-dynamic:os_core_win32.obj
 0002:0001d204       $unwind$pj_mutex_create_recursive 00000001400a2204     pjlib-x86_64-x64-vc14-debug-dynamic:os_core_win32.obj
 0002:0001d20c       $unwind$pj_mutex_lock      00000001400a220c     pjlib-x86_64-x64-vc14-debug-dynamic:os_core_win32.obj
 0002:0001d214       $unwind$pj_mutex_unlock    00000001400a2214     pjlib-x86_64-x64-vc14-debug-dynamic:os_core_win32.obj
 0002:0001d21c       $unwind$pj_mutex_trylock   00000001400a221c     pjlib-x86_64-x64-vc14-debug-dynamic:os_core_win32.obj
 0002:0001d224       $unwind$pj_mutex_destroy   00000001400a2224     pjlib-x86_64-x64-vc14-debug-dynamic:os_core_win32.obj
 0002:0001d22c       $unwind$pj_mutex_is_locked 00000001400a222c     pjlib-x86_64-x64-vc14-debug-dynamic:os_core_win32.obj
 0002:0001d234       $unwind$pj_rwmutex_create  00000001400a2234     pjlib-x86_64-x64-vc14-debug-dynamic:os_core_win32.obj
 0002:0001d23c       $unwind$pj_rwmutex_lock_read 00000001400a223c     pjlib-x86_64-x64-vc14-debug-dynamic:os_core_win32.obj
 0002:0001d244       $unwind$pj_rwmutex_lock_write 00000001400a2244     pjlib-x86_64-x64-vc14-debug-dynamic:os_core_win32.obj
 0002:0001d24c       $unwind$pj_rwmutex_unlock_read 00000001400a224c     pjlib-x86_64-x64-vc14-debug-dynamic:os_core_win32.obj
 0002:0001d254       $unwind$pj_rwmutex_unlock_write 00000001400a2254     pjlib-x86_64-x64-vc14-debug-dynamic:os_core_win32.obj
 0002:0001d25c       $unwind$pj_rwmutex_destroy 00000001400a225c     pjlib-x86_64-x64-vc14-debug-dynamic:os_core_win32.obj
 0002:0001d264       $unwind$pj_enter_critical_section 00000001400a2264     pjlib-x86_64-x64-vc14-debug-dynamic:os_core_win32.obj
 0002:0001d26c       $unwind$pj_leave_critical_section 00000001400a226c     pjlib-x86_64-x64-vc14-debug-dynamic:os_core_win32.obj
 0002:0001d274       $unwind$pj_sem_create      00000001400a2274     pjlib-x86_64-x64-vc14-debug-dynamic:os_core_win32.obj
 0002:0001d27c       $unwind$pj_sem_wait        00000001400a227c     pjlib-x86_64-x64-vc14-debug-dynamic:os_core_win32.obj
 0002:0001d284       $unwind$pj_sem_trywait     00000001400a2284     pjlib-x86_64-x64-vc14-debug-dynamic:os_core_win32.obj
 0002:0001d28c       $unwind$pj_sem_post        00000001400a228c     pjlib-x86_64-x64-vc14-debug-dynamic:os_core_win32.obj
 0002:0001d294       $unwind$pj_sem_destroy     00000001400a2294     pjlib-x86_64-x64-vc14-debug-dynamic:os_core_win32.obj
 0002:0001d29c       $unwind$pj_event_create    00000001400a229c     pjlib-x86_64-x64-vc14-debug-dynamic:os_core_win32.obj
 0002:0001d2a4       $unwind$pj_event_wait      00000001400a22a4     pjlib-x86_64-x64-vc14-debug-dynamic:os_core_win32.obj
 0002:0001d2ac       $unwind$pj_event_trywait   00000001400a22ac     pjlib-x86_64-x64-vc14-debug-dynamic:os_core_win32.obj
 0002:0001d2b4       $unwind$pj_event_set       00000001400a22b4     pjlib-x86_64-x64-vc14-debug-dynamic:os_core_win32.obj
 0002:0001d2bc       $unwind$pj_event_pulse     00000001400a22bc     pjlib-x86_64-x64-vc14-debug-dynamic:os_core_win32.obj
 0002:0001d2c4       $unwind$pj_event_reset     00000001400a22c4     pjlib-x86_64-x64-vc14-debug-dynamic:os_core_win32.obj
 0002:0001d2cc       $unwind$pj_event_destroy   00000001400a22cc     pjlib-x86_64-x64-vc14-debug-dynamic:os_core_win32.obj
 0002:0001d2d4       $unwind$pj_term_set_color  00000001400a22d4     pjlib-x86_64-x64-vc14-debug-dynamic:os_core_win32.obj
 0002:0001d2dc       $unwind$pj_term_get_color  00000001400a22dc     pjlib-x86_64-x64-vc14-debug-dynamic:os_core_win32.obj
 0002:0001d2ec       $unwind$pj_run_app         00000001400a22ec     pjlib-x86_64-x64-vc14-debug-dynamic:os_core_win32.obj
 0002:0001d2f4       $unwind$pj_thread_init     00000001400a22f4     pjlib-x86_64-x64-vc14-debug-dynamic:os_core_win32.obj
 0002:0001d2fc       $unwind$pj_bzero           00000001400a22fc     pjlib-x86_64-x64-vc14-debug-dynamic:os_core_win32.obj
 0002:0001d304       $unwind$init_mutex         00000001400a2304     pjlib-x86_64-x64-vc14-debug-dynamic:os_core_win32.obj
 0002:0001d30c       $unwind$thread_main        00000001400a230c     pjlib-x86_64-x64-vc14-debug-dynamic:os_core_win32.obj
 0002:0001d314       $unwind$pj_sem_wait_for    00000001400a2314     pjlib-x86_64-x64-vc14-debug-dynamic:os_core_win32.obj
 0002:0001d31c       $unwind$pj_event_wait_for  00000001400a231c     pjlib-x86_64-x64-vc14-debug-dynamic:os_core_win32.obj
 0002:0001d324       $unwind$pj_color_to_os_attr 00000001400a2324     pjlib-x86_64-x64-vc14-debug-dynamic:os_core_win32.obj
 0002:0001d32c       $unwind$os_attr_to_pj_color 00000001400a232c     pjlib-x86_64-x64-vc14-debug-dynamic:os_core_win32.obj
 0002:0001d370       $unwind$pj_pool_create     00000001400a2370     pjlib-x86_64-x64-vc14-debug-dynamic:pool.obj
 0002:0001d378       $unwind$pj_pool_release    00000001400a2378     pjlib-x86_64-x64-vc14-debug-dynamic:pool.obj
 0002:0001d380       $unwind$pj_pool_safe_release 00000001400a2380     pjlib-x86_64-x64-vc14-debug-dynamic:pool.obj
 0002:0001d388       $unwind$pj_pool_secure_release 00000001400a2388     pjlib-x86_64-x64-vc14-debug-dynamic:pool.obj
 0002:0001d390       $unwind$pj_pool_reset      00000001400a2390     pjlib-x86_64-x64-vc14-debug-dynamic:pool.obj
 0002:0001d398       $unwind$pj_pool_get_used_size 00000001400a2398     pjlib-x86_64-x64-vc14-debug-dynamic:pool.obj
 0002:0001d3a0       $unwind$pj_pool_alloc      00000001400a23a0     pjlib-x86_64-x64-vc14-debug-dynamic:pool.obj
 0002:0001d3a8       $unwind$pj_pool_calloc     00000001400a23a8     pjlib-x86_64-x64-vc14-debug-dynamic:pool.obj
 0002:0001d3b0       $unwind$pj_pool_alloc_from_block 00000001400a23b0     pjlib-x86_64-x64-vc14-debug-dynamic:pool.obj
 0002:0001d3b8       $unwind$pj_pool_allocate_find 00000001400a23b8     pjlib-x86_64-x64-vc14-debug-dynamic:pool.obj
 0002:0001d3c0       $unwind$pj_pool_create_int 00000001400a23c0     pjlib-x86_64-x64-vc14-debug-dynamic:pool.obj
 0002:0001d3c8       $unwind$pj_pool_init_int   00000001400a23c8     pjlib-x86_64-x64-vc14-debug-dynamic:pool.obj
 0002:0001d3d0       $unwind$pj_pool_destroy_int 00000001400a23d0     pjlib-x86_64-x64-vc14-debug-dynamic:pool.obj
 0002:0001d3d8       $unwind$pj_bzero           00000001400a23d8     pjlib-x86_64-x64-vc14-debug-dynamic:pool.obj
 0002:0001d3e0       $unwind$pj_pool_create_block 00000001400a23e0     pjlib-x86_64-x64-vc14-debug-dynamic:pool.obj
 0002:0001d3e8       $unwind$reset_pool         00000001400a23e8     pjlib-x86_64-x64-vc14-debug-dynamic:pool.obj
 0002:0001d3fc       $unwind$pj_list_empty      00000001400a23fc     pjlib-x86_64-x64-vc14-debug-dynamic:pool_caching.obj
 0002:0001d404       $unwind$pj_caching_pool_init 00000001400a2404     pjlib-x86_64-x64-vc14-debug-dynamic:pool_caching.obj
 0002:0001d40c       $unwind$pj_caching_pool_destroy 00000001400a240c     pjlib-x86_64-x64-vc14-debug-dynamic:pool_caching.obj
 0002:0001d414       $unwind$pj_bzero           00000001400a2414     pjlib-x86_64-x64-vc14-debug-dynamic:pool_caching.obj
 0002:0001d41c       $unwind$pj_memcpy          00000001400a241c     pjlib-x86_64-x64-vc14-debug-dynamic:pool_caching.obj
 0002:0001d424       $unwind$cpool_create_pool  00000001400a2424     pjlib-x86_64-x64-vc14-debug-dynamic:pool_caching.obj
 0002:0001d42c       $unwind$cpool_release_pool 00000001400a242c     pjlib-x86_64-x64-vc14-debug-dynamic:pool_caching.obj
 0002:0001d434       $unwind$cpool_dump_status  00000001400a2434     pjlib-x86_64-x64-vc14-debug-dynamic:pool_caching.obj
 0002:0001d43c       $unwind$cpool_on_block_alloc 00000001400a243c     pjlib-x86_64-x64-vc14-debug-dynamic:pool_caching.obj
 0002:0001d444       $unwind$cpool_on_block_free 00000001400a2444     pjlib-x86_64-x64-vc14-debug-dynamic:pool_caching.obj
 0002:0001d454       $unwind$pj_strerror        00000001400a2454     pjlib-x86_64-x64-vc14-debug-dynamic:errno.obj
 0002:0001d460       $unwind$pj_perror          00000001400a2460     pjlib-x86_64-x64-vc14-debug-dynamic:errno.obj
 0002:0001d468       $unwind$pj_register_strerror 00000001400a2468     pjlib-x86_64-x64-vc14-debug-dynamic:errno.obj
 0002:0001d470       $unwind$pj_errno_clear_handlers 00000001400a2470     pjlib-x86_64-x64-vc14-debug-dynamic:errno.obj
 0002:0001d478       $unwind$pj_perror_1        00000001400a2478     pjlib-x86_64-x64-vc14-debug-dynamic:errno.obj
 0002:0001d480       $unwind$pj_perror_2        00000001400a2480     pjlib-x86_64-x64-vc14-debug-dynamic:errno.obj
 0002:0001d488       $unwind$pj_perror_3        00000001400a2488     pjlib-x86_64-x64-vc14-debug-dynamic:errno.obj
 0002:0001d490       $unwind$pj_perror_4        00000001400a2490     pjlib-x86_64-x64-vc14-debug-dynamic:errno.obj
 0002:0001d498       $unwind$pj_perror_5        00000001400a2498     pjlib-x86_64-x64-vc14-debug-dynamic:errno.obj
 0002:0001d4a0       $unwind$pj_bzero           00000001400a24a0     pjlib-x86_64-x64-vc14-debug-dynamic:errno.obj
 0002:0001d4a8       $unwind$pj_memcpy          00000001400a24a8     pjlib-x86_64-x64-vc14-debug-dynamic:errno.obj
 0002:0001d4b0       $unwind$pjlib_error        00000001400a24b0     pjlib-x86_64-x64-vc14-debug-dynamic:errno.obj
 0002:0001d4b8       $unwind$invoke_log         00000001400a24b8     pjlib-x86_64-x64-vc14-debug-dynamic:errno.obj
 0002:0001d4c0       $unwind$pj_perror_imp      00000001400a24c0     pjlib-x86_64-x64-vc14-debug-dynamic:errno.obj
 0002:0001d4dc       $unwind$pj_log             00000001400a24dc     pjlib-x86_64-x64-vc14-debug-dynamic:log.obj
 0002:0001d4ec       $unwind$pj_log_add_indent  00000001400a24ec     pjlib-x86_64-x64-vc14-debug-dynamic:log.obj
 0002:0001d4f4       $unwind$pj_log_push_indent 00000001400a24f4     pjlib-x86_64-x64-vc14-debug-dynamic:log.obj
 0002:0001d4fc       $unwind$pj_log_pop_indent  00000001400a24fc     pjlib-x86_64-x64-vc14-debug-dynamic:log.obj
 0002:0001d504       $unwind$pj_log_set_color   00000001400a2504     pjlib-x86_64-x64-vc14-debug-dynamic:log.obj
 0002:0001d50c       $unwind$pj_log_get_color   00000001400a250c     pjlib-x86_64-x64-vc14-debug-dynamic:log.obj
 0002:0001d514       $unwind$pj_log_init        00000001400a2514     pjlib-x86_64-x64-vc14-debug-dynamic:log.obj
 0002:0001d51c       $unwind$pj_log_1           00000001400a251c     pjlib-x86_64-x64-vc14-debug-dynamic:log.obj
 0002:0001d524       $unwind$pj_log_2           00000001400a2524     pjlib-x86_64-x64-vc14-debug-dynamic:log.obj
 0002:0001d52c       $unwind$pj_log_3           00000001400a252c     pjlib-x86_64-x64-vc14-debug-dynamic:log.obj
 0002:0001d534       $unwind$pj_log_4           00000001400a2534     pjlib-x86_64-x64-vc14-debug-dynamic:log.obj
 0002:0001d53c       $unwind$pj_log_5           00000001400a253c     pjlib-x86_64-x64-vc14-debug-dynamic:log.obj
 0002:0001d544       $unwind$pj_memset          00000001400a2544     pjlib-x86_64-x64-vc14-debug-dynamic:log.obj
 0002:0001d54c       $unwind$logging_shutdown   00000001400a254c     pjlib-x86_64-x64-vc14-debug-dynamic:log.obj
 0002:0001d554       $unwind$log_set_indent     00000001400a2554     pjlib-x86_64-x64-vc14-debug-dynamic:log.obj
 0002:0001d55c       $unwind$log_get_raw_indent 00000001400a255c     pjlib-x86_64-x64-vc14-debug-dynamic:log.obj
 0002:0001d564       $unwind$log_get_indent     00000001400a2564     pjlib-x86_64-x64-vc14-debug-dynamic:log.obj
 0002:0001d56c       $unwind$suspend_logging    00000001400a256c     pjlib-x86_64-x64-vc14-debug-dynamic:log.obj
 0002:0001d574       $unwind$resume_logging     00000001400a2574     pjlib-x86_64-x64-vc14-debug-dynamic:log.obj
 0002:0001d57c       $unwind$is_logging_suspended 00000001400a257c     pjlib-x86_64-x64-vc14-debug-dynamic:log.obj
 0002:0001d594       $unwind$default_block_alloc 00000001400a2594     pjlib-x86_64-x64-vc14-debug-dynamic:pool_policy_malloc.obj
 0002:0001d59c       $unwind$default_block_free 00000001400a259c     pjlib-x86_64-x64-vc14-debug-dynamic:pool_policy_malloc.obj
 0002:0001d5a4       $unwind$default_pool_callback 00000001400a25a4     pjlib-x86_64-x64-vc14-debug-dynamic:pool_policy_malloc.obj
 0002:0001d5b0       $unwind$pj_str             00000001400a25b0     pjlib-x86_64-x64-vc14-debug-dynamic:string.obj
 0002:0001d5bc       $unwind$pj_strcpy          00000001400a25bc     pjlib-x86_64-x64-vc14-debug-dynamic:string.obj
 0002:0001d5c4       $unwind$pj_strcpy2         00000001400a25c4     pjlib-x86_64-x64-vc14-debug-dynamic:string.obj
 0002:0001d5cc       $unwind$pj_strncpy         00000001400a25cc     pjlib-x86_64-x64-vc14-debug-dynamic:string.obj
 0002:0001d5d4       $unwind$pj_strncpy_with_null 00000001400a25d4     pjlib-x86_64-x64-vc14-debug-dynamic:string.obj
 0002:0001d5dc       $unwind$pj_strdup          00000001400a25dc     pjlib-x86_64-x64-vc14-debug-dynamic:string.obj
 0002:0001d5e4       $unwind$pj_strdup_with_null 00000001400a25e4     pjlib-x86_64-x64-vc14-debug-dynamic:string.obj
 0002:0001d5ec       $unwind$pj_strdup2         00000001400a25ec     pjlib-x86_64-x64-vc14-debug-dynamic:string.obj
 0002:0001d5f4       $unwind$pj_strdup2_with_null 00000001400a25f4     pjlib-x86_64-x64-vc14-debug-dynamic:string.obj
 0002:0001d5fc       $unwind$pj_strdup3         00000001400a25fc     pjlib-x86_64-x64-vc14-debug-dynamic:string.obj
 0002:0001d608       $unwind$pj_strcmp          00000001400a2608     pjlib-x86_64-x64-vc14-debug-dynamic:string.obj
 0002:0001d610       $unwind$pj_strcmp2         00000001400a2610     pjlib-x86_64-x64-vc14-debug-dynamic:string.obj
 0002:0001d618       $unwind$pj_strncmp         00000001400a2618     pjlib-x86_64-x64-vc14-debug-dynamic:string.obj
 0002:0001d620       $unwind$pj_strncmp2        00000001400a2620     pjlib-x86_64-x64-vc14-debug-dynamic:string.obj
 0002:0001d628       $unwind$pj_stricmp         00000001400a2628     pjlib-x86_64-x64-vc14-debug-dynamic:string.obj
 0002:0001d630       $unwind$pj_stricmp2        00000001400a2630     pjlib-x86_64-x64-vc14-debug-dynamic:string.obj
 0002:0001d638       $unwind$pj_strnicmp        00000001400a2638     pjlib-x86_64-x64-vc14-debug-dynamic:string.obj
 0002:0001d640       $unwind$pj_strnicmp2       00000001400a2640     pjlib-x86_64-x64-vc14-debug-dynamic:string.obj
 0002:0001d648       $unwind$pj_strcat          00000001400a2648     pjlib-x86_64-x64-vc14-debug-dynamic:string.obj
 0002:0001d650       $unwind$pj_strcat2         00000001400a2650     pjlib-x86_64-x64-vc14-debug-dynamic:string.obj
 0002:0001d658       $unwind$pj_strspn          00000001400a2658     pjlib-x86_64-x64-vc14-debug-dynamic:string.obj
 0002:0001d660       $unwind$pj_strspn2         00000001400a2660     pjlib-x86_64-x64-vc14-debug-dynamic:string.obj
 0002:0001d668       $unwind$pj_strcspn         00000001400a2668     pjlib-x86_64-x64-vc14-debug-dynamic:string.obj
 0002:0001d670       $unwind$pj_strcspn2        00000001400a2670     pjlib-x86_64-x64-vc14-debug-dynamic:string.obj
 0002:0001d678       $unwind$pj_strtok          00000001400a2678     pjlib-x86_64-x64-vc14-debug-dynamic:string.obj
 0002:0001d680       $unwind$pj_strtok2         00000001400a2680     pjlib-x86_64-x64-vc14-debug-dynamic:string.obj
 0002:0001d688       $unwind$pj_strstr          00000001400a2688     pjlib-x86_64-x64-vc14-debug-dynamic:string.obj
 0002:0001d690       $unwind$pj_stristr         00000001400a2690     pjlib-x86_64-x64-vc14-debug-dynamic:string.obj
 0002:0001d698       $unwind$pj_strltrim        00000001400a2698     pjlib-x86_64-x64-vc14-debug-dynamic:string.obj
 0002:0001d6a0       $unwind$pj_strrtrim        00000001400a26a0     pjlib-x86_64-x64-vc14-debug-dynamic:string.obj
 0002:0001d6a8       $unwind$pj_strtrim         00000001400a26a8     pjlib-x86_64-x64-vc14-debug-dynamic:string.obj
 0002:0001d6b0       $unwind$pj_create_random_string 00000001400a26b0     pjlib-x86_64-x64-vc14-debug-dynamic:string.obj
 0002:0001d6b8       $unwind$pj_strtol          00000001400a26b8     pjlib-x86_64-x64-vc14-debug-dynamic:string.obj
 0002:0001d6c0       $unwind$pj_strtol2         00000001400a26c0     pjlib-x86_64-x64-vc14-debug-dynamic:string.obj
 0002:0001d6cc       $unwind$pj_strtoul         00000001400a26cc     pjlib-x86_64-x64-vc14-debug-dynamic:string.obj
 0002:0001d6d4       $unwind$pj_strtoul2        00000001400a26d4     pjlib-x86_64-x64-vc14-debug-dynamic:string.obj
 0002:0001d6dc       $unwind$pj_strtoul3        00000001400a26dc     pjlib-x86_64-x64-vc14-debug-dynamic:string.obj
 0002:0001d6e8       $unwind$pj_strtof          00000001400a26e8     pjlib-x86_64-x64-vc14-debug-dynamic:string.obj
 0002:0001d6f0       $unwind$pj_utoa            00000001400a26f0     pjlib-x86_64-x64-vc14-debug-dynamic:string.obj
 0002:0001d6f8       $unwind$pj_utoa_pad        00000001400a26f8     pjlib-x86_64-x64-vc14-debug-dynamic:string.obj
 0002:0001d700       $unwind$pj_memcpy          00000001400a2700     pjlib-x86_64-x64-vc14-debug-dynamic:string.obj
 0002:0001d708       $unwind$pj_memcmp          00000001400a2708     pjlib-x86_64-x64-vc14-debug-dynamic:string.obj
 0002:0001d710       $unwind$pj_memchr          00000001400a2710     pjlib-x86_64-x64-vc14-debug-dynamic:string.obj
 0002:0001d718       $unwind$pj_isdigit         00000001400a2718     pjlib-x86_64-x64-vc14-debug-dynamic:string.obj
 0002:0001d720       $unwind$pj_isspace         00000001400a2720     pjlib-x86_64-x64-vc14-debug-dynamic:string.obj
 0002:0001d728       $unwind$pj_isxdigit        00000001400a2728     pjlib-x86_64-x64-vc14-debug-dynamic:string.obj
 0002:0001d758       $unwind$pj_get_os_error    00000001400a2758     pjlib-x86_64-x64-vc14-debug-dynamic:os_error_win32.obj
 0002:0001d760       $unwind$pj_set_os_error    00000001400a2760     pjlib-x86_64-x64-vc14-debug-dynamic:os_error_win32.obj
 0002:0001d768       $unwind$pj_get_netos_error 00000001400a2768     pjlib-x86_64-x64-vc14-debug-dynamic:os_error_win32.obj
 0002:0001d770       $unwind$pj_set_netos_error 00000001400a2770     pjlib-x86_64-x64-vc14-debug-dynamic:os_error_win32.obj
 0002:0001d778       $unwind$pj_memcpy          00000001400a2778     pjlib-x86_64-x64-vc14-debug-dynamic:os_error_win32.obj
 0002:0001d780       $unwind$platform_strerror  00000001400a2780     pjlib-x86_64-x64-vc14-debug-dynamic:os_error_win32.obj
 0002:0001d78c       $unwind$pj_array_insert    00000001400a278c     pjlib-x86_64-x64-vc14-debug-dynamic:array.obj
 0002:0001d794       $unwind$pj_array_erase     00000001400a2794     pjlib-x86_64-x64-vc14-debug-dynamic:array.obj
 0002:0001d79c       $unwind$pj_array_find      00000001400a279c     pjlib-x86_64-x64-vc14-debug-dynamic:array.obj
 0002:0001d7a4       $unwind$pj_memmove         00000001400a27a4     pjlib-x86_64-x64-vc14-debug-dynamic:array.obj
 0002:0001d7b0       $unwind$pj_inet_ntop2      00000001400a27b0     pjlib-x86_64-x64-vc14-debug-dynamic:sock_common.obj
 0002:0001d7b8       $unwind$pj_sockaddr_print  00000001400a27b8     pjlib-x86_64-x64-vc14-debug-dynamic:sock_common.obj
 0002:0001d7c8       $unwind$pj_inet_addr       00000001400a27c8     pjlib-x86_64-x64-vc14-debug-dynamic:sock_common.obj
 0002:0001d7d0       $unwind$pj_inet_addr2      00000001400a27d0     pjlib-x86_64-x64-vc14-debug-dynamic:sock_common.obj
 0002:0001d7dc       $unwind$pj_sockaddr_in_init 00000001400a27dc     pjlib-x86_64-x64-vc14-debug-dynamic:sock_common.obj
 0002:0001d7e4       $unwind$pj_sockaddr_init   00000001400a27e4     pjlib-x86_64-x64-vc14-debug-dynamic:sock_common.obj
 0002:0001d7ec       $unwind$pj_sockaddr_cmp    00000001400a27ec     pjlib-x86_64-x64-vc14-debug-dynamic:sock_common.obj
 0002:0001d7f4       $unwind$pj_sockaddr_get_addr 00000001400a27f4     pjlib-x86_64-x64-vc14-debug-dynamic:sock_common.obj
 0002:0001d7fc       $unwind$pj_sockaddr_has_addr 00000001400a27fc     pjlib-x86_64-x64-vc14-debug-dynamic:sock_common.obj
 0002:0001d80c       $unwind$pj_sockaddr_get_addr_len 00000001400a280c     pjlib-x86_64-x64-vc14-debug-dynamic:sock_common.obj
 0002:0001d814       $unwind$pj_sockaddr_get_len 00000001400a2814     pjlib-x86_64-x64-vc14-debug-dynamic:sock_common.obj
 0002:0001d81c       $unwind$pj_sockaddr_copy_addr 00000001400a281c     pjlib-x86_64-x64-vc14-debug-dynamic:sock_common.obj
 0002:0001d824       $unwind$pj_sockaddr_cp     00000001400a2824     pjlib-x86_64-x64-vc14-debug-dynamic:sock_common.obj
 0002:0001d82c       $unwind$pj_sockaddr_synthesize 00000001400a282c     pjlib-x86_64-x64-vc14-debug-dynamic:sock_common.obj
 0002:0001d840       $unwind$pj_sockaddr_in_get_addr 00000001400a2840     pjlib-x86_64-x64-vc14-debug-dynamic:sock_common.obj
 0002:0001d848       $unwind$pj_sockaddr_in_set_addr 00000001400a2848     pjlib-x86_64-x64-vc14-debug-dynamic:sock_common.obj
 0002:0001d850       $unwind$pj_sockaddr_in_set_str_addr 00000001400a2850     pjlib-x86_64-x64-vc14-debug-dynamic:sock_common.obj
 0002:0001d860       $unwind$pj_sockaddr_set_str_addr 00000001400a2860     pjlib-x86_64-x64-vc14-debug-dynamic:sock_common.obj
 0002:0001d870       $unwind$pj_sockaddr_get_port 00000001400a2870     pjlib-x86_64-x64-vc14-debug-dynamic:sock_common.obj
 0002:0001d878       $unwind$pj_sockaddr_in_get_port 00000001400a2878     pjlib-x86_64-x64-vc14-debug-dynamic:sock_common.obj
 0002:0001d880       $unwind$pj_sockaddr_set_port 00000001400a2880     pjlib-x86_64-x64-vc14-debug-dynamic:sock_common.obj
 0002:0001d888       $unwind$pj_sockaddr_in_set_port 00000001400a2888     pjlib-x86_64-x64-vc14-debug-dynamic:sock_common.obj
 0002:0001d890       $unwind$pj_sockaddr_parse  00000001400a2890     pjlib-x86_64-x64-vc14-debug-dynamic:sock_common.obj
 0002:0001d898       $unwind$pj_sockaddr_parse2 00000001400a2898     pjlib-x86_64-x64-vc14-debug-dynamic:sock_common.obj
 0002:0001d8a4       $unwind$pj_gethostaddr     00000001400a28a4     pjlib-x86_64-x64-vc14-debug-dynamic:sock_common.obj
 0002:0001d8b4       $unwind$pj_sock_bind_random 00000001400a28b4     pjlib-x86_64-x64-vc14-debug-dynamic:sock_common.obj
 0002:0001d8c4       $unwind$pj_sock_setsockopt_sobuf 00000001400a28c4     pjlib-x86_64-x64-vc14-debug-dynamic:sock_common.obj
 0002:0001d8cc       $unwind$pj_addr_str_print  00000001400a28cc     pjlib-x86_64-x64-vc14-debug-dynamic:sock_common.obj
 0002:0001d8dc       $unwind$pj_isdigit         00000001400a28dc     pjlib-x86_64-x64-vc14-debug-dynamic:sock_common.obj
 0002:0001d8e4       $unwind$pj_strchr          00000001400a28e4     pjlib-x86_64-x64-vc14-debug-dynamic:sock_common.obj
 0002:0001d8ec       $unwind$pj_bzero           00000001400a28ec     pjlib-x86_64-x64-vc14-debug-dynamic:sock_common.obj
 0002:0001d8f4       $unwind$pj_memcpy          00000001400a28f4     pjlib-x86_64-x64-vc14-debug-dynamic:sock_common.obj
 0002:0001d8fc       $unwind$pj_memcmp          00000001400a28fc     pjlib-x86_64-x64-vc14-debug-dynamic:sock_common.obj
 0002:0001d904       $unwind$pj_gethostip       00000001400a2904     pjlib-x86_64-x64-vc14-debug-dynamic:sock_common.obj
 0002:0001d914       $unwind$pj_getipinterface  00000001400a2914     pjlib-x86_64-x64-vc14-debug-dynamic:sock_common.obj
 0002:0001d928       $unwind$pj_getdefaultipinterface 00000001400a2928     pjlib-x86_64-x64-vc14-debug-dynamic:sock_common.obj
 0002:0001d95c       $unwind$pj_list_empty      00000001400a295c     pjlib-x86_64-x64-vc14-debug-dynamic:list.obj
 0002:0001d964       $unwind$pj_list_insert_before 00000001400a2964     pjlib-x86_64-x64-vc14-debug-dynamic:list.obj
 0002:0001d96c       $unwind$pj_list_insert_nodes_before 00000001400a296c     pjlib-x86_64-x64-vc14-debug-dynamic:list.obj
 0002:0001d974       $unwind$pj_list_insert_nodes_after 00000001400a2974     pjlib-x86_64-x64-vc14-debug-dynamic:list.obj
 0002:0001d97c       $unwind$pj_list_merge_first 00000001400a297c     pjlib-x86_64-x64-vc14-debug-dynamic:list.obj
 0002:0001d984       $unwind$pj_list_merge_last 00000001400a2984     pjlib-x86_64-x64-vc14-debug-dynamic:list.obj
 0002:0001d98c       $unwind$pj_list_erase      00000001400a298c     pjlib-x86_64-x64-vc14-debug-dynamic:list.obj
 0002:0001d994       $unwind$pj_list_find_node  00000001400a2994     pjlib-x86_64-x64-vc14-debug-dynamic:list.obj
 0002:0001d99c       $unwind$pj_list_search     00000001400a299c     pjlib-x86_64-x64-vc14-debug-dynamic:list.obj
 0002:0001d9a4       $unwind$pj_list_size       00000001400a29a4     pjlib-x86_64-x64-vc14-debug-dynamic:list.obj
 0002:0001d9b4       $unwind$pj_gettimeofday    00000001400a29b4     pjlib-x86_64-x64-vc14-debug-dynamic:os_time_win32.obj
 0002:0001d9c4       $unwind$pj_time_decode     00000001400a29c4     pjlib-x86_64-x64-vc14-debug-dynamic:os_time_win32.obj
 0002:0001d9d4       $unwind$pj_time_encode     00000001400a29d4     pjlib-x86_64-x64-vc14-debug-dynamic:os_time_win32.obj
 0002:0001d9e4       $unwind$pj_bzero           00000001400a29e4     pjlib-x86_64-x64-vc14-debug-dynamic:os_time_win32.obj
 0002:0001d9ec       $unwind$get_base_time      00000001400a29ec     pjlib-x86_64-x64-vc14-debug-dynamic:os_time_win32.obj
 0002:0001da04       $unwind$pj_ioqueue_create  00000001400a2a04     pjlib-x86_64-x64-vc14-debug-dynamic:ioqueue_select.obj
 0002:0001da0c       $unwind$pj_ioqueue_destroy 00000001400a2a0c     pjlib-x86_64-x64-vc14-debug-dynamic:ioqueue_select.obj
 0002:0001da14       $unwind$pj_ioqueue_set_lock 00000001400a2a14     pjlib-x86_64-x64-vc14-debug-dynamic:ioqueue_select.obj
 0002:0001da1c       $unwind$pj_ioqueue_set_default_concurrency 00000001400a2a1c     pjlib-x86_64-x64-vc14-debug-dynamic:ioqueue_select.obj
 0002:0001da24       $unwind$pj_ioqueue_register_sock 00000001400a2a24     pjlib-x86_64-x64-vc14-debug-dynamic:ioqueue_select.obj
 0002:0001da2c       $unwind$pj_ioqueue_register_sock2 00000001400a2a2c     pjlib-x86_64-x64-vc14-debug-dynamic:ioqueue_select.obj
 0002:0001da34       $unwind$pj_ioqueue_unregister 00000001400a2a34     pjlib-x86_64-x64-vc14-debug-dynamic:ioqueue_select.obj
 0002:0001da3c       $unwind$pj_ioqueue_get_user_data 00000001400a2a3c     pjlib-x86_64-x64-vc14-debug-dynamic:ioqueue_select.obj
 0002:0001da44       $unwind$pj_ioqueue_set_user_data 00000001400a2a44     pjlib-x86_64-x64-vc14-debug-dynamic:ioqueue_select.obj
 0002:0001da4c       $unwind$pj_ioqueue_set_concurrency 00000001400a2a4c     pjlib-x86_64-x64-vc14-debug-dynamic:ioqueue_select.obj
 0002:0001da54       $unwind$pj_ioqueue_lock_key 00000001400a2a54     pjlib-x86_64-x64-vc14-debug-dynamic:ioqueue_select.obj
 0002:0001da5c       $unwind$pj_ioqueue_trylock_key 00000001400a2a5c     pjlib-x86_64-x64-vc14-debug-dynamic:ioqueue_select.obj
 0002:0001da64       $unwind$pj_ioqueue_unlock_key 00000001400a2a64     pjlib-x86_64-x64-vc14-debug-dynamic:ioqueue_select.obj
 0002:0001da6c       $unwind$pj_ioqueue_op_key_init 00000001400a2a6c     pjlib-x86_64-x64-vc14-debug-dynamic:ioqueue_select.obj
 0002:0001da74       $unwind$pj_ioqueue_is_pending 00000001400a2a74     pjlib-x86_64-x64-vc14-debug-dynamic:ioqueue_select.obj
 0002:0001da7c       $unwind$pj_ioqueue_post_completion 00000001400a2a7c     pjlib-x86_64-x64-vc14-debug-dynamic:ioqueue_select.obj
 0002:0001da84       $unwind$pj_ioqueue_accept  00000001400a2a84     pjlib-x86_64-x64-vc14-debug-dynamic:ioqueue_select.obj
 0002:0001da8c       $unwind$pj_ioqueue_connect 00000001400a2a8c     pjlib-x86_64-x64-vc14-debug-dynamic:ioqueue_select.obj
 0002:0001da94       $unwind$pj_ioqueue_poll    00000001400a2a94     pjlib-x86_64-x64-vc14-debug-dynamic:ioqueue_select.obj
 0002:0001daa4       $unwind$pj_ioqueue_recv    00000001400a2aa4     pjlib-x86_64-x64-vc14-debug-dynamic:ioqueue_select.obj
 0002:0001daac       $unwind$pj_ioqueue_recvfrom 00000001400a2aac     pjlib-x86_64-x64-vc14-debug-dynamic:ioqueue_select.obj
 0002:0001dab4       $unwind$pj_ioqueue_send    00000001400a2ab4     pjlib-x86_64-x64-vc14-debug-dynamic:ioqueue_select.obj
 0002:0001dabc       $unwind$pj_ioqueue_sendto  00000001400a2abc     pjlib-x86_64-x64-vc14-debug-dynamic:ioqueue_select.obj
 0002:0001dac4       $unwind$pj_list_empty      00000001400a2ac4     pjlib-x86_64-x64-vc14-debug-dynamic:ioqueue_select.obj
 0002:0001dacc       $unwind$pj_list_push_back  00000001400a2acc     pjlib-x86_64-x64-vc14-debug-dynamic:ioqueue_select.obj
 0002:0001dad4       $unwind$pj_bzero           00000001400a2ad4     pjlib-x86_64-x64-vc14-debug-dynamic:ioqueue_select.obj
 0002:0001dadc       $unwind$pj_memcpy          00000001400a2adc     pjlib-x86_64-x64-vc14-debug-dynamic:ioqueue_select.obj
 0002:0001dae4       $unwind$ioqueue_add_to_set 00000001400a2ae4     pjlib-x86_64-x64-vc14-debug-dynamic:ioqueue_select.obj
 0002:0001daec       $unwind$ioqueue_remove_from_set 00000001400a2aec     pjlib-x86_64-x64-vc14-debug-dynamic:ioqueue_select.obj
 0002:0001daf4       $unwind$ioqueue_destroy    00000001400a2af4     pjlib-x86_64-x64-vc14-debug-dynamic:ioqueue_select.obj
 0002:0001dafc       $unwind$ioqueue_init_key   00000001400a2afc     pjlib-x86_64-x64-vc14-debug-dynamic:ioqueue_select.obj
 0002:0001db04       $unwind$key_has_pending_write 00000001400a2b04     pjlib-x86_64-x64-vc14-debug-dynamic:ioqueue_select.obj
 0002:0001db0c       $unwind$key_has_pending_read 00000001400a2b0c     pjlib-x86_64-x64-vc14-debug-dynamic:ioqueue_select.obj
 0002:0001db14       $unwind$key_has_pending_accept 00000001400a2b14     pjlib-x86_64-x64-vc14-debug-dynamic:ioqueue_select.obj
 0002:0001db1c       $unwind$ioqueue_dispatch_write_event 00000001400a2b1c     pjlib-x86_64-x64-vc14-debug-dynamic:ioqueue_select.obj
 0002:0001db24       $unwind$ioqueue_dispatch_read_event 00000001400a2b24     pjlib-x86_64-x64-vc14-debug-dynamic:ioqueue_select.obj
 0002:0001db2c       $unwind$ioqueue_dispatch_exception_event 00000001400a2b2c     pjlib-x86_64-x64-vc14-debug-dynamic:ioqueue_select.obj
 0002:0001db34       $unwind$scan_closing_keys  00000001400a2b34     pjlib-x86_64-x64-vc14-debug-dynamic:ioqueue_select.obj
 0002:0001db3c       $unwind$increment_counter  00000001400a2b3c     pjlib-x86_64-x64-vc14-debug-dynamic:ioqueue_select.obj
 0002:0001db44       $unwind$decrement_counter  00000001400a2b44     pjlib-x86_64-x64-vc14-debug-dynamic:ioqueue_select.obj
 0002:0001db6c       $unwind$pj_ntohs           00000001400a2b6c     pjlib-x86_64-x64-vc14-debug-dynamic:sock_bsd.obj
 0002:0001db74       $unwind$pj_htons           00000001400a2b74     pjlib-x86_64-x64-vc14-debug-dynamic:sock_bsd.obj
 0002:0001db7c       $unwind$pj_ntohl           00000001400a2b7c     pjlib-x86_64-x64-vc14-debug-dynamic:sock_bsd.obj
 0002:0001db84       $unwind$pj_htonl           00000001400a2b84     pjlib-x86_64-x64-vc14-debug-dynamic:sock_bsd.obj
 0002:0001db8c       $unwind$pj_inet_ntoa       00000001400a2b8c     pjlib-x86_64-x64-vc14-debug-dynamic:sock_bsd.obj
 0002:0001db94       $unwind$pj_inet_aton       00000001400a2b94     pjlib-x86_64-x64-vc14-debug-dynamic:sock_bsd.obj
 0002:0001dba4       $unwind$pj_inet_pton       00000001400a2ba4     pjlib-x86_64-x64-vc14-debug-dynamic:sock_bsd.obj
 0002:0001dbb4       $unwind$pj_inet_ntop       00000001400a2bb4     pjlib-x86_64-x64-vc14-debug-dynamic:sock_bsd.obj
 0002:0001dbc4       $unwind$pj_gethostname     00000001400a2bc4     pjlib-x86_64-x64-vc14-debug-dynamic:sock_bsd.obj
 0002:0001dbcc       $unwind$pj_sock_socket     00000001400a2bcc     pjlib-x86_64-x64-vc14-debug-dynamic:sock_bsd.obj
 0002:0001dbd4       $unwind$pj_sock_close      00000001400a2bd4     pjlib-x86_64-x64-vc14-debug-dynamic:sock_bsd.obj
 0002:0001dbdc       $unwind$pj_sock_bind       00000001400a2bdc     pjlib-x86_64-x64-vc14-debug-dynamic:sock_bsd.obj
 0002:0001dbe4       $unwind$pj_sock_bind_in    00000001400a2be4     pjlib-x86_64-x64-vc14-debug-dynamic:sock_bsd.obj
 0002:0001dbf4       $unwind$pj_sock_listen     00000001400a2bf4     pjlib-x86_64-x64-vc14-debug-dynamic:sock_bsd.obj
 0002:0001dbfc       $unwind$pj_sock_accept     00000001400a2bfc     pjlib-x86_64-x64-vc14-debug-dynamic:sock_bsd.obj
 0002:0001dc04       $unwind$pj_sock_connect    00000001400a2c04     pjlib-x86_64-x64-vc14-debug-dynamic:sock_bsd.obj
 0002:0001dc0c       $unwind$pj_sock_getpeername 00000001400a2c0c     pjlib-x86_64-x64-vc14-debug-dynamic:sock_bsd.obj
 0002:0001dc14       $unwind$pj_sock_getsockname 00000001400a2c14     pjlib-x86_64-x64-vc14-debug-dynamic:sock_bsd.obj
 0002:0001dc1c       $unwind$pj_sock_getsockopt 00000001400a2c1c     pjlib-x86_64-x64-vc14-debug-dynamic:sock_bsd.obj
 0002:0001dc24       $unwind$pj_sock_setsockopt 00000001400a2c24     pjlib-x86_64-x64-vc14-debug-dynamic:sock_bsd.obj
 0002:0001dc2c       $unwind$pj_sock_setsockopt_params 00000001400a2c2c     pjlib-x86_64-x64-vc14-debug-dynamic:sock_bsd.obj
 0002:0001dc34       $unwind$pj_sock_recv       00000001400a2c34     pjlib-x86_64-x64-vc14-debug-dynamic:sock_bsd.obj
 0002:0001dc3c       $unwind$pj_sock_recvfrom   00000001400a2c3c     pjlib-x86_64-x64-vc14-debug-dynamic:sock_bsd.obj
 0002:0001dc44       $unwind$pj_sock_send       00000001400a2c44     pjlib-x86_64-x64-vc14-debug-dynamic:sock_bsd.obj
 0002:0001dc4c       $unwind$pj_sock_sendto     00000001400a2c4c     pjlib-x86_64-x64-vc14-debug-dynamic:sock_bsd.obj
 0002:0001dc54       $unwind$pj_sock_shutdown   00000001400a2c54     pjlib-x86_64-x64-vc14-debug-dynamic:sock_bsd.obj
 0002:0001dc5c       $unwind$pj_bzero           00000001400a2c5c     pjlib-x86_64-x64-vc14-debug-dynamic:sock_bsd.obj
 0002:0001dc64       $unwind$pj_memcpy          00000001400a2c64     pjlib-x86_64-x64-vc14-debug-dynamic:sock_bsd.obj
 0002:0001dc88       $unwind$pj_file_exists     00000001400a2c88     pjlib-x86_64-x64-vc14-debug-dynamic:file_access_win32.obj
 0002:0001dc90       $unwind$pj_file_size       00000001400a2c90     pjlib-x86_64-x64-vc14-debug-dynamic:file_access_win32.obj
 0002:0001dc98       $unwind$pj_file_delete     00000001400a2c98     pjlib-x86_64-x64-vc14-debug-dynamic:file_access_win32.obj
 0002:0001dca0       $unwind$pj_file_move       00000001400a2ca0     pjlib-x86_64-x64-vc14-debug-dynamic:file_access_win32.obj
 0002:0001dca8       $unwind$pj_file_getstat    00000001400a2ca8     pjlib-x86_64-x64-vc14-debug-dynamic:file_access_win32.obj
 0002:0001dcb0       $unwind$pj_bzero           00000001400a2cb0     pjlib-x86_64-x64-vc14-debug-dynamic:file_access_win32.obj
 0002:0001dcb8       $unwind$get_file_size      00000001400a2cb8     pjlib-x86_64-x64-vc14-debug-dynamic:file_access_win32.obj
 0002:0001dcc0       $unwind$create_file        00000001400a2cc0     pjlib-x86_64-x64-vc14-debug-dynamic:file_access_win32.obj
 0002:0001dcc8       $unwind$file_time_to_time_val 00000001400a2cc8     pjlib-x86_64-x64-vc14-debug-dynamic:file_access_win32.obj
 0002:0001dce0       $unwind$pj_file_open       00000001400a2ce0     pjlib-x86_64-x64-vc14-debug-dynamic:file_io_win32.obj
 0002:0001dce8       $unwind$pj_file_close      00000001400a2ce8     pjlib-x86_64-x64-vc14-debug-dynamic:file_io_win32.obj
 0002:0001dcf0       $unwind$pj_file_write      00000001400a2cf0     pjlib-x86_64-x64-vc14-debug-dynamic:file_io_win32.obj
 0002:0001dcf8       $unwind$pj_file_read       00000001400a2cf8     pjlib-x86_64-x64-vc14-debug-dynamic:file_io_win32.obj
 0002:0001dd00       $unwind$pj_file_setpos     00000001400a2d00     pjlib-x86_64-x64-vc14-debug-dynamic:file_io_win32.obj
 0002:0001dd08       $unwind$pj_file_getpos     00000001400a2d08     pjlib-x86_64-x64-vc14-debug-dynamic:file_io_win32.obj
 0002:0001dd10       $unwind$pj_file_flush      00000001400a2d10     pjlib-x86_64-x64-vc14-debug-dynamic:file_io_win32.obj
 0002:0001dd18       $unwind$set_file_pointer   00000001400a2d18     pjlib-x86_64-x64-vc14-debug-dynamic:file_io_win32.obj
 0002:0001dd28       $unwind$pj_lock_create_simple_mutex 00000001400a2d28     pjlib-x86_64-x64-vc14-debug-dynamic:lock.obj
 0002:0001dd30       $unwind$pj_lock_create_recursive_mutex 00000001400a2d30     pjlib-x86_64-x64-vc14-debug-dynamic:lock.obj
 0002:0001dd38       $unwind$pj_lock_create_null_mutex 00000001400a2d38     pjlib-x86_64-x64-vc14-debug-dynamic:lock.obj
 0002:0001dd40       $unwind$pj_lock_create_semaphore 00000001400a2d40     pjlib-x86_64-x64-vc14-debug-dynamic:lock.obj
 0002:0001dd48       $unwind$pj_lock_acquire    00000001400a2d48     pjlib-x86_64-x64-vc14-debug-dynamic:lock.obj
 0002:0001dd50       $unwind$pj_lock_tryacquire 00000001400a2d50     pjlib-x86_64-x64-vc14-debug-dynamic:lock.obj
 0002:0001dd58       $unwind$pj_lock_release    00000001400a2d58     pjlib-x86_64-x64-vc14-debug-dynamic:lock.obj
 0002:0001dd60       $unwind$pj_lock_destroy    00000001400a2d60     pjlib-x86_64-x64-vc14-debug-dynamic:lock.obj
 0002:0001dd68       $unwind$pj_grp_lock_config_default 00000001400a2d68     pjlib-x86_64-x64-vc14-debug-dynamic:lock.obj
 0002:0001dd70       $unwind$pj_grp_lock_create 00000001400a2d70     pjlib-x86_64-x64-vc14-debug-dynamic:lock.obj
 0002:0001dd78       $unwind$pj_grp_lock_create_w_handler 00000001400a2d78     pjlib-x86_64-x64-vc14-debug-dynamic:lock.obj
 0002:0001dd80       $unwind$pj_grp_lock_destroy 00000001400a2d80     pjlib-x86_64-x64-vc14-debug-dynamic:lock.obj
 0002:0001dd88       $unwind$pj_grp_lock_replace 00000001400a2d88     pjlib-x86_64-x64-vc14-debug-dynamic:lock.obj
 0002:0001dd90       $unwind$pj_grp_lock_acquire 00000001400a2d90     pjlib-x86_64-x64-vc14-debug-dynamic:lock.obj
 0002:0001dd98       $unwind$pj_grp_lock_tryacquire 00000001400a2d98     pjlib-x86_64-x64-vc14-debug-dynamic:lock.obj
 0002:0001dda0       $unwind$pj_grp_lock_release 00000001400a2da0     pjlib-x86_64-x64-vc14-debug-dynamic:lock.obj
 0002:0001dda8       $unwind$pj_grp_lock_add_handler 00000001400a2da8     pjlib-x86_64-x64-vc14-debug-dynamic:lock.obj
 0002:0001ddb0       $unwind$pj_grp_lock_del_handler 00000001400a2db0     pjlib-x86_64-x64-vc14-debug-dynamic:lock.obj
 0002:0001ddb8       $unwind$pj_grp_lock_add_ref 00000001400a2db8     pjlib-x86_64-x64-vc14-debug-dynamic:lock.obj
 0002:0001ddc0       $unwind$pj_grp_lock_dec_ref 00000001400a2dc0     pjlib-x86_64-x64-vc14-debug-dynamic:lock.obj
 0002:0001ddc8       $unwind$pj_grp_lock_get_ref 00000001400a2dc8     pjlib-x86_64-x64-vc14-debug-dynamic:lock.obj
 0002:0001ddd0       $unwind$pj_grp_lock_dump   00000001400a2dd0     pjlib-x86_64-x64-vc14-debug-dynamic:lock.obj
 0002:0001ddd8       $unwind$pj_grp_lock_chain_lock 00000001400a2dd8     pjlib-x86_64-x64-vc14-debug-dynamic:lock.obj
 0002:0001dde0       $unwind$pj_grp_lock_unchain_lock 00000001400a2de0     pjlib-x86_64-x64-vc14-debug-dynamic:lock.obj
 0002:0001dde8       $unwind$pj_list_push_back  00000001400a2de8     pjlib-x86_64-x64-vc14-debug-dynamic:lock.obj
 0002:0001ddf0       $unwind$pj_pool_zalloc     00000001400a2df0     pjlib-x86_64-x64-vc14-debug-dynamic:lock.obj
 0002:0001ddf8       $unwind$pj_bzero           00000001400a2df8     pjlib-x86_64-x64-vc14-debug-dynamic:lock.obj
 0002:0001de00       $unwind$pj_memcpy          00000001400a2e00     pjlib-x86_64-x64-vc14-debug-dynamic:lock.obj
 0002:0001de08       $unwind$create_mutex_lock  00000001400a2e08     pjlib-x86_64-x64-vc14-debug-dynamic:lock.obj
 0002:0001de10       $unwind$grp_lock_set_owner_thread 00000001400a2e10     pjlib-x86_64-x64-vc14-debug-dynamic:lock.obj
 0002:0001de18       $unwind$grp_lock_unset_owner_thread 00000001400a2e18     pjlib-x86_64-x64-vc14-debug-dynamic:lock.obj
 0002:0001de20       $unwind$grp_lock_acquire   00000001400a2e20     pjlib-x86_64-x64-vc14-debug-dynamic:lock.obj
 0002:0001de28       $unwind$grp_lock_tryacquire 00000001400a2e28     pjlib-x86_64-x64-vc14-debug-dynamic:lock.obj
 0002:0001de30       $unwind$grp_lock_release   00000001400a2e30     pjlib-x86_64-x64-vc14-debug-dynamic:lock.obj
 0002:0001de38       $unwind$grp_lock_add_handler 00000001400a2e38     pjlib-x86_64-x64-vc14-debug-dynamic:lock.obj
 0002:0001de40       $unwind$grp_lock_destroy   00000001400a2e40     pjlib-x86_64-x64-vc14-debug-dynamic:lock.obj
 0002:0001de48       $unwind$grp_lock_add_ref   00000001400a2e48     pjlib-x86_64-x64-vc14-debug-dynamic:lock.obj
 0002:0001de50       $unwind$grp_lock_dec_ref   00000001400a2e50     pjlib-x86_64-x64-vc14-debug-dynamic:lock.obj
 0002:0001de78       $unwind$pj_exception_id_alloc 00000001400a2e78     pjlib-x86_64-x64-vc14-debug-dynamic:except.obj
 0002:0001de80       $unwind$pj_exception_id_free 00000001400a2e80     pjlib-x86_64-x64-vc14-debug-dynamic:except.obj
 0002:0001de88       $unwind$pj_exception_id_name 00000001400a2e88     pjlib-x86_64-x64-vc14-debug-dynamic:except.obj
 0002:0001de90       $unwind$pj_throw_exception_ 00000001400a2e90     pjlib-x86_64-x64-vc14-debug-dynamic:except.obj
 0002:0001de98       $unwind$pj_push_exception_handler_ 00000001400a2e98     pjlib-x86_64-x64-vc14-debug-dynamic:except.obj
 0002:0001dea0       $unwind$pj_pop_exception_handler_ 00000001400a2ea0     pjlib-x86_64-x64-vc14-debug-dynamic:except.obj
 0002:0001dea8       $unwind$exception_cleanup  00000001400a2ea8     pjlib-x86_64-x64-vc14-debug-dynamic:except.obj
 0002:0001deb8       $unwind$pj_get_timestamp   00000001400a2eb8     pjlib-x86_64-x64-vc14-debug-dynamic:os_timestamp_win32.obj
 0002:0001dec0       $unwind$pj_get_timestamp_freq 00000001400a2ec0     pjlib-x86_64-x64-vc14-debug-dynamic:os_timestamp_win32.obj
 0002:0001decc       $unwind$pj_gettickcount    00000001400a2ecc     pjlib-x86_64-x64-vc14-debug-dynamic:os_timestamp_common.obj
 0002:0001ded4       $unwind$pj_elapsed_time    00000001400a2ed4     pjlib-x86_64-x64-vc14-debug-dynamic:os_timestamp_common.obj
 0002:0001dedc       $unwind$pj_elapsed_msec    00000001400a2edc     pjlib-x86_64-x64-vc14-debug-dynamic:os_timestamp_common.obj
 0002:0001dee4       $unwind$pj_elapsed_msec64  00000001400a2ee4     pjlib-x86_64-x64-vc14-debug-dynamic:os_timestamp_common.obj
 0002:0001deec       $unwind$pj_elapsed_usec    00000001400a2eec     pjlib-x86_64-x64-vc14-debug-dynamic:os_timestamp_common.obj
 0002:0001def4       $unwind$pj_elapsed_nanosec 00000001400a2ef4     pjlib-x86_64-x64-vc14-debug-dynamic:os_timestamp_common.obj
 0002:0001defc       $unwind$elapsed_msec       00000001400a2efc     pjlib-x86_64-x64-vc14-debug-dynamic:os_timestamp_common.obj
 0002:0001df04       $unwind$elapsed_usec       00000001400a2f04     pjlib-x86_64-x64-vc14-debug-dynamic:os_timestamp_common.obj
 0002:0001df14       $unwind$pj_srand           00000001400a2f14     pjlib-x86_64-x64-vc14-debug-dynamic:rand.obj
 0002:0001df1c       $unwind$pj_rand            00000001400a2f1c     pjlib-x86_64-x64-vc14-debug-dynamic:rand.obj
 0002:0001df28       $unwind$platform_rand      00000001400a2f28     pjlib-x86_64-x64-vc14-debug-dynamic:rand.obj
 0002:0001df30       $unwind$pj_generate_unique_string 00000001400a2f30     pjlib-x86_64-x64-vc14-debug-dynamic:guid_win32.obj
 0002:0001df40       $unwind$guid_to_str        00000001400a2f40     pjlib-x86_64-x64-vc14-debug-dynamic:guid_win32.obj
 0002:0001df4c       $unwind$pj_dump_config     00000001400a2f4c     pjlib-x86_64-x64-vc14-debug-dynamic:config.obj
 0002:0001df54       $unwind$pj_pool_create_on_buf 00000001400a2f54     pjlib-x86_64-x64-vc14-debug-dynamic:pool_buf.obj
 0002:0001df5c       $unwind$stack_alloc        00000001400a2f5c     pjlib-x86_64-x64-vc14-debug-dynamic:pool_buf.obj
 0002:0001df64       $unwind$pool_buf_cleanup   00000001400a2f64     pjlib-x86_64-x64-vc14-debug-dynamic:pool_buf.obj
 0002:0001df6c       $unwind$pool_buf_initialize 00000001400a2f6c     pjlib-x86_64-x64-vc14-debug-dynamic:pool_buf.obj
 0002:0001df78       $unwind$pj_log_write       00000001400a2f78     pjlib-x86_64-x64-vc14-debug-dynamic:log_writer_stdout.obj
 0002:0001df80       $unwind$term_set_color     00000001400a2f80     pjlib-x86_64-x64-vc14-debug-dynamic:log_writer_stdout.obj
 0002:0001df88       $unwind$term_restore_color 00000001400a2f88     pjlib-x86_64-x64-vc14-debug-dynamic:log_writer_stdout.obj
 0002:0001df94       $unwind$pj_bzero           00000001400a2f94     pjlib-x86_64-x64-vc14-debug-dynamic:ip_helper_win32.obj
 0002:0001df9c       $unwind$pj_memcpy          00000001400a2f9c     pjlib-x86_64-x64-vc14-debug-dynamic:ip_helper_win32.obj
 0002:0001dfa4       $unwind$pj_enum_ip_option_default 00000001400a2fa4     pjlib-x86_64-x64-vc14-debug-dynamic:ip_helper_win32.obj
 0002:0001dfac       $unwind$pj_enum_ip_interface 00000001400a2fac     pjlib-x86_64-x64-vc14-debug-dynamic:ip_helper_win32.obj
 0002:0001dfb4       $unwind$pj_enum_ip_interface2 00000001400a2fb4     pjlib-x86_64-x64-vc14-debug-dynamic:ip_helper_win32.obj
 0002:0001dfbc       $unwind$pj_enum_ip_route   00000001400a2fbc     pjlib-x86_64-x64-vc14-debug-dynamic:ip_helper_win32.obj
 0002:0001dfcc       $unwind$unload_iphlp_module 00000001400a2fcc     pjlib-x86_64-x64-vc14-debug-dynamic:ip_helper_win32.obj
 0002:0001dfd4       $unwind$GetIpHlpApiProc    00000001400a2fd4     pjlib-x86_64-x64-vc14-debug-dynamic:ip_helper_win32.obj
 0002:0001dfdc       $unwind$MyGetIpAddrTable   00000001400a2fdc     pjlib-x86_64-x64-vc14-debug-dynamic:ip_helper_win32.obj
 0002:0001dfe4       $unwind$MyGetAdapterAddresses 00000001400a2fe4     pjlib-x86_64-x64-vc14-debug-dynamic:ip_helper_win32.obj
 0002:0001dfec       $unwind$MyGetIfEntry       00000001400a2fec     pjlib-x86_64-x64-vc14-debug-dynamic:ip_helper_win32.obj
 0002:0001dff4       $unwind$MyGetIpForwardTable 00000001400a2ff4     pjlib-x86_64-x64-vc14-debug-dynamic:ip_helper_win32.obj
 0002:0001dffc       $unwind$enum_ipv4_interface 00000001400a2ffc     pjlib-x86_64-x64-vc14-debug-dynamic:ip_helper_win32.obj
 0002:0001e00c       $unwind$enum_ipv4_ipv6_interface 00000001400a300c     pjlib-x86_64-x64-vc14-debug-dynamic:ip_helper_win32.obj
 0002:0001e02c       $unwind$pj_gethostbyname   00000001400a302c     pjlib-x86_64-x64-vc14-debug-dynamic:addr_resolv_sock.obj
 0002:0001e03c       $unwind$pj_getaddrinfo     00000001400a303c     pjlib-x86_64-x64-vc14-debug-dynamic:addr_resolv_sock.obj
 0002:0001e044       $unwind$pj_bzero           00000001400a3044     pjlib-x86_64-x64-vc14-debug-dynamic:addr_resolv_sock.obj
 0002:0001e04c       $unwind$pj_memcpy          00000001400a304c     pjlib-x86_64-x64-vc14-debug-dynamic:addr_resolv_sock.obj
 0002:0001e058       $unwind$pj_time_val_normalize 00000001400a3058     pjlib-x86_64-x64-vc14-debug-dynamic:types.obj
 0002:0001e060       $unwind$PJ_FD_ZERO         00000001400a3060     pjlib-x86_64-x64-vc14-debug-dynamic:sock_select.obj
 0002:0001e068       $unwind$PJ_FD_SET          00000001400a3068     pjlib-x86_64-x64-vc14-debug-dynamic:sock_select.obj
 0002:0001e070       $unwind$PJ_FD_CLR          00000001400a3070     pjlib-x86_64-x64-vc14-debug-dynamic:sock_select.obj
 0002:0001e078       $unwind$PJ_FD_ISSET        00000001400a3078     pjlib-x86_64-x64-vc14-debug-dynamic:sock_select.obj
 0002:0001e080       $unwind$pj_sock_select     00000001400a3080     pjlib-x86_64-x64-vc14-debug-dynamic:sock_select.obj
 0002:0001e08c       $unwind$res_SrcLinear      00000001400a308c     libresample-x86_64-x64-vc14-debug-dynamic:resamplesubs.obj
 0002:0001e094       $unwind$res_Resample       00000001400a3094     libresample-x86_64-x64-vc14-debug-dynamic:resamplesubs.obj
 0002:0001e09c       $unwind$res_GetXOFF        00000001400a309c     libresample-x86_64-x64-vc14-debug-dynamic:resamplesubs.obj
 0002:0001e0a4       $unwind$SrcLinear          00000001400a30a4     libresample-x86_64-x64-vc14-debug-dynamic:resamplesubs.obj
 0002:0001e0ac       $unwind$FilterUp           00000001400a30ac     libresample-x86_64-x64-vc14-debug-dynamic:resamplesubs.obj
 0002:0001e0b4       $unwind$FilterUD           00000001400a30b4     libresample-x86_64-x64-vc14-debug-dynamic:resamplesubs.obj
 0002:0001e0bc       $unwind$SrcUp              00000001400a30bc     libresample-x86_64-x64-vc14-debug-dynamic:resamplesubs.obj
 0002:0001e0c4       $unwind$SrcUD              00000001400a30c4     libresample-x86_64-x64-vc14-debug-dynamic:resamplesubs.obj
 0002:0001e0d4       $unwind$WordToHword        00000001400a30d4     libresample-x86_64-x64-vc14-debug-dynamic:resamplesubs.obj
 0002:0001e0dc       $unwind$speex_echo_state_init 00000001400a30dc     libspeex-x86_64-x64-vc14-debug-dynamic:mdf.obj
 0002:0001e0e4       $unwind$speex_echo_state_init_mc 00000001400a30e4     libspeex-x86_64-x64-vc14-debug-dynamic:mdf.obj
 0002:0001e0ec       $unwind$speex_echo_state_destroy 00000001400a30ec     libspeex-x86_64-x64-vc14-debug-dynamic:mdf.obj
 0002:0001e0f4       $unwind$speex_echo_cancellation 00000001400a30f4     libspeex-x86_64-x64-vc14-debug-dynamic:mdf.obj
 0002:0001e0fc       $unwind$speex_echo_cancel  00000001400a30fc     libspeex-x86_64-x64-vc14-debug-dynamic:mdf.obj
 0002:0001e104       $unwind$speex_echo_capture 00000001400a3104     libspeex-x86_64-x64-vc14-debug-dynamic:mdf.obj
 0002:0001e10c       $unwind$speex_echo_playback 00000001400a310c     libspeex-x86_64-x64-vc14-debug-dynamic:mdf.obj
 0002:0001e114       $unwind$speex_echo_state_reset 00000001400a3114     libspeex-x86_64-x64-vc14-debug-dynamic:mdf.obj
 0002:0001e11c       $unwind$speex_echo_ctl     00000001400a311c     libspeex-x86_64-x64-vc14-debug-dynamic:mdf.obj
 0002:0001e124       $unwind$speex_alloc        00000001400a3124     libspeex-x86_64-x64-vc14-debug-dynamic:mdf.obj
 0002:0001e12c       $unwind$speex_free         00000001400a312c     libspeex-x86_64-x64-vc14-debug-dynamic:mdf.obj
 0002:0001e134       $unwind$speex_echo_get_residual 00000001400a3134     libspeex-x86_64-x64-vc14-debug-dynamic:mdf.obj
 0002:0001e13c       $unwind$filter_dc_notch16  00000001400a313c     libspeex-x86_64-x64-vc14-debug-dynamic:mdf.obj
 0002:0001e144       $unwind$mdf_inner_prod     00000001400a3144     libspeex-x86_64-x64-vc14-debug-dynamic:mdf.obj
 0002:0001e14c       $unwind$power_spectrum     00000001400a314c     libspeex-x86_64-x64-vc14-debug-dynamic:mdf.obj
 0002:0001e154       $unwind$power_spectrum_accum 00000001400a3154     libspeex-x86_64-x64-vc14-debug-dynamic:mdf.obj
 0002:0001e15c       $unwind$spectral_mul_accum 00000001400a315c     libspeex-x86_64-x64-vc14-debug-dynamic:mdf.obj
 0002:0001e164       $unwind$weighted_spectral_mul_conj 00000001400a3164     libspeex-x86_64-x64-vc14-debug-dynamic:mdf.obj
 0002:0001e16c       $unwind$mdf_adjust_prop    00000001400a316c     libspeex-x86_64-x64-vc14-debug-dynamic:mdf.obj
 0002:0001e184       $unwind$speex_decorrelate_new 00000001400a3184     libspeex-x86_64-x64-vc14-debug-dynamic:scal.obj
 0002:0001e18c       $unwind$speex_decorrelate  00000001400a318c     libspeex-x86_64-x64-vc14-debug-dynamic:scal.obj
 0002:0001e194       $unwind$speex_decorrelate_destroy 00000001400a3194     libspeex-x86_64-x64-vc14-debug-dynamic:scal.obj
 0002:0001e19c       $unwind$speex_alloc        00000001400a319c     libspeex-x86_64-x64-vc14-debug-dynamic:scal.obj
 0002:0001e1a4       $unwind$speex_free         00000001400a31a4     libspeex-x86_64-x64-vc14-debug-dynamic:scal.obj
 0002:0001e1ac       $unwind$uni_rand           00000001400a31ac     libspeex-x86_64-x64-vc14-debug-dynamic:scal.obj
 0002:0001e1b8       $unwind$speex_preprocess_state_init 00000001400a31b8     libspeex-x86_64-x64-vc14-debug-dynamic:preprocess.obj
 0002:0001e1c0       $unwind$speex_preprocess_state_destroy 00000001400a31c0     libspeex-x86_64-x64-vc14-debug-dynamic:preprocess.obj
 0002:0001e1c8       $unwind$speex_preprocess_run 00000001400a31c8     libspeex-x86_64-x64-vc14-debug-dynamic:preprocess.obj
 0002:0001e1d0       $unwind$speex_preprocess   00000001400a31d0     libspeex-x86_64-x64-vc14-debug-dynamic:preprocess.obj
 0002:0001e1d8       $unwind$speex_preprocess_estimate_update 00000001400a31d8     libspeex-x86_64-x64-vc14-debug-dynamic:preprocess.obj
 0002:0001e1e0       $unwind$speex_preprocess_ctl 00000001400a31e0     libspeex-x86_64-x64-vc14-debug-dynamic:preprocess.obj
 0002:0001e1e8       $unwind$speex_alloc        00000001400a31e8     libspeex-x86_64-x64-vc14-debug-dynamic:preprocess.obj
 0002:0001e1f0       $unwind$speex_free         00000001400a31f0     libspeex-x86_64-x64-vc14-debug-dynamic:preprocess.obj
 0002:0001e1f8       $unwind$conj_window        00000001400a31f8     libspeex-x86_64-x64-vc14-debug-dynamic:preprocess.obj
 0002:0001e200       $unwind$hypergeom_gain     00000001400a3200     libspeex-x86_64-x64-vc14-debug-dynamic:preprocess.obj
 0002:0001e208       $unwind$compute_gain_floor 00000001400a3208     libspeex-x86_64-x64-vc14-debug-dynamic:preprocess.obj
 0002:0001e210       $unwind$speex_compute_agc  00000001400a3210     libspeex-x86_64-x64-vc14-debug-dynamic:preprocess.obj
 0002:0001e218       $unwind$preprocess_analysis 00000001400a3218     libspeex-x86_64-x64-vc14-debug-dynamic:preprocess.obj
 0002:0001e220       $unwind$update_noise_prob  00000001400a3220     libspeex-x86_64-x64-vc14-debug-dynamic:preprocess.obj
 0002:0001e234       $unwind$speex_alloc        00000001400a3234     libspeex-x86_64-x64-vc14-debug-dynamic:fftwrap.obj
 0002:0001e23c       $unwind$speex_free         00000001400a323c     libspeex-x86_64-x64-vc14-debug-dynamic:fftwrap.obj
 0002:0001e244       $unwind$spx_fft_init       00000001400a3244     libspeex-x86_64-x64-vc14-debug-dynamic:fftwrap.obj
 0002:0001e24c       $unwind$spx_fft_destroy    00000001400a324c     libspeex-x86_64-x64-vc14-debug-dynamic:fftwrap.obj
 0002:0001e254       $unwind$spx_fft            00000001400a3254     libspeex-x86_64-x64-vc14-debug-dynamic:fftwrap.obj
 0002:0001e25c       $unwind$spx_ifft           00000001400a325c     libspeex-x86_64-x64-vc14-debug-dynamic:fftwrap.obj
 0002:0001e264       $unwind$spx_fft_float      00000001400a3264     libspeex-x86_64-x64-vc14-debug-dynamic:fftwrap.obj
 0002:0001e26c       $unwind$spx_ifft_float     00000001400a326c     libspeex-x86_64-x64-vc14-debug-dynamic:fftwrap.obj
 0002:0001e27c       $unwind$filterbank_new     00000001400a327c     libspeex-x86_64-x64-vc14-debug-dynamic:filterbank.obj
 0002:0001e284       $unwind$filterbank_destroy 00000001400a3284     libspeex-x86_64-x64-vc14-debug-dynamic:filterbank.obj
 0002:0001e28c       $unwind$filterbank_compute_bank32 00000001400a328c     libspeex-x86_64-x64-vc14-debug-dynamic:filterbank.obj
 0002:0001e294       $unwind$filterbank_compute_psd16 00000001400a3294     libspeex-x86_64-x64-vc14-debug-dynamic:filterbank.obj
 0002:0001e29c       $unwind$filterbank_compute_bank 00000001400a329c     libspeex-x86_64-x64-vc14-debug-dynamic:filterbank.obj
 0002:0001e2a4       $unwind$filterbank_compute_psd 00000001400a32a4     libspeex-x86_64-x64-vc14-debug-dynamic:filterbank.obj
 0002:0001e2ac       $unwind$speex_alloc        00000001400a32ac     libspeex-x86_64-x64-vc14-debug-dynamic:filterbank.obj
 0002:0001e2b4       $unwind$speex_free         00000001400a32b4     libspeex-x86_64-x64-vc14-debug-dynamic:filterbank.obj
 0002:0001e2bc       $unwind$filterbank_psy_smooth 00000001400a32bc     libspeex-x86_64-x64-vc14-debug-dynamic:filterbank.obj
 0002:0001e2d4       $unwind$spx_drft_forward   00000001400a32d4     libspeex-x86_64-x64-vc14-debug-dynamic:smallft.obj
 0002:0001e2dc       $unwind$spx_drft_backward  00000001400a32dc     libspeex-x86_64-x64-vc14-debug-dynamic:smallft.obj
 0002:0001e2e4       $unwind$spx_drft_init      00000001400a32e4     libspeex-x86_64-x64-vc14-debug-dynamic:smallft.obj
 0002:0001e2ec       $unwind$spx_drft_clear     00000001400a32ec     libspeex-x86_64-x64-vc14-debug-dynamic:smallft.obj
 0002:0001e2f4       $unwind$speex_alloc        00000001400a32f4     libspeex-x86_64-x64-vc14-debug-dynamic:smallft.obj
 0002:0001e2fc       $unwind$speex_free         00000001400a32fc     libspeex-x86_64-x64-vc14-debug-dynamic:smallft.obj
 0002:0001e304       $unwind$drfti1             00000001400a3304     libspeex-x86_64-x64-vc14-debug-dynamic:smallft.obj
 0002:0001e30c       $unwind$fdrffti            00000001400a330c     libspeex-x86_64-x64-vc14-debug-dynamic:smallft.obj
 0002:0001e314       $unwind$dradf2             00000001400a3314     libspeex-x86_64-x64-vc14-debug-dynamic:smallft.obj
 0002:0001e31c       $unwind$dradf4             00000001400a331c     libspeex-x86_64-x64-vc14-debug-dynamic:smallft.obj
 0002:0001e324       $unwind$dradfg             00000001400a3324     libspeex-x86_64-x64-vc14-debug-dynamic:smallft.obj
 0002:0001e32c       $unwind$drftf1             00000001400a332c     libspeex-x86_64-x64-vc14-debug-dynamic:smallft.obj
 0002:0001e334       $unwind$dradb2             00000001400a3334     libspeex-x86_64-x64-vc14-debug-dynamic:smallft.obj
 0002:0001e33c       $unwind$dradb3             00000001400a333c     libspeex-x86_64-x64-vc14-debug-dynamic:smallft.obj
 0002:0001e344       $unwind$dradb4             00000001400a3344     libspeex-x86_64-x64-vc14-debug-dynamic:smallft.obj
 0002:0001e34c       $unwind$dradbg             00000001400a334c     libspeex-x86_64-x64-vc14-debug-dynamic:smallft.obj
 0002:0001e354       $unwind$drftb1             00000001400a3354     libspeex-x86_64-x64-vc14-debug-dynamic:smallft.obj
 0002:0001e36c       $unwind$srtp_init          00000001400a336c     libsrtp-x86_64-x64-vc14-debug-dynamic:srtp.obj
 0002:0001e374       $unwind$srtp_shutdown      00000001400a3374     libsrtp-x86_64-x64-vc14-debug-dynamic:srtp.obj
 0002:0001e37c       $unwind$srtp_protect       00000001400a337c     libsrtp-x86_64-x64-vc14-debug-dynamic:srtp.obj
 0002:0001e384       $unwind$srtp_protect_mki   00000001400a3384     libsrtp-x86_64-x64-vc14-debug-dynamic:srtp.obj
 0002:0001e394       $unwind$srtp_unprotect     00000001400a3394     libsrtp-x86_64-x64-vc14-debug-dynamic:srtp.obj
 0002:0001e39c       $unwind$srtp_unprotect_mki 00000001400a339c     libsrtp-x86_64-x64-vc14-debug-dynamic:srtp.obj
 0002:0001e3ac       $unwind$srtp_create        00000001400a33ac     libsrtp-x86_64-x64-vc14-debug-dynamic:srtp.obj
 0002:0001e3b4       $unwind$srtp_add_stream    00000001400a33b4     libsrtp-x86_64-x64-vc14-debug-dynamic:srtp.obj
 0002:0001e3bc       $unwind$srtp_remove_stream 00000001400a33bc     libsrtp-x86_64-x64-vc14-debug-dynamic:srtp.obj
 0002:0001e3c4       $unwind$srtp_update        00000001400a33c4     libsrtp-x86_64-x64-vc14-debug-dynamic:srtp.obj
 0002:0001e3cc       $unwind$srtp_update_stream 00000001400a33cc     libsrtp-x86_64-x64-vc14-debug-dynamic:srtp.obj
 0002:0001e3d4       $unwind$srtp_dealloc       00000001400a33d4     libsrtp-x86_64-x64-vc14-debug-dynamic:srtp.obj
 0002:0001e3dc       $unwind$srtp_crypto_policy_set_from_profile_for_rtp 00000001400a33dc     libsrtp-x86_64-x64-vc14-debug-dynamic:srtp.obj
 0002:0001e3e4       $unwind$srtp_crypto_policy_set_from_profile_for_rtcp 00000001400a33e4     libsrtp-x86_64-x64-vc14-debug-dynamic:srtp.obj
 0002:0001e3ec       $unwind$srtp_profile_get_master_key_length 00000001400a33ec     libsrtp-x86_64-x64-vc14-debug-dynamic:srtp.obj
 0002:0001e3f4       $unwind$srtp_profile_get_master_salt_length 00000001400a33f4     libsrtp-x86_64-x64-vc14-debug-dynamic:srtp.obj
 0002:0001e3fc       $unwind$srtp_append_salt_to_key 00000001400a33fc     libsrtp-x86_64-x64-vc14-debug-dynamic:srtp.obj
 0002:0001e404       $unwind$srtp_protect_rtcp  00000001400a3404     libsrtp-x86_64-x64-vc14-debug-dynamic:srtp.obj
 0002:0001e40c       $unwind$srtp_protect_rtcp_mki 00000001400a340c     libsrtp-x86_64-x64-vc14-debug-dynamic:srtp.obj
 0002:0001e41c       $unwind$srtp_unprotect_rtcp 00000001400a341c     libsrtp-x86_64-x64-vc14-debug-dynamic:srtp.obj
 0002:0001e424       $unwind$srtp_unprotect_rtcp_mki 00000001400a3424     libsrtp-x86_64-x64-vc14-debug-dynamic:srtp.obj
 0002:0001e434       $unwind$srtp_get_version   00000001400a3434     libsrtp-x86_64-x64-vc14-debug-dynamic:srtp.obj
 0002:0001e43c       $unwind$srtp_set_debug_module 00000001400a343c     libsrtp-x86_64-x64-vc14-debug-dynamic:srtp.obj
 0002:0001e444       $unwind$srtp_list_debug_modules 00000001400a3444     libsrtp-x86_64-x64-vc14-debug-dynamic:srtp.obj
 0002:0001e44c       $unwind$srtp_install_log_handler 00000001400a344c     libsrtp-x86_64-x64-vc14-debug-dynamic:srtp.obj
 0002:0001e454       $unwind$srtp_get_protect_trailer_length 00000001400a3454     libsrtp-x86_64-x64-vc14-debug-dynamic:srtp.obj
 0002:0001e45c       $unwind$srtp_get_protect_rtcp_trailer_length 00000001400a345c     libsrtp-x86_64-x64-vc14-debug-dynamic:srtp.obj
 0002:0001e464       $unwind$srtp_set_stream_roc 00000001400a3464     libsrtp-x86_64-x64-vc14-debug-dynamic:srtp.obj
 0002:0001e46c       $unwind$srtp_get_stream_roc 00000001400a346c     libsrtp-x86_64-x64-vc14-debug-dynamic:srtp.obj
 0002:0001e474       $unwind$be64_to_cpu        00000001400a3474     libsrtp-x86_64-x64-vc14-debug-dynamic:srtp.obj
 0002:0001e47c       $unwind$srtp_get_stream    00000001400a347c     libsrtp-x86_64-x64-vc14-debug-dynamic:srtp.obj
 0002:0001e484       $unwind$srtp_stream_init_keys 00000001400a3484     libsrtp-x86_64-x64-vc14-debug-dynamic:srtp.obj
 0002:0001e494       $unwind$srtp_stream_init   00000001400a3494     libsrtp-x86_64-x64-vc14-debug-dynamic:srtp.obj
 0002:0001e49c       $unwind$srtp_validate_rtp_header 00000001400a349c     libsrtp-x86_64-x64-vc14-debug-dynamic:srtp.obj
 0002:0001e4a4       $unwind$srtp_stream_free   00000001400a34a4     libsrtp-x86_64-x64-vc14-debug-dynamic:srtp.obj
 0002:0001e4ac       $unwind$srtp_stream_alloc  00000001400a34ac     libsrtp-x86_64-x64-vc14-debug-dynamic:srtp.obj
 0002:0001e4b4       $unwind$srtp_stream_dealloc 00000001400a34b4     libsrtp-x86_64-x64-vc14-debug-dynamic:srtp.obj
 0002:0001e4bc       $unwind$srtp_stream_clone  00000001400a34bc     libsrtp-x86_64-x64-vc14-debug-dynamic:srtp.obj
 0002:0001e4c4       $unwind$srtp_kdf_init      00000001400a34c4     libsrtp-x86_64-x64-vc14-debug-dynamic:srtp.obj
 0002:0001e4cc       $unwind$srtp_kdf_generate  00000001400a34cc     libsrtp-x86_64-x64-vc14-debug-dynamic:srtp.obj
 0002:0001e4dc       $unwind$srtp_kdf_clear     00000001400a34dc     libsrtp-x86_64-x64-vc14-debug-dynamic:srtp.obj
 0002:0001e4e4       $unwind$base_key_length    00000001400a34e4     libsrtp-x86_64-x64-vc14-debug-dynamic:srtp.obj
 0002:0001e4ec       $unwind$srtp_validate_policy_master_keys 00000001400a34ec     libsrtp-x86_64-x64-vc14-debug-dynamic:srtp.obj
 0002:0001e4f4       $unwind$srtp_inject_mki    00000001400a34f4     libsrtp-x86_64-x64-vc14-debug-dynamic:srtp.obj
 0002:0001e4fc       $unwind$srtp_stream_init_all_master_keys 00000001400a34fc     libsrtp-x86_64-x64-vc14-debug-dynamic:srtp.obj
 0002:0001e504       $unwind$srtp_event_reporter 00000001400a3504     libsrtp-x86_64-x64-vc14-debug-dynamic:srtp.obj
 0002:0001e50c       $unwind$srtp_protect_extension_header 00000001400a350c     libsrtp-x86_64-x64-vc14-debug-dynamic:srtp.obj
 0002:0001e514       $unwind$srtp_process_header_encryption 00000001400a3514     libsrtp-x86_64-x64-vc14-debug-dynamic:srtp.obj
 0002:0001e524       $unwind$srtp_calc_aead_iv  00000001400a3524     libsrtp-x86_64-x64-vc14-debug-dynamic:srtp.obj
 0002:0001e534       $unwind$srtp_get_session_keys 00000001400a3534     libsrtp-x86_64-x64-vc14-debug-dynamic:srtp.obj
 0002:0001e53c       $unwind$srtp_get_est_pkt_index 00000001400a353c     libsrtp-x86_64-x64-vc14-debug-dynamic:srtp.obj
 0002:0001e544       $unwind$srtp_protect_aead  00000001400a3544     libsrtp-x86_64-x64-vc14-debug-dynamic:srtp.obj
 0002:0001e554       $unwind$srtp_unprotect_aead 00000001400a3554     libsrtp-x86_64-x64-vc14-debug-dynamic:srtp.obj
 0002:0001e564       $unwind$update_template_streams 00000001400a3564     libsrtp-x86_64-x64-vc14-debug-dynamic:srtp.obj
 0002:0001e578       $unwind$update_stream      00000001400a3578     libsrtp-x86_64-x64-vc14-debug-dynamic:srtp.obj
 0002:0001e58c       $unwind$srtp_calc_aead_iv_srtcp 00000001400a358c     libsrtp-x86_64-x64-vc14-debug-dynamic:srtp.obj
 0002:0001e59c       $unwind$srtp_protect_rtcp_aead 00000001400a359c     libsrtp-x86_64-x64-vc14-debug-dynamic:srtp.obj
 0002:0001e5ac       $unwind$srtp_unprotect_rtcp_aead 00000001400a35ac     libsrtp-x86_64-x64-vc14-debug-dynamic:srtp.obj
 0002:0001e5bc       $unwind$srtp_err_handler   00000001400a35bc     libsrtp-x86_64-x64-vc14-debug-dynamic:srtp.obj
 0002:0001e600       $unwind$_vsscanf_l         00000001400a3600     libsrtp-x86_64-x64-vc14-debug-dynamic:srtp.obj
 0002:0001e608       $unwind$sscanf             00000001400a3608     libsrtp-x86_64-x64-vc14-debug-dynamic:srtp.obj
 0002:0001e610       $unwind$srtp_crypto_alloc  00000001400a3610     libsrtp-x86_64-x64-vc14-debug-dynamic:alloc.obj
 0002:0001e618       $unwind$srtp_crypto_free   00000001400a3618     libsrtp-x86_64-x64-vc14-debug-dynamic:alloc.obj
 0002:0001e624       $unwind$srtp_octet_string_hex_string 00000001400a3624     libsrtp-x86_64-x64-vc14-debug-dynamic:datatypes.obj
 0002:0001e62c       $unwind$v128_bit_string    00000001400a362c     libsrtp-x86_64-x64-vc14-debug-dynamic:datatypes.obj
 0002:0001e634       $unwind$v128_hex_string    00000001400a3634     libsrtp-x86_64-x64-vc14-debug-dynamic:datatypes.obj
 0002:0001e63c       $unwind$v128_left_shift    00000001400a363c     libsrtp-x86_64-x64-vc14-debug-dynamic:datatypes.obj
 0002:0001e644       $unwind$v128_right_shift   00000001400a3644     libsrtp-x86_64-x64-vc14-debug-dynamic:datatypes.obj
 0002:0001e64c       $unwind$octet_string_is_eq 00000001400a364c     libsrtp-x86_64-x64-vc14-debug-dynamic:datatypes.obj
 0002:0001e654       $unwind$srtp_cleanse       00000001400a3654     libsrtp-x86_64-x64-vc14-debug-dynamic:datatypes.obj
 0002:0001e65c       $unwind$octet_string_set_to_zero 00000001400a365c     libsrtp-x86_64-x64-vc14-debug-dynamic:datatypes.obj
 0002:0001e664       $unwind$bitvector_alloc    00000001400a3664     libsrtp-x86_64-x64-vc14-debug-dynamic:datatypes.obj
 0002:0001e66c       $unwind$bitvector_dealloc  00000001400a366c     libsrtp-x86_64-x64-vc14-debug-dynamic:datatypes.obj
 0002:0001e674       $unwind$bitvector_set_to_zero 00000001400a3674     libsrtp-x86_64-x64-vc14-debug-dynamic:datatypes.obj
 0002:0001e67c       $unwind$bitvector_left_shift 00000001400a367c     libsrtp-x86_64-x64-vc14-debug-dynamic:datatypes.obj
 0002:0001e684       $unwind$bitvector_bit_string 00000001400a3684     libsrtp-x86_64-x64-vc14-debug-dynamic:datatypes.obj
 0002:0001e68c       $unwind$srtp_nibble_to_hex_char 00000001400a368c     libsrtp-x86_64-x64-vc14-debug-dynamic:datatypes.obj
 0002:0001e6a8       $unwind$srtp_err_report    00000001400a36a8     libsrtp-x86_64-x64-vc14-debug-dynamic:srtp_err.obj
 0002:0001e6b0       $unwind$srtp_rdbx_init     00000001400a36b0     libsrtp-x86_64-x64-vc14-debug-dynamic:rdbx.obj
 0002:0001e6b8       $unwind$srtp_rdbx_dealloc  00000001400a36b8     libsrtp-x86_64-x64-vc14-debug-dynamic:rdbx.obj
 0002:0001e6c0       $unwind$srtp_rdbx_estimate_index 00000001400a36c0     libsrtp-x86_64-x64-vc14-debug-dynamic:rdbx.obj
 0002:0001e6c8       $unwind$srtp_rdbx_check    00000001400a36c8     libsrtp-x86_64-x64-vc14-debug-dynamic:rdbx.obj
 0002:0001e6d0       $unwind$srtp_rdbx_add_index 00000001400a36d0     libsrtp-x86_64-x64-vc14-debug-dynamic:rdbx.obj
 0002:0001e6d8       $unwind$srtp_rdbx_set_roc  00000001400a36d8     libsrtp-x86_64-x64-vc14-debug-dynamic:rdbx.obj
 0002:0001e6e0       $unwind$srtp_index_guess   00000001400a36e0     libsrtp-x86_64-x64-vc14-debug-dynamic:rdbx.obj
 0002:0001e6e8       $unwind$srtp_rdbx_get_roc  00000001400a36e8     libsrtp-x86_64-x64-vc14-debug-dynamic:rdbx.obj
 0002:0001e6f0       $unwind$srtp_rdbx_set_roc_seq 00000001400a36f0     libsrtp-x86_64-x64-vc14-debug-dynamic:rdbx.obj
 0002:0001e700       $unwind$srtp_rdb_add_index 00000001400a3700     libsrtp-x86_64-x64-vc14-debug-dynamic:rdb.obj
 0002:0001e708       $unwind$srtp_cipher_type_self_test 00000001400a3708     libsrtp-x86_64-x64-vc14-debug-dynamic:cipher.obj
 0002:0001e710       $unwind$srtp_cipher_type_test 00000001400a3710     libsrtp-x86_64-x64-vc14-debug-dynamic:cipher.obj
 0002:0001e720       $unwind$srtp_cipher_bits_per_second 00000001400a3720     libsrtp-x86_64-x64-vc14-debug-dynamic:cipher.obj
 0002:0001e730       $unwind$srtp_cipher_type_alloc 00000001400a3730     libsrtp-x86_64-x64-vc14-debug-dynamic:cipher.obj
 0002:0001e738       $unwind$srtp_cipher_dealloc 00000001400a3738     libsrtp-x86_64-x64-vc14-debug-dynamic:cipher.obj
 0002:0001e740       $unwind$srtp_cipher_init   00000001400a3740     libsrtp-x86_64-x64-vc14-debug-dynamic:cipher.obj
 0002:0001e748       $unwind$srtp_cipher_set_iv 00000001400a3748     libsrtp-x86_64-x64-vc14-debug-dynamic:cipher.obj
 0002:0001e750       $unwind$srtp_cipher_output 00000001400a3750     libsrtp-x86_64-x64-vc14-debug-dynamic:cipher.obj
 0002:0001e758       $unwind$srtp_cipher_encrypt 00000001400a3758     libsrtp-x86_64-x64-vc14-debug-dynamic:cipher.obj
 0002:0001e760       $unwind$srtp_cipher_decrypt 00000001400a3760     libsrtp-x86_64-x64-vc14-debug-dynamic:cipher.obj
 0002:0001e768       $unwind$srtp_cipher_get_tag 00000001400a3768     libsrtp-x86_64-x64-vc14-debug-dynamic:cipher.obj
 0002:0001e770       $unwind$srtp_cipher_set_aad 00000001400a3770     libsrtp-x86_64-x64-vc14-debug-dynamic:cipher.obj
 0002:0001e778       $unwind$srtp_cipher_rand   00000001400a3778     libsrtp-x86_64-x64-vc14-debug-dynamic:cipher.obj
 0002:0001e78c       $unwind$srtp_auth_type_self_test 00000001400a378c     libsrtp-x86_64-x64-vc14-debug-dynamic:auth.obj
 0002:0001e794       $unwind$srtp_auth_type_test 00000001400a3794     libsrtp-x86_64-x64-vc14-debug-dynamic:auth.obj
 0002:0001e7a8       $unwind$srtp_replace_cipher_type 00000001400a37a8     libsrtp-x86_64-x64-vc14-debug-dynamic:crypto_kernel.obj
 0002:0001e7b0       $unwind$srtp_replace_auth_type 00000001400a37b0     libsrtp-x86_64-x64-vc14-debug-dynamic:crypto_kernel.obj
 0002:0001e7b8       $unwind$srtp_crypto_kernel_init 00000001400a37b8     libsrtp-x86_64-x64-vc14-debug-dynamic:crypto_kernel.obj
 0002:0001e7c0       $unwind$srtp_crypto_kernel_shutdown 00000001400a37c0     libsrtp-x86_64-x64-vc14-debug-dynamic:crypto_kernel.obj
 0002:0001e7c8       $unwind$srtp_crypto_kernel_status 00000001400a37c8     libsrtp-x86_64-x64-vc14-debug-dynamic:crypto_kernel.obj
 0002:0001e7d0       $unwind$srtp_crypto_kernel_list_debug_modules 00000001400a37d0     libsrtp-x86_64-x64-vc14-debug-dynamic:crypto_kernel.obj
 0002:0001e7d8       $unwind$srtp_crypto_kernel_load_cipher_type 00000001400a37d8     libsrtp-x86_64-x64-vc14-debug-dynamic:crypto_kernel.obj
 0002:0001e7e0       $unwind$srtp_crypto_kernel_load_auth_type 00000001400a37e0     libsrtp-x86_64-x64-vc14-debug-dynamic:crypto_kernel.obj
 0002:0001e7e8       $unwind$srtp_crypto_kernel_load_debug_module 00000001400a37e8     libsrtp-x86_64-x64-vc14-debug-dynamic:crypto_kernel.obj
 0002:0001e7f0       $unwind$srtp_crypto_kernel_alloc_cipher 00000001400a37f0     libsrtp-x86_64-x64-vc14-debug-dynamic:crypto_kernel.obj
 0002:0001e7f8       $unwind$srtp_crypto_kernel_alloc_auth 00000001400a37f8     libsrtp-x86_64-x64-vc14-debug-dynamic:crypto_kernel.obj
 0002:0001e800       $unwind$srtp_crypto_kernel_set_debug_module 00000001400a3800     libsrtp-x86_64-x64-vc14-debug-dynamic:crypto_kernel.obj
 0002:0001e808       $unwind$srtp_crypto_kernel_do_load_cipher_type 00000001400a3808     libsrtp-x86_64-x64-vc14-debug-dynamic:crypto_kernel.obj
 0002:0001e810       $unwind$srtp_crypto_kernel_do_load_auth_type 00000001400a3810     libsrtp-x86_64-x64-vc14-debug-dynamic:crypto_kernel.obj
 0002:0001e818       $unwind$srtp_crypto_kernel_get_cipher_type 00000001400a3818     libsrtp-x86_64-x64-vc14-debug-dynamic:crypto_kernel.obj
 0002:0001e820       $unwind$srtp_crypto_kernel_get_auth_type 00000001400a3820     libsrtp-x86_64-x64-vc14-debug-dynamic:crypto_kernel.obj
 0002:0001e834       $unwind$srtp_ekt_octets_after_base_tag 00000001400a3834     libsrtp-x86_64-x64-vc14-debug-dynamic:ekt.obj
 0002:0001e83c       $unwind$srtp_stream_init_from_ekt 00000001400a383c     libsrtp-x86_64-x64-vc14-debug-dynamic:ekt.obj
 0002:0001e84c       $unwind$srtp_ekt_write_data 00000001400a384c     libsrtp-x86_64-x64-vc14-debug-dynamic:ekt.obj
 0002:0001e854       $unwind$srtcp_packet_get_ekt_spi 00000001400a3854     libsrtp-x86_64-x64-vc14-debug-dynamic:ekt.obj
 0002:0001e85c       $unwind$srtcp_packet_get_ekt_roc 00000001400a385c     libsrtp-x86_64-x64-vc14-debug-dynamic:ekt.obj
 0002:0001e864       $unwind$srtcp_packet_get_emk_location 00000001400a3864     libsrtp-x86_64-x64-vc14-debug-dynamic:ekt.obj
 0002:0001e86c       $unwind$aes_decrypt_with_raw_key 00000001400a386c     libsrtp-x86_64-x64-vc14-debug-dynamic:ekt.obj
 0002:0001e884       $unwind$stat_test_monobit  00000001400a3884     libsrtp-x86_64-x64-vc14-debug-dynamic:stat.obj
 0002:0001e88c       $unwind$stat_test_poker    00000001400a388c     libsrtp-x86_64-x64-vc14-debug-dynamic:stat.obj
 0002:0001e89c       $unwind$stat_test_runs     00000001400a389c     libsrtp-x86_64-x64-vc14-debug-dynamic:stat.obj
 0002:0001e8b0       $unwind$srtp_null_cipher_alloc 00000001400a38b0     libsrtp-x86_64-x64-vc14-debug-dynamic:null_cipher.obj
 0002:0001e8b8       $unwind$srtp_null_cipher_dealloc 00000001400a38b8     libsrtp-x86_64-x64-vc14-debug-dynamic:null_cipher.obj
 0002:0001e8c0       $unwind$srtp_null_cipher_init 00000001400a38c0     libsrtp-x86_64-x64-vc14-debug-dynamic:null_cipher.obj
 0002:0001e8cc       $unwind$srtp_aes_icm_alloc 00000001400a38cc     libsrtp-x86_64-x64-vc14-debug-dynamic:aes_icm.obj
 0002:0001e8d4       $unwind$srtp_aes_icm_dealloc 00000001400a38d4     libsrtp-x86_64-x64-vc14-debug-dynamic:aes_icm.obj
 0002:0001e8dc       $unwind$srtp_aes_icm_context_init 00000001400a38dc     libsrtp-x86_64-x64-vc14-debug-dynamic:aes_icm.obj
 0002:0001e8e4       $unwind$srtp_aes_icm_set_iv 00000001400a38e4     libsrtp-x86_64-x64-vc14-debug-dynamic:aes_icm.obj
 0002:0001e8f4       $unwind$srtp_aes_icm_advance 00000001400a38f4     libsrtp-x86_64-x64-vc14-debug-dynamic:aes_icm.obj
 0002:0001e8fc       $unwind$srtp_aes_icm_encrypt 00000001400a38fc     libsrtp-x86_64-x64-vc14-debug-dynamic:aes_icm.obj
 0002:0001e90c       $unwind$srtp_null_auth_alloc 00000001400a390c     libsrtp-x86_64-x64-vc14-debug-dynamic:null_auth.obj
 0002:0001e914       $unwind$srtp_null_auth_dealloc 00000001400a3914     libsrtp-x86_64-x64-vc14-debug-dynamic:null_auth.obj
 0002:0001e920       $unwind$srtp_hmac_alloc    00000001400a3920     libsrtp-x86_64-x64-vc14-debug-dynamic:hmac.obj
 0002:0001e928       $unwind$srtp_hmac_dealloc  00000001400a3928     libsrtp-x86_64-x64-vc14-debug-dynamic:hmac.obj
 0002:0001e930       $unwind$srtp_hmac_init     00000001400a3930     libsrtp-x86_64-x64-vc14-debug-dynamic:hmac.obj
 0002:0001e940       $unwind$srtp_hmac_start    00000001400a3940     libsrtp-x86_64-x64-vc14-debug-dynamic:hmac.obj
 0002:0001e948       $unwind$srtp_hmac_update   00000001400a3948     libsrtp-x86_64-x64-vc14-debug-dynamic:hmac.obj
 0002:0001e950       $unwind$srtp_hmac_compute  00000001400a3950     libsrtp-x86_64-x64-vc14-debug-dynamic:hmac.obj
 0002:0001e968       $unwind$srtp_aes_expand_encryption_key 00000001400a3968     libsrtp-x86_64-x64-vc14-debug-dynamic:aes.obj
 0002:0001e970       $unwind$srtp_aes_expand_decryption_key 00000001400a3970     libsrtp-x86_64-x64-vc14-debug-dynamic:aes.obj
 0002:0001e980       $unwind$srtp_aes_encrypt   00000001400a3980     libsrtp-x86_64-x64-vc14-debug-dynamic:aes.obj
 0002:0001e988       $unwind$srtp_aes_decrypt   00000001400a3988     libsrtp-x86_64-x64-vc14-debug-dynamic:aes.obj
 0002:0001e990       $unwind$aes_128_expand_encryption_key 00000001400a3990     libsrtp-x86_64-x64-vc14-debug-dynamic:aes.obj
 0002:0001e998       $unwind$aes_256_expand_encryption_key 00000001400a3998     libsrtp-x86_64-x64-vc14-debug-dynamic:aes.obj
 0002:0001e9a0       $unwind$aes_round          00000001400a39a0     libsrtp-x86_64-x64-vc14-debug-dynamic:aes.obj
 0002:0001e9a8       $unwind$aes_inv_round      00000001400a39a8     libsrtp-x86_64-x64-vc14-debug-dynamic:aes.obj
 0002:0001e9b0       $unwind$aes_final_round    00000001400a39b0     libsrtp-x86_64-x64-vc14-debug-dynamic:aes.obj
 0002:0001e9b8       $unwind$aes_inv_final_round 00000001400a39b8     libsrtp-x86_64-x64-vc14-debug-dynamic:aes.obj
 0002:0001e9c8       $unwind$srtp_sha1_update   00000001400a39c8     libsrtp-x86_64-x64-vc14-debug-dynamic:sha1.obj
 0002:0001e9d0       $unwind$srtp_sha1_final    00000001400a39d0     libsrtp-x86_64-x64-vc14-debug-dynamic:sha1.obj
 0002:0001e9e0       $unwind$srtp_sha1_core     00000001400a39e0     libsrtp-x86_64-x64-vc14-debug-dynamic:sha1.obj
 0002:0001e9f0       $unwind$srtp_sha1          00000001400a39f0     libsrtp-x86_64-x64-vc14-debug-dynamic:sha1.obj
 0002:0001ea08       $unwind$__report_securityfailure 00000001400a3a08     MSVCRTD:gs_report.obj
 0002:0001ea10       $unwind$__report_securityfailureEx 00000001400a3a10     MSVCRTD:gs_report.obj
 0002:0001ea18       $unwind$__report_rangecheckfailure 00000001400a3a18     MSVCRTD:gs_report.obj
 0002:0001ea20       $unwind$__report_gsfailure 00000001400a3a20     MSVCRTD:gs_report.obj
 0002:0001ea28       $unwind$capture_current_context 00000001400a3a28     MSVCRTD:gs_report.obj
 0002:0001ea30       $unwind$capture_previous_context 00000001400a3a30     MSVCRTD:gs_report.obj
 0002:0001ea38       $unwind$__raise_securityfailure 00000001400a3a38     MSVCRTD:gs_report.obj
 0002:0001ea40       $unwind$__GSHandlerCheckCommon 00000001400a3a40     MSVCRTD:gshandler.obj
 0002:0001ea48       $unwind$__GSHandlerCheck   00000001400a3a48     MSVCRTD:gshandler.obj
 0002:0001ea50       $xdatasym                  00000001400a3a50     MSVCRTD:chkstk.obj
 0002:0001ea58       $xdatasym                  00000001400a3a58     MSVCRTD:amdsecgs.obj
 0002:0001ea5c       $unwind$?configure_argv@__scrt_narrow_argv_policy@@SAHXZ 00000001400a3a5c     MSVCRTD:exe_main.obj
 0002:0001ea64       $unwind$?initialize_environment@__scrt_narrow_environment_policy@@SAHXZ 00000001400a3a64     MSVCRTD:exe_main.obj
 0002:0001ea6c       $unwind$?set_app_type@__scrt_main_policy@@SAXXZ 00000001400a3a6c     MSVCRTD:exe_main.obj
 0002:0001ea74       $unwind$?set_fmode@__scrt_file_policy@@SAXXZ 00000001400a3a74     MSVCRTD:exe_main.obj
 0002:0001ea7c       $unwind$?set_commode@__scrt_file_policy@@SAXXZ 00000001400a3a7c     MSVCRTD:exe_main.obj
 0002:0001ea84       $unwind$?invoke_main@@YAHXZ 00000001400a3a84     MSVCRTD:exe_main.obj
 0002:0001ea8c       $unwind$?pre_c_initialization@@YAHXZ 00000001400a3a8c     MSVCRTD:exe_main.obj
 0002:0001ea94       $unwind$?post_pgo_initialization@@YAHXZ 00000001400a3a94     MSVCRTD:exe_main.obj
 0002:0001ea9c       $unwind$?pre_cpp_initialization@@YAXXZ 00000001400a3a9c     MSVCRTD:exe_main.obj
 0002:0001eaa4       $unwind$?__scrt_common_main_seh@@YAHXZ 00000001400a3aa4     MSVCRTD:exe_main.obj
 0002:0001eac8       $unwind$?filt$0@?0??__scrt_common_main_seh@@YAHXZ@4HA 00000001400a3ac8     MSVCRTD:exe_main.obj
 0002:0001ead0       $unwind$?__scrt_common_main@@YAHXZ 00000001400a3ad0     MSVCRTD:exe_main.obj
 0002:0001ead8       $unwind$mainCRTStartup     00000001400a3ad8     MSVCRTD:exe_main.obj
 0002:0001eae0       $unwind$atexit             00000001400a3ae0     MSVCRTD:utility.obj
 0002:0001eae8       $unwind$_onexit            00000001400a3ae8     MSVCRTD:utility.obj
 0002:0001eaf0       $unwind$at_quick_exit      00000001400a3af0     MSVCRTD:utility.obj
 0002:0001eaf8       $unwind$__scrt_is_nonwritable_in_current_image 00000001400a3af8     MSVCRTD:utility.obj
 0002:0001eb1c       $unwind$__scrt_is_nonwritable_in_current_image$filt$0 00000001400a3b1c     MSVCRTD:utility.obj
 0002:0001eb24       $unwind$__scrt_acquire_startup_lock 00000001400a3b24     MSVCRTD:utility.obj
 0002:0001eb2c       $unwind$__scrt_release_startup_lock 00000001400a3b2c     MSVCRTD:utility.obj
 0002:0001eb34       $unwind$__scrt_initialize_crt 00000001400a3b34     MSVCRTD:utility.obj
 0002:0001eb3c       $unwind$__scrt_uninitialize_crt 00000001400a3b3c     MSVCRTD:utility.obj
 0002:0001eb44       $unwind$__scrt_initialize_onexit_tables 00000001400a3b44     MSVCRTD:utility.obj
 0002:0001eb54       $unwind$__scrt_dllmain_exception_filter 00000001400a3b54     MSVCRTD:utility.obj
 0002:0001eb5c       $unwind$__scrt_dllmain_before_initialize_c 00000001400a3b5c     MSVCRTD:utility.obj
 0002:0001eb64       $unwind$__scrt_dllmain_after_initialize_c 00000001400a3b64     MSVCRTD:utility.obj
 0002:0001eb6c       $unwind$__scrt_dllmain_uninitialize_c 00000001400a3b6c     MSVCRTD:utility.obj
 0002:0001eb74       $unwind$__scrt_dllmain_uninitialize_critical 00000001400a3b74     MSVCRTD:utility.obj
 0002:0001eb7c       $unwind$__scrt_dllmain_crt_thread_attach 00000001400a3b7c     MSVCRTD:utility.obj
 0002:0001eb84       $unwind$__scrt_dllmain_crt_thread_detach 00000001400a3b84     MSVCRTD:utility.obj
 0002:0001eb8c       $unwind$?is_potentially_valid_image_base@@YA_NQEAX@Z 00000001400a3b8c     MSVCRTD:utility.obj
 0002:0001eb94       $unwind$?find_pe_section@@YAPEAU_IMAGE_SECTION_HEADER@@QEAE_K@Z 00000001400a3b94     MSVCRTD:utility.obj
 0002:0001eb9c       $unwind$__security_init_cookie 00000001400a3b9c     MSVCRTD:gs_support.obj
 0002:0001eba4       $unwind$__get_entropy      00000001400a3ba4     MSVCRTD:gs_support.obj
 0002:0001ebac       $unwind$?__scrt_initialize_type_info@@YAXXZ 00000001400a3bac     MSVCRTD:tncleanup.obj
 0002:0001ebb4       $unwind$?__scrt_uninitialize_type_info@@YAXXZ 00000001400a3bb4     MSVCRTD:tncleanup.obj
 0002:0001ebbc       $unwind$__scrt_initialize_default_local_stdio_options 00000001400a3bbc     MSVCRTD:default_local_stdio_options.obj
 0002:0001ebc4       $unwind$__scrt_is_user_matherr_present 00000001400a3bc4     MSVCRTD:matherr_detection.obj
 0002:0001ebcc       $unwind$__scrt_get_show_window_mode 00000001400a3bcc     MSVCRTD:utility_desktop.obj
 0002:0001ebdc       $unwind$__scrt_is_managed_app 00000001400a3bdc     MSVCRTD:utility_desktop.obj
 0002:0001ebe4       $unwind$__scrt_initialize_mta 00000001400a3be4     MSVCRTD:utility_desktop.obj
 0002:0001ebec       $unwind$__scrt_set_unhandled_exception_filter 00000001400a3bec     MSVCRTD:utility_desktop.obj
 0002:0001ebf4       $unwind$__scrt_fastfail    00000001400a3bf4     MSVCRTD:utility_desktop.obj
 0002:0001ec04       $unwind$__scrt_unhandled_exception_filter 00000001400a3c04     MSVCRTD:utility_desktop.obj
 0002:0001ec0c       $unwind$_RTC_Initialize    00000001400a3c0c     MSVCRTD:initsect.obj
 0002:0001ec1c       $unwind$_RTC_Terminate     00000001400a3c1c     MSVCRTD:initsect.obj
 0002:0001ec2c       $unwind$ReadNoFence64      00000001400a3c2c     MSVCRTD:guard_support.obj
 0002:0001ec34       $unwind$ReadPointerNoFence 00000001400a3c34     MSVCRTD:guard_support.obj
 0002:0001ec3c       $unwind$_guard_icall_checks_enforced 00000001400a3c3c     MSVCRTD:guard_support.obj
 0002:0001ec44       $unwind$__castguard_compat_check 00000001400a3c44     MSVCRTD:guard_support.obj
 0002:0001ec4c       $unwind$__castguard_check_failure_debugbreak 00000001400a3c4c     MSVCRTD:guard_support.obj
 0002:0001ec54       $unwind$__castguard_check_failure_fastfail 00000001400a3c54     MSVCRTD:guard_support.obj
 0002:0001ec5c       $unwind$__castguard_check_failure_os_handled 00000001400a3c5c     MSVCRTD:guard_support.obj
 0002:0001ec64       $unwind$__castguard_slow_path_compat_check 00000001400a3c64     MSVCRTD:guard_support.obj
 0002:0001ec6c       $unwind$__castguard_slow_path_check_debugbreak 00000001400a3c6c     MSVCRTD:guard_support.obj
 0002:0001ec74       $unwind$__castguard_slow_path_check_fastfail 00000001400a3c74     MSVCRTD:guard_support.obj
 0002:0001ec7c       $unwind$__castguard_slow_path_check_os_handled 00000001400a3c7c     MSVCRTD:guard_support.obj
 0002:0001ec84       $unwind$__isa_available_init 00000001400a3c84     MSVCRTD:cpu_disp.obj
 0002:0001ec98       $unwind$__scrt_is_ucrt_dll_in_use 00000001400a3c98     MSVCRTD:ucrt_detection.obj
 0002:0001eca0       $xdatasym                  00000001400a3ca0     MSVCRTD:guard_dispatch.obj
 0002:0001eca8       $xdatasym                  00000001400a3ca8     MSVCRTD:guard_xfg_dispatch.obj
 0003:00000000       $SG26703                   00000001400a4000     confsample.obj
 0003:00000558       $SG26602                   00000001400a4558     confsample.obj
 0003:0000056c       $SG26650                   00000001400a456c     confsample.obj
 0003:00000570       $SG26652                   00000001400a4570     confsample.obj
 0003:00000578       $SG26654                   00000001400a4578     confsample.obj
 0003:00000580       $SG26656                   00000001400a4580     confsample.obj
 0003:00000588       $SG26658                   00000001400a4588     confsample.obj
 0003:0000058c       $SG26822                   00000001400a458c     confsample.obj
 0003:00000590       $SG26659                   00000001400a4590     confsample.obj
 0003:000005a0       $SG26663                   00000001400a45a0     confsample.obj
 0003:000005c8       $SG26667                   00000001400a45c8     confsample.obj
 0003:000005f0       $SG26671                   00000001400a45f0     confsample.obj
 0003:00000610       $SG26675                   00000001400a4610     confsample.obj
 0003:00000638       $SG26679                   00000001400a4638     confsample.obj
 0003:00000660       $SG26682                   00000001400a4660     confsample.obj
 0003:00000680       $SG26701                   00000001400a4680     confsample.obj
 0003:000006b0       desc                       00000001400a46b0     confsample.obj
 0003:000006b8       $SG26736                   00000001400a46b8     confsample.obj
 0003:000006d0       $SG26815                   00000001400a46d0     confsample.obj
 0003:00000708       $SG26816                   00000001400a4708     confsample.obj
 0003:00000738       $SG26818                   00000001400a4738     confsample.obj
 0003:00000748       $SG26820                   00000001400a4748     confsample.obj
 0003:00000780       $SG26821                   00000001400a4780     confsample.obj
 0003:000007b0       $SG26824                   00000001400a47b0     confsample.obj
 0003:000007d8       $SG26825                   00000001400a47d8     confsample.obj
 0003:000007e8       $SG26826                   00000001400a47e8     confsample.obj
 0003:000007f8       $SG26828                   00000001400a47f8     confsample.obj
 0003:00000818       $SG26829                   00000001400a4818     confsample.obj
 0003:00000828       $SG26831                   00000001400a4828     confsample.obj
 0003:00000840       $SG26832                   00000001400a4840     confsample.obj
 0003:00000850       $SG26834                   00000001400a4850     confsample.obj
 0003:00000870       $SG26835                   00000001400a4870     confsample.obj
 0003:00000880       $SG26836                   00000001400a4880     confsample.obj
 0003:00000890       $SG26839                   00000001400a4890     confsample.obj
 0003:00000898       $SG26840                   00000001400a4898     confsample.obj
 0003:000008b8       $SG26841                   00000001400a48b8     confsample.obj
 0003:000008e0       $SG26842                   00000001400a48e0     confsample.obj
 0003:00000908       $SG26843                   00000001400a4908     confsample.obj
 0003:00000940       $SG26844                   00000001400a4940     confsample.obj
 0003:00000978       $SG26845                   00000001400a4978     confsample.obj
 0003:000009a8       $SG26846                   00000001400a49a8     confsample.obj
 0003:000009b8       $SG26848                   00000001400a49b8     confsample.obj
 0003:000009d0       $SG26854                   00000001400a49d0     confsample.obj
 0003:000009f8       $SG26856                   00000001400a49f8     confsample.obj
 0003:00000a18       $SG26859                   00000001400a4a18     confsample.obj
 0003:00000a30       $SG26861                   00000001400a4a30     confsample.obj
 0003:00000a50       $SG26864                   00000001400a4a50     confsample.obj
 0003:00000a68       $SG26866                   00000001400a4a68     confsample.obj
 0003:00000a80       $SG26867                   00000001400a4a80     confsample.obj
 0003:00000a90       $SG26870                   00000001400a4a90     confsample.obj
 0003:00000ab0       $SG26872                   00000001400a4ab0     confsample.obj
 0003:00000ad0       $SG26875                   00000001400a4ad0     confsample.obj
 0003:00000ae8       $SG26877                   00000001400a4ae8     confsample.obj
 0003:00000b08       $SG26880                   00000001400a4b08     confsample.obj
 0003:00000b20       $SG26882                   00000001400a4b20     confsample.obj
 0003:00000b38       $SG26883                   00000001400a4b38     confsample.obj
 0003:00000b48       $SG26886                   00000001400a4b48     confsample.obj
 0003:00000b68       $SG26888                   00000001400a4b68     confsample.obj
 0003:00000b80       $SG26891                   00000001400a4b80     confsample.obj
 0003:00000b98       $SG26893                   00000001400a4b98     confsample.obj
 0003:00000bc8       $SG26896                   00000001400a4bc8     confsample.obj
 0003:00000bd8       $SG26898                   00000001400a4bd8     confsample.obj
 0003:00000bf0       $SG26899                   00000001400a4bf0     confsample.obj
 0003:00000c00       $SG26902                   00000001400a4c00     confsample.obj
 0003:00000c20       $SG26904                   00000001400a4c20     confsample.obj
 0003:00000c38       $SG26907                   00000001400a4c38     confsample.obj
 0003:00000c50       $SG26909                   00000001400a4c50     confsample.obj
 0003:00000c80       $SG26912                   00000001400a4c80     confsample.obj
 0003:00000c90       $SG26914                   00000001400a4c90     confsample.obj
 0003:00000ca8       $SG26915                   00000001400a4ca8     confsample.obj
 0003:00000cb8       $SG26918                   00000001400a4cb8     confsample.obj
 0003:00000cd0       $SG26920                   00000001400a4cd0     confsample.obj
 0003:00000cf0       $SG26923                   00000001400a4cf0     confsample.obj
 0003:00000d08       $SG26925                   00000001400a4d08     confsample.obj
 0003:00000d30       $SG26927                   00000001400a4d30     confsample.obj
 0003:00000d40       $SG26929                   00000001400a4d40     confsample.obj
 0003:00000d68       $SG26931                   00000001400a4d68     confsample.obj
 0003:00000d80       $SG26934                   00000001400a4d80     confsample.obj
 0003:00000da0       $SG26936                   00000001400a4da0     confsample.obj
 0003:00000dd8       $SG26937                   00000001400a4dd8     confsample.obj
 0003:00000e08       $SG26939                   00000001400a4e08     confsample.obj
 0003:00000e40       $SG26940                   00000001400a4e40     confsample.obj
 0003:00000e70       $SG26968                   00000001400a4e70     confsample.obj
 0003:00000e84       $SG26969                   00000001400a4e84     confsample.obj
 0003:00000e90       $SG26973                   00000001400a4e90     confsample.obj
 0003:00000ec0       $SG26974                   00000001400a4ec0     confsample.obj
 0003:00000fc8       $SG27009                   00000001400a4fc8     confsample.obj
 0003:00001000       $SG27011                   00000001400a5000     confsample.obj
 0003:00001018       $SG27012                   00000001400a5018     confsample.obj
 0003:00001028       $SG27014                   00000001400a5028     confsample.obj
 0003:00001390       $SG15485                   00000001400a5390     pjmedia-audiodev-x86_64-x64-vc14-debug-dynamic:audiodev.obj
 0003:000014a8       $SG15486                   00000001400a54a8     pjmedia-audiodev-x86_64-x64-vc14-debug-dynamic:audiodev.obj
 0003:00001520       $SG61333                   00000001400a5520     pjmedia-audiodev-x86_64-x64-vc14-debug-dynamic:errno.obj
 0003:00001558       $SG61334                   00000001400a5558     pjmedia-audiodev-x86_64-x64-vc14-debug-dynamic:errno.obj
 0003:00001590       $SG61335                   00000001400a5590     pjmedia-audiodev-x86_64-x64-vc14-debug-dynamic:errno.obj
 0003:000015c8       $SG61336                   00000001400a55c8     pjmedia-audiodev-x86_64-x64-vc14-debug-dynamic:errno.obj
 0003:000015f8       $SG61337                   00000001400a55f8     pjmedia-audiodev-x86_64-x64-vc14-debug-dynamic:errno.obj
 0003:00001628       $SG61338                   00000001400a5628     pjmedia-audiodev-x86_64-x64-vc14-debug-dynamic:errno.obj
 0003:00001668       $SG61339                   00000001400a5668     pjmedia-audiodev-x86_64-x64-vc14-debug-dynamic:errno.obj
 0003:00001698       $SG61340                   00000001400a5698     pjmedia-audiodev-x86_64-x64-vc14-debug-dynamic:errno.obj
 0003:000016e0       $SG61341                   00000001400a56e0     pjmedia-audiodev-x86_64-x64-vc14-debug-dynamic:errno.obj
 0003:00001728       $SG61342                   00000001400a5728     pjmedia-audiodev-x86_64-x64-vc14-debug-dynamic:errno.obj
 0003:00001768       $SG61343                   00000001400a5768     pjmedia-audiodev-x86_64-x64-vc14-debug-dynamic:errno.obj
 0003:000017a8       $SG61344                   00000001400a57a8     pjmedia-audiodev-x86_64-x64-vc14-debug-dynamic:errno.obj
 0003:000017e0       $SG61380                   00000001400a57e0     pjmedia-audiodev-x86_64-x64-vc14-debug-dynamic:errno.obj
 0003:00001800       $SG61387                   00000001400a5800     pjmedia-audiodev-x86_64-x64-vc14-debug-dynamic:errno.obj
 0003:000018c0       factory_op                 00000001400a58c0     pjmedia-audiodev-x86_64-x64-vc14-debug-dynamic:wmme_dev.obj
 0003:000018f8       stream_op                  00000001400a58f8     pjmedia-audiodev-x86_64-x64-vc14-debug-dynamic:wmme_dev.obj
 0003:00001928       $SG67699                   00000001400a5928     pjmedia-audiodev-x86_64-x64-vc14-debug-dynamic:wmme_dev.obj
 0003:00001938       $SG67722                   00000001400a5938     pjmedia-audiodev-x86_64-x64-vc14-debug-dynamic:wmme_dev.obj
 0003:00001944       $SG67723                   00000001400a5944     pjmedia-audiodev-x86_64-x64-vc14-debug-dynamic:wmme_dev.obj
 0003:0000194c       $SG67910                   00000001400a594c     pjmedia-audiodev-x86_64-x64-vc14-debug-dynamic:wmme_dev.obj
 0003:00001950       $SG67740                   00000001400a5950     pjmedia-audiodev-x86_64-x64-vc14-debug-dynamic:wmme_dev.obj
 0003:00001968       $SG67741                   00000001400a5968     pjmedia-audiodev-x86_64-x64-vc14-debug-dynamic:wmme_dev.obj
 0003:00001974       $SG67807                   00000001400a5974     pjmedia-audiodev-x86_64-x64-vc14-debug-dynamic:wmme_dev.obj
 0003:00001980       $SG67811                   00000001400a5980     pjmedia-audiodev-x86_64-x64-vc14-debug-dynamic:wmme_dev.obj
 0003:000019a0       $SG67812                   00000001400a59a0     pjmedia-audiodev-x86_64-x64-vc14-debug-dynamic:wmme_dev.obj
 0003:000019b0       $SG67824                   00000001400a59b0     pjmedia-audiodev-x86_64-x64-vc14-debug-dynamic:wmme_dev.obj
 0003:000019c8       $SG67825                   00000001400a59c8     pjmedia-audiodev-x86_64-x64-vc14-debug-dynamic:wmme_dev.obj
 0003:000019d8       $SG67827                   00000001400a59d8     pjmedia-audiodev-x86_64-x64-vc14-debug-dynamic:wmme_dev.obj
 0003:000019f8       $SG67828                   00000001400a59f8     pjmedia-audiodev-x86_64-x64-vc14-debug-dynamic:wmme_dev.obj
 0003:00001a08       $SG67857                   00000001400a5a08     pjmedia-audiodev-x86_64-x64-vc14-debug-dynamic:wmme_dev.obj
 0003:00001a34       $SG68219                   00000001400a5a34     pjmedia-audiodev-x86_64-x64-vc14-debug-dynamic:wmme_dev.obj
 0003:00001a40       $SG67856                   00000001400a5a40     pjmedia-audiodev-x86_64-x64-vc14-debug-dynamic:wmme_dev.obj
 0003:00001b58       $SG67875                   00000001400a5b58     pjmedia-audiodev-x86_64-x64-vc14-debug-dynamic:wmme_dev.obj
 0003:00001b90       $SG67874                   00000001400a5b90     pjmedia-audiodev-x86_64-x64-vc14-debug-dynamic:wmme_dev.obj
 0003:00001cb0       $SG67957                   00000001400a5cb0     pjmedia-audiodev-x86_64-x64-vc14-debug-dynamic:wmme_dev.obj
 0003:00001dd0       $SG67958                   00000001400a5dd0     pjmedia-audiodev-x86_64-x64-vc14-debug-dynamic:wmme_dev.obj
 0003:00001e20       $SG67967                   00000001400a5e20     pjmedia-audiodev-x86_64-x64-vc14-debug-dynamic:wmme_dev.obj
 0003:00001e98       $SG67968                   00000001400a5e98     pjmedia-audiodev-x86_64-x64-vc14-debug-dynamic:wmme_dev.obj
 0003:00001eb0       $SG68013                   00000001400a5eb0     pjmedia-audiodev-x86_64-x64-vc14-debug-dynamic:wmme_dev.obj
 0003:00001fd0       $SG68014                   00000001400a5fd0     pjmedia-audiodev-x86_64-x64-vc14-debug-dynamic:wmme_dev.obj
 0003:00002020       $SG68021                   00000001400a6020     pjmedia-audiodev-x86_64-x64-vc14-debug-dynamic:wmme_dev.obj
 0003:00002098       $SG68022                   00000001400a6098     pjmedia-audiodev-x86_64-x64-vc14-debug-dynamic:wmme_dev.obj
 0003:000020a8       $SG68124                   00000001400a60a8     pjmedia-audiodev-x86_64-x64-vc14-debug-dynamic:wmme_dev.obj
 0003:000020d0       $SG68125                   00000001400a60d0     pjmedia-audiodev-x86_64-x64-vc14-debug-dynamic:wmme_dev.obj
 0003:000021e8       $SG68126                   00000001400a61e8     pjmedia-audiodev-x86_64-x64-vc14-debug-dynamic:wmme_dev.obj
 0003:00002220       $SG68129                   00000001400a6220     pjmedia-audiodev-x86_64-x64-vc14-debug-dynamic:wmme_dev.obj
 0003:00002240       $SG68130                   00000001400a6240     pjmedia-audiodev-x86_64-x64-vc14-debug-dynamic:wmme_dev.obj
 0003:00002358       $SG68131                   00000001400a6358     pjmedia-audiodev-x86_64-x64-vc14-debug-dynamic:wmme_dev.obj
 0003:00002390       $SG68137                   00000001400a6390     pjmedia-audiodev-x86_64-x64-vc14-debug-dynamic:wmme_dev.obj
 0003:000023b0       $SG68138                   00000001400a63b0     pjmedia-audiodev-x86_64-x64-vc14-debug-dynamic:wmme_dev.obj
 0003:000024c8       $SG68139                   00000001400a64c8     pjmedia-audiodev-x86_64-x64-vc14-debug-dynamic:wmme_dev.obj
 0003:00002500       $SG68141                   00000001400a6500     pjmedia-audiodev-x86_64-x64-vc14-debug-dynamic:wmme_dev.obj
 0003:00002530       $SG68142                   00000001400a6530     pjmedia-audiodev-x86_64-x64-vc14-debug-dynamic:wmme_dev.obj
 0003:00002540       $SG68148                   00000001400a6540     pjmedia-audiodev-x86_64-x64-vc14-debug-dynamic:wmme_dev.obj
 0003:00002560       $SG68149                   00000001400a6560     pjmedia-audiodev-x86_64-x64-vc14-debug-dynamic:wmme_dev.obj
 0003:00002570       $SG68153                   00000001400a6570     pjmedia-audiodev-x86_64-x64-vc14-debug-dynamic:wmme_dev.obj
 0003:00002588       $SG68154                   00000001400a6588     pjmedia-audiodev-x86_64-x64-vc14-debug-dynamic:wmme_dev.obj
 0003:00002598       $SG68156                   00000001400a6598     pjmedia-audiodev-x86_64-x64-vc14-debug-dynamic:wmme_dev.obj
 0003:000025c0       $SG68157                   00000001400a65c0     pjmedia-audiodev-x86_64-x64-vc14-debug-dynamic:wmme_dev.obj
 0003:000025d0       $SG68158                   00000001400a65d0     pjmedia-audiodev-x86_64-x64-vc14-debug-dynamic:wmme_dev.obj
 0003:000026f0       $SG68159                   00000001400a66f0     pjmedia-audiodev-x86_64-x64-vc14-debug-dynamic:wmme_dev.obj
 0003:00002738       $SG68206                   00000001400a6738     pjmedia-audiodev-x86_64-x64-vc14-debug-dynamic:wmme_dev.obj
 0003:00002750       $SG68208                   00000001400a6750     pjmedia-audiodev-x86_64-x64-vc14-debug-dynamic:wmme_dev.obj
 0003:00002868       $SG68209                   00000001400a6868     pjmedia-audiodev-x86_64-x64-vc14-debug-dynamic:wmme_dev.obj
 0003:00002890       $SG68236                   00000001400a6890     pjmedia-audiodev-x86_64-x64-vc14-debug-dynamic:wmme_dev.obj
 0003:000029a8       $SG68237                   00000001400a69a8     pjmedia-audiodev-x86_64-x64-vc14-debug-dynamic:wmme_dev.obj
 0003:000029c0       $SG68261                   00000001400a69c0     pjmedia-audiodev-x86_64-x64-vc14-debug-dynamic:wmme_dev.obj
 0003:00002ad8       $SG68262                   00000001400a6ad8     pjmedia-audiodev-x86_64-x64-vc14-debug-dynamic:wmme_dev.obj
 0003:00002af0       $SG68293                   00000001400a6af0     pjmedia-audiodev-x86_64-x64-vc14-debug-dynamic:wmme_dev.obj
 0003:00002c08       $SG68294                   00000001400a6c08     pjmedia-audiodev-x86_64-x64-vc14-debug-dynamic:wmme_dev.obj
 0003:00002c20       $SG68317                   00000001400a6c20     pjmedia-audiodev-x86_64-x64-vc14-debug-dynamic:wmme_dev.obj
 0003:00002c40       $SG68318                   00000001400a6c40     pjmedia-audiodev-x86_64-x64-vc14-debug-dynamic:wmme_dev.obj
 0003:00002c50       $SG68322                   00000001400a6c50     pjmedia-audiodev-x86_64-x64-vc14-debug-dynamic:wmme_dev.obj
 0003:00002c70       $SG68323                   00000001400a6c70     pjmedia-audiodev-x86_64-x64-vc14-debug-dynamic:wmme_dev.obj
 0003:00002c80       $SG68348                   00000001400a6c80     pjmedia-audiodev-x86_64-x64-vc14-debug-dynamic:wmme_dev.obj
 0003:00002d98       $SG68349                   00000001400a6d98     pjmedia-audiodev-x86_64-x64-vc14-debug-dynamic:wmme_dev.obj
 0003:00002dc8       $SG68353                   00000001400a6dc8     pjmedia-audiodev-x86_64-x64-vc14-debug-dynamic:wmme_dev.obj
 0003:00002de8       $SG68354                   00000001400a6de8     pjmedia-audiodev-x86_64-x64-vc14-debug-dynamic:wmme_dev.obj
 0003:00002df8       $SG68358                   00000001400a6df8     pjmedia-audiodev-x86_64-x64-vc14-debug-dynamic:wmme_dev.obj
 0003:00002e18       $SG68359                   00000001400a6e18     pjmedia-audiodev-x86_64-x64-vc14-debug-dynamic:wmme_dev.obj
 0003:00002e30       $SG68388                   00000001400a6e30     pjmedia-audiodev-x86_64-x64-vc14-debug-dynamic:wmme_dev.obj
 0003:00002f48       $SG68389                   00000001400a6f48     pjmedia-audiodev-x86_64-x64-vc14-debug-dynamic:wmme_dev.obj
 0003:00003400       $SG19013                   00000001400a7400     pjmedia-x86_64-x64-vc14-debug-dynamic:port.obj
 0003:000034f8       $SG19014                   00000001400a74f8     pjmedia-x86_64-x64-vc14-debug-dynamic:port.obj
 0003:00003530       $SG19046                   00000001400a7530     pjmedia-x86_64-x64-vc14-debug-dynamic:port.obj
 0003:00003628       $SG19047                   00000001400a7628     pjmedia-x86_64-x64-vc14-debug-dynamic:port.obj
 0003:00003650       $SG19062                   00000001400a7650     pjmedia-x86_64-x64-vc14-debug-dynamic:port.obj
 0003:00003748       $SG19063                   00000001400a7748     pjmedia-x86_64-x64-vc14-debug-dynamic:port.obj
 0003:00003770       $SG19076                   00000001400a7770     pjmedia-x86_64-x64-vc14-debug-dynamic:port.obj
 0003:00003868       $SG19077                   00000001400a7868     pjmedia-x86_64-x64-vc14-debug-dynamic:port.obj
 0003:00003960       $SG18632                   00000001400a7960     pjmedia-x86_64-x64-vc14-debug-dynamic:conference.obj
 0003:00003a60       $SG18633                   00000001400a7a60     pjmedia-x86_64-x64-vc14-debug-dynamic:conference.obj
 0003:00003b10       $SG19516                   00000001400a7b10     pjmedia-x86_64-x64-vc14-debug-dynamic:conference.obj
 0003:00003c14       $SG19972                   00000001400a7c14     pjmedia-x86_64-x64-vc14-debug-dynamic:conference.obj
 0003:00003c20       $SG19517                   00000001400a7c20     pjmedia-x86_64-x64-vc14-debug-dynamic:conference.obj
 0003:00003cc8       $SG19847                   00000001400a7cc8     pjmedia-x86_64-x64-vc14-debug-dynamic:conference.obj
 0003:00003ce0       $SG19555                   00000001400a7ce0     pjmedia-x86_64-x64-vc14-debug-dynamic:conference.obj
 0003:00003de4       $SG19989                   00000001400a7de4     pjmedia-x86_64-x64-vc14-debug-dynamic:conference.obj
 0003:00003df0       $SG19556                   00000001400a7df0     pjmedia-x86_64-x64-vc14-debug-dynamic:conference.obj
 0003:00003e58       $SG19850                   00000001400a7e58     pjmedia-x86_64-x64-vc14-debug-dynamic:conference.obj
 0003:00003e90       $SG19558                   00000001400a7e90     pjmedia-x86_64-x64-vc14-debug-dynamic:conference.obj
 0003:00003f98       $SG19559                   00000001400a7f98     pjmedia-x86_64-x64-vc14-debug-dynamic:conference.obj
 0003:00003fb8       $SG19853                   00000001400a7fb8     pjmedia-x86_64-x64-vc14-debug-dynamic:conference.obj
 0003:00004000       $SG19846                   00000001400a8000     pjmedia-x86_64-x64-vc14-debug-dynamic:conference.obj
 0003:00004110       $SG19849                   00000001400a8110     pjmedia-x86_64-x64-vc14-debug-dynamic:conference.obj
 0003:00004220       $SG19852                   00000001400a8220     pjmedia-x86_64-x64-vc14-debug-dynamic:conference.obj
 0003:00004330       $SG19868                   00000001400a8330     pjmedia-x86_64-x64-vc14-debug-dynamic:conference.obj
 0003:00004438       $SG19869                   00000001400a8438     pjmedia-x86_64-x64-vc14-debug-dynamic:conference.obj
 0003:00004460       $SG19871                   00000001400a8460     pjmedia-x86_64-x64-vc14-debug-dynamic:conference.obj
 0003:00004568       $SG19872                   00000001400a8568     pjmedia-x86_64-x64-vc14-debug-dynamic:conference.obj
 0003:00004590       $SG19874                   00000001400a8590     pjmedia-x86_64-x64-vc14-debug-dynamic:conference.obj
 0003:00004698       $SG19875                   00000001400a8698     pjmedia-x86_64-x64-vc14-debug-dynamic:conference.obj
 0003:000046c0       $SG19910                   00000001400a86c0     pjmedia-x86_64-x64-vc14-debug-dynamic:conference.obj
 0003:000046d0       $SG19920                   00000001400a86d0     pjmedia-x86_64-x64-vc14-debug-dynamic:conference.obj
 0003:00004700       $SG19921                   00000001400a8700     pjmedia-x86_64-x64-vc14-debug-dynamic:conference.obj
 0003:00004710       $SG19974                   00000001400a8710     pjmedia-x86_64-x64-vc14-debug-dynamic:conference.obj
 0003:00004818       $SG19975                   00000001400a8818     pjmedia-x86_64-x64-vc14-debug-dynamic:conference.obj
 0003:00004848       $SG19977                   00000001400a8848     pjmedia-x86_64-x64-vc14-debug-dynamic:conference.obj
 0003:00004878       $SG19978                   00000001400a8878     pjmedia-x86_64-x64-vc14-debug-dynamic:conference.obj
 0003:00004890       $SG19980                   00000001400a8890     pjmedia-x86_64-x64-vc14-debug-dynamic:conference.obj
 0003:00004998       $SG19981                   00000001400a8998     pjmedia-x86_64-x64-vc14-debug-dynamic:conference.obj
 0003:000049b0       $SG19983                   00000001400a89b0     pjmedia-x86_64-x64-vc14-debug-dynamic:conference.obj
 0003:00004ab8       $SG19984                   00000001400a8ab8     pjmedia-x86_64-x64-vc14-debug-dynamic:conference.obj
 0003:00004ad0       $SG19986                   00000001400a8ad0     pjmedia-x86_64-x64-vc14-debug-dynamic:conference.obj
 0003:00004bd8       $SG19987                   00000001400a8bd8     pjmedia-x86_64-x64-vc14-debug-dynamic:conference.obj
 0003:00004c00       $SG20024                   00000001400a8c00     pjmedia-x86_64-x64-vc14-debug-dynamic:conference.obj
 0003:00004d08       $SG20025                   00000001400a8d08     pjmedia-x86_64-x64-vc14-debug-dynamic:conference.obj
 0003:00004d30       $SG20055                   00000001400a8d30     pjmedia-x86_64-x64-vc14-debug-dynamic:conference.obj
 0003:00004e38       $SG20056                   00000001400a8e38     pjmedia-x86_64-x64-vc14-debug-dynamic:conference.obj
 0003:00004e60       $SG20058                   00000001400a8e60     pjmedia-x86_64-x64-vc14-debug-dynamic:conference.obj
 0003:00004f70       $SG20059                   00000001400a8f70     pjmedia-x86_64-x64-vc14-debug-dynamic:conference.obj
 0003:00004fd0       $SG20077                   00000001400a8fd0     pjmedia-x86_64-x64-vc14-debug-dynamic:conference.obj
 0003:000050e0       $SG20078                   00000001400a90e0     pjmedia-x86_64-x64-vc14-debug-dynamic:conference.obj
 0003:00005140       $SG20113                   00000001400a9140     pjmedia-x86_64-x64-vc14-debug-dynamic:conference.obj
 0003:00005248       $SG20114                   00000001400a9248     pjmedia-x86_64-x64-vc14-debug-dynamic:conference.obj
 0003:00005280       $SG20117                   00000001400a9280     pjmedia-x86_64-x64-vc14-debug-dynamic:conference.obj
 0003:000052a0       $SG20118                   00000001400a92a0     pjmedia-x86_64-x64-vc14-debug-dynamic:conference.obj
 0003:000053a8       $SG20119                   00000001400a93a8     pjmedia-x86_64-x64-vc14-debug-dynamic:conference.obj
 0003:000053e8       $SG20121                   00000001400a93e8     pjmedia-x86_64-x64-vc14-debug-dynamic:conference.obj
 0003:00005400       $SG20122                   00000001400a9400     pjmedia-x86_64-x64-vc14-debug-dynamic:conference.obj
 0003:00005508       $SG20123                   00000001400a9508     pjmedia-x86_64-x64-vc14-debug-dynamic:conference.obj
 0003:00005530       $SG20125                   00000001400a9530     pjmedia-x86_64-x64-vc14-debug-dynamic:conference.obj
 0003:00005638       $SG20126                   00000001400a9638     pjmedia-x86_64-x64-vc14-debug-dynamic:conference.obj
 0003:00005670       $SG20147                   00000001400a9670     pjmedia-x86_64-x64-vc14-debug-dynamic:conference.obj
 0003:00005778       $SG20148                   00000001400a9778     pjmedia-x86_64-x64-vc14-debug-dynamic:conference.obj
 0003:000057c0       $SG20185                   00000001400a97c0     pjmedia-x86_64-x64-vc14-debug-dynamic:conference.obj
 0003:000058d0       $SG20186                   00000001400a98d0     pjmedia-x86_64-x64-vc14-debug-dynamic:conference.obj
 0003:00005950       $SG20188                   00000001400a9950     pjmedia-x86_64-x64-vc14-debug-dynamic:conference.obj
 0003:00005a58       $SG20189                   00000001400a9a58     pjmedia-x86_64-x64-vc14-debug-dynamic:conference.obj
 0003:00005a80       $SG20196                   00000001400a9a80     pjmedia-x86_64-x64-vc14-debug-dynamic:conference.obj
 0003:00005ab0       $SG20197                   00000001400a9ab0     pjmedia-x86_64-x64-vc14-debug-dynamic:conference.obj
 0003:00005ac0       $SG20229                   00000001400a9ac0     pjmedia-x86_64-x64-vc14-debug-dynamic:conference.obj
 0003:00005bd0       $SG20230                   00000001400a9bd0     pjmedia-x86_64-x64-vc14-debug-dynamic:conference.obj
 0003:00005c50       $SG20235                   00000001400a9c50     pjmedia-x86_64-x64-vc14-debug-dynamic:conference.obj
 0003:00005d60       $SG20236                   00000001400a9d60     pjmedia-x86_64-x64-vc14-debug-dynamic:conference.obj
 0003:00005df0       $SG20237                   00000001400a9df0     pjmedia-x86_64-x64-vc14-debug-dynamic:conference.obj
 0003:00005f00       $SG20238                   00000001400a9f00     pjmedia-x86_64-x64-vc14-debug-dynamic:conference.obj
 0003:00005fa0       $SG20240                   00000001400a9fa0     pjmedia-x86_64-x64-vc14-debug-dynamic:conference.obj
 0003:00005fd8       $SG20241                   00000001400a9fd8     pjmedia-x86_64-x64-vc14-debug-dynamic:conference.obj
 0003:00005ff0       $SG20287                   00000001400a9ff0     pjmedia-x86_64-x64-vc14-debug-dynamic:conference.obj
 0003:000060f8       $SG20288                   00000001400aa0f8     pjmedia-x86_64-x64-vc14-debug-dynamic:conference.obj
 0003:00006140       $SG20293                   00000001400aa140     pjmedia-x86_64-x64-vc14-debug-dynamic:conference.obj
 0003:00006248       $SG20294                   00000001400aa248     pjmedia-x86_64-x64-vc14-debug-dynamic:conference.obj
 0003:00006280       $SG20295                   00000001400aa280     pjmedia-x86_64-x64-vc14-debug-dynamic:conference.obj
 0003:00006388       $SG20296                   00000001400aa388     pjmedia-x86_64-x64-vc14-debug-dynamic:conference.obj
 0003:000063c0       $SG20320                   00000001400aa3c0     pjmedia-x86_64-x64-vc14-debug-dynamic:conference.obj
 0003:000064c8       $SG20321                   00000001400aa4c8     pjmedia-x86_64-x64-vc14-debug-dynamic:conference.obj
 0003:00006500       $SG20339                   00000001400aa500     pjmedia-x86_64-x64-vc14-debug-dynamic:conference.obj
 0003:00006608       $SG20340                   00000001400aa608     pjmedia-x86_64-x64-vc14-debug-dynamic:conference.obj
 0003:00006650       $SG20361                   00000001400aa650     pjmedia-x86_64-x64-vc14-debug-dynamic:conference.obj
 0003:00006758       $SG20362                   00000001400aa758     pjmedia-x86_64-x64-vc14-debug-dynamic:conference.obj
 0003:00006790       $SG20384                   00000001400aa790     pjmedia-x86_64-x64-vc14-debug-dynamic:conference.obj
 0003:00006898       $SG20385                   00000001400aa898     pjmedia-x86_64-x64-vc14-debug-dynamic:conference.obj
 0003:000068e0       $SG20410                   00000001400aa8e0     pjmedia-x86_64-x64-vc14-debug-dynamic:conference.obj
 0003:000069e8       $SG20411                   00000001400aa9e8     pjmedia-x86_64-x64-vc14-debug-dynamic:conference.obj
 0003:00006a30       $SG20413                   00000001400aaa30     pjmedia-x86_64-x64-vc14-debug-dynamic:conference.obj
 0003:00006b38       $SG20414                   00000001400aab38     pjmedia-x86_64-x64-vc14-debug-dynamic:conference.obj
 0003:00006b60       $SG20437                   00000001400aab60     pjmedia-x86_64-x64-vc14-debug-dynamic:conference.obj
 0003:00006c68       $SG20438                   00000001400aac68     pjmedia-x86_64-x64-vc14-debug-dynamic:conference.obj
 0003:00006cb0       $SG20440                   00000001400aacb0     pjmedia-x86_64-x64-vc14-debug-dynamic:conference.obj
 0003:00006db8       $SG20441                   00000001400aadb8     pjmedia-x86_64-x64-vc14-debug-dynamic:conference.obj
 0003:00006de0       $SG20470                   00000001400aade0     pjmedia-x86_64-x64-vc14-debug-dynamic:conference.obj
 0003:00006ef0       $SG20471                   00000001400aaef0     pjmedia-x86_64-x64-vc14-debug-dynamic:conference.obj
 0003:00006f70       $SG20473                   00000001400aaf70     pjmedia-x86_64-x64-vc14-debug-dynamic:conference.obj
 0003:00007078       $SG20474                   00000001400ab078     pjmedia-x86_64-x64-vc14-debug-dynamic:conference.obj
 0003:000070a0       $SG20511                   00000001400ab0a0     pjmedia-x86_64-x64-vc14-debug-dynamic:conference.obj
 0003:000071b0       $SG20512                   00000001400ab1b0     pjmedia-x86_64-x64-vc14-debug-dynamic:conference.obj
 0003:00007200       $SG20524                   00000001400ab200     pjmedia-x86_64-x64-vc14-debug-dynamic:conference.obj
 0003:00007310       $SG20525                   00000001400ab310     pjmedia-x86_64-x64-vc14-debug-dynamic:conference.obj
 0003:00007370       $SG20589                   00000001400ab370     pjmedia-x86_64-x64-vc14-debug-dynamic:conference.obj
 0003:00007480       $SG20590                   00000001400ab480     pjmedia-x86_64-x64-vc14-debug-dynamic:conference.obj
 0003:000074e0       $SG20668                   00000001400ab4e0     pjmedia-x86_64-x64-vc14-debug-dynamic:conference.obj
 0003:000075f0       $SG20669                   00000001400ab5f0     pjmedia-x86_64-x64-vc14-debug-dynamic:conference.obj
 0003:00007680       $SG20726                   00000001400ab680     pjmedia-x86_64-x64-vc14-debug-dynamic:conference.obj
 0003:00007790       $SG20727                   00000001400ab790     pjmedia-x86_64-x64-vc14-debug-dynamic:conference.obj
 0003:00007820       $SG20729                   00000001400ab820     pjmedia-x86_64-x64-vc14-debug-dynamic:conference.obj
 0003:00007928       $SG20730                   00000001400ab928     pjmedia-x86_64-x64-vc14-debug-dynamic:conference.obj
 0003:00008610       $SG20510                   00000001400ac610     pjmedia-x86_64-x64-vc14-debug-dynamic:endpoint.obj
 0003:00008614       $SG20512                   00000001400ac614     pjmedia-x86_64-x64-vc14-debug-dynamic:endpoint.obj
 0003:00008618       $SG20514                   00000001400ac618     pjmedia-x86_64-x64-vc14-debug-dynamic:endpoint.obj
 0003:00008620       $SG20516                   00000001400ac620     pjmedia-x86_64-x64-vc14-debug-dynamic:endpoint.obj
 0003:00008628       $SG20518                   00000001400ac628     pjmedia-x86_64-x64-vc14-debug-dynamic:endpoint.obj
 0003:00008630       $SG20520                   00000001400ac630     pjmedia-x86_64-x64-vc14-debug-dynamic:endpoint.obj
 0003:00008640       $SG20580                   00000001400ac640     pjmedia-x86_64-x64-vc14-debug-dynamic:endpoint.obj
 0003:00008740       $SG20581                   00000001400ac740     pjmedia-x86_64-x64-vc14-debug-dynamic:endpoint.obj
 0003:00008770       $SG20584                   00000001400ac770     pjmedia-x86_64-x64-vc14-debug-dynamic:endpoint.obj
 0003:00008870       $SG20585                   00000001400ac870     pjmedia-x86_64-x64-vc14-debug-dynamic:endpoint.obj
 0003:00008890       $SG20587                   00000001400ac890     pjmedia-x86_64-x64-vc14-debug-dynamic:endpoint.obj
 0003:00008990       $SG20588                   00000001400ac990     pjmedia-x86_64-x64-vc14-debug-dynamic:endpoint.obj
 0003:000089b4       $SG20882                   00000001400ac9b4     pjmedia-x86_64-x64-vc14-debug-dynamic:endpoint.obj
 0003:000089b8       $SG20589                   00000001400ac9b8     pjmedia-x86_64-x64-vc14-debug-dynamic:endpoint.obj
 0003:000089c0       $SG20596                   00000001400ac9c0     pjmedia-x86_64-x64-vc14-debug-dynamic:endpoint.obj
 0003:00008a0c       $SG20884                   00000001400aca0c     pjmedia-x86_64-x64-vc14-debug-dynamic:endpoint.obj
 0003:00008a10       $SG20597                   00000001400aca10     pjmedia-x86_64-x64-vc14-debug-dynamic:endpoint.obj
 0003:00008a1c       $SG20598                   00000001400aca1c     pjmedia-x86_64-x64-vc14-debug-dynamic:endpoint.obj
 0003:00008a28       $SG20631                   00000001400aca28     pjmedia-x86_64-x64-vc14-debug-dynamic:endpoint.obj
 0003:00008a34       $SG20857                   00000001400aca34     pjmedia-x86_64-x64-vc14-debug-dynamic:endpoint.obj
 0003:00008a40       $SG20630                   00000001400aca40     pjmedia-x86_64-x64-vc14-debug-dynamic:endpoint.obj
 0003:00008b40       $SG20650                   00000001400acb40     pjmedia-x86_64-x64-vc14-debug-dynamic:endpoint.obj
 0003:00008c40       $SG20651                   00000001400acc40     pjmedia-x86_64-x64-vc14-debug-dynamic:endpoint.obj
 0003:00008c50       $SG20664                   00000001400acc50     pjmedia-x86_64-x64-vc14-debug-dynamic:endpoint.obj
 0003:00008d50       $SG20665                   00000001400acd50     pjmedia-x86_64-x64-vc14-debug-dynamic:endpoint.obj
 0003:00008d60       $SG20675                   00000001400acd60     pjmedia-x86_64-x64-vc14-debug-dynamic:endpoint.obj
 0003:00008e60       $SG20676                   00000001400ace60     pjmedia-x86_64-x64-vc14-debug-dynamic:endpoint.obj
 0003:00008e70       $SG20695                   00000001400ace70     pjmedia-x86_64-x64-vc14-debug-dynamic:endpoint.obj
 0003:00008f70       $SG20696                   00000001400acf70     pjmedia-x86_64-x64-vc14-debug-dynamic:endpoint.obj
 0003:00008f80       $SG20698                   00000001400acf80     pjmedia-x86_64-x64-vc14-debug-dynamic:endpoint.obj
 0003:00009080       $SG20699                   00000001400ad080     pjmedia-x86_64-x64-vc14-debug-dynamic:endpoint.obj
 0003:000090b4       $SG20885                   00000001400ad0b4     pjmedia-x86_64-x64-vc14-debug-dynamic:endpoint.obj
 0003:000090b8       $SG20889                   00000001400ad0b8     pjmedia-x86_64-x64-vc14-debug-dynamic:endpoint.obj
 0003:000090c0       $SG20714                   00000001400ad0c0     pjmedia-x86_64-x64-vc14-debug-dynamic:endpoint.obj
 0003:000091c0       $SG20715                   00000001400ad1c0     pjmedia-x86_64-x64-vc14-debug-dynamic:endpoint.obj
 0003:000091d0       $SG20738                   00000001400ad1d0     pjmedia-x86_64-x64-vc14-debug-dynamic:endpoint.obj
 0003:000092d0       $SG20739                   00000001400ad2d0     pjmedia-x86_64-x64-vc14-debug-dynamic:endpoint.obj
 0003:00009300       $SG20763                   00000001400ad300     pjmedia-x86_64-x64-vc14-debug-dynamic:endpoint.obj
 0003:00009400       $SG20764                   00000001400ad400     pjmedia-x86_64-x64-vc14-debug-dynamic:endpoint.obj
 0003:00009494       $SG20890                   00000001400ad494     pjmedia-x86_64-x64-vc14-debug-dynamic:endpoint.obj
 0003:000094a0       $SG20859                   00000001400ad4a0     pjmedia-x86_64-x64-vc14-debug-dynamic:endpoint.obj
 0003:000095a0       $SG20860                   00000001400ad5a0     pjmedia-x86_64-x64-vc14-debug-dynamic:endpoint.obj
 0003:000095e4       $SG20907                   00000001400ad5e4     pjmedia-x86_64-x64-vc14-debug-dynamic:endpoint.obj
 0003:000095e8       $SG20869                   00000001400ad5e8     pjmedia-x86_64-x64-vc14-debug-dynamic:endpoint.obj
 0003:00009624       $SG20942                   00000001400ad624     pjmedia-x86_64-x64-vc14-debug-dynamic:endpoint.obj
 0003:00009628       $SG20870                   00000001400ad628     pjmedia-x86_64-x64-vc14-debug-dynamic:endpoint.obj
 0003:00009638       $SG20905                   00000001400ad638     pjmedia-x86_64-x64-vc14-debug-dynamic:endpoint.obj
 0003:00009678       $SG20908                   00000001400ad678     pjmedia-x86_64-x64-vc14-debug-dynamic:endpoint.obj
 0003:00009680       $SG20876                   00000001400ad680     pjmedia-x86_64-x64-vc14-debug-dynamic:endpoint.obj
 0003:00009780       $SG20877                   00000001400ad780     pjmedia-x86_64-x64-vc14-debug-dynamic:endpoint.obj
 0003:000097bc       $SG20995                   00000001400ad7bc     pjmedia-x86_64-x64-vc14-debug-dynamic:endpoint.obj
 0003:000097c0       $SG20888                   00000001400ad7c0     pjmedia-x86_64-x64-vc14-debug-dynamic:endpoint.obj
 0003:000097cc       $SG20998                   00000001400ad7cc     pjmedia-x86_64-x64-vc14-debug-dynamic:endpoint.obj
 0003:000097d8       $SG20906                   00000001400ad7d8     pjmedia-x86_64-x64-vc14-debug-dynamic:endpoint.obj
 0003:000097e8       $SG20909                   00000001400ad7e8     pjmedia-x86_64-x64-vc14-debug-dynamic:endpoint.obj
 0003:00009800       $SG20910                   00000001400ad800     pjmedia-x86_64-x64-vc14-debug-dynamic:endpoint.obj
 0003:00009808       $SG20911                   00000001400ad808     pjmedia-x86_64-x64-vc14-debug-dynamic:endpoint.obj
 0003:00009810       $SG20914                   00000001400ad810     pjmedia-x86_64-x64-vc14-debug-dynamic:endpoint.obj
 0003:00009818       $SG20941                   00000001400ad818     pjmedia-x86_64-x64-vc14-debug-dynamic:endpoint.obj
 0003:00009848       $SG20947                   00000001400ad848     pjmedia-x86_64-x64-vc14-debug-dynamic:endpoint.obj
 0003:00009860       $SG20940                   00000001400ad860     pjmedia-x86_64-x64-vc14-debug-dynamic:endpoint.obj
 0003:00009960       $SG20948                   00000001400ad960     pjmedia-x86_64-x64-vc14-debug-dynamic:endpoint.obj
 0003:00009a60       $SG20949                   00000001400ada60     pjmedia-x86_64-x64-vc14-debug-dynamic:endpoint.obj
 0003:00009a94       $SG21040                   00000001400ada94     pjmedia-x86_64-x64-vc14-debug-dynamic:endpoint.obj
 0003:00009aa0       $SG20980                   00000001400adaa0     pjmedia-x86_64-x64-vc14-debug-dynamic:endpoint.obj
 0003:00009ba0       $SG20981                   00000001400adba0     pjmedia-x86_64-x64-vc14-debug-dynamic:endpoint.obj
 0003:00009bf0       $SG20983                   00000001400adbf0     pjmedia-x86_64-x64-vc14-debug-dynamic:endpoint.obj
 0003:00009cf0       $SG20984                   00000001400adcf0     pjmedia-x86_64-x64-vc14-debug-dynamic:endpoint.obj
 0003:00009d10       $SG20999                   00000001400add10     pjmedia-x86_64-x64-vc14-debug-dynamic:endpoint.obj
 0003:00009d20       $SG21030                   00000001400add20     pjmedia-x86_64-x64-vc14-debug-dynamic:endpoint.obj
 0003:00009d40       $SG21031                   00000001400add40     pjmedia-x86_64-x64-vc14-debug-dynamic:endpoint.obj
 0003:00009d50       $SG21034                   00000001400add50     pjmedia-x86_64-x64-vc14-debug-dynamic:endpoint.obj
 0003:00009d70       $SG21035                   00000001400add70     pjmedia-x86_64-x64-vc14-debug-dynamic:endpoint.obj
 0003:00009d80       $SG21037                   00000001400add80     pjmedia-x86_64-x64-vc14-debug-dynamic:endpoint.obj
 0003:00009da8       $SG21038                   00000001400adda8     pjmedia-x86_64-x64-vc14-debug-dynamic:endpoint.obj
 0003:00009db4       $SG21042                   00000001400addb4     pjmedia-x86_64-x64-vc14-debug-dynamic:endpoint.obj
 0003:00009dc0       $SG21044                   00000001400addc0     pjmedia-x86_64-x64-vc14-debug-dynamic:endpoint.obj
 0003:00009dd0       $SG21047                   00000001400addd0     pjmedia-x86_64-x64-vc14-debug-dynamic:endpoint.obj
 0003:00009ddc       $SG21049                   00000001400adddc     pjmedia-x86_64-x64-vc14-debug-dynamic:endpoint.obj
 0003:00009de4       $SG21051                   00000001400adde4     pjmedia-x86_64-x64-vc14-debug-dynamic:endpoint.obj
 0003:00009dec       $SG21053                   00000001400addec     pjmedia-x86_64-x64-vc14-debug-dynamic:endpoint.obj
 0003:00009df4       $SG21055                   00000001400addf4     pjmedia-x86_64-x64-vc14-debug-dynamic:endpoint.obj
 0003:00009e00       $SG21057                   00000001400ade00     pjmedia-x86_64-x64-vc14-debug-dynamic:endpoint.obj
 0003:00009e40       $SG21058                   00000001400ade40     pjmedia-x86_64-x64-vc14-debug-dynamic:endpoint.obj
 0003:00009e50       $SG21074                   00000001400ade50     pjmedia-x86_64-x64-vc14-debug-dynamic:endpoint.obj
 0003:00009f50       $SG21075                   00000001400adf50     pjmedia-x86_64-x64-vc14-debug-dynamic:endpoint.obj
 0003:0000a480       $SG19324                   00000001400ae480     pjmedia-x86_64-x64-vc14-debug-dynamic:wav_player.obj
 0003:0000a490       $SG19406                   00000001400ae490     pjmedia-x86_64-x64-vc14-debug-dynamic:wav_player.obj
 0003:0000a598       $SG19407                   00000001400ae598     pjmedia-x86_64-x64-vc14-debug-dynamic:wav_player.obj
 0003:0000a5d0       $SG19419                   00000001400ae5d0     pjmedia-x86_64-x64-vc14-debug-dynamic:wav_player.obj
 0003:0000a608       $SG19420                   00000001400ae608     pjmedia-x86_64-x64-vc14-debug-dynamic:wav_player.obj
 0003:0000a620       $SG19443                   00000001400ae620     pjmedia-x86_64-x64-vc14-debug-dynamic:wav_player.obj
 0003:0000a670       $SG19444                   00000001400ae670     pjmedia-x86_64-x64-vc14-debug-dynamic:wav_player.obj
 0003:0000a680       $SG19467                   00000001400ae680     pjmedia-x86_64-x64-vc14-debug-dynamic:wav_player.obj
 0003:0000a788       $SG19468                   00000001400ae788     pjmedia-x86_64-x64-vc14-debug-dynamic:wav_player.obj
 0003:0000a7b0       $SG19470                   00000001400ae7b0     pjmedia-x86_64-x64-vc14-debug-dynamic:wav_player.obj
 0003:0000a8c0       $SG19471                   00000001400ae8c0     pjmedia-x86_64-x64-vc14-debug-dynamic:wav_player.obj
 0003:0000a940       $SG19478                   00000001400ae940     pjmedia-x86_64-x64-vc14-debug-dynamic:wav_player.obj
 0003:0000a960       $SG19479                   00000001400ae960     pjmedia-x86_64-x64-vc14-debug-dynamic:wav_player.obj
 0003:0000aa68       $SG19480                   00000001400aea68     pjmedia-x86_64-x64-vc14-debug-dynamic:wav_player.obj
 0003:0000aaa0       $SG19499                   00000001400aeaa0     pjmedia-x86_64-x64-vc14-debug-dynamic:wav_player.obj
 0003:0000aba8       $SG19500                   00000001400aeba8     pjmedia-x86_64-x64-vc14-debug-dynamic:wav_player.obj
 0003:0000abc0       $SG19502                   00000001400aebc0     pjmedia-x86_64-x64-vc14-debug-dynamic:wav_player.obj
 0003:0000acd0       $SG19503                   00000001400aecd0     pjmedia-x86_64-x64-vc14-debug-dynamic:wav_player.obj
 0003:0000ad50       $SG19528                   00000001400aed50     pjmedia-x86_64-x64-vc14-debug-dynamic:wav_player.obj
 0003:0000ae58       $SG19529                   00000001400aee58     pjmedia-x86_64-x64-vc14-debug-dynamic:wav_player.obj
 0003:0000ae70       $SG19531                   00000001400aee70     pjmedia-x86_64-x64-vc14-debug-dynamic:wav_player.obj
 0003:0000af80       $SG19532                   00000001400aef80     pjmedia-x86_64-x64-vc14-debug-dynamic:wav_player.obj
 0003:0000b000       $SG19534                   00000001400af000     pjmedia-x86_64-x64-vc14-debug-dynamic:wav_player.obj
 0003:0000b108       $SG19535                   00000001400af108     pjmedia-x86_64-x64-vc14-debug-dynamic:wav_player.obj
 0003:0000b140       $SG19555                   00000001400af140     pjmedia-x86_64-x64-vc14-debug-dynamic:wav_player.obj
 0003:0000b248       $SG19556                   00000001400af248     pjmedia-x86_64-x64-vc14-debug-dynamic:wav_player.obj
 0003:0000b260       $SG19558                   00000001400af260     pjmedia-x86_64-x64-vc14-debug-dynamic:wav_player.obj
 0003:0000b370       $SG19559                   00000001400af370     pjmedia-x86_64-x64-vc14-debug-dynamic:wav_player.obj
 0003:0000b3f0       $SG19591                   00000001400af3f0     pjmedia-x86_64-x64-vc14-debug-dynamic:wav_player.obj
 0003:0000b4f8       $SG19592                   00000001400af4f8     pjmedia-x86_64-x64-vc14-debug-dynamic:wav_player.obj
 0003:0000b510       $SG19594                   00000001400af510     pjmedia-x86_64-x64-vc14-debug-dynamic:wav_player.obj
 0003:0000b620       $SG19595                   00000001400af620     pjmedia-x86_64-x64-vc14-debug-dynamic:wav_player.obj
 0003:0000b6a0       $SG19597                   00000001400af6a0     pjmedia-x86_64-x64-vc14-debug-dynamic:wav_player.obj
 0003:0000b700       $SG19598                   00000001400af700     pjmedia-x86_64-x64-vc14-debug-dynamic:wav_player.obj
 0003:0000b710       $SG19623                   00000001400af710     pjmedia-x86_64-x64-vc14-debug-dynamic:wav_player.obj
 0003:0000b818       $SG19624                   00000001400af818     pjmedia-x86_64-x64-vc14-debug-dynamic:wav_player.obj
 0003:0000b830       $SG19626                   00000001400af830     pjmedia-x86_64-x64-vc14-debug-dynamic:wav_player.obj
 0003:0000b940       $SG19627                   00000001400af940     pjmedia-x86_64-x64-vc14-debug-dynamic:wav_player.obj
 0003:0000b9c0       $SG19689                   00000001400af9c0     pjmedia-x86_64-x64-vc14-debug-dynamic:wav_player.obj
 0003:0000bad0       $SG19690                   00000001400afad0     pjmedia-x86_64-x64-vc14-debug-dynamic:wav_player.obj
 0003:0000bb60       $SG19691                   00000001400afb60     pjmedia-x86_64-x64-vc14-debug-dynamic:wav_player.obj
 0003:0000bc68       $SG19692                   00000001400afc68     pjmedia-x86_64-x64-vc14-debug-dynamic:wav_player.obj
 0003:0000bca8       $SG19695                   00000001400afca8     pjmedia-x86_64-x64-vc14-debug-dynamic:wav_player.obj
 0003:0000bcc0       $SG19696                   00000001400afcc0     pjmedia-x86_64-x64-vc14-debug-dynamic:wav_player.obj
 0003:0000bcd0       $SG19707                   00000001400afcd0     pjmedia-x86_64-x64-vc14-debug-dynamic:wav_player.obj
 0003:0000bcf0       $SG19708                   00000001400afcf0     pjmedia-x86_64-x64-vc14-debug-dynamic:wav_player.obj
 0003:0000bd00       $SG19711                   00000001400afd00     pjmedia-x86_64-x64-vc14-debug-dynamic:wav_player.obj
 0003:0000be10       $SG19712                   00000001400afe10     pjmedia-x86_64-x64-vc14-debug-dynamic:wav_player.obj
 0003:0000bed0       $SG19736                   00000001400afed0     pjmedia-x86_64-x64-vc14-debug-dynamic:wav_player.obj
 0003:0000bfe0       $SG19737                   00000001400affe0     pjmedia-x86_64-x64-vc14-debug-dynamic:wav_player.obj
 0003:0000c600       $SG18624                   00000001400b0600     pjmedia-x86_64-x64-vc14-debug-dynamic:wav_writer.obj
 0003:0000c700       $SG18625                   00000001400b0700     pjmedia-x86_64-x64-vc14-debug-dynamic:wav_writer.obj
 0003:0000c7b0       $SG18680                   00000001400b07b0     pjmedia-x86_64-x64-vc14-debug-dynamic:wav_writer.obj
 0003:0000c8b0       $SG18681                   00000001400b08b0     pjmedia-x86_64-x64-vc14-debug-dynamic:wav_writer.obj
 0003:0000c960       $SG19374                   00000001400b0960     pjmedia-x86_64-x64-vc14-debug-dynamic:wav_writer.obj
 0003:0000ca68       $SG19375                   00000001400b0a68     pjmedia-x86_64-x64-vc14-debug-dynamic:wav_writer.obj
 0003:0000caa0       $SG19377                   00000001400b0aa0     pjmedia-x86_64-x64-vc14-debug-dynamic:wav_writer.obj
 0003:0000cba8       $SG19378                   00000001400b0ba8     pjmedia-x86_64-x64-vc14-debug-dynamic:wav_writer.obj
 0003:0000cbe0       $SG19380                   00000001400b0be0     pjmedia-x86_64-x64-vc14-debug-dynamic:wav_writer.obj
 0003:0000cce8       $SG19381                   00000001400b0ce8     pjmedia-x86_64-x64-vc14-debug-dynamic:wav_writer.obj
 0003:0000cd20       $SG19395                   00000001400b0d20     pjmedia-x86_64-x64-vc14-debug-dynamic:wav_writer.obj
 0003:0000ce30       $SG19396                   00000001400b0e30     pjmedia-x86_64-x64-vc14-debug-dynamic:wav_writer.obj
 0003:0000cea8       $SG19399                   00000001400b0ea8     pjmedia-x86_64-x64-vc14-debug-dynamic:wav_writer.obj
 0003:0000cee0       $SG19400                   00000001400b0ee0     pjmedia-x86_64-x64-vc14-debug-dynamic:wav_writer.obj
 0003:0000cef0       $SG19417                   00000001400b0ef0     pjmedia-x86_64-x64-vc14-debug-dynamic:wav_writer.obj
 0003:0000cff8       $SG19418                   00000001400b0ff8     pjmedia-x86_64-x64-vc14-debug-dynamic:wav_writer.obj
 0003:0000d010       $SG19420                   00000001400b1010     pjmedia-x86_64-x64-vc14-debug-dynamic:wav_writer.obj
 0003:0000d120       $SG19421                   00000001400b1120     pjmedia-x86_64-x64-vc14-debug-dynamic:wav_writer.obj
 0003:0000d1a0       $SG19452                   00000001400b11a0     pjmedia-x86_64-x64-vc14-debug-dynamic:wav_writer.obj
 0003:0000d2a8       $SG19453                   00000001400b12a8     pjmedia-x86_64-x64-vc14-debug-dynamic:wav_writer.obj
 0003:0000d2c0       $SG19455                   00000001400b12c0     pjmedia-x86_64-x64-vc14-debug-dynamic:wav_writer.obj
 0003:0000d3d0       $SG19456                   00000001400b13d0     pjmedia-x86_64-x64-vc14-debug-dynamic:wav_writer.obj
 0003:0000d450       $SG19458                   00000001400b1450     pjmedia-x86_64-x64-vc14-debug-dynamic:wav_writer.obj
 0003:0000d4b0       $SG19459                   00000001400b14b0     pjmedia-x86_64-x64-vc14-debug-dynamic:wav_writer.obj
 0003:0000d4c0       $SG19487                   00000001400b14c0     pjmedia-x86_64-x64-vc14-debug-dynamic:wav_writer.obj
 0003:0000d5c8       $SG19488                   00000001400b15c8     pjmedia-x86_64-x64-vc14-debug-dynamic:wav_writer.obj
 0003:0000d5e0       $SG19490                   00000001400b15e0     pjmedia-x86_64-x64-vc14-debug-dynamic:wav_writer.obj
 0003:0000d6f0       $SG19491                   00000001400b16f0     pjmedia-x86_64-x64-vc14-debug-dynamic:wav_writer.obj
 0003:0000d770       $SG19551                   00000001400b1770     pjmedia-x86_64-x64-vc14-debug-dynamic:wav_writer.obj
 0003:0000d880       $SG19552                   00000001400b1880     pjmedia-x86_64-x64-vc14-debug-dynamic:wav_writer.obj
 0003:0000dcc0       $SG15580                   00000001400b1cc0     pjmedia-x86_64-x64-vc14-debug-dynamic:audiodev.obj
 0003:0000dcc8       $SG15581                   00000001400b1cc8     pjmedia-x86_64-x64-vc14-debug-dynamic:audiodev.obj
 0003:0000dce0       $SG15582                   00000001400b1ce0     pjmedia-x86_64-x64-vc14-debug-dynamic:audiodev.obj
 0003:0000dcf0       $SG15583                   00000001400b1cf0     pjmedia-x86_64-x64-vc14-debug-dynamic:audiodev.obj
 0003:0000dd14       $SG15586                   00000001400b1d14     pjmedia-x86_64-x64-vc14-debug-dynamic:audiodev.obj
 0003:0000dd1c       $SG15598                   00000001400b1d1c     pjmedia-x86_64-x64-vc14-debug-dynamic:audiodev.obj
 0003:0000dd20       $SG15584                   00000001400b1d20     pjmedia-x86_64-x64-vc14-debug-dynamic:audiodev.obj
 0003:0000dd2c       $SG15602                   00000001400b1d2c     pjmedia-x86_64-x64-vc14-debug-dynamic:audiodev.obj
 0003:0000dd30       $SG15585                   00000001400b1d30     pjmedia-x86_64-x64-vc14-debug-dynamic:audiodev.obj
 0003:0000dd54       $SG15604                   00000001400b1d54     pjmedia-x86_64-x64-vc14-debug-dynamic:audiodev.obj
 0003:0000dd58       $SG15587                   00000001400b1d58     pjmedia-x86_64-x64-vc14-debug-dynamic:audiodev.obj
 0003:0000dd70       $SG15588                   00000001400b1d70     pjmedia-x86_64-x64-vc14-debug-dynamic:audiodev.obj
 0003:0000dd78       $SG15589                   00000001400b1d78     pjmedia-x86_64-x64-vc14-debug-dynamic:audiodev.obj
 0003:0000dd90       $SG15590                   00000001400b1d90     pjmedia-x86_64-x64-vc14-debug-dynamic:audiodev.obj
 0003:0000dd9c       $SG15606                   00000001400b1d9c     pjmedia-x86_64-x64-vc14-debug-dynamic:audiodev.obj
 0003:0000dda0       $SG15591                   00000001400b1da0     pjmedia-x86_64-x64-vc14-debug-dynamic:audiodev.obj
 0003:0000ddb0       $SG15592                   00000001400b1db0     pjmedia-x86_64-x64-vc14-debug-dynamic:audiodev.obj
 0003:0000ddc0       $SG15593                   00000001400b1dc0     pjmedia-x86_64-x64-vc14-debug-dynamic:audiodev.obj
 0003:0000ddd0       $SG15594                   00000001400b1dd0     pjmedia-x86_64-x64-vc14-debug-dynamic:audiodev.obj
 0003:0000dde0       $SG15595                   00000001400b1de0     pjmedia-x86_64-x64-vc14-debug-dynamic:audiodev.obj
 0003:0000ddf0       $SG15596                   00000001400b1df0     pjmedia-x86_64-x64-vc14-debug-dynamic:audiodev.obj
 0003:0000de00       $SG15597                   00000001400b1e00     pjmedia-x86_64-x64-vc14-debug-dynamic:audiodev.obj
 0003:0000de10       $SG15599                   00000001400b1e10     pjmedia-x86_64-x64-vc14-debug-dynamic:audiodev.obj
 0003:0000de30       $SG15600                   00000001400b1e30     pjmedia-x86_64-x64-vc14-debug-dynamic:audiodev.obj
 0003:0000de40       $SG15601                   00000001400b1e40     pjmedia-x86_64-x64-vc14-debug-dynamic:audiodev.obj
 0003:0000de60       $SG15603                   00000001400b1e60     pjmedia-x86_64-x64-vc14-debug-dynamic:audiodev.obj
 0003:0000de80       $SG15605                   00000001400b1e80     pjmedia-x86_64-x64-vc14-debug-dynamic:audiodev.obj
 0003:0000dea0       $SG15607                   00000001400b1ea0     pjmedia-x86_64-x64-vc14-debug-dynamic:audiodev.obj
 0003:0000deb8       $SG15670                   00000001400b1eb8     pjmedia-x86_64-x64-vc14-debug-dynamic:audiodev.obj
 0003:0000dec0       cap_infos                  00000001400b1ec0     pjmedia-x86_64-x64-vc14-debug-dynamic:audiodev.obj
 0003:0000dfa0       $SG15642                   00000001400b1fa0     pjmedia-x86_64-x64-vc14-debug-dynamic:audiodev.obj
 0003:0000dfe8       $SG15643                   00000001400b1fe8     pjmedia-x86_64-x64-vc14-debug-dynamic:audiodev.obj
 0003:0000dff4       $SG15671                   00000001400b1ff4     pjmedia-x86_64-x64-vc14-debug-dynamic:audiodev.obj
 0003:0000dff8       $SG15744                   00000001400b1ff8     pjmedia-x86_64-x64-vc14-debug-dynamic:audiodev.obj
 0003:0000e020       $SG15745                   00000001400b2020     pjmedia-x86_64-x64-vc14-debug-dynamic:audiodev.obj
 0003:0000e030       $SG15768                   00000001400b2030     pjmedia-x86_64-x64-vc14-debug-dynamic:audiodev.obj
 0003:0000e130       $SG15769                   00000001400b2130     pjmedia-x86_64-x64-vc14-debug-dynamic:audiodev.obj
 0003:0000e170       $SG15772                   00000001400b2170     pjmedia-x86_64-x64-vc14-debug-dynamic:audiodev.obj
 0003:0000e270       $SG15773                   00000001400b2270     pjmedia-x86_64-x64-vc14-debug-dynamic:audiodev.obj
 0003:0000e2e0       $SG15824                   00000001400b22e0     pjmedia-x86_64-x64-vc14-debug-dynamic:audiodev.obj
 0003:0000e3e0       $SG15825                   00000001400b23e0     pjmedia-x86_64-x64-vc14-debug-dynamic:audiodev.obj
 0003:0000e400       $SG15827                   00000001400b2400     pjmedia-x86_64-x64-vc14-debug-dynamic:audiodev.obj
 0003:0000e500       $SG15828                   00000001400b2500     pjmedia-x86_64-x64-vc14-debug-dynamic:audiodev.obj
 0003:0000e520       $SG15861                   00000001400b2520     pjmedia-x86_64-x64-vc14-debug-dynamic:audiodev.obj
 0003:0000e620       $SG15862                   00000001400b2620     pjmedia-x86_64-x64-vc14-debug-dynamic:audiodev.obj
 0003:0000e660       $SG15864                   00000001400b2660     pjmedia-x86_64-x64-vc14-debug-dynamic:audiodev.obj
 0003:0000e760       $SG15865                   00000001400b2760     pjmedia-x86_64-x64-vc14-debug-dynamic:audiodev.obj
 0003:0000e780       $SG15891                   00000001400b2780     pjmedia-x86_64-x64-vc14-debug-dynamic:audiodev.obj
 0003:0000e880       $SG15892                   00000001400b2880     pjmedia-x86_64-x64-vc14-debug-dynamic:audiodev.obj
 0003:0000e8a0       $SG15894                   00000001400b28a0     pjmedia-x86_64-x64-vc14-debug-dynamic:audiodev.obj
 0003:0000e9a0       $SG15895                   00000001400b29a0     pjmedia-x86_64-x64-vc14-debug-dynamic:audiodev.obj
 0003:0000e9c0       $SG15948                   00000001400b29c0     pjmedia-x86_64-x64-vc14-debug-dynamic:audiodev.obj
 0003:0000eac0       $SG15949                   00000001400b2ac0     pjmedia-x86_64-x64-vc14-debug-dynamic:audiodev.obj
 0003:0000eb00       $SG15951                   00000001400b2b00     pjmedia-x86_64-x64-vc14-debug-dynamic:audiodev.obj
 0003:0000ec00       $SG15952                   00000001400b2c00     pjmedia-x86_64-x64-vc14-debug-dynamic:audiodev.obj
 0003:0000ec20       $SG15954                   00000001400b2c20     pjmedia-x86_64-x64-vc14-debug-dynamic:audiodev.obj
 0003:0000ed20       $SG15955                   00000001400b2d20     pjmedia-x86_64-x64-vc14-debug-dynamic:audiodev.obj
 0003:0000ee00       $SG15963                   00000001400b2e00     pjmedia-x86_64-x64-vc14-debug-dynamic:audiodev.obj
 0003:0000ef00       $SG15964                   00000001400b2f00     pjmedia-x86_64-x64-vc14-debug-dynamic:audiodev.obj
 0003:0000ef30       $SG15966                   00000001400b2f30     pjmedia-x86_64-x64-vc14-debug-dynamic:audiodev.obj
 0003:0000f030       $SG15967                   00000001400b3030     pjmedia-x86_64-x64-vc14-debug-dynamic:audiodev.obj
 0003:0000f0c0       $SG15987                   00000001400b30c0     pjmedia-x86_64-x64-vc14-debug-dynamic:audiodev.obj
 0003:0000f1c0       $SG15988                   00000001400b31c0     pjmedia-x86_64-x64-vc14-debug-dynamic:audiodev.obj
 0003:0000f1e0       $SG15990                   00000001400b31e0     pjmedia-x86_64-x64-vc14-debug-dynamic:audiodev.obj
 0003:0000f2e0       $SG15991                   00000001400b32e0     pjmedia-x86_64-x64-vc14-debug-dynamic:audiodev.obj
 0003:0000f770       $SG18771                   00000001400b3770     pjmedia-x86_64-x64-vc14-debug-dynamic:event.obj
 0003:0000f7a8       $SG18772                   00000001400b37a8     pjmedia-x86_64-x64-vc14-debug-dynamic:event.obj
 0003:0000f7b0       $SG18819                   00000001400b37b0     pjmedia-x86_64-x64-vc14-debug-dynamic:event.obj
 0003:0000f7b8       $SG18821                   00000001400b37b8     pjmedia-x86_64-x64-vc14-debug-dynamic:event.obj
 0003:0000f7c0       $SG18823                   00000001400b37c0     pjmedia-x86_64-x64-vc14-debug-dynamic:event.obj
 0003:0000f7d0       $SG18825                   00000001400b37d0     pjmedia-x86_64-x64-vc14-debug-dynamic:event.obj
 0003:0000f7dc       $SG18893                   00000001400b37dc     pjmedia-x86_64-x64-vc14-debug-dynamic:event.obj
 0003:0000f7e8       $SG18849                   00000001400b37e8     pjmedia-x86_64-x64-vc14-debug-dynamic:event.obj
 0003:0000f810       $SG18848                   00000001400b3810     pjmedia-x86_64-x64-vc14-debug-dynamic:event.obj
 0003:0000f910       $SG18892                   00000001400b3910     pjmedia-x86_64-x64-vc14-debug-dynamic:event.obj
 0003:0000fa10       $SG18896                   00000001400b3a10     pjmedia-x86_64-x64-vc14-debug-dynamic:event.obj
 0003:0000fb10       $SG18897                   00000001400b3b10     pjmedia-x86_64-x64-vc14-debug-dynamic:event.obj
 0003:0000fb18       $SG18926                   00000001400b3b18     pjmedia-x86_64-x64-vc14-debug-dynamic:event.obj
 0003:0000fb20       $SG18925                   00000001400b3b20     pjmedia-x86_64-x64-vc14-debug-dynamic:event.obj
 0003:0000fc20       $SG18929                   00000001400b3c20     pjmedia-x86_64-x64-vc14-debug-dynamic:event.obj
 0003:0000fd20       $SG18930                   00000001400b3d20     pjmedia-x86_64-x64-vc14-debug-dynamic:event.obj
 0003:0000fd28       $SG18971                   00000001400b3d28     pjmedia-x86_64-x64-vc14-debug-dynamic:event.obj
 0003:0000fd30       $SG18966                   00000001400b3d30     pjmedia-x86_64-x64-vc14-debug-dynamic:event.obj
 0003:0000fe30       $SG18967                   00000001400b3e30     pjmedia-x86_64-x64-vc14-debug-dynamic:event.obj
 0003:0000fe50       $SG18970                   00000001400b3e50     pjmedia-x86_64-x64-vc14-debug-dynamic:event.obj
 0003:000100e0       $SG15010                   00000001400b40e0     pjmedia-x86_64-x64-vc14-debug-dynamic:format.obj
 0003:00010100       $SG15011                   00000001400b4100     pjmedia-x86_64-x64-vc14-debug-dynamic:format.obj
 0003:00010200       $SG15012                   00000001400b4200     pjmedia-x86_64-x64-vc14-debug-dynamic:format.obj
 0003:000102b0       $SG16786                   00000001400b42b0     pjmedia-x86_64-x64-vc14-debug-dynamic:delaybuf.obj
 0003:000103b0       $SG16787                   00000001400b43b0     pjmedia-x86_64-x64-vc14-debug-dynamic:delaybuf.obj
 0003:00010430       $SG16789                   00000001400b4430     pjmedia-x86_64-x64-vc14-debug-dynamic:delaybuf.obj
 0003:00010440       $SG16796                   00000001400b4440     pjmedia-x86_64-x64-vc14-debug-dynamic:delaybuf.obj
 0003:00010460       $SG16798                   00000001400b4460     pjmedia-x86_64-x64-vc14-debug-dynamic:delaybuf.obj
 0003:00010480       $SG16812                   00000001400b4480     pjmedia-x86_64-x64-vc14-debug-dynamic:delaybuf.obj
 0003:00010580       $SG16813                   00000001400b4580     pjmedia-x86_64-x64-vc14-debug-dynamic:delaybuf.obj
 0003:00010584       $SG16935                   00000001400b4584     pjmedia-x86_64-x64-vc14-debug-dynamic:delaybuf.obj
 0003:00010588       $SG16879                   00000001400b4588     pjmedia-x86_64-x64-vc14-debug-dynamic:delaybuf.obj
 0003:000105a0       $SG16832                   00000001400b45a0     pjmedia-x86_64-x64-vc14-debug-dynamic:delaybuf.obj
 0003:000106a0       $SG16833                   00000001400b46a0     pjmedia-x86_64-x64-vc14-debug-dynamic:delaybuf.obj
 0003:00010710       $SG16836                   00000001400b4710     pjmedia-x86_64-x64-vc14-debug-dynamic:delaybuf.obj
 0003:00010730       $SG16860                   00000001400b4730     pjmedia-x86_64-x64-vc14-debug-dynamic:delaybuf.obj
 0003:00010760       $SG16878                   00000001400b4760     pjmedia-x86_64-x64-vc14-debug-dynamic:delaybuf.obj
 0003:00010860       $SG16886                   00000001400b4860     pjmedia-x86_64-x64-vc14-debug-dynamic:delaybuf.obj
 0003:00010888       $SG16888                   00000001400b4888     pjmedia-x86_64-x64-vc14-debug-dynamic:delaybuf.obj
 0003:000108c0       $SG16909                   00000001400b48c0     pjmedia-x86_64-x64-vc14-debug-dynamic:delaybuf.obj
 0003:000109c0       $SG16910                   00000001400b49c0     pjmedia-x86_64-x64-vc14-debug-dynamic:delaybuf.obj
 0003:000109d8       $SG16914                   00000001400b49d8     pjmedia-x86_64-x64-vc14-debug-dynamic:delaybuf.obj
 0003:00010a08       $SG16921                   00000001400b4a08     pjmedia-x86_64-x64-vc14-debug-dynamic:delaybuf.obj
 0003:00010a20       $SG16934                   00000001400b4a20     pjmedia-x86_64-x64-vc14-debug-dynamic:delaybuf.obj
 0003:00010b20       $SG16938                   00000001400b4b20     pjmedia-x86_64-x64-vc14-debug-dynamic:delaybuf.obj
 0003:00010cf0       $SG19145                   00000001400b4cf0     pjmedia-x86_64-x64-vc14-debug-dynamic:resample_resample.obj
 0003:00010e10       $SG19146                   00000001400b4e10     pjmedia-x86_64-x64-vc14-debug-dynamic:resample_resample.obj
 0003:00010e90       $SG19148                   00000001400b4e90     pjmedia-x86_64-x64-vc14-debug-dynamic:resample_resample.obj
 0003:00010fa4       $SG19169                   00000001400b4fa4     pjmedia-x86_64-x64-vc14-debug-dynamic:resample_resample.obj
 0003:00010fa8       $SG19149                   00000001400b4fa8     pjmedia-x86_64-x64-vc14-debug-dynamic:resample_resample.obj
 0003:00010fc0       $SG19156                   00000001400b4fc0     pjmedia-x86_64-x64-vc14-debug-dynamic:resample_resample.obj
 0003:000110d8       $SG19157                   00000001400b50d8     pjmedia-x86_64-x64-vc14-debug-dynamic:resample_resample.obj
 0003:00011100       $SG19160                   00000001400b5100     pjmedia-x86_64-x64-vc14-debug-dynamic:resample_resample.obj
 0003:00011218       $SG19161                   00000001400b5218     pjmedia-x86_64-x64-vc14-debug-dynamic:resample_resample.obj
 0003:00011240       $SG19163                   00000001400b5240     pjmedia-x86_64-x64-vc14-debug-dynamic:resample_resample.obj
 0003:00011358       $SG19164                   00000001400b5358     pjmedia-x86_64-x64-vc14-debug-dynamic:resample_resample.obj
 0003:00011384       $SG19166                   00000001400b5384     pjmedia-x86_64-x64-vc14-debug-dynamic:resample_resample.obj
 0003:0001138c       $SG19167                   00000001400b538c     pjmedia-x86_64-x64-vc14-debug-dynamic:resample_resample.obj
 0003:00011394       $SG19168                   00000001400b5394     pjmedia-x86_64-x64-vc14-debug-dynamic:resample_resample.obj
 0003:000113a0       $SG19170                   00000001400b53a0     pjmedia-x86_64-x64-vc14-debug-dynamic:resample_resample.obj
 0003:000113e0       $SG19171                   00000001400b53e0     pjmedia-x86_64-x64-vc14-debug-dynamic:resample_resample.obj
 0003:000113f0       $SG19210                   00000001400b53f0     pjmedia-x86_64-x64-vc14-debug-dynamic:resample_resample.obj
 0003:00011508       $SG19211                   00000001400b5508     pjmedia-x86_64-x64-vc14-debug-dynamic:resample_resample.obj
 0003:00011520       $SG19230                   00000001400b5520     pjmedia-x86_64-x64-vc14-debug-dynamic:resample_resample.obj
 0003:00011638       $SG19231                   00000001400b5638     pjmedia-x86_64-x64-vc14-debug-dynamic:resample_resample.obj
 0003:00011850       $SG19380                   00000001400b5850     pjmedia-x86_64-x64-vc14-debug-dynamic:sound_port.obj
 0003:00011958       $SG19381                   00000001400b5958     pjmedia-x86_64-x64-vc14-debug-dynamic:sound_port.obj
 0003:00011998       $SG19385                   00000001400b5998     pjmedia-x86_64-x64-vc14-debug-dynamic:sound_port.obj
 0003:000119a8       $SG19386                   00000001400b59a8     pjmedia-x86_64-x64-vc14-debug-dynamic:sound_port.obj
 0003:000119b8       $SG19391                   00000001400b59b8     pjmedia-x86_64-x64-vc14-debug-dynamic:sound_port.obj
 0003:000119e0       $SG19392                   00000001400b59e0     pjmedia-x86_64-x64-vc14-debug-dynamic:sound_port.obj
 0003:000119f0       $SG19460                   00000001400b59f0     pjmedia-x86_64-x64-vc14-debug-dynamic:sound_port.obj
 0003:00011b00       $SG19461                   00000001400b5b00     pjmedia-x86_64-x64-vc14-debug-dynamic:sound_port.obj
 0003:00011c00       $SG19475                   00000001400b5c00     pjmedia-x86_64-x64-vc14-debug-dynamic:sound_port.obj
 0003:00011c28       $SG19476                   00000001400b5c28     pjmedia-x86_64-x64-vc14-debug-dynamic:sound_port.obj
 0003:00011c40       $SG19578                   00000001400b5c40     pjmedia-x86_64-x64-vc14-debug-dynamic:sound_port.obj
 0003:00011d48       $SG19579                   00000001400b5d48     pjmedia-x86_64-x64-vc14-debug-dynamic:sound_port.obj
 0003:00011d80       $SG19581                   00000001400b5d80     pjmedia-x86_64-x64-vc14-debug-dynamic:sound_port.obj
 0003:00011e88       $SG19582                   00000001400b5e88     pjmedia-x86_64-x64-vc14-debug-dynamic:sound_port.obj
 0003:00011ea0       $SG19593                   00000001400b5ea0     pjmedia-x86_64-x64-vc14-debug-dynamic:sound_port.obj
 0003:00011fa8       $SG19594                   00000001400b5fa8     pjmedia-x86_64-x64-vc14-debug-dynamic:sound_port.obj
 0003:00011fc0       $SG19605                   00000001400b5fc0     pjmedia-x86_64-x64-vc14-debug-dynamic:sound_port.obj
 0003:000120c8       $SG19606                   00000001400b60c8     pjmedia-x86_64-x64-vc14-debug-dynamic:sound_port.obj
 0003:000120e0       $SG19642                   00000001400b60e0     pjmedia-x86_64-x64-vc14-debug-dynamic:sound_port.obj
 0003:000121f0       $SG19643                   00000001400b61f0     pjmedia-x86_64-x64-vc14-debug-dynamic:sound_port.obj
 0003:00012268       $SG19656                   00000001400b6268     pjmedia-x86_64-x64-vc14-debug-dynamic:sound_port.obj
 0003:000122a8       $SG19657                   00000001400b62a8     pjmedia-x86_64-x64-vc14-debug-dynamic:sound_port.obj
 0003:000122c0       $SG19660                   00000001400b62c0     pjmedia-x86_64-x64-vc14-debug-dynamic:sound_port.obj
 0003:000123d0       $SG19661                   00000001400b63d0     pjmedia-x86_64-x64-vc14-debug-dynamic:sound_port.obj
 0003:00012420       $SG19668                   00000001400b6420     pjmedia-x86_64-x64-vc14-debug-dynamic:sound_port.obj
 0003:00012458       $SG19669                   00000001400b6458     pjmedia-x86_64-x64-vc14-debug-dynamic:sound_port.obj
 0003:00012470       $SG19684                   00000001400b6470     pjmedia-x86_64-x64-vc14-debug-dynamic:sound_port.obj
 0003:00012578       $SG19685                   00000001400b6578     pjmedia-x86_64-x64-vc14-debug-dynamic:sound_port.obj
 0003:000125a8       $SG19707                   00000001400b65a8     pjmedia-x86_64-x64-vc14-debug-dynamic:sound_port.obj
 0003:000125d0       $SG19706                   00000001400b65d0     pjmedia-x86_64-x64-vc14-debug-dynamic:sound_port.obj
 0003:000126e0       $SG19728                   00000001400b66e0     pjmedia-x86_64-x64-vc14-debug-dynamic:sound_port.obj
 0003:000127e8       $SG19729                   00000001400b67e8     pjmedia-x86_64-x64-vc14-debug-dynamic:sound_port.obj
 0003:00012810       $SG19744                   00000001400b6810     pjmedia-x86_64-x64-vc14-debug-dynamic:sound_port.obj
 0003:00012918       $SG19745                   00000001400b6918     pjmedia-x86_64-x64-vc14-debug-dynamic:sound_port.obj
 0003:00012930       $SG19756                   00000001400b6930     pjmedia-x86_64-x64-vc14-debug-dynamic:sound_port.obj
 0003:00012a38       $SG19757                   00000001400b6a38     pjmedia-x86_64-x64-vc14-debug-dynamic:sound_port.obj
 0003:00012df0       $SG16712                   00000001400b6df0     pjmedia-x86_64-x64-vc14-debug-dynamic:sdp.obj
 0003:00012e10       $SG16732                   00000001400b6e10     pjmedia-x86_64-x64-vc14-debug-dynamic:sdp.obj
 0003:00012f08       $SG16733                   00000001400b6f08     pjmedia-x86_64-x64-vc14-debug-dynamic:sdp.obj
 0003:00012f28       $SG16753                   00000001400b6f28     pjmedia-x86_64-x64-vc14-debug-dynamic:sdp.obj
 0003:00012f40       $SG16752                   00000001400b6f40     pjmedia-x86_64-x64-vc14-debug-dynamic:sdp.obj
 0003:00013038       $SG16783                   00000001400b7038     pjmedia-x86_64-x64-vc14-debug-dynamic:sdp.obj
 0003:00013060       $SG16782                   00000001400b7060     pjmedia-x86_64-x64-vc14-debug-dynamic:sdp.obj
 0003:00013158       $SG16820                   00000001400b7158     pjmedia-x86_64-x64-vc14-debug-dynamic:sdp.obj
 0003:00013190       $SG16819                   00000001400b7190     pjmedia-x86_64-x64-vc14-debug-dynamic:sdp.obj
 0003:00013288       $SG16823                   00000001400b7288     pjmedia-x86_64-x64-vc14-debug-dynamic:sdp.obj
 0003:000132b0       $SG16822                   00000001400b72b0     pjmedia-x86_64-x64-vc14-debug-dynamic:sdp.obj
 0003:000133a8       $SG16852                   00000001400b73a8     pjmedia-x86_64-x64-vc14-debug-dynamic:sdp.obj
 0003:000133e0       $SG16851                   00000001400b73e0     pjmedia-x86_64-x64-vc14-debug-dynamic:sdp.obj
 0003:000134d8       $SG16884                   00000001400b74d8     pjmedia-x86_64-x64-vc14-debug-dynamic:sdp.obj
 0003:00013510       $SG16854                   00000001400b7510     pjmedia-x86_64-x64-vc14-debug-dynamic:sdp.obj
 0003:00013608       $SG16855                   00000001400b7608     pjmedia-x86_64-x64-vc14-debug-dynamic:sdp.obj
 0003:00013634       $SG16911                   00000001400b7634     pjmedia-x86_64-x64-vc14-debug-dynamic:sdp.obj
 0003:00013640       $SG16883                   00000001400b7640     pjmedia-x86_64-x64-vc14-debug-dynamic:sdp.obj
 0003:00013738       $SG16912                   00000001400b7738     pjmedia-x86_64-x64-vc14-debug-dynamic:sdp.obj
 0003:00013740       $SG16886                   00000001400b7740     pjmedia-x86_64-x64-vc14-debug-dynamic:sdp.obj
 0003:00013838       $SG16887                   00000001400b7838     pjmedia-x86_64-x64-vc14-debug-dynamic:sdp.obj
 0003:00013868       $SG16917                   00000001400b7868     pjmedia-x86_64-x64-vc14-debug-dynamic:sdp.obj
 0003:00013880       $SG16913                   00000001400b7880     pjmedia-x86_64-x64-vc14-debug-dynamic:sdp.obj
 0003:00013978       $SG16919                   00000001400b7978     pjmedia-x86_64-x64-vc14-debug-dynamic:sdp.obj
 0003:000139a0       $SG16914                   00000001400b79a0     pjmedia-x86_64-x64-vc14-debug-dynamic:sdp.obj
 0003:000139f0       $SG16918                   00000001400b79f0     pjmedia-x86_64-x64-vc14-debug-dynamic:sdp.obj
 0003:00013ae8       $SG16946                   00000001400b7ae8     pjmedia-x86_64-x64-vc14-debug-dynamic:sdp.obj
 0003:00013af0       $SG16947                   00000001400b7af0     pjmedia-x86_64-x64-vc14-debug-dynamic:sdp.obj
 0003:00013af8       $SG16970                   00000001400b7af8     pjmedia-x86_64-x64-vc14-debug-dynamic:sdp.obj
 0003:00013b00       $SG16948                   00000001400b7b00     pjmedia-x86_64-x64-vc14-debug-dynamic:sdp.obj
 0003:00013bf8       $SG16971                   00000001400b7bf8     pjmedia-x86_64-x64-vc14-debug-dynamic:sdp.obj
 0003:00013c00       $SG16949                   00000001400b7c00     pjmedia-x86_64-x64-vc14-debug-dynamic:sdp.obj
 0003:00013c48       $SG16980                   00000001400b7c48     pjmedia-x86_64-x64-vc14-debug-dynamic:sdp.obj
 0003:00013c50       $SG16972                   00000001400b7c50     pjmedia-x86_64-x64-vc14-debug-dynamic:sdp.obj
 0003:00013d48       $SG16996                   00000001400b7d48     pjmedia-x86_64-x64-vc14-debug-dynamic:sdp.obj
 0003:00013d50       $SG16973                   00000001400b7d50     pjmedia-x86_64-x64-vc14-debug-dynamic:sdp.obj
 0003:00013d98       $SG16999                   00000001400b7d98     pjmedia-x86_64-x64-vc14-debug-dynamic:sdp.obj
 0003:00013da8       $SG17002                   00000001400b7da8     pjmedia-x86_64-x64-vc14-debug-dynamic:sdp.obj
 0003:00013db8       $SG17003                   00000001400b7db8     pjmedia-x86_64-x64-vc14-debug-dynamic:sdp.obj
 0003:00013dd8       $SG17005                   00000001400b7dd8     pjmedia-x86_64-x64-vc14-debug-dynamic:sdp.obj
 0003:00013e14       $SG17024                   00000001400b7e14     pjmedia-x86_64-x64-vc14-debug-dynamic:sdp.obj
 0003:00013e20       $SG17004                   00000001400b7e20     pjmedia-x86_64-x64-vc14-debug-dynamic:sdp.obj
 0003:00013f18       $SG17025                   00000001400b7f18     pjmedia-x86_64-x64-vc14-debug-dynamic:sdp.obj
 0003:00013f20       $SG17026                   00000001400b7f20     pjmedia-x86_64-x64-vc14-debug-dynamic:sdp.obj
 0003:00014018       $SG17034                   00000001400b8018     pjmedia-x86_64-x64-vc14-debug-dynamic:sdp.obj
 0003:00014020       $SG17027                   00000001400b8020     pjmedia-x86_64-x64-vc14-debug-dynamic:sdp.obj
 0003:00014068       $SG17049                   00000001400b8068     pjmedia-x86_64-x64-vc14-debug-dynamic:sdp.obj
 0003:00014070       $SG17050                   00000001400b8070     pjmedia-x86_64-x64-vc14-debug-dynamic:sdp.obj
 0003:00014080       $SG17072                   00000001400b8080     pjmedia-x86_64-x64-vc14-debug-dynamic:sdp.obj
 0003:00014178       $SG17073                   00000001400b8178     pjmedia-x86_64-x64-vc14-debug-dynamic:sdp.obj
 0003:000141b0       $SG17075                   00000001400b81b0     pjmedia-x86_64-x64-vc14-debug-dynamic:sdp.obj
 0003:000142a8       $SG17076                   00000001400b82a8     pjmedia-x86_64-x64-vc14-debug-dynamic:sdp.obj
 0003:000142c0       $SG17113                   00000001400b82c0     pjmedia-x86_64-x64-vc14-debug-dynamic:sdp.obj
 0003:000143b8       $SG17114                   00000001400b83b8     pjmedia-x86_64-x64-vc14-debug-dynamic:sdp.obj
 0003:000143f0       $SG17117                   00000001400b83f0     pjmedia-x86_64-x64-vc14-debug-dynamic:sdp.obj
 0003:000144e8       $SG17121                   00000001400b84e8     pjmedia-x86_64-x64-vc14-debug-dynamic:sdp.obj
 0003:00014510       $SG17118                   00000001400b8510     pjmedia-x86_64-x64-vc14-debug-dynamic:sdp.obj
 0003:00014568       $SG17122                   00000001400b8568     pjmedia-x86_64-x64-vc14-debug-dynamic:sdp.obj
 0003:00014570       $SG17120                   00000001400b8570     pjmedia-x86_64-x64-vc14-debug-dynamic:sdp.obj
 0003:00014668       $SG17123                   00000001400b8668     pjmedia-x86_64-x64-vc14-debug-dynamic:sdp.obj
 0003:0001466c       $SG17414                   00000001400b866c     pjmedia-x86_64-x64-vc14-debug-dynamic:sdp.obj
 0003:00014670       $SG17125                   00000001400b8670     pjmedia-x86_64-x64-vc14-debug-dynamic:sdp.obj
 0003:00014684       $SG17483                   00000001400b8684     pjmedia-x86_64-x64-vc14-debug-dynamic:sdp.obj
 0003:00014688       $SG17140                   00000001400b8688     pjmedia-x86_64-x64-vc14-debug-dynamic:sdp.obj
 0003:000146a0       $SG17277                   00000001400b86a0     pjmedia-x86_64-x64-vc14-debug-dynamic:sdp.obj
 0003:00014798       $SG17278                   00000001400b8798     pjmedia-x86_64-x64-vc14-debug-dynamic:sdp.obj
 0003:000147c0       $SG17282                   00000001400b87c0     pjmedia-x86_64-x64-vc14-debug-dynamic:sdp.obj
 0003:000148b8       $SG17283                   00000001400b88b8     pjmedia-x86_64-x64-vc14-debug-dynamic:sdp.obj
 0003:000148e8       $SG17286                   00000001400b88e8     pjmedia-x86_64-x64-vc14-debug-dynamic:sdp.obj
 0003:00014920       $SG17285                   00000001400b8920     pjmedia-x86_64-x64-vc14-debug-dynamic:sdp.obj
 0003:00014a18       $SG17289                   00000001400b8a18     pjmedia-x86_64-x64-vc14-debug-dynamic:sdp.obj
 0003:00014a50       $SG17288                   00000001400b8a50     pjmedia-x86_64-x64-vc14-debug-dynamic:sdp.obj
 0003:00014b48       $SG17306                   00000001400b8b48     pjmedia-x86_64-x64-vc14-debug-dynamic:sdp.obj
 0003:00014b60       $SG17305                   00000001400b8b60     pjmedia-x86_64-x64-vc14-debug-dynamic:sdp.obj
 0003:00014c58       $SG17323                   00000001400b8c58     pjmedia-x86_64-x64-vc14-debug-dynamic:sdp.obj
 0003:00014c70       $SG17322                   00000001400b8c70     pjmedia-x86_64-x64-vc14-debug-dynamic:sdp.obj
 0003:00014d68       $SG17371                   00000001400b8d68     pjmedia-x86_64-x64-vc14-debug-dynamic:sdp.obj
 0003:00014d70       $SG17395                   00000001400b8d70     pjmedia-x86_64-x64-vc14-debug-dynamic:sdp.obj
 0003:00014d78       $SG17405                   00000001400b8d78     pjmedia-x86_64-x64-vc14-debug-dynamic:sdp.obj
 0003:00014d80       $SG17423                   00000001400b8d80     pjmedia-x86_64-x64-vc14-debug-dynamic:sdp.obj
 0003:00014d88       $SG17432                   00000001400b8d88     pjmedia-x86_64-x64-vc14-debug-dynamic:sdp.obj
 0003:00014d90       $SG17453                   00000001400b8d90     pjmedia-x86_64-x64-vc14-debug-dynamic:sdp.obj
 0003:00014d98       $SG17458                   00000001400b8d98     pjmedia-x86_64-x64-vc14-debug-dynamic:sdp.obj
 0003:00014dd0       $SG17459                   00000001400b8dd0     pjmedia-x86_64-x64-vc14-debug-dynamic:sdp.obj
 0003:00014dd8       $SG17507                   00000001400b8dd8     pjmedia-x86_64-x64-vc14-debug-dynamic:sdp.obj
 0003:00014de4       $SG17600                   00000001400b8de4     pjmedia-x86_64-x64-vc14-debug-dynamic:sdp.obj
 0003:00014dec       $SG17716                   00000001400b8dec     pjmedia-x86_64-x64-vc14-debug-dynamic:sdp.obj
 0003:00014df0       $SG17509                   00000001400b8df0     pjmedia-x86_64-x64-vc14-debug-dynamic:sdp.obj
 0003:00014dfc       $SG17604                   00000001400b8dfc     pjmedia-x86_64-x64-vc14-debug-dynamic:sdp.obj
 0003:00014e04       $SG17718                   00000001400b8e04     pjmedia-x86_64-x64-vc14-debug-dynamic:sdp.obj
 0003:00014e08       $SG17511                   00000001400b8e08     pjmedia-x86_64-x64-vc14-debug-dynamic:sdp.obj
 0003:00014e14       $SG17615                   00000001400b8e14     pjmedia-x86_64-x64-vc14-debug-dynamic:sdp.obj
 0003:00014e1c       $SG17719                   00000001400b8e1c     pjmedia-x86_64-x64-vc14-debug-dynamic:sdp.obj
 0003:00014e20       $SG17513                   00000001400b8e20     pjmedia-x86_64-x64-vc14-debug-dynamic:sdp.obj
 0003:00014e30       $SG17586                   00000001400b8e30     pjmedia-x86_64-x64-vc14-debug-dynamic:sdp.obj
 0003:00014f28       $SG17587                   00000001400b8f28     pjmedia-x86_64-x64-vc14-debug-dynamic:sdp.obj
 0003:00014f58       $SG17599                   00000001400b8f58     pjmedia-x86_64-x64-vc14-debug-dynamic:sdp.obj
 0003:00014f8c       $SG17786                   00000001400b8f8c     pjmedia-x86_64-x64-vc14-debug-dynamic:sdp.obj
 0003:00014f90       $SG17603                   00000001400b8f90     pjmedia-x86_64-x64-vc14-debug-dynamic:sdp.obj
 0003:00014fc8       $SG17614                   00000001400b8fc8     pjmedia-x86_64-x64-vc14-debug-dynamic:sdp.obj
 0003:00014ff0       $SG17625                   00000001400b8ff0     pjmedia-x86_64-x64-vc14-debug-dynamic:sdp.obj
 0003:00015024       $SG17626                   00000001400b9024     pjmedia-x86_64-x64-vc14-debug-dynamic:sdp.obj
 0003:0001502c       $SG17782                   00000001400b902c     pjmedia-x86_64-x64-vc14-debug-dynamic:sdp.obj
 0003:00015034       $SG17788                   00000001400b9034     pjmedia-x86_64-x64-vc14-debug-dynamic:sdp.obj
 0003:00015038       $SG17629                   00000001400b9038     pjmedia-x86_64-x64-vc14-debug-dynamic:sdp.obj
 0003:00015070       $SG17630                   00000001400b9070     pjmedia-x86_64-x64-vc14-debug-dynamic:sdp.obj
 0003:00015078       $SG17634                   00000001400b9078     pjmedia-x86_64-x64-vc14-debug-dynamic:sdp.obj
 0003:0001509c       $SG17635                   00000001400b909c     pjmedia-x86_64-x64-vc14-debug-dynamic:sdp.obj
 0003:000150a8       $SG17689                   00000001400b90a8     pjmedia-x86_64-x64-vc14-debug-dynamic:sdp.obj
 0003:000150c0       $SG17636                   00000001400b90c0     pjmedia-x86_64-x64-vc14-debug-dynamic:sdp.obj
 0003:000151b8       $SG17637                   00000001400b91b8     pjmedia-x86_64-x64-vc14-debug-dynamic:sdp.obj
 0003:000151f8       $SG17692                   00000001400b91f8     pjmedia-x86_64-x64-vc14-debug-dynamic:sdp.obj
 0003:00015220       $SG17688                   00000001400b9220     pjmedia-x86_64-x64-vc14-debug-dynamic:sdp.obj
 0003:00015318       $SG17696                   00000001400b9318     pjmedia-x86_64-x64-vc14-debug-dynamic:sdp.obj
 0003:00015350       $SG17691                   00000001400b9350     pjmedia-x86_64-x64-vc14-debug-dynamic:sdp.obj
 0003:00015448       $SG17789                   00000001400b9448     pjmedia-x86_64-x64-vc14-debug-dynamic:sdp.obj
 0003:00015450       $SG17695                   00000001400b9450     pjmedia-x86_64-x64-vc14-debug-dynamic:sdp.obj
 0003:00015548       $SG17830                   00000001400b9548     pjmedia-x86_64-x64-vc14-debug-dynamic:sdp.obj
 0003:00015550       $SG17829                   00000001400b9550     pjmedia-x86_64-x64-vc14-debug-dynamic:sdp.obj
 0003:00015648       $SG17831                   00000001400b9648     pjmedia-x86_64-x64-vc14-debug-dynamic:sdp.obj
 0003:0001564c       $SG17835                   00000001400b964c     pjmedia-x86_64-x64-vc14-debug-dynamic:sdp.obj
 0003:00015650       $SG17837                   00000001400b9650     pjmedia-x86_64-x64-vc14-debug-dynamic:sdp.obj
 0003:00015654       $SG17839                   00000001400b9654     pjmedia-x86_64-x64-vc14-debug-dynamic:sdp.obj
 0003:0001565c       $SG17841                   00000001400b965c     pjmedia-x86_64-x64-vc14-debug-dynamic:sdp.obj
 0003:00015664       $SG17843                   00000001400b9664     pjmedia-x86_64-x64-vc14-debug-dynamic:sdp.obj
 0003:0001566c       $SG17845                   00000001400b966c     pjmedia-x86_64-x64-vc14-debug-dynamic:sdp.obj
 0003:00015670       $SG17848                   00000001400b9670     pjmedia-x86_64-x64-vc14-debug-dynamic:sdp.obj
 0003:00015680       $SG17850                   00000001400b9680     pjmedia-x86_64-x64-vc14-debug-dynamic:sdp.obj
 0003:00015690       $SG17863                   00000001400b9690     pjmedia-x86_64-x64-vc14-debug-dynamic:sdp.obj
 0003:00015788       $SG17864                   00000001400b9788     pjmedia-x86_64-x64-vc14-debug-dynamic:sdp.obj
 0003:00015790       $SG17904                   00000001400b9790     pjmedia-x86_64-x64-vc14-debug-dynamic:sdp.obj
 0003:00015888       $SG17905                   00000001400b9888     pjmedia-x86_64-x64-vc14-debug-dynamic:sdp.obj
 0003:000158a0       $SG17908                   00000001400b98a0     pjmedia-x86_64-x64-vc14-debug-dynamic:sdp.obj
 0003:00015998       $SG17909                   00000001400b9998     pjmedia-x86_64-x64-vc14-debug-dynamic:sdp.obj
 0003:000159c8       $SG17912                   00000001400b99c8     pjmedia-x86_64-x64-vc14-debug-dynamic:sdp.obj
 0003:00015a00       $SG17911                   00000001400b9a00     pjmedia-x86_64-x64-vc14-debug-dynamic:sdp.obj
 0003:00016400       $SG19404                   00000001400ba400     pjmedia-x86_64-x64-vc14-debug-dynamic:codec.obj
 0003:00016500       $SG19405                   00000001400ba500     pjmedia-x86_64-x64-vc14-debug-dynamic:codec.obj
 0003:00016518       $SG19422                   00000001400ba518     pjmedia-x86_64-x64-vc14-debug-dynamic:codec.obj
 0003:00016530       $SG19421                   00000001400ba530     pjmedia-x86_64-x64-vc14-debug-dynamic:codec.obj
 0003:00016630       $SG19423                   00000001400ba630     pjmedia-x86_64-x64-vc14-debug-dynamic:codec.obj
 0003:00016640       $SG19424                   00000001400ba640     pjmedia-x86_64-x64-vc14-debug-dynamic:codec.obj
 0003:00016650       $SG19446                   00000001400ba650     pjmedia-x86_64-x64-vc14-debug-dynamic:codec.obj
 0003:00016750       $SG19447                   00000001400ba750     pjmedia-x86_64-x64-vc14-debug-dynamic:codec.obj
 0003:00016758       $SG19731                   00000001400ba758     pjmedia-x86_64-x64-vc14-debug-dynamic:codec.obj
 0003:00016790       $SG19449                   00000001400ba790     pjmedia-x86_64-x64-vc14-debug-dynamic:codec.obj
 0003:00016890       $SG19450                   00000001400ba890     pjmedia-x86_64-x64-vc14-debug-dynamic:codec.obj
 0003:000168d0       $SG19481                   00000001400ba8d0     pjmedia-x86_64-x64-vc14-debug-dynamic:codec.obj
 0003:000169d0       $SG19482                   00000001400ba9d0     pjmedia-x86_64-x64-vc14-debug-dynamic:codec.obj
 0003:000169f0       $SG19484                   00000001400ba9f0     pjmedia-x86_64-x64-vc14-debug-dynamic:codec.obj
 0003:00016af0       $SG19485                   00000001400baaf0     pjmedia-x86_64-x64-vc14-debug-dynamic:codec.obj
 0003:00016b38       $SG19770                   00000001400bab38     pjmedia-x86_64-x64-vc14-debug-dynamic:codec.obj
 0003:00016b50       $SG19506                   00000001400bab50     pjmedia-x86_64-x64-vc14-debug-dynamic:codec.obj
 0003:00016c50       $SG19507                   00000001400bac50     pjmedia-x86_64-x64-vc14-debug-dynamic:codec.obj
 0003:00016c70       $SG19512                   00000001400bac70     pjmedia-x86_64-x64-vc14-debug-dynamic:codec.obj
 0003:00016d70       $SG19513                   00000001400bad70     pjmedia-x86_64-x64-vc14-debug-dynamic:codec.obj
 0003:00016db0       $SG19538                   00000001400badb0     pjmedia-x86_64-x64-vc14-debug-dynamic:codec.obj
 0003:00016eb0       $SG19539                   00000001400baeb0     pjmedia-x86_64-x64-vc14-debug-dynamic:codec.obj
 0003:00016ee0       $SG19560                   00000001400baee0     pjmedia-x86_64-x64-vc14-debug-dynamic:codec.obj
 0003:00016fe0       $SG19561                   00000001400bafe0     pjmedia-x86_64-x64-vc14-debug-dynamic:codec.obj
 0003:00017028       $SG19669                   00000001400bb028     pjmedia-x86_64-x64-vc14-debug-dynamic:codec.obj
 0003:00017050       $SG19582                   00000001400bb050     pjmedia-x86_64-x64-vc14-debug-dynamic:codec.obj
 0003:00017150       $SG19583                   00000001400bb150     pjmedia-x86_64-x64-vc14-debug-dynamic:codec.obj
 0003:00017180       $SG19584                   00000001400bb180     pjmedia-x86_64-x64-vc14-debug-dynamic:codec.obj
 0003:00017190       $SG19610                   00000001400bb190     pjmedia-x86_64-x64-vc14-debug-dynamic:codec.obj
 0003:00017290       $SG19611                   00000001400bb290     pjmedia-x86_64-x64-vc14-debug-dynamic:codec.obj
 0003:000172e0       $SG19668                   00000001400bb2e0     pjmedia-x86_64-x64-vc14-debug-dynamic:codec.obj
 0003:000173e0       $SG19692                   00000001400bb3e0     pjmedia-x86_64-x64-vc14-debug-dynamic:codec.obj
 0003:000174e0       $SG19693                   00000001400bb4e0     pjmedia-x86_64-x64-vc14-debug-dynamic:codec.obj
 0003:00017510       $SG19725                   00000001400bb510     pjmedia-x86_64-x64-vc14-debug-dynamic:codec.obj
 0003:00017610       $SG19726                   00000001400bb610     pjmedia-x86_64-x64-vc14-debug-dynamic:codec.obj
 0003:00017640       $SG19730                   00000001400bb640     pjmedia-x86_64-x64-vc14-debug-dynamic:codec.obj
 0003:00017740       $SG19769                   00000001400bb740     pjmedia-x86_64-x64-vc14-debug-dynamic:codec.obj
 0003:00017840       $SG19775                   00000001400bb840     pjmedia-x86_64-x64-vc14-debug-dynamic:codec.obj
 0003:00017940       $SG19776                   00000001400bb940     pjmedia-x86_64-x64-vc14-debug-dynamic:codec.obj
 0003:00017970       $SG19793                   00000001400bb970     pjmedia-x86_64-x64-vc14-debug-dynamic:codec.obj
 0003:00017a70       $SG19794                   00000001400bba70     pjmedia-x86_64-x64-vc14-debug-dynamic:codec.obj
 0003:00017f10       $SG14621                   00000001400bbf10     pjmedia-x86_64-x64-vc14-debug-dynamic:errno.obj
 0003:00017f40       $SG14622                   00000001400bbf40     pjmedia-x86_64-x64-vc14-debug-dynamic:errno.obj
 0003:00017f70       $SG14623                   00000001400bbf70     pjmedia-x86_64-x64-vc14-debug-dynamic:errno.obj
 0003:00017fa0       $SG14624                   00000001400bbfa0     pjmedia-x86_64-x64-vc14-debug-dynamic:errno.obj
 0003:00017fd0       $SG14625                   00000001400bbfd0     pjmedia-x86_64-x64-vc14-debug-dynamic:errno.obj
 0003:00018000       $SG14626                   00000001400bc000     pjmedia-x86_64-x64-vc14-debug-dynamic:errno.obj
 0003:00018038       $SG14627                   00000001400bc038     pjmedia-x86_64-x64-vc14-debug-dynamic:errno.obj
 0003:00018070       $SG14628                   00000001400bc070     pjmedia-x86_64-x64-vc14-debug-dynamic:errno.obj
 0003:000180b0       $SG14629                   00000001400bc0b0     pjmedia-x86_64-x64-vc14-debug-dynamic:errno.obj
 0003:000180e0       $SG14630                   00000001400bc0e0     pjmedia-x86_64-x64-vc14-debug-dynamic:errno.obj
 0003:00018118       $SG14631                   00000001400bc118     pjmedia-x86_64-x64-vc14-debug-dynamic:errno.obj
 0003:00018160       $SG14632                   00000001400bc160     pjmedia-x86_64-x64-vc14-debug-dynamic:errno.obj
 0003:000181b0       $SG14633                   00000001400bc1b0     pjmedia-x86_64-x64-vc14-debug-dynamic:errno.obj
 0003:000181e0       $SG14634                   00000001400bc1e0     pjmedia-x86_64-x64-vc14-debug-dynamic:errno.obj
 0003:00018220       $SG14635                   00000001400bc220     pjmedia-x86_64-x64-vc14-debug-dynamic:errno.obj
 0003:00018260       $SG14636                   00000001400bc260     pjmedia-x86_64-x64-vc14-debug-dynamic:errno.obj
 0003:00018298       $SG14637                   00000001400bc298     pjmedia-x86_64-x64-vc14-debug-dynamic:errno.obj
 0003:000182d0       $SG14638                   00000001400bc2d0     pjmedia-x86_64-x64-vc14-debug-dynamic:errno.obj
 0003:00018310       $SG14639                   00000001400bc310     pjmedia-x86_64-x64-vc14-debug-dynamic:errno.obj
 0003:00018348       $SG14640                   00000001400bc348     pjmedia-x86_64-x64-vc14-debug-dynamic:errno.obj
 0003:00018380       $SG14641                   00000001400bc380     pjmedia-x86_64-x64-vc14-debug-dynamic:errno.obj
 0003:000183d0       $SG14642                   00000001400bc3d0     pjmedia-x86_64-x64-vc14-debug-dynamic:errno.obj
 0003:00018418       $SG14643                   00000001400bc418     pjmedia-x86_64-x64-vc14-debug-dynamic:errno.obj
 0003:00018458       $SG14644                   00000001400bc458     pjmedia-x86_64-x64-vc14-debug-dynamic:errno.obj
 0003:000184a0       $SG14645                   00000001400bc4a0     pjmedia-x86_64-x64-vc14-debug-dynamic:errno.obj
 0003:000184f0       $SG14646                   00000001400bc4f0     pjmedia-x86_64-x64-vc14-debug-dynamic:errno.obj
 0003:00018540       $SG14647                   00000001400bc540     pjmedia-x86_64-x64-vc14-debug-dynamic:errno.obj
 0003:00018590       $SG14648                   00000001400bc590     pjmedia-x86_64-x64-vc14-debug-dynamic:errno.obj
 0003:000185e0       $SG14649                   00000001400bc5e0     pjmedia-x86_64-x64-vc14-debug-dynamic:errno.obj
 0003:00018628       $SG14650                   00000001400bc628     pjmedia-x86_64-x64-vc14-debug-dynamic:errno.obj
 0003:00018670       $SG14651                   00000001400bc670     pjmedia-x86_64-x64-vc14-debug-dynamic:errno.obj
 0003:000186c0       $SG14652                   00000001400bc6c0     pjmedia-x86_64-x64-vc14-debug-dynamic:errno.obj
 0003:00018710       $SG14653                   00000001400bc710     pjmedia-x86_64-x64-vc14-debug-dynamic:errno.obj
 0003:00018750       $SG14654                   00000001400bc750     pjmedia-x86_64-x64-vc14-debug-dynamic:errno.obj
 0003:000187a0       $SG14655                   00000001400bc7a0     pjmedia-x86_64-x64-vc14-debug-dynamic:errno.obj
 0003:000187f0       $SG14656                   00000001400bc7f0     pjmedia-x86_64-x64-vc14-debug-dynamic:errno.obj
 0003:00018838       $SG14657                   00000001400bc838     pjmedia-x86_64-x64-vc14-debug-dynamic:errno.obj
 0003:00018878       $SG14658                   00000001400bc878     pjmedia-x86_64-x64-vc14-debug-dynamic:errno.obj
 0003:000188b0       $SG14659                   00000001400bc8b0     pjmedia-x86_64-x64-vc14-debug-dynamic:errno.obj
 0003:000188f0       $SG14660                   00000001400bc8f0     pjmedia-x86_64-x64-vc14-debug-dynamic:errno.obj
 0003:00018930       $SG14661                   00000001400bc930     pjmedia-x86_64-x64-vc14-debug-dynamic:errno.obj
 0003:00018970       $SG14662                   00000001400bc970     pjmedia-x86_64-x64-vc14-debug-dynamic:errno.obj
 0003:000189b0       $SG14663                   00000001400bc9b0     pjmedia-x86_64-x64-vc14-debug-dynamic:errno.obj
 0003:000189e8       $SG14664                   00000001400bc9e8     pjmedia-x86_64-x64-vc14-debug-dynamic:errno.obj
 0003:00018a28       $SG14665                   00000001400bca28     pjmedia-x86_64-x64-vc14-debug-dynamic:errno.obj
 0003:00018a60       $SG14666                   00000001400bca60     pjmedia-x86_64-x64-vc14-debug-dynamic:errno.obj
 0003:00018a90       $SG14667                   00000001400bca90     pjmedia-x86_64-x64-vc14-debug-dynamic:errno.obj
 0003:00018ac8       $SG14668                   00000001400bcac8     pjmedia-x86_64-x64-vc14-debug-dynamic:errno.obj
 0003:00018b00       $SG14669                   00000001400bcb00     pjmedia-x86_64-x64-vc14-debug-dynamic:errno.obj
 0003:00018b38       $SG14670                   00000001400bcb38     pjmedia-x86_64-x64-vc14-debug-dynamic:errno.obj
 0003:00018b70       $SG14671                   00000001400bcb70     pjmedia-x86_64-x64-vc14-debug-dynamic:errno.obj
 0003:00018ba8       $SG14672                   00000001400bcba8     pjmedia-x86_64-x64-vc14-debug-dynamic:errno.obj
 0003:00018be0       $SG14673                   00000001400bcbe0     pjmedia-x86_64-x64-vc14-debug-dynamic:errno.obj
 0003:00018c20       $SG14674                   00000001400bcc20     pjmedia-x86_64-x64-vc14-debug-dynamic:errno.obj
 0003:00018c58       $SG14675                   00000001400bcc58     pjmedia-x86_64-x64-vc14-debug-dynamic:errno.obj
 0003:00018c98       $SG14676                   00000001400bcc98     pjmedia-x86_64-x64-vc14-debug-dynamic:errno.obj
 0003:00018cc8       $SG14677                   00000001400bccc8     pjmedia-x86_64-x64-vc14-debug-dynamic:errno.obj
 0003:00018d08       $SG14678                   00000001400bcd08     pjmedia-x86_64-x64-vc14-debug-dynamic:errno.obj
 0003:00018d38       $SG14679                   00000001400bcd38     pjmedia-x86_64-x64-vc14-debug-dynamic:errno.obj
 0003:00018d70       $SG14680                   00000001400bcd70     pjmedia-x86_64-x64-vc14-debug-dynamic:errno.obj
 0003:00018da0       $SG14681                   00000001400bcda0     pjmedia-x86_64-x64-vc14-debug-dynamic:errno.obj
 0003:00018de0       $SG14682                   00000001400bcde0     pjmedia-x86_64-x64-vc14-debug-dynamic:errno.obj
 0003:00018e00       $SG14683                   00000001400bce00     pjmedia-x86_64-x64-vc14-debug-dynamic:errno.obj
 0003:00018e38       $SG14684                   00000001400bce38     pjmedia-x86_64-x64-vc14-debug-dynamic:errno.obj
 0003:00018e60       $SG14685                   00000001400bce60     pjmedia-x86_64-x64-vc14-debug-dynamic:errno.obj
 0003:00018ea0       $SG14686                   00000001400bcea0     pjmedia-x86_64-x64-vc14-debug-dynamic:errno.obj
 0003:00018ed0       $SG14687                   00000001400bced0     pjmedia-x86_64-x64-vc14-debug-dynamic:errno.obj
 0003:00018f08       $SG14688                   00000001400bcf08     pjmedia-x86_64-x64-vc14-debug-dynamic:errno.obj
 0003:00018f40       $SG14689                   00000001400bcf40     pjmedia-x86_64-x64-vc14-debug-dynamic:errno.obj
 0003:00018f70       $SG14690                   00000001400bcf70     pjmedia-x86_64-x64-vc14-debug-dynamic:errno.obj
 0003:00018fa8       $SG14691                   00000001400bcfa8     pjmedia-x86_64-x64-vc14-debug-dynamic:errno.obj
 0003:00018fe0       $SG14692                   00000001400bcfe0     pjmedia-x86_64-x64-vc14-debug-dynamic:errno.obj
 0003:00019020       $SG14693                   00000001400bd020     pjmedia-x86_64-x64-vc14-debug-dynamic:errno.obj
 0003:00019068       $SG14694                   00000001400bd068     pjmedia-x86_64-x64-vc14-debug-dynamic:errno.obj
 0003:00019098       $SG14695                   00000001400bd098     pjmedia-x86_64-x64-vc14-debug-dynamic:errno.obj
 0003:000190d0       $SG14696                   00000001400bd0d0     pjmedia-x86_64-x64-vc14-debug-dynamic:errno.obj
 0003:00019110       $SG14697                   00000001400bd110     pjmedia-x86_64-x64-vc14-debug-dynamic:errno.obj
 0003:00019160       $SG14698                   00000001400bd160     pjmedia-x86_64-x64-vc14-debug-dynamic:errno.obj
 0003:000191a0       $SG14699                   00000001400bd1a0     pjmedia-x86_64-x64-vc14-debug-dynamic:errno.obj
 0003:000191e0       $SG14700                   00000001400bd1e0     pjmedia-x86_64-x64-vc14-debug-dynamic:errno.obj
 0003:00019230       $SG14701                   00000001400bd230     pjmedia-x86_64-x64-vc14-debug-dynamic:errno.obj
 0003:00019278       $SG14702                   00000001400bd278     pjmedia-x86_64-x64-vc14-debug-dynamic:errno.obj
 0003:000192a8       $SG14703                   00000001400bd2a8     pjmedia-x86_64-x64-vc14-debug-dynamic:errno.obj
 0003:000192e0       $SG14704                   00000001400bd2e0     pjmedia-x86_64-x64-vc14-debug-dynamic:errno.obj
 0003:00019310       $SG14705                   00000001400bd310     pjmedia-x86_64-x64-vc14-debug-dynamic:errno.obj
 0003:00019350       $SG14706                   00000001400bd350     pjmedia-x86_64-x64-vc14-debug-dynamic:errno.obj
 0003:00019380       $SG14707                   00000001400bd380     pjmedia-x86_64-x64-vc14-debug-dynamic:errno.obj
 0003:000193b8       $SG14708                   00000001400bd3b8     pjmedia-x86_64-x64-vc14-debug-dynamic:errno.obj
 0003:000193f0       $SG14709                   00000001400bd3f0     pjmedia-x86_64-x64-vc14-debug-dynamic:errno.obj
 0003:00019420       $SG14710                   00000001400bd420     pjmedia-x86_64-x64-vc14-debug-dynamic:errno.obj
 0003:00019470       $SG14711                   00000001400bd470     pjmedia-x86_64-x64-vc14-debug-dynamic:errno.obj
 0003:000194c0       $SG14712                   00000001400bd4c0     pjmedia-x86_64-x64-vc14-debug-dynamic:errno.obj
 0003:00019508       $SG14713                   00000001400bd508     pjmedia-x86_64-x64-vc14-debug-dynamic:errno.obj
 0003:00019548       $SG14714                   00000001400bd548     pjmedia-x86_64-x64-vc14-debug-dynamic:errno.obj
 0003:00019588       $SG14715                   00000001400bd588     pjmedia-x86_64-x64-vc14-debug-dynamic:errno.obj
 0003:000195c8       $SG14716                   00000001400bd5c8     pjmedia-x86_64-x64-vc14-debug-dynamic:errno.obj
 0003:00019608       $SG14717                   00000001400bd608     pjmedia-x86_64-x64-vc14-debug-dynamic:errno.obj
 0003:00019640       $SG14718                   00000001400bd640     pjmedia-x86_64-x64-vc14-debug-dynamic:errno.obj
 0003:00019688       $SG14719                   00000001400bd688     pjmedia-x86_64-x64-vc14-debug-dynamic:errno.obj
 0003:000196d0       $SG14720                   00000001400bd6d0     pjmedia-x86_64-x64-vc14-debug-dynamic:errno.obj
 0003:00019720       $SG14721                   00000001400bd720     pjmedia-x86_64-x64-vc14-debug-dynamic:errno.obj
 0003:00019770       $SG14722                   00000001400bd770     pjmedia-x86_64-x64-vc14-debug-dynamic:errno.obj
 0003:000197c0       $SG14723                   00000001400bd7c0     pjmedia-x86_64-x64-vc14-debug-dynamic:errno.obj
 0003:00019810       $SG14724                   00000001400bd810     pjmedia-x86_64-x64-vc14-debug-dynamic:errno.obj
 0003:00019870       $SG14725                   00000001400bd870     pjmedia-x86_64-x64-vc14-debug-dynamic:errno.obj
 0003:000198b0       $SG14726                   00000001400bd8b0     pjmedia-x86_64-x64-vc14-debug-dynamic:errno.obj
 0003:000198f8       $SG14755                   00000001400bd8f8     pjmedia-x86_64-x64-vc14-debug-dynamic:errno.obj
 0003:00019e50       $SG16794                   00000001400bde50     pjmedia-x86_64-x64-vc14-debug-dynamic:wsola.obj
 0003:00019f50       $SG16795                   00000001400bdf50     pjmedia-x86_64-x64-vc14-debug-dynamic:wsola.obj
 0003:00019fb8       $SG16798                   00000001400bdfb8     pjmedia-x86_64-x64-vc14-debug-dynamic:wsola.obj
 0003:00019fe0       $SG16797                   00000001400bdfe0     pjmedia-x86_64-x64-vc14-debug-dynamic:wsola.obj
 0003:0001a0e0       $SG16800                   00000001400be0e0     pjmedia-x86_64-x64-vc14-debug-dynamic:wsola.obj
 0003:0001a1e0       $SG16801                   00000001400be1e0     pjmedia-x86_64-x64-vc14-debug-dynamic:wsola.obj
 0003:0001a220       $SG16803                   00000001400be220     pjmedia-x86_64-x64-vc14-debug-dynamic:wsola.obj
 0003:0001a320       $SG16804                   00000001400be320     pjmedia-x86_64-x64-vc14-debug-dynamic:wsola.obj
 0003:0001a348       $SG16806                   00000001400be348     pjmedia-x86_64-x64-vc14-debug-dynamic:wsola.obj
 0003:0001a368       $SG16807                   00000001400be368     pjmedia-x86_64-x64-vc14-debug-dynamic:wsola.obj
 0003:0001a370       $SG16810                   00000001400be370     pjmedia-x86_64-x64-vc14-debug-dynamic:wsola.obj
 0003:0001a470       $SG16811                   00000001400be470     pjmedia-x86_64-x64-vc14-debug-dynamic:wsola.obj
 0003:0001a4c8       $SG16831                   00000001400be4c8     pjmedia-x86_64-x64-vc14-debug-dynamic:wsola.obj
 0003:0001a4d8       $SG16846                   00000001400be4d8     pjmedia-x86_64-x64-vc14-debug-dynamic:wsola.obj
 0003:0001a500       $SG16830                   00000001400be500     pjmedia-x86_64-x64-vc14-debug-dynamic:wsola.obj
 0003:0001a600       $SG16845                   00000001400be600     pjmedia-x86_64-x64-vc14-debug-dynamic:wsola.obj
 0003:0001a700       $SG16871                   00000001400be700     pjmedia-x86_64-x64-vc14-debug-dynamic:wsola.obj
 0003:0001a728       $SG17007                   00000001400be728     pjmedia-x86_64-x64-vc14-debug-dynamic:wsola.obj
 0003:0001a740       $SG16872                   00000001400be740     pjmedia-x86_64-x64-vc14-debug-dynamic:wsola.obj
 0003:0001a840       $SG16873                   00000001400be840     pjmedia-x86_64-x64-vc14-debug-dynamic:wsola.obj
 0003:0001a890       $SG17003                   00000001400be890     pjmedia-x86_64-x64-vc14-debug-dynamic:wsola.obj
 0003:0001a990       $SG17004                   00000001400be990     pjmedia-x86_64-x64-vc14-debug-dynamic:wsola.obj
 0003:0001a9e0       $SG17006                   00000001400be9e0     pjmedia-x86_64-x64-vc14-debug-dynamic:wsola.obj
 0003:0001aae0       $SG17011                   00000001400beae0     pjmedia-x86_64-x64-vc14-debug-dynamic:wsola.obj
 0003:0001abe0       $SG17012                   00000001400bebe0     pjmedia-x86_64-x64-vc14-debug-dynamic:wsola.obj
 0003:0001abf0       $SG17014                   00000001400bebf0     pjmedia-x86_64-x64-vc14-debug-dynamic:wsola.obj
 0003:0001ac10       $SG17015                   00000001400bec10     pjmedia-x86_64-x64-vc14-debug-dynamic:wsola.obj
 0003:0001ad10       $SG17016                   00000001400bed10     pjmedia-x86_64-x64-vc14-debug-dynamic:wsola.obj
 0003:0001b050       $SG16723                   00000001400bf050     pjmedia-x86_64-x64-vc14-debug-dynamic:clock_thread.obj
 0003:0001b158       $SG16724                   00000001400bf158     pjmedia-x86_64-x64-vc14-debug-dynamic:clock_thread.obj
 0003:0001b170       $SG16737                   00000001400bf170     pjmedia-x86_64-x64-vc14-debug-dynamic:clock_thread.obj
 0003:0001b278       $SG16738                   00000001400bf278     pjmedia-x86_64-x64-vc14-debug-dynamic:clock_thread.obj
 0003:0001b290       $SG16755                   00000001400bf290     pjmedia-x86_64-x64-vc14-debug-dynamic:clock_thread.obj
 0003:0001b398       $SG16756                   00000001400bf398     pjmedia-x86_64-x64-vc14-debug-dynamic:clock_thread.obj
 0003:0001b3c4       $SG16837                   00000001400bf3c4     pjmedia-x86_64-x64-vc14-debug-dynamic:clock_thread.obj
 0003:0001b3d0       $SG16833                   00000001400bf3d0     pjmedia-x86_64-x64-vc14-debug-dynamic:clock_thread.obj
 0003:0001b4d8       $SG16835                   00000001400bf4d8     pjmedia-x86_64-x64-vc14-debug-dynamic:clock_thread.obj
 0003:0001b4e0       $SG16834                   00000001400bf4e0     pjmedia-x86_64-x64-vc14-debug-dynamic:clock_thread.obj
 0003:0001b560       $SG16852                   00000001400bf560     pjmedia-x86_64-x64-vc14-debug-dynamic:clock_thread.obj
 0003:0001b668       $SG16853                   00000001400bf668     pjmedia-x86_64-x64-vc14-debug-dynamic:clock_thread.obj
 0003:0001b694       $SG16857                   00000001400bf694     pjmedia-x86_64-x64-vc14-debug-dynamic:clock_thread.obj
 0003:0001b6a0       $SG16871                   00000001400bf6a0     pjmedia-x86_64-x64-vc14-debug-dynamic:clock_thread.obj
 0003:0001b7a8       $SG16872                   00000001400bf7a8     pjmedia-x86_64-x64-vc14-debug-dynamic:clock_thread.obj
 0003:0001b7d8       $SG16926                   00000001400bf7d8     pjmedia-x86_64-x64-vc14-debug-dynamic:clock_thread.obj
 0003:0001b800       $SG16919                   00000001400bf800     pjmedia-x86_64-x64-vc14-debug-dynamic:clock_thread.obj
 0003:0001b908       $SG16920                   00000001400bf908     pjmedia-x86_64-x64-vc14-debug-dynamic:clock_thread.obj
 0003:0001b940       $SG16922                   00000001400bf940     pjmedia-x86_64-x64-vc14-debug-dynamic:clock_thread.obj
 0003:0001ba50       $SG16923                   00000001400bfa50     pjmedia-x86_64-x64-vc14-debug-dynamic:clock_thread.obj
 0003:0001bab0       $SG16925                   00000001400bfab0     pjmedia-x86_64-x64-vc14-debug-dynamic:clock_thread.obj
 0003:0001bbc0       $SG16961                   00000001400bfbc0     pjmedia-x86_64-x64-vc14-debug-dynamic:clock_thread.obj
 0003:0001bcc8       $SG16962                   00000001400bfcc8     pjmedia-x86_64-x64-vc14-debug-dynamic:clock_thread.obj
 0003:0001bf80       $SG16710                   00000001400bff80     pjmedia-x86_64-x64-vc14-debug-dynamic:echo_common.obj
 0003:0001bf90       $SG16712                   00000001400bff90     pjmedia-x86_64-x64-vc14-debug-dynamic:echo_common.obj
 0003:0001bfa0       echo_supp_op               00000001400bffa0     pjmedia-x86_64-x64-vc14-debug-dynamic:echo_common.obj
 0003:0001bfe0       speex_aec_op               00000001400bffe0     pjmedia-x86_64-x64-vc14-debug-dynamic:echo_common.obj
 0003:0001c020       $SG16772                   00000001400c0020     pjmedia-x86_64-x64-vc14-debug-dynamic:echo_common.obj
 0003:0001c028       $SG16837                   00000001400c0028     pjmedia-x86_64-x64-vc14-debug-dynamic:echo_common.obj
 0003:0001c038       $SG16839                   00000001400c0038     pjmedia-x86_64-x64-vc14-debug-dynamic:echo_common.obj
 0003:0001c070       $SG16778                   00000001400c0070     pjmedia-x86_64-x64-vc14-debug-dynamic:echo_common.obj
 0003:0001c180       $SG16779                   00000001400c0180     pjmedia-x86_64-x64-vc14-debug-dynamic:echo_common.obj
 0003:0001c1d8       $SG16781                   00000001400c01d8     pjmedia-x86_64-x64-vc14-debug-dynamic:echo_common.obj
 0003:0001c1f0       $SG16790                   00000001400c01f0     pjmedia-x86_64-x64-vc14-debug-dynamic:echo_common.obj
 0003:0001c250       $SG16816                   00000001400c0250     pjmedia-x86_64-x64-vc14-debug-dynamic:echo_common.obj
 0003:0001c270       $SG16862                   00000001400c0270     pjmedia-x86_64-x64-vc14-debug-dynamic:echo_common.obj
 0003:0001c378       $SG16863                   00000001400c0378     pjmedia-x86_64-x64-vc14-debug-dynamic:echo_common.obj
 0003:0001c460       $SG22126                   00000001400c0460     pjmedia-x86_64-x64-vc14-debug-dynamic:transport_srtp.obj
 0003:0001c468       $SG22128                   00000001400c0468     pjmedia-x86_64-x64-vc14-debug-dynamic:transport_srtp.obj
 0003:0001c474       $SG22130                   00000001400c0474     pjmedia-x86_64-x64-vc14-debug-dynamic:transport_srtp.obj
 0003:0001c47c       $SG22153                   00000001400c047c     pjmedia-x86_64-x64-vc14-debug-dynamic:transport_srtp.obj
 0003:0001c484       $SG22329                   00000001400c0484     pjmedia-x86_64-x64-vc14-debug-dynamic:transport_srtp.obj
 0003:0001c488       $SG22154                   00000001400c0488     pjmedia-x86_64-x64-vc14-debug-dynamic:transport_srtp.obj
 0003:0001c4a0       $SG22155                   00000001400c04a0     pjmedia-x86_64-x64-vc14-debug-dynamic:transport_srtp.obj
 0003:0001c4b8       $SG22156                   00000001400c04b8     pjmedia-x86_64-x64-vc14-debug-dynamic:transport_srtp.obj
 0003:0001c4d0       $SG22157                   00000001400c04d0     pjmedia-x86_64-x64-vc14-debug-dynamic:transport_srtp.obj
 0003:0001c4e8       $SG22330                   00000001400c04e8     pjmedia-x86_64-x64-vc14-debug-dynamic:transport_srtp.obj
 0003:0001c500       $SG22331                   00000001400c0500     pjmedia-x86_64-x64-vc14-debug-dynamic:transport_srtp.obj
 0003:0001c518       $SG22332                   00000001400c0518     pjmedia-x86_64-x64-vc14-debug-dynamic:transport_srtp.obj
 0003:0001c538       $SG22333                   00000001400c0538     pjmedia-x86_64-x64-vc14-debug-dynamic:transport_srtp.obj
 0003:0001c558       $SG22334                   00000001400c0558     pjmedia-x86_64-x64-vc14-debug-dynamic:transport_srtp.obj
 0003:0001c570       $SG22335                   00000001400c0570     pjmedia-x86_64-x64-vc14-debug-dynamic:transport_srtp.obj
 0003:0001c598       $SG22336                   00000001400c0598     pjmedia-x86_64-x64-vc14-debug-dynamic:transport_srtp.obj
 0003:0001c5b0       $SG22337                   00000001400c05b0     pjmedia-x86_64-x64-vc14-debug-dynamic:transport_srtp.obj
 0003:0001c5c0       $SG22338                   00000001400c05c0     pjmedia-x86_64-x64-vc14-debug-dynamic:transport_srtp.obj
 0003:0001c5e0       $SG22339                   00000001400c05e0     pjmedia-x86_64-x64-vc14-debug-dynamic:transport_srtp.obj
 0003:0001c608       $SG22340                   00000001400c0608     pjmedia-x86_64-x64-vc14-debug-dynamic:transport_srtp.obj
 0003:0001c628       $SG22341                   00000001400c0628     pjmedia-x86_64-x64-vc14-debug-dynamic:transport_srtp.obj
 0003:0001c640       $SG22342                   00000001400c0640     pjmedia-x86_64-x64-vc14-debug-dynamic:transport_srtp.obj
 0003:0001c660       $SG22343                   00000001400c0660     pjmedia-x86_64-x64-vc14-debug-dynamic:transport_srtp.obj
 0003:0001c688       $SG22344                   00000001400c0688     pjmedia-x86_64-x64-vc14-debug-dynamic:transport_srtp.obj
 0003:0001c6a0       $SG22345                   00000001400c06a0     pjmedia-x86_64-x64-vc14-debug-dynamic:transport_srtp.obj
 0003:0001c6b8       $SG22346                   00000001400c06b8     pjmedia-x86_64-x64-vc14-debug-dynamic:transport_srtp.obj
 0003:0001c6d8       $SG22347                   00000001400c06d8     pjmedia-x86_64-x64-vc14-debug-dynamic:transport_srtp.obj
 0003:0001c6f0       $SG22348                   00000001400c06f0     pjmedia-x86_64-x64-vc14-debug-dynamic:transport_srtp.obj
 0003:0001c708       $SG22349                   00000001400c0708     pjmedia-x86_64-x64-vc14-debug-dynamic:transport_srtp.obj
 0003:0001c720       $SG22350                   00000001400c0720     pjmedia-x86_64-x64-vc14-debug-dynamic:transport_srtp.obj
 0003:0001c738       $SG22351                   00000001400c0738     pjmedia-x86_64-x64-vc14-debug-dynamic:transport_srtp.obj
 0003:0001c750       $SG22352                   00000001400c0750     pjmedia-x86_64-x64-vc14-debug-dynamic:transport_srtp.obj
 0003:0001c770       $SG22353                   00000001400c0770     pjmedia-x86_64-x64-vc14-debug-dynamic:transport_srtp.obj
 0003:0001c788       $SG22423                   00000001400c0788     pjmedia-x86_64-x64-vc14-debug-dynamic:transport_srtp.obj
 0003:0001c790       crypto_suites              00000001400c0790     pjmedia-x86_64-x64-vc14-debug-dynamic:transport_srtp.obj
 0003:0001c8a8       $SG22486                   00000001400c08a8     pjmedia-x86_64-x64-vc14-debug-dynamic:transport_srtp.obj
 0003:0001c8c0       transport_srtp_op          00000001400c08c0     pjmedia-x86_64-x64-vc14-debug-dynamic:transport_srtp.obj
 0003:0001c928       $SG22491                   00000001400c0928     pjmedia-x86_64-x64-vc14-debug-dynamic:transport_srtp.obj
 0003:0001c950       ?liberr@?1??get_libsrtp_errstr@@9@9 00000001400c0950     pjmedia-x86_64-x64-vc14-debug-dynamic:transport_srtp.obj
 0003:0001ca18       $SG22356                   00000001400c0a18     pjmedia-x86_64-x64-vc14-debug-dynamic:transport_srtp.obj
 0003:0001ca38       $SG22492                   00000001400c0a38     pjmedia-x86_64-x64-vc14-debug-dynamic:transport_srtp.obj
 0003:0001ca50       sdes_op                    00000001400c0a50     pjmedia-x86_64-x64-vc14-debug-dynamic:transport_srtp.obj
 0003:0001cab8       $SG22425                   00000001400c0ab8     pjmedia-x86_64-x64-vc14-debug-dynamic:transport_srtp.obj
 0003:0001cad8       $SG22496                   00000001400c0ad8     pjmedia-x86_64-x64-vc14-debug-dynamic:transport_srtp.obj
 0003:0001cae8       $SG22540                   00000001400c0ae8     pjmedia-x86_64-x64-vc14-debug-dynamic:transport_srtp.obj
 0003:0001caf0       $SG22482                   00000001400c0af0     pjmedia-x86_64-x64-vc14-debug-dynamic:transport_srtp.obj
 0003:0001cc08       $SG22543                   00000001400c0c08     pjmedia-x86_64-x64-vc14-debug-dynamic:transport_srtp.obj
 0003:0001cc28       $SG22544                   00000001400c0c28     pjmedia-x86_64-x64-vc14-debug-dynamic:transport_srtp.obj
 0003:0001cc40       $SG22483                   00000001400c0c40     pjmedia-x86_64-x64-vc14-debug-dynamic:transport_srtp.obj
 0003:0001cc98       $SG22549                   00000001400c0c98     pjmedia-x86_64-x64-vc14-debug-dynamic:transport_srtp.obj
 0003:0001ccc0       $SG22485                   00000001400c0cc0     pjmedia-x86_64-x64-vc14-debug-dynamic:transport_srtp.obj
 0003:0001cd08       $SG22550                   00000001400c0d08     pjmedia-x86_64-x64-vc14-debug-dynamic:transport_srtp.obj
 0003:0001cd20       $SG22494                   00000001400c0d20     pjmedia-x86_64-x64-vc14-debug-dynamic:transport_srtp.obj
 0003:0001ce38       $SG22551                   00000001400c0e38     pjmedia-x86_64-x64-vc14-debug-dynamic:transport_srtp.obj
 0003:0001ce40       $SG22495                   00000001400c0e40     pjmedia-x86_64-x64-vc14-debug-dynamic:transport_srtp.obj
 0003:0001ceac       $SG22561                   00000001400c0eac     pjmedia-x86_64-x64-vc14-debug-dynamic:transport_srtp.obj
 0003:0001ceb0       $SG22554                   00000001400c0eb0     pjmedia-x86_64-x64-vc14-debug-dynamic:transport_srtp.obj
 0003:0001ced8       $SG22555                   00000001400c0ed8     pjmedia-x86_64-x64-vc14-debug-dynamic:transport_srtp.obj
 0003:0001ceec       $SG22557                   00000001400c0eec     pjmedia-x86_64-x64-vc14-debug-dynamic:transport_srtp.obj
 0003:0001cef8       $SG22559                   00000001400c0ef8     pjmedia-x86_64-x64-vc14-debug-dynamic:transport_srtp.obj
 0003:0001cf30       $SG22560                   00000001400c0f30     pjmedia-x86_64-x64-vc14-debug-dynamic:transport_srtp.obj
 0003:0001cf48       $SG22564                   00000001400c0f48     pjmedia-x86_64-x64-vc14-debug-dynamic:transport_srtp.obj
 0003:0001cf68       $SG22565                   00000001400c0f68     pjmedia-x86_64-x64-vc14-debug-dynamic:transport_srtp.obj
 0003:0001cf80       $SG22568                   00000001400c0f80     pjmedia-x86_64-x64-vc14-debug-dynamic:transport_srtp.obj
 0003:0001cf90       $SG22569                   00000001400c0f90     pjmedia-x86_64-x64-vc14-debug-dynamic:transport_srtp.obj
 0003:0001cfa8       $SG22571                   00000001400c0fa8     pjmedia-x86_64-x64-vc14-debug-dynamic:transport_srtp.obj
 0003:0001cfd0       $SG22572                   00000001400c0fd0     pjmedia-x86_64-x64-vc14-debug-dynamic:transport_srtp.obj
 0003:0001cfe8       $SG22673                   00000001400c0fe8     pjmedia-x86_64-x64-vc14-debug-dynamic:transport_srtp.obj
 0003:0001d010       $SG22672                   00000001400c1010     pjmedia-x86_64-x64-vc14-debug-dynamic:transport_srtp.obj
 0003:0001d128       $SG22821                   00000001400c1128     pjmedia-x86_64-x64-vc14-debug-dynamic:transport_srtp.obj
 0003:0001d150       $SG22822                   00000001400c1150     pjmedia-x86_64-x64-vc14-debug-dynamic:transport_srtp.obj
 0003:0001d168       $SG22824                   00000001400c1168     pjmedia-x86_64-x64-vc14-debug-dynamic:transport_srtp.obj
 0003:0001d190       $SG22825                   00000001400c1190     pjmedia-x86_64-x64-vc14-debug-dynamic:transport_srtp.obj
 0003:0001d1a8       $SG22837                   00000001400c11a8     pjmedia-x86_64-x64-vc14-debug-dynamic:transport_srtp.obj
 0003:0001d1d0       $SG22838                   00000001400c11d0     pjmedia-x86_64-x64-vc14-debug-dynamic:transport_srtp.obj
 0003:0001d1e8       $SG22867                   00000001400c11e8     pjmedia-x86_64-x64-vc14-debug-dynamic:transport_srtp.obj
 0003:0001d1f0       $SG22866                   00000001400c11f0     pjmedia-x86_64-x64-vc14-debug-dynamic:transport_srtp.obj
 0003:0001d300       $SG22885                   00000001400c1300     pjmedia-x86_64-x64-vc14-debug-dynamic:transport_srtp.obj
 0003:0001d410       $SG22886                   00000001400c1410     pjmedia-x86_64-x64-vc14-debug-dynamic:transport_srtp.obj
 0003:0001d430       $SG22901                   00000001400c1430     pjmedia-x86_64-x64-vc14-debug-dynamic:transport_srtp.obj
 0003:0001d540       $SG22902                   00000001400c1540     pjmedia-x86_64-x64-vc14-debug-dynamic:transport_srtp.obj
 0003:0001d560       $SG22941                   00000001400c1560     pjmedia-x86_64-x64-vc14-debug-dynamic:transport_srtp.obj
 0003:0001d670       $SG22942                   00000001400c1670     pjmedia-x86_64-x64-vc14-debug-dynamic:transport_srtp.obj
 0003:0001d698       $SG22947                   00000001400c1698     pjmedia-x86_64-x64-vc14-debug-dynamic:transport_srtp.obj
 0003:0001d6a0       $SG23013                   00000001400c16a0     pjmedia-x86_64-x64-vc14-debug-dynamic:transport_srtp.obj
 0003:0001d7b0       $SG23014                   00000001400c17b0     pjmedia-x86_64-x64-vc14-debug-dynamic:transport_srtp.obj
 0003:0001d7d0       $SG23041                   00000001400c17d0     pjmedia-x86_64-x64-vc14-debug-dynamic:transport_srtp.obj
 0003:0001d7e8       $SG23043                   00000001400c17e8     pjmedia-x86_64-x64-vc14-debug-dynamic:transport_srtp.obj
 0003:0001d7f8       $SG23047                   00000001400c17f8     pjmedia-x86_64-x64-vc14-debug-dynamic:transport_srtp.obj
 0003:0001d800       $SG23049                   00000001400c1800     pjmedia-x86_64-x64-vc14-debug-dynamic:transport_srtp.obj
 0003:0001d808       $SG23050                   00000001400c1808     pjmedia-x86_64-x64-vc14-debug-dynamic:transport_srtp.obj
 0003:0001d818       $SG23053                   00000001400c1818     pjmedia-x86_64-x64-vc14-debug-dynamic:transport_srtp.obj
 0003:0001d830       $SG23055                   00000001400c1830     pjmedia-x86_64-x64-vc14-debug-dynamic:transport_srtp.obj
 0003:0001d840       $SG23059                   00000001400c1840     pjmedia-x86_64-x64-vc14-debug-dynamic:transport_srtp.obj
 0003:0001d848       $SG23061                   00000001400c1848     pjmedia-x86_64-x64-vc14-debug-dynamic:transport_srtp.obj
 0003:0001d850       $SG23062                   00000001400c1850     pjmedia-x86_64-x64-vc14-debug-dynamic:transport_srtp.obj
 0003:0001d860       $SG23081                   00000001400c1860     pjmedia-x86_64-x64-vc14-debug-dynamic:transport_srtp.obj
 0003:0001d970       $SG23082                   00000001400c1970     pjmedia-x86_64-x64-vc14-debug-dynamic:transport_srtp.obj
 0003:0001d980       $SG23086                   00000001400c1980     pjmedia-x86_64-x64-vc14-debug-dynamic:transport_srtp.obj
 0003:0001d9a8       $SG23089                   00000001400c19a8     pjmedia-x86_64-x64-vc14-debug-dynamic:transport_srtp.obj
 0003:0001d9d0       $SG23105                   00000001400c19d0     pjmedia-x86_64-x64-vc14-debug-dynamic:transport_srtp.obj
 0003:0001d9e0       $SG23110                   00000001400c19e0     pjmedia-x86_64-x64-vc14-debug-dynamic:transport_srtp.obj
 0003:0001d9e8       $SG23111                   00000001400c19e8     pjmedia-x86_64-x64-vc14-debug-dynamic:transport_srtp.obj
 0003:0001d9f8       $SG23112                   00000001400c19f8     pjmedia-x86_64-x64-vc14-debug-dynamic:transport_srtp.obj
 0003:0001da20       $SG23125                   00000001400c1a20     pjmedia-x86_64-x64-vc14-debug-dynamic:transport_srtp.obj
 0003:0001db2c       $SG23126                   00000001400c1b2c     pjmedia-x86_64-x64-vc14-debug-dynamic:transport_srtp.obj
 0003:0001db38       $SG23162                   00000001400c1b38     pjmedia-x86_64-x64-vc14-debug-dynamic:transport_srtp.obj
 0003:0001db50       $SG23161                   00000001400c1b50     pjmedia-x86_64-x64-vc14-debug-dynamic:transport_srtp.obj
 0003:0001dc60       $SG23164                   00000001400c1c60     pjmedia-x86_64-x64-vc14-debug-dynamic:transport_srtp.obj
 0003:0001dd70       $SG23165                   00000001400c1d70     pjmedia-x86_64-x64-vc14-debug-dynamic:transport_srtp.obj
 0003:0001dda8       $SG23188                   00000001400c1da8     pjmedia-x86_64-x64-vc14-debug-dynamic:transport_srtp.obj
 0003:0001ddc0       $SG23187                   00000001400c1dc0     pjmedia-x86_64-x64-vc14-debug-dynamic:transport_srtp.obj
 0003:0001ded0       $SG23209                   00000001400c1ed0     pjmedia-x86_64-x64-vc14-debug-dynamic:transport_srtp.obj
 0003:0001dfdc       $SG23210                   00000001400c1fdc     pjmedia-x86_64-x64-vc14-debug-dynamic:transport_srtp.obj
 0003:0001dfe4       $SG23277                   00000001400c1fe4     pjmedia-x86_64-x64-vc14-debug-dynamic:transport_srtp.obj
 0003:0001dff0       $SG23276                   00000001400c1ff0     pjmedia-x86_64-x64-vc14-debug-dynamic:transport_srtp.obj
 0003:0001e100       $SG23294                   00000001400c2100     pjmedia-x86_64-x64-vc14-debug-dynamic:transport_srtp.obj
 0003:0001e20c       $SG23295                   00000001400c220c     pjmedia-x86_64-x64-vc14-debug-dynamic:transport_srtp.obj
 0003:0001e218       $SG23353                   00000001400c2218     pjmedia-x86_64-x64-vc14-debug-dynamic:transport_srtp.obj
 0003:0001e254       $SG23446                   00000001400c2254     pjmedia-x86_64-x64-vc14-debug-dynamic:transport_srtp.obj
 0003:0001e260       $SG23352                   00000001400c2260     pjmedia-x86_64-x64-vc14-debug-dynamic:transport_srtp.obj
 0003:0001e370       $SG23364                   00000001400c2370     pjmedia-x86_64-x64-vc14-debug-dynamic:transport_srtp.obj
 0003:0001e390       $SG23369                   00000001400c2390     pjmedia-x86_64-x64-vc14-debug-dynamic:transport_srtp.obj
 0003:0001e3c0       $SG23405                   00000001400c23c0     pjmedia-x86_64-x64-vc14-debug-dynamic:transport_srtp.obj
 0003:0001e4d0       $SG23406                   00000001400c24d0     pjmedia-x86_64-x64-vc14-debug-dynamic:transport_srtp.obj
 0003:0001e510       $SG23412                   00000001400c2510     pjmedia-x86_64-x64-vc14-debug-dynamic:transport_srtp.obj
 0003:0001e540       $SG23445                   00000001400c2540     pjmedia-x86_64-x64-vc14-debug-dynamic:transport_srtp.obj
 0003:0001e650       $SG23492                   00000001400c2650     pjmedia-x86_64-x64-vc14-debug-dynamic:transport_srtp.obj
 0003:0001e760       $SG23493                   00000001400c2760     pjmedia-x86_64-x64-vc14-debug-dynamic:transport_srtp.obj
 0003:0001e798       $SG23506                   00000001400c2798     pjmedia-x86_64-x64-vc14-debug-dynamic:transport_srtp.obj
 0003:0001e7a0       $SG23503                   00000001400c27a0     pjmedia-x86_64-x64-vc14-debug-dynamic:transport_srtp.obj
 0003:0001e8b0       $SG23504                   00000001400c28b0     pjmedia-x86_64-x64-vc14-debug-dynamic:transport_srtp.obj
 0003:0001e8e0       $SG23507                   00000001400c28e0     pjmedia-x86_64-x64-vc14-debug-dynamic:transport_srtp.obj
 0003:0001e8f0       $SG23508                   00000001400c28f0     pjmedia-x86_64-x64-vc14-debug-dynamic:transport_srtp.obj
 0003:0001e910       $SG23536                   00000001400c2910     pjmedia-x86_64-x64-vc14-debug-dynamic:transport_srtp.obj
 0003:0001ea1c       $SG23537                   00000001400c2a1c     pjmedia-x86_64-x64-vc14-debug-dynamic:transport_srtp.obj
 0003:0001ea28       $SG23539                   00000001400c2a28     pjmedia-x86_64-x64-vc14-debug-dynamic:transport_srtp.obj
 0003:0001ea54       $SG23565                   00000001400c2a54     pjmedia-x86_64-x64-vc14-debug-dynamic:transport_srtp.obj
 0003:0001ea60       $SG23538                   00000001400c2a60     pjmedia-x86_64-x64-vc14-debug-dynamic:transport_srtp.obj
 0003:0001eb70       $SG23564                   00000001400c2b70     pjmedia-x86_64-x64-vc14-debug-dynamic:transport_srtp.obj
 0003:0001ec80       $SG23567                   00000001400c2c80     pjmedia-x86_64-x64-vc14-debug-dynamic:transport_srtp.obj
 0003:0001ecb0       $SG23603                   00000001400c2cb0     pjmedia-x86_64-x64-vc14-debug-dynamic:transport_srtp.obj
 0003:0001edc0       $SG23604                   00000001400c2dc0     pjmedia-x86_64-x64-vc14-debug-dynamic:transport_srtp.obj
 0003:0001ee00       $SG23606                   00000001400c2e00     pjmedia-x86_64-x64-vc14-debug-dynamic:transport_srtp.obj
 0003:0001ef10       $SG23607                   00000001400c2f10     pjmedia-x86_64-x64-vc14-debug-dynamic:transport_srtp.obj
 0003:0001ef40       $SG23608                   00000001400c2f40     pjmedia-x86_64-x64-vc14-debug-dynamic:transport_srtp.obj
 0003:0001f050       $SG23609                   00000001400c3050     pjmedia-x86_64-x64-vc14-debug-dynamic:transport_srtp.obj
 0003:0001f090       $SG23616                   00000001400c3090     pjmedia-x86_64-x64-vc14-debug-dynamic:transport_srtp.obj
 0003:0001f9a0       $SG16196                   00000001400c39a0     pjmedia-x86_64-x64-vc14-debug-dynamic:echo_suppress.obj
 0003:0001fab0       $SG16197                   00000001400c3ab0     pjmedia-x86_64-x64-vc14-debug-dynamic:echo_suppress.obj
 0003:0001fb08       $SG16228                   00000001400c3b08     pjmedia-x86_64-x64-vc14-debug-dynamic:echo_suppress.obj
 0003:0001fb38       $SG16229                   00000001400c3b38     pjmedia-x86_64-x64-vc14-debug-dynamic:echo_suppress.obj
 0003:0001fb48       $SG16390                   00000001400c3b48     pjmedia-x86_64-x64-vc14-debug-dynamic:echo_suppress.obj
 0003:0001fb50       $SG16319                   00000001400c3b50     pjmedia-x86_64-x64-vc14-debug-dynamic:echo_suppress.obj
 0003:0001fc60       $SG16320                   00000001400c3c60     pjmedia-x86_64-x64-vc14-debug-dynamic:echo_suppress.obj
 0003:0001fc90       $SG16325                   00000001400c3c90     pjmedia-x86_64-x64-vc14-debug-dynamic:echo_suppress.obj
 0003:0001fcf0       $SG16326                   00000001400c3cf0     pjmedia-x86_64-x64-vc14-debug-dynamic:echo_suppress.obj
 0003:0001fd00       $SG16329                   00000001400c3d00     pjmedia-x86_64-x64-vc14-debug-dynamic:echo_suppress.obj
 0003:0001fd60       $SG16330                   00000001400c3d60     pjmedia-x86_64-x64-vc14-debug-dynamic:echo_suppress.obj
 0003:0001fd70       $SG16389                   00000001400c3d70     pjmedia-x86_64-x64-vc14-debug-dynamic:echo_suppress.obj
 0003:0001fe80       $SG16409                   00000001400c3e80     pjmedia-x86_64-x64-vc14-debug-dynamic:echo_suppress.obj
 0003:0001fea8       $SG16410                   00000001400c3ea8     pjmedia-x86_64-x64-vc14-debug-dynamic:echo_suppress.obj
 0003:0001feb8       $SG16422                   00000001400c3eb8     pjmedia-x86_64-x64-vc14-debug-dynamic:echo_suppress.obj
 0003:0001fec8       $SG16423                   00000001400c3ec8     pjmedia-x86_64-x64-vc14-debug-dynamic:echo_suppress.obj
 0003:0001fed4       $SG16424                   00000001400c3ed4     pjmedia-x86_64-x64-vc14-debug-dynamic:echo_suppress.obj
 0003:0001fee0       $SG16425                   00000001400c3ee0     pjmedia-x86_64-x64-vc14-debug-dynamic:echo_suppress.obj
 0003:00020070       $SG15611                   00000001400c4070     pjmedia-x86_64-x64-vc14-debug-dynamic:echo_speex.obj
 0003:00020178       $SG15612                   00000001400c4178     pjmedia-x86_64-x64-vc14-debug-dynamic:echo_speex.obj
 0003:000201a0       $SG15637                   00000001400c41a0     pjmedia-x86_64-x64-vc14-debug-dynamic:echo_speex.obj
 0003:000202a8       $SG15638                   00000001400c42a8     pjmedia-x86_64-x64-vc14-debug-dynamic:echo_speex.obj
 0003:000202d0       $SG15687                   00000001400c42d0     pjmedia-x86_64-x64-vc14-debug-dynamic:echo_speex.obj
 0003:000203e0       $SG15688                   00000001400c43e0     pjmedia-x86_64-x64-vc14-debug-dynamic:echo_speex.obj
 0003:00020470       $SG15708                   00000001400c4470     pjmedia-x86_64-x64-vc14-debug-dynamic:echo_speex.obj
 0003:00020578       $SG15709                   00000001400c4578     pjmedia-x86_64-x64-vc14-debug-dynamic:echo_speex.obj
 0003:000205a0       $SG15744                   00000001400c45a0     pjmedia-x86_64-x64-vc14-debug-dynamic:echo_speex.obj
 0003:000206a8       $SG15745                   00000001400c46a8     pjmedia-x86_64-x64-vc14-debug-dynamic:echo_speex.obj
 0003:00020810       $SG15170                   00000001400c4810     pjmedia-x86_64-x64-vc14-debug-dynamic:silencedet.obj
 0003:00020914       $SG15303                   00000001400c4914     pjmedia-x86_64-x64-vc14-debug-dynamic:silencedet.obj
 0003:00020918       $SG15171                   00000001400c4918     pjmedia-x86_64-x64-vc14-debug-dynamic:silencedet.obj
 0003:00020934       $SG15172                   00000001400c4934     pjmedia-x86_64-x64-vc14-debug-dynamic:silencedet.obj
 0003:00020940       $SG15185                   00000001400c4940     pjmedia-x86_64-x64-vc14-debug-dynamic:silencedet.obj
 0003:00020a44       $SG15317                   00000001400c4a44     pjmedia-x86_64-x64-vc14-debug-dynamic:silencedet.obj
 0003:00020a48       $SG15186                   00000001400c4a48     pjmedia-x86_64-x64-vc14-debug-dynamic:silencedet.obj
 0003:00020a60       $SG15198                   00000001400c4a60     pjmedia-x86_64-x64-vc14-debug-dynamic:silencedet.obj
 0003:00020b64       $SG15199                   00000001400c4b64     pjmedia-x86_64-x64-vc14-debug-dynamic:silencedet.obj
 0003:00020b70       $SG15212                   00000001400c4b70     pjmedia-x86_64-x64-vc14-debug-dynamic:silencedet.obj
 0003:00020c74       $SG15213                   00000001400c4c74     pjmedia-x86_64-x64-vc14-debug-dynamic:silencedet.obj
 0003:00020c80       $SG15230                   00000001400c4c80     pjmedia-x86_64-x64-vc14-debug-dynamic:silencedet.obj
 0003:00020d84       $SG15231                   00000001400c4d84     pjmedia-x86_64-x64-vc14-debug-dynamic:silencedet.obj
 0003:00020d90       $SG15244                   00000001400c4d90     pjmedia-x86_64-x64-vc14-debug-dynamic:silencedet.obj
 0003:00020e94       $SG15245                   00000001400c4e94     pjmedia-x86_64-x64-vc14-debug-dynamic:silencedet.obj
 0003:00020ea0       $SG15294                   00000001400c4ea0     pjmedia-x86_64-x64-vc14-debug-dynamic:silencedet.obj
 0003:00020ed0       $SG15295                   00000001400c4ed0     pjmedia-x86_64-x64-vc14-debug-dynamic:silencedet.obj
 0003:00020ee0       $SG15298                   00000001400c4ee0     pjmedia-x86_64-x64-vc14-debug-dynamic:silencedet.obj
 0003:00020f10       $SG15299                   00000001400c4f10     pjmedia-x86_64-x64-vc14-debug-dynamic:silencedet.obj
 0003:00020f20       $SG15302                   00000001400c4f20     pjmedia-x86_64-x64-vc14-debug-dynamic:silencedet.obj
 0003:00021028       $SG15307                   00000001400c5028     pjmedia-x86_64-x64-vc14-debug-dynamic:silencedet.obj
 0003:00021050       $SG15308                   00000001400c5050     pjmedia-x86_64-x64-vc14-debug-dynamic:silencedet.obj
 0003:00021060       $SG15313                   00000001400c5060     pjmedia-x86_64-x64-vc14-debug-dynamic:silencedet.obj
 0003:00021090       $SG15314                   00000001400c5090     pjmedia-x86_64-x64-vc14-debug-dynamic:silencedet.obj
 0003:000210a0       $SG15316                   00000001400c50a0     pjmedia-x86_64-x64-vc14-debug-dynamic:silencedet.obj
 0003:00021398       $SG13903                   00000001400c5398     pjlib-util-x86_64-x64-vc14-debug-dynamic:getopt.obj
 0003:000213a0       $SG15294                   00000001400c53a0     pjlib-util-x86_64-x64-vc14-debug-dynamic:scanner.obj
 0003:000214b0       $SG15295                   00000001400c54b0     pjlib-util-x86_64-x64-vc14-debug-dynamic:scanner.obj
 0003:000214d0       $SG15363                   00000001400c54d0     pjlib-util-x86_64-x64-vc14-debug-dynamic:scanner.obj
 0003:00021560       $SG15369                   00000001400c5560     pjlib-util-x86_64-x64-vc14-debug-dynamic:scanner.obj
 0003:000215f0       $SG15454                   00000001400c55f0     pjlib-util-x86_64-x64-vc14-debug-dynamic:scanner.obj
 0003:00021700       $SG15455                   00000001400c5700     pjlib-util-x86_64-x64-vc14-debug-dynamic:scanner.obj
 0003:00021730       $SG15479                   00000001400c5730     pjlib-util-x86_64-x64-vc14-debug-dynamic:scanner.obj
 0003:00021840       $SG15480                   00000001400c5840     pjlib-util-x86_64-x64-vc14-debug-dynamic:scanner.obj
 0003:00021870       $SG15481                   00000001400c5870     pjlib-util-x86_64-x64-vc14-debug-dynamic:scanner.obj
 0003:00021980       $SG15482                   00000001400c5980     pjlib-util-x86_64-x64-vc14-debug-dynamic:scanner.obj
 0003:000219c0       $SG15532                   00000001400c59c0     pjlib-util-x86_64-x64-vc14-debug-dynamic:scanner.obj
 0003:00021ad0       $SG15533                   00000001400c5ad0     pjlib-util-x86_64-x64-vc14-debug-dynamic:scanner.obj
 0003:00021c60       $SG8053                    00000001400c5c60     pjlib-util-x86_64-x64-vc14-debug-dynamic:base64.obj
 0003:00021d68       $SG8054                    00000001400c5d68     pjlib-util-x86_64-x64-vc14-debug-dynamic:base64.obj
 0003:00021da0       $SG8056                    00000001400c5da0     pjlib-util-x86_64-x64-vc14-debug-dynamic:base64.obj
 0003:00021eb0       $SG8057                    00000001400c5eb0     pjlib-util-x86_64-x64-vc14-debug-dynamic:base64.obj
 0003:00021f00       $SG8106                    00000001400c5f00     pjlib-util-x86_64-x64-vc14-debug-dynamic:base64.obj
 0003:00022008       $SG8107                    00000001400c6008     pjlib-util-x86_64-x64-vc14-debug-dynamic:base64.obj
 0003:00022040       $SG8109                    00000001400c6040     pjlib-util-x86_64-x64-vc14-debug-dynamic:base64.obj
 0003:00022148       $SG8110                    00000001400c6148     pjlib-util-x86_64-x64-vc14-debug-dynamic:base64.obj
 0003:00022180       $SG8115                    00000001400c6180     pjlib-util-x86_64-x64-vc14-debug-dynamic:base64.obj
 0003:00022288       $SG8116                    00000001400c6288     pjlib-util-x86_64-x64-vc14-debug-dynamic:base64.obj
 0003:000223f0       thread_tls_id              00000001400c63f0     pjlib-x86_64-x64-vc14-debug-dynamic:os_core_win32.obj
 0003:000223f4       $SG59757                   00000001400c63f4     pjlib-x86_64-x64-vc14-debug-dynamic:os_core_win32.obj
 0003:00022400       $SG59758                   00000001400c6400     pjlib-x86_64-x64-vc14-debug-dynamic:os_core_win32.obj
 0003:00022410       $SG59762                   00000001400c6410     pjlib-x86_64-x64-vc14-debug-dynamic:os_core_win32.obj
 0003:0002250c       $SG59960                   00000001400c650c     pjlib-x86_64-x64-vc14-debug-dynamic:os_core_win32.obj
 0003:00022510       $SG59763                   00000001400c6510     pjlib-x86_64-x64-vc14-debug-dynamic:os_core_win32.obj
 0003:00022534       $SG59976                   00000001400c6534     pjlib-x86_64-x64-vc14-debug-dynamic:os_core_win32.obj
 0003:00022538       $SG59765                   00000001400c6538     pjlib-x86_64-x64-vc14-debug-dynamic:os_core_win32.obj
 0003:00022558       $SG59766                   00000001400c6558     pjlib-x86_64-x64-vc14-debug-dynamic:os_core_win32.obj
 0003:00022568       $SG59788                   00000001400c6568     pjlib-x86_64-x64-vc14-debug-dynamic:os_core_win32.obj
 0003:00022590       $SG59784                   00000001400c6590     pjlib-x86_64-x64-vc14-debug-dynamic:os_core_win32.obj
 0003:0002268c       $SG60007                   00000001400c668c     pjlib-x86_64-x64-vc14-debug-dynamic:os_core_win32.obj
 0003:00022690       $SG59785                   00000001400c6690     pjlib-x86_64-x64-vc14-debug-dynamic:os_core_win32.obj
 0003:000226b0       $SG59793                   00000001400c66b0     pjlib-x86_64-x64-vc14-debug-dynamic:os_core_win32.obj
 0003:00022730       $SG59815                   00000001400c6730     pjlib-x86_64-x64-vc14-debug-dynamic:os_core_win32.obj
 0003:0002282c       $SG60027                   00000001400c682c     pjlib-x86_64-x64-vc14-debug-dynamic:os_core_win32.obj
 0003:00022830       $SG59816                   00000001400c6830     pjlib-x86_64-x64-vc14-debug-dynamic:os_core_win32.obj
 0003:00022840       $SG59819                   00000001400c6840     pjlib-x86_64-x64-vc14-debug-dynamic:os_core_win32.obj
 0003:00022940       $SG59820                   00000001400c6940     pjlib-x86_64-x64-vc14-debug-dynamic:os_core_win32.obj
 0003:00022970       $SG59840                   00000001400c6970     pjlib-x86_64-x64-vc14-debug-dynamic:os_core_win32.obj
 0003:00022a70       $SG59841                   00000001400c6a70     pjlib-x86_64-x64-vc14-debug-dynamic:os_core_win32.obj
 0003:00022a80       $SG59863                   00000001400c6a80     pjlib-x86_64-x64-vc14-debug-dynamic:os_core_win32.obj
 0003:00022aa0       $SG59864                   00000001400c6aa0     pjlib-x86_64-x64-vc14-debug-dynamic:os_core_win32.obj
 0003:00022ba0       $SG59865                   00000001400c6ba0     pjlib-x86_64-x64-vc14-debug-dynamic:os_core_win32.obj
 0003:00022be8       $SG59869                   00000001400c6be8     pjlib-x86_64-x64-vc14-debug-dynamic:os_core_win32.obj
 0003:00022bf0       $SG59876                   00000001400c6bf0     pjlib-x86_64-x64-vc14-debug-dynamic:os_core_win32.obj
 0003:00022bf8       $SG59897                   00000001400c6bf8     pjlib-x86_64-x64-vc14-debug-dynamic:os_core_win32.obj
 0003:00022c20       $SG59898                   00000001400c6c20     pjlib-x86_64-x64-vc14-debug-dynamic:os_core_win32.obj
 0003:00022d20       $SG59899                   00000001400c6d20     pjlib-x86_64-x64-vc14-debug-dynamic:os_core_win32.obj
 0003:00022d70       $SG59903                   00000001400c6d70     pjlib-x86_64-x64-vc14-debug-dynamic:os_core_win32.obj
 0003:00022d98       $SG59938                   00000001400c6d98     pjlib-x86_64-x64-vc14-debug-dynamic:os_core_win32.obj
 0003:00022dd0       $SG59934                   00000001400c6dd0     pjlib-x86_64-x64-vc14-debug-dynamic:os_core_win32.obj
 0003:00022e50       $SG59937                   00000001400c6e50     pjlib-x86_64-x64-vc14-debug-dynamic:os_core_win32.obj
 0003:00022f4c       $SG59942                   00000001400c6f4c     pjlib-x86_64-x64-vc14-debug-dynamic:os_core_win32.obj
 0003:00022f58       $SG60049                   00000001400c6f58     pjlib-x86_64-x64-vc14-debug-dynamic:os_core_win32.obj
 0003:00022f68       $SG60050                   00000001400c6f68     pjlib-x86_64-x64-vc14-debug-dynamic:os_core_win32.obj
 0003:00022f80       $SG59957                   00000001400c6f80     pjlib-x86_64-x64-vc14-debug-dynamic:os_core_win32.obj
 0003:00023000       $SG59959                   00000001400c7000     pjlib-x86_64-x64-vc14-debug-dynamic:os_core_win32.obj
 0003:00023100       $SG59973                   00000001400c7100     pjlib-x86_64-x64-vc14-debug-dynamic:os_core_win32.obj
 0003:00023180       $SG59975                   00000001400c7180     pjlib-x86_64-x64-vc14-debug-dynamic:os_core_win32.obj
 0003:00023280       $SG59986                   00000001400c7280     pjlib-x86_64-x64-vc14-debug-dynamic:os_core_win32.obj
 0003:00023310       $SG59987                   00000001400c7310     pjlib-x86_64-x64-vc14-debug-dynamic:os_core_win32.obj
 0003:00023410       $SG59988                   00000001400c7410     pjlib-x86_64-x64-vc14-debug-dynamic:os_core_win32.obj
 0003:00023540       $SG60004                   00000001400c7540     pjlib-x86_64-x64-vc14-debug-dynamic:os_core_win32.obj
 0003:000235c0       $SG60006                   00000001400c75c0     pjlib-x86_64-x64-vc14-debug-dynamic:os_core_win32.obj
 0003:000236c0       $SG60024                   00000001400c76c0     pjlib-x86_64-x64-vc14-debug-dynamic:os_core_win32.obj
 0003:00023740       $SG60026                   00000001400c7740     pjlib-x86_64-x64-vc14-debug-dynamic:os_core_win32.obj
 0003:00023840       $SG60033                   00000001400c7840     pjlib-x86_64-x64-vc14-debug-dynamic:os_core_win32.obj
 0003:000238c0       $SG60048                   00000001400c78c0     pjlib-x86_64-x64-vc14-debug-dynamic:os_core_win32.obj
 0003:000239c0       $SG60051                   00000001400c79c0     pjlib-x86_64-x64-vc14-debug-dynamic:os_core_win32.obj
 0003:00023ac0       $SG60052                   00000001400c7ac0     pjlib-x86_64-x64-vc14-debug-dynamic:os_core_win32.obj
 0003:00023b38       $SG60067                   00000001400c7b38     pjlib-x86_64-x64-vc14-debug-dynamic:os_core_win32.obj
 0003:00023b48       $SG60089                   00000001400c7b48     pjlib-x86_64-x64-vc14-debug-dynamic:os_core_win32.obj
 0003:00023b50       $SG60066                   00000001400c7b50     pjlib-x86_64-x64-vc14-debug-dynamic:os_core_win32.obj
 0003:00023c50       $SG60088                   00000001400c7c50     pjlib-x86_64-x64-vc14-debug-dynamic:os_core_win32.obj
 0003:00023d50       $SG60100                   00000001400c7d50     pjlib-x86_64-x64-vc14-debug-dynamic:os_core_win32.obj
 0003:00023dd0       $SG60101                   00000001400c7dd0     pjlib-x86_64-x64-vc14-debug-dynamic:os_core_win32.obj
 0003:00023ed0       $SG60102                   00000001400c7ed0     pjlib-x86_64-x64-vc14-debug-dynamic:os_core_win32.obj
 0003:00023ee8       $SG60115                   00000001400c7ee8     pjlib-x86_64-x64-vc14-debug-dynamic:os_core_win32.obj
 0003:00023f00       $SG60112                   00000001400c7f00     pjlib-x86_64-x64-vc14-debug-dynamic:os_core_win32.obj
 0003:00023f80       $SG60114                   00000001400c7f80     pjlib-x86_64-x64-vc14-debug-dynamic:os_core_win32.obj
 0003:00024080       $SG60119                   00000001400c8080     pjlib-x86_64-x64-vc14-debug-dynamic:os_core_win32.obj
 0003:00024100       $SG60128                   00000001400c8100     pjlib-x86_64-x64-vc14-debug-dynamic:os_core_win32.obj
 0003:00024200       $SG60129                   00000001400c8200     pjlib-x86_64-x64-vc14-debug-dynamic:os_core_win32.obj
 0003:00024218       $SG60144                   00000001400c8218     pjlib-x86_64-x64-vc14-debug-dynamic:os_core_win32.obj
 0003:00024230       $SG60134                   00000001400c8230     pjlib-x86_64-x64-vc14-debug-dynamic:os_core_win32.obj
 0003:000242b0       $SG60143                   00000001400c82b0     pjlib-x86_64-x64-vc14-debug-dynamic:os_core_win32.obj
 0003:000243b0       $SG60156                   00000001400c83b0     pjlib-x86_64-x64-vc14-debug-dynamic:os_core_win32.obj
 0003:000244b0       $SG60157                   00000001400c84b0     pjlib-x86_64-x64-vc14-debug-dynamic:os_core_win32.obj
 0003:000244c8       $SG60205                   00000001400c84c8     pjlib-x86_64-x64-vc14-debug-dynamic:os_core_win32.obj
 0003:000244d0       $SG60177                   00000001400c84d0     pjlib-x86_64-x64-vc14-debug-dynamic:os_core_win32.obj
 0003:000245d0       $SG60178                   00000001400c85d0     pjlib-x86_64-x64-vc14-debug-dynamic:os_core_win32.obj
 0003:00024600       $SG60184                   00000001400c8600     pjlib-x86_64-x64-vc14-debug-dynamic:os_core_win32.obj
 0003:00024680       $SG60203                   00000001400c8680     pjlib-x86_64-x64-vc14-debug-dynamic:os_core_win32.obj
 0003:00024700       $SG60228                   00000001400c8700     pjlib-x86_64-x64-vc14-debug-dynamic:os_core_win32.obj
 0003:00024800       $SG60229                   00000001400c8800     pjlib-x86_64-x64-vc14-debug-dynamic:os_core_win32.obj
 0003:00024824       $SG60480                   00000001400c8824     pjlib-x86_64-x64-vc14-debug-dynamic:os_core_win32.obj
 0003:00024830       $SG60261                   00000001400c8830     pjlib-x86_64-x64-vc14-debug-dynamic:os_core_win32.obj
 0003:000248b0       $SG60263                   00000001400c88b0     pjlib-x86_64-x64-vc14-debug-dynamic:os_core_win32.obj
 0003:000249b0       $SG60264                   00000001400c89b0     pjlib-x86_64-x64-vc14-debug-dynamic:os_core_win32.obj
 0003:000249c0       $SG60283                   00000001400c89c0     pjlib-x86_64-x64-vc14-debug-dynamic:os_core_win32.obj
 0003:00024a40       $SG60285                   00000001400c8a40     pjlib-x86_64-x64-vc14-debug-dynamic:os_core_win32.obj
 0003:00024b40       $SG60286                   00000001400c8b40     pjlib-x86_64-x64-vc14-debug-dynamic:os_core_win32.obj
 0003:00024b50       $SG60287                   00000001400c8b50     pjlib-x86_64-x64-vc14-debug-dynamic:os_core_win32.obj
 0003:00024c50       $SG60288                   00000001400c8c50     pjlib-x86_64-x64-vc14-debug-dynamic:os_core_win32.obj
 0003:00024c98       $SG60312                   00000001400c8c98     pjlib-x86_64-x64-vc14-debug-dynamic:os_core_win32.obj
 0003:00024ca4       $SG60611                   00000001400c8ca4     pjlib-x86_64-x64-vc14-debug-dynamic:os_core_win32.obj
 0003:00024cb0       $SG60309                   00000001400c8cb0     pjlib-x86_64-x64-vc14-debug-dynamic:os_core_win32.obj
 0003:00024d30       $SG60311                   00000001400c8d30     pjlib-x86_64-x64-vc14-debug-dynamic:os_core_win32.obj
 0003:00024e30       $SG60329                   00000001400c8e30     pjlib-x86_64-x64-vc14-debug-dynamic:os_core_win32.obj
 0003:00024eb0       $SG60331                   00000001400c8eb0     pjlib-x86_64-x64-vc14-debug-dynamic:os_core_win32.obj
 0003:00024fb0       $SG60332                   00000001400c8fb0     pjlib-x86_64-x64-vc14-debug-dynamic:os_core_win32.obj
 0003:00024fc0       $SG60360                   00000001400c8fc0     pjlib-x86_64-x64-vc14-debug-dynamic:os_core_win32.obj
 0003:000250b8       $SG60361                   00000001400c90b8     pjlib-x86_64-x64-vc14-debug-dynamic:os_core_win32.obj
 0003:000250d8       $SG60419                   00000001400c90d8     pjlib-x86_64-x64-vc14-debug-dynamic:os_core_win32.obj
 0003:00025110       $SG60378                   00000001400c9110     pjlib-x86_64-x64-vc14-debug-dynamic:os_core_win32.obj
 0003:00025208       $SG60379                   00000001400c9208     pjlib-x86_64-x64-vc14-debug-dynamic:os_core_win32.obj
 0003:00025218       $SG60381                   00000001400c9218     pjlib-x86_64-x64-vc14-debug-dynamic:os_core_win32.obj
 0003:00025238       $SG60435                   00000001400c9238     pjlib-x86_64-x64-vc14-debug-dynamic:os_core_win32.obj
 0003:00025270       $SG60382                   00000001400c9270     pjlib-x86_64-x64-vc14-debug-dynamic:os_core_win32.obj
 0003:00025368       $SG60415                   00000001400c9368     pjlib-x86_64-x64-vc14-debug-dynamic:os_core_win32.obj
 0003:00025388       $SG60477                   00000001400c9388     pjlib-x86_64-x64-vc14-debug-dynamic:os_core_win32.obj
 0003:000253a8       $SG60510                   00000001400c93a8     pjlib-x86_64-x64-vc14-debug-dynamic:os_core_win32.obj
 0003:000253b0       $SG60383                   00000001400c93b0     pjlib-x86_64-x64-vc14-debug-dynamic:os_core_win32.obj
 0003:00025400       $SG60384                   00000001400c9400     pjlib-x86_64-x64-vc14-debug-dynamic:os_core_win32.obj
 0003:000254f8       $SG60531                   00000001400c94f8     pjlib-x86_64-x64-vc14-debug-dynamic:os_core_win32.obj
 0003:00025500       $SG60385                   00000001400c9500     pjlib-x86_64-x64-vc14-debug-dynamic:os_core_win32.obj
 0003:00025548       $SG60543                   00000001400c9548     pjlib-x86_64-x64-vc14-debug-dynamic:os_core_win32.obj
 0003:00025550       $SG60396                   00000001400c9550     pjlib-x86_64-x64-vc14-debug-dynamic:os_core_win32.obj
 0003:00025648       $SG60397                   00000001400c9648     pjlib-x86_64-x64-vc14-debug-dynamic:os_core_win32.obj
 0003:00025658       $SG60559                   00000001400c9658     pjlib-x86_64-x64-vc14-debug-dynamic:os_core_win32.obj
 0003:00025660       $SG60412                   00000001400c9660     pjlib-x86_64-x64-vc14-debug-dynamic:os_core_win32.obj
 0003:00025758       $SG60413                   00000001400c9758     pjlib-x86_64-x64-vc14-debug-dynamic:os_core_win32.obj
 0003:00025768       $SG60577                   00000001400c9768     pjlib-x86_64-x64-vc14-debug-dynamic:os_core_win32.obj
 0003:00025770       $SG60416                   00000001400c9770     pjlib-x86_64-x64-vc14-debug-dynamic:os_core_win32.obj
 0003:00025868       $SG60607                   00000001400c9868     pjlib-x86_64-x64-vc14-debug-dynamic:os_core_win32.obj
 0003:00025890       $SG60417                   00000001400c9890     pjlib-x86_64-x64-vc14-debug-dynamic:os_core_win32.obj
 0003:000258e0       $SG60418                   00000001400c98e0     pjlib-x86_64-x64-vc14-debug-dynamic:os_core_win32.obj
 0003:000259e0       $SG60432                   00000001400c99e0     pjlib-x86_64-x64-vc14-debug-dynamic:os_core_win32.obj
 0003:00025ad8       $SG60433                   00000001400c9ad8     pjlib-x86_64-x64-vc14-debug-dynamic:os_core_win32.obj
 0003:00025af0       $SG60434                   00000001400c9af0     pjlib-x86_64-x64-vc14-debug-dynamic:os_core_win32.obj
 0003:00025bf0       $SG60445                   00000001400c9bf0     pjlib-x86_64-x64-vc14-debug-dynamic:os_core_win32.obj
 0003:00025ce8       $SG60446                   00000001400c9ce8     pjlib-x86_64-x64-vc14-debug-dynamic:os_core_win32.obj
 0003:00025d00       $SG60473                   00000001400c9d00     pjlib-x86_64-x64-vc14-debug-dynamic:os_core_win32.obj
 0003:00025d80       $SG60476                   00000001400c9d80     pjlib-x86_64-x64-vc14-debug-dynamic:os_core_win32.obj
 0003:00025e80       $SG60507                   00000001400c9e80     pjlib-x86_64-x64-vc14-debug-dynamic:os_core_win32.obj
 0003:00025f00       $SG60509                   00000001400c9f00     pjlib-x86_64-x64-vc14-debug-dynamic:os_core_win32.obj
 0003:00026000       $SG60528                   00000001400ca000     pjlib-x86_64-x64-vc14-debug-dynamic:os_core_win32.obj
 0003:00026080       $SG60530                   00000001400ca080     pjlib-x86_64-x64-vc14-debug-dynamic:os_core_win32.obj
 0003:00026180       $SG60540                   00000001400ca180     pjlib-x86_64-x64-vc14-debug-dynamic:os_core_win32.obj
 0003:00026200       $SG60542                   00000001400ca200     pjlib-x86_64-x64-vc14-debug-dynamic:os_core_win32.obj
 0003:00026300       $SG60556                   00000001400ca300     pjlib-x86_64-x64-vc14-debug-dynamic:os_core_win32.obj
 0003:00026380       $SG60558                   00000001400ca380     pjlib-x86_64-x64-vc14-debug-dynamic:os_core_win32.obj
 0003:00026480       $SG60574                   00000001400ca480     pjlib-x86_64-x64-vc14-debug-dynamic:os_core_win32.obj
 0003:00026500       $SG60576                   00000001400ca500     pjlib-x86_64-x64-vc14-debug-dynamic:os_core_win32.obj
 0003:00026600       $SG60603                   00000001400ca600     pjlib-x86_64-x64-vc14-debug-dynamic:os_core_win32.obj
 0003:00026680       $SG60606                   00000001400ca680     pjlib-x86_64-x64-vc14-debug-dynamic:os_core_win32.obj
 0003:00026780       $SG60638                   00000001400ca780     pjlib-x86_64-x64-vc14-debug-dynamic:os_core_win32.obj
 0003:00026800       $SG60640                   00000001400ca800     pjlib-x86_64-x64-vc14-debug-dynamic:os_core_win32.obj
 0003:00026900       $SG60641                   00000001400ca900     pjlib-x86_64-x64-vc14-debug-dynamic:os_core_win32.obj
 0003:00026910       $SG60660                   00000001400ca910     pjlib-x86_64-x64-vc14-debug-dynamic:os_core_win32.obj
 0003:00026a10       $SG60661                   00000001400caa10     pjlib-x86_64-x64-vc14-debug-dynamic:os_core_win32.obj
 0003:00026a20       $SG60671                   00000001400caa20     pjlib-x86_64-x64-vc14-debug-dynamic:os_core_win32.obj
 0003:00026b20       $SG60672                   00000001400cab20     pjlib-x86_64-x64-vc14-debug-dynamic:os_core_win32.obj
 0003:00026b30       $SG60684                   00000001400cab30     pjlib-x86_64-x64-vc14-debug-dynamic:os_core_win32.obj
 0003:00026bb0       $SG60686                   00000001400cabb0     pjlib-x86_64-x64-vc14-debug-dynamic:os_core_win32.obj
 0003:00026cb0       $SG60687                   00000001400cacb0     pjlib-x86_64-x64-vc14-debug-dynamic:os_core_win32.obj
 0003:00026cc0       $SG60702                   00000001400cacc0     pjlib-x86_64-x64-vc14-debug-dynamic:os_core_win32.obj
 0003:00026d40       $SG60704                   00000001400cad40     pjlib-x86_64-x64-vc14-debug-dynamic:os_core_win32.obj
 0003:00026e40       $SG60705                   00000001400cae40     pjlib-x86_64-x64-vc14-debug-dynamic:os_core_win32.obj
 0003:00026e50       $SG60720                   00000001400cae50     pjlib-x86_64-x64-vc14-debug-dynamic:os_core_win32.obj
 0003:00026ed0       $SG60722                   00000001400caed0     pjlib-x86_64-x64-vc14-debug-dynamic:os_core_win32.obj
 0003:00026fd0       $SG60723                   00000001400cafd0     pjlib-x86_64-x64-vc14-debug-dynamic:os_core_win32.obj
 0003:00026fe0       $SG60738                   00000001400cafe0     pjlib-x86_64-x64-vc14-debug-dynamic:os_core_win32.obj
 0003:00027060       $SG60740                   00000001400cb060     pjlib-x86_64-x64-vc14-debug-dynamic:os_core_win32.obj
 0003:00027160       $SG60741                   00000001400cb160     pjlib-x86_64-x64-vc14-debug-dynamic:os_core_win32.obj
 0003:00027170       $SG60769                   00000001400cb170     pjlib-x86_64-x64-vc14-debug-dynamic:os_core_win32.obj
 0003:000271f0       $SG60774                   00000001400cb1f0     pjlib-x86_64-x64-vc14-debug-dynamic:os_core_win32.obj
 0003:00028220       $SG14684                   00000001400cc220     pjlib-x86_64-x64-vc14-debug-dynamic:pool.obj
 0003:000282a0       $SG14685                   00000001400cc2a0     pjlib-x86_64-x64-vc14-debug-dynamic:pool.obj
 0003:00028390       $SG14686                   00000001400cc390     pjlib-x86_64-x64-vc14-debug-dynamic:pool.obj
 0003:000283d0       $SG14717                   00000001400cc3d0     pjlib-x86_64-x64-vc14-debug-dynamic:pool.obj
 0003:00028450       $SG14725                   00000001400cc450     pjlib-x86_64-x64-vc14-debug-dynamic:pool.obj
 0003:00028540       $SG14726                   00000001400cc540     pjlib-x86_64-x64-vc14-debug-dynamic:pool.obj
 0003:00028570       $SG14738                   00000001400cc570     pjlib-x86_64-x64-vc14-debug-dynamic:pool.obj
 0003:000285f0       $SG14778                   00000001400cc5f0     pjlib-x86_64-x64-vc14-debug-dynamic:pool.obj
 0003:00028670       $SG14780                   00000001400cc670     pjlib-x86_64-x64-vc14-debug-dynamic:pool.obj
 0003:00028760       $SG14781                   00000001400cc760     pjlib-x86_64-x64-vc14-debug-dynamic:pool.obj
 0003:000287d0       $SG14796                   00000001400cc7d0     pjlib-x86_64-x64-vc14-debug-dynamic:pool.obj
 0003:00028980       pool_sizes                 00000001400cc980     pjlib-x86_64-x64-vc14-debug-dynamic:pool_caching.obj
 0003:00028a00       $SG14694                   00000001400cca00     pjlib-x86_64-x64-vc14-debug-dynamic:pool_caching.obj
 0003:00028a80       $SG14696                   00000001400cca80     pjlib-x86_64-x64-vc14-debug-dynamic:pool_caching.obj
 0003:00028a90       $SG14697                   00000001400cca90     pjlib-x86_64-x64-vc14-debug-dynamic:pool_caching.obj
 0003:00028aa0       $SG14721                   00000001400ccaa0     pjlib-x86_64-x64-vc14-debug-dynamic:pool_caching.obj
 0003:00028b20       $SG14723                   00000001400ccb20     pjlib-x86_64-x64-vc14-debug-dynamic:pool_caching.obj
 0003:00028b58       $SG14725                   00000001400ccb58     pjlib-x86_64-x64-vc14-debug-dynamic:pool_caching.obj
 0003:00028b70       $SG14755                   00000001400ccb70     pjlib-x86_64-x64-vc14-debug-dynamic:pool_caching.obj
 0003:00028bf0       $SG14789                   00000001400ccbf0     pjlib-x86_64-x64-vc14-debug-dynamic:pool_caching.obj
 0003:00028c70       $SG14790                   00000001400ccc70     pjlib-x86_64-x64-vc14-debug-dynamic:pool_caching.obj
 0003:00028d70       $SG14791                   00000001400ccd70     pjlib-x86_64-x64-vc14-debug-dynamic:pool_caching.obj
 0003:00028d90       $SG14797                   00000001400ccd90     pjlib-x86_64-x64-vc14-debug-dynamic:pool_caching.obj
 0003:00028e90       $SG14798                   00000001400cce90     pjlib-x86_64-x64-vc14-debug-dynamic:pool_caching.obj
 0003:00028ea0       $SG14831                   00000001400ccea0     pjlib-x86_64-x64-vc14-debug-dynamic:pool_caching.obj
 0003:00028eb8       $SG14832                   00000001400cceb8     pjlib-x86_64-x64-vc14-debug-dynamic:pool_caching.obj
 0003:00028ec8       $SG14834                   00000001400ccec8     pjlib-x86_64-x64-vc14-debug-dynamic:pool_caching.obj
 0003:00028ef8       $SG14835                   00000001400ccef8     pjlib-x86_64-x64-vc14-debug-dynamic:pool_caching.obj
 0003:00028f08       $SG14838                   00000001400ccf08     pjlib-x86_64-x64-vc14-debug-dynamic:pool_caching.obj
 0003:00028f28       $SG14839                   00000001400ccf28     pjlib-x86_64-x64-vc14-debug-dynamic:pool_caching.obj
 0003:00028f38       $SG14841                   00000001400ccf38     pjlib-x86_64-x64-vc14-debug-dynamic:pool_caching.obj
 0003:00028f58       $SG14842                   00000001400ccf58     pjlib-x86_64-x64-vc14-debug-dynamic:pool_caching.obj
 0003:00028f68       $SG14845                   00000001400ccf68     pjlib-x86_64-x64-vc14-debug-dynamic:pool_caching.obj
 0003:00028f90       $SG14846                   00000001400ccf90     pjlib-x86_64-x64-vc14-debug-dynamic:pool_caching.obj
 0003:000290e0       $SG13958                   00000001400cd0e0     pjlib-x86_64-x64-vc14-debug-dynamic:errno.obj
 0003:00029100       $SG13959                   00000001400cd100     pjlib-x86_64-x64-vc14-debug-dynamic:errno.obj
 0003:00029120       $SG13960                   00000001400cd120     pjlib-x86_64-x64-vc14-debug-dynamic:errno.obj
 0003:00029150       $SG13961                   00000001400cd150     pjlib-x86_64-x64-vc14-debug-dynamic:errno.obj
 0003:00029178       $SG13962                   00000001400cd178     pjlib-x86_64-x64-vc14-debug-dynamic:errno.obj
 0003:00029198       $SG13963                   00000001400cd198     pjlib-x86_64-x64-vc14-debug-dynamic:errno.obj
 0003:000291b8       $SG13964                   00000001400cd1b8     pjlib-x86_64-x64-vc14-debug-dynamic:errno.obj
 0003:000291d8       $SG13965                   00000001400cd1d8     pjlib-x86_64-x64-vc14-debug-dynamic:errno.obj
 0003:000291f0       $SG13966                   00000001400cd1f0     pjlib-x86_64-x64-vc14-debug-dynamic:errno.obj
 0003:00029218       $SG13967                   00000001400cd218     pjlib-x86_64-x64-vc14-debug-dynamic:errno.obj
 0003:00029250       $SG13968                   00000001400cd250     pjlib-x86_64-x64-vc14-debug-dynamic:errno.obj
 0003:00029270       $SG13969                   00000001400cd270     pjlib-x86_64-x64-vc14-debug-dynamic:errno.obj
 0003:000292a0       $SG13970                   00000001400cd2a0     pjlib-x86_64-x64-vc14-debug-dynamic:errno.obj
 0003:000292c8       $SG13971                   00000001400cd2c8     pjlib-x86_64-x64-vc14-debug-dynamic:errno.obj
 0003:000292f0       $SG13972                   00000001400cd2f0     pjlib-x86_64-x64-vc14-debug-dynamic:errno.obj
 0003:00029318       $SG13973                   00000001400cd318     pjlib-x86_64-x64-vc14-debug-dynamic:errno.obj
 0003:00029330       $SG13974                   00000001400cd330     pjlib-x86_64-x64-vc14-debug-dynamic:errno.obj
 0003:00029350       $SG13975                   00000001400cd350     pjlib-x86_64-x64-vc14-debug-dynamic:errno.obj
 0003:00029388       $SG13976                   00000001400cd388     pjlib-x86_64-x64-vc14-debug-dynamic:errno.obj
 0003:000293b0       $SG13977                   00000001400cd3b0     pjlib-x86_64-x64-vc14-debug-dynamic:errno.obj
 0003:000293c8       $SG13978                   00000001400cd3c8     pjlib-x86_64-x64-vc14-debug-dynamic:errno.obj
 0003:000293f0       $SG13979                   00000001400cd3f0     pjlib-x86_64-x64-vc14-debug-dynamic:errno.obj
 0003:00029420       $SG13980                   00000001400cd420     pjlib-x86_64-x64-vc14-debug-dynamic:errno.obj
 0003:00029448       $SG13981                   00000001400cd448     pjlib-x86_64-x64-vc14-debug-dynamic:errno.obj
 0003:00029470       $SG14001                   00000001400cd470     pjlib-x86_64-x64-vc14-debug-dynamic:errno.obj
 0003:00029490       $SG14033                   00000001400cd490     pjlib-x86_64-x64-vc14-debug-dynamic:errno.obj
 0003:00029580       $SG14034                   00000001400cd580     pjlib-x86_64-x64-vc14-debug-dynamic:errno.obj
 0003:000295a8       $SG14068                   00000001400cd5a8     pjlib-x86_64-x64-vc14-debug-dynamic:errno.obj
 0003:000295b0       $SG14036                   00000001400cd5b0     pjlib-x86_64-x64-vc14-debug-dynamic:errno.obj
 0003:000296a0       $SG14037                   00000001400cd6a0     pjlib-x86_64-x64-vc14-debug-dynamic:errno.obj
 0003:00029720       $SG14039                   00000001400cd720     pjlib-x86_64-x64-vc14-debug-dynamic:errno.obj
 0003:00029810       $SG14040                   00000001400cd810     pjlib-x86_64-x64-vc14-debug-dynamic:errno.obj
 0003:00029870       $SG14064                   00000001400cd870     pjlib-x86_64-x64-vc14-debug-dynamic:errno.obj
 0003:00029960       $SG14065                   00000001400cd960     pjlib-x86_64-x64-vc14-debug-dynamic:errno.obj
 0003:00029980       $SG14071                   00000001400cd980     pjlib-x86_64-x64-vc14-debug-dynamic:errno.obj
 0003:00029994       $SG14111                   00000001400cd994     pjlib-x86_64-x64-vc14-debug-dynamic:errno.obj
 0003:000299a0       $SG14077                   00000001400cd9a0     pjlib-x86_64-x64-vc14-debug-dynamic:errno.obj
 0003:000299b4       $SG14112                   00000001400cd9b4     pjlib-x86_64-x64-vc14-debug-dynamic:errno.obj
 0003:00029b80       $SG14389                   00000001400cdb80     pjlib-x86_64-x64-vc14-debug-dynamic:log.obj
 0003:00029b88       $SG14390                   00000001400cdb88     pjlib-x86_64-x64-vc14-debug-dynamic:log.obj
 0003:00029b90       $SG14391                   00000001400cdb90     pjlib-x86_64-x64-vc14-debug-dynamic:log.obj
 0003:00029b98       $SG14392                   00000001400cdb98     pjlib-x86_64-x64-vc14-debug-dynamic:log.obj
 0003:00029ba0       $SG14393                   00000001400cdba0     pjlib-x86_64-x64-vc14-debug-dynamic:log.obj
 0003:00029ba8       $SG14394                   00000001400cdba8     pjlib-x86_64-x64-vc14-debug-dynamic:log.obj
 0003:00029bb0       $SG14395                   00000001400cdbb0     pjlib-x86_64-x64-vc14-debug-dynamic:log.obj
 0003:00029bb8       $SG14397                   00000001400cdbb8     pjlib-x86_64-x64-vc14-debug-dynamic:log.obj
 0003:00029bbc       $SG14398                   00000001400cdbbc     pjlib-x86_64-x64-vc14-debug-dynamic:log.obj
 0003:00029bc0       $SG14399                   00000001400cdbc0     pjlib-x86_64-x64-vc14-debug-dynamic:log.obj
 0003:00029bc4       $SG14400                   00000001400cdbc4     pjlib-x86_64-x64-vc14-debug-dynamic:log.obj
 0003:00029bc8       $SG14401                   00000001400cdbc8     pjlib-x86_64-x64-vc14-debug-dynamic:log.obj
 0003:00029bcc       $SG14402                   00000001400cdbcc     pjlib-x86_64-x64-vc14-debug-dynamic:log.obj
 0003:00029bd0       $SG14403                   00000001400cdbd0     pjlib-x86_64-x64-vc14-debug-dynamic:log.obj
 0003:00029bd4       pj_log_max_level           00000001400cdbd4     pjlib-x86_64-x64-vc14-debug-dynamic:log.obj
 0003:00029bd8       thread_suspended_tls_id    00000001400cdbd8     pjlib-x86_64-x64-vc14-debug-dynamic:log.obj
 0003:00029bdc       thread_indent_tls_id       00000001400cdbdc     pjlib-x86_64-x64-vc14-debug-dynamic:log.obj
 0003:00029be0       log_writer                 00000001400cdbe0     pjlib-x86_64-x64-vc14-debug-dynamic:log.obj
 0003:00029be8       log_decor                  00000001400cdbe8     pjlib-x86_64-x64-vc14-debug-dynamic:log.obj
 0003:00029bec       PJ_LOG_COLOR_0             00000001400cdbec     pjlib-x86_64-x64-vc14-debug-dynamic:log.obj
 0003:00029bf0       PJ_LOG_COLOR_1             00000001400cdbf0     pjlib-x86_64-x64-vc14-debug-dynamic:log.obj
 0003:00029bf4       PJ_LOG_COLOR_2             00000001400cdbf4     pjlib-x86_64-x64-vc14-debug-dynamic:log.obj
 0003:00029bf8       PJ_LOG_COLOR_3             00000001400cdbf8     pjlib-x86_64-x64-vc14-debug-dynamic:log.obj
 0003:00029bfc       PJ_LOG_COLOR_4             00000001400cdbfc     pjlib-x86_64-x64-vc14-debug-dynamic:log.obj
 0003:00029c00       PJ_LOG_COLOR_5             00000001400cdc00     pjlib-x86_64-x64-vc14-debug-dynamic:log.obj
 0003:00029c04       PJ_LOG_COLOR_6             00000001400cdc04     pjlib-x86_64-x64-vc14-debug-dynamic:log.obj
 0003:00029c08       PJ_LOG_COLOR_77            00000001400cdc08     pjlib-x86_64-x64-vc14-debug-dynamic:log.obj
 0003:00029c10       ?ltexts@?2??pj_log@@9@9    00000001400cdc10     pjlib-x86_64-x64-vc14-debug-dynamic:log.obj
 0003:00029c48       ?wdays@?3??pj_log@@9@9     00000001400cdc48     pjlib-x86_64-x64-vc14-debug-dynamic:log.obj
 0003:00029c80       $SG14385                   00000001400cdc80     pjlib-x86_64-x64-vc14-debug-dynamic:log.obj
 0003:00029cf8       $SG14427                   00000001400cdcf8     pjlib-x86_64-x64-vc14-debug-dynamic:log.obj
 0003:00029d90       $SG14661                   00000001400cdd90     pjlib-x86_64-x64-vc14-debug-dynamic:pool_policy_malloc.obj
 0003:00029e20       $SG14675                   00000001400cde20     pjlib-x86_64-x64-vc14-debug-dynamic:pool_policy_malloc.obj
 0003:00029eb0       $SG14685                   00000001400cdeb0     pjlib-x86_64-x64-vc14-debug-dynamic:pool_policy_malloc.obj
 0003:00029f90       $SG14474                   00000001400cdf90     pjlib-x86_64-x64-vc14-debug-dynamic:string.obj
 0003:00029fa8       $SG14475                   00000001400cdfa8     pjlib-x86_64-x64-vc14-debug-dynamic:string.obj
 0003:00029fc0       $SG15132                   00000001400cdfc0     pjlib-x86_64-x64-vc14-debug-dynamic:string.obj
 0003:0002a0c0       $SG15133                   00000001400ce0c0     pjlib-x86_64-x64-vc14-debug-dynamic:string.obj
 0003:0002a0e0       $SG15145                   00000001400ce0e0     pjlib-x86_64-x64-vc14-debug-dynamic:string.obj
 0003:0002a1e0       $SG15146                   00000001400ce1e0     pjlib-x86_64-x64-vc14-debug-dynamic:string.obj
 0003:0002a1f0       $SG15407                   00000001400ce1f0     pjlib-x86_64-x64-vc14-debug-dynamic:string.obj
 0003:0002a268       $SG15408                   00000001400ce268     pjlib-x86_64-x64-vc14-debug-dynamic:string.obj
 0003:0002a280       $SG15414                   00000001400ce280     pjlib-x86_64-x64-vc14-debug-dynamic:string.obj
 0003:0002a300       $SG15428                   00000001400ce300     pjlib-x86_64-x64-vc14-debug-dynamic:string.obj
 0003:0002a380       $SG15448                   00000001400ce380     pjlib-x86_64-x64-vc14-debug-dynamic:string.obj
 0003:0002a400       $SG15470                   00000001400ce400     pjlib-x86_64-x64-vc14-debug-dynamic:string.obj
 0003:0002a478       $SG15477                   00000001400ce478     pjlib-x86_64-x64-vc14-debug-dynamic:string.obj
 0003:0002a490       $SG15478                   00000001400ce490     pjlib-x86_64-x64-vc14-debug-dynamic:string.obj
 0003:0002a580       $SG15479                   00000001400ce580     pjlib-x86_64-x64-vc14-debug-dynamic:string.obj
 0003:0002a5b0       $SG15504                   00000001400ce5b0     pjlib-x86_64-x64-vc14-debug-dynamic:string.obj
 0003:0002a628       $SG15521                   00000001400ce628     pjlib-x86_64-x64-vc14-debug-dynamic:string.obj
 0003:0002a640       $SG15522                   00000001400ce640     pjlib-x86_64-x64-vc14-debug-dynamic:string.obj
 0003:0002a730       $SG15523                   00000001400ce730     pjlib-x86_64-x64-vc14-debug-dynamic:string.obj
 0003:0002a760       $SG15577                   00000001400ce760     pjlib-x86_64-x64-vc14-debug-dynamic:string.obj
 0003:0002a980       $SG58824                   00000001400ce980     pjlib-x86_64-x64-vc14-debug-dynamic:os_error_win32.obj
 0003:0002a9a8       $SG58825                   00000001400ce9a8     pjlib-x86_64-x64-vc14-debug-dynamic:os_error_win32.obj
 0003:0002a9c8       $SG58826                   00000001400ce9c8     pjlib-x86_64-x64-vc14-debug-dynamic:os_error_win32.obj
 0003:0002a9e8       $SG58827                   00000001400ce9e8     pjlib-x86_64-x64-vc14-debug-dynamic:os_error_win32.obj
 0003:0002aa00       $SG58828                   00000001400cea00     pjlib-x86_64-x64-vc14-debug-dynamic:os_error_win32.obj
 0003:0002aa20       $SG58829                   00000001400cea20     pjlib-x86_64-x64-vc14-debug-dynamic:os_error_win32.obj
 0003:0002aa48       $SG58830                   00000001400cea48     pjlib-x86_64-x64-vc14-debug-dynamic:os_error_win32.obj
 0003:0002aa70       $SG58831                   00000001400cea70     pjlib-x86_64-x64-vc14-debug-dynamic:os_error_win32.obj
 0003:0002aaa0       $SG58832                   00000001400ceaa0     pjlib-x86_64-x64-vc14-debug-dynamic:os_error_win32.obj
 0003:0002aad0       $SG58833                   00000001400cead0     pjlib-x86_64-x64-vc14-debug-dynamic:os_error_win32.obj
 0003:0002ab00       $SG58834                   00000001400ceb00     pjlib-x86_64-x64-vc14-debug-dynamic:os_error_win32.obj
 0003:0002ab30       $SG58835                   00000001400ceb30     pjlib-x86_64-x64-vc14-debug-dynamic:os_error_win32.obj
 0003:0002ab50       $SG58836                   00000001400ceb50     pjlib-x86_64-x64-vc14-debug-dynamic:os_error_win32.obj
 0003:0002ab80       $SG58837                   00000001400ceb80     pjlib-x86_64-x64-vc14-debug-dynamic:os_error_win32.obj
 0003:0002aba8       $SG58838                   00000001400ceba8     pjlib-x86_64-x64-vc14-debug-dynamic:os_error_win32.obj
 0003:0002abd8       $SG58839                   00000001400cebd8     pjlib-x86_64-x64-vc14-debug-dynamic:os_error_win32.obj
 0003:0002ac08       $SG58840                   00000001400cec08     pjlib-x86_64-x64-vc14-debug-dynamic:os_error_win32.obj
 0003:0002ac40       $SG58841                   00000001400cec40     pjlib-x86_64-x64-vc14-debug-dynamic:os_error_win32.obj
 0003:0002ac70       $SG58842                   00000001400cec70     pjlib-x86_64-x64-vc14-debug-dynamic:os_error_win32.obj
 0003:0002aca0       $SG58843                   00000001400ceca0     pjlib-x86_64-x64-vc14-debug-dynamic:os_error_win32.obj
 0003:0002acc8       $SG58844                   00000001400cecc8     pjlib-x86_64-x64-vc14-debug-dynamic:os_error_win32.obj
 0003:0002ad00       $SG58845                   00000001400ced00     pjlib-x86_64-x64-vc14-debug-dynamic:os_error_win32.obj
 0003:0002ad20       $SG58846                   00000001400ced20     pjlib-x86_64-x64-vc14-debug-dynamic:os_error_win32.obj
 0003:0002ad48       $SG58847                   00000001400ced48     pjlib-x86_64-x64-vc14-debug-dynamic:os_error_win32.obj
 0003:0002ad70       $SG58848                   00000001400ced70     pjlib-x86_64-x64-vc14-debug-dynamic:os_error_win32.obj
 0003:0002ada8       $SG58849                   00000001400ceda8     pjlib-x86_64-x64-vc14-debug-dynamic:os_error_win32.obj
 0003:0002add8       $SG58850                   00000001400cedd8     pjlib-x86_64-x64-vc14-debug-dynamic:os_error_win32.obj
 0003:0002ae00       $SG58851                   00000001400cee00     pjlib-x86_64-x64-vc14-debug-dynamic:os_error_win32.obj
 0003:0002ae30       $SG58852                   00000001400cee30     pjlib-x86_64-x64-vc14-debug-dynamic:os_error_win32.obj
 0003:0002ae58       $SG58853                   00000001400cee58     pjlib-x86_64-x64-vc14-debug-dynamic:os_error_win32.obj
 0003:0002ae88       $SG58854                   00000001400cee88     pjlib-x86_64-x64-vc14-debug-dynamic:os_error_win32.obj
 0003:0002aec0       $SG58855                   00000001400ceec0     pjlib-x86_64-x64-vc14-debug-dynamic:os_error_win32.obj
 0003:0002aee8       $SG58856                   00000001400ceee8     pjlib-x86_64-x64-vc14-debug-dynamic:os_error_win32.obj
 0003:0002af10       $SG58857                   00000001400cef10     pjlib-x86_64-x64-vc14-debug-dynamic:os_error_win32.obj
 0003:0002af40       $SG58858                   00000001400cef40     pjlib-x86_64-x64-vc14-debug-dynamic:os_error_win32.obj
 0003:0002af68       $SG58859                   00000001400cef68     pjlib-x86_64-x64-vc14-debug-dynamic:os_error_win32.obj
 0003:0002af88       $SG58860                   00000001400cef88     pjlib-x86_64-x64-vc14-debug-dynamic:os_error_win32.obj
 0003:0002afb0       $SG58861                   00000001400cefb0     pjlib-x86_64-x64-vc14-debug-dynamic:os_error_win32.obj
 0003:0002afd8       $SG58862                   00000001400cefd8     pjlib-x86_64-x64-vc14-debug-dynamic:os_error_win32.obj
 0003:0002b000       $SG58863                   00000001400cf000     pjlib-x86_64-x64-vc14-debug-dynamic:os_error_win32.obj
 0003:0002b020       $SG58864                   00000001400cf020     pjlib-x86_64-x64-vc14-debug-dynamic:os_error_win32.obj
 0003:0002b040       $SG58865                   00000001400cf040     pjlib-x86_64-x64-vc14-debug-dynamic:os_error_win32.obj
 0003:0002b068       $SG58866                   00000001400cf068     pjlib-x86_64-x64-vc14-debug-dynamic:os_error_win32.obj
 0003:0002b098       $SG58867                   00000001400cf098     pjlib-x86_64-x64-vc14-debug-dynamic:os_error_win32.obj
 0003:0002b0c8       $SG58868                   00000001400cf0c8     pjlib-x86_64-x64-vc14-debug-dynamic:os_error_win32.obj
 0003:0002b100       $SG58869                   00000001400cf100     pjlib-x86_64-x64-vc14-debug-dynamic:os_error_win32.obj
 0003:0002b130       $SG58870                   00000001400cf130     pjlib-x86_64-x64-vc14-debug-dynamic:os_error_win32.obj
 0003:0002b160       $SG58871                   00000001400cf160     pjlib-x86_64-x64-vc14-debug-dynamic:os_error_win32.obj
 0003:0002b188       $SG58872                   00000001400cf188     pjlib-x86_64-x64-vc14-debug-dynamic:os_error_win32.obj
 0003:0002b1c0       $SG58912                   00000001400cf1c0     pjlib-x86_64-x64-vc14-debug-dynamic:os_error_win32.obj
 0003:0002b2c0       $SG58913                   00000001400cf2c0     pjlib-x86_64-x64-vc14-debug-dynamic:os_error_win32.obj
 0003:0002b2f0       $SG58914                   00000001400cf2f0     pjlib-x86_64-x64-vc14-debug-dynamic:os_error_win32.obj
 0003:0002b3f0       $SG58915                   00000001400cf3f0     pjlib-x86_64-x64-vc14-debug-dynamic:os_error_win32.obj
 0003:0002b410       $SG58923                   00000001400cf410     pjlib-x86_64-x64-vc14-debug-dynamic:os_error_win32.obj
 0003:0002b650       $SG13893                   00000001400cf650     pjlib-x86_64-x64-vc14-debug-dynamic:array.obj
 0003:0002b740       $SG13894                   00000001400cf740     pjlib-x86_64-x64-vc14-debug-dynamic:array.obj
 0003:0002b790       $SG60332                   00000001400cf790     pjlib-x86_64-x64-vc14-debug-dynamic:sock_common.obj
 0003:0002b794       $SG60333                   00000001400cf794     pjlib-x86_64-x64-vc14-debug-dynamic:sock_common.obj
 0003:0002b798       $SG60336                   00000001400cf798     pjlib-x86_64-x64-vc14-debug-dynamic:sock_common.obj
 0003:0002b79c       $SG60978                   00000001400cf79c     pjlib-x86_64-x64-vc14-debug-dynamic:sock_common.obj
 0003:0002b7a0       $SG60337                   00000001400cf7a0     pjlib-x86_64-x64-vc14-debug-dynamic:sock_common.obj
 0003:0002b7b0       $SG60353                   00000001400cf7b0     pjlib-x86_64-x64-vc14-debug-dynamic:sock_common.obj
 0003:0002b830       $SG60355                   00000001400cf830     pjlib-x86_64-x64-vc14-debug-dynamic:sock_common.obj
 0003:0002b928       $SG60559                   00000001400cf928     pjlib-x86_64-x64-vc14-debug-dynamic:sock_common.obj
 0003:0002b940       $SG60356                   00000001400cf940     pjlib-x86_64-x64-vc14-debug-dynamic:sock_common.obj
 0003:0002b988       $SG60871                   00000001400cf988     pjlib-x86_64-x64-vc14-debug-dynamic:sock_common.obj
 0003:0002b990       $SG60379                   00000001400cf990     pjlib-x86_64-x64-vc14-debug-dynamic:sock_common.obj
 0003:0002ba88       $SG60380                   00000001400cfa88     pjlib-x86_64-x64-vc14-debug-dynamic:sock_common.obj
 0003:0002baa8       $SG60872                   00000001400cfaa8     pjlib-x86_64-x64-vc14-debug-dynamic:sock_common.obj
 0003:0002bab0       $SG60399                   00000001400cfab0     pjlib-x86_64-x64-vc14-debug-dynamic:sock_common.obj
 0003:0002bba8       $SG60400                   00000001400cfba8     pjlib-x86_64-x64-vc14-debug-dynamic:sock_common.obj
 0003:0002bbb8       $SG60420                   00000001400cfbb8     pjlib-x86_64-x64-vc14-debug-dynamic:sock_common.obj
 0003:0002bbd8       $SG60888                   00000001400cfbd8     pjlib-x86_64-x64-vc14-debug-dynamic:sock_common.obj
 0003:0002bbe0       $SG60419                   00000001400cfbe0     pjlib-x86_64-x64-vc14-debug-dynamic:sock_common.obj
 0003:0002bcd8       $SG60889                   00000001400cfcd8     pjlib-x86_64-x64-vc14-debug-dynamic:sock_common.obj
 0003:0002bce0       $SG60462                   00000001400cfce0     pjlib-x86_64-x64-vc14-debug-dynamic:sock_common.obj
 0003:0002bdd8       $SG60979                   00000001400cfdd8     pjlib-x86_64-x64-vc14-debug-dynamic:sock_common.obj
 0003:0002bde0       $SG60463                   00000001400cfde0     pjlib-x86_64-x64-vc14-debug-dynamic:sock_common.obj
 0003:0002be70       $SG60491                   00000001400cfe70     pjlib-x86_64-x64-vc14-debug-dynamic:sock_common.obj
 0003:0002bf70       $SG60492                   00000001400cff70     pjlib-x86_64-x64-vc14-debug-dynamic:sock_common.obj
 0003:0002c000       $SG60506                   00000001400d0000     pjlib-x86_64-x64-vc14-debug-dynamic:sock_common.obj
 0003:0002c100       $SG60507                   00000001400d0100     pjlib-x86_64-x64-vc14-debug-dynamic:sock_common.obj
 0003:0002c190       $SG60521                   00000001400d0190     pjlib-x86_64-x64-vc14-debug-dynamic:sock_common.obj
 0003:0002c290       $SG60522                   00000001400d0290     pjlib-x86_64-x64-vc14-debug-dynamic:sock_common.obj
 0003:0002c320       $SG60558                   00000001400d0320     pjlib-x86_64-x64-vc14-debug-dynamic:sock_common.obj
 0003:0002c420       $SG60579                   00000001400d0420     pjlib-x86_64-x64-vc14-debug-dynamic:sock_common.obj
 0003:0002c520       $SG60580                   00000001400d0520     pjlib-x86_64-x64-vc14-debug-dynamic:sock_common.obj
 0003:0002c570       $SG60648                   00000001400d0570     pjlib-x86_64-x64-vc14-debug-dynamic:sock_common.obj
 0003:0002c670       $SG60649                   00000001400d0670     pjlib-x86_64-x64-vc14-debug-dynamic:sock_common.obj
 0003:0002c730       $SG60712                   00000001400d0730     pjlib-x86_64-x64-vc14-debug-dynamic:sock_common.obj
 0003:0002c828       $SG60713                   00000001400d0828     pjlib-x86_64-x64-vc14-debug-dynamic:sock_common.obj
 0003:0002c840       $SG60715                   00000001400d0840     pjlib-x86_64-x64-vc14-debug-dynamic:sock_common.obj
 0003:0002c940       $SG60716                   00000001400d0940     pjlib-x86_64-x64-vc14-debug-dynamic:sock_common.obj
 0003:0002c9b0       $SG60718                   00000001400d09b0     pjlib-x86_64-x64-vc14-debug-dynamic:sock_common.obj
 0003:0002caa8       $SG60719                   00000001400d0aa8     pjlib-x86_64-x64-vc14-debug-dynamic:sock_common.obj
 0003:0002cad0       $SG60821                   00000001400d0ad0     pjlib-x86_64-x64-vc14-debug-dynamic:sock_common.obj
 0003:0002cbd0       $SG60822                   00000001400d0bd0     pjlib-x86_64-x64-vc14-debug-dynamic:sock_common.obj
 0003:0002cc30       $SG60913                   00000001400d0c30     pjlib-x86_64-x64-vc14-debug-dynamic:sock_common.obj
 0003:0002ccb0       $SG60915                   00000001400d0cb0     pjlib-x86_64-x64-vc14-debug-dynamic:sock_common.obj
 0003:0002cda8       $SG60916                   00000001400d0da8     pjlib-x86_64-x64-vc14-debug-dynamic:sock_common.obj
 0003:0002cdc0       $SG60945                   00000001400d0dc0     pjlib-x86_64-x64-vc14-debug-dynamic:sock_common.obj
 0003:0002ce40       $SG60948                   00000001400d0e40     pjlib-x86_64-x64-vc14-debug-dynamic:sock_common.obj
 0003:0002cf40       $SG60949                   00000001400d0f40     pjlib-x86_64-x64-vc14-debug-dynamic:sock_common.obj
 0003:0002d008       $SG60984                   00000001400d1008     pjlib-x86_64-x64-vc14-debug-dynamic:sock_common.obj
 0003:0002d018       $SG60985                   00000001400d1018     pjlib-x86_64-x64-vc14-debug-dynamic:sock_common.obj
 0003:0002d510       $SG61111                   00000001400d1510     pjlib-x86_64-x64-vc14-debug-dynamic:ioqueue_select.obj
 0003:0002d618       $SG61112                   00000001400d1618     pjlib-x86_64-x64-vc14-debug-dynamic:ioqueue_select.obj
 0003:0002d638       $SG61137                   00000001400d1638     pjlib-x86_64-x64-vc14-debug-dynamic:ioqueue_select.obj
 0003:0002d660       $SG61136                   00000001400d1660     pjlib-x86_64-x64-vc14-debug-dynamic:ioqueue_select.obj
 0003:0002d768       $SG61154                   00000001400d1768     pjlib-x86_64-x64-vc14-debug-dynamic:ioqueue_select.obj
 0003:0002d790       $SG61153                   00000001400d1790     pjlib-x86_64-x64-vc14-debug-dynamic:ioqueue_select.obj
 0003:0002d898       $SG61169                   00000001400d1898     pjlib-x86_64-x64-vc14-debug-dynamic:ioqueue_select.obj
 0003:0002d8a0       $SG61168                   00000001400d18a0     pjlib-x86_64-x64-vc14-debug-dynamic:ioqueue_select.obj
 0003:0002d9a8       $SG61231                   00000001400d19a8     pjlib-x86_64-x64-vc14-debug-dynamic:ioqueue_select.obj
 0003:0002d9c0       $SG61232                   00000001400d19c0     pjlib-x86_64-x64-vc14-debug-dynamic:ioqueue_select.obj
 0003:0002dac8       $SG61233                   00000001400d1ac8     pjlib-x86_64-x64-vc14-debug-dynamic:ioqueue_select.obj
 0003:0002db00       $SG61236                   00000001400d1b00     pjlib-x86_64-x64-vc14-debug-dynamic:ioqueue_select.obj
 0003:0002dc08       $SG61237                   00000001400d1c08     pjlib-x86_64-x64-vc14-debug-dynamic:ioqueue_select.obj
 0003:0002dc20       $SG61280                   00000001400d1c20     pjlib-x86_64-x64-vc14-debug-dynamic:ioqueue_select.obj
 0003:0002dd28       $SG61523                   00000001400d1d28     pjlib-x86_64-x64-vc14-debug-dynamic:ioqueue_select.obj
 0003:0002dd60       $SG61281                   00000001400d1d60     pjlib-x86_64-x64-vc14-debug-dynamic:ioqueue_select.obj
 0003:0002dda4       $SG61658                   00000001400d1da4     pjlib-x86_64-x64-vc14-debug-dynamic:ioqueue_select.obj
 0003:0002ddb0       $SG61339                   00000001400d1db0     pjlib-x86_64-x64-vc14-debug-dynamic:ioqueue_select.obj
 0003:0002deb8       $SG61634                   00000001400d1eb8     pjlib-x86_64-x64-vc14-debug-dynamic:ioqueue_select.obj
 0003:0002dec0       $SG61340                   00000001400d1ec0     pjlib-x86_64-x64-vc14-debug-dynamic:ioqueue_select.obj
 0003:0002df04       $SG61717                   00000001400d1f04     pjlib-x86_64-x64-vc14-debug-dynamic:ioqueue_select.obj
 0003:0002df10       $SG61341                   00000001400d1f10     pjlib-x86_64-x64-vc14-debug-dynamic:ioqueue_select.obj
 0003:0002df98       $SG61551                   00000001400d1f98     pjlib-x86_64-x64-vc14-debug-dynamic:ioqueue_select.obj
 0003:0002dfc8       $SG61637                   00000001400d1fc8     pjlib-x86_64-x64-vc14-debug-dynamic:ioqueue_select.obj
 0003:0002dfe0       $SG61344                   00000001400d1fe0     pjlib-x86_64-x64-vc14-debug-dynamic:ioqueue_select.obj
 0003:0002e0e8       $SG61721                   00000001400d20e8     pjlib-x86_64-x64-vc14-debug-dynamic:ioqueue_select.obj
 0003:0002e108       $SG61722                   00000001400d2108     pjlib-x86_64-x64-vc14-debug-dynamic:ioqueue_select.obj
 0003:0002e110       $SG61345                   00000001400d2110     pjlib-x86_64-x64-vc14-debug-dynamic:ioqueue_select.obj
 0003:0002e154       $SG61782                   00000001400d2154     pjlib-x86_64-x64-vc14-debug-dynamic:ioqueue_select.obj
 0003:0002e160       $SG61386                   00000001400d2160     pjlib-x86_64-x64-vc14-debug-dynamic:ioqueue_select.obj
 0003:0002e268       $SG61740                   00000001400d2268     pjlib-x86_64-x64-vc14-debug-dynamic:ioqueue_select.obj
 0003:0002e278       $SG61817                   00000001400d2278     pjlib-x86_64-x64-vc14-debug-dynamic:ioqueue_select.obj
 0003:0002e2a0       $SG61387                   00000001400d22a0     pjlib-x86_64-x64-vc14-debug-dynamic:ioqueue_select.obj
 0003:0002e2e4       $SG61871                   00000001400d22e4     pjlib-x86_64-x64-vc14-debug-dynamic:ioqueue_select.obj
 0003:0002e2e8       $SG61839                   00000001400d22e8     pjlib-x86_64-x64-vc14-debug-dynamic:ioqueue_select.obj
 0003:0002e2f0       $SG61388                   00000001400d22f0     pjlib-x86_64-x64-vc14-debug-dynamic:ioqueue_select.obj
 0003:0002e378       $SG61616                   00000001400d2378     pjlib-x86_64-x64-vc14-debug-dynamic:ioqueue_select.obj
 0003:0002e3a8       $SG61891                   00000001400d23a8     pjlib-x86_64-x64-vc14-debug-dynamic:ioqueue_select.obj
 0003:0002e3b0       $SG61391                   00000001400d23b0     pjlib-x86_64-x64-vc14-debug-dynamic:ioqueue_select.obj
 0003:0002e4b8       $SG61903                   00000001400d24b8     pjlib-x86_64-x64-vc14-debug-dynamic:ioqueue_select.obj
 0003:0002e4d8       $SG61973                   00000001400d24d8     pjlib-x86_64-x64-vc14-debug-dynamic:ioqueue_select.obj
 0003:0002e500       $SG61392                   00000001400d2500     pjlib-x86_64-x64-vc14-debug-dynamic:ioqueue_select.obj
 0003:0002e550       $SG61427                   00000001400d2550     pjlib-x86_64-x64-vc14-debug-dynamic:ioqueue_select.obj
 0003:0002e660       $SG61428                   00000001400d2660     pjlib-x86_64-x64-vc14-debug-dynamic:ioqueue_select.obj
 0003:0002e6a0       $SG61429                   00000001400d26a0     pjlib-x86_64-x64-vc14-debug-dynamic:ioqueue_select.obj
 0003:0002e730       $SG61481                   00000001400d2730     pjlib-x86_64-x64-vc14-debug-dynamic:ioqueue_select.obj
 0003:0002e840       $SG61482                   00000001400d2840     pjlib-x86_64-x64-vc14-debug-dynamic:ioqueue_select.obj
 0003:0002e880       $SG61483                   00000001400d2880     pjlib-x86_64-x64-vc14-debug-dynamic:ioqueue_select.obj
 0003:0002e910       $SG61490                   00000001400d2910     pjlib-x86_64-x64-vc14-debug-dynamic:ioqueue_select.obj
 0003:0002ea20       $SG61491                   00000001400d2a20     pjlib-x86_64-x64-vc14-debug-dynamic:ioqueue_select.obj
 0003:0002ea70       $SG61522                   00000001400d2a70     pjlib-x86_64-x64-vc14-debug-dynamic:ioqueue_select.obj
 0003:0002eb80       $SG61526                   00000001400d2b80     pjlib-x86_64-x64-vc14-debug-dynamic:ioqueue_select.obj
 0003:0002ec90       $SG61527                   00000001400d2c90     pjlib-x86_64-x64-vc14-debug-dynamic:ioqueue_select.obj
 0003:0002ece0       $SG61550                   00000001400d2ce0     pjlib-x86_64-x64-vc14-debug-dynamic:ioqueue_select.obj
 0003:0002edf0       $SG61615                   00000001400d2df0     pjlib-x86_64-x64-vc14-debug-dynamic:ioqueue_select.obj
 0003:0002ef00       $SG61633                   00000001400d2f00     pjlib-x86_64-x64-vc14-debug-dynamic:ioqueue_select.obj
 0003:0002f010       $SG61636                   00000001400d3010     pjlib-x86_64-x64-vc14-debug-dynamic:ioqueue_select.obj
 0003:0002f120       $SG61712                   00000001400d3120     pjlib-x86_64-x64-vc14-debug-dynamic:ioqueue_select.obj
 0003:0002f220       $SG61713                   00000001400d3220     pjlib-x86_64-x64-vc14-debug-dynamic:ioqueue_select.obj
 0003:0002f2c0       $SG61739                   00000001400d32c0     pjlib-x86_64-x64-vc14-debug-dynamic:ioqueue_select.obj
 0003:0002f3c0       $SG61777                   00000001400d33c0     pjlib-x86_64-x64-vc14-debug-dynamic:ioqueue_select.obj
 0003:0002f4c0       $SG61778                   00000001400d34c0     pjlib-x86_64-x64-vc14-debug-dynamic:ioqueue_select.obj
 0003:0002f520       $SG61781                   00000001400d3520     pjlib-x86_64-x64-vc14-debug-dynamic:ioqueue_select.obj
 0003:0002f580       $SG61784                   00000001400d3580     pjlib-x86_64-x64-vc14-debug-dynamic:ioqueue_select.obj
 0003:0002f680       $SG61785                   00000001400d3680     pjlib-x86_64-x64-vc14-debug-dynamic:ioqueue_select.obj
 0003:0002f6d0       $SG61816                   00000001400d36d0     pjlib-x86_64-x64-vc14-debug-dynamic:ioqueue_select.obj
 0003:0002f7d0       $SG61838                   00000001400d37d0     pjlib-x86_64-x64-vc14-debug-dynamic:ioqueue_select.obj
 0003:0002f8d0       $SG61843                   00000001400d38d0     pjlib-x86_64-x64-vc14-debug-dynamic:ioqueue_select.obj
 0003:0002f900       $SG61844                   00000001400d3900     pjlib-x86_64-x64-vc14-debug-dynamic:ioqueue_select.obj
 0003:0002fa00       $SG61845                   00000001400d3a00     pjlib-x86_64-x64-vc14-debug-dynamic:ioqueue_select.obj
 0003:0002fa58       $SG61847                   00000001400d3a58     pjlib-x86_64-x64-vc14-debug-dynamic:ioqueue_select.obj
 0003:0002fa88       $SG61848                   00000001400d3a88     pjlib-x86_64-x64-vc14-debug-dynamic:ioqueue_select.obj
 0003:0002faa0       $SG61870                   00000001400d3aa0     pjlib-x86_64-x64-vc14-debug-dynamic:ioqueue_select.obj
 0003:0002fba0       $SG61890                   00000001400d3ba0     pjlib-x86_64-x64-vc14-debug-dynamic:ioqueue_select.obj
 0003:0002fca0       $SG61902                   00000001400d3ca0     pjlib-x86_64-x64-vc14-debug-dynamic:ioqueue_select.obj
 0003:0002fda0       $SG61949                   00000001400d3da0     pjlib-x86_64-x64-vc14-debug-dynamic:ioqueue_select.obj
 0003:0002fea0       $SG61950                   00000001400d3ea0     pjlib-x86_64-x64-vc14-debug-dynamic:ioqueue_select.obj
 0003:0002feb0       $SG61971                   00000001400d3eb0     pjlib-x86_64-x64-vc14-debug-dynamic:ioqueue_select.obj
 0003:0002fec0       $SG61972                   00000001400d3ec0     pjlib-x86_64-x64-vc14-debug-dynamic:ioqueue_select.obj
 0003:00030850       $SG60234                   00000001400d4850     pjlib-x86_64-x64-vc14-debug-dynamic:sock_bsd.obj
 0003:00030948       $SG60235                   00000001400d4948     pjlib-x86_64-x64-vc14-debug-dynamic:sock_bsd.obj
 0003:00030978       $SG60274                   00000001400d4978     pjlib-x86_64-x64-vc14-debug-dynamic:sock_bsd.obj
 0003:000309a8       $SG60283                   00000001400d49a8     pjlib-x86_64-x64-vc14-debug-dynamic:sock_bsd.obj
 0003:000309c0       $SG60269                   00000001400d49c0     pjlib-x86_64-x64-vc14-debug-dynamic:sock_bsd.obj
 0003:00030ab8       $SG60285                   00000001400d4ab8     pjlib-x86_64-x64-vc14-debug-dynamic:sock_bsd.obj
 0003:00030ae0       $SG60270                   00000001400d4ae0     pjlib-x86_64-x64-vc14-debug-dynamic:sock_bsd.obj
 0003:00030b28       $SG60320                   00000001400d4b28     pjlib-x86_64-x64-vc14-debug-dynamic:sock_bsd.obj
 0003:00030b50       $SG60273                   00000001400d4b50     pjlib-x86_64-x64-vc14-debug-dynamic:sock_bsd.obj
 0003:00030c48       $SG60330                   00000001400d4c48     pjlib-x86_64-x64-vc14-debug-dynamic:sock_bsd.obj
 0003:00030c68       $SG60332                   00000001400d4c68     pjlib-x86_64-x64-vc14-debug-dynamic:sock_bsd.obj
 0003:00030ca8       $SG60382                   00000001400d4ca8     pjlib-x86_64-x64-vc14-debug-dynamic:sock_bsd.obj
 0003:00030cd0       $SG60284                   00000001400d4cd0     pjlib-x86_64-x64-vc14-debug-dynamic:sock_bsd.obj
 0003:00030dc8       $SG60471                   00000001400d4dc8     pjlib-x86_64-x64-vc14-debug-dynamic:sock_bsd.obj
 0003:00030dd0       $SG60319                   00000001400d4dd0     pjlib-x86_64-x64-vc14-debug-dynamic:sock_bsd.obj
 0003:00030ec8       $SG60498                   00000001400d4ec8     pjlib-x86_64-x64-vc14-debug-dynamic:sock_bsd.obj
 0003:00030ed0       $SG60322                   00000001400d4ed0     pjlib-x86_64-x64-vc14-debug-dynamic:sock_bsd.obj
 0003:00030fc8       $SG60521                   00000001400d4fc8     pjlib-x86_64-x64-vc14-debug-dynamic:sock_bsd.obj
 0003:00030fe0       $SG60323                   00000001400d4fe0     pjlib-x86_64-x64-vc14-debug-dynamic:sock_bsd.obj
 0003:00031028       $SG60550                   00000001400d5028     pjlib-x86_64-x64-vc14-debug-dynamic:sock_bsd.obj
 0003:00031040       $SG60331                   00000001400d5040     pjlib-x86_64-x64-vc14-debug-dynamic:sock_bsd.obj
 0003:00031138       $SG60576                   00000001400d5138     pjlib-x86_64-x64-vc14-debug-dynamic:sock_bsd.obj
 0003:00031160       $SG60342                   00000001400d5160     pjlib-x86_64-x64-vc14-debug-dynamic:sock_bsd.obj
 0003:000311e0       $SG60379                   00000001400d51e0     pjlib-x86_64-x64-vc14-debug-dynamic:sock_bsd.obj
 0003:00031260       $SG60381                   00000001400d5260     pjlib-x86_64-x64-vc14-debug-dynamic:sock_bsd.obj
 0003:00031358       $SG60620                   00000001400d5358     pjlib-x86_64-x64-vc14-debug-dynamic:sock_bsd.obj
 0003:00031368       $SG60622                   00000001400d5368     pjlib-x86_64-x64-vc14-debug-dynamic:sock_bsd.obj
 0003:00031390       $SG60404                   00000001400d5390     pjlib-x86_64-x64-vc14-debug-dynamic:sock_bsd.obj
 0003:00031410       $SG60407                   00000001400d5410     pjlib-x86_64-x64-vc14-debug-dynamic:sock_bsd.obj
 0003:00031508       $SG60623                   00000001400d5508     pjlib-x86_64-x64-vc14-debug-dynamic:sock_bsd.obj
 0003:00031518       $SG60672                   00000001400d5518     pjlib-x86_64-x64-vc14-debug-dynamic:sock_bsd.obj
 0003:00031550       $SG60408                   00000001400d5550     pjlib-x86_64-x64-vc14-debug-dynamic:sock_bsd.obj
 0003:000315b0       $SG60420                   00000001400d55b0     pjlib-x86_64-x64-vc14-debug-dynamic:sock_bsd.obj
 0003:00031630       $SG60425                   00000001400d5630     pjlib-x86_64-x64-vc14-debug-dynamic:sock_bsd.obj
 0003:000316b0       $SG60437                   00000001400d56b0     pjlib-x86_64-x64-vc14-debug-dynamic:sock_bsd.obj
 0003:00031730       $SG60449                   00000001400d5730     pjlib-x86_64-x64-vc14-debug-dynamic:sock_bsd.obj
 0003:000317b0       $SG60468                   00000001400d57b0     pjlib-x86_64-x64-vc14-debug-dynamic:sock_bsd.obj
 0003:00031830       $SG60470                   00000001400d5830     pjlib-x86_64-x64-vc14-debug-dynamic:sock_bsd.obj
 0003:00031930       $SG60495                   00000001400d5930     pjlib-x86_64-x64-vc14-debug-dynamic:sock_bsd.obj
 0003:000319b0       $SG60497                   00000001400d59b0     pjlib-x86_64-x64-vc14-debug-dynamic:sock_bsd.obj
 0003:00031ab0       $SG60517                   00000001400d5ab0     pjlib-x86_64-x64-vc14-debug-dynamic:sock_bsd.obj
 0003:00031b30       $SG60520                   00000001400d5b30     pjlib-x86_64-x64-vc14-debug-dynamic:sock_bsd.obj
 0003:00031c30       $SG60546                   00000001400d5c30     pjlib-x86_64-x64-vc14-debug-dynamic:sock_bsd.obj
 0003:00031cb0       $SG60549                   00000001400d5cb0     pjlib-x86_64-x64-vc14-debug-dynamic:sock_bsd.obj
 0003:00031db0       $SG60572                   00000001400d5db0     pjlib-x86_64-x64-vc14-debug-dynamic:sock_bsd.obj
 0003:00031e30       $SG60575                   00000001400d5e30     pjlib-x86_64-x64-vc14-debug-dynamic:sock_bsd.obj
 0003:00031f30       $SG60593                   00000001400d5f30     pjlib-x86_64-x64-vc14-debug-dynamic:sock_bsd.obj
 0003:00031fb0       $SG60617                   00000001400d5fb0     pjlib-x86_64-x64-vc14-debug-dynamic:sock_bsd.obj
 0003:00032030       $SG60619                   00000001400d6030     pjlib-x86_64-x64-vc14-debug-dynamic:sock_bsd.obj
 0003:00032130       $SG60632                   00000001400d6130     pjlib-x86_64-x64-vc14-debug-dynamic:sock_bsd.obj
 0003:000321b0       $SG60640                   00000001400d61b0     pjlib-x86_64-x64-vc14-debug-dynamic:sock_bsd.obj
 0003:00032230       $SG60648                   00000001400d6230     pjlib-x86_64-x64-vc14-debug-dynamic:sock_bsd.obj
 0003:000322b0       $SG60669                   00000001400d62b0     pjlib-x86_64-x64-vc14-debug-dynamic:sock_bsd.obj
 0003:00032330       $SG60671                   00000001400d6330     pjlib-x86_64-x64-vc14-debug-dynamic:sock_bsd.obj
 0003:000329c0       $SG57815                   00000001400d69c0     pjlib-x86_64-x64-vc14-debug-dynamic:file_access_win32.obj
 0003:00032ac8       $SG57816                   00000001400d6ac8     pjlib-x86_64-x64-vc14-debug-dynamic:file_access_win32.obj
 0003:00032b00       $SG57836                   00000001400d6b00     pjlib-x86_64-x64-vc14-debug-dynamic:file_access_win32.obj
 0003:00032c08       $SG57837                   00000001400d6c08     pjlib-x86_64-x64-vc14-debug-dynamic:file_access_win32.obj
 0003:00032c40       $SG57851                   00000001400d6c40     pjlib-x86_64-x64-vc14-debug-dynamic:file_access_win32.obj
 0003:00032d48       $SG57852                   00000001400d6d48     pjlib-x86_64-x64-vc14-debug-dynamic:file_access_win32.obj
 0003:00032d80       $SG57873                   00000001400d6d80     pjlib-x86_64-x64-vc14-debug-dynamic:file_access_win32.obj
 0003:00032e90       $SG57874                   00000001400d6e90     pjlib-x86_64-x64-vc14-debug-dynamic:file_access_win32.obj
 0003:00032ef0       $SG57913                   00000001400d6ef0     pjlib-x86_64-x64-vc14-debug-dynamic:file_access_win32.obj
 0003:00033000       $SG57914                   00000001400d7000     pjlib-x86_64-x64-vc14-debug-dynamic:file_access_win32.obj
 0003:000331b0       $SG57087                   00000001400d71b0     pjlib-x86_64-x64-vc14-debug-dynamic:file_io_win32.obj
 0003:000332b0       $SG57088                   00000001400d72b0     pjlib-x86_64-x64-vc14-debug-dynamic:file_io_win32.obj
 0003:000332e0       $SG57095                   00000001400d72e0     pjlib-x86_64-x64-vc14-debug-dynamic:file_io_win32.obj
 0003:00033300       $SG57096                   00000001400d7300     pjlib-x86_64-x64-vc14-debug-dynamic:file_io_win32.obj
 0003:00033400       $SG57097                   00000001400d7400     pjlib-x86_64-x64-vc14-debug-dynamic:file_io_win32.obj
 0003:00033438       $SG57146                   00000001400d7438     pjlib-x86_64-x64-vc14-debug-dynamic:file_io_win32.obj
 0003:00033460       $SG57147                   00000001400d7460     pjlib-x86_64-x64-vc14-debug-dynamic:file_io_win32.obj
 0003:00033560       $SG57148                   00000001400d7560     pjlib-x86_64-x64-vc14-debug-dynamic:file_io_win32.obj
 0003:00033670       mutex_lock_template        00000001400d7670     pjlib-x86_64-x64-vc14-debug-dynamic:lock.obj
 0003:00033698       null_lock_template         00000001400d7698     pjlib-x86_64-x64-vc14-debug-dynamic:lock.obj
 0003:000336c0       $SG14806                   00000001400d76c0     pjlib-x86_64-x64-vc14-debug-dynamic:lock.obj
 0003:000337b0       $SG14807                   00000001400d77b0     pjlib-x86_64-x64-vc14-debug-dynamic:lock.obj
 0003:000337d0       $SG14846                   00000001400d77d0     pjlib-x86_64-x64-vc14-debug-dynamic:lock.obj
 0003:000338c0       $SG14847                   00000001400d78c0     pjlib-x86_64-x64-vc14-debug-dynamic:lock.obj
 0003:000338d0       sem_lock_template          00000001400d78d0     pjlib-x86_64-x64-vc14-debug-dynamic:lock.obj
 0003:000338f8       $SG14894                   00000001400d78f8     pjlib-x86_64-x64-vc14-debug-dynamic:lock.obj
 0003:00033920       $SG14878                   00000001400d7920     pjlib-x86_64-x64-vc14-debug-dynamic:lock.obj
 0003:00033a10       $SG14879                   00000001400d7a10     pjlib-x86_64-x64-vc14-debug-dynamic:lock.obj
 0003:00033a30       $SG14893                   00000001400d7a30     pjlib-x86_64-x64-vc14-debug-dynamic:lock.obj
 0003:00033b20       $SG14906                   00000001400d7b20     pjlib-x86_64-x64-vc14-debug-dynamic:lock.obj
 0003:00033c10       $SG14907                   00000001400d7c10     pjlib-x86_64-x64-vc14-debug-dynamic:lock.obj
 0003:00033c38       $SG14920                   00000001400d7c38     pjlib-x86_64-x64-vc14-debug-dynamic:lock.obj
 0003:00033c60       $SG14919                   00000001400d7c60     pjlib-x86_64-x64-vc14-debug-dynamic:lock.obj
 0003:00033d50       $SG14932                   00000001400d7d50     pjlib-x86_64-x64-vc14-debug-dynamic:lock.obj
 0003:00033e40       $SG14933                   00000001400d7e40     pjlib-x86_64-x64-vc14-debug-dynamic:lock.obj
 0003:00033e68       $SG15088                   00000001400d7e68     pjlib-x86_64-x64-vc14-debug-dynamic:lock.obj
 0003:00033e90       $SG14966                   00000001400d7e90     pjlib-x86_64-x64-vc14-debug-dynamic:lock.obj
 0003:00033f80       $SG14967                   00000001400d7f80     pjlib-x86_64-x64-vc14-debug-dynamic:lock.obj
 0003:00033fc4       $SG15089                   00000001400d7fc4     pjlib-x86_64-x64-vc14-debug-dynamic:lock.obj
 0003:00033fd0       $SG14977                   00000001400d7fd0     pjlib-x86_64-x64-vc14-debug-dynamic:lock.obj
 0003:000340c0       $SG14978                   00000001400d80c0     pjlib-x86_64-x64-vc14-debug-dynamic:lock.obj
 0003:00034108       $SG15169                   00000001400d8108     pjlib-x86_64-x64-vc14-debug-dynamic:lock.obj
 0003:00034118       $SG15219                   00000001400d8118     pjlib-x86_64-x64-vc14-debug-dynamic:lock.obj
 0003:00034120       $SG14979                   00000001400d8120     pjlib-x86_64-x64-vc14-debug-dynamic:lock.obj
 0003:00034210       $SG14980                   00000001400d8210     pjlib-x86_64-x64-vc14-debug-dynamic:lock.obj
 0003:00034240       $SG14993                   00000001400d8240     pjlib-x86_64-x64-vc14-debug-dynamic:lock.obj
 0003:00034330       $SG14994                   00000001400d8330     pjlib-x86_64-x64-vc14-debug-dynamic:lock.obj
 0003:00034380       $SG15009                   00000001400d8380     pjlib-x86_64-x64-vc14-debug-dynamic:lock.obj
 0003:00034470       $SG15010                   00000001400d8470     pjlib-x86_64-x64-vc14-debug-dynamic:lock.obj
 0003:000344c0       $SG15087                   00000001400d84c0     pjlib-x86_64-x64-vc14-debug-dynamic:lock.obj
 0003:000345b0       $SG15168                   00000001400d85b0     pjlib-x86_64-x64-vc14-debug-dynamic:lock.obj
 0003:000346a0       $SG15218                   00000001400d86a0     pjlib-x86_64-x64-vc14-debug-dynamic:lock.obj
 0003:00034a00       thread_local_id            00000001400d8a00     pjlib-x86_64-x64-vc14-debug-dynamic:except.obj
 0003:00034a08       $SG14453                   00000001400d8a08     pjlib-x86_64-x64-vc14-debug-dynamic:except.obj
 0003:00034a30       $SG14454                   00000001400d8a30     pjlib-x86_64-x64-vc14-debug-dynamic:except.obj
 0003:00034a40       $SG14455                   00000001400d8a40     pjlib-x86_64-x64-vc14-debug-dynamic:except.obj
 0003:00034b30       $SG14456                   00000001400d8b30     pjlib-x86_64-x64-vc14-debug-dynamic:except.obj
 0003:00034b60       $SG14475                   00000001400d8b60     pjlib-x86_64-x64-vc14-debug-dynamic:except.obj
 0003:00034c50       $SG14476                   00000001400d8c50     pjlib-x86_64-x64-vc14-debug-dynamic:except.obj
 0003:00034c80       $SG14505                   00000001400d8c80     pjlib-x86_64-x64-vc14-debug-dynamic:except.obj
 0003:00034d70       $SG14506                   00000001400d8d70     pjlib-x86_64-x64-vc14-debug-dynamic:except.obj
 0003:00034d90       $SG14520                   00000001400d8d90     pjlib-x86_64-x64-vc14-debug-dynamic:except.obj
 0003:00034e80       $SG14521                   00000001400d8e80     pjlib-x86_64-x64-vc14-debug-dynamic:except.obj
 0003:00034ea0       $SG14522                   00000001400d8ea0     pjlib-x86_64-x64-vc14-debug-dynamic:except.obj
 0003:00034eb0       $SG14524                   00000001400d8eb0     pjlib-x86_64-x64-vc14-debug-dynamic:except.obj
 0003:00034fb0       $SG9824                    00000001400d8fb0     pjlib-x86_64-x64-vc14-debug-dynamic:rand.obj
 0003:00035030       $SG9827                    00000001400d9030     pjlib-x86_64-x64-vc14-debug-dynamic:rand.obj
 0003:000350e0       ?hex@?1??hex2digit@@9@9    00000001400d90e0     pjlib-x86_64-x64-vc14-debug-dynamic:guid_win32.obj
 0003:000350f0       $SG90277                   00000001400d90f0     pjlib-x86_64-x64-vc14-debug-dynamic:guid_win32.obj
 0003:00035190       $SG8120                    00000001400d9190     pjlib-x86_64-x64-vc14-debug-dynamic:config.obj
 0003:0003519c       $SG8125                    00000001400d919c     pjlib-x86_64-x64-vc14-debug-dynamic:config.obj
 0003:000351a8       id                         00000001400d91a8     pjlib-x86_64-x64-vc14-debug-dynamic:config.obj
 0003:000351b0       $SG8233                    00000001400d91b0     pjlib-x86_64-x64-vc14-debug-dynamic:config.obj
 0003:000351d0       $SG8235                    00000001400d91d0     pjlib-x86_64-x64-vc14-debug-dynamic:config.obj
 0003:000351e8       $SG8237                    00000001400d91e8     pjlib-x86_64-x64-vc14-debug-dynamic:config.obj
 0003:00035208       $SG8239                    00000001400d9208     pjlib-x86_64-x64-vc14-debug-dynamic:config.obj
 0003:00035210       $SG8240                    00000001400d9210     pjlib-x86_64-x64-vc14-debug-dynamic:config.obj
 0003:00035230       $SG8242                    00000001400d9230     pjlib-x86_64-x64-vc14-debug-dynamic:config.obj
 0003:00035250       $SG8244                    00000001400d9250     pjlib-x86_64-x64-vc14-debug-dynamic:config.obj
 0003:00035258       $SG8245                    00000001400d9258     pjlib-x86_64-x64-vc14-debug-dynamic:config.obj
 0003:00035278       $SG8247                    00000001400d9278     pjlib-x86_64-x64-vc14-debug-dynamic:config.obj
 0003:00035280       $SG8248                    00000001400d9280     pjlib-x86_64-x64-vc14-debug-dynamic:config.obj
 0003:000352b0       $SG8250                    00000001400d92b0     pjlib-x86_64-x64-vc14-debug-dynamic:config.obj
 0003:000352c0       $SG8251                    00000001400d92c0     pjlib-x86_64-x64-vc14-debug-dynamic:config.obj
 0003:000352e0       $SG8253                    00000001400d92e0     pjlib-x86_64-x64-vc14-debug-dynamic:config.obj
 0003:00035300       $SG8255                    00000001400d9300     pjlib-x86_64-x64-vc14-debug-dynamic:config.obj
 0003:00035320       $SG8257                    00000001400d9320     pjlib-x86_64-x64-vc14-debug-dynamic:config.obj
 0003:00035340       $SG8259                    00000001400d9340     pjlib-x86_64-x64-vc14-debug-dynamic:config.obj
 0003:00035360       $SG8261                    00000001400d9360     pjlib-x86_64-x64-vc14-debug-dynamic:config.obj
 0003:00035380       $SG8263                    00000001400d9380     pjlib-x86_64-x64-vc14-debug-dynamic:config.obj
 0003:000353a0       $SG8265                    00000001400d93a0     pjlib-x86_64-x64-vc14-debug-dynamic:config.obj
 0003:000353c0       $SG8267                    00000001400d93c0     pjlib-x86_64-x64-vc14-debug-dynamic:config.obj
 0003:000353e0       $SG8269                    00000001400d93e0     pjlib-x86_64-x64-vc14-debug-dynamic:config.obj
 0003:00035400       $SG8271                    00000001400d9400     pjlib-x86_64-x64-vc14-debug-dynamic:config.obj
 0003:00035420       $SG8273                    00000001400d9420     pjlib-x86_64-x64-vc14-debug-dynamic:config.obj
 0003:00035440       $SG8275                    00000001400d9440     pjlib-x86_64-x64-vc14-debug-dynamic:config.obj
 0003:00035460       $SG8277                    00000001400d9460     pjlib-x86_64-x64-vc14-debug-dynamic:config.obj
 0003:00035480       $SG8279                    00000001400d9480     pjlib-x86_64-x64-vc14-debug-dynamic:config.obj
 0003:000354a0       $SG8281                    00000001400d94a0     pjlib-x86_64-x64-vc14-debug-dynamic:config.obj
 0003:000354c0       $SG8283                    00000001400d94c0     pjlib-x86_64-x64-vc14-debug-dynamic:config.obj
 0003:000354e0       $SG8285                    00000001400d94e0     pjlib-x86_64-x64-vc14-debug-dynamic:config.obj
 0003:00035500       $SG8287                    00000001400d9500     pjlib-x86_64-x64-vc14-debug-dynamic:config.obj
 0003:00035520       $SG8289                    00000001400d9520     pjlib-x86_64-x64-vc14-debug-dynamic:config.obj
 0003:00035540       $SG8291                    00000001400d9540     pjlib-x86_64-x64-vc14-debug-dynamic:config.obj
 0003:00035560       $SG8293                    00000001400d9560     pjlib-x86_64-x64-vc14-debug-dynamic:config.obj
 0003:00035580       $SG8295                    00000001400d9580     pjlib-x86_64-x64-vc14-debug-dynamic:config.obj
 0003:000355a0       $SG8297                    00000001400d95a0     pjlib-x86_64-x64-vc14-debug-dynamic:config.obj
 0003:000355c0       $SG8299                    00000001400d95c0     pjlib-x86_64-x64-vc14-debug-dynamic:config.obj
 0003:000355e0       $SG8301                    00000001400d95e0     pjlib-x86_64-x64-vc14-debug-dynamic:config.obj
 0003:00035600       $SG8303                    00000001400d9600     pjlib-x86_64-x64-vc14-debug-dynamic:config.obj
 0003:00035710       tls                        00000001400d9710     pjlib-x86_64-x64-vc14-debug-dynamic:pool_buf.obj
 0003:00035720       $SG8543                    00000001400d9720     pjlib-x86_64-x64-vc14-debug-dynamic:pool_buf.obj
 0003:00035818       $SG8544                    00000001400d9818     pjlib-x86_64-x64-vc14-debug-dynamic:pool_buf.obj
 0003:00035840       $SG8566                    00000001400d9840     pjlib-x86_64-x64-vc14-debug-dynamic:pool_buf.obj
 0003:00035938       $SG8567                    00000001400d9938     pjlib-x86_64-x64-vc14-debug-dynamic:pool_buf.obj
 0003:000359d0       $SG11287                   00000001400d99d0     pjlib-x86_64-x64-vc14-debug-dynamic:log_writer_stdout.obj
 0003:00035a54       $SG11290                   00000001400d9a54     pjlib-x86_64-x64-vc14-debug-dynamic:log_writer_stdout.obj
 0003:00035a58       $SG11291                   00000001400d9a58     pjlib-x86_64-x64-vc14-debug-dynamic:log_writer_stdout.obj
 0003:00035a80       $SG62196                   00000001400d9a80     pjlib-x86_64-x64-vc14-debug-dynamic:ip_helper_win32.obj
 0003:00035a90       $SG62211                   00000001400d9a90     pjlib-x86_64-x64-vc14-debug-dynamic:ip_helper_win32.obj
 0003:00035aa0       $SG62229                   00000001400d9aa0     pjlib-x86_64-x64-vc14-debug-dynamic:ip_helper_win32.obj
 0003:00035ab8       $SG62239                   00000001400d9ab8     pjlib-x86_64-x64-vc14-debug-dynamic:ip_helper_win32.obj
 0003:00035ac8       $SG62253                   00000001400d9ac8     pjlib-x86_64-x64-vc14-debug-dynamic:ip_helper_win32.obj
 0003:00035ae0       $SG62282                   00000001400d9ae0     pjlib-x86_64-x64-vc14-debug-dynamic:ip_helper_win32.obj
 0003:00035be0       $SG62283                   00000001400d9be0     pjlib-x86_64-x64-vc14-debug-dynamic:ip_helper_win32.obj
 0003:00035c00       $SG62354                   00000001400d9c00     pjlib-x86_64-x64-vc14-debug-dynamic:ip_helper_win32.obj
 0003:00035d00       $SG62355                   00000001400d9d00     pjlib-x86_64-x64-vc14-debug-dynamic:ip_helper_win32.obj
 0003:00035d20       $SG62357                   00000001400d9d20     pjlib-x86_64-x64-vc14-debug-dynamic:ip_helper_win32.obj
 0003:00035e20       $SG62358                   00000001400d9e20     pjlib-x86_64-x64-vc14-debug-dynamic:ip_helper_win32.obj
 0003:00035e90       $SG62401                   00000001400d9e90     pjlib-x86_64-x64-vc14-debug-dynamic:ip_helper_win32.obj
 0003:00035f90       $SG62402                   00000001400d9f90     pjlib-x86_64-x64-vc14-debug-dynamic:ip_helper_win32.obj
 0003:000360c0       $SG59800                   00000001400da0c0     pjlib-x86_64-x64-vc14-debug-dynamic:addr_resolv_sock.obj
 0003:000361d0       $SG59801                   00000001400da1d0     pjlib-x86_64-x64-vc14-debug-dynamic:addr_resolv_sock.obj
 0003:00036220       $SG59830                   00000001400da220     pjlib-x86_64-x64-vc14-debug-dynamic:addr_resolv_sock.obj
 0003:00036328       $SG59831                   00000001400da328     pjlib-x86_64-x64-vc14-debug-dynamic:addr_resolv_sock.obj
 0003:000363d0       $SG8212                    00000001400da3d0     pjlib-x86_64-x64-vc14-debug-dynamic:types.obj
 0003:00036460       $SG54821                   00000001400da460     pjlib-x86_64-x64-vc14-debug-dynamic:sock_select.obj
 0003:000364e0       $SG54851                   00000001400da4e0     pjlib-x86_64-x64-vc14-debug-dynamic:sock_select.obj
 0003:00036560       $SG54887                   00000001400da560     pjlib-x86_64-x64-vc14-debug-dynamic:sock_select.obj
 0003:000365e0       $SG54909                   00000001400da5e0     pjlib-x86_64-x64-vc14-debug-dynamic:sock_select.obj
 0003:00036660       $SG54945                   00000001400da660     pjlib-x86_64-x64-vc14-debug-dynamic:sock_select.obj
 0003:00036760       $SG15335                   00000001400da760     libspeex-x86_64-x64-vc14-debug-dynamic:mdf.obj
 0003:000367b0       $SG15336                   00000001400da7b0     libspeex-x86_64-x64-vc14-debug-dynamic:mdf.obj
 0003:000367bc       $SG15337                   00000001400da7bc     libspeex-x86_64-x64-vc14-debug-dynamic:mdf.obj
 0003:000367c8       $SG15340                   00000001400da7c8     libspeex-x86_64-x64-vc14-debug-dynamic:mdf.obj
 0003:000367f0       $SG15341                   00000001400da7f0     libspeex-x86_64-x64-vc14-debug-dynamic:mdf.obj
 0003:000367fc       $SG15342                   00000001400da7fc     libspeex-x86_64-x64-vc14-debug-dynamic:mdf.obj
 0003:00036808       $SG15366                   00000001400da808     libspeex-x86_64-x64-vc14-debug-dynamic:mdf.obj
 0003:00036828       $SG15367                   00000001400da828     libspeex-x86_64-x64-vc14-debug-dynamic:mdf.obj
 0003:00036834       $SG15368                   00000001400da834     libspeex-x86_64-x64-vc14-debug-dynamic:mdf.obj
 0003:00036840       $SG15373                   00000001400da840     libspeex-x86_64-x64-vc14-debug-dynamic:mdf.obj
 0003:00036888       $SG15374                   00000001400da888     libspeex-x86_64-x64-vc14-debug-dynamic:mdf.obj
 0003:00036894       $SG15375                   00000001400da894     libspeex-x86_64-x64-vc14-debug-dynamic:mdf.obj
 0003:000368a0       $SG15377                   00000001400da8a0     libspeex-x86_64-x64-vc14-debug-dynamic:mdf.obj
 0003:000368f0       $SG15378                   00000001400da8f0     libspeex-x86_64-x64-vc14-debug-dynamic:mdf.obj
 0003:000368fc       $SG15379                   00000001400da8fc     libspeex-x86_64-x64-vc14-debug-dynamic:mdf.obj
 0003:00036908       $SG15597                   00000001400da908     libspeex-x86_64-x64-vc14-debug-dynamic:mdf.obj
 0003:00036914       $SG15598                   00000001400da914     libspeex-x86_64-x64-vc14-debug-dynamic:mdf.obj
 0003:00036920       $SG15596                   00000001400da920     libspeex-x86_64-x64-vc14-debug-dynamic:mdf.obj
 0003:00036980       $SG15678                   00000001400da980     libspeex-x86_64-x64-vc14-debug-dynamic:mdf.obj
 0003:000369a4       $SG15680                   00000001400da9a4     libspeex-x86_64-x64-vc14-debug-dynamic:mdf.obj
 0003:000369b0       $SG15679                   00000001400da9b0     libspeex-x86_64-x64-vc14-debug-dynamic:mdf.obj
 0003:00036a40       $SG15659                   00000001400daa40     libspeex-x86_64-x64-vc14-debug-dynamic:preprocess.obj
 0003:00036a80       $SG15660                   00000001400daa80     libspeex-x86_64-x64-vc14-debug-dynamic:preprocess.obj
 0003:00036a8c       $SG15661                   00000001400daa8c     libspeex-x86_64-x64-vc14-debug-dynamic:preprocess.obj
 0003:00036a98       $SG15694                   00000001400daa98     libspeex-x86_64-x64-vc14-debug-dynamic:preprocess.obj
 0003:00036ac0       $SG15695                   00000001400daac0     libspeex-x86_64-x64-vc14-debug-dynamic:preprocess.obj
 0003:00036ad0       $SG15696                   00000001400daad0     libspeex-x86_64-x64-vc14-debug-dynamic:preprocess.obj
 0003:00036af8       $SG14787                   00000001400daaf8     libspeex-x86_64-x64-vc14-debug-dynamic:fftwrap.obj
 0003:00036b18       $SG14788                   00000001400dab18     libspeex-x86_64-x64-vc14-debug-dynamic:fftwrap.obj
 0003:00036b24       $SG14789                   00000001400dab24     libspeex-x86_64-x64-vc14-debug-dynamic:fftwrap.obj
 0003:00036b30       $SG14810                   00000001400dab30     libspeex-x86_64-x64-vc14-debug-dynamic:fftwrap.obj
 0003:00036b50       $SG14811                   00000001400dab50     libspeex-x86_64-x64-vc14-debug-dynamic:fftwrap.obj
 0003:00036b5c       $SG14812                   00000001400dab5c     libspeex-x86_64-x64-vc14-debug-dynamic:fftwrap.obj
 0003:00036b78       ?ntryh@?1??drfti1@@9@9     00000001400dab78     libspeex-x86_64-x64-vc14-debug-dynamic:smallft.obj
 0003:00036b88       ?tpi@?1??drfti1@@9@9       00000001400dab88     libspeex-x86_64-x64-vc14-debug-dynamic:smallft.obj
 0003:00036b8c       ?hsqt2@?1??dradf4@@9@9     00000001400dab8c     libspeex-x86_64-x64-vc14-debug-dynamic:smallft.obj
 0003:00036b90       ?tpi@?1??dradfg@@9@9       00000001400dab90     libspeex-x86_64-x64-vc14-debug-dynamic:smallft.obj
 0003:00036b94       ?taur@?1??dradb3@@9@9      00000001400dab94     libspeex-x86_64-x64-vc14-debug-dynamic:smallft.obj
 0003:00036b98       ?taui@?1??dradb3@@9@9      00000001400dab98     libspeex-x86_64-x64-vc14-debug-dynamic:smallft.obj
 0003:00036b9c       ?sqrt2@?1??dradb4@@9@9     00000001400dab9c     libspeex-x86_64-x64-vc14-debug-dynamic:smallft.obj
 0003:00036ba0       ?tpi@?1??dradbg@@9@9       00000001400daba0     libspeex-x86_64-x64-vc14-debug-dynamic:smallft.obj
 0003:00036bc0       $SG59990                   00000001400dabc0     libsrtp-x86_64-x64-vc14-debug-dynamic:srtp.obj
 0003:00036bc8       $SG60015                   00000001400dabc8     libsrtp-x86_64-x64-vc14-debug-dynamic:srtp.obj
 0003:00036bd8       $SG60022                   00000001400dabd8     libsrtp-x86_64-x64-vc14-debug-dynamic:srtp.obj
 0003:00036be4       $SG60023                   00000001400dabe4     libsrtp-x86_64-x64-vc14-debug-dynamic:srtp.obj
 0003:00036bf0       $SG60175                   00000001400dabf0     libsrtp-x86_64-x64-vc14-debug-dynamic:srtp.obj
 0003:00036c18       $SG60349                   00000001400dac18     libsrtp-x86_64-x64-vc14-debug-dynamic:srtp.obj
 0003:00036c30       $SG60351                   00000001400dac30     libsrtp-x86_64-x64-vc14-debug-dynamic:srtp.obj
 0003:00036c48       $SG60353                   00000001400dac48     libsrtp-x86_64-x64-vc14-debug-dynamic:srtp.obj
 0003:00036c60       $SG60355                   00000001400dac60     libsrtp-x86_64-x64-vc14-debug-dynamic:srtp.obj
 0003:00036c78       $SG60357                   00000001400dac78     libsrtp-x86_64-x64-vc14-debug-dynamic:srtp.obj
 0003:00036c90       $SG60361                   00000001400dac90     libsrtp-x86_64-x64-vc14-debug-dynamic:srtp.obj
 0003:00036ca8       $SG60364                   00000001400daca8     libsrtp-x86_64-x64-vc14-debug-dynamic:srtp.obj
 0003:00036cd8       $SG60368                   00000001400dacd8     libsrtp-x86_64-x64-vc14-debug-dynamic:srtp.obj
 0003:00036cf0       $SG60380                   00000001400dacf0     libsrtp-x86_64-x64-vc14-debug-dynamic:srtp.obj
 0003:00036d10       $SG60383                   00000001400dad10     libsrtp-x86_64-x64-vc14-debug-dynamic:srtp.obj
 0003:00036d48       $SG60387                   00000001400dad48     libsrtp-x86_64-x64-vc14-debug-dynamic:srtp.obj
 0003:00036d68       $SG60393                   00000001400dad68     libsrtp-x86_64-x64-vc14-debug-dynamic:srtp.obj
 0003:00036d80       $SG60396                   00000001400dad80     libsrtp-x86_64-x64-vc14-debug-dynamic:srtp.obj
 0003:00036d98       $SG60400                   00000001400dad98     libsrtp-x86_64-x64-vc14-debug-dynamic:srtp.obj
 0003:00036dd0       $SG60403                   00000001400dadd0     libsrtp-x86_64-x64-vc14-debug-dynamic:srtp.obj
 0003:00036df0       $SG60406                   00000001400dadf0     libsrtp-x86_64-x64-vc14-debug-dynamic:srtp.obj
 0003:00036e10       $SG60410                   00000001400dae10     libsrtp-x86_64-x64-vc14-debug-dynamic:srtp.obj
 0003:00036e30       $SG60420                   00000001400dae30     libsrtp-x86_64-x64-vc14-debug-dynamic:srtp.obj
 0003:00036e58       $SG60435                   00000001400dae58     libsrtp-x86_64-x64-vc14-debug-dynamic:srtp.obj
 0003:00036e70       $SG60437                   00000001400dae70     libsrtp-x86_64-x64-vc14-debug-dynamic:srtp.obj
 0003:00036e88       $SG60439                   00000001400dae88     libsrtp-x86_64-x64-vc14-debug-dynamic:srtp.obj
 0003:00036ea8       $SG60441                   00000001400daea8     libsrtp-x86_64-x64-vc14-debug-dynamic:srtp.obj
 0003:00036ec8       $SG60443                   00000001400daec8     libsrtp-x86_64-x64-vc14-debug-dynamic:srtp.obj
 0003:00036ee8       $SG60445                   00000001400daee8     libsrtp-x86_64-x64-vc14-debug-dynamic:srtp.obj
 0003:00036f10       srtp_event_handler         00000001400daf10     libsrtp-x86_64-x64-vc14-debug-dynamic:srtp.obj
 0003:00036f18       $SG60528                   00000001400daf18     libsrtp-x86_64-x64-vc14-debug-dynamic:srtp.obj
 0003:00036f38       $SG60530                   00000001400daf38     libsrtp-x86_64-x64-vc14-debug-dynamic:srtp.obj
 0003:00036f50       $SG60592                   00000001400daf50     libsrtp-x86_64-x64-vc14-debug-dynamic:srtp.obj
 0003:00036f78       $SG60644                   00000001400daf78     libsrtp-x86_64-x64-vc14-debug-dynamic:srtp.obj
 0003:00036f98       $SG60659                   00000001400daf98     libsrtp-x86_64-x64-vc14-debug-dynamic:srtp.obj
 0003:00036fc0       $SG60717                   00000001400dafc0     libsrtp-x86_64-x64-vc14-debug-dynamic:srtp.obj
 0003:00036fe8       $SG60719                   00000001400dafe8     libsrtp-x86_64-x64-vc14-debug-dynamic:srtp.obj
 0003:00037010       $SG60816                   00000001400db010     libsrtp-x86_64-x64-vc14-debug-dynamic:srtp.obj
 0003:00037030       $SG60850                   00000001400db030     libsrtp-x86_64-x64-vc14-debug-dynamic:srtp.obj
 0003:00037058       $SG60861                   00000001400db058     libsrtp-x86_64-x64-vc14-debug-dynamic:srtp.obj
 0003:00037078       $SG60870                   00000001400db078     libsrtp-x86_64-x64-vc14-debug-dynamic:srtp.obj
 0003:000370a0       $SG60872                   00000001400db0a0     libsrtp-x86_64-x64-vc14-debug-dynamic:srtp.obj
 0003:000370c0       $SG60952                   00000001400db0c0     libsrtp-x86_64-x64-vc14-debug-dynamic:srtp.obj
 0003:000370e0       $SG60960                   00000001400db0e0     libsrtp-x86_64-x64-vc14-debug-dynamic:srtp.obj
 0003:00037110       $SG60966                   00000001400db110     libsrtp-x86_64-x64-vc14-debug-dynamic:srtp.obj
 0003:00037138       $SG60987                   00000001400db138     libsrtp-x86_64-x64-vc14-debug-dynamic:srtp.obj
 0003:00037158       $SG60991                   00000001400db158     libsrtp-x86_64-x64-vc14-debug-dynamic:srtp.obj
 0003:00037178       $SG60993                   00000001400db178     libsrtp-x86_64-x64-vc14-debug-dynamic:srtp.obj
 0003:00037198       $SG61240                   00000001400db198     libsrtp-x86_64-x64-vc14-debug-dynamic:srtp.obj
 0003:000371b8       $SG61242                   00000001400db1b8     libsrtp-x86_64-x64-vc14-debug-dynamic:srtp.obj
 0003:000371d0       $SG61292                   00000001400db1d0     libsrtp-x86_64-x64-vc14-debug-dynamic:srtp.obj
 0003:000371e8       $SG61358                   00000001400db1e8     libsrtp-x86_64-x64-vc14-debug-dynamic:srtp.obj
 0003:00037200       $SG61448                   00000001400db200     libsrtp-x86_64-x64-vc14-debug-dynamic:srtp.obj
 0003:00037218       $SG61455                   00000001400db218     libsrtp-x86_64-x64-vc14-debug-dynamic:srtp.obj
 0003:00037238       $SG61460                   00000001400db238     libsrtp-x86_64-x64-vc14-debug-dynamic:srtp.obj
 0003:00037258       $SG61534                   00000001400db258     libsrtp-x86_64-x64-vc14-debug-dynamic:srtp.obj
 0003:00037290       $SG61546                   00000001400db290     libsrtp-x86_64-x64-vc14-debug-dynamic:srtp.obj
 0003:000372a8       $SG61553                   00000001400db2a8     libsrtp-x86_64-x64-vc14-debug-dynamic:srtp.obj
 0003:000372d0       $SG61556                   00000001400db2d0     libsrtp-x86_64-x64-vc14-debug-dynamic:srtp.obj
 0003:000372f8       $SG61560                   00000001400db2f8     libsrtp-x86_64-x64-vc14-debug-dynamic:srtp.obj
 0003:000374a0       $SG59750                   00000001400db4a0     libsrtp-x86_64-x64-vc14-debug-dynamic:alloc.obj
 0003:000374a8       $SG59758                   00000001400db4a8     libsrtp-x86_64-x64-vc14-debug-dynamic:alloc.obj
 0003:000374c8       $SG59760                   00000001400db4c8     libsrtp-x86_64-x64-vc14-debug-dynamic:alloc.obj
 0003:000374f8       $SG59765                   00000001400db4f8     libsrtp-x86_64-x64-vc14-debug-dynamic:alloc.obj
 0003:00037a00       $SG11357                   00000001400dba00     libsrtp-x86_64-x64-vc14-debug-dynamic:srtp_err.obj
 0003:00037a20       $SG59478                   00000001400dba20     libsrtp-x86_64-x64-vc14-debug-dynamic:cipher.obj
 0003:00037a28       $SG59625                   00000001400dba28     libsrtp-x86_64-x64-vc14-debug-dynamic:cipher.obj
 0003:00037a50       $SG59629                   00000001400dba50     libsrtp-x86_64-x64-vc14-debug-dynamic:cipher.obj
 0003:00037a68       $SG59633                   00000001400dba68     libsrtp-x86_64-x64-vc14-debug-dynamic:cipher.obj
 0003:00037a80       $SG59638                   00000001400dba80     libsrtp-x86_64-x64-vc14-debug-dynamic:cipher.obj
 0003:00037a90       $SG59641                   00000001400dba90     libsrtp-x86_64-x64-vc14-debug-dynamic:cipher.obj
 0003:00037aa0       $SG59647                   00000001400dbaa0     libsrtp-x86_64-x64-vc14-debug-dynamic:cipher.obj
 0003:00037ab8       $SG59651                   00000001400dbab8     libsrtp-x86_64-x64-vc14-debug-dynamic:cipher.obj
 0003:00037ad8       $SG59653                   00000001400dbad8     libsrtp-x86_64-x64-vc14-debug-dynamic:cipher.obj
 0003:00037af8       $SG59656                   00000001400dbaf8     libsrtp-x86_64-x64-vc14-debug-dynamic:cipher.obj
 0003:00037b10       $SG59658                   00000001400dbb10     libsrtp-x86_64-x64-vc14-debug-dynamic:cipher.obj
 0003:00037b28       $SG59660                   00000001400dbb28     libsrtp-x86_64-x64-vc14-debug-dynamic:cipher.obj
 0003:00037b40       $SG59664                   00000001400dbb40     libsrtp-x86_64-x64-vc14-debug-dynamic:cipher.obj
 0003:00037b58       $SG59670                   00000001400dbb58     libsrtp-x86_64-x64-vc14-debug-dynamic:cipher.obj
 0003:00037b68       $SG59673                   00000001400dbb68     libsrtp-x86_64-x64-vc14-debug-dynamic:cipher.obj
 0003:00037b80       $SG59677                   00000001400dbb80     libsrtp-x86_64-x64-vc14-debug-dynamic:cipher.obj
 0003:00037ba0       $SG59679                   00000001400dbba0     libsrtp-x86_64-x64-vc14-debug-dynamic:cipher.obj
 0003:00037bc0       $SG59682                   00000001400dbbc0     libsrtp-x86_64-x64-vc14-debug-dynamic:cipher.obj
 0003:00037bd8       $SG59684                   00000001400dbbd8     libsrtp-x86_64-x64-vc14-debug-dynamic:cipher.obj
 0003:00037bf0       $SG59688                   00000001400dbbf0     libsrtp-x86_64-x64-vc14-debug-dynamic:cipher.obj
 0003:00037c18       $SG59691                   00000001400dbc18     libsrtp-x86_64-x64-vc14-debug-dynamic:cipher.obj
 0003:00037c30       $SG59701                   00000001400dbc30     libsrtp-x86_64-x64-vc14-debug-dynamic:cipher.obj
 0003:00037c40       $SG59707                   00000001400dbc40     libsrtp-x86_64-x64-vc14-debug-dynamic:cipher.obj
 0003:00037c58       $SG59714                   00000001400dbc58     libsrtp-x86_64-x64-vc14-debug-dynamic:cipher.obj
 0003:00037c68       $SG59717                   00000001400dbc68     libsrtp-x86_64-x64-vc14-debug-dynamic:cipher.obj
 0003:00037c80       $SG59721                   00000001400dbc80     libsrtp-x86_64-x64-vc14-debug-dynamic:cipher.obj
 0003:00037ca0       $SG59723                   00000001400dbca0     libsrtp-x86_64-x64-vc14-debug-dynamic:cipher.obj
 0003:00037d58       $SG59403                   00000001400dbd58     libsrtp-x86_64-x64-vc14-debug-dynamic:auth.obj
 0003:00037d68       $SG59433                   00000001400dbd68     libsrtp-x86_64-x64-vc14-debug-dynamic:auth.obj
 0003:00037d98       $SG59440                   00000001400dbd98     libsrtp-x86_64-x64-vc14-debug-dynamic:auth.obj
 0003:00037da8       $SG59442                   00000001400dbda8     libsrtp-x86_64-x64-vc14-debug-dynamic:auth.obj
 0003:00037db8       $SG59444                   00000001400dbdb8     libsrtp-x86_64-x64-vc14-debug-dynamic:auth.obj
 0003:00037dd0       $SG59446                   00000001400dbdd0     libsrtp-x86_64-x64-vc14-debug-dynamic:auth.obj
 0003:00037de8       $SG59449                   00000001400dbde8     libsrtp-x86_64-x64-vc14-debug-dynamic:auth.obj
 0003:00037e08       $SG59451                   00000001400dbe08     libsrtp-x86_64-x64-vc14-debug-dynamic:auth.obj
 0003:00037e68       $SG59750                   00000001400dbe68     libsrtp-x86_64-x64-vc14-debug-dynamic:crypto_kernel.obj
 0003:00037e78       $SG59793                   00000001400dbe78     libsrtp-x86_64-x64-vc14-debug-dynamic:crypto_kernel.obj
 0003:00037e88       $SG59794                   00000001400dbe88     libsrtp-x86_64-x64-vc14-debug-dynamic:crypto_kernel.obj
 0003:00037e98       $SG59796                   00000001400dbe98     libsrtp-x86_64-x64-vc14-debug-dynamic:crypto_kernel.obj
 0003:00037eb8       $SG59797                   00000001400dbeb8     libsrtp-x86_64-x64-vc14-debug-dynamic:crypto_kernel.obj
 0003:00037ec0       $SG59798                   00000001400dbec0     libsrtp-x86_64-x64-vc14-debug-dynamic:crypto_kernel.obj
 0003:00037ed0       $SG59799                   00000001400dbed0     libsrtp-x86_64-x64-vc14-debug-dynamic:crypto_kernel.obj
 0003:00037ee0       $SG59801                   00000001400dbee0     libsrtp-x86_64-x64-vc14-debug-dynamic:crypto_kernel.obj
 0003:00037f00       $SG59802                   00000001400dbf00     libsrtp-x86_64-x64-vc14-debug-dynamic:crypto_kernel.obj
 0003:00037f08       $SG59808                   00000001400dbf08     libsrtp-x86_64-x64-vc14-debug-dynamic:crypto_kernel.obj
 0003:00037f20       $SG59809                   00000001400dbf20     libsrtp-x86_64-x64-vc14-debug-dynamic:crypto_kernel.obj
 0003:00037f28       $SG59812                   00000001400dbf28     libsrtp-x86_64-x64-vc14-debug-dynamic:crypto_kernel.obj
 0003:00037f30       $SG59813                   00000001400dbf30     libsrtp-x86_64-x64-vc14-debug-dynamic:crypto_kernel.obj
 0003:00037f38       $SG59828                   00000001400dbf38     libsrtp-x86_64-x64-vc14-debug-dynamic:crypto_kernel.obj
 0003:00037f60       $SG59830                   00000001400dbf60     libsrtp-x86_64-x64-vc14-debug-dynamic:crypto_kernel.obj
 0003:00037f90       $SG59832                   00000001400dbf90     libsrtp-x86_64-x64-vc14-debug-dynamic:crypto_kernel.obj
 0003:00038000       $SG60087                   00000001400dc000     libsrtp-x86_64-x64-vc14-debug-dynamic:ekt.obj
 0003:00038018       $SG60089                   00000001400dc018     libsrtp-x86_64-x64-vc14-debug-dynamic:ekt.obj
 0003:00038038       $SG60091                   00000001400dc038     libsrtp-x86_64-x64-vc14-debug-dynamic:ekt.obj
 0003:00038058       $SG60093                   00000001400dc058     libsrtp-x86_64-x64-vc14-debug-dynamic:ekt.obj
 0003:00038078       $SG60095                   00000001400dc078     libsrtp-x86_64-x64-vc14-debug-dynamic:ekt.obj
 0003:000380c0       $SG59308                   00000001400dc0c0     libsrtp-x86_64-x64-vc14-debug-dynamic:stat.obj
 0003:000380d0       $SG59318                   00000001400dc0d0     libsrtp-x86_64-x64-vc14-debug-dynamic:stat.obj
 0003:000380e8       $SG59335                   00000001400dc0e8     libsrtp-x86_64-x64-vc14-debug-dynamic:stat.obj
 0003:00038100       $SG59370                   00000001400dc100     libsrtp-x86_64-x64-vc14-debug-dynamic:stat.obj
 0003:00038118       $SG59375                   00000001400dc118     libsrtp-x86_64-x64-vc14-debug-dynamic:stat.obj
 0003:00038130       $SG59381                   00000001400dc130     libsrtp-x86_64-x64-vc14-debug-dynamic:stat.obj
 0003:00038148       $SG59387                   00000001400dc148     libsrtp-x86_64-x64-vc14-debug-dynamic:stat.obj
 0003:00038160       $SG59390                   00000001400dc160     libsrtp-x86_64-x64-vc14-debug-dynamic:stat.obj
 0003:00038170       $SG59392                   00000001400dc170     libsrtp-x86_64-x64-vc14-debug-dynamic:stat.obj
 0003:00038188       $SG59394                   00000001400dc188     libsrtp-x86_64-x64-vc14-debug-dynamic:stat.obj
 0003:000381c8       $SG59498                   00000001400dc1c8     libsrtp-x86_64-x64-vc14-debug-dynamic:null_cipher.obj
 0003:000381f8       $SG59514                   00000001400dc1f8     libsrtp-x86_64-x64-vc14-debug-dynamic:null_cipher.obj
 0003:00038238       $SG59519                   00000001400dc238     libsrtp-x86_64-x64-vc14-debug-dynamic:aes_icm.obj
 0003:00038240       $SG59542                   00000001400dc240     libsrtp-x86_64-x64-vc14-debug-dynamic:aes_icm.obj
 0003:00038270       $SG59574                   00000001400dc270     libsrtp-x86_64-x64-vc14-debug-dynamic:aes_icm.obj
 0003:00038280       $SG59576                   00000001400dc280     libsrtp-x86_64-x64-vc14-debug-dynamic:aes_icm.obj
 0003:00038290       $SG59590                   00000001400dc290     libsrtp-x86_64-x64-vc14-debug-dynamic:aes_icm.obj
 0003:000382a8       $SG59592                   00000001400dc2a8     libsrtp-x86_64-x64-vc14-debug-dynamic:aes_icm.obj
 0003:000382c0       $SG59599                   00000001400dc2c0     libsrtp-x86_64-x64-vc14-debug-dynamic:aes_icm.obj
 0003:000382d8       $SG59601                   00000001400dc2d8     libsrtp-x86_64-x64-vc14-debug-dynamic:aes_icm.obj
 0003:000382f0       $SG59640                   00000001400dc2f0     libsrtp-x86_64-x64-vc14-debug-dynamic:aes_icm.obj
 0003:00038338       $SG59425                   00000001400dc338     libsrtp-x86_64-x64-vc14-debug-dynamic:null_auth.obj
 0003:00038368       $SG59427                   00000001400dc368     libsrtp-x86_64-x64-vc14-debug-dynamic:null_auth.obj
 0003:000383b8       $SG59438                   00000001400dc3b8     libsrtp-x86_64-x64-vc14-debug-dynamic:hmac.obj
 0003:000383c8       $SG59456                   00000001400dc3c8     libsrtp-x86_64-x64-vc14-debug-dynamic:hmac.obj
 0003:000383f8       $SG59458                   00000001400dc3f8     libsrtp-x86_64-x64-vc14-debug-dynamic:hmac.obj
 0003:00038428       $SG59490                   00000001400dc428     libsrtp-x86_64-x64-vc14-debug-dynamic:hmac.obj
 0003:00038438       $SG59509                   00000001400dc438     libsrtp-x86_64-x64-vc14-debug-dynamic:hmac.obj
 0003:00038448       $SG59537                   00000001400dc448     libsrtp-x86_64-x64-vc14-debug-dynamic:hmac.obj
 0003:00038468       $SG59539                   00000001400dc468     libsrtp-x86_64-x64-vc14-debug-dynamic:hmac.obj
 0003:000384b8       $SG59324                   00000001400dc4b8     libsrtp-x86_64-x64-vc14-debug-dynamic:sha1.obj
 0003:000384d0       $SG59404                   00000001400dc4d0     libsrtp-x86_64-x64-vc14-debug-dynamic:sha1.obj
 0003:000384f8       $SG59406                   00000001400dc4f8     libsrtp-x86_64-x64-vc14-debug-dynamic:sha1.obj
 0003:00038528       $SG59473                   00000001400dc528     libsrtp-x86_64-x64-vc14-debug-dynamic:sha1.obj
 0003:00038550       $SG59476                   00000001400dc550     libsrtp-x86_64-x64-vc14-debug-dynamic:sha1.obj
 0003:00038780       $SG26721                   00000001400dc780     confsample.obj
 0003:00038781       $SG26837                   00000001400dc781     confsample.obj
 0003:00038782       $SG26838                   00000001400dc782     confsample.obj
 0003:00038783       $SG26847                   00000001400dc783     confsample.obj
 0003:00038784       $SG26851                   00000001400dc784     confsample.obj
 0003:00038785       $SG26853                   00000001400dc785     confsample.obj
 0003:00038786       $SG26869                   00000001400dc786     confsample.obj
 0003:00038787       $SG26885                   00000001400dc787     confsample.obj
 0003:00038788       $SG26901                   00000001400dc788     confsample.obj
 0003:00038789       $SG26917                   00000001400dc789     confsample.obj
 0003:0003878a       $SG26975                   00000001400dc78a     confsample.obj
 0003:0003878b       $SG27008                   00000001400dc78b     confsample.obj
 0003:0003878c       $SG27015                   00000001400dc78c     confsample.obj
 0003:00038790       $SG67816                   00000001400dc790     pjmedia-audiodev-x86_64-x64-vc14-debug-dynamic:wmme_dev.obj
 0003:00038798       ?name@?1??get_fmt_name@@9@9 00000001400dc798     pjmedia-audiodev-x86_64-x64-vc14-debug-dynamic:wmme_dev.obj
 0003:000387a0       ?rec_cnt@?1??wmme_dev_thread@@9@9 00000001400dc7a0     pjmedia-audiodev-x86_64-x64-vc14-debug-dynamic:wmme_dev.obj
 0003:000387a4       ?play_cnt@?1??wmme_dev_thread@@9@9 00000001400dc7a4     pjmedia-audiodev-x86_64-x64-vc14-debug-dynamic:wmme_dev.obj
 0003:000387ac       $SG20878                   00000001400dc7ac     pjmedia-x86_64-x64-vc14-debug-dynamic:endpoint.obj
 0003:000387ad       $SG21048                   00000001400dc7ad     pjmedia-x86_64-x64-vc14-debug-dynamic:endpoint.obj
 0003:000387ae       $SG21050                   00000001400dc7ae     pjmedia-x86_64-x64-vc14-debug-dynamic:endpoint.obj
 0003:000387af       $SG21052                   00000001400dc7af     pjmedia-x86_64-x64-vc14-debug-dynamic:endpoint.obj
 0003:000387b0       $SG21054                   00000001400dc7b0     pjmedia-x86_64-x64-vc14-debug-dynamic:endpoint.obj
 0003:000387b1       $SG21056                   00000001400dc7b1     pjmedia-x86_64-x64-vc14-debug-dynamic:endpoint.obj
 0003:000387c0       aud_subsys                 00000001400dc7c0     pjmedia-x86_64-x64-vc14-debug-dynamic:audiodev.obj
 0003:00038e80       event_manager_instance     00000001400dce80     pjmedia-x86_64-x64-vc14-debug-dynamic:event.obj
 0003:00038e90       ?ev_queue@?9??pjmedia_event_publish@@9@9 00000001400dce90     pjmedia-x86_64-x64-vc14-debug-dynamic:event.obj
 0003:000397a6       $SG16887                   00000001400dd7a6     pjmedia-x86_64-x64-vc14-debug-dynamic:delaybuf.obj
 0003:000397b0       is_initialized             00000001400dd7b0     pjmedia-x86_64-x64-vc14-debug-dynamic:sdp.obj
 0003:000397b4       $SG17124                   00000001400dd7b4     pjmedia-x86_64-x64-vc14-debug-dynamic:sdp.obj
 0003:000397c0       cis_buf                    00000001400dd7c0     pjmedia-x86_64-x64-vc14-debug-dynamic:sdp.obj
 0003:00039bc8       cs_digit                   00000001400ddbc8     pjmedia-x86_64-x64-vc14-debug-dynamic:sdp.obj
 0003:00039bd8       cs_token                   00000001400ddbd8     pjmedia-x86_64-x64-vc14-debug-dynamic:sdp.obj
 0003:00039cc0       ?msg@?3??get_libsrtp_errstr@@9@9 00000001400ddcc0     pjmedia-x86_64-x64-vc14-debug-dynamic:transport_srtp.obj
 0003:00039ce0       libsrtp_initialized        00000001400ddce0     pjmedia-x86_64-x64-vc14-debug-dynamic:transport_srtp.obj
 0003:00039ce4       $SG23046                   00000001400ddce4     pjmedia-x86_64-x64-vc14-debug-dynamic:transport_srtp.obj
 0003:00039ce5       $SG23048                   00000001400ddce5     pjmedia-x86_64-x64-vc14-debug-dynamic:transport_srtp.obj
 0003:00039ce6       $SG23058                   00000001400ddce6     pjmedia-x86_64-x64-vc14-debug-dynamic:transport_srtp.obj
 0003:00039ce7       $SG23060                   00000001400ddce7     pjmedia-x86_64-x64-vc14-debug-dynamic:transport_srtp.obj
 0003:00039cf8       __getopt_initialized       00000001400ddcf8     pjlib-util-x86_64-x64-vc14-debug-dynamic:getopt.obj
 0003:00039cfc       ordering                   00000001400ddcfc     pjlib-util-x86_64-x64-vc14-debug-dynamic:getopt.obj
 0003:00039d00       nextchar                   00000001400ddd00     pjlib-util-x86_64-x64-vc14-debug-dynamic:getopt.obj
 0003:00039d08       posixly_correct            00000001400ddd08     pjlib-util-x86_64-x64-vc14-debug-dynamic:getopt.obj
 0003:00039d10       first_nonopt               00000001400ddd10     pjlib-util-x86_64-x64-vc14-debug-dynamic:getopt.obj
 0003:00039d14       last_nonopt                00000001400ddd14     pjlib-util-x86_64-x64-vc14-debug-dynamic:getopt.obj
 0003:00039d18       $SG13933                   00000001400ddd18     pjlib-util-x86_64-x64-vc14-debug-dynamic:getopt.obj
 0003:00039d30       initialized                00000001400ddd30     pjlib-x86_64-x64-vc14-debug-dynamic:os_core_win32.obj
 0003:00039d34       atexit_count               00000001400ddd34     pjlib-x86_64-x64-vc14-debug-dynamic:os_core_win32.obj
 0003:00039d38       $SG59961                   00000001400ddd38     pjlib-x86_64-x64-vc14-debug-dynamic:os_core_win32.obj
 0003:00039d40       main_thread                00000001400ddd40     pjlib-x86_64-x64-vc14-debug-dynamic:os_core_win32.obj
 0003:00039e40       critical_section_mutex     00000001400dde40     pjlib-x86_64-x64-vc14-debug-dynamic:os_core_win32.obj
 0003:00039ea0       atexit_func                00000001400ddea0     pjlib-x86_64-x64-vc14-debug-dynamic:os_core_win32.obj
 0003:0003a020       err_msg_hnd_cnt            00000001400de020     pjlib-x86_64-x64-vc14-debug-dynamic:errno.obj
 0003:0003a030       err_msg_hnd                00000001400de030     pjlib-x86_64-x64-vc14-debug-dynamic:errno.obj
 0003:0003a0f8       g_last_thread              00000001400de0f8     pjlib-x86_64-x64-vc14-debug-dynamic:log.obj
 0003:0003a101       $SG60326                   00000001400de101     pjlib-x86_64-x64-vc14-debug-dynamic:sock_common.obj
 0003:0003a102       $SG60330                   00000001400de102     pjlib-x86_64-x64-vc14-debug-dynamic:sock_common.obj
 0003:0003a103       $SG60331                   00000001400de103     pjlib-x86_64-x64-vc14-debug-dynamic:sock_common.obj
 0003:0003a104       $SG60980                   00000001400de104     pjlib-x86_64-x64-vc14-debug-dynamic:sock_common.obj
 0003:0003a105       $SG60981                   00000001400de105     pjlib-x86_64-x64-vc14-debug-dynamic:sock_common.obj
 0003:0003a108       base_time                  00000001400de108     pjlib-x86_64-x64-vc14-debug-dynamic:os_time_win32.obj
 0003:0003a120       ?buf@?1??pj_gethostname@@9@9 00000001400de120     pjlib-x86_64-x64-vc14-debug-dynamic:sock_bsd.obj
 0003:0003a1a0       ?hostname@?1??pj_gethostname@@9@9 00000001400de1a0     pjlib-x86_64-x64-vc14-debug-dynamic:sock_bsd.obj
 0003:0003a1d0       exception_id_names         00000001400de1d0     pjlib-x86_64-x64-vc14-debug-dynamic:except.obj
 0003:0003a250       ?unknown_name@?1??pj_exception_id_name@@9@9 00000001400de250     pjlib-x86_64-x64-vc14-debug-dynamic:except.obj
 0003:0003a290       stack_based_factory        00000001400de290     pjlib-x86_64-x64-vc14-debug-dynamic:pool_buf.obj
 0003:0003a2d8       is_initialized             00000001400de2d8     pjlib-x86_64-x64-vc14-debug-dynamic:pool_buf.obj
 0003:0003a2f0       s_hDLL                     00000001400de2f0     pjlib-x86_64-x64-vc14-debug-dynamic:ip_helper_win32.obj
 0003:0003a2f8       s_pfnGetIpAddrTable        00000001400de2f8     pjlib-x86_64-x64-vc14-debug-dynamic:ip_helper_win32.obj
 0003:0003a300       s_pfnGetAdapterAddresses   00000001400de300     pjlib-x86_64-x64-vc14-debug-dynamic:ip_helper_win32.obj
 0003:0003a308       s_pfnGetIpForwardTable     00000001400de308     pjlib-x86_64-x64-vc14-debug-dynamic:ip_helper_win32.obj
 0003:0003a310       s_pfnGetIfEntry            00000001400de310     pjlib-x86_64-x64-vc14-debug-dynamic:ip_helper_win32.obj
 0003:0003a320       srtp_log_handler           00000001400de320     libsrtp-x86_64-x64-vc14-debug-dynamic:srtp.obj
 0003:0003a328       srtp_log_handler_data      00000001400de328     libsrtp-x86_64-x64-vc14-debug-dynamic:srtp.obj
 0003:0003a360       srtp_aes_icm_128_test_case_0_nonce 00000001400de360     libsrtp-x86_64-x64-vc14-debug-dynamic:aes_icm.obj
 0003:0003a370       srtp_aes_icm_256_test_case_0_nonce 00000001400de370     libsrtp-x86_64-x64-vc14-debug-dynamic:aes_icm.obj
 0003:0003a390       GS_ExceptionRecord         00000001400de390     MSVCRTD:gs_report.obj
 0003:0003a430       GS_ContextRecord           00000001400de430     MSVCRTD:gs_report.obj
 0003:0003aa28       ?is_initialized_as_dll@@3_NA 00000001400dea28     MSVCRTD:utility.obj
 0003:0003aa29       ?module_local_atexit_table_initialized@@3_NA 00000001400dea29     MSVCRTD:utility.obj
 0003:0003aa30       ?module_local_atexit_table@@3U_onexit_table_t@@A 00000001400dea30     MSVCRTD:utility.obj
 0003:0003aa48       ?module_local_at_quick_exit_table@@3U_onexit_table_t@@A 00000001400dea48     MSVCRTD:utility.obj
 0005:00001330       .idata$6                   00000001400e4330     ole32:ole32.dll
 0005:00001380       .idata$6                   00000001400e4380     ws2_32:WS2_32.dll
 0005:0000154c       .idata$6                   00000001400e454c     winmm:WINMM.dll
 0005:00001a1c       .idata$6                   00000001400e4a1c     kernel32:KERNEL32.dll
 0005:00001af2       .idata$6                   00000001400e4af2     vcruntimed:VCRUNTIME140D.dll
 0005:00001e74       .idata$6                   00000001400e4e74     ucrtd:ucrtbased.dll
