 encdec

 Timestamp is 60aeb744 (Wed May 26 23:01:56 2021)

 Preferred load address is 0000000140000000

 Start         Length     Name                   Class
 0001:00000000 000fe700H .text$mn                CODE
 0001:000fe700 00001040H .text$mn$00             CODE
 0001:000ff740 0000108dH .text$x                 CODE
 0002:00000000 00000110H .CRT$XCA                DATA
 0002:00000110 00000110H .CRT$XCAA               DATA
 0002:00000220 00000110H .CRT$XCZ                DATA
 0002:00000330 00000110H .CRT$XIA                DATA
 0002:00000440 00000110H .CRT$XIAA               DATA
 0002:00000550 00000110H .CRT$XIAC               DATA
 0002:00000660 00000110H .CRT$XIZ                DATA
 0002:00000770 00000110H .CRT$XPA                DATA
 0002:00000880 00000110H .CRT$XPZ                DATA
 0002:00000990 00000110H .CRT$XTA                DATA
 0002:00000aa0 00000110H .CRT$XTZ                DATA
 0002:00000bb0 0001ed50H .rdata                  DATA
 0002:0001f900 00000110H .rdata$CastGuardVftablesA DATA
 0002:0001fa10 0000010cH .rdata$CastGuardVftablesC DATA
 0002:0001fb1c 000001fcH .rdata$zzzdbg           DATA
 0002:0001fd18 00000110H .rtc$IAA                DATA
 0002:0001fe28 00000110H .rtc$IZZ                DATA
 0002:0001ff38 00000110H .rtc$TAA                DATA
 0002:00020048 00000110H .rtc$TZZ                DATA
 0002:00020158 00007ccbH .xdata                  DATA
 0002:00027e23 00000000H .edata                  DATA
 0003:00000000 0003ff00H .data                   DATA
 0003:0003ff00 00002bd9H .bss                    DATA
 0004:00000000 00006930H .pdata                  DATA
 0005:00000000 00000940H .idata$5                DATA
 0005:00000940 00000078H .idata$2                DATA
 0005:000009b8 00000018H .idata$3                DATA
 0005:000009d0 00000940H .idata$4                DATA
 0005:00001310 00000d7aH .idata$6                DATA
 0006:00000000 00000151H .00cfg                  DATA
 0007:00000000 00000953H _RDATA                  DATA

  Address         Publics by Value              Rva+Base               Lib:Object

 0000:00000000       __guard_iat_table          0000000000000000     <absolute>
 0000:00000000       __guard_fids_table         0000000000000000     <absolute>
 0000:00000000       __volatile_metadata        0000000000000000     <absolute>
 0000:00000000       __guard_check_icall_a64n_fptr 0000000000000000     <absolute>
 0000:00000000       __AbsoluteZero             0000000000000000     <absolute>
 0000:00000000       __arm64x_extra_rfe_table   0000000000000000     <absolute>
 0000:00000000       __hybrid_auxiliary_iat_copy 0000000000000000     <absolute>
 0000:00000000       __hybrid_auxiliary_iat     0000000000000000     <absolute>
 0000:00000000       __dynamic_value_reloc_table 0000000000000000     <absolute>
 0000:00000000       __guard_longjmp_count      0000000000000000     <absolute>
 0000:00000000       __guard_iat_count          0000000000000000     <absolute>
 0000:00000000       __guard_fids_count         0000000000000000     <absolute>
 0000:00000000       __arm64x_redirection_metadata_count 0000000000000000     <absolute>
 0000:00000000       __enclave_config           0000000000000000     <absolute>
 0000:00000000       __guard_eh_cont_count      0000000000000000     <absolute>
 0000:00000000       __arm64x_extra_rfe_table_size 0000000000000000     <absolute>
 0000:00000000       __hybrid_code_map_count    0000000000000000     <absolute>
 0000:00000000       __hybrid_code_map          0000000000000000     <absolute>
 0000:00000000       ___safe_se_handler_table   0000000000000000     <absolute>
 0000:00000000       __arm64x_redirection_metadata 0000000000000000     <absolute>
 0000:00000000       __guard_eh_cont_table      0000000000000000     <absolute>
 0000:00000000       __guard_longjmp_table      0000000000000000     <absolute>
 0000:00000000       __x64_code_ranges_to_entry_points 0000000000000000     <absolute>
 0000:00000000       __arm64x_native_entrypoint 0000000000000000     <absolute>
 0000:00000000       ___safe_se_handler_count   0000000000000000     <absolute>
 0000:00000000       __x64_code_ranges_to_entry_points_count 0000000000000000     <absolute>
 0000:00000100       __guard_flags              0000000000000100     <absolute>
 0000:00000000       __ImageBase                0000000140000000     <linker-defined>
 0001:00003b60       main                       0000000140004b60 f   encdec.obj
 0001:000040c0       __local_stdio_printf_options 00000001400050c0 f i encdec.obj
 0001:000040d0       _vfprintf_l                00000001400050d0 f i encdec.obj
 0001:00004130       printf                     0000000140005130 f i encdec.obj
 0001:000041d0       pjmedia_audio_codec_config_default 00000001400051d0 f   pjmedia-codec-x86_64-x64-vc14-debug-dynamic:audio_codecs.obj
 0001:00004240       pjmedia_codec_register_audio_codecs 0000000140005240 f   pjmedia-codec-x86_64-x64-vc14-debug-dynamic:audio_codecs.obj
 0001:00004650       pjmedia_codec_g722_init    0000000140005650 f   pjmedia-codec-x86_64-x64-vc14-debug-dynamic:g722.obj
 0001:00004770       pjmedia_codec_g722_deinit  0000000140005770 f   pjmedia-codec-x86_64-x64-vc14-debug-dynamic:g722.obj
 0001:00004800       pjmedia_codec_g722_set_pcm_shift 0000000140005800 f   pjmedia-codec-x86_64-x64-vc14-debug-dynamic:g722.obj
 0001:00005f50       pjmedia_codec_gsm_init     0000000140006f50 f   pjmedia-codec-x86_64-x64-vc14-debug-dynamic:gsm.obj
 0001:00006070       pjmedia_codec_gsm_deinit   0000000140007070 f   pjmedia-codec-x86_64-x64-vc14-debug-dynamic:gsm.obj
 0001:000074c0       pjmedia_codec_ilbc_init    00000001400084c0 f   pjmedia-codec-x86_64-x64-vc14-debug-dynamic:ilbc.obj
 0001:00007630       pjmedia_codec_ilbc_deinit  0000000140008630 f   pjmedia-codec-x86_64-x64-vc14-debug-dynamic:ilbc.obj
 0001:00009040       _snprintf                  000000014000a040 f i pjmedia-codec-x86_64-x64-vc14-debug-dynamic:ilbc.obj
 0001:000090b0       _vsnprintf                 000000014000a0b0 f i pjmedia-codec-x86_64-x64-vc14-debug-dynamic:ilbc.obj
 0001:00009100       _vsnprintf_l               000000014000a100 f i pjmedia-codec-x86_64-x64-vc14-debug-dynamic:ilbc.obj
 0001:00009240       pjmedia_codec_l16_init     000000014000a240 f   pjmedia-codec-x86_64-x64-vc14-debug-dynamic:l16.obj
 0001:00009380       pjmedia_codec_l16_deinit   000000014000a380 f   pjmedia-codec-x86_64-x64-vc14-debug-dynamic:l16.obj
 0001:0000abd0       pjmedia_codec_opus_init    000000014000bbd0 f   pjmedia-codec-x86_64-x64-vc14-debug-dynamic:opus.obj
 0001:0000ad60       pjmedia_codec_opus_deinit  000000014000bd60 f   pjmedia-codec-x86_64-x64-vc14-debug-dynamic:opus.obj
 0001:0000ae40       pjmedia_codec_opus_get_config 000000014000be40 f   pjmedia-codec-x86_64-x64-vc14-debug-dynamic:opus.obj
 0001:0000aeb0       pjmedia_codec_opus_set_default_param 000000014000beb0 f   pjmedia-codec-x86_64-x64-vc14-debug-dynamic:opus.obj
 0001:0000e280       pjmedia_codec_speex_init   000000014000f280 f   pjmedia-codec-x86_64-x64-vc14-debug-dynamic:speex_codec.obj
 0001:0000e700       pjmedia_codec_speex_init_default 000000014000f700 f   pjmedia-codec-x86_64-x64-vc14-debug-dynamic:speex_codec.obj
 0001:0000e730       pjmedia_codec_speex_set_param 000000014000f730 f   pjmedia-codec-x86_64-x64-vc14-debug-dynamic:speex_codec.obj
 0001:0000e8f0       pjmedia_codec_speex_deinit 000000014000f8f0 f   pjmedia-codec-x86_64-x64-vc14-debug-dynamic:speex_codec.obj
 0001:000106a0       g722_enc_init              00000001400116a0 f   pjmedia-codec-x86_64-x64-vc14-debug-dynamic:g722_enc.obj
 0001:00010720       g722_enc_encode            0000000140011720 f   pjmedia-codec-x86_64-x64-vc14-debug-dynamic:g722_enc.obj
 0001:00010a20       g722_enc_deinit            0000000140011a20 f   pjmedia-codec-x86_64-x64-vc14-debug-dynamic:g722_enc.obj
 0001:00012c90       g722_dec_init              0000000140013c90 f   pjmedia-codec-x86_64-x64-vc14-debug-dynamic:g722_dec.obj
 0001:00012d10       g722_dec_decode            0000000140013d10 f   pjmedia-codec-x86_64-x64-vc14-debug-dynamic:g722_dec.obj
 0001:00012fd0       g722_dec_deinit            0000000140013fd0 f   pjmedia-codec-x86_64-x64-vc14-debug-dynamic:g722_dec.obj
 0001:000151c0       pjmedia_aud_subsys_init    00000001400161c0 f   pjmedia-audiodev-x86_64-x64-vc14-debug-dynamic:audiodev.obj
 0001:00015310       pjmedia_aud_subsys_get_pool_factory 0000000140016310 f   pjmedia-audiodev-x86_64-x64-vc14-debug-dynamic:audiodev.obj
 0001:00015340       pjmedia_aud_subsys_shutdown 0000000140016340 f   pjmedia-audiodev-x86_64-x64-vc14-debug-dynamic:audiodev.obj
 0001:000153c0       pjmedia_aud_register_factory 00000001400163c0 f   pjmedia-audiodev-x86_64-x64-vc14-debug-dynamic:audiodev.obj
 0001:00015450       pjmedia_aud_unregister_factory 0000000140016450 f   pjmedia-audiodev-x86_64-x64-vc14-debug-dynamic:audiodev.obj
 0001:00015600       pjmedia_audiodev_strerror  0000000140016600 f   pjmedia-audiodev-x86_64-x64-vc14-debug-dynamic:errno.obj
 0001:00017310       pjmedia_wmme_factory       0000000140018310 f   pjmedia-audiodev-x86_64-x64-vc14-debug-dynamic:wmme_dev.obj
 0001:000198b0       pjmedia_port_info_init     000000014001a8b0 f   pjmedia-x86_64-x64-vc14-debug-dynamic:port.obj
 0001:00019a00       pjmedia_port_info_init2    000000014001aa00 f   pjmedia-x86_64-x64-vc14-debug-dynamic:port.obj
 0001:00019a80       pjmedia_port_get_clock_src 000000014001aa80 f   pjmedia-x86_64-x64-vc14-debug-dynamic:port.obj
 0001:00019ad0       pjmedia_port_get_frame     000000014001aad0 f   pjmedia-x86_64-x64-vc14-debug-dynamic:port.obj
 0001:00019b70       pjmedia_port_put_frame     000000014001ab70 f   pjmedia-x86_64-x64-vc14-debug-dynamic:port.obj
 0001:00019c00       pjmedia_port_destroy       000000014001ac00 f   pjmedia-x86_64-x64-vc14-debug-dynamic:port.obj
 0001:00019ea0       pjmedia_codec_param_clone  000000014001aea0 f   pjmedia-x86_64-x64-vc14-debug-dynamic:codec.obj
 0001:0001a060       pjmedia_codec_mgr_init     000000014001b060 f   pjmedia-x86_64-x64-vc14-debug-dynamic:codec.obj
 0001:0001a170       pjmedia_codec_mgr_destroy  000000014001b170 f   pjmedia-x86_64-x64-vc14-debug-dynamic:codec.obj
 0001:0001a2e0       pjmedia_codec_mgr_register_factory 000000014001b2e0 f   pjmedia-x86_64-x64-vc14-debug-dynamic:codec.obj
 0001:0001a5a0       pjmedia_codec_mgr_unregister_factory 000000014001b5a0 f   pjmedia-x86_64-x64-vc14-debug-dynamic:codec.obj
 0001:0001a750       pjmedia_codec_mgr_enum_codecs 000000014001b750 f   pjmedia-x86_64-x64-vc14-debug-dynamic:codec.obj
 0001:0001a8b0       pjmedia_codec_mgr_get_codec_info 000000014001b8b0 f   pjmedia-x86_64-x64-vc14-debug-dynamic:codec.obj
 0001:0001a9c0       pjmedia_codec_info_to_id   000000014001b9c0 f   pjmedia-x86_64-x64-vc14-debug-dynamic:codec.obj
 0001:0001aab0       pjmedia_codec_mgr_find_codecs_by_id 000000014001bab0 f   pjmedia-x86_64-x64-vc14-debug-dynamic:codec.obj
 0001:0001ac60       pjmedia_codec_mgr_set_codec_priority 000000014001bc60 f   pjmedia-x86_64-x64-vc14-debug-dynamic:codec.obj
 0001:0001ada0       pjmedia_codec_mgr_get_default_param 000000014001bda0 f   pjmedia-x86_64-x64-vc14-debug-dynamic:codec.obj
 0001:0001b050       pjmedia_codec_mgr_set_default_param 000000014001c050 f   pjmedia-x86_64-x64-vc14-debug-dynamic:codec.obj
 0001:0001b310       pjmedia_codec_mgr_alloc_codec 000000014001c310 f   pjmedia-x86_64-x64-vc14-debug-dynamic:codec.obj
 0001:0001b440       pjmedia_codec_mgr_dealloc_codec 000000014001c440 f   pjmedia-x86_64-x64-vc14-debug-dynamic:codec.obj
 0001:0001bdc0       pjmedia_endpt_create2      000000014001cdc0 f   pjmedia-x86_64-x64-vc14-debug-dynamic:endpoint.obj
 0001:0001c140       pjmedia_endpt_destroy2     000000014001d140 f   pjmedia-x86_64-x64-vc14-debug-dynamic:endpoint.obj
 0001:0001c210       pjmedia_endpt_set_flag     000000014001d210 f   pjmedia-x86_64-x64-vc14-debug-dynamic:endpoint.obj
 0001:0001c2a0       pjmedia_endpt_get_flag     000000014001d2a0 f   pjmedia-x86_64-x64-vc14-debug-dynamic:endpoint.obj
 0001:0001c330       pjmedia_endpt_get_ioqueue  000000014001d330 f   pjmedia-x86_64-x64-vc14-debug-dynamic:endpoint.obj
 0001:0001c390       pjmedia_endpt_get_thread_count 000000014001d390 f   pjmedia-x86_64-x64-vc14-debug-dynamic:endpoint.obj
 0001:0001c3f0       pjmedia_endpt_get_thread   000000014001d3f0 f   pjmedia-x86_64-x64-vc14-debug-dynamic:endpoint.obj
 0001:0001c4a0       pjmedia_endpt_stop_threads 000000014001d4a0 f   pjmedia-x86_64-x64-vc14-debug-dynamic:endpoint.obj
 0001:0001c580       pjmedia_endpt_create_pool  000000014001d580 f   pjmedia-x86_64-x64-vc14-debug-dynamic:endpoint.obj
 0001:0001c5f0       pjmedia_endpt_get_codec_mgr 000000014001d5f0 f   pjmedia-x86_64-x64-vc14-debug-dynamic:endpoint.obj
 0001:0001c610       pjmedia_endpt_create_sdp   000000014001d610 f   pjmedia-x86_64-x64-vc14-debug-dynamic:endpoint.obj
 0001:0001c7c0       pjmedia_endpt_create_base_sdp 000000014001d7c0 f   pjmedia-x86_64-x64-vc14-debug-dynamic:endpoint.obj
 0001:0001ca50       pjmedia_endpt_create_audio_sdp 000000014001da50 f   pjmedia-x86_64-x64-vc14-debug-dynamic:endpoint.obj
 0001:0001d660       pjmedia_endpt_dump         000000014001e660 f   pjmedia-x86_64-x64-vc14-debug-dynamic:endpoint.obj
 0001:0001da80       pjmedia_endpt_atexit       000000014001ea80 f   pjmedia-x86_64-x64-vc14-debug-dynamic:endpoint.obj
 0001:0001e7e0       _vsprintf_l                000000014001f7e0 f i pjmedia-x86_64-x64-vc14-debug-dynamic:endpoint.obj
 0001:0001e840       sprintf                    000000014001f840 f i pjmedia-x86_64-x64-vc14-debug-dynamic:endpoint.obj
 0001:0001e980       pjmedia_wav_player_port_create 000000014001f980 f   pjmedia-x86_64-x64-vc14-debug-dynamic:wav_player.obj
 0001:0001f170       pjmedia_wav_player_get_info 0000000140020170 f   pjmedia-x86_64-x64-vc14-debug-dynamic:wav_player.obj
 0001:0001f320       pjmedia_wav_player_get_len 0000000140020320 f   pjmedia-x86_64-x64-vc14-debug-dynamic:wav_player.obj
 0001:0001f3f0       pjmedia_wav_player_port_set_pos 00000001400203f0 f   pjmedia-x86_64-x64-vc14-debug-dynamic:wav_player.obj
 0001:0001f590       pjmedia_wav_player_port_get_pos 0000000140020590 f   pjmedia-x86_64-x64-vc14-debug-dynamic:wav_player.obj
 0001:0001f6e0       pjmedia_wav_player_set_eof_cb 00000001400206e0 f   pjmedia-x86_64-x64-vc14-debug-dynamic:wav_player.obj
 0001:0001f7d0       pjmedia_wav_player_set_eof_cb2 00000001400207d0 f   pjmedia-x86_64-x64-vc14-debug-dynamic:wav_player.obj
 0001:00020d40       pjmedia_wav_writer_port_create 0000000140021d40 f   pjmedia-x86_64-x64-vc14-debug-dynamic:wav_writer.obj
 0001:00021380       pjmedia_wav_writer_port_get_pos 0000000140022380 f   pjmedia-x86_64-x64-vc14-debug-dynamic:wav_writer.obj
 0001:00021430       pjmedia_wav_writer_port_set_cb 0000000140022430 f   pjmedia-x86_64-x64-vc14-debug-dynamic:wav_writer.obj
 0001:00021550       pjmedia_wav_writer_port_set_cb2 0000000140022550 f   pjmedia-x86_64-x64-vc14-debug-dynamic:wav_writer.obj
 0001:000223d0       pjmedia_codec_g711_init    00000001400233d0 f   pjmedia-x86_64-x64-vc14-debug-dynamic:g711.obj
 0001:00022510       pjmedia_codec_g711_deinit  0000000140023510 f   pjmedia-x86_64-x64-vc14-debug-dynamic:g711.obj
 0001:00023860       pjmedia_plc_create         0000000140024860 f   pjmedia-x86_64-x64-vc14-debug-dynamic:plc_common.obj
 0001:00023980       pjmedia_plc_save           0000000140024980 f   pjmedia-x86_64-x64-vc14-debug-dynamic:plc_common.obj
 0001:00023a00       pjmedia_plc_generate       0000000140024a00 f   pjmedia-x86_64-x64-vc14-debug-dynamic:plc_common.obj
 0001:00023cb0       pjmedia_silence_det_create 0000000140024cb0 f   pjmedia-x86_64-x64-vc14-debug-dynamic:silencedet.obj
 0001:00023dc0       pjmedia_silence_det_set_name 0000000140024dc0 f   pjmedia-x86_64-x64-vc14-debug-dynamic:silencedet.obj
 0001:00023e60       pjmedia_silence_det_set_fixed 0000000140024e60 f   pjmedia-x86_64-x64-vc14-debug-dynamic:silencedet.obj
 0001:00023ee0       pjmedia_silence_det_set_adaptive 0000000140024ee0 f   pjmedia-x86_64-x64-vc14-debug-dynamic:silencedet.obj
 0001:00023f60       pjmedia_silence_det_set_params 0000000140024f60 f   pjmedia-x86_64-x64-vc14-debug-dynamic:silencedet.obj
 0001:00024010       pjmedia_silence_det_disable 0000000140025010 f   pjmedia-x86_64-x64-vc14-debug-dynamic:silencedet.obj
 0001:00024070       pjmedia_silence_det_detect 0000000140025070 f   pjmedia-x86_64-x64-vc14-debug-dynamic:silencedet.obj
 0001:000240d0       pjmedia_calc_avg_signal    00000001400250d0 f   pjmedia-x86_64-x64-vc14-debug-dynamic:silencedet.obj
 0001:00024180       pjmedia_silence_det_apply  0000000140025180 f   pjmedia-x86_64-x64-vc14-debug-dynamic:silencedet.obj
 0001:000247e0       pjmedia_get_aud_subsys     00000001400257e0 f   pjmedia-x86_64-x64-vc14-debug-dynamic:audiodev.obj
 0001:000247f0       pjmedia_aud_driver_init    00000001400257f0 f   pjmedia-x86_64-x64-vc14-debug-dynamic:audiodev.obj
 0001:00024b50       pjmedia_aud_driver_deinit  0000000140025b50 f   pjmedia-x86_64-x64-vc14-debug-dynamic:audiodev.obj
 0001:00024bf0       pjmedia_aud_dev_cap_name   0000000140025bf0 f   pjmedia-x86_64-x64-vc14-debug-dynamic:audiodev.obj
 0001:00024cb0       pjmedia_aud_param_set_cap  0000000140025cb0 f   pjmedia-x86_64-x64-vc14-debug-dynamic:audiodev.obj
 0001:00024d30       pjmedia_aud_param_get_cap  0000000140025d30 f   pjmedia-x86_64-x64-vc14-debug-dynamic:audiodev.obj
 0001:00024dc0       pjmedia_aud_dev_refresh    0000000140025dc0 f   pjmedia-x86_64-x64-vc14-debug-dynamic:audiodev.obj
 0001:00024ea0       pjmedia_aud_dev_count      0000000140025ea0 f   pjmedia-x86_64-x64-vc14-debug-dynamic:audiodev.obj
 0001:00024eb0       pjmedia_aud_dev_get_info   0000000140025eb0 f   pjmedia-x86_64-x64-vc14-debug-dynamic:audiodev.obj
 0001:00024f90       pjmedia_aud_dev_lookup     0000000140025f90 f   pjmedia-x86_64-x64-vc14-debug-dynamic:audiodev.obj
 0001:000251c0       pjmedia_aud_dev_default_param 00000001400261c0 f   pjmedia-x86_64-x64-vc14-debug-dynamic:audiodev.obj
 0001:000252f0       pjmedia_aud_stream_create  00000001400262f0 f   pjmedia-x86_64-x64-vc14-debug-dynamic:audiodev.obj
 0001:00025640       pjmedia_aud_stream_get_param 0000000140026640 f   pjmedia-x86_64-x64-vc14-debug-dynamic:audiodev.obj
 0001:00025740       pjmedia_aud_stream_get_cap 0000000140026740 f   pjmedia-x86_64-x64-vc14-debug-dynamic:audiodev.obj
 0001:00025780       pjmedia_aud_stream_set_cap 0000000140026780 f   pjmedia-x86_64-x64-vc14-debug-dynamic:audiodev.obj
 0001:000257c0       pjmedia_aud_stream_start   00000001400267c0 f   pjmedia-x86_64-x64-vc14-debug-dynamic:audiodev.obj
 0001:000257f0       pjmedia_aud_stream_stop    00000001400267f0 f   pjmedia-x86_64-x64-vc14-debug-dynamic:audiodev.obj
 0001:00025820       pjmedia_aud_stream_destroy 0000000140026820 f   pjmedia-x86_64-x64-vc14-debug-dynamic:audiodev.obj
 0001:000263b0       pjmedia_event_mgr_create   00000001400273b0 f   pjmedia-x86_64-x64-vc14-debug-dynamic:event.obj
 0001:00026550       pjmedia_event_mgr_instance 0000000140027550 f   pjmedia-x86_64-x64-vc14-debug-dynamic:event.obj
 0001:00026560       pjmedia_event_mgr_set_instance 0000000140027560 f   pjmedia-x86_64-x64-vc14-debug-dynamic:event.obj
 0001:00026580       pjmedia_event_mgr_destroy  0000000140027580 f   pjmedia-x86_64-x64-vc14-debug-dynamic:event.obj
 0001:00026690       pjmedia_event_init         0000000140027690 f   pjmedia-x86_64-x64-vc14-debug-dynamic:event.obj
 0001:00026710       pjmedia_event_subscribe    0000000140027710 f   pjmedia-x86_64-x64-vc14-debug-dynamic:event.obj
 0001:000268f0       pjmedia_event_unsubscribe  00000001400278f0 f   pjmedia-x86_64-x64-vc14-debug-dynamic:event.obj
 0001:00026ad0       pjmedia_event_publish      0000000140027ad0 f   pjmedia-x86_64-x64-vc14-debug-dynamic:event.obj
 0001:00027400       pjmedia_format_copy        0000000140028400 f   pjmedia-x86_64-x64-vc14-debug-dynamic:format.obj
 0001:00027430       pjmedia_format_get_audio_format_detail 0000000140028430 f   pjmedia-x86_64-x64-vc14-debug-dynamic:format.obj
 0001:00027500       pjmedia_sdp_attr_create    0000000140028500 f   pjmedia-x86_64-x64-vc14-debug-dynamic:sdp.obj
 0001:000275e0       pjmedia_sdp_attr_clone     00000001400285e0 f   pjmedia-x86_64-x64-vc14-debug-dynamic:sdp.obj
 0001:000276a0       pjmedia_sdp_attr_find      00000001400286a0 f   pjmedia-x86_64-x64-vc14-debug-dynamic:sdp.obj
 0001:000277b0       pjmedia_sdp_attr_find2     00000001400287b0 f   pjmedia-x86_64-x64-vc14-debug-dynamic:sdp.obj
 0001:00027810       pjmedia_sdp_attr_add       0000000140028810 f   pjmedia-x86_64-x64-vc14-debug-dynamic:sdp.obj
 0001:000278f0       pjmedia_sdp_attr_remove_all 00000001400288f0 f   pjmedia-x86_64-x64-vc14-debug-dynamic:sdp.obj
 0001:00027a50       pjmedia_sdp_attr_remove    0000000140028a50 f   pjmedia-x86_64-x64-vc14-debug-dynamic:sdp.obj
 0001:00027ba0       pjmedia_sdp_attr_to_rtpmap 0000000140028ba0 f   pjmedia-x86_64-x64-vc14-debug-dynamic:sdp.obj
 0001:00027c80       pjmedia_sdp_attr_get_rtpmap 0000000140028c80 f   pjmedia-x86_64-x64-vc14-debug-dynamic:sdp.obj
 0001:00028000       pjmedia_sdp_rtpmap_to_attr 0000000140029000 f   pjmedia-x86_64-x64-vc14-debug-dynamic:sdp.obj
 0001:000282d0       pjmedia_sdp_attr_get_fmtp  00000001400292d0 f   pjmedia-x86_64-x64-vc14-debug-dynamic:sdp.obj
 0001:00028440       pjmedia_sdp_attr_get_rtcp  0000000140029440 f   pjmedia-x86_64-x64-vc14-debug-dynamic:sdp.obj
 0001:00028670       pjmedia_sdp_attr_create_rtcp 0000000140029670 f   pjmedia-x86_64-x64-vc14-debug-dynamic:sdp.obj
 0001:00028830       pjmedia_sdp_attr_get_ssrc  0000000140029830 f   pjmedia-x86_64-x64-vc14-debug-dynamic:sdp.obj
 0001:00028a50       pjmedia_sdp_attr_create_ssrc 0000000140029a50 f   pjmedia-x86_64-x64-vc14-debug-dynamic:sdp.obj
 0001:00028b40       pjmedia_sdp_conn_clone     0000000140029b40 f   pjmedia-x86_64-x64-vc14-debug-dynamic:sdp.obj
 0001:00028c00       pjmedia_sdp_bandw_clone    0000000140029c00 f   pjmedia-x86_64-x64-vc14-debug-dynamic:sdp.obj
 0001:00028c80       pjmedia_sdp_media_clone    0000000140029c80 f   pjmedia-x86_64-x64-vc14-debug-dynamic:sdp.obj
 0001:00028fc0       pjmedia_sdp_media_find_attr 0000000140029fc0 f   pjmedia-x86_64-x64-vc14-debug-dynamic:sdp.obj
 0001:00029050       pjmedia_sdp_media_find_attr2 000000014002a050 f   pjmedia-x86_64-x64-vc14-debug-dynamic:sdp.obj
 0001:000290e0       pjmedia_sdp_media_add_attr 000000014002a0e0 f   pjmedia-x86_64-x64-vc14-debug-dynamic:sdp.obj
 0001:00029120       pjmedia_sdp_media_remove_all_attr 000000014002a120 f   pjmedia-x86_64-x64-vc14-debug-dynamic:sdp.obj
 0001:00029160       pjmedia_sdp_media_remove_attr 000000014002a160 f   pjmedia-x86_64-x64-vc14-debug-dynamic:sdp.obj
 0001:000291a0       pjmedia_sdp_transport_cmp  000000014002a1a0 f   pjmedia-x86_64-x64-vc14-debug-dynamic:sdp.obj
 0001:00029220       pjmedia_sdp_transport_get_proto 000000014002a220 f   pjmedia-x86_64-x64-vc14-debug-dynamic:sdp.obj
 0001:000293e0       pjmedia_sdp_media_deactivate 000000014002a3e0 f   pjmedia-x86_64-x64-vc14-debug-dynamic:sdp.obj
 0001:00029450       pjmedia_sdp_media_clone_deactivate 000000014002a450 f   pjmedia-x86_64-x64-vc14-debug-dynamic:sdp.obj
 0001:000296c0       pjmedia_sdp_parse          000000014002a6c0 f   pjmedia-x86_64-x64-vc14-debug-dynamic:sdp.obj
 0001:00029d40       pjmedia_sdp_print          000000014002ad40 f   pjmedia-x86_64-x64-vc14-debug-dynamic:sdp.obj
 0001:00029d80       pjmedia_sdp_validate       000000014002ad80 f   pjmedia-x86_64-x64-vc14-debug-dynamic:sdp.obj
 0001:00029db0       pjmedia_sdp_validate2      000000014002adb0 f   pjmedia-x86_64-x64-vc14-debug-dynamic:sdp.obj
 0001:0002a0f0       pjmedia_sdp_session_clone  000000014002b0f0 f   pjmedia-x86_64-x64-vc14-debug-dynamic:sdp.obj
 0001:0002a430       pjmedia_sdp_session_add_attr 000000014002b430 f   pjmedia-x86_64-x64-vc14-debug-dynamic:sdp.obj
 0001:0002d130       pjmedia_strerror           000000014002e130 f   pjmedia-x86_64-x64-vc14-debug-dynamic:errno.obj
 0001:0002d4a0       pjmedia_wave_hdr_file_to_host 000000014002e4a0 f   pjmedia-x86_64-x64-vc14-debug-dynamic:wave.obj
 0001:0002d4c0       pjmedia_wave_hdr_host_to_file 000000014002e4c0 f   pjmedia-x86_64-x64-vc14-debug-dynamic:wave.obj
 0001:0002d500       pjmedia_wsola_create       000000014002e500 f   pjmedia-x86_64-x64-vc14-debug-dynamic:wsola.obj
 0001:0002d910       pjmedia_wsola_set_max_expand 000000014002e910 f   pjmedia-x86_64-x64-vc14-debug-dynamic:wsola.obj
 0001:0002d990       pjmedia_wsola_destroy      000000014002e990 f   pjmedia-x86_64-x64-vc14-debug-dynamic:wsola.obj
 0001:0002d9a0       pjmedia_wsola_reset        000000014002e9a0 f   pjmedia-x86_64-x64-vc14-debug-dynamic:wsola.obj
 0001:0002da70       pjmedia_wsola_save         000000014002ea70 f   pjmedia-x86_64-x64-vc14-debug-dynamic:wsola.obj
 0001:0002e0a0       pjmedia_wsola_generate     000000014002f0a0 f   pjmedia-x86_64-x64-vc14-debug-dynamic:wsola.obj
 0001:0002e1c0       pjmedia_wsola_discard      000000014002f1c0 f   pjmedia-x86_64-x64-vc14-debug-dynamic:wsola.obj
 0001:00030a50       pjmedia_srtp_init_lib      0000000140031a50 f   pjmedia-x86_64-x64-vc14-debug-dynamic:transport_srtp.obj
 0001:00030b20       pjmedia_srtp_setting_default 0000000140031b20 f   pjmedia-x86_64-x64-vc14-debug-dynamic:transport_srtp.obj
 0001:00030b80       pjmedia_srtp_enum_crypto   0000000140031b80 f   pjmedia-x86_64-x64-vc14-debug-dynamic:transport_srtp.obj
 0001:00030c90       pjmedia_srtp_enum_keying   0000000140031c90 f   pjmedia-x86_64-x64-vc14-debug-dynamic:transport_srtp.obj
 0001:00030d40       pjmedia_transport_srtp_create 0000000140031d40 f   pjmedia-x86_64-x64-vc14-debug-dynamic:transport_srtp.obj
 0001:000312a0       pjmedia_transport_srtp_dtls_get_fingerprint 00000001400322a0 f   pjmedia-x86_64-x64-vc14-debug-dynamic:transport_srtp.obj
 0001:000312c0       pjmedia_transport_srtp_dtls_start_nego 00000001400322c0 f   pjmedia-x86_64-x64-vc14-debug-dynamic:transport_srtp.obj
 0001:000312e0       pjmedia_transport_srtp_start 00000001400322e0 f   pjmedia-x86_64-x64-vc14-debug-dynamic:transport_srtp.obj
 0001:00031cb0       pjmedia_transport_srtp_stop 0000000140032cb0 f   pjmedia-x86_64-x64-vc14-debug-dynamic:transport_srtp.obj
 0001:00031e30       pjmedia_transport_srtp_decrypt_pkt 0000000140032e30 f   pjmedia-x86_64-x64-vc14-debug-dynamic:transport_srtp.obj
 0001:00032050       pjmedia_transport_srtp_get_member 0000000140033050 f   pjmedia-x86_64-x64-vc14-debug-dynamic:transport_srtp.obj
 0001:00033f10       get_libsrtp_errstr         0000000140034f10 f   pjmedia-x86_64-x64-vc14-debug-dynamic:transport_srtp.obj
 0001:00036bb0       pj_cis_buf_init            0000000140037bb0 f   pjlib-util-x86_64-x64-vc14-debug-dynamic:scanner.obj
 0001:00036bf0       pj_cis_init                0000000140037bf0 f   pjlib-util-x86_64-x64-vc14-debug-dynamic:scanner.obj
 0001:00036cb0       pj_cis_dup                 0000000140037cb0 f   pjlib-util-x86_64-x64-vc14-debug-dynamic:scanner.obj
 0001:00036de0       pj_cis_add_range           0000000140037de0 f   pjlib-util-x86_64-x64-vc14-debug-dynamic:scanner.obj
 0001:00036e80       pj_cis_add_alpha           0000000140037e80 f   pjlib-util-x86_64-x64-vc14-debug-dynamic:scanner.obj
 0001:00036ec0       pj_cis_add_num             0000000140037ec0 f   pjlib-util-x86_64-x64-vc14-debug-dynamic:scanner.obj
 0001:00036ef0       pj_cis_add_str             0000000140037ef0 f   pjlib-util-x86_64-x64-vc14-debug-dynamic:scanner.obj
 0001:00036f70       pj_cis_add_cis             0000000140037f70 f   pjlib-util-x86_64-x64-vc14-debug-dynamic:scanner.obj
 0001:00037030       pj_cis_del_range           0000000140038030 f   pjlib-util-x86_64-x64-vc14-debug-dynamic:scanner.obj
 0001:000370b0       pj_cis_del_str             00000001400380b0 f   pjlib-util-x86_64-x64-vc14-debug-dynamic:scanner.obj
 0001:00037130       pj_cis_invert              0000000140038130 f   pjlib-util-x86_64-x64-vc14-debug-dynamic:scanner.obj
 0001:00037230       pj_scan_init               0000000140038230 f   pjlib-util-x86_64-x64-vc14-debug-dynamic:scanner.obj
 0001:000372f0       pj_scan_fini               00000001400382f0 f   pjlib-util-x86_64-x64-vc14-debug-dynamic:scanner.obj
 0001:00037320       pj_scan_peek               0000000140038320 f   pjlib-util-x86_64-x64-vc14-debug-dynamic:scanner.obj
 0001:000373c0       pj_scan_peek_n             00000001400383c0 f   pjlib-util-x86_64-x64-vc14-debug-dynamic:scanner.obj
 0001:00037440       pj_scan_peek_until         0000000140038440 f   pjlib-util-x86_64-x64-vc14-debug-dynamic:scanner.obj
 0001:000374f0       pj_scan_get                00000001400384f0 f   pjlib-util-x86_64-x64-vc14-debug-dynamic:scanner.obj
 0001:000375e0       pj_scan_get_unescape       00000001400385e0 f   pjlib-util-x86_64-x64-vc14-debug-dynamic:scanner.obj
 0001:00037890       pj_scan_get_quote          0000000140038890 f   pjlib-util-x86_64-x64-vc14-debug-dynamic:scanner.obj
 0001:000378f0       pj_scan_get_quotes         00000001400388f0 f   pjlib-util-x86_64-x64-vc14-debug-dynamic:scanner.obj
 0001:00037b30       pj_scan_get_n              0000000140038b30 f   pjlib-util-x86_64-x64-vc14-debug-dynamic:scanner.obj
 0001:00037bd0       pj_scan_get_char           0000000140038bd0 f   pjlib-util-x86_64-x64-vc14-debug-dynamic:scanner.obj
 0001:00037c50       pj_scan_get_until          0000000140038c50 f   pjlib-util-x86_64-x64-vc14-debug-dynamic:scanner.obj
 0001:00037d20       pj_scan_get_until_ch       0000000140038d20 f   pjlib-util-x86_64-x64-vc14-debug-dynamic:scanner.obj
 0001:00037de0       pj_scan_get_until_chr      0000000140038de0 f   pjlib-util-x86_64-x64-vc14-debug-dynamic:scanner.obj
 0001:00037ec0       pj_scan_advance_n          0000000140038ec0 f   pjlib-util-x86_64-x64-vc14-debug-dynamic:scanner.obj
 0001:00037f40       pj_scan_strcmp             0000000140038f40 f   pjlib-util-x86_64-x64-vc14-debug-dynamic:scanner.obj
 0001:00037fb0       pj_scan_stricmp            0000000140038fb0 f   pjlib-util-x86_64-x64-vc14-debug-dynamic:scanner.obj
 0001:00038020       pj_scan_stricmp_alnum      0000000140039020 f   pjlib-util-x86_64-x64-vc14-debug-dynamic:scanner.obj
 0001:00038090       pj_scan_get_newline        0000000140039090 f   pjlib-util-x86_64-x64-vc14-debug-dynamic:scanner.obj
 0001:00038150       pj_scan_skip_whitespace    0000000140039150 f   pjlib-util-x86_64-x64-vc14-debug-dynamic:scanner.obj
 0001:000383a0       pj_scan_skip_line          00000001400393a0 f   pjlib-util-x86_64-x64-vc14-debug-dynamic:scanner.obj
 0001:00038430       pj_scan_save_state         0000000140039430 f   pjlib-util-x86_64-x64-vc14-debug-dynamic:scanner.obj
 0001:00038480       pj_scan_restore_state      0000000140039480 f   pjlib-util-x86_64-x64-vc14-debug-dynamic:scanner.obj
 0001:00038d70       pj_base64_encode           0000000140039d70 f   pjlib-util-x86_64-x64-vc14-debug-dynamic:base64.obj
 0001:00038fb0       pj_base64_decode           0000000140039fb0 f   pjlib-util-x86_64-x64-vc14-debug-dynamic:base64.obj
 0001:000396f0       pj_init                    000000014003a6f0 f   pjlib-x86_64-x64-vc14-debug-dynamic:os_core_win32.obj
 0001:000398c0       pj_shutdown                000000014003a8c0 f   pjlib-x86_64-x64-vc14-debug-dynamic:os_core_win32.obj
 0001:00039a00       pj_atexit                  000000014003aa00 f   pjlib-x86_64-x64-vc14-debug-dynamic:os_core_win32.obj
 0001:00039a50       pj_getpid                  000000014003aa50 f   pjlib-x86_64-x64-vc14-debug-dynamic:os_core_win32.obj
 0001:00039a80       pj_thread_create           000000014003aa80 f   pjlib-x86_64-x64-vc14-debug-dynamic:os_core_win32.obj
 0001:00039ce0       pj_thread_register         000000014003ace0 f   pjlib-x86_64-x64-vc14-debug-dynamic:os_core_win32.obj
 0001:00039e50       pj_thread_is_registered    000000014003ae50 f   pjlib-x86_64-x64-vc14-debug-dynamic:os_core_win32.obj
 0001:00039e90       pj_thread_get_prio         000000014003ae90 f   pjlib-x86_64-x64-vc14-debug-dynamic:os_core_win32.obj
 0001:00039ec0       pj_thread_set_prio         000000014003aec0 f   pjlib-x86_64-x64-vc14-debug-dynamic:os_core_win32.obj
 0001:00039fc0       pj_thread_get_prio_min     000000014003afc0 f   pjlib-x86_64-x64-vc14-debug-dynamic:os_core_win32.obj
 0001:00039fe0       pj_thread_get_prio_max     000000014003afe0 f   pjlib-x86_64-x64-vc14-debug-dynamic:os_core_win32.obj
 0001:0003a000       pj_thread_get_os_handle    000000014003b000 f   pjlib-x86_64-x64-vc14-debug-dynamic:os_core_win32.obj
 0001:0003a060       pj_thread_get_name         000000014003b060 f   pjlib-x86_64-x64-vc14-debug-dynamic:os_core_win32.obj
 0001:0003a0d0       pj_thread_resume           000000014003b0d0 f   pjlib-x86_64-x64-vc14-debug-dynamic:os_core_win32.obj
 0001:0003a1a0       pj_thread_this             000000014003b1a0 f   pjlib-x86_64-x64-vc14-debug-dynamic:os_core_win32.obj
 0001:0003a200       pj_thread_join             000000014003b200 f   pjlib-x86_64-x64-vc14-debug-dynamic:os_core_win32.obj
 0001:0003a310       pj_thread_destroy          000000014003b310 f   pjlib-x86_64-x64-vc14-debug-dynamic:os_core_win32.obj
 0001:0003a3e0       pj_thread_sleep            000000014003b3e0 f   pjlib-x86_64-x64-vc14-debug-dynamic:os_core_win32.obj
 0001:0003a410       pj_thread_check_stack      000000014003b410 f   pjlib-x86_64-x64-vc14-debug-dynamic:os_core_win32.obj
 0001:0003a510       pj_thread_get_stack_max_usage 000000014003b510 f   pjlib-x86_64-x64-vc14-debug-dynamic:os_core_win32.obj
 0001:0003a530       pj_thread_get_stack_info   000000014003b530 f   pjlib-x86_64-x64-vc14-debug-dynamic:os_core_win32.obj
 0001:0003a5a0       pj_thread_local_alloc      000000014003b5a0 f   pjlib-x86_64-x64-vc14-debug-dynamic:os_core_win32.obj
 0001:0003a650       pj_thread_local_free       000000014003b650 f   pjlib-x86_64-x64-vc14-debug-dynamic:os_core_win32.obj
 0001:0003a680       pj_thread_local_set        000000014003b680 f   pjlib-x86_64-x64-vc14-debug-dynamic:os_core_win32.obj
 0001:0003a710       pj_thread_local_get        000000014003b710 f   pjlib-x86_64-x64-vc14-debug-dynamic:os_core_win32.obj
 0001:0003a730       pj_atomic_create           000000014003b730 f   pjlib-x86_64-x64-vc14-debug-dynamic:os_core_win32.obj
 0001:0003a790       pj_atomic_destroy          000000014003b790 f   pjlib-x86_64-x64-vc14-debug-dynamic:os_core_win32.obj
 0001:0003a7e0       pj_atomic_set              000000014003b7e0 f   pjlib-x86_64-x64-vc14-debug-dynamic:os_core_win32.obj
 0001:0003a850       pj_atomic_get              000000014003b850 f   pjlib-x86_64-x64-vc14-debug-dynamic:os_core_win32.obj
 0001:0003a8c0       pj_atomic_inc              000000014003b8c0 f   pjlib-x86_64-x64-vc14-debug-dynamic:os_core_win32.obj
 0001:0003a920       pj_atomic_inc_and_get      000000014003b920 f   pjlib-x86_64-x64-vc14-debug-dynamic:os_core_win32.obj
 0001:0003a960       pj_atomic_dec              000000014003b960 f   pjlib-x86_64-x64-vc14-debug-dynamic:os_core_win32.obj
 0001:0003a9c0       pj_atomic_dec_and_get      000000014003b9c0 f   pjlib-x86_64-x64-vc14-debug-dynamic:os_core_win32.obj
 0001:0003aa00       pj_atomic_add              000000014003ba00 f   pjlib-x86_64-x64-vc14-debug-dynamic:os_core_win32.obj
 0001:0003aa60       pj_atomic_add_and_get      000000014003ba60 f   pjlib-x86_64-x64-vc14-debug-dynamic:os_core_win32.obj
 0001:0003aaa0       pj_mutex_create            000000014003baa0 f   pjlib-x86_64-x64-vc14-debug-dynamic:os_core_win32.obj
 0001:0003ab60       pj_mutex_create_simple     000000014003bb60 f   pjlib-x86_64-x64-vc14-debug-dynamic:os_core_win32.obj
 0001:0003aba0       pj_mutex_create_recursive  000000014003bba0 f   pjlib-x86_64-x64-vc14-debug-dynamic:os_core_win32.obj
 0001:0003abe0       pj_mutex_lock              000000014003bbe0 f   pjlib-x86_64-x64-vc14-debug-dynamic:os_core_win32.obj
 0001:0003aca0       pj_mutex_unlock            000000014003bca0 f   pjlib-x86_64-x64-vc14-debug-dynamic:os_core_win32.obj
 0001:0003ad80       pj_mutex_trylock           000000014003bd80 f   pjlib-x86_64-x64-vc14-debug-dynamic:os_core_win32.obj
 0001:0003ae60       pj_mutex_destroy           000000014003be60 f   pjlib-x86_64-x64-vc14-debug-dynamic:os_core_win32.obj
 0001:0003aee0       pj_mutex_is_locked         000000014003bee0 f   pjlib-x86_64-x64-vc14-debug-dynamic:os_core_win32.obj
 0001:0003af20       pj_rwmutex_create          000000014003bf20 f   pjlib-x86_64-x64-vc14-debug-dynamic:os_core_win32.obj
 0001:0003b040       pj_rwmutex_lock_read       000000014003c040 f   pjlib-x86_64-x64-vc14-debug-dynamic:os_core_win32.obj
 0001:0003b140       pj_rwmutex_lock_write      000000014003c140 f   pjlib-x86_64-x64-vc14-debug-dynamic:os_core_win32.obj
 0001:0003b1a0       pj_rwmutex_unlock_read     000000014003c1a0 f   pjlib-x86_64-x64-vc14-debug-dynamic:os_core_win32.obj
 0001:0003b2a0       pj_rwmutex_unlock_write    000000014003c2a0 f   pjlib-x86_64-x64-vc14-debug-dynamic:os_core_win32.obj
 0001:0003b330       pj_rwmutex_destroy         000000014003c330 f   pjlib-x86_64-x64-vc14-debug-dynamic:os_core_win32.obj
 0001:0003b3a0       pj_enter_critical_section  000000014003c3a0 f   pjlib-x86_64-x64-vc14-debug-dynamic:os_core_win32.obj
 0001:0003b3c0       pj_leave_critical_section  000000014003c3c0 f   pjlib-x86_64-x64-vc14-debug-dynamic:os_core_win32.obj
 0001:0003b3e0       pj_sem_create              000000014003c3e0 f   pjlib-x86_64-x64-vc14-debug-dynamic:os_core_win32.obj
 0001:0003b580       pj_sem_wait                000000014003c580 f   pjlib-x86_64-x64-vc14-debug-dynamic:os_core_win32.obj
 0001:0003b5f0       pj_sem_trywait             000000014003c5f0 f   pjlib-x86_64-x64-vc14-debug-dynamic:os_core_win32.obj
 0001:0003b660       pj_sem_post                000000014003c660 f   pjlib-x86_64-x64-vc14-debug-dynamic:os_core_win32.obj
 0001:0003b730       pj_sem_destroy             000000014003c730 f   pjlib-x86_64-x64-vc14-debug-dynamic:os_core_win32.obj
 0001:0003b800       pj_event_create            000000014003c800 f   pjlib-x86_64-x64-vc14-debug-dynamic:os_core_win32.obj
 0001:0003b9e0       pj_event_wait              000000014003c9e0 f   pjlib-x86_64-x64-vc14-debug-dynamic:os_core_win32.obj
 0001:0003ba40       pj_event_trywait           000000014003ca40 f   pjlib-x86_64-x64-vc14-debug-dynamic:os_core_win32.obj
 0001:0003baa0       pj_event_set               000000014003caa0 f   pjlib-x86_64-x64-vc14-debug-dynamic:os_core_win32.obj
 0001:0003bb70       pj_event_pulse             000000014003cb70 f   pjlib-x86_64-x64-vc14-debug-dynamic:os_core_win32.obj
 0001:0003bc40       pj_event_reset             000000014003cc40 f   pjlib-x86_64-x64-vc14-debug-dynamic:os_core_win32.obj
 0001:0003bd10       pj_event_destroy           000000014003cd10 f   pjlib-x86_64-x64-vc14-debug-dynamic:os_core_win32.obj
 0001:0003bde0       pj_term_set_color          000000014003cde0 f   pjlib-x86_64-x64-vc14-debug-dynamic:os_core_win32.obj
 0001:0003bea0       pj_term_get_color          000000014003cea0 f   pjlib-x86_64-x64-vc14-debug-dynamic:os_core_win32.obj
 0001:0003bf00       pj_run_app                 000000014003cf00 f   pjlib-x86_64-x64-vc14-debug-dynamic:os_core_win32.obj
 0001:0003bf30       pj_thread_init             000000014003cf30 f   pjlib-x86_64-x64-vc14-debug-dynamic:os_core_win32.obj
 0001:0003d010       pj_time_val_normalize      000000014003e010 f   pjlib-x86_64-x64-vc14-debug-dynamic:types.obj
 0001:0003d180       pj_strerror                000000014003e180 f   pjlib-x86_64-x64-vc14-debug-dynamic:errno.obj
 0001:0003d420       pj_perror                  000000014003e420 f   pjlib-x86_64-x64-vc14-debug-dynamic:errno.obj
 0001:0003d480       pj_register_strerror       000000014003e480 f   pjlib-x86_64-x64-vc14-debug-dynamic:errno.obj
 0001:0003d6e0       pj_errno_clear_handlers    000000014003e6e0 f   pjlib-x86_64-x64-vc14-debug-dynamic:errno.obj
 0001:0003d710       pj_perror_1                000000014003e710 f   pjlib-x86_64-x64-vc14-debug-dynamic:errno.obj
 0001:0003d770       pj_perror_2                000000014003e770 f   pjlib-x86_64-x64-vc14-debug-dynamic:errno.obj
 0001:0003d7d0       pj_perror_3                000000014003e7d0 f   pjlib-x86_64-x64-vc14-debug-dynamic:errno.obj
 0001:0003d830       pj_perror_4                000000014003e830 f   pjlib-x86_64-x64-vc14-debug-dynamic:errno.obj
 0001:0003d890       pj_perror_5                000000014003e890 f   pjlib-x86_64-x64-vc14-debug-dynamic:errno.obj
 0001:0003de20       pj_log                     000000014003ee20 f   pjlib-x86_64-x64-vc14-debug-dynamic:log.obj
 0001:0003e690       pj_log_set_log_func        000000014003f690 f   pjlib-x86_64-x64-vc14-debug-dynamic:log.obj
 0001:0003e6b0       pj_log_get_log_func        000000014003f6b0 f   pjlib-x86_64-x64-vc14-debug-dynamic:log.obj
 0001:0003e6c0       pj_log_set_level           000000014003f6c0 f   pjlib-x86_64-x64-vc14-debug-dynamic:log.obj
 0001:0003e6e0       pj_log_get_level           000000014003f6e0 f   pjlib-x86_64-x64-vc14-debug-dynamic:log.obj
 0001:0003e6f0       pj_log_set_decor           000000014003f6f0 f   pjlib-x86_64-x64-vc14-debug-dynamic:log.obj
 0001:0003e710       pj_log_get_decor           000000014003f710 f   pjlib-x86_64-x64-vc14-debug-dynamic:log.obj
 0001:0003e720       pj_log_add_indent          000000014003f720 f   pjlib-x86_64-x64-vc14-debug-dynamic:log.obj
 0001:0003e750       pj_log_push_indent         000000014003f750 f   pjlib-x86_64-x64-vc14-debug-dynamic:log.obj
 0001:0003e770       pj_log_pop_indent          000000014003f770 f   pjlib-x86_64-x64-vc14-debug-dynamic:log.obj
 0001:0003e790       pj_log_set_color           000000014003f790 f   pjlib-x86_64-x64-vc14-debug-dynamic:log.obj
 0001:0003e8b0       pj_log_get_color           000000014003f8b0 f   pjlib-x86_64-x64-vc14-debug-dynamic:log.obj
 0001:0003e950       pj_log_init                000000014003f950 f   pjlib-x86_64-x64-vc14-debug-dynamic:log.obj
 0001:0003e9d0       pj_log_1                   000000014003f9d0 f   pjlib-x86_64-x64-vc14-debug-dynamic:log.obj
 0001:0003ea20       pj_log_2                   000000014003fa20 f   pjlib-x86_64-x64-vc14-debug-dynamic:log.obj
 0001:0003ea70       pj_log_3                   000000014003fa70 f   pjlib-x86_64-x64-vc14-debug-dynamic:log.obj
 0001:0003eac0       pj_log_4                   000000014003fac0 f   pjlib-x86_64-x64-vc14-debug-dynamic:log.obj
 0001:0003eb10       pj_log_5                   000000014003fb10 f   pjlib-x86_64-x64-vc14-debug-dynamic:log.obj
 0001:0003f160       pj_gettimeofday            0000000140040160 f   pjlib-x86_64-x64-vc14-debug-dynamic:os_time_win32.obj
 0001:0003f220       pj_time_decode             0000000140040220 f   pjlib-x86_64-x64-vc14-debug-dynamic:os_time_win32.obj
 0001:0003f320       pj_time_encode             0000000140040320 f   pjlib-x86_64-x64-vc14-debug-dynamic:os_time_win32.obj
 0001:0003f5f0       pj_pool_create             00000001400405f0 f   pjlib-x86_64-x64-vc14-debug-dynamic:pool.obj
 0001:0003f640       pj_pool_release            0000000140040640 f   pjlib-x86_64-x64-vc14-debug-dynamic:pool.obj
 0001:0003f680       pj_pool_safe_release       0000000140040680 f   pjlib-x86_64-x64-vc14-debug-dynamic:pool.obj
 0001:0003f6c0       pj_pool_secure_release     00000001400406c0 f   pjlib-x86_64-x64-vc14-debug-dynamic:pool.obj
 0001:0003f770       pj_pool_getobjname         0000000140040770 f   pjlib-x86_64-x64-vc14-debug-dynamic:pool.obj
 0001:0003f790       pj_pool_reset              0000000140040790 f   pjlib-x86_64-x64-vc14-debug-dynamic:pool.obj
 0001:0003f7c0       pj_pool_get_capacity       00000001400407c0 f   pjlib-x86_64-x64-vc14-debug-dynamic:pool.obj
 0001:0003f7e0       pj_pool_get_used_size      00000001400407e0 f   pjlib-x86_64-x64-vc14-debug-dynamic:pool.obj
 0001:0003f850       pj_pool_alloc              0000000140040850 f   pjlib-x86_64-x64-vc14-debug-dynamic:pool.obj
 0001:0003f8b0       pj_pool_calloc             00000001400408b0 f   pjlib-x86_64-x64-vc14-debug-dynamic:pool.obj
 0001:0003f910       pj_pool_alloc_from_block   0000000140040910 f   pjlib-x86_64-x64-vc14-debug-dynamic:pool.obj
 0001:0003f9a0       pj_pool_allocate_find      00000001400409a0 f   pjlib-x86_64-x64-vc14-debug-dynamic:pool.obj
 0001:0003fb20       pj_NO_MEMORY_EXCEPTION     0000000140040b20 f   pjlib-x86_64-x64-vc14-debug-dynamic:pool.obj
 0001:0003fb30       pj_pool_create_int         0000000140040b30 f   pjlib-x86_64-x64-vc14-debug-dynamic:pool.obj
 0001:0003fcc0       pj_pool_init_int           0000000140040cc0 f   pjlib-x86_64-x64-vc14-debug-dynamic:pool.obj
 0001:0003fda0       pj_pool_destroy_int        0000000140040da0 f   pjlib-x86_64-x64-vc14-debug-dynamic:pool.obj
 0001:000403a0       pj_caching_pool_init       00000001400413a0 f   pjlib-x86_64-x64-vc14-debug-dynamic:pool_caching.obj
 0001:00040500       pj_caching_pool_destroy    0000000140041500 f   pjlib-x86_64-x64-vc14-debug-dynamic:pool_caching.obj
 0001:000410b0       pj_srand                   00000001400420b0 f   pjlib-x86_64-x64-vc14-debug-dynamic:rand.obj
 0001:000410e0       pj_rand                    00000001400420e0 f   pjlib-x86_64-x64-vc14-debug-dynamic:rand.obj
 0001:000411a0       pj_list_insert_before      00000001400421a0 f   pjlib-x86_64-x64-vc14-debug-dynamic:list.obj
 0001:000411d0       pj_list_insert_nodes_before 00000001400421d0 f   pjlib-x86_64-x64-vc14-debug-dynamic:list.obj
 0001:00041200       pj_list_insert_after       0000000140042200 f   pjlib-x86_64-x64-vc14-debug-dynamic:list.obj
 0001:00041250       pj_list_insert_nodes_after 0000000140042250 f   pjlib-x86_64-x64-vc14-debug-dynamic:list.obj
 0001:000412b0       pj_list_merge_first        00000001400422b0 f   pjlib-x86_64-x64-vc14-debug-dynamic:list.obj
 0001:00041310       pj_list_merge_last         0000000140042310 f   pjlib-x86_64-x64-vc14-debug-dynamic:list.obj
 0001:00041370       pj_list_erase              0000000140042370 f   pjlib-x86_64-x64-vc14-debug-dynamic:list.obj
 0001:000413b0       pj_list_find_node          00000001400423b0 f   pjlib-x86_64-x64-vc14-debug-dynamic:list.obj
 0001:00041420       pj_list_search             0000000140042420 f   pjlib-x86_64-x64-vc14-debug-dynamic:list.obj
 0001:000414a0       pj_list_size               00000001400424a0 f   pjlib-x86_64-x64-vc14-debug-dynamic:list.obj
 0001:00041650       pj_str                     0000000140042650 f   pjlib-x86_64-x64-vc14-debug-dynamic:string.obj
 0001:000416c0       pj_strassign               00000001400426c0 f   pjlib-x86_64-x64-vc14-debug-dynamic:string.obj
 0001:00041700       pj_strcpy                  0000000140042700 f   pjlib-x86_64-x64-vc14-debug-dynamic:string.obj
 0001:00041760       pj_strcpy2                 0000000140042760 f   pjlib-x86_64-x64-vc14-debug-dynamic:string.obj
 0001:000417e0       pj_strncpy                 00000001400427e0 f   pjlib-x86_64-x64-vc14-debug-dynamic:string.obj
 0001:00041880       pj_strncpy_with_null       0000000140042880 f   pjlib-x86_64-x64-vc14-debug-dynamic:string.obj
 0001:00041930       pj_strdup                  0000000140042930 f   pjlib-x86_64-x64-vc14-debug-dynamic:string.obj
 0001:000419c0       pj_strdup_with_null        00000001400429c0 f   pjlib-x86_64-x64-vc14-debug-dynamic:string.obj
 0001:00041a60       pj_strdup2                 0000000140042a60 f   pjlib-x86_64-x64-vc14-debug-dynamic:string.obj
 0001:00041b10       pj_strdup2_with_null       0000000140042b10 f   pjlib-x86_64-x64-vc14-debug-dynamic:string.obj
 0001:00041bc0       pj_strdup3                 0000000140042bc0 f   pjlib-x86_64-x64-vc14-debug-dynamic:string.obj
 0001:00041c10       pj_strcmp                  0000000140042c10 f   pjlib-x86_64-x64-vc14-debug-dynamic:string.obj
 0001:00041d40       pj_strcmp2                 0000000140042d40 f   pjlib-x86_64-x64-vc14-debug-dynamic:string.obj
 0001:00041da0       pj_strncmp                 0000000140042da0 f   pjlib-x86_64-x64-vc14-debug-dynamic:string.obj
 0001:00041e30       pj_strncmp2                0000000140042e30 f   pjlib-x86_64-x64-vc14-debug-dynamic:string.obj
 0001:00041e90       pj_stricmp                 0000000140042e90 f   pjlib-x86_64-x64-vc14-debug-dynamic:string.obj
 0001:00041fc0       pj_stricmp2                0000000140042fc0 f   pjlib-x86_64-x64-vc14-debug-dynamic:string.obj
 0001:00042020       pj_strnicmp                0000000140043020 f   pjlib-x86_64-x64-vc14-debug-dynamic:string.obj
 0001:000420b0       pj_strnicmp2               00000001400430b0 f   pjlib-x86_64-x64-vc14-debug-dynamic:string.obj
 0001:00042110       pj_strcat                  0000000140043110 f   pjlib-x86_64-x64-vc14-debug-dynamic:string.obj
 0001:00042180       pj_strcat2                 0000000140043180 f   pjlib-x86_64-x64-vc14-debug-dynamic:string.obj
 0001:00042210       pj_strspn                  0000000140043210 f   pjlib-x86_64-x64-vc14-debug-dynamic:string.obj
 0001:000422d0       pj_strspn2                 00000001400432d0 f   pjlib-x86_64-x64-vc14-debug-dynamic:string.obj
 0001:000423a0       pj_strcspn                 00000001400433a0 f   pjlib-x86_64-x64-vc14-debug-dynamic:string.obj
 0001:00042440       pj_strcspn2                0000000140043440 f   pjlib-x86_64-x64-vc14-debug-dynamic:string.obj
 0001:000424f0       pj_strtok                  00000001400434f0 f   pjlib-x86_64-x64-vc14-debug-dynamic:string.obj
 0001:00042610       pj_strtok2                 0000000140043610 f   pjlib-x86_64-x64-vc14-debug-dynamic:string.obj
 0001:00042730       pj_strstr                  0000000140043730 f   pjlib-x86_64-x64-vc14-debug-dynamic:string.obj
 0001:000427e0       pj_stristr                 00000001400437e0 f   pjlib-x86_64-x64-vc14-debug-dynamic:string.obj
 0001:00042890       pj_strltrim                0000000140043890 f   pjlib-x86_64-x64-vc14-debug-dynamic:string.obj
 0001:00042930       pj_strrtrim                0000000140043930 f   pjlib-x86_64-x64-vc14-debug-dynamic:string.obj
 0001:000429d0       pj_strtrim                 00000001400439d0 f   pjlib-x86_64-x64-vc14-debug-dynamic:string.obj
 0001:00042a00       pj_create_random_string    0000000140043a00 f   pjlib-x86_64-x64-vc14-debug-dynamic:string.obj
 0001:00042b50       pj_strtol                  0000000140043b50 f   pjlib-x86_64-x64-vc14-debug-dynamic:string.obj
 0001:00042c30       pj_strtol2                 0000000140043c30 f   pjlib-x86_64-x64-vc14-debug-dynamic:string.obj
 0001:00042e20       pj_strtoul                 0000000140043e20 f   pjlib-x86_64-x64-vc14-debug-dynamic:string.obj
 0001:00042eb0       pj_strtoul2                0000000140043eb0 f   pjlib-x86_64-x64-vc14-debug-dynamic:string.obj
 0001:00043040       pj_strtoul3                0000000140044040 f   pjlib-x86_64-x64-vc14-debug-dynamic:string.obj
 0001:00043320       pj_strtof                  0000000140044320 f   pjlib-x86_64-x64-vc14-debug-dynamic:string.obj
 0001:000434f0       pj_utoa                    00000001400444f0 f   pjlib-x86_64-x64-vc14-debug-dynamic:string.obj
 0001:00043520       pj_utoa_pad                0000000140044520 f   pjlib-x86_64-x64-vc14-debug-dynamic:string.obj
 0001:00044070       pj_ntohs                   0000000140045070 f   pjlib-x86_64-x64-vc14-debug-dynamic:sock_bsd.obj
 0001:00044090       pj_htons                   0000000140045090 f   pjlib-x86_64-x64-vc14-debug-dynamic:sock_bsd.obj
 0001:000440b0       pj_ntohl                   00000001400450b0 f   pjlib-x86_64-x64-vc14-debug-dynamic:sock_bsd.obj
 0001:000440d0       pj_htonl                   00000001400450d0 f   pjlib-x86_64-x64-vc14-debug-dynamic:sock_bsd.obj
 0001:000440f0       pj_inet_ntoa               00000001400450f0 f   pjlib-x86_64-x64-vc14-debug-dynamic:sock_bsd.obj
 0001:00044130       pj_inet_aton               0000000140045130 f   pjlib-x86_64-x64-vc14-debug-dynamic:sock_bsd.obj
 0001:00044260       pj_inet_pton               0000000140045260 f   pjlib-x86_64-x64-vc14-debug-dynamic:sock_bsd.obj
 0001:00044500       pj_inet_ntop               0000000140045500 f   pjlib-x86_64-x64-vc14-debug-dynamic:sock_bsd.obj
 0001:00044760       pj_gethostname             0000000140045760 f   pjlib-x86_64-x64-vc14-debug-dynamic:sock_bsd.obj
 0001:000447f0       pj_sock_socket             00000001400457f0 f   pjlib-x86_64-x64-vc14-debug-dynamic:sock_bsd.obj
 0001:00044990       pj_sock_close              0000000140045990 f   pjlib-x86_64-x64-vc14-debug-dynamic:sock_bsd.obj
 0001:00044a20       pj_sock_bind               0000000140045a20 f   pjlib-x86_64-x64-vc14-debug-dynamic:sock_bsd.obj
 0001:00044b00       pj_sock_bind_in            0000000140045b00 f   pjlib-x86_64-x64-vc14-debug-dynamic:sock_bsd.obj
 0001:00044ba0       pj_sock_listen             0000000140045ba0 f   pjlib-x86_64-x64-vc14-debug-dynamic:sock_bsd.obj
 0001:00044c30       pj_sock_accept             0000000140045c30 f   pjlib-x86_64-x64-vc14-debug-dynamic:sock_bsd.obj
 0001:00044d10       pj_sock_connect            0000000140045d10 f   pjlib-x86_64-x64-vc14-debug-dynamic:sock_bsd.obj
 0001:00044db0       pj_sock_getpeername        0000000140045db0 f   pjlib-x86_64-x64-vc14-debug-dynamic:sock_bsd.obj
 0001:00044e50       pj_sock_getsockname        0000000140045e50 f   pjlib-x86_64-x64-vc14-debug-dynamic:sock_bsd.obj
 0001:00044ef0       pj_sock_getsockopt         0000000140045ef0 f   pjlib-x86_64-x64-vc14-debug-dynamic:sock_bsd.obj
 0001:00044ff0       pj_sock_setsockopt         0000000140045ff0 f   pjlib-x86_64-x64-vc14-debug-dynamic:sock_bsd.obj
 0001:000450d0       pj_sock_setsockopt_params  00000001400460d0 f   pjlib-x86_64-x64-vc14-debug-dynamic:sock_bsd.obj
 0001:00045220       pj_sock_recv               0000000140046220 f   pjlib-x86_64-x64-vc14-debug-dynamic:sock_bsd.obj
 0001:00045320       pj_sock_recvfrom           0000000140046320 f   pjlib-x86_64-x64-vc14-debug-dynamic:sock_bsd.obj
 0001:00045430       pj_sock_send               0000000140046430 f   pjlib-x86_64-x64-vc14-debug-dynamic:sock_bsd.obj
 0001:00045520       pj_sock_sendto             0000000140046520 f   pjlib-x86_64-x64-vc14-debug-dynamic:sock_bsd.obj
 0001:00045620       pj_sock_shutdown           0000000140046620 f   pjlib-x86_64-x64-vc14-debug-dynamic:sock_bsd.obj
 0001:00045cc0       pj_get_os_error            0000000140046cc0 f   pjlib-x86_64-x64-vc14-debug-dynamic:os_error_win32.obj
 0001:00045d00       pj_set_os_error            0000000140046d00 f   pjlib-x86_64-x64-vc14-debug-dynamic:os_error_win32.obj
 0001:00045d40       pj_get_netos_error         0000000140046d40 f   pjlib-x86_64-x64-vc14-debug-dynamic:os_error_win32.obj
 0001:00045d80       pj_set_netos_error         0000000140046d80 f   pjlib-x86_64-x64-vc14-debug-dynamic:os_error_win32.obj
 0001:00045e00       platform_strerror          0000000140046e00 f   pjlib-x86_64-x64-vc14-debug-dynamic:os_error_win32.obj
 0001:00046140       pj_array_insert            0000000140047140 f   pjlib-x86_64-x64-vc14-debug-dynamic:array.obj
 0001:00046200       pj_array_erase             0000000140047200 f   pjlib-x86_64-x64-vc14-debug-dynamic:array.obj
 0001:000462b0       pj_array_find              00000001400472b0 f   pjlib-x86_64-x64-vc14-debug-dynamic:array.obj
 0001:00046400       pj_inet_ntop2              0000000140047400 f   pjlib-x86_64-x64-vc14-debug-dynamic:sock_common.obj
 0001:00046460       pj_sockaddr_print          0000000140047460 f   pjlib-x86_64-x64-vc14-debug-dynamic:sock_common.obj
 0001:00046600       pj_inet_addr               0000000140047600 f   pjlib-x86_64-x64-vc14-debug-dynamic:sock_common.obj
 0001:00046630       pj_inet_addr2              0000000140047630 f   pjlib-x86_64-x64-vc14-debug-dynamic:sock_common.obj
 0001:00046680       pj_sockaddr_in_init        0000000140047680 f   pjlib-x86_64-x64-vc14-debug-dynamic:sock_common.obj
 0001:00046730       pj_sockaddr_init           0000000140047730 f   pjlib-x86_64-x64-vc14-debug-dynamic:sock_common.obj
 0001:00046820       pj_sockaddr_cmp            0000000140047820 f   pjlib-x86_64-x64-vc14-debug-dynamic:sock_common.obj
 0001:00046930       pj_sockaddr_get_addr       0000000140047930 f   pjlib-x86_64-x64-vc14-debug-dynamic:sock_common.obj
 0001:000469f0       pj_sockaddr_has_addr       00000001400479f0 f   pjlib-x86_64-x64-vc14-debug-dynamic:sock_common.obj
 0001:00046ae0       pj_sockaddr_get_addr_len   0000000140047ae0 f   pjlib-x86_64-x64-vc14-debug-dynamic:sock_common.obj
 0001:00046ba0       pj_sockaddr_get_len        0000000140047ba0 f   pjlib-x86_64-x64-vc14-debug-dynamic:sock_common.obj
 0001:00046c60       pj_sockaddr_copy_addr      0000000140047c60 f   pjlib-x86_64-x64-vc14-debug-dynamic:sock_common.obj
 0001:00046cd0       pj_sockaddr_cp             0000000140047cd0 f   pjlib-x86_64-x64-vc14-debug-dynamic:sock_common.obj
 0001:00046d10       pj_sockaddr_synthesize     0000000140047d10 f   pjlib-x86_64-x64-vc14-debug-dynamic:sock_common.obj
 0001:00046ea0       pj_sockaddr_in_get_addr    0000000140047ea0 f   pjlib-x86_64-x64-vc14-debug-dynamic:sock_common.obj
 0001:00046ed0       pj_sockaddr_in_set_addr    0000000140047ed0 f   pjlib-x86_64-x64-vc14-debug-dynamic:sock_common.obj
 0001:00046f00       pj_sockaddr_in_set_str_addr 0000000140047f00 f   pjlib-x86_64-x64-vc14-debug-dynamic:sock_common.obj
 0001:000470b0       pj_sockaddr_set_str_addr   00000001400480b0 f   pjlib-x86_64-x64-vc14-debug-dynamic:sock_common.obj
 0001:00047250       pj_sockaddr_get_port       0000000140048250 f   pjlib-x86_64-x64-vc14-debug-dynamic:sock_common.obj
 0001:00047320       pj_sockaddr_in_get_port    0000000140048320 f   pjlib-x86_64-x64-vc14-debug-dynamic:sock_common.obj
 0001:00047350       pj_sockaddr_set_port       0000000140048350 f   pjlib-x86_64-x64-vc14-debug-dynamic:sock_common.obj
 0001:00047410       pj_sockaddr_in_set_port    0000000140048410 f   pjlib-x86_64-x64-vc14-debug-dynamic:sock_common.obj
 0001:00047440       pj_sockaddr_parse          0000000140048440 f   pjlib-x86_64-x64-vc14-debug-dynamic:sock_common.obj
 0001:000475c0       pj_sockaddr_parse2         00000001400485c0 f   pjlib-x86_64-x64-vc14-debug-dynamic:sock_common.obj
 0001:00047b10       pj_gethostaddr             0000000140048b10 f   pjlib-x86_64-x64-vc14-debug-dynamic:sock_common.obj
 0001:00047b60       pj_sock_bind_random        0000000140048b60 f   pjlib-x86_64-x64-vc14-debug-dynamic:sock_common.obj
 0001:00047ce0       pj_sock_setsockopt_sobuf   0000000140048ce0 f   pjlib-x86_64-x64-vc14-debug-dynamic:sock_common.obj
 0001:00047f00       pj_addr_str_print          0000000140048f00 f   pjlib-x86_64-x64-vc14-debug-dynamic:sock_common.obj
 0001:00048190       pj_gethostip               0000000140049190 f   pjlib-x86_64-x64-vc14-debug-dynamic:sock_common.obj
 0001:00048ce0       pj_getipinterface          0000000140049ce0 f   pjlib-x86_64-x64-vc14-debug-dynamic:sock_common.obj
 0001:00048f60       pj_getdefaultipinterface   0000000140049f60 f   pjlib-x86_64-x64-vc14-debug-dynamic:sock_common.obj
 0001:00049af0       pj_ioqueue_name            000000014004aaf0 f   pjlib-x86_64-x64-vc14-debug-dynamic:ioqueue_select.obj
 0001:00049b00       pj_ioqueue_create          000000014004ab00 f   pjlib-x86_64-x64-vc14-debug-dynamic:ioqueue_select.obj
 0001:00049df0       pj_ioqueue_destroy         000000014004adf0 f   pjlib-x86_64-x64-vc14-debug-dynamic:ioqueue_select.obj
 0001:00049f30       pj_ioqueue_set_lock        000000014004af30 f   pjlib-x86_64-x64-vc14-debug-dynamic:ioqueue_select.obj
 0001:00049fe0       pj_ioqueue_set_default_concurrency 000000014004afe0 f   pjlib-x86_64-x64-vc14-debug-dynamic:ioqueue_select.obj
 0001:0004a040       pj_ioqueue_register_sock   000000014004b040 f   pjlib-x86_64-x64-vc14-debug-dynamic:ioqueue_select.obj
 0001:0004a0a0       pj_ioqueue_register_sock2  000000014004b0a0 f   pjlib-x86_64-x64-vc14-debug-dynamic:ioqueue_select.obj
 0001:0004a350       pj_ioqueue_unregister      000000014004b350 f   pjlib-x86_64-x64-vc14-debug-dynamic:ioqueue_select.obj
 0001:0004a560       pj_ioqueue_get_user_data   000000014004b560 f   pjlib-x86_64-x64-vc14-debug-dynamic:ioqueue_select.obj
 0001:0004a5c0       pj_ioqueue_set_user_data   000000014004b5c0 f   pjlib-x86_64-x64-vc14-debug-dynamic:ioqueue_select.obj
 0001:0004a640       pj_ioqueue_set_concurrency 000000014004b640 f   pjlib-x86_64-x64-vc14-debug-dynamic:ioqueue_select.obj
 0001:0004a6f0       pj_ioqueue_lock_key        000000014004b6f0 f   pjlib-x86_64-x64-vc14-debug-dynamic:ioqueue_select.obj
 0001:0004a730       pj_ioqueue_trylock_key     000000014004b730 f   pjlib-x86_64-x64-vc14-debug-dynamic:ioqueue_select.obj
 0001:0004a770       pj_ioqueue_unlock_key      000000014004b770 f   pjlib-x86_64-x64-vc14-debug-dynamic:ioqueue_select.obj
 0001:0004a7b0       pj_ioqueue_op_key_init     000000014004b7b0 f   pjlib-x86_64-x64-vc14-debug-dynamic:ioqueue_select.obj
 0001:0004a7e0       pj_ioqueue_is_pending      000000014004b7e0 f   pjlib-x86_64-x64-vc14-debug-dynamic:ioqueue_select.obj
 0001:0004a830       pj_ioqueue_post_completion 000000014004b830 f   pjlib-x86_64-x64-vc14-debug-dynamic:ioqueue_select.obj
 0001:0004aa10       pj_ioqueue_accept          000000014004ba10 f   pjlib-x86_64-x64-vc14-debug-dynamic:ioqueue_select.obj
 0001:0004ac60       pj_ioqueue_connect         000000014004bc60 f   pjlib-x86_64-x64-vc14-debug-dynamic:ioqueue_select.obj
 0001:0004adc0       pj_ioqueue_poll            000000014004bdc0 f   pjlib-x86_64-x64-vc14-debug-dynamic:ioqueue_select.obj
 0001:0004b3a0       pj_ioqueue_recv            000000014004c3a0 f   pjlib-x86_64-x64-vc14-debug-dynamic:ioqueue_select.obj
 0001:0004b5d0       pj_ioqueue_recvfrom        000000014004c5d0 f   pjlib-x86_64-x64-vc14-debug-dynamic:ioqueue_select.obj
 0001:0004b840       pj_ioqueue_send            000000014004c840 f   pjlib-x86_64-x64-vc14-debug-dynamic:ioqueue_select.obj
 0001:0004ba80       pj_ioqueue_sendto          000000014004ca80 f   pjlib-x86_64-x64-vc14-debug-dynamic:ioqueue_select.obj
 0001:0004c2f0       ioqueue_dispatch_write_event 000000014004d2f0 f   pjlib-x86_64-x64-vc14-debug-dynamic:ioqueue_select.obj
 0001:0004c7c0       ioqueue_dispatch_read_event 000000014004d7c0 f   pjlib-x86_64-x64-vc14-debug-dynamic:ioqueue_select.obj
 0001:0004cb60       ioqueue_dispatch_exception_event 000000014004db60 f   pjlib-x86_64-x64-vc14-debug-dynamic:ioqueue_select.obj
 0001:0004dd20       pj_file_exists             000000014004ed20 f   pjlib-x86_64-x64-vc14-debug-dynamic:file_access_win32.obj
 0001:0004ddc0       pj_file_size               000000014004edc0 f   pjlib-x86_64-x64-vc14-debug-dynamic:file_access_win32.obj
 0001:0004de80       pj_file_delete             000000014004ee80 f   pjlib-x86_64-x64-vc14-debug-dynamic:file_access_win32.obj
 0001:0004df30       pj_file_move               000000014004ef30 f   pjlib-x86_64-x64-vc14-debug-dynamic:file_access_win32.obj
 0001:0004e000       pj_file_getstat            000000014004f000 f   pjlib-x86_64-x64-vc14-debug-dynamic:file_access_win32.obj
 0001:0004e740       pj_file_open               000000014004f740 f   pjlib-x86_64-x64-vc14-debug-dynamic:file_io_win32.obj
 0001:0004e990       pj_file_close              000000014004f990 f   pjlib-x86_64-x64-vc14-debug-dynamic:file_io_win32.obj
 0001:0004ea00       pj_file_write              000000014004fa00 f   pjlib-x86_64-x64-vc14-debug-dynamic:file_io_win32.obj
 0001:0004eab0       pj_file_read               000000014004fab0 f   pjlib-x86_64-x64-vc14-debug-dynamic:file_io_win32.obj
 0001:0004eb60       pj_file_setpos             000000014004fb60 f   pjlib-x86_64-x64-vc14-debug-dynamic:file_io_win32.obj
 0001:0004ec50       pj_file_getpos             000000014004fc50 f   pjlib-x86_64-x64-vc14-debug-dynamic:file_io_win32.obj
 0001:0004ecd0       pj_file_flush              000000014004fcd0 f   pjlib-x86_64-x64-vc14-debug-dynamic:file_io_win32.obj
 0001:0004efd0       pj_exception_id_alloc      000000014004ffd0 f   pjlib-x86_64-x64-vc14-debug-dynamic:except.obj
 0001:0004f050       pj_exception_id_free       0000000140050050 f   pjlib-x86_64-x64-vc14-debug-dynamic:except.obj
 0001:0004f0d0       pj_exception_id_name       00000001400500d0 f   pjlib-x86_64-x64-vc14-debug-dynamic:except.obj
 0001:0004f180       pj_throw_exception_        0000000140050180 f   pjlib-x86_64-x64-vc14-debug-dynamic:except.obj
 0001:0004f220       pj_push_exception_handler_ 0000000140050220 f   pjlib-x86_64-x64-vc14-debug-dynamic:except.obj
 0001:0004f2c0       pj_pop_exception_handler_  00000001400502c0 f   pjlib-x86_64-x64-vc14-debug-dynamic:except.obj
 0001:0004f450       pj_get_timestamp           0000000140050450 f   pjlib-x86_64-x64-vc14-debug-dynamic:os_timestamp_win32.obj
 0001:0004f4d0       pj_get_timestamp_freq      00000001400504d0 f   pjlib-x86_64-x64-vc14-debug-dynamic:os_timestamp_win32.obj
 0001:0004f580       pj_lock_create_simple_mutex 0000000140050580 f   pjlib-x86_64-x64-vc14-debug-dynamic:lock.obj
 0001:0004f5c0       pj_lock_create_recursive_mutex 00000001400505c0 f   pjlib-x86_64-x64-vc14-debug-dynamic:lock.obj
 0001:0004f600       pj_lock_create_null_mutex  0000000140050600 f   pjlib-x86_64-x64-vc14-debug-dynamic:lock.obj
 0001:0004f670       pj_lock_create_semaphore   0000000140050670 f   pjlib-x86_64-x64-vc14-debug-dynamic:lock.obj
 0001:0004f780       pj_lock_acquire            0000000140050780 f   pjlib-x86_64-x64-vc14-debug-dynamic:lock.obj
 0001:0004f7e0       pj_lock_tryacquire         00000001400507e0 f   pjlib-x86_64-x64-vc14-debug-dynamic:lock.obj
 0001:0004f840       pj_lock_release            0000000140050840 f   pjlib-x86_64-x64-vc14-debug-dynamic:lock.obj
 0001:0004f8a0       pj_lock_destroy            00000001400508a0 f   pjlib-x86_64-x64-vc14-debug-dynamic:lock.obj
 0001:0004f900       pj_grp_lock_config_default 0000000140050900 f   pjlib-x86_64-x64-vc14-debug-dynamic:lock.obj
 0001:0004f930       pj_grp_lock_create         0000000140050930 f   pjlib-x86_64-x64-vc14-debug-dynamic:lock.obj
 0001:0004fb20       pj_grp_lock_create_w_handler 0000000140050b20 f   pjlib-x86_64-x64-vc14-debug-dynamic:lock.obj
 0001:0004fb90       pj_grp_lock_destroy        0000000140050b90 f   pjlib-x86_64-x64-vc14-debug-dynamic:lock.obj
 0001:0004fbb0       pj_grp_lock_replace        0000000140050bb0 f   pjlib-x86_64-x64-vc14-debug-dynamic:lock.obj
 0001:0004fc70       pj_grp_lock_acquire        0000000140050c70 f   pjlib-x86_64-x64-vc14-debug-dynamic:lock.obj
 0001:0004fc90       pj_grp_lock_tryacquire     0000000140050c90 f   pjlib-x86_64-x64-vc14-debug-dynamic:lock.obj
 0001:0004fcb0       pj_grp_lock_release        0000000140050cb0 f   pjlib-x86_64-x64-vc14-debug-dynamic:lock.obj
 0001:0004fcd0       pj_grp_lock_add_handler    0000000140050cd0 f   pjlib-x86_64-x64-vc14-debug-dynamic:lock.obj
 0001:0004fd20       pj_grp_lock_del_handler    0000000140050d20 f   pjlib-x86_64-x64-vc14-debug-dynamic:lock.obj
 0001:0004fdc0       pj_grp_lock_add_ref        0000000140050dc0 f   pjlib-x86_64-x64-vc14-debug-dynamic:lock.obj
 0001:0004fde0       pj_grp_lock_dec_ref        0000000140050de0 f   pjlib-x86_64-x64-vc14-debug-dynamic:lock.obj
 0001:0004fe00       pj_grp_lock_get_ref        0000000140050e00 f   pjlib-x86_64-x64-vc14-debug-dynamic:lock.obj
 0001:0004fe30       pj_grp_lock_dump           0000000140050e30 f   pjlib-x86_64-x64-vc14-debug-dynamic:lock.obj
 0001:0004fe80       pj_grp_lock_chain_lock     0000000140050e80 f   pjlib-x86_64-x64-vc14-debug-dynamic:lock.obj
 0001:0004ff70       pj_grp_lock_unchain_lock   0000000140050f70 f   pjlib-x86_64-x64-vc14-debug-dynamic:lock.obj
 0001:00050c70       pj_GUID_STRING_LENGTH      0000000140051c70 f   pjlib-x86_64-x64-vc14-debug-dynamic:guid_win32.obj
 0001:00050c80       pj_generate_unique_string  0000000140051c80 f   pjlib-x86_64-x64-vc14-debug-dynamic:guid_win32.obj
 0001:00050e80       pj_get_version             0000000140051e80 f   pjlib-x86_64-x64-vc14-debug-dynamic:config.obj
 0001:00050e90       pj_dump_config             0000000140051e90 f   pjlib-x86_64-x64-vc14-debug-dynamic:config.obj
 0001:00051570       pj_log_write               0000000140052570 f   pjlib-x86_64-x64-vc14-debug-dynamic:log_writer_stdout.obj
 0001:00051660       pj_pool_create_on_buf      0000000140052660 f   pjlib-x86_64-x64-vc14-debug-dynamic:pool_buf.obj
 0001:00051950       pj_pool_factory_get_default_policy 0000000140052950 f   pjlib-x86_64-x64-vc14-debug-dynamic:pool_policy_malloc.obj
 0001:00051b80       pj_enum_ip_interface       0000000140052b80 f   pjlib-x86_64-x64-vc14-debug-dynamic:ip_helper_win32.obj
 0001:00051cc0       pj_enum_ip_interface2      0000000140052cc0 f   pjlib-x86_64-x64-vc14-debug-dynamic:ip_helper_win32.obj
 0001:00051d30       pj_enum_ip_route           0000000140052d30 f   pjlib-x86_64-x64-vc14-debug-dynamic:ip_helper_win32.obj
 0001:00052c50       pj_gethostbyname           0000000140053c50 f   pjlib-x86_64-x64-vc14-debug-dynamic:addr_resolv_sock.obj
 0001:00052dc0       pj_getaddrinfo             0000000140053dc0 f   pjlib-x86_64-x64-vc14-debug-dynamic:addr_resolv_sock.obj
 0001:000531a0       pj_gettickcount            00000001400541a0 f   pjlib-x86_64-x64-vc14-debug-dynamic:os_timestamp_common.obj
 0001:00053200       pj_elapsed_time            0000000140054200 f   pjlib-x86_64-x64-vc14-debug-dynamic:os_timestamp_common.obj
 0001:000532c0       pj_elapsed_msec            00000001400542c0 f   pjlib-x86_64-x64-vc14-debug-dynamic:os_timestamp_common.obj
 0001:000532f0       pj_elapsed_msec64          00000001400542f0 f   pjlib-x86_64-x64-vc14-debug-dynamic:os_timestamp_common.obj
 0001:00053350       pj_elapsed_usec            0000000140054350 f   pjlib-x86_64-x64-vc14-debug-dynamic:os_timestamp_common.obj
 0001:00053380       pj_elapsed_nanosec         0000000140054380 f   pjlib-x86_64-x64-vc14-debug-dynamic:os_timestamp_common.obj
 0001:00053420       pj_elapsed_cycle           0000000140054420 f   pjlib-x86_64-x64-vc14-debug-dynamic:os_timestamp_common.obj
 0001:000536f0       PJ_FD_ZERO                 00000001400546f0 f   pjlib-x86_64-x64-vc14-debug-dynamic:sock_select.obj
 0001:00053740       PJ_FD_COUNT                0000000140054740 f   pjlib-x86_64-x64-vc14-debug-dynamic:sock_select.obj
 0001:00053760       PJ_FD_SET                  0000000140054760 f   pjlib-x86_64-x64-vc14-debug-dynamic:sock_select.obj
 0001:000538a0       PJ_FD_CLR                  00000001400548a0 f   pjlib-x86_64-x64-vc14-debug-dynamic:sock_select.obj
 0001:00053a00       PJ_FD_ISSET                0000000140054a00 f   pjlib-x86_64-x64-vc14-debug-dynamic:sock_select.obj
 0001:00053a60       pj_sock_select             0000000140054a60 f   pjlib-x86_64-x64-vc14-debug-dynamic:sock_select.obj
 0001:00053cc0       gsm_create                 0000000140054cc0 f   libgsmcodec-x86_64-x64-vc14-debug-dynamic:gsm_create.obj
 0001:00053d30       gsm_destroy                0000000140054d30 f   libgsmcodec-x86_64-x64-vc14-debug-dynamic:gsm_destroy.obj
 0001:00053d60       gsm_encode                 0000000140054d60 f   libgsmcodec-x86_64-x64-vc14-debug-dynamic:gsm_encode.obj
 0001:00054cd0       gsm_decode                 0000000140055cd0 f   libgsmcodec-x86_64-x64-vc14-debug-dynamic:gsm_decode.obj
 0001:00056150       Gsm_Coder                  0000000140057150 f   libgsmcodec-x86_64-x64-vc14-debug-dynamic:code.obj
 0001:000564f0       Gsm_Decoder                00000001400574f0 f   libgsmcodec-x86_64-x64-vc14-debug-dynamic:decode.obj
 0001:00056900       Gsm_Long_Term_Predictor    0000000140057900 f   libgsmcodec-x86_64-x64-vc14-debug-dynamic:long_term.obj
 0001:00056a50       Gsm_Long_Term_Synthesis_Filtering 0000000140057a50 f   libgsmcodec-x86_64-x64-vc14-debug-dynamic:long_term.obj
 0001:000584a0       Gsm_LPC_Analysis           00000001400594a0 f   libgsmcodec-x86_64-x64-vc14-debug-dynamic:lpc.obj
 0001:0005b7a0       Gsm_Preprocess             000000014005c7a0 f   libgsmcodec-x86_64-x64-vc14-debug-dynamic:preprocess.obj
 0001:0005bd50       Gsm_Short_Term_Analysis_Filter 000000014005cd50 f   libgsmcodec-x86_64-x64-vc14-debug-dynamic:short_term.obj
 0001:0005bef0       Gsm_Short_Term_Synthesis_Filter 000000014005cef0 f   libgsmcodec-x86_64-x64-vc14-debug-dynamic:short_term.obj
 0001:0005e010       Gsm_RPE_Decoding           000000014005f010 f   libgsmcodec-x86_64-x64-vc14-debug-dynamic:rpe.obj
 0001:0005e0a0       Gsm_RPE_Encoding           000000014005f0a0 f   libgsmcodec-x86_64-x64-vc14-debug-dynamic:rpe.obj
 0001:00060810       gsm_mult                   0000000140061810 f   libgsmcodec-x86_64-x64-vc14-debug-dynamic:add.obj
 0001:00060890       gsm_L_mult                 0000000140061890 f   libgsmcodec-x86_64-x64-vc14-debug-dynamic:add.obj
 0001:000608f0       gsm_mult_r                 00000001400618f0 f   libgsmcodec-x86_64-x64-vc14-debug-dynamic:add.obj
 0001:00060950       gsm_div                    0000000140061950 f   libgsmcodec-x86_64-x64-vc14-debug-dynamic:add.obj
 0001:00060a30       gsm_add                    0000000140061a30 f   libgsmcodec-x86_64-x64-vc14-debug-dynamic:add.obj
 0001:00060aa0       gsm_L_add                  0000000140061aa0 f   libgsmcodec-x86_64-x64-vc14-debug-dynamic:add.obj
 0001:00060b60       gsm_sub                    0000000140061b60 f   libgsmcodec-x86_64-x64-vc14-debug-dynamic:add.obj
 0001:00060bd0       gsm_L_sub                  0000000140061bd0 f   libgsmcodec-x86_64-x64-vc14-debug-dynamic:add.obj
 0001:00060c90       gsm_abs                    0000000140061c90 f   libgsmcodec-x86_64-x64-vc14-debug-dynamic:add.obj
 0001:00060cf0       gsm_norm                   0000000140061cf0 f   libgsmcodec-x86_64-x64-vc14-debug-dynamic:add.obj
 0001:00060e10       gsm_L_asl                  0000000140061e10 f   libgsmcodec-x86_64-x64-vc14-debug-dynamic:add.obj
 0001:00060e90       gsm_asl                    0000000140061e90 f   libgsmcodec-x86_64-x64-vc14-debug-dynamic:add.obj
 0001:00060f10       gsm_L_asr                  0000000140061f10 f   libgsmcodec-x86_64-x64-vc14-debug-dynamic:add.obj
 0001:00060f80       gsm_asr                    0000000140061f80 f   libgsmcodec-x86_64-x64-vc14-debug-dynamic:add.obj
 0001:000611e0       initEncode                 00000001400621e0 f   libilbccodec-x86_64-x64-vc14-debug-dynamic:iLBC_encode.obj
 0001:00061380       iLBC_encode                0000000140062380 f   libilbccodec-x86_64-x64-vc14-debug-dynamic:iLBC_encode.obj
 0001:000632c0       initDecode                 00000001400642c0 f   libilbccodec-x86_64-x64-vc14-debug-dynamic:iLBC_decode.obj
 0001:000635a0       Decode                     00000001400645a0 f   libilbccodec-x86_64-x64-vc14-debug-dynamic:iLBC_decode.obj
 0001:00063cb0       iLBC_decode                0000000140064cb0 f   libilbccodec-x86_64-x64-vc14-debug-dynamic:iLBC_decode.obj
 0001:000652a0       SimpleAnalysis             00000001400662a0 f   libilbccodec-x86_64-x64-vc14-debug-dynamic:LPCencode.obj
 0001:000654e0       LSFinterpolate2a_enc       00000001400664e0 f   libilbccodec-x86_64-x64-vc14-debug-dynamic:LPCencode.obj
 0001:00065560       SimpleInterpolateLSF       0000000140066560 f   libilbccodec-x86_64-x64-vc14-debug-dynamic:LPCencode.obj
 0001:00065950       SimplelsfQ                 0000000140066950 f   libilbccodec-x86_64-x64-vc14-debug-dynamic:LPCencode.obj
 0001:00065a10       LPCencode                  0000000140066a10 f   libilbccodec-x86_64-x64-vc14-debug-dynamic:LPCencode.obj
 0001:00065d30       FrameClassify              0000000140066d30 f   libilbccodec-x86_64-x64-vc14-debug-dynamic:FrameClassify.obj
 0001:00066460       AbsQuantW                  0000000140067460 f   libilbccodec-x86_64-x64-vc14-debug-dynamic:StateSearchW.obj
 0001:00066740       StateSearchW               0000000140067740 f   libilbccodec-x86_64-x64-vc14-debug-dynamic:StateSearchW.obj
 0001:00066c90       StateConstructW            0000000140067c90 f   libilbccodec-x86_64-x64-vc14-debug-dynamic:StateConstructW.obj
 0001:00066fa0       packsplit                  0000000140067fa0 f   libilbccodec-x86_64-x64-vc14-debug-dynamic:packing.obj
 0001:00067020       packcombine                0000000140068020 f   libilbccodec-x86_64-x64-vc14-debug-dynamic:packing.obj
 0001:00067070       dopack                     0000000140068070 f   libilbccodec-x86_64-x64-vc14-debug-dynamic:packing.obj
 0001:000671d0       unpack                     00000001400681d0 f   libilbccodec-x86_64-x64-vc14-debug-dynamic:packing.obj
 0001:00067420       iCBSearch                  0000000140068420 f   libilbccodec-x86_64-x64-vc14-debug-dynamic:iCBSearch.obj
 0001:00068f20       index_conv_enc             0000000140069f20 f   libilbccodec-x86_64-x64-vc14-debug-dynamic:iCBConstruct.obj
 0001:00068fc0       index_conv_dec             0000000140069fc0 f   libilbccodec-x86_64-x64-vc14-debug-dynamic:iCBConstruct.obj
 0001:00069070       iCBConstruct               000000014006a070 f   libilbccodec-x86_64-x64-vc14-debug-dynamic:iCBConstruct.obj
 0001:000693e0       hpInput                    000000014006a3e0 f   libilbccodec-x86_64-x64-vc14-debug-dynamic:hpInput.obj
 0001:00069710       anaFilter                  000000014006a710 f   libilbccodec-x86_64-x64-vc14-debug-dynamic:anaFilter.obj
 0001:00069a00       LSFinterpolate2a_dec       000000014006aa00 f   libilbccodec-x86_64-x64-vc14-debug-dynamic:LPCdecode.obj
 0001:00069a80       SimplelsfDEQ               000000014006aa80 f   libilbccodec-x86_64-x64-vc14-debug-dynamic:LPCdecode.obj
 0001:00069c90       DecoderInterpolateLSF      000000014006ac90 f   libilbccodec-x86_64-x64-vc14-debug-dynamic:LPCdecode.obj
 0001:0006a0e0       compCorr                   000000014006b0e0 f   libilbccodec-x86_64-x64-vc14-debug-dynamic:doCPLC.obj
 0001:0006a350       doThePLC                   000000014006b350 f   libilbccodec-x86_64-x64-vc14-debug-dynamic:doCPLC.obj
 0001:0006ad20       autocorr                   000000014006bd20 f   libilbccodec-x86_64-x64-vc14-debug-dynamic:helpfun.obj
 0001:0006adf0       window                     000000014006bdf0 f   libilbccodec-x86_64-x64-vc14-debug-dynamic:helpfun.obj
 0001:0006ae60       levdurb                    000000014006be60 f   libilbccodec-x86_64-x64-vc14-debug-dynamic:helpfun.obj
 0001:0006b1a0       interpolate                000000014006c1a0 f   libilbccodec-x86_64-x64-vc14-debug-dynamic:helpfun.obj
 0001:0006b230       bwexpand                   000000014006c230 f   libilbccodec-x86_64-x64-vc14-debug-dynamic:helpfun.obj
 0001:0006b2e0       vq                         000000014006c2e0 f   libilbccodec-x86_64-x64-vc14-debug-dynamic:helpfun.obj
 0001:0006b470       SplitVQ                    000000014006c470 f   libilbccodec-x86_64-x64-vc14-debug-dynamic:helpfun.obj
 0001:0006b590       sort_sq                    000000014006c590 f   libilbccodec-x86_64-x64-vc14-debug-dynamic:helpfun.obj
 0001:0006b6b0       LSF_check                  000000014006c6b0 f   libilbccodec-x86_64-x64-vc14-debug-dynamic:helpfun.obj
 0001:0006bbb0       NearestNeighbor            000000014006cbb0 f   libilbccodec-x86_64-x64-vc14-debug-dynamic:enhancer.obj
 0001:0006bc80       mycorr1                    000000014006cc80 f   libilbccodec-x86_64-x64-vc14-debug-dynamic:enhancer.obj
 0001:0006bd50       enh_upsample               000000014006cd50 f   libilbccodec-x86_64-x64-vc14-debug-dynamic:enhancer.obj
 0001:0006c140       refiner                    000000014006d140 f   libilbccodec-x86_64-x64-vc14-debug-dynamic:enhancer.obj
 0001:0006c4a0       smath                      000000014006d4a0 f   libilbccodec-x86_64-x64-vc14-debug-dynamic:enhancer.obj
 0001:0006ca90       getsseq                    000000014006da90 f   libilbccodec-x86_64-x64-vc14-debug-dynamic:enhancer.obj
 0001:0006cef0       enhancer                   000000014006def0 f   libilbccodec-x86_64-x64-vc14-debug-dynamic:enhancer.obj
 0001:0006cfb0       xCorrCoef                  000000014006dfb0 f   libilbccodec-x86_64-x64-vc14-debug-dynamic:enhancer.obj
 0001:0006d090       enhancerInterface          000000014006e090 f   libilbccodec-x86_64-x64-vc14-debug-dynamic:enhancer.obj
 0001:0006e180       hpOutput                   000000014006f180 f   libilbccodec-x86_64-x64-vc14-debug-dynamic:hpOutput.obj
 0001:0006e4b0       syntFilter                 000000014006f4b0 f   libilbccodec-x86_64-x64-vc14-debug-dynamic:syntFilter.obj
 0001:0006e7b0       a2lsf                      000000014006f7b0 f   libilbccodec-x86_64-x64-vc14-debug-dynamic:lsf.obj
 0001:0006eeb0       lsf2a                      000000014006feb0 f   libilbccodec-x86_64-x64-vc14-debug-dynamic:lsf.obj
 0001:0006f810       AllPoleFilter              0000000140070810 f   libilbccodec-x86_64-x64-vc14-debug-dynamic:filter.obj
 0001:0006f8c0       AllZeroFilter              00000001400708c0 f   libilbccodec-x86_64-x64-vc14-debug-dynamic:filter.obj
 0001:0006f9b0       ZeroPoleFilter             00000001400709b0 f   libilbccodec-x86_64-x64-vc14-debug-dynamic:filter.obj
 0001:0006fa10       DownSample                 0000000140070a10 f   libilbccodec-x86_64-x64-vc14-debug-dynamic:filter.obj
 0001:0006fe80       gainquant                  0000000140070e80 f   libilbccodec-x86_64-x64-vc14-debug-dynamic:gainquant.obj
 0001:0006ffd0       gaindequant                0000000140070fd0 f   libilbccodec-x86_64-x64-vc14-debug-dynamic:gainquant.obj
 0001:00070110       filteredCBvecs             0000000140071110 f   libilbccodec-x86_64-x64-vc14-debug-dynamic:createCB.obj
 0001:000702b0       searchAugmentedCB          00000001400712b0 f   libilbccodec-x86_64-x64-vc14-debug-dynamic:createCB.obj
 0001:000707d0       createAugmentedVec         00000001400717d0 f   libilbccodec-x86_64-x64-vc14-debug-dynamic:createCB.obj
 0001:00070b50       getCBvec                   0000000140071b50 f   libilbccodec-x86_64-x64-vc14-debug-dynamic:getCBvec.obj
 0001:00071530       speex_bits_init            0000000140072530 f   libspeex-x86_64-x64-vc14-debug-dynamic:bits.obj
 0001:00071590       speex_bits_init_buffer     0000000140072590 f   libspeex-x86_64-x64-vc14-debug-dynamic:bits.obj
 0001:000715e0       speex_bits_set_bit_buffer  00000001400725e0 f   libspeex-x86_64-x64-vc14-debug-dynamic:bits.obj
 0001:00071650       speex_bits_destroy         0000000140072650 f   libspeex-x86_64-x64-vc14-debug-dynamic:bits.obj
 0001:00071680       speex_bits_reset           0000000140072680 f   libspeex-x86_64-x64-vc14-debug-dynamic:bits.obj
 0001:000716e0       speex_bits_rewind          00000001400726e0 f   libspeex-x86_64-x64-vc14-debug-dynamic:bits.obj
 0001:00071710       speex_bits_read_from       0000000140072710 f   libspeex-x86_64-x64-vc14-debug-dynamic:bits.obj
 0001:00071880       speex_bits_read_whole_bytes 0000000140072880 f   libspeex-x86_64-x64-vc14-debug-dynamic:bits.obj
 0001:00071a30       speex_bits_write           0000000140072a30 f   libspeex-x86_64-x64-vc14-debug-dynamic:bits.obj
 0001:00071b20       speex_bits_write_whole_bytes 0000000140072b20 f   libspeex-x86_64-x64-vc14-debug-dynamic:bits.obj
 0001:00071c10       speex_bits_pack            0000000140072c10 f   libspeex-x86_64-x64-vc14-debug-dynamic:bits.obj
 0001:00071e10       speex_bits_unpack_signed   0000000140072e10 f   libspeex-x86_64-x64-vc14-debug-dynamic:bits.obj
 0001:00071e80       speex_bits_unpack_unsigned 0000000140072e80 f   libspeex-x86_64-x64-vc14-debug-dynamic:bits.obj
 0001:00071f80       speex_bits_nbytes          0000000140072f80 f   libspeex-x86_64-x64-vc14-debug-dynamic:bits.obj
 0001:00071fa0       speex_bits_peek_unsigned   0000000140072fa0 f   libspeex-x86_64-x64-vc14-debug-dynamic:bits.obj
 0001:00072090       speex_bits_peek            0000000140073090 f   libspeex-x86_64-x64-vc14-debug-dynamic:bits.obj
 0001:00072100       speex_bits_advance         0000000140073100 f   libspeex-x86_64-x64-vc14-debug-dynamic:bits.obj
 0001:00072180       speex_bits_remaining       0000000140073180 f   libspeex-x86_64-x64-vc14-debug-dynamic:bits.obj
 0001:000721c0       speex_bits_insert_terminator 00000001400731c0 f   libspeex-x86_64-x64-vc14-debug-dynamic:bits.obj
 0001:00072740       fprintf                    0000000140073740 f i libspeex-x86_64-x64-vc14-debug-dynamic:bits.obj
 0001:000727b0       speex_encoder_init         00000001400737b0 f   libspeex-x86_64-x64-vc14-debug-dynamic:speex.obj
 0001:000727e0       speex_encoder_destroy      00000001400737e0 f   libspeex-x86_64-x64-vc14-debug-dynamic:speex.obj
 0001:00072810       speex_encode               0000000140073810 f   libspeex-x86_64-x64-vc14-debug-dynamic:speex.obj
 0001:00072850       speex_encode_int           0000000140073850 f   libspeex-x86_64-x64-vc14-debug-dynamic:speex.obj
 0001:00072910       speex_encoder_ctl          0000000140073910 f   libspeex-x86_64-x64-vc14-debug-dynamic:speex.obj
 0001:00072950       speex_decoder_init         0000000140073950 f   libspeex-x86_64-x64-vc14-debug-dynamic:speex.obj
 0001:00072980       speex_decoder_destroy      0000000140073980 f   libspeex-x86_64-x64-vc14-debug-dynamic:speex.obj
 0001:000729b0       speex_decode               00000001400739b0 f   libspeex-x86_64-x64-vc14-debug-dynamic:speex.obj
 0001:000729f0       speex_decode_int           00000001400739f0 f   libspeex-x86_64-x64-vc14-debug-dynamic:speex.obj
 0001:00072b30       speex_decoder_ctl          0000000140073b30 f   libspeex-x86_64-x64-vc14-debug-dynamic:speex.obj
 0001:00072b70       speex_lib_ctl              0000000140073b70 f   libspeex-x86_64-x64-vc14-debug-dynamic:speex.obj
 0001:00072c40       speex_encode_native        0000000140073c40 f   libspeex-x86_64-x64-vc14-debug-dynamic:speex.obj
 0001:00072c80       speex_decode_native        0000000140073c80 f   libspeex-x86_64-x64-vc14-debug-dynamic:speex.obj
 0001:00072cc0       nb_mode_query              0000000140073cc0 f   libspeex-x86_64-x64-vc14-debug-dynamic:speex.obj
 0001:00072f20       speex_mode_query           0000000140073f20 f   libspeex-x86_64-x64-vc14-debug-dynamic:modes.obj
 0001:00072f60       speex_lib_get_mode         0000000140073f60 f   libspeex-x86_64-x64-vc14-debug-dynamic:modes_wb.obj
 0001:00072f90       wb_mode_query              0000000140073f90 f   libspeex-x86_64-x64-vc14-debug-dynamic:modes_wb.obj
 0001:000730c0       inner_prod                 00000001400740c0 f   libspeex-x86_64-x64-vc14-debug-dynamic:ltp.obj
 0001:00073230       pitch_xcorr                0000000140074230 f   libspeex-x86_64-x64-vc14-debug-dynamic:ltp.obj
 0001:000732b0       open_loop_nbest_pitch      00000001400742b0 f   libspeex-x86_64-x64-vc14-debug-dynamic:ltp.obj
 0001:00073940       pitch_search_3tap          0000000140074940 f   libspeex-x86_64-x64-vc14-debug-dynamic:ltp.obj
 0001:00073ed0       pitch_unquant_3tap         0000000140074ed0 f   libspeex-x86_64-x64-vc14-debug-dynamic:ltp.obj
 0001:00074520       forced_pitch_quant         0000000140075520 f   libspeex-x86_64-x64-vc14-debug-dynamic:ltp.obj
 0001:00074720       forced_pitch_unquant       0000000140075720 f   libspeex-x86_64-x64-vc14-debug-dynamic:ltp.obj
 0001:00076210       lsp_quant_nb               0000000140077210 f   libspeex-x86_64-x64-vc14-debug-dynamic:quant_lsp.obj
 0001:00076660       lsp_unquant_nb             0000000140077660 f   libspeex-x86_64-x64-vc14-debug-dynamic:quant_lsp.obj
 0001:00076970       lsp_quant_lbr              0000000140077970 f   libspeex-x86_64-x64-vc14-debug-dynamic:quant_lsp.obj
 0001:00076ca0       lsp_unquant_lbr            0000000140077ca0 f   libspeex-x86_64-x64-vc14-debug-dynamic:quant_lsp.obj
 0001:00076ea0       lsp_quant_high             0000000140077ea0 f   libspeex-x86_64-x64-vc14-debug-dynamic:quant_lsp.obj
 0001:00077190       lsp_unquant_high           0000000140078190 f   libspeex-x86_64-x64-vc14-debug-dynamic:quant_lsp.obj
 0001:00077c60       split_cb_search_shape_sign 0000000140078c60 f   libspeex-x86_64-x64-vc14-debug-dynamic:cb_search.obj
 0001:00078c50       split_cb_shape_sign_unquant 0000000140079c50 f   libspeex-x86_64-x64-vc14-debug-dynamic:cb_search.obj
 0001:00078e80       noise_codebook_quant       0000000140079e80 f   libspeex-x86_64-x64-vc14-debug-dynamic:cb_search.obj
 0001:00078fa0       noise_codebook_unquant     0000000140079fa0 f   libspeex-x86_64-x64-vc14-debug-dynamic:cb_search.obj
 0001:0007a0e0       nb_encoder_init            000000014007b0e0 f   libspeex-x86_64-x64-vc14-debug-dynamic:nb_celp.obj
 0001:0007a5f0       nb_encoder_destroy         000000014007b5f0 f   libspeex-x86_64-x64-vc14-debug-dynamic:nb_celp.obj
 0001:0007a700       nb_encode                  000000014007b700 f   libspeex-x86_64-x64-vc14-debug-dynamic:nb_celp.obj
 0001:0007d0f0       nb_decoder_init            000000014007e0f0 f   libspeex-x86_64-x64-vc14-debug-dynamic:nb_celp.obj
 0001:0007d480       nb_decoder_destroy         000000014007e480 f   libspeex-x86_64-x64-vc14-debug-dynamic:nb_celp.obj
 0001:0007d4f0       nb_decode                  000000014007e4f0 f   libspeex-x86_64-x64-vc14-debug-dynamic:nb_celp.obj
 0001:0007f230       nb_encoder_ctl             0000000140080230 f   libspeex-x86_64-x64-vc14-debug-dynamic:nb_celp.obj
 0001:0007fc00       nb_decoder_ctl             0000000140080c00 f   libspeex-x86_64-x64-vc14-debug-dynamic:nb_celp.obj
 0001:00082480       vbr_init                   0000000140083480 f   libspeex-x86_64-x64-vc14-debug-dynamic:vbr.obj
 0001:000825b0       vbr_analysis               00000001400835b0 f   libspeex-x86_64-x64-vc14-debug-dynamic:vbr.obj
 0001:000831b0       vbr_destroy                00000001400841b0 f   libspeex-x86_64-x64-vc14-debug-dynamic:vbr.obj
 0001:00083510       sb_encoder_init            0000000140084510 f   libspeex-x86_64-x64-vc14-debug-dynamic:sb_celp.obj
 0001:00083960       sb_encoder_destroy         0000000140084960 f   libspeex-x86_64-x64-vc14-debug-dynamic:sb_celp.obj
 0001:00083a40       sb_encode                  0000000140084a40 f   libspeex-x86_64-x64-vc14-debug-dynamic:sb_celp.obj
 0001:00085780       sb_decoder_init            0000000140086780 f   libspeex-x86_64-x64-vc14-debug-dynamic:sb_celp.obj
 0001:000859f0       sb_decoder_destroy         00000001400869f0 f   libspeex-x86_64-x64-vc14-debug-dynamic:sb_celp.obj
 0001:00085aa0       sb_decode                  0000000140086aa0 f   libspeex-x86_64-x64-vc14-debug-dynamic:sb_celp.obj
 0001:000867f0       sb_encoder_ctl             00000001400877f0 f   libspeex-x86_64-x64-vc14-debug-dynamic:sb_celp.obj
 0001:00087450       sb_decoder_ctl             0000000140088450 f   libspeex-x86_64-x64-vc14-debug-dynamic:sb_celp.obj
 0001:00088fb0       compute_rms                0000000140089fb0 f   libspeex-x86_64-x64-vc14-debug-dynamic:filters.obj
 0001:00089060       compute_rms16              000000014008a060 f   libspeex-x86_64-x64-vc14-debug-dynamic:filters.obj
 0001:00089090       signal_mul                 000000014008a090 f   libspeex-x86_64-x64-vc14-debug-dynamic:filters.obj
 0001:00089100       signal_div                 000000014008a100 f   libspeex-x86_64-x64-vc14-debug-dynamic:filters.obj
 0001:00089180       highpass                   000000014008a180 f   libspeex-x86_64-x64-vc14-debug-dynamic:filters.obj
 0001:00089540       qmf_decomp                 000000014008a540 f   libspeex-x86_64-x64-vc14-debug-dynamic:filters.obj
 0001:000898f0       qmf_synth                  000000014008a8f0 f   libspeex-x86_64-x64-vc14-debug-dynamic:filters.obj
 0001:00089e70       filter_mem16               000000014008ae70 f   libspeex-x86_64-x64-vc14-debug-dynamic:filters.obj
 0001:00089fe0       iir_mem16                  000000014008afe0 f   libspeex-x86_64-x64-vc14-debug-dynamic:filters.obj
 0001:0008a100       fir_mem16                  000000014008b100 f   libspeex-x86_64-x64-vc14-debug-dynamic:filters.obj
 0001:0008a220       bw_lpc                     000000014008b220 f   libspeex-x86_64-x64-vc14-debug-dynamic:filters.obj
 0001:0008a2b0       sanitize_values32          000000014008b2b0 f   libspeex-x86_64-x64-vc14-debug-dynamic:filters.obj
 0001:0008a390       syn_percep_zero16          000000014008b390 f   libspeex-x86_64-x64-vc14-debug-dynamic:filters.obj
 0001:0008a4d0       residue_percep_zero16      000000014008b4d0 f   libspeex-x86_64-x64-vc14-debug-dynamic:filters.obj
 0001:0008a610       compute_impulse_response   000000014008b610 f   libspeex-x86_64-x64-vc14-debug-dynamic:filters.obj
 0001:0008a8f0       multicomb                  000000014008b8f0 f   libspeex-x86_64-x64-vc14-debug-dynamic:filters.obj
 0001:0008ae90       interp_pitch               000000014008be90 f   libspeex-x86_64-x64-vc14-debug-dynamic:filters.obj
 0001:0008baf0       scal_quant                 000000014008caf0 f   libspeex-x86_64-x64-vc14-debug-dynamic:vq.obj
 0001:0008bb60       scal_quant32               000000014008cb60 f   libspeex-x86_64-x64-vc14-debug-dynamic:vq.obj
 0001:0008bbd0       vq_nbest                   000000014008cbd0 f   libspeex-x86_64-x64-vc14-debug-dynamic:vq.obj
 0001:0008bd80       vq_nbest_sign              000000014008cd80 f   libspeex-x86_64-x64-vc14-debug-dynamic:vq.obj
 0001:0008c0a0       speex_inband_handler       000000014008d0a0 f   libspeex-x86_64-x64-vc14-debug-dynamic:speex_callbacks.obj
 0001:0008c190       speex_std_mode_request_handler 000000014008d190 f   libspeex-x86_64-x64-vc14-debug-dynamic:speex_callbacks.obj
 0001:0008c1e0       speex_std_high_mode_request_handler 000000014008d1e0 f   libspeex-x86_64-x64-vc14-debug-dynamic:speex_callbacks.obj
 0001:0008c230       speex_std_char_handler     000000014008d230 f   libspeex-x86_64-x64-vc14-debug-dynamic:speex_callbacks.obj
 0001:0008c280       speex_default_user_handler 000000014008d280 f   libspeex-x86_64-x64-vc14-debug-dynamic:speex_callbacks.obj
 0001:0008c2d0       speex_std_low_mode_request_handler 000000014008d2d0 f   libspeex-x86_64-x64-vc14-debug-dynamic:speex_callbacks.obj
 0001:0008c320       speex_std_vbr_request_handler 000000014008d320 f   libspeex-x86_64-x64-vc14-debug-dynamic:speex_callbacks.obj
 0001:0008c370       speex_std_enh_request_handler 000000014008d370 f   libspeex-x86_64-x64-vc14-debug-dynamic:speex_callbacks.obj
 0001:0008c3c0       speex_std_vbr_quality_request_handler 000000014008d3c0 f   libspeex-x86_64-x64-vc14-debug-dynamic:speex_callbacks.obj
 0001:0008c530       _spx_autocorr              000000014008d530 f   libspeex-x86_64-x64-vc14-debug-dynamic:lpc.obj
 0001:0008c620       _spx_lpc                   000000014008d620 f   libspeex-x86_64-x64-vc14-debug-dynamic:lpc.obj
 0001:0008c9b0       lpc_to_lsp                 000000014008d9b0 f   libspeex-x86_64-x64-vc14-debug-dynamic:lsp.obj
 0001:0008cf80       lsp_to_lpc                 000000014008df80 f   libspeex-x86_64-x64-vc14-debug-dynamic:lsp.obj
 0001:0008d2c0       lsp_enforce_margin         000000014008e2c0 f   libspeex-x86_64-x64-vc14-debug-dynamic:lsp.obj
 0001:0008d4b0       lsp_interpolate            000000014008e4b0 f   libspeex-x86_64-x64-vc14-debug-dynamic:lsp.obj
 0001:0008dae0       srtp_init                  000000014008eae0 f   libsrtp-x86_64-x64-vc14-debug-dynamic:srtp.obj
 0001:0008db30       srtp_shutdown              000000014008eb30 f   libsrtp-x86_64-x64-vc14-debug-dynamic:srtp.obj
 0001:0008db60       srtp_protect               000000014008eb60 f   libsrtp-x86_64-x64-vc14-debug-dynamic:srtp.obj
 0001:0008dba0       srtp_protect_mki           000000014008eba0 f   libsrtp-x86_64-x64-vc14-debug-dynamic:srtp.obj
 0001:0008e5c0       srtp_unprotect             000000014008f5c0 f   libsrtp-x86_64-x64-vc14-debug-dynamic:srtp.obj
 0001:0008e600       srtp_unprotect_mki         000000014008f600 f   libsrtp-x86_64-x64-vc14-debug-dynamic:srtp.obj
 0001:0008f110       srtp_create                0000000140090110 f   libsrtp-x86_64-x64-vc14-debug-dynamic:srtp.obj
 0001:0008f1f0       srtp_add_stream            00000001400901f0 f   libsrtp-x86_64-x64-vc14-debug-dynamic:srtp.obj
 0001:0008f350       srtp_remove_stream         0000000140090350 f   libsrtp-x86_64-x64-vc14-debug-dynamic:srtp.obj
 0001:0008f430       srtp_update                0000000140090430 f   libsrtp-x86_64-x64-vc14-debug-dynamic:srtp.obj
 0001:0008f4b0       srtp_update_stream         00000001400904b0 f   libsrtp-x86_64-x64-vc14-debug-dynamic:srtp.obj
 0001:0008f550       srtp_crypto_policy_set_rtp_default 0000000140090550 f   libsrtp-x86_64-x64-vc14-debug-dynamic:srtp.obj
 0001:0008f5b0       srtp_crypto_policy_set_rtcp_default 00000001400905b0 f   libsrtp-x86_64-x64-vc14-debug-dynamic:srtp.obj
 0001:0008f610       srtp_crypto_policy_set_aes_cm_128_hmac_sha1_32 0000000140090610 f   libsrtp-x86_64-x64-vc14-debug-dynamic:srtp.obj
 0001:0008f670       srtp_crypto_policy_set_aes_cm_128_null_auth 0000000140090670 f   libsrtp-x86_64-x64-vc14-debug-dynamic:srtp.obj
 0001:0008f6d0       srtp_crypto_policy_set_null_cipher_hmac_sha1_80 00000001400906d0 f   libsrtp-x86_64-x64-vc14-debug-dynamic:srtp.obj
 0001:0008f730       srtp_crypto_policy_set_null_cipher_hmac_null 0000000140090730 f   libsrtp-x86_64-x64-vc14-debug-dynamic:srtp.obj
 0001:0008f790       srtp_crypto_policy_set_aes_cm_256_hmac_sha1_80 0000000140090790 f   libsrtp-x86_64-x64-vc14-debug-dynamic:srtp.obj
 0001:0008f7f0       srtp_crypto_policy_set_aes_cm_256_hmac_sha1_32 00000001400907f0 f   libsrtp-x86_64-x64-vc14-debug-dynamic:srtp.obj
 0001:0008f850       srtp_crypto_policy_set_aes_cm_256_null_auth 0000000140090850 f   libsrtp-x86_64-x64-vc14-debug-dynamic:srtp.obj
 0001:0008f8b0       srtp_dealloc               00000001400908b0 f   libsrtp-x86_64-x64-vc14-debug-dynamic:srtp.obj
 0001:0008f950       srtp_crypto_policy_set_from_profile_for_rtp 0000000140090950 f   libsrtp-x86_64-x64-vc14-debug-dynamic:srtp.obj
 0001:0008f9c0       srtp_crypto_policy_set_from_profile_for_rtcp 00000001400909c0 f   libsrtp-x86_64-x64-vc14-debug-dynamic:srtp.obj
 0001:0008fa30       srtp_profile_get_master_key_length 0000000140090a30 f   libsrtp-x86_64-x64-vc14-debug-dynamic:srtp.obj
 0001:0008fac0       srtp_profile_get_master_salt_length 0000000140090ac0 f   libsrtp-x86_64-x64-vc14-debug-dynamic:srtp.obj
 0001:0008fb50       srtp_append_salt_to_key    0000000140090b50 f   libsrtp-x86_64-x64-vc14-debug-dynamic:srtp.obj
 0001:0008fba0       srtp_protect_rtcp          0000000140090ba0 f   libsrtp-x86_64-x64-vc14-debug-dynamic:srtp.obj
 0001:0008fbe0       srtp_protect_rtcp_mki      0000000140090be0 f   libsrtp-x86_64-x64-vc14-debug-dynamic:srtp.obj
 0001:000902b0       srtp_unprotect_rtcp        00000001400912b0 f   libsrtp-x86_64-x64-vc14-debug-dynamic:srtp.obj
 0001:000902f0       srtp_unprotect_rtcp_mki    00000001400912f0 f   libsrtp-x86_64-x64-vc14-debug-dynamic:srtp.obj
 0001:00090bd0       srtp_set_user_data         0000000140091bd0 f   libsrtp-x86_64-x64-vc14-debug-dynamic:srtp.obj
 0001:00090bf0       srtp_get_user_data         0000000140091bf0 f   libsrtp-x86_64-x64-vc14-debug-dynamic:srtp.obj
 0001:00090c10       srtp_install_event_handler 0000000140091c10 f   libsrtp-x86_64-x64-vc14-debug-dynamic:srtp.obj
 0001:00090c30       srtp_get_version_string    0000000140091c30 f   libsrtp-x86_64-x64-vc14-debug-dynamic:srtp.obj
 0001:00090c40       srtp_get_version           0000000140091c40 f   libsrtp-x86_64-x64-vc14-debug-dynamic:srtp.obj
 0001:00090cf0       srtp_set_debug_module      0000000140091cf0 f   libsrtp-x86_64-x64-vc14-debug-dynamic:srtp.obj
 0001:00090d20       srtp_list_debug_modules    0000000140091d20 f   libsrtp-x86_64-x64-vc14-debug-dynamic:srtp.obj
 0001:00090d40       srtp_install_log_handler   0000000140091d40 f   libsrtp-x86_64-x64-vc14-debug-dynamic:srtp.obj
 0001:00090da0       srtp_get_protect_trailer_length 0000000140091da0 f   libsrtp-x86_64-x64-vc14-debug-dynamic:srtp.obj
 0001:00090eb0       srtp_get_protect_rtcp_trailer_length 0000000140091eb0 f   libsrtp-x86_64-x64-vc14-debug-dynamic:srtp.obj
 0001:00090fe0       srtp_set_stream_roc        0000000140091fe0 f   libsrtp-x86_64-x64-vc14-debug-dynamic:srtp.obj
 0001:00091040       srtp_get_stream_roc        0000000140092040 f   libsrtp-x86_64-x64-vc14-debug-dynamic:srtp.obj
 0001:00091110       srtp_get_stream            0000000140092110 f   libsrtp-x86_64-x64-vc14-debug-dynamic:srtp.obj
 0001:00091160       srtp_stream_init_keys      0000000140092160 f   libsrtp-x86_64-x64-vc14-debug-dynamic:srtp.obj
 0001:00091d00       srtp_stream_init           0000000140092d00 f   libsrtp-x86_64-x64-vc14-debug-dynamic:srtp.obj
 0001:00092140       srtp_stream_alloc          0000000140093140 f   libsrtp-x86_64-x64-vc14-debug-dynamic:srtp.obj
 0001:000925d0       srtp_stream_dealloc        00000001400935d0 f   libsrtp-x86_64-x64-vc14-debug-dynamic:srtp.obj
 0001:00092900       srtp_stream_clone          0000000140093900 f   libsrtp-x86_64-x64-vc14-debug-dynamic:srtp.obj
 0001:00092f30       srtp_validate_policy_master_keys 0000000140093f30 f   libsrtp-x86_64-x64-vc14-debug-dynamic:srtp.obj
 0001:00092fe0       srtp_get_session_keys_with_mki_index 0000000140093fe0 f   libsrtp-x86_64-x64-vc14-debug-dynamic:srtp.obj
 0001:00093030       srtp_inject_mki            0000000140094030 f   libsrtp-x86_64-x64-vc14-debug-dynamic:srtp.obj
 0001:00093090       srtp_stream_init_all_master_keys 0000000140094090 f   libsrtp-x86_64-x64-vc14-debug-dynamic:srtp.obj
 0001:00093180       srtp_event_reporter        0000000140094180 f   libsrtp-x86_64-x64-vc14-debug-dynamic:srtp.obj
 0001:00093850       srtp_get_session_keys      0000000140094850 f   libsrtp-x86_64-x64-vc14-debug-dynamic:srtp.obj
 0001:000954a0       srtp_err_handler           00000001400964a0 f   libsrtp-x86_64-x64-vc14-debug-dynamic:srtp.obj
 0001:000973c0       __local_stdio_scanf_options 00000001400983c0 f i libsrtp-x86_64-x64-vc14-debug-dynamic:srtp.obj
 0001:000973d0       _vsscanf_l                 00000001400983d0 f i libsrtp-x86_64-x64-vc14-debug-dynamic:srtp.obj
 0001:00097440       sscanf                     0000000140098440 f i libsrtp-x86_64-x64-vc14-debug-dynamic:srtp.obj
 0001:000974b0       srtp_crypto_alloc          00000001400984b0 f   libsrtp-x86_64-x64-vc14-debug-dynamic:alloc.obj
 0001:00097530       srtp_crypto_free           0000000140098530 f   libsrtp-x86_64-x64-vc14-debug-dynamic:alloc.obj
 0001:000975a0       octet_get_weight           00000001400985a0 f   libsrtp-x86_64-x64-vc14-debug-dynamic:datatypes.obj
 0001:000975c0       srtp_octet_string_hex_string 00000001400985c0 f   libsrtp-x86_64-x64-vc14-debug-dynamic:datatypes.obj
 0001:000976b0       v128_bit_string            00000001400986b0 f   libsrtp-x86_64-x64-vc14-debug-dynamic:datatypes.obj
 0001:00097790       v128_hex_string            0000000140098790 f   libsrtp-x86_64-x64-vc14-debug-dynamic:datatypes.obj
 0001:00097860       v128_copy_octet_string     0000000140098860 f   libsrtp-x86_64-x64-vc14-debug-dynamic:datatypes.obj
 0001:00097ac0       v128_left_shift            0000000140098ac0 f   libsrtp-x86_64-x64-vc14-debug-dynamic:datatypes.obj
 0001:00097c80       v128_right_shift           0000000140098c80 f   libsrtp-x86_64-x64-vc14-debug-dynamic:datatypes.obj
 0001:00097e30       octet_string_is_eq         0000000140098e30 f   libsrtp-x86_64-x64-vc14-debug-dynamic:datatypes.obj
 0001:00097ed0       srtp_cleanse               0000000140098ed0 f   libsrtp-x86_64-x64-vc14-debug-dynamic:datatypes.obj
 0001:00097f30       octet_string_set_to_zero   0000000140098f30 f   libsrtp-x86_64-x64-vc14-debug-dynamic:datatypes.obj
 0001:00097f60       bitvector_alloc            0000000140098f60 f   libsrtp-x86_64-x64-vc14-debug-dynamic:datatypes.obj
 0001:00098010       bitvector_dealloc          0000000140099010 f   libsrtp-x86_64-x64-vc14-debug-dynamic:datatypes.obj
 0001:00098060       bitvector_set_to_zero      0000000140099060 f   libsrtp-x86_64-x64-vc14-debug-dynamic:datatypes.obj
 0001:000980a0       bitvector_left_shift       00000001400990a0 f   libsrtp-x86_64-x64-vc14-debug-dynamic:datatypes.obj
 0001:00098280       bitvector_bit_string       0000000140099280 f   libsrtp-x86_64-x64-vc14-debug-dynamic:datatypes.obj
 0001:00098360       srtp_nibble_to_hex_char    0000000140099360 f   libsrtp-x86_64-x64-vc14-debug-dynamic:datatypes.obj
 0001:00098780       srtp_err_reporting_init    0000000140099780 f   libsrtp-x86_64-x64-vc14-debug-dynamic:srtp_err.obj
 0001:00098790       srtp_install_err_report_handler 0000000140099790 f   libsrtp-x86_64-x64-vc14-debug-dynamic:srtp_err.obj
 0001:000987a0       srtp_err_report            00000001400997a0 f   libsrtp-x86_64-x64-vc14-debug-dynamic:srtp_err.obj
 0001:00098800       srtp_err_reporting_set_level 0000000140099800 f   libsrtp-x86_64-x64-vc14-debug-dynamic:srtp_err.obj
 0001:00098840       srtp_rdbx_init             0000000140099840 f   libsrtp-x86_64-x64-vc14-debug-dynamic:rdbx.obj
 0001:000988a0       srtp_rdbx_dealloc          00000001400998a0 f   libsrtp-x86_64-x64-vc14-debug-dynamic:rdbx.obj
 0001:000988d0       srtp_rdbx_estimate_index   00000001400998d0 f   libsrtp-x86_64-x64-vc14-debug-dynamic:rdbx.obj
 0001:00098940       srtp_rdbx_check            0000000140099940 f   libsrtp-x86_64-x64-vc14-debug-dynamic:rdbx.obj
 0001:000989e0       srtp_rdbx_add_index        00000001400999e0 f   libsrtp-x86_64-x64-vc14-debug-dynamic:rdbx.obj
 0001:00098b00       srtp_rdbx_set_roc          0000000140099b00 f   libsrtp-x86_64-x64-vc14-debug-dynamic:rdbx.obj
 0001:00098b80       srtp_rdbx_get_packet_index 0000000140099b80 f   libsrtp-x86_64-x64-vc14-debug-dynamic:rdbx.obj
 0001:00098ba0       srtp_rdbx_get_window_size  0000000140099ba0 f   libsrtp-x86_64-x64-vc14-debug-dynamic:rdbx.obj
 0001:00098bc0       srtp_index_init            0000000140099bc0 f   libsrtp-x86_64-x64-vc14-debug-dynamic:rdbx.obj
 0001:00098be0       srtp_index_advance         0000000140099be0 f   libsrtp-x86_64-x64-vc14-debug-dynamic:rdbx.obj
 0001:00098c10       srtp_index_guess           0000000140099c10 f   libsrtp-x86_64-x64-vc14-debug-dynamic:rdbx.obj
 0001:00098d30       srtp_rdbx_get_roc          0000000140099d30 f   libsrtp-x86_64-x64-vc14-debug-dynamic:rdbx.obj
 0001:00098d60       srtp_rdbx_set_roc_seq      0000000140099d60 f   libsrtp-x86_64-x64-vc14-debug-dynamic:rdbx.obj
 0001:00098f40       srtp_rdb_init              0000000140099f40 f   libsrtp-x86_64-x64-vc14-debug-dynamic:rdb.obj
 0001:00098fc0       srtp_rdb_check             0000000140099fc0 f   libsrtp-x86_64-x64-vc14-debug-dynamic:rdb.obj
 0001:00099050       srtp_rdb_add_index         000000014009a050 f   libsrtp-x86_64-x64-vc14-debug-dynamic:rdb.obj
 0001:00099120       srtp_rdb_increment         000000014009a120 f   libsrtp-x86_64-x64-vc14-debug-dynamic:rdb.obj
 0001:00099160       srtp_rdb_get_value         000000014009a160 f   libsrtp-x86_64-x64-vc14-debug-dynamic:rdb.obj
 0001:00099200       srtp_cipher_get_key_length 000000014009a200 f   libsrtp-x86_64-x64-vc14-debug-dynamic:cipher.obj
 0001:00099220       srtp_cipher_type_self_test 000000014009a220 f   libsrtp-x86_64-x64-vc14-debug-dynamic:cipher.obj
 0001:00099250       srtp_cipher_type_test      000000014009a250 f   libsrtp-x86_64-x64-vc14-debug-dynamic:cipher.obj
 0001:0009a0b0       srtp_cipher_bits_per_second 000000014009b0b0 f   libsrtp-x86_64-x64-vc14-debug-dynamic:cipher.obj
 0001:0009a230       srtp_cipher_type_alloc     000000014009b230 f   libsrtp-x86_64-x64-vc14-debug-dynamic:cipher.obj
 0001:0009a290       srtp_cipher_dealloc        000000014009b290 f   libsrtp-x86_64-x64-vc14-debug-dynamic:cipher.obj
 0001:0009a2d0       srtp_cipher_init           000000014009b2d0 f   libsrtp-x86_64-x64-vc14-debug-dynamic:cipher.obj
 0001:0009a330       srtp_cipher_set_iv         000000014009b330 f   libsrtp-x86_64-x64-vc14-debug-dynamic:cipher.obj
 0001:0009a3a0       srtp_cipher_output         000000014009b3a0 f   libsrtp-x86_64-x64-vc14-debug-dynamic:cipher.obj
 0001:0009a3f0       srtp_cipher_encrypt        000000014009b3f0 f   libsrtp-x86_64-x64-vc14-debug-dynamic:cipher.obj
 0001:0009a460       srtp_cipher_decrypt        000000014009b460 f   libsrtp-x86_64-x64-vc14-debug-dynamic:cipher.obj
 0001:0009a4d0       srtp_cipher_get_tag        000000014009b4d0 f   libsrtp-x86_64-x64-vc14-debug-dynamic:cipher.obj
 0001:0009a550       srtp_cipher_set_aad        000000014009b550 f   libsrtp-x86_64-x64-vc14-debug-dynamic:cipher.obj
 0001:0009ab40       srtp_auth_get_key_length   000000014009bb40 f   libsrtp-x86_64-x64-vc14-debug-dynamic:auth.obj
 0001:0009ab60       srtp_auth_get_tag_length   000000014009bb60 f   libsrtp-x86_64-x64-vc14-debug-dynamic:auth.obj
 0001:0009ab80       srtp_auth_get_prefix_length 000000014009bb80 f   libsrtp-x86_64-x64-vc14-debug-dynamic:auth.obj
 0001:0009aba0       srtp_auth_type_self_test   000000014009bba0 f   libsrtp-x86_64-x64-vc14-debug-dynamic:auth.obj
 0001:0009abd0       srtp_auth_type_test        000000014009bbd0 f   libsrtp-x86_64-x64-vc14-debug-dynamic:auth.obj
 0001:0009b060       srtp_key_limit_set         000000014009c060 f   libsrtp-x86_64-x64-vc14-debug-dynamic:key.obj
 0001:0009b0a0       srtp_key_limit_clone       000000014009c0a0 f   libsrtp-x86_64-x64-vc14-debug-dynamic:key.obj
 0001:0009b0d0       srtp_key_limit_check       000000014009c0d0 f   libsrtp-x86_64-x64-vc14-debug-dynamic:key.obj
 0001:0009b0f0       srtp_key_limit_update      000000014009c0f0 f   libsrtp-x86_64-x64-vc14-debug-dynamic:key.obj
 0001:0009b1a0       srtp_replace_cipher_type   000000014009c1a0 f   libsrtp-x86_64-x64-vc14-debug-dynamic:crypto_kernel.obj
 0001:0009b1d0       srtp_replace_auth_type     000000014009c1d0 f   libsrtp-x86_64-x64-vc14-debug-dynamic:crypto_kernel.obj
 0001:0009b200       srtp_crypto_kernel_init    000000014009c200 f   libsrtp-x86_64-x64-vc14-debug-dynamic:crypto_kernel.obj
 0001:0009b3d0       srtp_crypto_kernel_shutdown 000000014009c3d0 f   libsrtp-x86_64-x64-vc14-debug-dynamic:crypto_kernel.obj
 0001:0009b510       srtp_crypto_kernel_status  000000014009c510 f   libsrtp-x86_64-x64-vc14-debug-dynamic:crypto_kernel.obj
 0001:0009b670       srtp_crypto_kernel_list_debug_modules 000000014009c670 f   libsrtp-x86_64-x64-vc14-debug-dynamic:crypto_kernel.obj
 0001:0009b710       srtp_crypto_kernel_load_cipher_type 000000014009c710 f   libsrtp-x86_64-x64-vc14-debug-dynamic:crypto_kernel.obj
 0001:0009b740       srtp_crypto_kernel_load_auth_type 000000014009c740 f   libsrtp-x86_64-x64-vc14-debug-dynamic:crypto_kernel.obj
 0001:0009b770       srtp_crypto_kernel_load_debug_module 000000014009c770 f   libsrtp-x86_64-x64-vc14-debug-dynamic:crypto_kernel.obj
 0001:0009b830       srtp_crypto_kernel_alloc_cipher 000000014009c830 f   libsrtp-x86_64-x64-vc14-debug-dynamic:crypto_kernel.obj
 0001:0009b8a0       srtp_crypto_kernel_alloc_auth 000000014009c8a0 f   libsrtp-x86_64-x64-vc14-debug-dynamic:crypto_kernel.obj
 0001:0009b910       srtp_crypto_kernel_set_debug_module 000000014009c910 f   libsrtp-x86_64-x64-vc14-debug-dynamic:crypto_kernel.obj
 0001:0009baf0       srtp_crypto_kernel_do_load_auth_type 000000014009caf0 f   libsrtp-x86_64-x64-vc14-debug-dynamic:crypto_kernel.obj
 0001:0009bc50       srtp_crypto_kernel_get_cipher_type 000000014009cc50 f   libsrtp-x86_64-x64-vc14-debug-dynamic:crypto_kernel.obj
 0001:0009bca0       srtp_crypto_kernel_get_auth_type 000000014009cca0 f   libsrtp-x86_64-x64-vc14-debug-dynamic:crypto_kernel.obj
 0001:0009bfc0       srtp_ekt_octets_after_base_tag 000000014009cfc0 f   libsrtp-x86_64-x64-vc14-debug-dynamic:ekt.obj
 0001:0009c000       srtp_ekt_alloc             000000014009d000 f   libsrtp-x86_64-x64-vc14-debug-dynamic:ekt.obj
 0001:0009c040       srtp_ekt_stream_init_from_policy 000000014009d040 f   libsrtp-x86_64-x64-vc14-debug-dynamic:ekt.obj
 0001:0009c060       srtp_stream_init_from_ekt  000000014009d060 f   libsrtp-x86_64-x64-vc14-debug-dynamic:ekt.obj
 0001:0009c1b0       srtp_ekt_write_data        000000014009d1b0 f   libsrtp-x86_64-x64-vc14-debug-dynamic:ekt.obj
 0001:0009c480       aes_decrypt_with_raw_key   000000014009d480 f   libsrtp-x86_64-x64-vc14-debug-dynamic:ekt.obj
 0001:0009c500       srtcp_ekt_trailer          000000014009d500 f   libsrtp-x86_64-x64-vc14-debug-dynamic:ekt.obj
 0001:0009c670       stat_test_monobit          000000014009d670 f   libsrtp-x86_64-x64-vc14-debug-dynamic:stat.obj
 0001:0009c720       stat_test_poker            000000014009d720 f   libsrtp-x86_64-x64-vc14-debug-dynamic:stat.obj
 0001:0009c920       stat_test_runs             000000014009d920 f   libsrtp-x86_64-x64-vc14-debug-dynamic:stat.obj
 0001:0009ebe0       srtp_aes_expand_encryption_key 000000014009fbe0 f   libsrtp-x86_64-x64-vc14-debug-dynamic:aes.obj
 0001:0009ec50       srtp_aes_expand_decryption_key 000000014009fc50 f   libsrtp-x86_64-x64-vc14-debug-dynamic:aes.obj
 0001:0009f470       srtp_aes_encrypt           00000001400a0470 f   libsrtp-x86_64-x64-vc14-debug-dynamic:aes.obj
 0001:0009f7b0       srtp_aes_decrypt           00000001400a07b0 f   libsrtp-x86_64-x64-vc14-debug-dynamic:aes.obj
 0001:000a1910       srtp_sha1_init             00000001400a2910 f   libsrtp-x86_64-x64-vc14-debug-dynamic:sha1.obj
 0001:000a19a0       srtp_sha1_update           00000001400a29a0 f   libsrtp-x86_64-x64-vc14-debug-dynamic:sha1.obj
 0001:000a1b50       srtp_sha1_final            00000001400a2b50 f   libsrtp-x86_64-x64-vc14-debug-dynamic:sha1.obj
 0001:000a2750       srtp_sha1_core             00000001400a3750 f   libsrtp-x86_64-x64-vc14-debug-dynamic:sha1.obj
 0001:000a3380       srtp_sha1                  00000001400a4380 f   libsrtp-x86_64-x64-vc14-debug-dynamic:sha1.obj
 0001:000a3aae       CoCreateGuid               00000001400a4aae f   ole32:ole32.dll
 0001:000a3ab4       WSAStartup                 00000001400a4ab4 f   ws2_32:WS2_32.dll
 0001:000a3aba       WSACleanup                 00000001400a4aba f   ws2_32:WS2_32.dll
 0001:000a3ac0       WSAGetLastError            00000001400a4ac0 f   ws2_32:WS2_32.dll
 0001:000a3ac6       accept                     00000001400a4ac6 f   ws2_32:WS2_32.dll
 0001:000a3acc       bind                       00000001400a4acc f   ws2_32:WS2_32.dll
 0001:000a3ad2       closesocket                00000001400a4ad2 f   ws2_32:WS2_32.dll
 0001:000a3ad8       connect                    00000001400a4ad8 f   ws2_32:WS2_32.dll
 0001:000a3ade       getpeername                00000001400a4ade f   ws2_32:WS2_32.dll
 0001:000a3ae4       getsockname                00000001400a4ae4 f   ws2_32:WS2_32.dll
 0001:000a3aea       getsockopt                 00000001400a4aea f   ws2_32:WS2_32.dll
 0001:000a3af0       htonl                      00000001400a4af0 f   ws2_32:WS2_32.dll
 0001:000a3af6       htons                      00000001400a4af6 f   ws2_32:WS2_32.dll
 0001:000a3afc       inet_addr                  00000001400a4afc f   ws2_32:WS2_32.dll
 0001:000a3b02       inet_ntoa                  00000001400a4b02 f   ws2_32:WS2_32.dll
 0001:000a3b08       listen                     00000001400a4b08 f   ws2_32:WS2_32.dll
 0001:000a3b0e       ntohl                      00000001400a4b0e f   ws2_32:WS2_32.dll
 0001:000a3b14       ntohs                      00000001400a4b14 f   ws2_32:WS2_32.dll
 0001:000a3b1a       recv                       00000001400a4b1a f   ws2_32:WS2_32.dll
 0001:000a3b20       recvfrom                   00000001400a4b20 f   ws2_32:WS2_32.dll
 0001:000a3b26       send                       00000001400a4b26 f   ws2_32:WS2_32.dll
 0001:000a3b2c       sendto                     00000001400a4b2c f   ws2_32:WS2_32.dll
 0001:000a3b32       setsockopt                 00000001400a4b32 f   ws2_32:WS2_32.dll
 0001:000a3b38       shutdown                   00000001400a4b38 f   ws2_32:WS2_32.dll
 0001:000a3b3e       gethostname                00000001400a4b3e f   ws2_32:WS2_32.dll
 0001:000a3b44       WSAIoctl                   00000001400a4b44 f   ws2_32:WS2_32.dll
 0001:000a3b4a       WSASocketA                 00000001400a4b4a f   ws2_32:WS2_32.dll
 0001:000a3b50       WSAAddressToStringA        00000001400a4b50 f   ws2_32:WS2_32.dll
 0001:000a3b56       WSAStringToAddressA        00000001400a4b56 f   ws2_32:WS2_32.dll
 0001:000a3b5c       WSASetLastError            00000001400a4b5c f   ws2_32:WS2_32.dll
 0001:000a3b62       ioctlsocket                00000001400a4b62 f   ws2_32:WS2_32.dll
 0001:000a3b68       gethostbyname              00000001400a4b68 f   ws2_32:WS2_32.dll
 0001:000a3b6e       __WSAFDIsSet               00000001400a4b6e f   ws2_32:WS2_32.dll
 0001:000a3b74       select                     00000001400a4b74 f   ws2_32:WS2_32.dll
 0001:000a3b80       __GSHandlerCheck           00000001400a4b80 f   MSVCRTD:gshandler.obj
 0001:000a3bd0       __GSHandlerCheckCommon     00000001400a4bd0 f   MSVCRTD:gshandler.obj
 0001:000a3d20       _alloca_probe              00000001400a4d20 f   MSVCRTD:chkstk.obj
 0001:000a3d20       __chkstk                   00000001400a4d20 f   MSVCRTD:chkstk.obj
 0001:000a3da0       __security_check_cookie    00000001400a4da0 f   MSVCRTD:amdsecgs.obj
 0001:000a4120       ?configure_argv@__scrt_narrow_argv_policy@@SAHXZ 00000001400a5120 f i MSVCRTD:exe_main.obj
 0001:000a4140       ?initialize_environment@__scrt_narrow_environment_policy@@SAHXZ 00000001400a5140 f i MSVCRTD:exe_main.obj
 0001:000a41b0       ?set_app_type@__scrt_main_policy@@SAXXZ 00000001400a51b0 f i MSVCRTD:exe_main.obj
 0001:000a41d0       ?set_commode@__scrt_file_policy@@SAXXZ 00000001400a51d0 f i MSVCRTD:exe_main.obj
 0001:000a4200       ?set_fmode@__scrt_file_policy@@SAXXZ 00000001400a5200 f i MSVCRTD:exe_main.obj
 0001:000a4220       mainCRTStartup             00000001400a5220 f   MSVCRTD:exe_main.obj
 0001:000a4240       __raise_securityfailure    00000001400a5240 f   MSVCRTD:gs_report.obj
 0001:000a4290       __report_gsfailure         00000001400a5290 f   MSVCRTD:gs_report.obj
 0001:000a43a0       __report_rangecheckfailure 00000001400a53a0 f   MSVCRTD:gs_report.obj
 0001:000a43c0       __report_securityfailure   00000001400a53c0 f   MSVCRTD:gs_report.obj
 0001:000a4490       __report_securityfailureEx 00000001400a5490 f   MSVCRTD:gs_report.obj
 0001:000a4940       NtCurrentTeb               00000001400a5940 f i MSVCRTD:utility.obj
 0001:000a4950       __scrt_acquire_startup_lock 00000001400a5950 f   MSVCRTD:utility.obj
 0001:000a49d0       __scrt_dllmain_after_initialize_c 00000001400a59d0 f   MSVCRTD:utility.obj
 0001:000a4a10       __scrt_dllmain_before_initialize_c 00000001400a5a10 f   MSVCRTD:utility.obj
 0001:000a4a40       __scrt_dllmain_crt_thread_attach 00000001400a5a40 f   MSVCRTD:utility.obj
 0001:000a4a80       __scrt_dllmain_crt_thread_detach 00000001400a5a80 f   MSVCRTD:utility.obj
 0001:000a4aa0       __scrt_dllmain_exception_filter 00000001400a5aa0 f   MSVCRTD:utility.obj
 0001:000a4b20       __scrt_dllmain_uninitialize_c 00000001400a5b20 f   MSVCRTD:utility.obj
 0001:000a4b60       __scrt_dllmain_uninitialize_critical 00000001400a5b60 f   MSVCRTD:utility.obj
 0001:000a4b80       __scrt_initialize_crt      00000001400a5b80 f   MSVCRTD:utility.obj
 0001:000a4be0       __scrt_initialize_onexit_tables 00000001400a5be0 f   MSVCRTD:utility.obj
 0001:000a4d30       __scrt_is_nonwritable_in_current_image 00000001400a5d30 f   MSVCRTD:utility.obj
 0001:000a4de0       __scrt_release_startup_lock 00000001400a5de0 f   MSVCRTD:utility.obj
 0001:000a4e20       __scrt_uninitialize_crt    00000001400a5e20 f   MSVCRTD:utility.obj
 0001:000a4e70       _onexit                    00000001400a5e70 f   MSVCRTD:utility.obj
 0001:000a4f10       at_quick_exit              00000001400a5f10 f   MSVCRTD:utility.obj
 0001:000a4f70       atexit                     00000001400a5f70 f   MSVCRTD:utility.obj
 0001:000a50a0       __security_init_cookie     00000001400a60a0 f   MSVCRTD:gs_support.obj
 0001:000a5140       _matherr                   00000001400a6140 f   MSVCRTD:matherr.obj
 0001:000a5150       _get_startup_argv_mode     00000001400a6150 f   MSVCRTD:argv_mode.obj
 0001:000a5160       _get_startup_commit_mode   00000001400a6160 f   MSVCRTD:commit_mode.obj
 0001:000a5170       _get_startup_file_mode     00000001400a6170 f   MSVCRTD:file_mode.obj
 0001:000a5180       _get_startup_new_mode      00000001400a6180 f   MSVCRTD:new_mode.obj
 0001:000a5190       _get_startup_thread_locale_mode 00000001400a6190 f   MSVCRTD:thread_locale.obj
 0001:000a51a0       ?__scrt_initialize_type_info@@YAXXZ 00000001400a61a0 f   MSVCRTD:tncleanup.obj
 0001:000a51c0       ?__scrt_uninitialize_type_info@@YAXXZ 00000001400a61c0 f   MSVCRTD:tncleanup.obj
 0001:000a51e0       _should_initialize_environment 00000001400a61e0 f   MSVCRTD:env_mode.obj
 0001:000a51f0       _initialize_invalid_parameter_handler 00000001400a61f0 f   MSVCRTD:invalid_parameter_handler.obj
 0001:000a5200       _initialize_denormal_control 00000001400a6200 f   MSVCRTD:denormal_control.obj
 0001:000a5210       __scrt_initialize_default_local_stdio_options 00000001400a6210 f   MSVCRTD:default_local_stdio_options.obj
 0001:000a5270       __scrt_is_user_matherr_present 00000001400a6270 f   MSVCRTD:matherr_detection.obj
 0001:000a52a0       __scrt_get_dyn_tls_init_callback 00000001400a62a0 f   MSVCRTD:dyn_tls_init.obj
 0001:000a52b0       __scrt_get_dyn_tls_dtor_callback 00000001400a62b0 f   MSVCRTD:dyn_tls_dtor.obj
 0001:000a52c0       __crt_debugger_hook        00000001400a62c0 f   MSVCRTD:utility_desktop.obj
 0001:000a52e0       __scrt_fastfail            00000001400a62e0 f   MSVCRTD:utility_desktop.obj
 0001:000a54e0       __scrt_get_show_window_mode 00000001400a64e0 f   MSVCRTD:utility_desktop.obj
 0001:000a5550       __scrt_initialize_mta      00000001400a6550 f   MSVCRTD:utility_desktop.obj
 0001:000a5570       __scrt_initialize_winrt    00000001400a6570 f   MSVCRTD:utility_desktop.obj
 0001:000a5580       __scrt_is_managed_app      00000001400a6580 f   MSVCRTD:utility_desktop.obj
 0001:000a5650       __scrt_set_unhandled_exception_filter 00000001400a6650 f   MSVCRTD:utility_desktop.obj
 0001:000a5670       __scrt_stub_for_initialize_mta 00000001400a6670 f   MSVCRTD:utility_desktop.obj
 0001:000a5670       __scrt_exe_initialize_mta  00000001400a6670 f   MSVCRTD:utility_desktop.obj
 0001:000a5680       __scrt_unhandled_exception_filter 00000001400a6680 f   MSVCRTD:utility_desktop.obj
 0001:000a5740       _RTC_Initialize            00000001400a6740 f   MSVCRTD:initsect.obj
 0001:000a57a0       _RTC_Terminate             00000001400a67a0 f   MSVCRTD:initsect.obj
 0001:000a5800       _guard_check_icall_nop     00000001400a6800 f i MSVCRTD:guard_support.obj
 0001:000a5810       ReadNoFence64              00000001400a6810 f i MSVCRTD:guard_support.obj
 0001:000a5840       ReadPointerNoFence         00000001400a6840 f i MSVCRTD:guard_support.obj
 0001:000a5860       __castguard_check_failure_debugbreak 00000001400a6860 f i MSVCRTD:guard_support.obj
 0001:000a5890       __castguard_check_failure_fastfail 00000001400a6890 f i MSVCRTD:guard_support.obj
 0001:000a58c0       __castguard_check_failure_nop 00000001400a68c0 f i MSVCRTD:guard_support.obj
 0001:000a58d0       __castguard_check_failure_os_handled 00000001400a68d0 f i MSVCRTD:guard_support.obj
 0001:000a59c0       __castguard_slow_path_check_debugbreak 00000001400a69c0 f i MSVCRTD:guard_support.obj
 0001:000a5a10       __castguard_slow_path_check_fastfail 00000001400a6a10 f i MSVCRTD:guard_support.obj
 0001:000a5a70       __castguard_slow_path_check_nop 00000001400a6a70 f i MSVCRTD:guard_support.obj
 0001:000a5a90       __castguard_slow_path_check_os_handled 00000001400a6a90 f i MSVCRTD:guard_support.obj
 0001:000a5ba0       _guard_icall_checks_enforced 00000001400a6ba0 f i MSVCRTD:guard_support.obj
 0001:000a5bf0       _guard_rf_checks_enforced  00000001400a6bf0 f i MSVCRTD:guard_support.obj
 0001:000a5c00       __isa_available_init       00000001400a6c00 f   MSVCRTD:cpu_disp.obj
 0001:000a6080       __scrt_is_ucrt_dll_in_use  00000001400a7080 f   MSVCRTD:ucrt_detection.obj
 0001:000a6400       compute_stereo_width       00000001400a7400 f   opus:opus_encoder.obj
 0001:000a6c70       downmix_float              00000001400a7c70 f   opus:opus_encoder.obj
 0001:000a7140       downmix_int                00000001400a8140 f   opus:opus_encoder.obj
 0001:000a7970       frame_size_select          00000001400a8970 f   opus:opus_encoder.obj
 0001:000a81d0       is_digital_silence         00000001400a91d0 f   opus:opus_encoder.obj
 0001:000a8310       opus_encode                00000001400a9310 f   opus:opus_encoder.obj
 0001:000a84b0       opus_encode_float          00000001400a94b0 f   opus:opus_encoder.obj
 0001:000a8580       opus_encode_native         00000001400a9580 f   opus:opus_encoder.obj
 0001:000ab660       opus_encoder_create        00000001400ac660 f   opus:opus_encoder.obj
 0001:000ab7c0       opus_encoder_ctl           00000001400ac7c0 f   opus:opus_encoder.obj
 0001:000ac160       opus_encoder_destroy       00000001400ad160 f   opus:opus_encoder.obj
 0001:000ac170       opus_encoder_get_size      00000001400ad170 f   opus:opus_encoder.obj
 0001:000ac1d0       opus_encoder_init          00000001400ad1d0 f   opus:opus_encoder.obj
 0001:000ad180       opus_decode                00000001400ae180 f   opus:opus_decoder.obj
 0001:000ad390       opus_decode_float          00000001400ae390 f   opus:opus_decoder.obj
 0001:000ae2f0       opus_decode_native         00000001400af2f0 f   opus:opus_decoder.obj
 0001:000ae790       opus_decoder_create        00000001400af790 f   opus:opus_decoder.obj
 0001:000aea30       opus_decoder_ctl           00000001400afa30 f   opus:opus_decoder.obj
 0001:000aecf0       opus_decoder_destroy       00000001400afcf0 f   opus:opus_decoder.obj
 0001:000aed00       opus_decoder_get_nb_samples 00000001400afd00 f   opus:opus_decoder.obj
 0001:000aedc0       opus_decoder_get_size      00000001400afdc0 f   opus:opus_decoder.obj
 0001:000aee20       opus_decoder_init          00000001400afe20 f   opus:opus_decoder.obj
 0001:000aefc0       opus_packet_get_bandwidth  00000001400affc0 f   opus:opus_decoder.obj
 0001:000af020       opus_packet_get_nb_channels 00000001400b0020 f   opus:opus_decoder.obj
 0001:000af040       opus_packet_get_nb_frames  00000001400b0040 f   opus:opus_decoder.obj
 0001:000af090       opus_packet_get_nb_samples 00000001400b0090 f   opus:opus_decoder.obj
 0001:000af600       opus_multistream_packet_pad 00000001400b0600 f   opus:repacketizer.obj
 0001:000af880       opus_multistream_packet_unpad 00000001400b0880 f   opus:repacketizer.obj
 0001:000afb50       opus_packet_pad            00000001400b0b50 f   opus:repacketizer.obj
 0001:000afd10       opus_packet_unpad          00000001400b0d10 f   opus:repacketizer.obj
 0001:000afe90       opus_repacketizer_cat      00000001400b0e90 f   opus:repacketizer.obj
 0001:000affb0       opus_repacketizer_create   00000001400b0fb0 f   opus:repacketizer.obj
 0001:000affe0       opus_repacketizer_destroy  00000001400b0fe0 f   opus:repacketizer.obj
 0001:000afff0       opus_repacketizer_get_nb_frames 00000001400b0ff0 f   opus:repacketizer.obj
 0001:000b0000       opus_repacketizer_get_size 00000001400b1000 f   opus:repacketizer.obj
 0001:000b0010       opus_repacketizer_init     00000001400b1010 f   opus:repacketizer.obj
 0001:000b0020       opus_repacketizer_out      00000001400b1020 f   opus:repacketizer.obj
 0001:000b0050       opus_repacketizer_out_range 00000001400b1050 f   opus:repacketizer.obj
 0001:000b0080       opus_repacketizer_out_range_impl 00000001400b1080 f   opus:repacketizer.obj
 0001:000b0c40       celt_encode_with_ec        00000001400b1c40 f   opus:celt_encoder.obj
 0001:000b45c0       celt_encoder_get_size      00000001400b55c0 f   opus:celt_encoder.obj
 0001:000b4610       celt_encoder_init          00000001400b5610 f   opus:celt_encoder.obj
 0001:000b4870       celt_preemphasis           00000001400b5870 f   opus:celt_encoder.obj
 0001:000b7e60       opus_custom_encoder_ctl    00000001400b8e60 f   opus:celt_encoder.obj
 0001:000ba910       ec_enc_bit_logp            00000001400bb910 f   opus:entenc.obj
 0001:000ba950       ec_enc_bits                00000001400bb950 f   opus:entenc.obj
 0001:000baa10       ec_enc_done                00000001400bba10 f   opus:entenc.obj
 0001:000bad30       ec_enc_icdf                00000001400bbd30 f   opus:entenc.obj
 0001:000badb0       ec_enc_init                00000001400bbdb0 f   opus:entenc.obj
 0001:000baf00       ec_enc_patch_initial_bits  00000001400bbf00 f   opus:entenc.obj
 0001:000bafb0       ec_enc_shrink              00000001400bbfb0 f   opus:entenc.obj
 0001:000bb000       ec_enc_uint                00000001400bc000 f   opus:entenc.obj
 0001:000bb180       ec_encode                  00000001400bc180 f   opus:entenc.obj
 0001:000bb1e0       ec_encode_bin              00000001400bc1e0 f   opus:entenc.obj
 0001:000bb250       opus_select_arch           00000001400bc250 f   opus:x86cpu.obj
 0001:000bb330       silk_Encode                00000001400bc330 f   opus:enc_API.obj
 0001:000bc7f0       silk_Get_Encoder_Size      00000001400bd7f0 f   opus:enc_API.obj
 0001:000bc800       silk_InitEncoder           00000001400bd800 f   opus:enc_API.obj
 0001:000bc9a0       celt_inner_prod_sse        00000001400bd9a0 f   opus:pitch_sse.obj
 0001:000bcb20       comb_filter_const_sse      00000001400bdb20 f   opus:pitch_sse.obj
 0001:000bcc20       dual_inner_prod_sse        00000001400bdc20 f   opus:pitch_sse.obj
 0001:000bce90       xcorr_kernel_sse           00000001400bde90 f   opus:pitch_sse.obj
 0001:000bd4b0       run_analysis               00000001400be4b0 f   opus:analysis.obj
 0001:000c17c0       tonality_analysis_init     00000001400c27c0 f   opus:analysis.obj
 0001:000c1810       tonality_analysis_reset    00000001400c2810 f   opus:analysis.obj
 0001:000c1830       tonality_get_info          00000001400c2830 f   opus:analysis.obj
 0001:000c1dd0       silk_lin2log               00000001400c2dd0 f   opus:lin2log.obj
 0001:000c1e50       silk_log2lin               00000001400c2e50 f   opus:log2lin.obj
 0001:000c3650       celt_decode_with_ec        00000001400c4650 f   opus:celt_decoder.obj
 0001:000c4e40       celt_decoder_get_size      00000001400c5e40 f   opus:celt_decoder.obj
 0001:000c4e90       celt_decoder_init          00000001400c5e90 f   opus:celt_decoder.obj
 0001:000c60b0       opus_custom_decoder_ctl    00000001400c70b0 f   opus:celt_decoder.obj
 0001:000c6410       ec_dec_bit_logp            00000001400c7410 f   opus:entdec.obj
 0001:000c6470       ec_dec_bits                00000001400c7470 f   opus:entdec.obj
 0001:000c6510       ec_dec_icdf                00000001400c7510 f   opus:entdec.obj
 0001:000c6580       ec_dec_init                00000001400c7580 f   opus:entdec.obj
 0001:000c66c0       ec_dec_uint                00000001400c76c0 f   opus:entdec.obj
 0001:000c68a0       ec_dec_update              00000001400c78a0 f   opus:entdec.obj
 0001:000c68e0       ec_decode                  00000001400c78e0 f   opus:entdec.obj
 0001:000c6930       ec_decode_bin              00000001400c7930 f   opus:entdec.obj
 0001:000c6990       encode_size                00000001400c7990 f   opus:opus.obj
 0001:000c69d0       opus_packet_get_samples_per_frame 00000001400c79d0 f   opus:opus.obj
 0001:000c6a70       opus_packet_parse          00000001400c7a70 f   opus:opus.obj
 0001:000c6ac0       opus_packet_parse_impl     00000001400c7ac0 f   opus:opus.obj
 0001:000c6fd0       opus_pcm_soft_clip         00000001400c7fd0 f   opus:opus.obj
 0001:000c7ae0       silk_Decode                00000001400c8ae0 f   opus:dec_API.obj
 0001:000c8810       silk_Get_Decoder_Size      00000001400c9810 f   opus:dec_API.obj
 0001:000c8820       silk_InitDecoder           00000001400c9820 f   opus:dec_API.obj
 0001:000c8890       clt_mdct_backward_c        00000001400c9890 f   opus:mdct.obj
 0001:000c9390       clt_mdct_forward_c         00000001400ca390 f   opus:mdct.obj
 0001:000ca0f0       opus_custom_mode_create    00000001400cb0f0 f   opus:modes.obj
 0001:000ca1b0       ec_tell_frac               00000001400cb1b0 f   opus:entcode.obj
 0001:000ca200       comb_filter                00000001400cb200 f   opus:celt.obj
 0001:000cac30       init_caps                  00000001400cbc30 f   opus:celt.obj
 0001:000cad10       opus_get_version_string    00000001400cbd10 f   opus:celt.obj
 0001:000cad20       opus_strerror              00000001400cbd20 f   opus:celt.obj
 0001:000cad50       resampling_factor          00000001400cbd50 f   opus:celt.obj
 0001:000cb0f0       celt_pitch_xcorr_c         00000001400cc0f0 f   opus:pitch.obj
 0001:000cb830       pitch_downsample           00000001400cc830 f   opus:pitch.obj
 0001:000cbd10       pitch_search               00000001400ccd10 f   opus:pitch.obj
 0001:000cc1e0       remove_doubling            00000001400cd1e0 f   opus:pitch.obj
 0001:000cc8e0       clt_compute_allocation     00000001400cd8e0 f   opus:rate.obj
 0001:000cdda0       anti_collapse              00000001400ceda0 f   opus:bands.obj
 0001:000ce250       bitexact_cos               00000001400cf250 f   opus:bands.obj
 0001:000ce2d0       bitexact_log2tan           00000001400cf2d0 f   opus:bands.obj
 0001:000ce3a0       celt_lcg_rand              00000001400cf3a0 f   opus:bands.obj
 0001:000ce3b0       compute_band_energies      00000001400cf3b0 f   opus:bands.obj
 0001:000cf3e0       denormalise_bands          00000001400d03e0 f   opus:bands.obj
 0001:000cf630       haar1                      00000001400d0630 f   opus:bands.obj
 0001:000cf900       hysteresis_decision        00000001400d0900 f   opus:bands.obj
 0001:000d0050       normalise_bands            00000001400d1050 f   opus:bands.obj
 0001:000d0210       quant_all_bands            00000001400d1210 f   opus:bands.obj
 0001:000d3070       spreading_decision         00000001400d4070 f   opus:bands.obj
 0001:000d3b80       amp2Log2                   00000001400d4b80 f   opus:quant_bands.obj
 0001:000d3d40       quant_coarse_energy        00000001400d4d40 f   opus:quant_bands.obj
 0001:000d4ae0       quant_energy_finalise      00000001400d5ae0 f   opus:quant_bands.obj
 0001:000d4d40       quant_fine_energy          00000001400d5d40 f   opus:quant_bands.obj
 0001:000d4f90       unquant_coarse_energy      00000001400d5f90 f   opus:quant_bands.obj
 0001:000d5210       unquant_energy_finalise    00000001400d6210 f   opus:quant_bands.obj
 0001:000d53e0       unquant_fine_energy        00000001400d63e0 f   opus:quant_bands.obj
 0001:000d5530       silk_resampler             00000001400d6530 f   opus:resampler.obj
 0001:000d5720       silk_resampler_init        00000001400d6720 f   opus:resampler.obj
 0001:000d5ca0       silk_stereo_LR_to_MS       00000001400d6ca0 f   opus:stereo_LR_to_MS.obj
 0001:000d66f0       silk_stereo_encode_mid_only 00000001400d76f0 f   opus:stereo_encode_pred.obj
 0001:000d6710       silk_stereo_encode_pred    00000001400d7710 f   opus:stereo_encode_pred.obj
 0001:000d67c0       check_control_input        00000001400d77c0 f   opus:check_control_input.obj
 0001:000d6950       silk_control_SNR           00000001400d7950 f   opus:control_SNR.obj
 0001:000d6a30       silk_encode_pulses         00000001400d7a30 f   opus:encode_pulses.obj
 0001:000d70b0       silk_encode_indices        00000001400d80b0 f   opus:encode_indices.obj
 0001:000d7580       silk_HP_variable_cutoff    00000001400d8580 f   opus:HP_variable_cutoff.obj
 0001:000d79f0       silk_encode_do_VAD_FLP     00000001400d89f0 f   opus:encode_frame_FLP.obj
 0001:000d7ae0       silk_encode_frame_FLP      00000001400d8ae0 f   opus:encode_frame_FLP.obj
 0001:000d89f0       silk_init_encoder          00000001400d99f0 f   opus:init_encoder.obj
 0001:000d8a60       silk_control_encoder       00000001400d9a60 f   opus:control_codec.obj
 0001:000db020       opus_fft_c                 00000001400dc020 f   opus:kiss_fft.obj
 0001:000db290       opus_fft_impl              00000001400dc290 f   opus:kiss_fft.obj
 0001:000db470       opus_ifft_c                00000001400dc470 f   opus:kiss_fft.obj
 0001:000db750       compute_dense              00000001400dc750 f   opus:mlp.obj
 0001:000dbd80       compute_gru                00000001400dcd80 f   opus:mlp.obj
 0001:000dcc90       _celt_autocorr             00000001400ddc90 f   opus:celt_lpc.obj
 0001:000dd110       _celt_lpc                  00000001400de110 f   opus:celt_lpc.obj
 0001:000dd580       celt_fir_c                 00000001400de580 f   opus:celt_lpc.obj
 0001:000dd8c0       celt_iir                   00000001400de8c0 f   opus:celt_lpc.obj
 0001:000de000       alg_quant                  00000001400df000 f   opus:vq.obj
 0001:000de1b0       alg_unquant                00000001400df1b0 f   opus:vq.obj
 0001:000de310       exp_rotation               00000001400df310 f   opus:vq.obj
 0001:000de9f0       op_pvq_search_c            00000001400df9f0 f   opus:vq.obj
 0001:000dee20       renormalise_vector         00000001400dfe20 f   opus:vq.obj
 0001:000def90       stereo_itheta              00000001400dff90 f   opus:vq.obj
 0001:000df350       silk_stereo_MS_to_LR       00000001400e0350 f   opus:stereo_MS_to_LR.obj
 0001:000df760       silk_stereo_decode_mid_only 00000001400e0760 f   opus:stereo_decode_pred.obj
 0001:000df790       silk_stereo_decode_pred    00000001400e0790 f   opus:stereo_decode_pred.obj
 0001:000df940       silk_init_decoder          00000001400e0940 f   opus:init_decoder.obj
 0001:000df9c0       silk_decoder_set_fs        00000001400e09c0 f   opus:decoder_set_fs.obj
 0001:000dfbd0       silk_decode_frame          00000001400e0bd0 f   opus:decode_frame.obj
 0001:000dfe70       silk_decode_indices        00000001400e0e70 f   opus:decode_indices.obj
 0001:000e0330       silk_decode_pulses         00000001400e1330 f   opus:decode_pulses.obj
 0001:000e0640       isqrt32                    00000001400e1640 f   opus:mathops.obj
 0001:000e06b0       ec_laplace_decode          00000001400e16b0 f   opus:laplace.obj
 0001:000e07b0       ec_laplace_encode          00000001400e17b0 f   opus:laplace.obj
 0001:000e08d0       silk_resampler_private_IIR_FIR 00000001400e18d0 f   opus:resampler_private_IIR_FIR.obj
 0001:000e0b70       silk_resampler_private_down_FIR 00000001400e1b70 f   opus:resampler_private_down_FIR.obj
 0001:000e1510       silk_resampler_private_up2_HQ 00000001400e2510 f   opus:resampler_private_up2_HQ.obj
 0001:000e16f0       silk_resampler_private_up2_HQ_wrapper 00000001400e26f0 f   opus:resampler_private_up2_HQ.obj
 0001:000e18f0       silk_stereo_find_predictor 00000001400e28f0 f   opus:stereo_find_predictor.obj
 0001:000e1b20       silk_stereo_quant_pred     00000001400e2b20 f   opus:stereo_quant_pred.obj
 0001:000e1d20       silk_decode_signs          00000001400e2d20 f   opus:code_signs.obj
 0001:000e1e40       silk_encode_signs          00000001400e2e40 f   opus:code_signs.obj
 0001:000e1f50       silk_shell_decoder         00000001400e2f50 f   opus:shell_coder.obj
 0001:000e23c0       silk_shell_encoder         00000001400e33c0 f   opus:shell_coder.obj
 0001:000e2770       silk_NLSF_unpack           00000001400e3770 f   opus:NLSF_unpack.obj
 0001:000e2890       silk_gains_ID              00000001400e3890 f   opus:gain_quant.obj
 0001:000e28c0       silk_gains_dequant         00000001400e38c0 f   opus:gain_quant.obj
 0001:000e29f0       silk_gains_quant           00000001400e39f0 f   opus:gain_quant.obj
 0001:000e2ed0       silk_LP_variable_cutoff    00000001400e3ed0 f   opus:LP_variable_cutoff.obj
 0001:000e2fb0       silk_noise_shape_analysis_FLP 00000001400e3fb0 f   opus:noise_shape_analysis_FLP.obj
 0001:000e4670       silk_find_pitch_lags_FLP   00000001400e5670 f   opus:find_pitch_lags_FLP.obj
 0001:000e4a30       silk_find_pred_coefs_FLP   00000001400e5a30 f   opus:find_pred_coefs_FLP.obj
 0001:000e4e30       silk_process_gains_FLP     00000001400e5e30 f   opus:process_gains_FLP.obj
 0001:000e51e0       silk_A2NLSF_FLP            00000001400e61e0 f   opus:wrappers_FLP.obj
 0001:000e5270       silk_NLSF2A_FLP            00000001400e6270 f   opus:wrappers_FLP.obj
 0001:000e54b0       silk_NSQ_wrapper_FLP       00000001400e64b0 f   opus:wrappers_FLP.obj
 0001:000e5920       silk_process_NLSFs_FLP     00000001400e6920 f   opus:wrappers_FLP.obj
 0001:000e5a20       silk_quant_LTP_gains_FLP   00000001400e6a20 f   opus:wrappers_FLP.obj
 0001:000e5e70       silk_VAD_GetNoiseLevels    00000001400e6e70 f   opus:VAD.obj
 0001:000e6190       silk_VAD_GetSA_Q8_c        00000001400e7190 f   opus:VAD.obj
 0001:000e6850       silk_VAD_Init              00000001400e7850 f   opus:VAD.obj
 0001:000e6900       silk_control_audio_bandwidth 00000001400e7900 f   opus:control_audio_bandwidth.obj
 0001:000e6d80       decode_pulses              00000001400e7d80 f   opus:cwrs.obj
 0001:000e6e30       encode_pulses              00000001400e7e30 f   opus:cwrs.obj
 0001:000e6f90       op_pvq_search_sse2         00000001400e7f90 f   opus:vq_sse2.obj
 0001:000e75a0       silk_PLC                   00000001400e85a0 f   opus:PLC.obj
 0001:000e7640       silk_PLC_Reset             00000001400e8640 f   opus:PLC.obj
 0001:000e8260       silk_PLC_glue_frames       00000001400e9260 f   opus:PLC.obj
 0001:000e87b0       silk_CNG                   00000001400e97b0 f   opus:CNG.obj
 0001:000e8f80       silk_CNG_Reset             00000001400e9f80 f   opus:CNG.obj
 0001:000e9090       silk_decode_parameters     00000001400ea090 f   opus:decode_parameters.obj
 0001:000e9420       silk_decode_core           00000001400ea420 f   opus:decode_core.obj
 0001:000ea140       silk_resampler_private_AR2 00000001400eb140 f   opus:resampler_private_AR2.obj
 0001:000ea1d0       silk_sum_sqr_shift         00000001400eb1d0 f   opus:sum_sqr_shift.obj
 0001:000ea350       silk_inner_prod_aligned_scale 00000001400eb350 f   opus:inner_prod_aligned.obj
 0001:000ea560       silk_biquad_alt_stride1    00000001400eb560 f   opus:biquad_alt.obj
 0001:000ea710       silk_biquad_alt_stride2_c  00000001400eb710 f   opus:biquad_alt.obj
 0001:000ea9d0       silk_bwexpander_FLP        00000001400eb9d0 f   opus:bwexpander_FLP.obj
 0001:000eaab0       silk_schur_FLP             00000001400ebab0 f   opus:schur_FLP.obj
 0001:000ead70       silk_k2a_FLP               00000001400ebd70 f   opus:k2a_FLP.obj
 0001:000eaf80       silk_autocorrelation_FLP   00000001400ebf80 f   opus:autocorrelation_FLP.obj
 0001:000eb030       silk_energy_FLP            00000001400ec030 f   opus:energy_FLP.obj
 0001:000eb230       silk_warped_autocorrelation_FLP 00000001400ec230 f   opus:warped_autocorrelation_FLP.obj
 0001:000eb5a0       silk_apply_sine_window_FLP 00000001400ec5a0 f   opus:apply_sine_window_FLP.obj
 0001:000ebea0       silk_pitch_analysis_core_FLP 00000001400ecea0 f   opus:pitch_analysis_core_FLP.obj
 0001:000eed10       silk_LPC_analysis_filter_FLP 00000001400efd10 f   opus:LPC_analysis_filter_FLP.obj
 0001:000eed90       silk_scale_copy_vector_FLP 00000001400efd90 f   opus:scale_copy_vector_FLP.obj
 0001:000ef010       silk_LTP_scale_ctrl_FLP    00000001400f0010 f   opus:LTP_scale_ctrl_FLP.obj
 0001:000ef0a0       silk_find_LPC_FLP          00000001400f00a0 f   opus:find_LPC_FLP.obj
 0001:000ef3b0       silk_find_LTP_FLP          00000001400f03b0 f   opus:find_LTP_FLP.obj
 0001:000ef560       silk_LTP_analysis_filter_FLP 00000001400f0560 f   opus:LTP_analysis_filter_FLP.obj
 0001:000ef700       silk_residual_energy_FLP   00000001400f0700 f   opus:residual_energy_FLP.obj
 0001:000ef8d0       silk_residual_energy_covar_FLP 00000001400f08d0 f   opus:residual_energy_FLP.obj
 0001:000efea0       silk_A2NLSF                00000001400f0ea0 f   opus:A2NLSF.obj
 0001:000f0750       silk_NLSF2A                00000001400f1750 f   opus:NLSF2A.obj
 0001:000f0bf0       silk_quant_LTP_gains       00000001400f1bf0 f   opus:quant_LTP_gains.obj
 0001:000f0fc0       silk_NSQ_c                 00000001400f1fc0 f   opus:NSQ.obj
 0001:000f1580       silk_noise_shape_quantizer 00000001400f2580 f   opus:NSQ.obj
 0001:000f2700       silk_NSQ_del_dec_c         00000001400f3700 f   opus:NSQ_del_dec.obj
 0001:000f5070       silk_process_NLSFs         00000001400f6070 f   opus:process_NLSFs.obj
 0001:000f5540       silk_VAD_GetSA_Q8_sse4_1   00000001400f6540 f   opus:VAD_sse4_1.obj
 0001:000f5cb0       silk_ana_filt_bank_1       00000001400f6cb0 f   opus:ana_filt_bank_1.obj
 0001:000f5e00       silk_sigm_Q15              00000001400f6e00 f   opus:sigm_Q15.obj
 0001:000f5ea0       silk_LPC_analysis_filter   00000001400f6ea0 f   opus:LPC_analysis_filter.obj
 0001:000f6050       silk_bwexpander            00000001400f7050 f   opus:bwexpander.obj
 0001:000f6570       silk_LPC_inverse_pred_gain_c 00000001400f7570 f   opus:LPC_inv_pred_gain.obj
 0001:000f6700       silk_decode_pitch          00000001400f7700 f   opus:decode_pitch.obj
 0001:000f6830       silk_NLSF_decode           00000001400f7830 f   opus:NLSF_decode.obj
 0001:000f69e0       silk_inner_product_FLP     00000001400f79e0 f   opus:inner_product_FLP.obj
 0001:000f6cc0       silk_resampler_down2       00000001400f7cc0 f   opus:resampler_down2.obj
 0001:000f6de0       silk_resampler_down2_3     00000001400f7de0 f   opus:resampler_down2_3.obj
 0001:000f7060       silk_insertion_sort_decreasing_FLP 00000001400f8060 f   opus:sort_FLP.obj
 0001:000f7450       silk_burg_modified_FLP     00000001400f8450 f   opus:burg_modified_FLP.obj
 0001:000f8dd0       silk_interpolate           00000001400f9dd0 f   opus:interpolate.obj
 0001:000f8fb0       silk_scale_vector_FLP      00000001400f9fb0 f   opus:scale_vector_FLP.obj
 0001:000f9190       silk_corrMatrix_FLP        00000001400fa190 f   opus:corrMatrix_FLP.obj
 0001:000f9850       silk_corrVector_FLP        00000001400fa850 f   opus:corrMatrix_FLP.obj
 0001:000f98f0       silk_bwexpander_32         00000001400fa8f0 f   opus:bwexpander_32.obj
 0001:000f9970       silk_LPC_fit               00000001400fa970 f   opus:LPC_fit.obj
 0001:000f9d40       silk_VQ_WMat_EC_c          00000001400fad40 f   opus:VQ_WMat_EC.obj
 0001:000fa120       silk_NLSF_VQ_weights_laroia 00000001400fb120 f   opus:NLSF_VQ_weights_laroia.obj
 0001:000fa2b0       silk_NLSF_encode           00000001400fb2b0 f   opus:NLSF_encode.obj
 0001:000fa830       silk_NLSF_stabilize        00000001400fb830 f   opus:NLSF_stabilize.obj
 0001:000faca0       silk_insertion_sort_increasing 00000001400fbca0 f   opus:sort.obj
 0001:000faee0       silk_insertion_sort_increasing_all_values_int16 00000001400fbee0 f   opus:sort.obj
 0001:000faf60       silk_NLSF_VQ               00000001400fbf60 f   opus:NLSF_VQ.obj
 0001:000fb100       silk_NLSF_del_dec_quant    00000001400fc100 f   opus:NLSF_del_dec_quant.obj
 0001:000fb842       waveOutGetErrorTextA       00000001400fc842 f   winmm:WINMM.dll
 0001:000fb848       waveInGetErrorTextA        00000001400fc848 f   winmm:WINMM.dll
 0001:000fb84e       waveOutGetNumDevs          00000001400fc84e f   winmm:WINMM.dll
 0001:000fb854       waveOutGetDevCapsA         00000001400fc854 f   winmm:WINMM.dll
 0001:000fb85a       waveOutGetVolume           00000001400fc85a f   winmm:WINMM.dll
 0001:000fb860       waveOutSetVolume           00000001400fc860 f   winmm:WINMM.dll
 0001:000fb866       waveOutOpen                00000001400fc866 f   winmm:WINMM.dll
 0001:000fb86c       waveOutClose               00000001400fc86c f   winmm:WINMM.dll
 0001:000fb872       waveOutPrepareHeader       00000001400fc872 f   winmm:WINMM.dll
 0001:000fb878       waveOutUnprepareHeader     00000001400fc878 f   winmm:WINMM.dll
 0001:000fb87e       waveOutWrite               00000001400fc87e f   winmm:WINMM.dll
 0001:000fb884       waveOutPause               00000001400fc884 f   winmm:WINMM.dll
 0001:000fb88a       waveOutRestart             00000001400fc88a f   winmm:WINMM.dll
 0001:000fb890       waveOutReset               00000001400fc890 f   winmm:WINMM.dll
 0001:000fb896       waveInGetNumDevs           00000001400fc896 f   winmm:WINMM.dll
 0001:000fb89c       waveInGetDevCapsA          00000001400fc89c f   winmm:WINMM.dll
 0001:000fb8a2       waveInOpen                 00000001400fc8a2 f   winmm:WINMM.dll
 0001:000fb8a8       waveInClose                00000001400fc8a8 f   winmm:WINMM.dll
 0001:000fb8ae       waveInPrepareHeader        00000001400fc8ae f   winmm:WINMM.dll
 0001:000fb8b4       waveInUnprepareHeader      00000001400fc8b4 f   winmm:WINMM.dll
 0001:000fb8ba       waveInAddBuffer            00000001400fc8ba f   winmm:WINMM.dll
 0001:000fb8c0       waveInStart                00000001400fc8c0 f   winmm:WINMM.dll
 0001:000fb8c6       waveInStop                 00000001400fc8c6 f   winmm:WINMM.dll
 0001:000fb8cc       waveInReset                00000001400fc8cc f   winmm:WINMM.dll
 0001:000fb8d2       CloseHandle                00000001400fc8d2 f   kernel32:KERNEL32.dll
 0001:000fb8d8       SetEvent                   00000001400fc8d8 f   kernel32:KERNEL32.dll
 0001:000fb8de       CreateEventA               00000001400fc8de f   kernel32:KERNEL32.dll
 0001:000fb8e4       WaitForMultipleObjects     00000001400fc8e4 f   kernel32:KERNEL32.dll
 0001:000fb8ea       GetCurrentThread           00000001400fc8ea f   kernel32:KERNEL32.dll
 0001:000fb8f0       SetThreadPriority          00000001400fc8f0 f   kernel32:KERNEL32.dll
 0001:000fb8f6       GetStdHandle               00000001400fc8f6 f   kernel32:KERNEL32.dll
 0001:000fb8fc       GetLastError               00000001400fc8fc f   kernel32:KERNEL32.dll
 0001:000fb902       InitializeCriticalSection  00000001400fc902 f   kernel32:KERNEL32.dll
 0001:000fb908       EnterCriticalSection       00000001400fc908 f   kernel32:KERNEL32.dll
 0001:000fb90e       LeaveCriticalSection       00000001400fc90e f   kernel32:KERNEL32.dll
 0001:000fb914       TryEnterCriticalSection    00000001400fc914 f   kernel32:KERNEL32.dll
 0001:000fb91a       DeleteCriticalSection      00000001400fc91a f   kernel32:KERNEL32.dll
 0001:000fb920       ResetEvent                 00000001400fc920 f   kernel32:KERNEL32.dll
 0001:000fb926       ReleaseSemaphore           00000001400fc926 f   kernel32:KERNEL32.dll
 0001:000fb92c       WaitForSingleObject        00000001400fc92c f   kernel32:KERNEL32.dll
 0001:000fb932       Sleep                      00000001400fc932 f   kernel32:KERNEL32.dll
 0001:000fb938       GetCurrentProcessId        00000001400fc938 f   kernel32:KERNEL32.dll
 0001:000fb93e       CreateThread               00000001400fc93e f   kernel32:KERNEL32.dll
 0001:000fb944       GetCurrentThreadId         00000001400fc944 f   kernel32:KERNEL32.dll
 0001:000fb94a       GetThreadPriority          00000001400fc94a f   kernel32:KERNEL32.dll
 0001:000fb950       ResumeThread               00000001400fc950 f   kernel32:KERNEL32.dll
 0001:000fb956       TlsAlloc                   00000001400fc956 f   kernel32:KERNEL32.dll
 0001:000fb95c       TlsGetValue                00000001400fc95c f   kernel32:KERNEL32.dll
 0001:000fb962       TlsSetValue                00000001400fc962 f   kernel32:KERNEL32.dll
 0001:000fb968       TlsFree                    00000001400fc968 f   kernel32:KERNEL32.dll
 0001:000fb96e       PulseEvent                 00000001400fc96e f   kernel32:KERNEL32.dll
 0001:000fb974       CreateSemaphoreA           00000001400fc974 f   kernel32:KERNEL32.dll
 0001:000fb97a       GetConsoleScreenBufferInfo 00000001400fc97a f   kernel32:KERNEL32.dll
 0001:000fb980       SetConsoleTextAttribute    00000001400fc980 f   kernel32:KERNEL32.dll
 0001:000fb986       GetLocalTime               00000001400fc986 f   kernel32:KERNEL32.dll
 0001:000fb98c       FileTimeToSystemTime       00000001400fc98c f   kernel32:KERNEL32.dll
 0001:000fb992       SystemTimeToFileTime       00000001400fc992 f   kernel32:KERNEL32.dll
 0001:000fb998       SetLastError               00000001400fc998 f   kernel32:KERNEL32.dll
 0001:000fb99e       FormatMessageA             00000001400fc99e f   kernel32:KERNEL32.dll
 0001:000fb9a4       CreateFileA                00000001400fc9a4 f   kernel32:KERNEL32.dll
 0001:000fb9aa       DeleteFileA                00000001400fc9aa f   kernel32:KERNEL32.dll
 0001:000fb9b0       FileTimeToLocalFileTime    00000001400fc9b0 f   kernel32:KERNEL32.dll
 0001:000fb9b6       GetFileSize                00000001400fc9b6 f   kernel32:KERNEL32.dll
 0001:000fb9bc       GetFileTime                00000001400fc9bc f   kernel32:KERNEL32.dll
 0001:000fb9c2       MoveFileExA                00000001400fc9c2 f   kernel32:KERNEL32.dll
 0001:000fb9c8       FlushFileBuffers           00000001400fc9c8 f   kernel32:KERNEL32.dll
 0001:000fb9ce       ReadFile                   00000001400fc9ce f   kernel32:KERNEL32.dll
 0001:000fb9d4       SetFilePointer             00000001400fc9d4 f   kernel32:KERNEL32.dll
 0001:000fb9da       WriteFile                  00000001400fc9da f   kernel32:KERNEL32.dll
 0001:000fb9e0       QueryPerformanceCounter    00000001400fc9e0 f   kernel32:KERNEL32.dll
 0001:000fb9e6       QueryPerformanceFrequency  00000001400fc9e6 f   kernel32:KERNEL32.dll
 0001:000fb9ec       FreeLibrary                00000001400fc9ec f   kernel32:KERNEL32.dll
 0001:000fb9f2       GetProcAddress             00000001400fc9f2 f   kernel32:KERNEL32.dll
 0001:000fb9f8       LoadLibraryA               00000001400fc9f8 f   kernel32:KERNEL32.dll
 0001:000fb9fe       RtlCaptureContext          00000001400fc9fe f   kernel32:KERNEL32.dll
 0001:000fba04       RtlLookupFunctionEntry     00000001400fca04 f   kernel32:KERNEL32.dll
 0001:000fba0a       RtlVirtualUnwind           00000001400fca0a f   kernel32:KERNEL32.dll
 0001:000fba10       UnhandledExceptionFilter   00000001400fca10 f   kernel32:KERNEL32.dll
 0001:000fba16       SetUnhandledExceptionFilter 00000001400fca16 f   kernel32:KERNEL32.dll
 0001:000fba1c       GetCurrentProcess          00000001400fca1c f   kernel32:KERNEL32.dll
 0001:000fba22       TerminateProcess           00000001400fca22 f   kernel32:KERNEL32.dll
 0001:000fba28       IsProcessorFeaturePresent  00000001400fca28 f   kernel32:KERNEL32.dll
 0001:000fba2e       GetSystemTimeAsFileTime    00000001400fca2e f   kernel32:KERNEL32.dll
 0001:000fba34       InitializeSListHead        00000001400fca34 f   kernel32:KERNEL32.dll
 0001:000fba3a       IsDebuggerPresent          00000001400fca3a f   kernel32:KERNEL32.dll
 0001:000fba40       GetStartupInfoW            00000001400fca40 f   kernel32:KERNEL32.dll
 0001:000fba46       GetModuleHandleW           00000001400fca46 f   kernel32:KERNEL32.dll
 0001:000fba50       __vdecl_exp2               00000001400fca50 f   libcmt:svml_dexp2_dispatch.obj
 0001:000fba70       __vdecl_floor2             00000001400fca70 f   libcmt:svml_dfloor2_dispatch.obj
 0001:000fba90       __sse2_exp2@@16            00000001400fca90 f   libcmt:svml_dexp2_sse2.obj
 0001:000fbe40       __sse4_exp2@@16            00000001400fce40 f   libcmt:svml_dexp2_sse4.obj
 0001:000fc1c0       __sse2_floor2@@16          00000001400fd1c0 f   libcmt:svml_dfloor2_sse2.obj
 0001:000fc220       __sse4_floor2@@16          00000001400fd220 f   libcmt:svml_dfloor2_sse4.obj
 0001:000fc227       memset                     00000001400fd227 f   vcruntimed:VCRUNTIME140D.dll
 0001:000fc22d       memcpy                     00000001400fd22d f   vcruntimed:VCRUNTIME140D.dll
 0001:000fc233       memmove                    00000001400fd233 f   vcruntimed:VCRUNTIME140D.dll
 0001:000fc239       memchr                     00000001400fd239 f   vcruntimed:VCRUNTIME140D.dll
 0001:000fc23f       strchr                     00000001400fd23f f   vcruntimed:VCRUNTIME140D.dll
 0001:000fc245       memcmp                     00000001400fd245 f   vcruntimed:VCRUNTIME140D.dll
 0001:000fc24b       longjmp                    00000001400fd24b f   vcruntimed:VCRUNTIME140D.dll
 0001:000fc251       __C_specific_handler       00000001400fd251 f   vcruntimed:VCRUNTIME140D.dll
 0001:000fc257       _setjmp                    00000001400fd257 f   vcruntimed:VCRUNTIME140D.dll
 0001:000fc257       __intrinsic_setjmp         00000001400fd257 f   vcruntimed:VCRUNTIME140D.dll
 0001:000fc25d       __std_type_info_destroy_list 00000001400fd25d f   vcruntimed:VCRUNTIME140D.dll
 0001:000fc263       __current_exception        00000001400fd263 f   vcruntimed:VCRUNTIME140D.dll
 0001:000fc269       __current_exception_context 00000001400fd269 f   vcruntimed:VCRUNTIME140D.dll
 0001:000fc26f       strlen                     00000001400fd26f f   ucrtd:ucrtbased.dll
 0001:000fc275       __acrt_iob_func            00000001400fd275 f   ucrtd:ucrtbased.dll
 0001:000fc27b       puts                       00000001400fd27b f   ucrtd:ucrtbased.dll
 0001:000fc281       __stdio_common_vfprintf    00000001400fd281 f   ucrtd:ucrtbased.dll
 0001:000fc287       _wassert                   00000001400fd287 f   ucrtd:ucrtbased.dll
 0001:000fc28d       __stdio_common_vsprintf    00000001400fd28d f   ucrtd:ucrtbased.dll
 0001:000fc293       strcpy                     00000001400fd293 f   ucrtd:ucrtbased.dll
 0001:000fc299       strncpy                    00000001400fd299 f   ucrtd:ucrtbased.dll
 0001:000fc29f       _stricmp                   00000001400fd29f f   ucrtd:ucrtbased.dll
 0001:000fc2a5       isdigit                    00000001400fd2a5 f   ucrtd:ucrtbased.dll
 0001:000fc2ab       cos                        00000001400fd2ab f   ucrtd:ucrtbased.dll
 0001:000fc2b1       isxdigit                   00000001400fd2b1 f   ucrtd:ucrtbased.dll
 0001:000fc2b7       strncmp                    00000001400fd2b7 f   ucrtd:ucrtbased.dll
 0001:000fc2bd       _strnicmp                  00000001400fd2bd f   ucrtd:ucrtbased.dll
 0001:000fc2c3       srand                      00000001400fd2c3 f   ucrtd:ucrtbased.dll
 0001:000fc2c9       rand                       00000001400fd2c9 f   ucrtd:ucrtbased.dll
 0001:000fc2cf       isspace                    00000001400fd2cf f   ucrtd:ucrtbased.dll
 0001:000fc2d5       free                       00000001400fd2d5 f   ucrtd:ucrtbased.dll
 0001:000fc2db       malloc                     00000001400fd2db f   ucrtd:ucrtbased.dll
 0001:000fc2e1       fmod                       00000001400fd2e1 f   ucrtd:ucrtbased.dll
 0001:000fc2e7       exit                       00000001400fd2e7 f   ucrtd:ucrtbased.dll
 0001:000fc2ed       fabs                       00000001400fd2ed f   ucrtd:ucrtbased.dll
 0001:000fc2f3       log10                      00000001400fd2f3 f   ucrtd:ucrtbased.dll
 0001:000fc2f9       pow                        00000001400fd2f9 f   ucrtd:ucrtbased.dll
 0001:000fc2ff       sqrt                       00000001400fd2ff f   ucrtd:ucrtbased.dll
 0001:000fc305       calloc                     00000001400fd305 f   ucrtd:ucrtbased.dll
 0001:000fc30b       realloc                    00000001400fd30b f   ucrtd:ucrtbased.dll
 0001:000fc311       floor                      00000001400fd311 f   ucrtd:ucrtbased.dll
 0001:000fc317       exp                        00000001400fd317 f   ucrtd:ucrtbased.dll
 0001:000fc31d       log                        00000001400fd31d f   ucrtd:ucrtbased.dll
 0001:000fc323       acos                       00000001400fd323 f   ucrtd:ucrtbased.dll
 0001:000fc329       __stdio_common_vsscanf     00000001400fd329 f   ucrtd:ucrtbased.dll
 0001:000fc32f       clock                      00000001400fd32f f   ucrtd:ucrtbased.dll
 0001:000fc335       _seh_filter_exe            00000001400fd335 f   ucrtd:ucrtbased.dll
 0001:000fc33b       _set_app_type              00000001400fd33b f   ucrtd:ucrtbased.dll
 0001:000fc341       __setusermatherr           00000001400fd341 f   ucrtd:ucrtbased.dll
 0001:000fc347       _configure_narrow_argv     00000001400fd347 f   ucrtd:ucrtbased.dll
 0001:000fc34d       _initialize_narrow_environment 00000001400fd34d f   ucrtd:ucrtbased.dll
 0001:000fc353       _get_initial_narrow_environment 00000001400fd353 f   ucrtd:ucrtbased.dll
 0001:000fc359       _initterm                  00000001400fd359 f   ucrtd:ucrtbased.dll
 0001:000fc35f       _initterm_e                00000001400fd35f f   ucrtd:ucrtbased.dll
 0001:000fc365       _exit                      00000001400fd365 f   ucrtd:ucrtbased.dll
 0001:000fc36b       _set_fmode                 00000001400fd36b f   ucrtd:ucrtbased.dll
 0001:000fc371       __p___argc                 00000001400fd371 f   ucrtd:ucrtbased.dll
 0001:000fc377       __p___argv                 00000001400fd377 f   ucrtd:ucrtbased.dll
 0001:000fc37d       _cexit                     00000001400fd37d f   ucrtd:ucrtbased.dll
 0001:000fc383       _c_exit                    00000001400fd383 f   ucrtd:ucrtbased.dll
 0001:000fc389       _register_thread_local_exe_atexit_callback 00000001400fd389 f   ucrtd:ucrtbased.dll
 0001:000fc38f       _configthreadlocale        00000001400fd38f f   ucrtd:ucrtbased.dll
 0001:000fc395       _set_new_mode              00000001400fd395 f   ucrtd:ucrtbased.dll
 0001:000fc39b       __p__commode               00000001400fd39b f   ucrtd:ucrtbased.dll
 0001:000fc3a1       _seh_filter_dll            00000001400fd3a1 f   ucrtd:ucrtbased.dll
 0001:000fc3a7       _initialize_onexit_table   00000001400fd3a7 f   ucrtd:ucrtbased.dll
 0001:000fc3ad       _register_onexit_function  00000001400fd3ad f   ucrtd:ucrtbased.dll
 0001:000fc3b3       _execute_onexit_table      00000001400fd3b3 f   ucrtd:ucrtbased.dll
 0001:000fc3b9       _crt_atexit                00000001400fd3b9 f   ucrtd:ucrtbased.dll
 0001:000fc3bf       _crt_at_quick_exit         00000001400fd3bf f   ucrtd:ucrtbased.dll
 0001:000fc3c5       terminate                  00000001400fd3c5 f   ucrtd:ucrtbased.dll
 0001:000fc3cb       log10f                     00000001400fd3cb f   ucrtd:ucrtbased.dll
 0001:000fc3d1       logf                       00000001400fd3d1 f   ucrtd:ucrtbased.dll
 0001:000fc3d7       cosf                       00000001400fd3d7 f   ucrtd:ucrtbased.dll
 0001:000fc3e0       __acrt_initialize          00000001400fd3e0 f   MSVCRTD:ucrt_stubs.obj
 0001:000fc3e0       __vcrt_initialize          00000001400fd3e0 f   MSVCRTD:ucrt_stubs.obj
 0001:000fc3e0       __scrt_stub_for_acrt_initialize 00000001400fd3e0 f   MSVCRTD:ucrt_stubs.obj
 0001:000fc3f0       __acrt_thread_attach       00000001400fd3f0 f   MSVCRTD:ucrt_stubs.obj
 0001:000fc3f0       __scrt_stub_for_acrt_thread_attach 00000001400fd3f0 f   MSVCRTD:ucrt_stubs.obj
 0001:000fc3f0       __vcrt_thread_attach       00000001400fd3f0 f   MSVCRTD:ucrt_stubs.obj
 0001:000fc400       __vcrt_thread_detach       00000001400fd400 f   MSVCRTD:ucrt_stubs.obj
 0001:000fc400       __scrt_stub_for_acrt_thread_detach 00000001400fd400 f   MSVCRTD:ucrt_stubs.obj
 0001:000fc400       __acrt_thread_detach       00000001400fd400 f   MSVCRTD:ucrt_stubs.obj
 0001:000fc410       __scrt_stub_for_acrt_uninitialize 00000001400fd410 f   MSVCRTD:ucrt_stubs.obj
 0001:000fc410       __acrt_uninitialize        00000001400fd410 f   MSVCRTD:ucrt_stubs.obj
 0001:000fc410       __vcrt_uninitialize        00000001400fd410 f   MSVCRTD:ucrt_stubs.obj
 0001:000fc420       __vcrt_uninitialize_critical 00000001400fd420 f   MSVCRTD:ucrt_stubs.obj
 0001:000fc420       __acrt_uninitialize_critical 00000001400fd420 f   MSVCRTD:ucrt_stubs.obj
 0001:000fc420       __scrt_stub_for_acrt_uninitialize_critical 00000001400fd420 f   MSVCRTD:ucrt_stubs.obj
 0001:000fc430       _is_c_termination_complete 00000001400fd430 f   MSVCRTD:ucrt_stubs.obj
 0001:000fc430       __scrt_stub_for_is_c_termination_complete 00000001400fd430 f   MSVCRTD:ucrt_stubs.obj
 0001:000fe710       _guard_dispatch_icall_nop  00000001400ff710 f   MSVCRTD:guard_dispatch.obj
 0001:000fe730       _guard_xfg_dispatch_icall_nop 00000001400ff730 f   MSVCRTD:guard_xfg_dispatch.obj
 0002:00000000       __xc_a                     0000000140102000     MSVCRTD:initializers.obj
 0002:00000220       __xc_z                     0000000140102220     MSVCRTD:initializers.obj
 0002:00000330       __xi_a                     0000000140102330     MSVCRTD:initializers.obj
 0002:00000660       __xi_z                     0000000140102660     MSVCRTD:initializers.obj
 0002:00000770       __xp_a                     0000000140102770     MSVCRTD:initializers.obj
 0002:00000880       __xp_z                     0000000140102880     MSVCRTD:initializers.obj
 0002:00000990       __xt_a                     0000000140102990     MSVCRTD:initializers.obj
 0002:00000aa0       __xt_z                     0000000140102aa0     MSVCRTD:initializers.obj
 0002:00000bb0       __real@4020000000000000    0000000140102bb0     encdec.obj
 0002:00000c60       g722_qmf_coeff             0000000140102c60     pjmedia-codec-x86_64-x64-vc14-debug-dynamic:g722_enc.obj
 0002:00001dc0       pjmedia_linear2ulaw_tab    0000000140103dc0     pjmedia-x86_64-x64-vc14-debug-dynamic:alaw_ulaw_table.obj
 0002:00005dc0       pjmedia_linear2alaw_tab    0000000140107dc0     pjmedia-x86_64-x64-vc14-debug-dynamic:alaw_ulaw_table.obj
 0002:00009dc0       pjmedia_ulaw2linear_tab    000000014010bdc0     pjmedia-x86_64-x64-vc14-debug-dynamic:alaw_ulaw_table.obj
 0002:00009fc0       pjmedia_alaw2linear_tab    000000014010bfc0     pjmedia-x86_64-x64-vc14-debug-dynamic:alaw_ulaw_table.obj
 0002:0000bc28       __real@00000000            000000014010dc28     pjmedia-x86_64-x64-vc14-debug-dynamic:wsola.obj
 0002:0000bc2c       __real@3f800000            000000014010dc2c     pjmedia-x86_64-x64-vc14-debug-dynamic:wsola.obj
 0002:0000bc30       __real@3fe0000000000000    000000014010dc30     pjmedia-x86_64-x64-vc14-debug-dynamic:wsola.obj
 0002:0000bc40       __real@3ff0000000000000    000000014010dc40     pjmedia-x86_64-x64-vc14-debug-dynamic:wsola.obj
 0002:0000bc50       __real@3ff8000000000000    000000014010dc50     pjmedia-x86_64-x64-vc14-debug-dynamic:wsola.obj
 0002:0000bc60       __real@401921fb54442d18    000000014010dc60     pjmedia-x86_64-x64-vc14-debug-dynamic:wsola.obj
 0002:0000becc       __real@41200000            000000014010decc     pjlib-x86_64-x64-vc14-debug-dynamic:string.obj
 0002:0000bed0       PJ_AF_UNSPEC               000000014010ded0     pjlib-x86_64-x64-vc14-debug-dynamic:sock_bsd.obj
 0002:0000bed4       PJ_AF_UNIX                 000000014010ded4     pjlib-x86_64-x64-vc14-debug-dynamic:sock_bsd.obj
 0002:0000bed8       PJ_AF_INET                 000000014010ded8     pjlib-x86_64-x64-vc14-debug-dynamic:sock_bsd.obj
 0002:0000bedc       PJ_AF_INET6                000000014010dedc     pjlib-x86_64-x64-vc14-debug-dynamic:sock_bsd.obj
 0002:0000bee0       PJ_AF_PACKET               000000014010dee0     pjlib-x86_64-x64-vc14-debug-dynamic:sock_bsd.obj
 0002:0000bee4       PJ_AF_IRDA                 000000014010dee4     pjlib-x86_64-x64-vc14-debug-dynamic:sock_bsd.obj
 0002:0000bee8       PJ_SOCK_STREAM             000000014010dee8     pjlib-x86_64-x64-vc14-debug-dynamic:sock_bsd.obj
 0002:0000beec       PJ_SOCK_DGRAM              000000014010deec     pjlib-x86_64-x64-vc14-debug-dynamic:sock_bsd.obj
 0002:0000bef0       PJ_SOCK_RAW                000000014010def0     pjlib-x86_64-x64-vc14-debug-dynamic:sock_bsd.obj
 0002:0000bef4       PJ_SOCK_RDM                000000014010def4     pjlib-x86_64-x64-vc14-debug-dynamic:sock_bsd.obj
 0002:0000bef8       PJ_SOL_SOCKET              000000014010def8     pjlib-x86_64-x64-vc14-debug-dynamic:sock_bsd.obj
 0002:0000befc       PJ_SOL_IP                  000000014010defc     pjlib-x86_64-x64-vc14-debug-dynamic:sock_bsd.obj
 0002:0000bf00       PJ_SOL_TCP                 000000014010df00     pjlib-x86_64-x64-vc14-debug-dynamic:sock_bsd.obj
 0002:0000bf04       PJ_SOL_UDP                 000000014010df04     pjlib-x86_64-x64-vc14-debug-dynamic:sock_bsd.obj
 0002:0000bf08       PJ_SOL_IPV6                000000014010df08     pjlib-x86_64-x64-vc14-debug-dynamic:sock_bsd.obj
 0002:0000bf0c       PJ_IP_TOS                  000000014010df0c     pjlib-x86_64-x64-vc14-debug-dynamic:sock_bsd.obj
 0002:0000bf10       PJ_IPTOS_LOWDELAY          000000014010df10     pjlib-x86_64-x64-vc14-debug-dynamic:sock_bsd.obj
 0002:0000bf14       PJ_IPTOS_THROUGHPUT        000000014010df14     pjlib-x86_64-x64-vc14-debug-dynamic:sock_bsd.obj
 0002:0000bf18       PJ_IPTOS_RELIABILITY       000000014010df18     pjlib-x86_64-x64-vc14-debug-dynamic:sock_bsd.obj
 0002:0000bf1c       PJ_IPTOS_MINCOST           000000014010df1c     pjlib-x86_64-x64-vc14-debug-dynamic:sock_bsd.obj
 0002:0000bf20       PJ_IPV6_TCLASS             000000014010df20     pjlib-x86_64-x64-vc14-debug-dynamic:sock_bsd.obj
 0002:0000bf24       PJ_SO_TYPE                 000000014010df24     pjlib-x86_64-x64-vc14-debug-dynamic:sock_bsd.obj
 0002:0000bf28       PJ_SO_RCVBUF               000000014010df28     pjlib-x86_64-x64-vc14-debug-dynamic:sock_bsd.obj
 0002:0000bf2c       PJ_SO_SNDBUF               000000014010df2c     pjlib-x86_64-x64-vc14-debug-dynamic:sock_bsd.obj
 0002:0000bf30       PJ_TCP_NODELAY             000000014010df30     pjlib-x86_64-x64-vc14-debug-dynamic:sock_bsd.obj
 0002:0000bf34       PJ_SO_REUSEADDR            000000014010df34     pjlib-x86_64-x64-vc14-debug-dynamic:sock_bsd.obj
 0002:0000bf38       PJ_SO_NOSIGPIPE            000000014010df38     pjlib-x86_64-x64-vc14-debug-dynamic:sock_bsd.obj
 0002:0000bf3c       PJ_SO_PRIORITY             000000014010df3c     pjlib-x86_64-x64-vc14-debug-dynamic:sock_bsd.obj
 0002:0000bf40       PJ_IP_MULTICAST_IF         000000014010df40     pjlib-x86_64-x64-vc14-debug-dynamic:sock_bsd.obj
 0002:0000bf44       PJ_IP_MULTICAST_TTL        000000014010df44     pjlib-x86_64-x64-vc14-debug-dynamic:sock_bsd.obj
 0002:0000bf48       PJ_IP_MULTICAST_LOOP       000000014010df48     pjlib-x86_64-x64-vc14-debug-dynamic:sock_bsd.obj
 0002:0000bf4c       PJ_IP_ADD_MEMBERSHIP       000000014010df4c     pjlib-x86_64-x64-vc14-debug-dynamic:sock_bsd.obj
 0002:0000bf50       PJ_IP_DROP_MEMBERSHIP      000000014010df50     pjlib-x86_64-x64-vc14-debug-dynamic:sock_bsd.obj
 0002:0000bf54       PJ_MSG_OOB                 000000014010df54     pjlib-x86_64-x64-vc14-debug-dynamic:sock_bsd.obj
 0002:0000bf58       PJ_MSG_PEEK                000000014010df58     pjlib-x86_64-x64-vc14-debug-dynamic:sock_bsd.obj
 0002:0000bf5c       PJ_MSG_DONTROUTE           000000014010df5c     pjlib-x86_64-x64-vc14-debug-dynamic:sock_bsd.obj
 0002:0000c340       PJ_GUID_STRING_LENGTH      000000014010e340     pjlib-x86_64-x64-vc14-debug-dynamic:guid_win32.obj
 0002:0000c348       __real@0000000000000000    000000014010e348     pjlib-x86_64-x64-vc14-debug-dynamic:os_timestamp_common.obj
 0002:0000c358       __real@408f400000000000    000000014010e358     pjlib-x86_64-x64-vc14-debug-dynamic:os_timestamp_common.obj
 0002:0000c368       __real@412e848000000000    000000014010e368     pjlib-x86_64-x64-vc14-debug-dynamic:os_timestamp_common.obj
 0002:0000c378       __real@41cdcd6500000000    000000014010e378     pjlib-x86_64-x64-vc14-debug-dynamic:os_timestamp_common.obj
 0002:0000c388       __real@43e0000000000000    000000014010e388     pjlib-x86_64-x64-vc14-debug-dynamic:os_timestamp_common.obj
 0002:0000c554       __real@42200000            000000014010e554     libilbccodec-x86_64-x64-vc14-debug-dynamic:iLBC_decode.obj
 0002:0000c558       __real@3ed82a99            000000014010e558     libilbccodec-x86_64-x64-vc14-debug-dynamic:LPCencode.obj
 0002:0000c55c       __real@3f670a3d            000000014010e55c     libilbccodec-x86_64-x64-vc14-debug-dynamic:LPCencode.obj
 0002:0000c560       __real@3e2aaaab            000000014010e560     libilbccodec-x86_64-x64-vc14-debug-dynamic:FrameClassify.obj
 0002:0000c564       __real@3eaaaaab            000000014010e564     libilbccodec-x86_64-x64-vc14-debug-dynamic:FrameClassify.obj
 0002:0000c568       __real@3f000000            000000014010e568     libilbccodec-x86_64-x64-vc14-debug-dynamic:FrameClassify.obj
 0002:0000c56c       __real@3f2aaaab            000000014010e56c     libilbccodec-x86_64-x64-vc14-debug-dynamic:FrameClassify.obj
 0002:0000c570       __real@3f4ccccd            000000014010e570     libilbccodec-x86_64-x64-vc14-debug-dynamic:FrameClassify.obj
 0002:0000c574       __real@3f555555            000000014010e574     libilbccodec-x86_64-x64-vc14-debug-dynamic:FrameClassify.obj
 0002:0000c578       __real@3f666666            000000014010e578     libilbccodec-x86_64-x64-vc14-debug-dynamic:FrameClassify.obj
 0002:0000c580       __real@4024000000000000    000000014010e580     libilbccodec-x86_64-x64-vc14-debug-dynamic:StateSearchW.obj
 0002:0000c58c       __real@40900000            000000014010e58c     libilbccodec-x86_64-x64-vc14-debug-dynamic:StateSearchW.obj
 0002:0000c590       __real@25800000            000000014010e590     libilbccodec-x86_64-x64-vc14-debug-dynamic:iCBSearch.obj
 0002:0000c594       __real@3fa66666            000000014010e594     libilbccodec-x86_64-x64-vc14-debug-dynamic:iCBSearch.obj
 0002:0000c598       __real@3ff4ccccc0000000    000000014010e598     libilbccodec-x86_64-x64-vc14-debug-dynamic:iCBSearch.obj
 0002:0000c5a8       __real@4000000000000000    000000014010e5a8     libilbccodec-x86_64-x64-vc14-debug-dynamic:iCBSearch.obj
 0002:0000c5b4       __real@cb189680            000000014010e5b4     libilbccodec-x86_64-x64-vc14-debug-dynamic:iCBSearch.obj
 0002:0000c5c0       ULP_20msTbl                000000014010e5c0     libilbccodec-x86_64-x64-vc14-debug-dynamic:constants.obj
 0002:0000c9d0       ULP_30msTbl                000000014010e9d0     libilbccodec-x86_64-x64-vc14-debug-dynamic:constants.obj
 0002:0000cf80       __real@3e999999            000000014010ef80     libilbccodec-x86_64-x64-vc14-debug-dynamic:doCPLC.obj
 0002:0000cf84       __real@3ecccccd            000000014010ef84     libilbccodec-x86_64-x64-vc14-debug-dynamic:doCPLC.obj
 0002:0000cf88       __real@3f333333            000000014010ef88     libilbccodec-x86_64-x64-vc14-debug-dynamic:doCPLC.obj
 0002:0000cf8c       __real@3f733333            000000014010ef8c     libilbccodec-x86_64-x64-vc14-debug-dynamic:doCPLC.obj
 0002:0000cf90       __real@403e000000000000    000000014010ef90     libilbccodec-x86_64-x64-vc14-debug-dynamic:doCPLC.obj
 0002:0000cf9c       __real@40000000            000000014010ef9c     libilbccodec-x86_64-x64-vc14-debug-dynamic:helpfun.obj
 0002:0000cfa0       __real@7cf0bdc2            000000014010efa0     libilbccodec-x86_64-x64-vc14-debug-dynamic:helpfun.obj
 0002:0000cfb0       __xmm@80000000800000008000000080000000 000000014010efb0     libilbccodec-x86_64-x64-vc14-debug-dynamic:helpfun.obj
 0002:0000cfc4       __real@3d4ccccd            000000014010efc4     libilbccodec-x86_64-x64-vc14-debug-dynamic:enhancer.obj
 0002:0000cfc8       __real@3f1a36e2eb1c432d    000000014010efc8     libilbccodec-x86_64-x64-vc14-debug-dynamic:enhancer.obj
 0002:0000cfd4       __real@40800000            000000014010efd4     libilbccodec-x86_64-x64-vc14-debug-dynamic:enhancer.obj
 0002:0000cfd8       __real@40c90fdb            000000014010efd8     libilbccodec-x86_64-x64-vc14-debug-dynamic:enhancer.obj
 0002:0000cfdc       __real@42a00000            000000014010efdc     libilbccodec-x86_64-x64-vc14-debug-dynamic:enhancer.obj
 0002:0000cfe0       __real@3a5013a9            000000014010efe0     libilbccodec-x86_64-x64-vc14-debug-dynamic:lsf.obj
 0002:0000cfe4       __real@3ad013a9            000000014010efe4     libilbccodec-x86_64-x64-vc14-debug-dynamic:lsf.obj
 0002:0000cfe8       __real@3b5013a9            000000014010efe8     libilbccodec-x86_64-x64-vc14-debug-dynamic:lsf.obj
 0002:0000cfec       __real@3bd013a9            000000014010efec     libilbccodec-x86_64-x64-vc14-debug-dynamic:lsf.obj
 0002:0000cff0       __real@3cb43958            000000014010eff0     libilbccodec-x86_64-x64-vc14-debug-dynamic:lsf.obj
 0002:0000cff4       __real@3e22f983            000000014010eff4     libilbccodec-x86_64-x64-vc14-debug-dynamic:lsf.obj
 0002:0000cff8       __real@3e800000            000000014010eff8     libilbccodec-x86_64-x64-vc14-debug-dynamic:lsf.obj
 0002:0000cffc       __real@3eff7cee            000000014010effc     libilbccodec-x86_64-x64-vc14-debug-dynamic:lsf.obj
 0002:0000d000       __real@41100000            000000014010f000     libilbccodec-x86_64-x64-vc14-debug-dynamic:lsf.obj
 0002:0000d004       __real@be800000            000000014010f004     libilbccodec-x86_64-x64-vc14-debug-dynamic:lsf.obj
 0002:0000d008       __real@bf800000            000000014010f008     libilbccodec-x86_64-x64-vc14-debug-dynamic:lsf.obj
 0002:0000d00c       __real@fcf0bdc2            000000014010f00c     libilbccodec-x86_64-x64-vc14-debug-dynamic:lsf.obj
 0002:0000d010       __real@3dcccccd            000000014010f010     libilbccodec-x86_64-x64-vc14-debug-dynamic:gainquant.obj
 0002:0000d018       __real@3fb999999999999a    000000014010f018     libilbccodec-x86_64-x64-vc14-debug-dynamic:gainquant.obj
 0002:0000d024       __real@4b189680            000000014010f024     libilbccodec-x86_64-x64-vc14-debug-dynamic:gainquant.obj
 0002:0000d028       __real@3e4ccccd            000000014010f028     libilbccodec-x86_64-x64-vc14-debug-dynamic:createCB.obj
 0002:0000d02c       __real@46fffe00            000000014010f02c     libspeex-x86_64-x64-vc14-debug-dynamic:speex.obj
 0002:0000d030       __real@c7000000            000000014010f030     libspeex-x86_64-x64-vc14-debug-dynamic:speex.obj
 0002:0000d040       speex_nb_mode              000000014010f040     libspeex-x86_64-x64-vc14-debug-dynamic:modes.obj
 0002:0000d640       speex_wb_mode              000000014010f640     libspeex-x86_64-x64-vc14-debug-dynamic:modes_wb.obj
 0002:0000d6a0       speex_uwb_mode             000000014010f6a0     libspeex-x86_64-x64-vc14-debug-dynamic:modes_wb.obj
 0002:0000d700       speex_mode_list            000000014010f700     libspeex-x86_64-x64-vc14-debug-dynamic:modes_wb.obj
 0002:0000db64       __real@3f7d70a4            000000014010fb64     libspeex-x86_64-x64-vc14-debug-dynamic:ltp.obj
 0002:0000db68       __real@3f90000000000000    000000014010fb68     libspeex-x86_64-x64-vc14-debug-dynamic:ltp.obj
 0002:0000db78       __real@3f947ae147ae147b    000000014010fb78     libspeex-x86_64-x64-vc14-debug-dynamic:ltp.obj
 0002:0000db88       __real@3fa0000000000000    000000014010fb88     libspeex-x86_64-x64-vc14-debug-dynamic:ltp.obj
 0002:0000db98       __real@3fee666666666666    000000014010fb98     libspeex-x86_64-x64-vc14-debug-dynamic:ltp.obj
 0002:0000dba8       __real@3fefae147ae147ae    000000014010fba8     libspeex-x86_64-x64-vc14-debug-dynamic:ltp.obj
 0002:0000dbb4       __real@41f80000            000000014010fbb4     libspeex-x86_64-x64-vc14-debug-dynamic:ltp.obj
 0002:0000dbb8       __real@42000000            000000014010fbb8     libspeex-x86_64-x64-vc14-debug-dynamic:ltp.obj
 0002:0000dbbc       __real@42800000            000000014010fbbc     libspeex-x86_64-x64-vc14-debug-dynamic:ltp.obj
 0002:0000dbc0       __real@43000000            000000014010fbc0     libspeex-x86_64-x64-vc14-debug-dynamic:ltp.obj
 0002:0000dbc4       __real@44800000            000000014010fbc4     libspeex-x86_64-x64-vc14-debug-dynamic:ltp.obj
 0002:0000dbc8       __real@48800000            000000014010fbc8     libspeex-x86_64-x64-vc14-debug-dynamic:ltp.obj
 0002:0000dbd0       __real@bfe0000000000000    000000014010fbd0     libspeex-x86_64-x64-vc14-debug-dynamic:ltp.obj
 0002:0000dbdc       __real@d8635fa9            000000014010fbdc     libspeex-x86_64-x64-vc14-debug-dynamic:ltp.obj
 0002:0000dbe0       __real@3f4ffffaa19c4774    000000014010fbe0     libspeex-x86_64-x64-vc14-debug-dynamic:quant_lsp.obj
 0002:0000dbf0       __real@3f5fffe5280d6543    000000014010fbf0     libspeex-x86_64-x64-vc14-debug-dynamic:quant_lsp.obj
 0002:0000dc00       __real@3f6fffe5280d6543    000000014010fc00     libspeex-x86_64-x64-vc14-debug-dynamic:quant_lsp.obj
 0002:0000dc10       __real@3fa47ae147ae147b    000000014010fc10     libspeex-x86_64-x64-vc14-debug-dynamic:quant_lsp.obj
 0002:0000dc20       __real@3fd0000000000000    000000014010fc20     libspeex-x86_64-x64-vc14-debug-dynamic:quant_lsp.obj
 0002:0000dc30       __real@3fd4000000000000    000000014010fc30     libspeex-x86_64-x64-vc14-debug-dynamic:quant_lsp.obj
 0002:0000dc40       __real@3fe8000000000000    000000014010fc40     libspeex-x86_64-x64-vc14-debug-dynamic:quant_lsp.obj
 0002:0000dc50       __real@400921fb54442d18    000000014010fc50     libspeex-x86_64-x64-vc14-debug-dynamic:quant_lsp.obj
 0002:0000dc60       __real@4070000000000000    000000014010fc60     libspeex-x86_64-x64-vc14-debug-dynamic:quant_lsp.obj
 0002:0000dc6c       __real@58635fa9            000000014010fc6c     libspeex-x86_64-x64-vc14-debug-dynamic:quant_lsp.obj
 0002:0000dc70       __real@3d000000            000000014010fc70     libspeex-x86_64-x64-vc14-debug-dynamic:cb_search.obj
 0002:0000dc78       __real@400bb6ae7d566cf4    000000014010fc78     libspeex-x86_64-x64-vc14-debug-dynamic:cb_search.obj
 0002:0000dc88       attenuation                000000014010fc88     libspeex-x86_64-x64-vc14-debug-dynamic:nb_celp.obj
 0002:0000dcd0       exc_gain_quant_scal3_bound 000000014010fcd0     libspeex-x86_64-x64-vc14-debug-dynamic:nb_celp.obj
 0002:0000dcec       exc_gain_quant_scal1_bound 000000014010fcec     libspeex-x86_64-x64-vc14-debug-dynamic:nb_celp.obj
 0002:0000dcf0       exc_gain_quant_scal3       000000014010fcf0     libspeex-x86_64-x64-vc14-debug-dynamic:nb_celp.obj
 0002:0000dd10       exc_gain_quant_scal1       000000014010fd10     libspeex-x86_64-x64-vc14-debug-dynamic:nb_celp.obj
 0002:0000dd34       __real@26901d7d            000000014010fd34     libspeex-x86_64-x64-vc14-debug-dynamic:nb_celp.obj
 0002:0000dd38       __real@3b03126f            000000014010fd38     libspeex-x86_64-x64-vc14-debug-dynamic:nb_celp.obj
 0002:0000dd3c       __real@3e19999a            000000014010fd3c     libspeex-x86_64-x64-vc14-debug-dynamic:nb_celp.obj
 0002:0000dd40       __real@3e99999a            000000014010fd40     libspeex-x86_64-x64-vc14-debug-dynamic:nb_celp.obj
 0002:0000dd44       __real@3ee8ba1f            000000014010fd44     libspeex-x86_64-x64-vc14-debug-dynamic:nb_celp.obj
 0002:0000dd48       __real@3f59999a            000000014010fd48     libspeex-x86_64-x64-vc14-debug-dynamic:nb_celp.obj
 0002:0000dd4c       __real@3f6e147b            000000014010fd4c     libspeex-x86_64-x64-vc14-debug-dynamic:nb_celp.obj
 0002:0000dd50       __real@3f7ae148            000000014010fd50     libspeex-x86_64-x64-vc14-debug-dynamic:nb_celp.obj
 0002:0000dd54       __real@3f8147ae            000000014010fd54     libspeex-x86_64-x64-vc14-debug-dynamic:nb_celp.obj
 0002:0000dd58       __real@3fa999999999999a    000000014010fd58     libspeex-x86_64-x64-vc14-debug-dynamic:nb_celp.obj
 0002:0000dd68       __real@3fb11116a8b8f14e    000000014010fd68     libspeex-x86_64-x64-vc14-debug-dynamic:nb_celp.obj
 0002:0000dd74       __real@3fc00000            000000014010fd74     libspeex-x86_64-x64-vc14-debug-dynamic:nb_celp.obj
 0002:0000dd78       __real@3fe3333333333333    000000014010fd78     libspeex-x86_64-x64-vc14-debug-dynamic:nb_celp.obj
 0002:0000dd88       __real@3fe570a3d70a3d71    000000014010fd88     libspeex-x86_64-x64-vc14-debug-dynamic:nb_celp.obj
 0002:0000dd98       __real@3fe999999999999a    000000014010fd98     libspeex-x86_64-x64-vc14-debug-dynamic:nb_celp.obj
 0002:0000dda8       __real@3feb333333333333    000000014010fda8     libspeex-x86_64-x64-vc14-debug-dynamic:nb_celp.obj
 0002:0000ddb8       __real@3feccccccccccccd    000000014010fdb8     libspeex-x86_64-x64-vc14-debug-dynamic:nb_celp.obj
 0002:0000ddc8       __real@3ff199999999999a    000000014010fdc8     libspeex-x86_64-x64-vc14-debug-dynamic:nb_celp.obj
 0002:0000ddd8       __real@400c000000000000    000000014010fdd8     libspeex-x86_64-x64-vc14-debug-dynamic:nb_celp.obj
 0002:0000dde4       __real@400ccccd            000000014010fde4     libspeex-x86_64-x64-vc14-debug-dynamic:nb_celp.obj
 0002:0000dde8       __real@40490fdb            000000014010fde8     libspeex-x86_64-x64-vc14-debug-dynamic:nb_celp.obj
 0002:0000ddec       __real@41000000            000000014010fdec     libspeex-x86_64-x64-vc14-debug-dynamic:nb_celp.obj
 0002:0000ddf0       __real@41700000            000000014010fdf0     libspeex-x86_64-x64-vc14-debug-dynamic:nb_celp.obj
 0002:0000ddf4       __real@42c80000            000000014010fdf4     libspeex-x86_64-x64-vc14-debug-dynamic:nb_celp.obj
 0002:0000ddf8       __real@46fa0000            000000014010fdf8     libspeex-x86_64-x64-vc14-debug-dynamic:nb_celp.obj
 0002:0000ddfc       __real@bd4ccccd            000000014010fdfc     libspeex-x86_64-x64-vc14-debug-dynamic:nb_celp.obj
 0002:0000de00       __real@bee4f8b588e368f1    000000014010fe00     libspeex-x86_64-x64-vc14-debug-dynamic:nb_celp.obj
 0002:0000de10       __real@bfa999999999999a    000000014010fe10     libspeex-x86_64-x64-vc14-debug-dynamic:nb_celp.obj
 0002:0000de20       __real@bfc999999999999a    000000014010fe20     libspeex-x86_64-x64-vc14-debug-dynamic:nb_celp.obj
 0002:0000de2c       __real@c6fa0000            000000014010fe2c     libspeex-x86_64-x64-vc14-debug-dynamic:nb_celp.obj
 0002:0000de30       gain_cdbk_nb               000000014010fe30     libspeex-x86_64-x64-vc14-debug-dynamic:gain_table.obj
 0002:0000e0a0       gain_cdbk_lbr              00000001401100a0     libspeex-x86_64-x64-vc14-debug-dynamic:gain_table_lbr.obj
 0002:0000e140       exc_5_256_table            0000000140110140     libspeex-x86_64-x64-vc14-debug-dynamic:exc_5_256_table.obj
 0002:0000e740       exc_5_64_table             0000000140110740     libspeex-x86_64-x64-vc14-debug-dynamic:exc_5_64_table.obj
 0002:0000e8c0       exc_8_128_table            00000001401108c0     libspeex-x86_64-x64-vc14-debug-dynamic:exc_8_128_table.obj
 0002:0000ed90       exc_10_32_table            0000000140110d90     libspeex-x86_64-x64-vc14-debug-dynamic:exc_10_32_table.obj
 0002:0000ef10       exc_10_16_table            0000000140110f10     libspeex-x86_64-x64-vc14-debug-dynamic:exc_10_16_table.obj
 0002:0000efd0       exc_20_32_table            0000000140110fd0     libspeex-x86_64-x64-vc14-debug-dynamic:exc_20_32_table.obj
 0002:0000f2d0       vbr_nb_thresh              00000001401112d0     libspeex-x86_64-x64-vc14-debug-dynamic:vbr.obj
 0002:0000f460       vbr_hb_thresh              0000000140111460     libspeex-x86_64-x64-vc14-debug-dynamic:vbr.obj
 0002:0000f540       vbr_uhb_thresh             0000000140111540     libspeex-x86_64-x64-vc14-debug-dynamic:vbr.obj
 0002:0000f628       __real@3faeb851eb851eb8    0000000140111628     libspeex-x86_64-x64-vc14-debug-dynamic:vbr.obj
 0002:0000f638       __real@3fc999999999999a    0000000140111638     libspeex-x86_64-x64-vc14-debug-dynamic:vbr.obj
 0002:0000f648       __real@3fd3333333333333    0000000140111648     libspeex-x86_64-x64-vc14-debug-dynamic:vbr.obj
 0002:0000f658       __real@3fd999999999999a    0000000140111658     libspeex-x86_64-x64-vc14-debug-dynamic:vbr.obj
 0002:0000f668       __real@3fe6666666666666    0000000140111668     libspeex-x86_64-x64-vc14-debug-dynamic:vbr.obj
 0002:0000f678       __real@3ff3333333333333    0000000140111678     libspeex-x86_64-x64-vc14-debug-dynamic:vbr.obj
 0002:0000f688       __real@3ff999999999999a    0000000140111688     libspeex-x86_64-x64-vc14-debug-dynamic:vbr.obj
 0002:0000f698       __real@400199999999999a    0000000140111698     libspeex-x86_64-x64-vc14-debug-dynamic:vbr.obj
 0002:0000f6a8       __real@4008000000000000    00000001401116a8     libspeex-x86_64-x64-vc14-debug-dynamic:vbr.obj
 0002:0000f6b4       __real@40400000            00000001401116b4     libspeex-x86_64-x64-vc14-debug-dynamic:vbr.obj
 0002:0000f6b8       __real@40a00000            00000001401116b8     libspeex-x86_64-x64-vc14-debug-dynamic:vbr.obj
 0002:0000f6c0       __real@40b7700000000000    00000001401116c0     libspeex-x86_64-x64-vc14-debug-dynamic:vbr.obj
 0002:0000f6cc       __real@40e00000            00000001401116cc     libspeex-x86_64-x64-vc14-debug-dynamic:vbr.obj
 0002:0000f6d0       __real@40ed4c0000000000    00000001401116d0     libspeex-x86_64-x64-vc14-debug-dynamic:vbr.obj
 0002:0000f6dc       __real@43160000            00000001401116dc     libspeex-x86_64-x64-vc14-debug-dynamic:vbr.obj
 0002:0000f6e0       __real@453b8000            00000001401116e0     libspeex-x86_64-x64-vc14-debug-dynamic:vbr.obj
 0002:0000f6e4       __real@45bb8000            00000001401116e4     libspeex-x86_64-x64-vc14-debug-dynamic:vbr.obj
 0002:0000f6e8       __real@461c4000            00000001401116e8     libspeex-x86_64-x64-vc14-debug-dynamic:vbr.obj
 0002:0000f6ec       __real@46ea6000            00000001401116ec     libspeex-x86_64-x64-vc14-debug-dynamic:vbr.obj
 0002:0000f6f0       __real@476a6000            00000001401116f0     libspeex-x86_64-x64-vc14-debug-dynamic:vbr.obj
 0002:0000f6f4       __real@c0a00000            00000001401116f4     libspeex-x86_64-x64-vc14-debug-dynamic:vbr.obj
 0002:0000f91c       __real@3e000000            000000014011191c     libspeex-x86_64-x64-vc14-debug-dynamic:sb_celp.obj
 0002:0000f920       __real@3f350529            0000000140111920     libspeex-x86_64-x64-vc14-debug-dynamic:sb_celp.obj
 0002:0000f928       __real@3f847ae147ae147b    0000000140111928     libspeex-x86_64-x64-vc14-debug-dynamic:sb_celp.obj
 0002:0000f934       __real@3fb50481            0000000140111934     libspeex-x86_64-x64-vc14-debug-dynamic:sb_celp.obj
 0002:0000f938       __real@3febf487fcb923a3    0000000140111938     libspeex-x86_64-x64-vc14-debug-dynamic:sb_celp.obj
 0002:0000f944       __real@40200000            0000000140111944     libspeex-x86_64-x64-vc14-debug-dynamic:sb_celp.obj
 0002:0000f948       __real@bdcccccd            0000000140111948     libspeex-x86_64-x64-vc14-debug-dynamic:sb_celp.obj
 0002:0000f950       __real@bfb999999999999a    0000000140111950     libspeex-x86_64-x64-vc14-debug-dynamic:sb_celp.obj
 0002:0000f95c       __real@c0800000            000000014011195c     libspeex-x86_64-x64-vc14-debug-dynamic:sb_celp.obj
 0002:0000f960       hexc_table                 0000000140111960     libspeex-x86_64-x64-vc14-debug-dynamic:hexc_table.obj
 0002:0000fe30       hexc_10_32_table           0000000140111e30     libspeex-x86_64-x64-vc14-debug-dynamic:hexc_10_32_table.obj
 0002:0000ffb0       shift_filt                 0000000140111fb0     libspeex-x86_64-x64-vc14-debug-dynamic:filters.obj
 0002:00010014       __real@3ecc49ba            0000000140112014     libspeex-x86_64-x64-vc14-debug-dynamic:filters.obj
 0002:00010018       __real@3f6147ae            0000000140112018     libspeex-x86_64-x64-vc14-debug-dynamic:filters.obj
 0002:0001001c       __real@3f6a3c21            000000014011201c     libspeex-x86_64-x64-vc14-debug-dynamic:filters.obj
 0002:00010020       __real@3f6e4303            0000000140112020     libspeex-x86_64-x64-vc14-debug-dynamic:filters.obj
 0002:00010024       __real@3f6f7ee5            0000000140112024     libspeex-x86_64-x64-vc14-debug-dynamic:filters.obj
 0002:00010028       __real@3f74dfce            0000000140112028     libspeex-x86_64-x64-vc14-debug-dynamic:filters.obj
 0002:0001002c       __real@3f76e6da            000000014011202c     libspeex-x86_64-x64-vc14-debug-dynamic:filters.obj
 0002:00010030       __real@3f779c63            0000000140112030     libspeex-x86_64-x64-vc14-debug-dynamic:filters.obj
 0002:00010034       __real@3f792b80            0000000140112034     libspeex-x86_64-x64-vc14-debug-dynamic:filters.obj
 0002:00010038       __real@3f7c87fd            0000000140112038     libspeex-x86_64-x64-vc14-debug-dynamic:filters.obj
 0002:00010040       __real@3fb1eb851eb851ec    0000000140112040     libspeex-x86_64-x64-vc14-debug-dynamic:filters.obj
 0002:00010050       __real@3ffb851eb851eb85    0000000140112050     libspeex-x86_64-x64-vc14-debug-dynamic:filters.obj
 0002:0001005c       __real@447a0000            000000014011205c     libspeex-x86_64-x64-vc14-debug-dynamic:filters.obj
 0002:00010060       __real@bfaf5c29            0000000140112060     libspeex-x86_64-x64-vc14-debug-dynamic:filters.obj
 0002:00010064       __real@bfe147ae            0000000140112064     libspeex-x86_64-x64-vc14-debug-dynamic:filters.obj
 0002:00010068       __real@bff4a234            0000000140112068     libspeex-x86_64-x64-vc14-debug-dynamic:filters.obj
 0002:0001006c       __real@bff4e022            000000014011206c     libspeex-x86_64-x64-vc14-debug-dynamic:filters.obj
 0002:00010070       __real@bff6a25e            0000000140112070     libspeex-x86_64-x64-vc14-debug-dynamic:filters.obj
 0002:00010074       __real@bff6e297            0000000140112074     libspeex-x86_64-x64-vc14-debug-dynamic:filters.obj
 0002:00010078       __real@bff778ff            0000000140112078     libspeex-x86_64-x64-vc14-debug-dynamic:filters.obj
 0002:0001007c       __real@bff79c0f            000000014011207c     libspeex-x86_64-x64-vc14-debug-dynamic:filters.obj
 0002:00010080       __real@bffc7304            0000000140112080     libspeex-x86_64-x64-vc14-debug-dynamic:filters.obj
 0002:00010084       __real@bffc83ba            0000000140112084     libspeex-x86_64-x64-vc14-debug-dynamic:filters.obj
 0002:00010090       cdbk_nb                    0000000140112090     libspeex-x86_64-x64-vc14-debug-dynamic:lsp_tables_nb.obj
 0002:00010310       cdbk_nb_low1               0000000140112310     libspeex-x86_64-x64-vc14-debug-dynamic:lsp_tables_nb.obj
 0002:00010450       cdbk_nb_low2               0000000140112450     libspeex-x86_64-x64-vc14-debug-dynamic:lsp_tables_nb.obj
 0002:00010590       cdbk_nb_high1              0000000140112590     libspeex-x86_64-x64-vc14-debug-dynamic:lsp_tables_nb.obj
 0002:000106d0       cdbk_nb_high2              00000001401126d0     libspeex-x86_64-x64-vc14-debug-dynamic:lsp_tables_nb.obj
 0002:00010990       high_lsp_cdbk              0000000140112990     libspeex-x86_64-x64-vc14-debug-dynamic:high_lsp_tables.obj
 0002:00010b90       high_lsp_cdbk2             0000000140112b90     libspeex-x86_64-x64-vc14-debug-dynamic:high_lsp_tables.obj
 0002:00010e60       __real@3f689374bc6a7efa    0000000140112e60     libspeex-x86_64-x64-vc14-debug-dynamic:lpc.obj
 0002:00010e6c       __real@3d29ef0e            0000000140112e6c     libspeex-x86_64-x64-vc14-debug-dynamic:lsp.obj
 0002:00010e70       __real@3f7fff90            0000000140112e70     libspeex-x86_64-x64-vc14-debug-dynamic:lsp.obj
 0002:00010e78       __real@3ff921fb544486e0    0000000140112e78     libspeex-x86_64-x64-vc14-debug-dynamic:lsp.obj
 0002:00010e84       __real@baa69eb6            0000000140112e84     libspeex-x86_64-x64-vc14-debug-dynamic:lsp.obj
 0002:00010e88       __real@befff486            0000000140112e88     libspeex-x86_64-x64-vc14-debug-dynamic:lsp.obj
 0002:00010e90       __real@bff0000000000000    0000000140112e90     libspeex-x86_64-x64-vc14-debug-dynamic:lsp.obj
 0002:00010ea0       lag_window                 0000000140112ea0     libspeex-x86_64-x64-vc14-debug-dynamic:window.obj
 0002:00010ed0       lpc_window                 0000000140112ed0     libspeex-x86_64-x64-vc14-debug-dynamic:window.obj
 0002:000112a0       __real@3f6a36e2eb1c432d    00000001401132a0     libsrtp-x86_64-x64-vc14-debug-dynamic:stat.obj
 0002:000112b0       __real@400147ae147ae148    00000001401132b0     libsrtp-x86_64-x64-vc14-debug-dynamic:stat.obj
 0002:000112c0       __real@404715c28f5c28f6    00000001401132c0     libsrtp-x86_64-x64-vc14-debug-dynamic:stat.obj
 0002:000112d0       __real@40b3880000000000    00000001401132d0     libsrtp-x86_64-x64-vc14-debug-dynamic:stat.obj
 0002:00011350       srtp_null_cipher           0000000140113350     libsrtp-x86_64-x64-vc14-debug-dynamic:null_cipher.obj
 0002:000113d0       srtp_aes_icm_128           00000001401133d0     libsrtp-x86_64-x64-vc14-debug-dynamic:aes_icm.obj
 0002:00011430       srtp_aes_icm_256           0000000140113430     libsrtp-x86_64-x64-vc14-debug-dynamic:aes_icm.obj
 0002:00011740       srtp_null_auth             0000000140113740     libsrtp-x86_64-x64-vc14-debug-dynamic:null_auth.obj
 0002:00011850       srtp_hmac                  0000000140113850     libsrtp-x86_64-x64-vc14-debug-dynamic:hmac.obj
 0002:00014284       __real@0da24260            0000000140116284     opus:opus_encoder.obj
 0002:00014288       __real@31800000            0000000140116288     opus:opus_encoder.obj
 0002:0001428c       __real@38000000            000000014011628c     opus:opus_encoder.obj
 0002:00014290       __real@38800000            0000000140116290     opus:opus_encoder.obj
 0002:00014294       __real@3a51b717            0000000140116294     opus:opus_encoder.obj
 0002:00014298       __real@3a800000            0000000140116298     opus:opus_encoder.obj
 0002:0001429c       __real@3ca3d70a            000000014011629c     opus:opus_encoder.obj
 0002:000142a0       __real@3f7fbe77            00000001401162a0     opus:opus_encoder.obj
 0002:000142a8       __real@3fe62e42fefa39ef    00000001401162a8     opus:opus_encoder.obj
 0002:000142b4       __real@40c9999a            00000001401162b4     opus:opus_encoder.obj
 0002:000142b8       __real@41a00000            00000001401162b8     opus:opus_encoder.obj
 0002:000142bc       __real@41c80000            00000001401162bc     opus:opus_encoder.obj
 0002:000142c0       __real@439e1d71            00000001401162c0     opus:opus_encoder.obj
 0002:000142c4       __real@47000000            00000001401162c4     opus:opus_encoder.obj
 0002:000142c8       __real@472be000            00000001401162c8     opus:opus_encoder.obj
 0002:000142cc       __real@477a0000            00000001401162cc     opus:opus_encoder.obj
 0002:000142d0       __real@4e6e6b28            00000001401162d0     opus:opus_encoder.obj
 0002:000142d4       __real@c0000000            00000001401162d4     opus:opus_encoder.obj
 0002:000142e0       __xmm@3f0000003f0000003f0000003f000000 00000001401162e0     opus:opus_encoder.obj
 0002:00014300       __xmm@7fffffff7fffffff7fffffff7fffffff 0000000140116300     opus:opus_encoder.obj
 0002:00014320       __xmm@c0000000c0000000c0000000c0000000 0000000140116320     opus:opus_encoder.obj
 0002:00014334       __real@3a2a152d            0000000140116334     opus:opus_decoder.obj
 0002:000144d4       __real@36500998            00000001401164d4     opus:celt_encoder.obj
 0002:000144d8       __real@38d1b717            00000001401164d8     opus:celt_encoder.obj
 0002:000144dc       __real@3a83126f            00000001401164dc     opus:celt_encoder.obj
 0002:000144e0       __real@3bcb295f            00000001401164e0     opus:celt_encoder.obj
 0002:000144e4       __real@3be21965            00000001401164e4     opus:celt_encoder.obj
 0002:000144e8       __real@3c800000            00000001401164e8     opus:celt_encoder.obj
 0002:000144ec       __real@3cfdf3b6            00000001401164ec     opus:celt_encoder.obj
 0002:000144f0       __real@3d23d70a            00000001401164f0     opus:celt_encoder.obj
 0002:000144f4       __real@3d343958            00000001401164f4     opus:celt_encoder.obj
 0002:000144f8       __real@3d800000            00000001401164f8     opus:celt_encoder.obj
 0002:000144fc       __real@3dc00000            00000001401164fc     opus:celt_encoder.obj
 0002:00014500       __real@3df5c28f            0000000140116500     opus:celt_encoder.obj
 0002:00014504       __real@3f0ccccd            0000000140116504     opus:celt_encoder.obj
 0002:00014508       __real@3f3504f7            0000000140116508     opus:celt_encoder.obj
 0002:0001450c       __real@3f400000            000000014011650c     opus:celt_encoder.obj
 0002:00014510       __real@3f8020c5            0000000140116510     opus:celt_encoder.obj
 0002:00014518       __real@3fc1cac083126e98    0000000140116518     opus:celt_encoder.obj
 0002:00014528       __real@3fe947ae147ae148    0000000140116528     opus:celt_encoder.obj
 0002:00014538       __real@3ff428f5c28f5c29    0000000140116538     opus:celt_encoder.obj
 0002:00014548       __real@3ff71547652b82fe    0000000140116548     opus:celt_encoder.obj
 0002:00014558       __real@405fc00000000000    0000000140116558     opus:celt_encoder.obj
 0002:00014564       __real@412aaaab            0000000140116564     opus:celt_encoder.obj
 0002:00014568       __real@41400000            0000000140116568     opus:celt_encoder.obj
 0002:0001456c       __real@41500000            000000014011656c     opus:celt_encoder.obj
 0002:00014570       __real@42280000            0000000140116570     opus:celt_encoder.obj
 0002:00014574       __real@43230000            0000000140116574     opus:celt_encoder.obj
 0002:00014578       __real@43c80000            0000000140116578     opus:celt_encoder.obj
 0002:0001457c       __real@47800000            000000014011657c     opus:celt_encoder.obj
 0002:00014580       __real@bcfdf3b6            0000000140116580     opus:celt_encoder.obj
 0002:00014584       __real@bf000000            0000000140116584     opus:celt_encoder.obj
 0002:00014588       __real@bf2b851f            0000000140116588     opus:celt_encoder.obj
 0002:0001458c       __real@bf99999a            000000014011658c     opus:celt_encoder.obj
 0002:00014590       __real@bfc00000            0000000140116590     opus:celt_encoder.obj
 0002:00014594       __real@c1200000            0000000140116594     opus:celt_encoder.obj
 0002:00014598       __real@c1ff3333            0000000140116598     opus:celt_encoder.obj
 0002:0001459c       __real@c7800000            000000014011659c     opus:celt_encoder.obj
 0002:000145a0       __xmm@00000002000000020000000200000002 00000001401165a0     opus:celt_encoder.obj
 0002:000145c0       __xmm@00000003000000020000000100000000 00000001401165c0     opus:celt_encoder.obj
 0002:000145e0       __xmm@3bcb295f3bcb295f3bcb295f3bcb295f 00000001401165e0     opus:celt_encoder.obj
 0002:00014600       __xmm@3d8000003d8000003d8000003d800000 0000000140116600     opus:celt_encoder.obj
 0002:00014620       __xmm@3e8000003e8000003e8000003e800000 0000000140116620     opus:celt_encoder.obj
 0002:00014640       __xmm@3fe62e42fefa39ef3fe62e42fefa39ef 0000000140116640     opus:celt_encoder.obj
 0002:00014660       __xmm@40800000408000004080000040800000 0000000140116660     opus:celt_encoder.obj
 0002:00014680       __xmm@41500000415000004150000041500000 0000000140116680     opus:celt_encoder.obj
 0002:00014de4       __real@219392ef            0000000140116de4     opus:analysis.obj
 0002:00014de8       __real@2edbe6ff            0000000140116de8     opus:analysis.obj
 0002:00014dec       __real@3727c5ac            0000000140116dec     opus:analysis.obj
 0002:00014df0       __real@37800000            0000000140116df0     opus:analysis.obj
 0002:00014df4       __real@3991a2b4            0000000140116df4     opus:analysis.obj
 0002:00014df8       __real@3a156c0d            0000000140116df8     opus:analysis.obj
 0002:00014dfc       __real@3b449ba6            0000000140116dfc     opus:analysis.obj
 0002:00014e00       __real@3be38e39            0000000140116e00     opus:analysis.obj
 0002:00014e04       __real@3c23d70a            0000000140116e04     opus:analysis.obj
 0002:00014e08       __real@3c75c28f            0000000140116e08     opus:analysis.obj
 0002:00014e10       __real@3cd203af9ee75616    0000000140116e10     opus:analysis.obj
 0002:00014e1c       __real@3cf5c28f            0000000140116e1c     opus:analysis.obj
 0002:00014e20       __real@3d638e39            0000000140116e20     opus:analysis.obj
 0002:00014e24       __real@3d8b1ee2            0000000140116e24     opus:analysis.obj
 0002:00014e28       __real@3d8dc11e            0000000140116e28     opus:analysis.obj
 0002:00014e2c       __real@3db00965            0000000140116e2c     opus:analysis.obj
 0002:00014e30       __real@3de38e39            0000000140116e30     opus:analysis.obj
 0002:00014e34       __real@3dfbe22e            0000000140116e34     opus:analysis.obj
 0002:00014e38       __real@3e1a3ec0            0000000140116e38     opus:analysis.obj
 0002:00014e3c       __real@3e1e6fb5            0000000140116e3c     opus:analysis.obj
 0002:00014e40       __real@3e88d64d            0000000140116e40     opus:analysis.obj
 0002:00014e44       __real@3ea1e8e6            0000000140116e44     opus:analysis.obj
 0002:00014e48       __real@3edcf805            0000000140116e48     opus:analysis.obj
 0002:00014e4c       __real@3efbe0df            0000000140116e4c     opus:analysis.obj
 0002:00014e50       __real@3f08d64d            0000000140116e50     opus:analysis.obj
 0002:00014e54       __real@3f1b80ff            0000000140116e54     opus:analysis.obj
 0002:00014e58       __real@3f21e8e6            0000000140116e58     opus:analysis.obj
 0002:00014e5c       __real@3f2db121            0000000140116e5c     opus:analysis.obj
 0002:00014e60       __real@3f326a01            0000000140116e60     opus:analysis.obj
 0002:00014e64       __real@3f38aa3b            0000000140116e64     opus:analysis.obj
 0002:00014e68       __real@3f398234            0000000140116e68     opus:analysis.obj
 0002:00014e6c       __real@3f3e643d            0000000140116e6c     opus:analysis.obj
 0002:00014e70       __real@3f47ae14            0000000140116e70     opus:analysis.obj
 0002:00014e74       __real@3fa16074            0000000140116e74     opus:analysis.obj
 0002:00014e78       __real@3fb7aace            0000000140116e78     opus:analysis.obj
 0002:00014e7c       __real@3fc90fdb            0000000140116e7c     opus:analysis.obj
 0002:00014e80       __real@3ff59b13            0000000140116e80     opus:analysis.obj
 0002:00014e84       __real@400a73b8            0000000140116e84     opus:analysis.obj
 0002:00014e88       __real@401e000000000000    0000000140116e88     opus:analysis.obj
 0002:00014e94       __real@40b5eb16            0000000140116e94     opus:analysis.obj
 0002:00014e98       __real@41f00000            0000000140116e98     opus:analysis.obj
 0002:00014e9c       __real@43200000            0000000140116e9c     opus:analysis.obj
 0002:00014ea0       __real@43f00000            0000000140116ea0     opus:analysis.obj
 0002:00014ea4       __real@467385d1            0000000140116ea4     opus:analysis.obj
 0002:00014ea8       __real@46f385d1            0000000140116ea8     opus:analysis.obj
 0002:00014eac       __real@477385d1            0000000140116eac     opus:analysis.obj
 0002:00014eb0       __real@bfc90fdb            0000000140116eb0     opus:analysis.obj
 0002:00014ec0       __xmm@3dcccccd3dcccccd3dcccccd3dcccccd 0000000140116ec0     opus:analysis.obj
 0002:00014ee0       __xmm@3f6666663f6666663f6666663f666666 0000000140116ee0     opus:analysis.obj
 0002:00014f00       __xmm@40717c5b3fccc5b93fe2a423405e6b1e 0000000140116f00     opus:analysis.obj
 0002:00014f30       __real@3f800347            0000000140116f30     opus:celt_decoder.obj
 0002:00014f40       __xmm@388637be388637be388637be388637be 0000000140116f40     opus:celt_decoder.obj
 0002:00014f54       __real@3f800002            0000000140116f54     opus:opus.obj
 0002:00014f58       __real@bf800002            0000000140116f58     opus:opus.obj
 0002:00014f60       __xmm@40000000400000004000000040000000 0000000140116f60     opus:opus.obj
 0002:000195c0       tf_select_table            000000014011b5c0     opus:celt.obj
 0002:00019670       ??_C@_07IPNMCAN@success@   000000014011b670     opus:celt.obj
 0002:00019680       ??_C@_0BB@FCMFBGOM@invalid?5argument@ 000000014011b680     opus:celt.obj
 0002:00019698       ??_C@_0BB@CABJKBPN@buffer?5too?5small@ 000000014011b698     opus:celt.obj
 0002:000196b0       ??_C@_0P@LPIEGNHB@internal?5error@ 000000014011b6b0     opus:celt.obj
 0002:000196c8       ??_C@_0BB@FNNNGDHK@corrupted?5stream@ 000000014011b6c8     opus:celt.obj
 0002:000196e0       ??_C@_0BI@FOBNHMGK@request?5not?5implemented@ 000000014011b6e0     opus:celt.obj
 0002:00019700       ??_C@_0O@ELPMPPOH@invalid?5state@ 000000014011b700     opus:celt.obj
 0002:00019710       ??_C@_0BJ@FDBIHNP@memory?5allocation?5failed@ 000000014011b710     opus:celt.obj
 0002:00019730       ??_C@_0O@BFJCFAAK@unknown?5error@ 000000014011b730     opus:celt.obj
 0002:00019740       ??_C@_0O@JHAKHE@libopus?51?43?41@ 000000014011b740     opus:celt.obj
 0002:0001979c       __real@179abe15            000000014011b79c     opus:pitch.obj
 0002:000197a0       __real@3f27f62a            000000014011b7a0     opus:pitch.obj
 0002:000197a4       __real@3f3a9fbd            000000014011b7a4     opus:pitch.obj
 0002:000197a8       __real@3f4f5c28            000000014011b7a8     opus:pitch.obj
 0002:000197b0       __xmm@3d03126f3cc49ba63c83126f3c03126f 000000014011b7b0     opus:pitch.obj
 0002:000197f0       __xmm@00000001000000010000000100000001 000000014011b7f0     opus:rate.obj
 0002:000198dc       __real@129e74d2            000000014011b8dc     opus:bands.obj
 0002:000198e0       __real@3a1d4952            000000014011b8e0     opus:bands.obj
 0002:000198e4       __real@3b800000            000000014011b8e4     opus:bands.obj
 0002:000198e8       __real@3f3504f3            000000014011b8e8     opus:bands.obj
 0002:000198ec       __real@3fb504f3            000000014011b8ec     opus:bands.obj
 0002:000198f0       __real@bb800000            000000014011b8f0     opus:bands.obj
 0002:000198f4       __real@be000000            000000014011b8f4     opus:bands.obj
 0002:00019900       __xmm@3f3504f33f3504f33f3504f33f3504f3 000000014011b900     opus:bands.obj
 0002:00019920       eMeans                     000000014011b920     opus:quant_bands.obj
 0002:00019b60       __real@3e199800            000000014011bb60     opus:quant_bands.obj
 0002:00019b64       __real@41800000            000000014011bb64     opus:quant_bands.obj
 0002:00019b68       __real@43480000            000000014011bb68     opus:quant_bands.obj
 0002:00019b6c       __real@c1100000            000000014011bb6c     opus:quant_bands.obj
 0002:00019b70       __real@c1e00000            000000014011bb70     opus:quant_bands.obj
 0002:00019dcc       __real@358637bd            000000014011bdcc     opus:encode_frame_FLP.obj
 0002:00019dd0       silk_lsb_iCDF              000000014011bdd0     opus:tables_other.obj
 0002:00019dd4       silk_uniform3_iCDF         000000014011bdd4     opus:tables_other.obj
 0002:00019dd8       silk_uniform4_iCDF         000000014011bdd8     opus:tables_other.obj
 0002:00019ddc       silk_uniform5_iCDF         000000014011bddc     opus:tables_other.obj
 0002:00019de4       silk_uniform6_iCDF         000000014011bde4     opus:tables_other.obj
 0002:00019dec       silk_NLSF_EXT_iCDF         000000014011bdec     opus:tables_other.obj
 0002:00019df4       silk_LTPscale_iCDF         000000014011bdf4     opus:tables_other.obj
 0002:00019df8       silk_uniform8_iCDF         000000014011bdf8     opus:tables_other.obj
 0002:00019e00       silk_LTPScales_table_Q14   000000014011be00     opus:tables_other.obj
 0002:00019e08       silk_type_offset_VAD_iCDF  000000014011be08     opus:tables_other.obj
 0002:00019e0c       silk_type_offset_no_VAD_iCDF 000000014011be0c     opus:tables_other.obj
 0002:00019e10       silk_stereo_pred_quant_Q13 000000014011be10     opus:tables_other.obj
 0002:00019e30       silk_stereo_pred_joint_iCDF 000000014011be30     opus:tables_other.obj
 0002:00019e4c       silk_stereo_only_code_mid_iCDF 000000014011be4c     opus:tables_other.obj
 0002:00019e50       silk_LBRR_flags_iCDF_ptr   000000014011be50     opus:tables_other.obj
 0002:00019e60       silk_NLSF_interpolation_factor_iCDF 000000014011be60     opus:tables_other.obj
 0002:00019e68       silk_Quantization_Offsets_Q10 000000014011be68     opus:tables_other.obj
 0002:00019e70       silk_Transition_LP_B_Q28   000000014011be70     opus:tables_other.obj
 0002:00019eb0       silk_Transition_LP_A_Q28   000000014011beb0     opus:tables_other.obj
 0002:00019f18       __real@bf3504f3            000000014011bf18     opus:kiss_fft.obj
 0002:0001a2e4       __real@3c000000            000000014011c2e4     opus:mlp.obj
 0002:0001a2e8       __real@bc000000            000000014011c2e8     opus:mlp.obj
 0002:0001a2ec       __real@bd23d70a            000000014011c2ec     opus:mlp.obj
 0002:0001a2f0       __real@c1000000            000000014011c2f0     opus:mlp.obj
 0002:0001a300       __xmm@3c0000003c0000003c0000003c000000 000000014011c300     opus:mlp.obj
 0002:0001a320       layer0                     000000014011c320     opus:mlp_data.obj
 0002:0001a340       layer1                     000000014011c340     opus:mlp_data.obj
 0002:0001a360       layer2                     000000014011c360     opus:mlp_data.obj
 0002:0001bb08       __real@4622f987            000000014011db08     opus:vq.obj
 0002:0001bb10       silk_Resampler_3_4_COEFS   000000014011db10     opus:resampler_rom.obj
 0002:0001bb50       silk_Resampler_2_3_COEFS   000000014011db50     opus:resampler_rom.obj
 0002:0001bb78       silk_Resampler_1_2_COEFS   000000014011db78     opus:resampler_rom.obj
 0002:0001bb98       silk_Resampler_1_3_COEFS   000000014011db98     opus:resampler_rom.obj
 0002:0001bbc0       silk_Resampler_1_4_COEFS   000000014011dbc0     opus:resampler_rom.obj
 0002:0001bbe8       silk_Resampler_1_6_COEFS   000000014011dbe8     opus:resampler_rom.obj
 0002:0001bc10       silk_Resampler_2_3_COEFS_LQ 000000014011dc10     opus:resampler_rom.obj
 0002:0001bc20       silk_resampler_frac_FIR_12 000000014011dc20     opus:resampler_rom.obj
 0002:0001bcd0       silk_pulses_per_block_iCDF 000000014011dcd0     opus:tables_pulses_per_block.obj
 0002:0001bd84       silk_max_pulses_table      000000014011dd84     opus:tables_pulses_per_block.obj
 0002:0001bd88       silk_rate_levels_iCDF      000000014011dd88     opus:tables_pulses_per_block.obj
 0002:0001bda0       silk_pulses_per_block_BITS_Q5 000000014011dda0     opus:tables_pulses_per_block.obj
 0002:0001be48       silk_rate_levels_BITS_Q5   000000014011de48     opus:tables_pulses_per_block.obj
 0002:0001be60       silk_shell_code_table0     000000014011de60     opus:tables_pulses_per_block.obj
 0002:0001bf00       silk_shell_code_table1     000000014011df00     opus:tables_pulses_per_block.obj
 0002:0001bfa0       silk_shell_code_table2     000000014011dfa0     opus:tables_pulses_per_block.obj
 0002:0001c040       silk_shell_code_table3     000000014011e040     opus:tables_pulses_per_block.obj
 0002:0001c0d8       silk_shell_code_table_offsets 000000014011e0d8     opus:tables_pulses_per_block.obj
 0002:0001c0f0       silk_sign_iCDF             000000014011e0f0     opus:tables_pulses_per_block.obj
 0002:0001c1f8       silk_gain_iCDF             000000014011e1f8     opus:tables_gain.obj
 0002:0001c210       silk_delta_gain_iCDF       000000014011e210     opus:tables_gain.obj
 0002:0001c248       silk_pitch_lag_iCDF        000000014011e248     opus:tables_pitch_lag.obj
 0002:0001c268       silk_pitch_delta_iCDF      000000014011e268     opus:tables_pitch_lag.obj
 0002:0001c280       silk_pitch_contour_iCDF    000000014011e280     opus:tables_pitch_lag.obj
 0002:0001c2a4       silk_pitch_contour_10_ms_NB_iCDF 000000014011e2a4     opus:tables_pitch_lag.obj
 0002:0001c2a8       silk_pitch_contour_NB_iCDF 000000014011e2a8     opus:tables_pitch_lag.obj
 0002:0001c2b8       silk_pitch_contour_10_ms_iCDF 000000014011e2b8     opus:tables_pitch_lag.obj
 0002:0001c2e0       silk_LTP_per_index_iCDF    000000014011e2e0     opus:tables_LTP.obj
 0002:0001c2e8       silk_LTP_gain_iCDF_ptrs    000000014011e2e8     opus:tables_LTP.obj
 0002:0001c300       silk_LTP_gain_BITS_Q5_ptrs 000000014011e300     opus:tables_LTP.obj
 0002:0001c318       silk_LTP_vq_ptrs_Q7        000000014011e318     opus:tables_LTP.obj
 0002:0001c330       silk_LTP_vq_gain_ptrs_Q7   000000014011e330     opus:tables_LTP.obj
 0002:0001c348       silk_LTP_vq_sizes          000000014011e348     opus:tables_LTP.obj
 0002:0001c580       __real@34800000            000000014011e580     opus:noise_shape_analysis_FLP.obj
 0002:0001c584       __real@358637be            000000014011e584     opus:noise_shape_analysis_FLP.obj
 0002:0001c588       __real@37fba882            000000014011e588     opus:noise_shape_analysis_FLP.obj
 0002:0001c58c       __real@3a866666            000000014011e58c     opus:noise_shape_analysis_FLP.obj
 0002:0001c590       __real@3b4ccccd            000000014011e590     opus:noise_shape_analysis_FLP.obj
 0002:0001c594       __real@3f19999a            000000014011e594     opus:noise_shape_analysis_FLP.obj
 0002:0001c598       __real@3f70a3d7            000000014011e598     opus:noise_shape_analysis_FLP.obj
 0002:0001c59c       __real@3f9fc94c            000000014011e59c     opus:noise_shape_analysis_FLP.obj
 0002:0001c5a0       __real@400a934f0979a36c    000000014011e5a0     opus:noise_shape_analysis_FLP.obj
 0002:0001c5ac       __real@407fef9e            000000014011e5ac     opus:noise_shape_analysis_FLP.obj
 0002:0001c5b0       __real@40c00000            000000014011e5b0     opus:noise_shape_analysis_FLP.obj
 0002:0001c5b4       __real@be23d70a            000000014011e5b4     opus:noise_shape_analysis_FLP.obj
 0002:0001c5b8       __real@364ccccd            000000014011e5b8     opus:find_pitch_lags_FLP.obj
 0002:0001c5bc       __real@39cccccd            000000014011e5bc     opus:find_pitch_lags_FLP.obj
 0002:0001c5c0       __real@3b83126f            000000014011e5c0     opus:find_pitch_lags_FLP.obj
 0002:0001c5c4       __real@3a4ccccd            000000014011e5c4     opus:process_gains_FLP.obj
 0002:0001c5c8       __real@3b28f5c3            000000014011e5c8     opus:process_gains_FLP.obj
 0002:0001c5cc       __real@3f99999a            000000014011e5cc     opus:process_gains_FLP.obj
 0002:0001c5d0       __real@40ddc290            000000014011e5d0     opus:process_gains_FLP.obj
 0002:0001c5d4       __real@39800000            000000014011e5d4     opus:wrappers_FLP.obj
 0002:0001c5d8       __real@45800000            000000014011e5d8     opus:wrappers_FLP.obj
 0002:0001c5dc       __real@46000000            000000014011e5dc     opus:wrappers_FLP.obj
 0002:0001c5e0       __real@46800000            000000014011e5e0     opus:wrappers_FLP.obj
 0002:0001c5e4       __real@48000000            000000014011e5e4     opus:wrappers_FLP.obj
 0002:0001c5f0       __xmm@38800000388000003880000038800000 000000014011e5f0     opus:wrappers_FLP.obj
 0002:0001c610       __xmm@39800000398000003980000039800000 000000014011e610     opus:wrappers_FLP.obj
 0002:0001c630       SILK_VAD_GETSA_Q8_IMPL     000000014011e630     opus:x86_silk_map.obj
 0002:0001c6a0       silk_NLSF_CB_WB            000000014011e6a0     opus:tables_NLSF_CB_WB.obj
 0002:0001d0c0       silk_NLSF_CB_NB_MB         000000014011f0c0     opus:tables_NLSF_CB_NB_MB.obj
 0002:0001f000       __xmm@00000004000000040000000400000004 0000000140121000     opus:vq_sse2.obj
 0002:0001f020       __xmm@3f8000003f8000003f8000003f800000 0000000140121020     opus:vq_sse2.obj
 0002:0001f048       __real@3e112e0be0000000    0000000140121048     opus:schur_FLP.obj
 0002:0001f054       __real@411de9e7            0000000140121054     opus:apply_sine_window_FLP.obj
 0002:0001f058       __real@3f50624dd2f1a9fc    0000000140121058     opus:pitch_analysis_core_FLP.obj
 0002:0001f068       __real@4103880000000000    0000000140121068     opus:pitch_analysis_core_FLP.obj
 0002:0001f074       __real@c47a0000            0000000140121074     opus:pitch_analysis_core_FLP.obj
 0002:0001f078       __real@7f7fffff            0000000140121078     opus:find_LPC_FLP.obj
 0002:0001f07c       __real@322bcc77            000000014012107c     opus:residual_energy_FLP.obj
 0002:0001f0a0       __xmm@00000003000000030000000300000003 00000001401210a0     opus:NSQ_del_dec.obj
 0002:0001f130       silk_CB_lags_stage2        0000000140121130     opus:pitch_est_tables.obj
 0002:0001f15c       silk_nb_cbk_searchs_stage3 000000014012115c     opus:pitch_est_tables.obj
 0002:0001f160       silk_CB_lags_stage3        0000000140121160     opus:pitch_est_tables.obj
 0002:0001f1e8       silk_Lag_range_stage3      00000001401211e8     opus:pitch_est_tables.obj
 0002:0001f200       silk_CB_lags_stage2_10_ms  0000000140121200     opus:pitch_est_tables.obj
 0002:0001f208       silk_CB_lags_stage3_10_ms  0000000140121208     opus:pitch_est_tables.obj
 0002:0001f220       silk_Lag_range_stage3_10_ms 0000000140121220     opus:pitch_est_tables.obj
 0002:0001f258       __real@3ff0000a7c5ac000    0000000140121258     opus:burg_modified_FLP.obj
 0002:0001f268       __real@bee4f8b580000000    0000000140121268     opus:burg_modified_FLP.obj
 0002:0001f278       __real@c000000000000000    0000000140121278     opus:burg_modified_FLP.obj
 0002:0001f290       __xmm@80000000000000008000000000000000 0000000140121290     opus:burg_modified_FLP.obj
 0002:0001f2b0       silk_LSFCosTab_FIX_Q12     00000001401212b0     opus:table_LSF_cos.obj
 0002:0001f420       _load_config_used          0000000140121420     MSVCRTD:loadcfg.obj
 0002:0001f900       __CastGuardVftablesStart   0000000140121900     MSVCRTD:guard_support.obj
 0002:0001fa10       __CastGuardVftablesEnd     0000000140121a10     MSVCRTD:guard_support.obj
 0002:0001fd18       __rtc_iaa                  0000000140121d18     MSVCRTD:initsect.obj
 0002:0001fe28       __rtc_izz                  0000000140121e28     MSVCRTD:initsect.obj
 0002:0001ff38       __rtc_taa                  0000000140121f38     MSVCRTD:initsect.obj
 0002:00020048       __rtc_tzz                  0000000140122048     MSVCRTD:initsect.obj
 0003:0000f37c       pjmedia_add_rtpmap_for_static_pt 000000014013937c     pjmedia-x86_64-x64-vc14-debug-dynamic:endpoint.obj
 0003:0000f39c       pjmedia_add_bandwidth_tias_in_sdp 000000014013939c     pjmedia-x86_64-x64-vc14-debug-dynamic:endpoint.obj
 0003:00036618       PJ_VERSION                 0000000140160618     pjlib-x86_64-x64-vc14-debug-dynamic:config.obj
 0003:00036f10       pj_pool_factory_default_policy 0000000140160f10     pjlib-x86_64-x64-vc14-debug-dynamic:pool_policy_malloc.obj
 0003:0003b460       gsm_A                      0000000140165460     libgsmcodec-x86_64-x64-vc14-debug-dynamic:table.obj
 0003:0003b470       gsm_B                      0000000140165470     libgsmcodec-x86_64-x64-vc14-debug-dynamic:table.obj
 0003:0003b480       gsm_MIC                    0000000140165480     libgsmcodec-x86_64-x64-vc14-debug-dynamic:table.obj
 0003:0003b490       gsm_MAC                    0000000140165490     libgsmcodec-x86_64-x64-vc14-debug-dynamic:table.obj
 0003:0003b4a0       gsm_INVA                   00000001401654a0     libgsmcodec-x86_64-x64-vc14-debug-dynamic:table.obj
 0003:0003b4b0       gsm_DLB                    00000001401654b0     libgsmcodec-x86_64-x64-vc14-debug-dynamic:table.obj
 0003:0003b4b8       gsm_QLB                    00000001401654b8     libgsmcodec-x86_64-x64-vc14-debug-dynamic:table.obj
 0003:0003b4c0       gsm_H                      00000001401654c0     libgsmcodec-x86_64-x64-vc14-debug-dynamic:table.obj
 0003:0003b4d8       gsm_NRFAC                  00000001401654d8     libgsmcodec-x86_64-x64-vc14-debug-dynamic:table.obj
 0003:0003b4e8       gsm_FAC                    00000001401654e8     libgsmcodec-x86_64-x64-vc14-debug-dynamic:table.obj
 0003:0003b520       hpi_zero_coefsTbl          0000000140165520     libilbccodec-x86_64-x64-vc14-debug-dynamic:constants.obj
 0003:0003b52c       stMemLTbl                  000000014016552c     libilbccodec-x86_64-x64-vc14-debug-dynamic:constants.obj
 0003:0003b530       hpi_pole_coefsTbl          0000000140165530     libilbccodec-x86_64-x64-vc14-debug-dynamic:constants.obj
 0003:0003b540       hpo_zero_coefsTbl          0000000140165540     libilbccodec-x86_64-x64-vc14-debug-dynamic:constants.obj
 0003:0003b550       hpo_pole_coefsTbl          0000000140165550     libilbccodec-x86_64-x64-vc14-debug-dynamic:constants.obj
 0003:0003b560       lpFilt_coefsTbl            0000000140165560     libilbccodec-x86_64-x64-vc14-debug-dynamic:constants.obj
 0003:0003b580       state_sq3Tbl               0000000140165580     libilbccodec-x86_64-x64-vc14-debug-dynamic:constants.obj
 0003:0003b5a0       state_frgqTbl              00000001401655a0     libilbccodec-x86_64-x64-vc14-debug-dynamic:constants.obj
 0003:0003b6a0       search_rangeTbl            00000001401656a0     libilbccodec-x86_64-x64-vc14-debug-dynamic:constants.obj
 0003:0003b6e0       memLfTbl                   00000001401656e0     libilbccodec-x86_64-x64-vc14-debug-dynamic:constants.obj
 0003:0003b6f0       cbfiltersTbl               00000001401656f0     libilbccodec-x86_64-x64-vc14-debug-dynamic:constants.obj
 0003:0003b710       gain_sq3Tbl                0000000140165710     libilbccodec-x86_64-x64-vc14-debug-dynamic:constants.obj
 0003:0003b730       gain_sq4Tbl                0000000140165730     libilbccodec-x86_64-x64-vc14-debug-dynamic:constants.obj
 0003:0003b770       gain_sq5Tbl                0000000140165770     libilbccodec-x86_64-x64-vc14-debug-dynamic:constants.obj
 0003:0003b7f0       polyphaserTbl              00000001401657f0     libilbccodec-x86_64-x64-vc14-debug-dynamic:constants.obj
 0003:0003b860       enh_plocsTbl               0000000140165860     libilbccodec-x86_64-x64-vc14-debug-dynamic:constants.obj
 0003:0003b880       dim_lsfCbTbl               0000000140165880     libilbccodec-x86_64-x64-vc14-debug-dynamic:constants.obj
 0003:0003b890       size_lsfCbTbl              0000000140165890     libilbccodec-x86_64-x64-vc14-debug-dynamic:constants.obj
 0003:0003b8a0       lsfmeanTbl                 00000001401658a0     libilbccodec-x86_64-x64-vc14-debug-dynamic:constants.obj
 0003:0003b8c8       lsf_weightTbl_30ms         00000001401658c8     libilbccodec-x86_64-x64-vc14-debug-dynamic:constants.obj
 0003:0003b8e0       lsf_weightTbl_20ms         00000001401658e0     libilbccodec-x86_64-x64-vc14-debug-dynamic:constants.obj
 0003:0003b8f0       lpc_winTbl                 00000001401658f0     libilbccodec-x86_64-x64-vc14-debug-dynamic:constants.obj
 0003:0003bcb0       lpc_asymwinTbl             0000000140165cb0     libilbccodec-x86_64-x64-vc14-debug-dynamic:constants.obj
 0003:0003c070       lpc_lagwinTbl              0000000140166070     libilbccodec-x86_64-x64-vc14-debug-dynamic:constants.obj
 0003:0003c0a0       lsfCbTbl                   00000001401660a0     libilbccodec-x86_64-x64-vc14-debug-dynamic:constants.obj
 0003:0003e270       mod_srtp                   0000000140168270     libsrtp-x86_64-x64-vc14-debug-dynamic:srtp.obj
 0003:0003eb50       mod_alloc                  0000000140168b50     libsrtp-x86_64-x64-vc14-debug-dynamic:alloc.obj
 0003:0003ebf0       octet_weight               0000000140168bf0     libsrtp-x86_64-x64-vc14-debug-dynamic:datatypes.obj
 0003:0003f0d0       srtp_mod_cipher            00000001401690d0     libsrtp-x86_64-x64-vc14-debug-dynamic:cipher.obj
 0003:0003f408       srtp_mod_auth              0000000140169408     libsrtp-x86_64-x64-vc14-debug-dynamic:auth.obj
 0003:0003f518       srtp_mod_crypto_kernel     0000000140169518     libsrtp-x86_64-x64-vc14-debug-dynamic:crypto_kernel.obj
 0003:0003f770       mod_stat                   0000000140169770     libsrtp-x86_64-x64-vc14-debug-dynamic:stat.obj
 0003:0003f8e8       srtp_mod_aes_icm           00000001401698e8     libsrtp-x86_64-x64-vc14-debug-dynamic:aes_icm.obj
 0003:0003fa68       srtp_mod_hmac              0000000140169a68     libsrtp-x86_64-x64-vc14-debug-dynamic:hmac.obj
 0003:0003fb68       srtp_mod_sha1              0000000140169b68     libsrtp-x86_64-x64-vc14-debug-dynamic:sha1.obj
 0003:0003fb80       SHA_K0                     0000000140169b80     libsrtp-x86_64-x64-vc14-debug-dynamic:sha1.obj
 0003:0003fb84       SHA_K1                     0000000140169b84     libsrtp-x86_64-x64-vc14-debug-dynamic:sha1.obj
 0003:0003fb88       SHA_K2                     0000000140169b88     libsrtp-x86_64-x64-vc14-debug-dynamic:sha1.obj
 0003:0003fb8c       SHA_K3                     0000000140169b8c     libsrtp-x86_64-x64-vc14-debug-dynamic:sha1.obj
 0003:0003fc70       __security_cookie_complement 0000000140169c70     MSVCRTD:gs_cookie.obj
 0003:0003fc78       __security_cookie          0000000140169c78     MSVCRTD:gs_cookie.obj
 0003:0003fc84       _fltused                   0000000140169c84     MSVCRTD:fltused.obj
 0003:0003fc88       __scrt_native_dllmain_reason 0000000140169c88     MSVCRTD:utility.obj
 0003:0003fc8c       __scrt_default_matherr     0000000140169c8c     MSVCRTD:matherr.obj
 0003:0003fc90       __isa_available            0000000140169c90     MSVCRTD:cpu_disp.obj
 0003:0003fc94       __isa_enabled              0000000140169c94     MSVCRTD:cpu_disp.obj
 0003:0003fc98       __memcpy_nt_iters          0000000140169c98     MSVCRTD:cpu_disp.obj
 0003:0003fca0       __memset_nt_iters          0000000140169ca0     MSVCRTD:cpu_disp.obj
 0003:0003fd60       __scrt_ucrt_dll_is_in_use  0000000140169d60     MSVCRTD:ucrt_stubs.obj
 0003:00041e1c       err_level                  000000014016be1c     libsrtp-x86_64-x64-vc14-debug-dynamic:srtp_err.obj
 0003:00041e20       crypto_kernel              000000014016be20     libsrtp-x86_64-x64-vc14-debug-dynamic:crypto_kernel.obj
 0003:000424f8       __scrt_current_native_startup_state 000000014016c4f8     MSVCRTD:utility.obj
 0003:00042500       __scrt_native_startup_lock 000000014016c500     MSVCRTD:utility.obj
 0003:00042550       ?__type_info_root_node@@3U__type_info_node@@A 000000014016c550     MSVCRTD:tncleanup.obj
 0003:00042568       ?_OptionsStorage@?1??__local_stdio_printf_options@@9@4_KA 000000014016c568     MSVCRTD:default_local_stdio_options.obj
 0003:00042578       ?_OptionsStorage@?1??__local_stdio_scanf_options@@9@4_KA 000000014016c578     MSVCRTD:default_local_stdio_options.obj
 0003:00042584       __scrt_debugger_hook_flag  000000014016c584     MSVCRTD:utility_desktop.obj
 0003:00042588       __castguard_check_failure_os_handled_fptr 000000014016c588     MSVCRTD:guard_support.obj
 0003:00042594       __favor                    000000014016c594     MSVCRTD:cpu_disp.obj
 0003:00042598       __isa_available_default    000000014016c598     opus:celt_encoder.obj
 0003:000425a0       ?_OptionsStorage@?1??__local_stdio_printf_options@@9@9 000000014016c5a0     <common>
 0003:000425b4       PJ_NO_MEMORY_EXCEPTION     000000014016c5b4     <common>
 0003:000425c0       bit_string                 000000014016c5c0     <common>
 0003:00042a98       ?_OptionsStorage@?1??__local_stdio_scanf_options@@9@9 000000014016ca98     <common>
 0003:00042ab0       __dyn_tls_dtor_callback    000000014016cab0     <common>
 0003:00042ac8       __dyn_tls_init_callback    000000014016cac8     <common>
 0005:00000000       __imp_GetFileTime          0000000140174000     kernel32:KERNEL32.dll
 0005:00000008       __imp_GetModuleHandleW     0000000140174008     kernel32:KERNEL32.dll
 0005:00000010       __imp_GetStartupInfoW      0000000140174010     kernel32:KERNEL32.dll
 0005:00000018       __imp_IsDebuggerPresent    0000000140174018     kernel32:KERNEL32.dll
 0005:00000020       __imp_InitializeSListHead  0000000140174020     kernel32:KERNEL32.dll
 0005:00000028       __imp_GetSystemTimeAsFileTime 0000000140174028     kernel32:KERNEL32.dll
 0005:00000030       __imp_IsProcessorFeaturePresent 0000000140174030     kernel32:KERNEL32.dll
 0005:00000038       __imp_TerminateProcess     0000000140174038     kernel32:KERNEL32.dll
 0005:00000040       __imp_GetCurrentProcess    0000000140174040     kernel32:KERNEL32.dll
 0005:00000048       __imp_SetUnhandledExceptionFilter 0000000140174048     kernel32:KERNEL32.dll
 0005:00000050       __imp_UnhandledExceptionFilter 0000000140174050     kernel32:KERNEL32.dll
 0005:00000058       __imp_RtlVirtualUnwind     0000000140174058     kernel32:KERNEL32.dll
 0005:00000060       __imp_RtlLookupFunctionEntry 0000000140174060     kernel32:KERNEL32.dll
 0005:00000068       __imp_RtlCaptureContext    0000000140174068     kernel32:KERNEL32.dll
 0005:00000070       __imp_LoadLibraryA         0000000140174070     kernel32:KERNEL32.dll
 0005:00000078       __imp_GetProcAddress       0000000140174078     kernel32:KERNEL32.dll
 0005:00000080       __imp_FreeLibrary          0000000140174080     kernel32:KERNEL32.dll
 0005:00000088       __imp_QueryPerformanceFrequency 0000000140174088     kernel32:KERNEL32.dll
 0005:00000090       __imp_QueryPerformanceCounter 0000000140174090     kernel32:KERNEL32.dll
 0005:00000098       __imp_WriteFile            0000000140174098     kernel32:KERNEL32.dll
 0005:000000a0       __imp_SetFilePointer       00000001401740a0     kernel32:KERNEL32.dll
 0005:000000a8       __imp_ReadFile             00000001401740a8     kernel32:KERNEL32.dll
 0005:000000b0       __imp_FlushFileBuffers     00000001401740b0     kernel32:KERNEL32.dll
 0005:000000b8       __imp_MoveFileExA          00000001401740b8     kernel32:KERNEL32.dll
 0005:000000c0       __imp_GetFileSize          00000001401740c0     kernel32:KERNEL32.dll
 0005:000000c8       __imp_FileTimeToLocalFileTime 00000001401740c8     kernel32:KERNEL32.dll
 0005:000000d0       __imp_DeleteFileA          00000001401740d0     kernel32:KERNEL32.dll
 0005:000000d8       __imp_CreateFileA          00000001401740d8     kernel32:KERNEL32.dll
 0005:000000e0       __imp_FormatMessageA       00000001401740e0     kernel32:KERNEL32.dll
 0005:000000e8       __imp_SetLastError         00000001401740e8     kernel32:KERNEL32.dll
 0005:000000f0       __imp_SystemTimeToFileTime 00000001401740f0     kernel32:KERNEL32.dll
 0005:000000f8       __imp_FileTimeToSystemTime 00000001401740f8     kernel32:KERNEL32.dll
 0005:00000100       __imp_GetLocalTime         0000000140174100     kernel32:KERNEL32.dll
 0005:00000108       __imp_SetConsoleTextAttribute 0000000140174108     kernel32:KERNEL32.dll
 0005:00000110       __imp_GetConsoleScreenBufferInfo 0000000140174110     kernel32:KERNEL32.dll
 0005:00000118       __imp_CreateSemaphoreA     0000000140174118     kernel32:KERNEL32.dll
 0005:00000120       __imp_PulseEvent           0000000140174120     kernel32:KERNEL32.dll
 0005:00000128       __imp_TlsFree              0000000140174128     kernel32:KERNEL32.dll
 0005:00000130       __imp_TlsSetValue          0000000140174130     kernel32:KERNEL32.dll
 0005:00000138       __imp_TlsGetValue          0000000140174138     kernel32:KERNEL32.dll
 0005:00000140       __imp_TlsAlloc             0000000140174140     kernel32:KERNEL32.dll
 0005:00000148       __imp_ResumeThread         0000000140174148     kernel32:KERNEL32.dll
 0005:00000150       __imp_GetThreadPriority    0000000140174150     kernel32:KERNEL32.dll
 0005:00000158       __imp_GetCurrentThreadId   0000000140174158     kernel32:KERNEL32.dll
 0005:00000160       __imp_CreateThread         0000000140174160     kernel32:KERNEL32.dll
 0005:00000168       __imp_GetCurrentProcessId  0000000140174168     kernel32:KERNEL32.dll
 0005:00000170       __imp_Sleep                0000000140174170     kernel32:KERNEL32.dll
 0005:00000178       __imp_WaitForSingleObject  0000000140174178     kernel32:KERNEL32.dll
 0005:00000180       __imp_ReleaseSemaphore     0000000140174180     kernel32:KERNEL32.dll
 0005:00000188       __imp_ResetEvent           0000000140174188     kernel32:KERNEL32.dll
 0005:00000190       __imp_DeleteCriticalSection 0000000140174190     kernel32:KERNEL32.dll
 0005:00000198       __imp_TryEnterCriticalSection 0000000140174198     kernel32:KERNEL32.dll
 0005:000001a0       __imp_LeaveCriticalSection 00000001401741a0     kernel32:KERNEL32.dll
 0005:000001a8       __imp_EnterCriticalSection 00000001401741a8     kernel32:KERNEL32.dll
 0005:000001b0       __imp_InitializeCriticalSection 00000001401741b0     kernel32:KERNEL32.dll
 0005:000001b8       __imp_GetLastError         00000001401741b8     kernel32:KERNEL32.dll
 0005:000001c0       __imp_GetStdHandle         00000001401741c0     kernel32:KERNEL32.dll
 0005:000001c8       __imp_SetThreadPriority    00000001401741c8     kernel32:KERNEL32.dll
 0005:000001d0       __imp_GetCurrentThread     00000001401741d0     kernel32:KERNEL32.dll
 0005:000001d8       __imp_WaitForMultipleObjects 00000001401741d8     kernel32:KERNEL32.dll
 0005:000001e0       __imp_CreateEventA         00000001401741e0     kernel32:KERNEL32.dll
 0005:000001e8       __imp_CloseHandle          00000001401741e8     kernel32:KERNEL32.dll
 0005:000001f0       __imp_SetEvent             00000001401741f0     kernel32:KERNEL32.dll
 0005:000001f8       \177KERNEL32_NULL_THUNK_DATA 00000001401741f8     kernel32:KERNEL32.dll
 0005:000002b0       __imp___current_exception_context 00000001401742b0     vcruntimed:VCRUNTIME140D.dll
 0005:000002b8       __imp_memset               00000001401742b8     vcruntimed:VCRUNTIME140D.dll
 0005:000002c0       __imp_memcpy               00000001401742c0     vcruntimed:VCRUNTIME140D.dll
 0005:000002c8       __imp_memmove              00000001401742c8     vcruntimed:VCRUNTIME140D.dll
 0005:000002d0       __imp_memchr               00000001401742d0     vcruntimed:VCRUNTIME140D.dll
 0005:000002d8       __imp_strchr               00000001401742d8     vcruntimed:VCRUNTIME140D.dll
 0005:000002e0       __imp_memcmp               00000001401742e0     vcruntimed:VCRUNTIME140D.dll
 0005:000002e8       __imp_longjmp              00000001401742e8     vcruntimed:VCRUNTIME140D.dll
 0005:000002f0       __imp___C_specific_handler 00000001401742f0     vcruntimed:VCRUNTIME140D.dll
 0005:000002f8       __imp___intrinsic_setjmp   00000001401742f8     vcruntimed:VCRUNTIME140D.dll
 0005:00000300       __imp___std_type_info_destroy_list 0000000140174300     vcruntimed:VCRUNTIME140D.dll
 0005:00000308       __imp___current_exception  0000000140174308     vcruntimed:VCRUNTIME140D.dll
 0005:00000310       \177VCRUNTIME140D_NULL_THUNK_DATA 0000000140174310     vcruntimed:VCRUNTIME140D.dll
 0005:00000378       __imp_waveOutWrite         0000000140174378     winmm:WINMM.dll
 0005:00000380       __imp_waveOutUnprepareHeader 0000000140174380     winmm:WINMM.dll
 0005:00000388       __imp_waveOutPrepareHeader 0000000140174388     winmm:WINMM.dll
 0005:00000390       __imp_waveOutClose         0000000140174390     winmm:WINMM.dll
 0005:00000398       __imp_waveOutOpen          0000000140174398     winmm:WINMM.dll
 0005:000003a0       __imp_waveOutPause         00000001401743a0     winmm:WINMM.dll
 0005:000003a8       __imp_waveOutGetVolume     00000001401743a8     winmm:WINMM.dll
 0005:000003b0       __imp_waveOutGetDevCapsA   00000001401743b0     winmm:WINMM.dll
 0005:000003b8       __imp_waveOutGetNumDevs    00000001401743b8     winmm:WINMM.dll
 0005:000003c0       __imp_waveInGetErrorTextA  00000001401743c0     winmm:WINMM.dll
 0005:000003c8       __imp_waveOutGetErrorTextA 00000001401743c8     winmm:WINMM.dll
 0005:000003d0       __imp_waveOutRestart       00000001401743d0     winmm:WINMM.dll
 0005:000003d8       __imp_waveOutReset         00000001401743d8     winmm:WINMM.dll
 0005:000003e0       __imp_waveInGetNumDevs     00000001401743e0     winmm:WINMM.dll
 0005:000003e8       __imp_waveInGetDevCapsA    00000001401743e8     winmm:WINMM.dll
 0005:000003f0       __imp_waveInOpen           00000001401743f0     winmm:WINMM.dll
 0005:000003f8       __imp_waveInClose          00000001401743f8     winmm:WINMM.dll
 0005:00000400       __imp_waveInPrepareHeader  0000000140174400     winmm:WINMM.dll
 0005:00000408       __imp_waveInUnprepareHeader 0000000140174408     winmm:WINMM.dll
 0005:00000410       __imp_waveInAddBuffer      0000000140174410     winmm:WINMM.dll
 0005:00000418       __imp_waveInStart          0000000140174418     winmm:WINMM.dll
 0005:00000420       __imp_waveInStop           0000000140174420     winmm:WINMM.dll
 0005:00000428       __imp_waveInReset          0000000140174428     winmm:WINMM.dll
 0005:00000430       __imp_waveOutSetVolume     0000000140174430     winmm:WINMM.dll
 0005:00000438       \177WINMM_NULL_THUNK_DATA  0000000140174438     winmm:WINMM.dll
 0005:000004b0       __imp_sendto               00000001401744b0     ws2_32:WS2_32.dll
 0005:000004b8       __imp_send                 00000001401744b8     ws2_32:WS2_32.dll
 0005:000004c0       __imp_recvfrom             00000001401744c0     ws2_32:WS2_32.dll
 0005:000004c8       __imp_recv                 00000001401744c8     ws2_32:WS2_32.dll
 0005:000004d0       __imp_ntohs                00000001401744d0     ws2_32:WS2_32.dll
 0005:000004d8       __imp_ntohl                00000001401744d8     ws2_32:WS2_32.dll
 0005:000004e0       __imp_listen               00000001401744e0     ws2_32:WS2_32.dll
 0005:000004e8       __imp_inet_ntoa            00000001401744e8     ws2_32:WS2_32.dll
 0005:000004f0       __imp_inet_addr            00000001401744f0     ws2_32:WS2_32.dll
 0005:000004f8       __imp_htons                00000001401744f8     ws2_32:WS2_32.dll
 0005:00000500       __imp_htonl                0000000140174500     ws2_32:WS2_32.dll
 0005:00000508       __imp_getsockopt           0000000140174508     ws2_32:WS2_32.dll
 0005:00000510       __imp_getsockname          0000000140174510     ws2_32:WS2_32.dll
 0005:00000518       __imp_getpeername          0000000140174518     ws2_32:WS2_32.dll
 0005:00000520       __imp_connect              0000000140174520     ws2_32:WS2_32.dll
 0005:00000528       __imp_closesocket          0000000140174528     ws2_32:WS2_32.dll
 0005:00000530       __imp_bind                 0000000140174530     ws2_32:WS2_32.dll
 0005:00000538       __imp_accept               0000000140174538     ws2_32:WS2_32.dll
 0005:00000540       __imp_WSAGetLastError      0000000140174540     ws2_32:WS2_32.dll
 0005:00000548       __imp_WSACleanup           0000000140174548     ws2_32:WS2_32.dll
 0005:00000550       __imp_WSAStartup           0000000140174550     ws2_32:WS2_32.dll
 0005:00000558       __imp_setsockopt           0000000140174558     ws2_32:WS2_32.dll
 0005:00000560       __imp_shutdown             0000000140174560     ws2_32:WS2_32.dll
 0005:00000568       __imp_gethostname          0000000140174568     ws2_32:WS2_32.dll
 0005:00000570       __imp_WSAIoctl             0000000140174570     ws2_32:WS2_32.dll
 0005:00000578       __imp_WSASocketA           0000000140174578     ws2_32:WS2_32.dll
 0005:00000580       __imp_WSAAddressToStringA  0000000140174580     ws2_32:WS2_32.dll
 0005:00000588       __imp_WSAStringToAddressA  0000000140174588     ws2_32:WS2_32.dll
 0005:00000590       __imp_WSASetLastError      0000000140174590     ws2_32:WS2_32.dll
 0005:00000598       __imp_ioctlsocket          0000000140174598     ws2_32:WS2_32.dll
 0005:000005a0       __imp_gethostbyname        00000001401745a0     ws2_32:WS2_32.dll
 0005:000005a8       __imp___WSAFDIsSet         00000001401745a8     ws2_32:WS2_32.dll
 0005:000005b0       __imp_select               00000001401745b0     ws2_32:WS2_32.dll
 0005:000005b8       \177WS2_32_NULL_THUNK_DATA 00000001401745b8     ws2_32:WS2_32.dll
 0005:00000640       __imp_CoCreateGuid         0000000140174640     ole32:ole32.dll
 0005:00000648       \177ole32_NULL_THUNK_DATA  0000000140174648     ole32:ole32.dll
 0005:000006a0       __imp_strlen               00000001401746a0     ucrtd:ucrtbased.dll
 0005:000006a8       __imp___acrt_iob_func      00000001401746a8     ucrtd:ucrtbased.dll
 0005:000006b0       __imp_puts                 00000001401746b0     ucrtd:ucrtbased.dll
 0005:000006b8       __imp___stdio_common_vfprintf 00000001401746b8     ucrtd:ucrtbased.dll
 0005:000006c0       __imp__wassert             00000001401746c0     ucrtd:ucrtbased.dll
 0005:000006c8       __imp___stdio_common_vsprintf 00000001401746c8     ucrtd:ucrtbased.dll
 0005:000006d0       __imp_strcpy               00000001401746d0     ucrtd:ucrtbased.dll
 0005:000006d8       __imp_strncpy              00000001401746d8     ucrtd:ucrtbased.dll
 0005:000006e0       __imp__stricmp             00000001401746e0     ucrtd:ucrtbased.dll
 0005:000006e8       __imp_isdigit              00000001401746e8     ucrtd:ucrtbased.dll
 0005:000006f0       __imp_cos                  00000001401746f0     ucrtd:ucrtbased.dll
 0005:000006f8       __imp_isxdigit             00000001401746f8     ucrtd:ucrtbased.dll
 0005:00000700       __imp_strncmp              0000000140174700     ucrtd:ucrtbased.dll
 0005:00000708       __imp__strnicmp            0000000140174708     ucrtd:ucrtbased.dll
 0005:00000710       __imp_srand                0000000140174710     ucrtd:ucrtbased.dll
 0005:00000718       __imp_rand                 0000000140174718     ucrtd:ucrtbased.dll
 0005:00000720       __imp_isspace              0000000140174720     ucrtd:ucrtbased.dll
 0005:00000728       __imp_free                 0000000140174728     ucrtd:ucrtbased.dll
 0005:00000730       __imp_malloc               0000000140174730     ucrtd:ucrtbased.dll
 0005:00000738       __imp_fmod                 0000000140174738     ucrtd:ucrtbased.dll
 0005:00000740       __imp_exit                 0000000140174740     ucrtd:ucrtbased.dll
 0005:00000748       __imp_fabs                 0000000140174748     ucrtd:ucrtbased.dll
 0005:00000750       __imp_log10                0000000140174750     ucrtd:ucrtbased.dll
 0005:00000758       __imp_pow                  0000000140174758     ucrtd:ucrtbased.dll
 0005:00000760       __imp_sqrt                 0000000140174760     ucrtd:ucrtbased.dll
 0005:00000768       __imp_calloc               0000000140174768     ucrtd:ucrtbased.dll
 0005:00000770       __imp_realloc              0000000140174770     ucrtd:ucrtbased.dll
 0005:00000778       __imp_floor                0000000140174778     ucrtd:ucrtbased.dll
 0005:00000780       __imp_exp                  0000000140174780     ucrtd:ucrtbased.dll
 0005:00000788       __imp_log                  0000000140174788     ucrtd:ucrtbased.dll
 0005:00000790       __imp_acos                 0000000140174790     ucrtd:ucrtbased.dll
 0005:00000798       __imp___stdio_common_vsscanf 0000000140174798     ucrtd:ucrtbased.dll
 0005:000007a0       __imp_clock                00000001401747a0     ucrtd:ucrtbased.dll
 0005:000007a8       __imp__seh_filter_exe      00000001401747a8     ucrtd:ucrtbased.dll
 0005:000007b0       __imp__set_app_type        00000001401747b0     ucrtd:ucrtbased.dll
 0005:000007b8       __imp___setusermatherr     00000001401747b8     ucrtd:ucrtbased.dll
 0005:000007c0       __imp__configure_narrow_argv 00000001401747c0     ucrtd:ucrtbased.dll
 0005:000007c8       __imp__initialize_narrow_environment 00000001401747c8     ucrtd:ucrtbased.dll
 0005:000007d0       __imp__get_initial_narrow_environment 00000001401747d0     ucrtd:ucrtbased.dll
 0005:000007d8       __imp__initterm            00000001401747d8     ucrtd:ucrtbased.dll
 0005:000007e0       __imp__initterm_e          00000001401747e0     ucrtd:ucrtbased.dll
 0005:000007e8       __imp__exit                00000001401747e8     ucrtd:ucrtbased.dll
 0005:000007f0       __imp__set_fmode           00000001401747f0     ucrtd:ucrtbased.dll
 0005:000007f8       __imp___p___argc           00000001401747f8     ucrtd:ucrtbased.dll
 0005:00000800       __imp___p___argv           0000000140174800     ucrtd:ucrtbased.dll
 0005:00000808       __imp__cexit               0000000140174808     ucrtd:ucrtbased.dll
 0005:00000810       __imp__c_exit              0000000140174810     ucrtd:ucrtbased.dll
 0005:00000818       __imp__register_thread_local_exe_atexit_callback 0000000140174818     ucrtd:ucrtbased.dll
 0005:00000820       __imp__configthreadlocale  0000000140174820     ucrtd:ucrtbased.dll
 0005:00000828       __imp__set_new_mode        0000000140174828     ucrtd:ucrtbased.dll
 0005:00000830       __imp___p__commode         0000000140174830     ucrtd:ucrtbased.dll
 0005:00000838       __imp__seh_filter_dll      0000000140174838     ucrtd:ucrtbased.dll
 0005:00000840       __imp__initialize_onexit_table 0000000140174840     ucrtd:ucrtbased.dll
 0005:00000848       __imp__register_onexit_function 0000000140174848     ucrtd:ucrtbased.dll
 0005:00000850       __imp__execute_onexit_table 0000000140174850     ucrtd:ucrtbased.dll
 0005:00000858       __imp__crt_atexit          0000000140174858     ucrtd:ucrtbased.dll
 0005:00000860       __imp__crt_at_quick_exit   0000000140174860     ucrtd:ucrtbased.dll
 0005:00000868       __imp_terminate            0000000140174868     ucrtd:ucrtbased.dll
 0005:00000870       __imp_log10f               0000000140174870     ucrtd:ucrtbased.dll
 0005:00000878       __imp_logf                 0000000140174878     ucrtd:ucrtbased.dll
 0005:00000880       __imp_cosf                 0000000140174880     ucrtd:ucrtbased.dll
 0005:00000888       \177ucrtbased_NULL_THUNK_DATA 0000000140174888     ucrtd:ucrtbased.dll
 0005:00000940       __IMPORT_DESCRIPTOR_ole32  0000000140174940     ole32:ole32.dll
 0005:00000954       __IMPORT_DESCRIPTOR_WS2_32 0000000140174954     ws2_32:WS2_32.dll
 0005:00000968       __IMPORT_DESCRIPTOR_WINMM  0000000140174968     winmm:WINMM.dll
 0005:0000097c       __IMPORT_DESCRIPTOR_KERNEL32 000000014017497c     kernel32:KERNEL32.dll
 0005:00000990       __IMPORT_DESCRIPTOR_VCRUNTIME140D 0000000140174990     vcruntimed:VCRUNTIME140D.dll
 0005:000009a4       __IMPORT_DESCRIPTOR_ucrtbased 00000001401749a4     ucrtd:ucrtbased.dll
 0005:000009b8       __NULL_IMPORT_DESCRIPTOR   00000001401749b8     ole32:ole32.dll
 0006:00000000       __guard_check_icall_fptr   0000000140177000     MSVCRTD:guard_support.obj
 0006:00000010       __guard_xfg_check_icall_fptr 0000000140177010     MSVCRTD:guard_support.obj
 0006:00000020       __guard_dispatch_icall_fptr 0000000140177020     MSVCRTD:guard_support.obj
 0006:00000030       __guard_xfg_dispatch_icall_fptr 0000000140177030     MSVCRTD:guard_support.obj
 0006:00000040       __guard_xfg_table_dispatch_icall_fptr 0000000140177040     MSVCRTD:guard_support.obj

 entry point at        0001:00000ea1

 Static symbols

 0000:ffe89000       _volmd                     0000000140000000     encdec.obj
 0000:ffe89000       _volmd                     0000000140000000     pjlib-util-x86_64-x64-vc14-debug-dynamic:base64.obj
 0000:ffe89000       _volmd                     0000000140000000     pjlib-x86_64-x64-vc14-debug-dynamic:addr_resolv_sock.obj
 0002:ffefe000       $unwind$_snprintf          0000000140000000     pjlib-x86_64-x64-vc14-debug-dynamic:errno.obj
 0002:ffefe000       $unwind$_vsnprintf         0000000140000000     pjlib-x86_64-x64-vc14-debug-dynamic:errno.obj
 0002:ffefe000       $unwind$_vsnprintf_l       0000000140000000     pjlib-x86_64-x64-vc14-debug-dynamic:errno.obj
 0000:ffe89000       _volmd                     0000000140000000     pjlib-x86_64-x64-vc14-debug-dynamic:errno.obj
 0002:ffefe000       $unwind$_snprintf          0000000140000000     pjlib-x86_64-x64-vc14-debug-dynamic:except.obj
 0002:ffefe000       $unwind$_vsnprintf         0000000140000000     pjlib-x86_64-x64-vc14-debug-dynamic:except.obj
 0002:ffefe000       $unwind$_vsnprintf_l       0000000140000000     pjlib-x86_64-x64-vc14-debug-dynamic:except.obj
 0000:ffe89000       _volmd                     0000000140000000     pjlib-x86_64-x64-vc14-debug-dynamic:file_access_win32.obj
 0000:ffe89000       _volmd                     0000000140000000     pjlib-x86_64-x64-vc14-debug-dynamic:guid_win32.obj
 0000:ffe89000       _volmd                     0000000140000000     pjlib-x86_64-x64-vc14-debug-dynamic:ioqueue_select.obj
 0000:ffe89000       _volmd                     0000000140000000     pjlib-x86_64-x64-vc14-debug-dynamic:ip_helper_win32.obj
 0002:ffefe000       $unwind$_snprintf          0000000140000000     pjlib-x86_64-x64-vc14-debug-dynamic:log.obj
 0002:ffefe000       $unwind$_vsnprintf         0000000140000000     pjlib-x86_64-x64-vc14-debug-dynamic:log.obj
 0002:ffefe000       $unwind$_vsnprintf_l       0000000140000000     pjlib-x86_64-x64-vc14-debug-dynamic:log.obj
 0000:ffe89000       _volmd                     0000000140000000     pjlib-x86_64-x64-vc14-debug-dynamic:log.obj
 0002:ffefe000       $unwind$_vfprintf_l        0000000140000000     pjlib-x86_64-x64-vc14-debug-dynamic:log_writer_stdout.obj
 0002:ffefe000       $unwind$printf             0000000140000000     pjlib-x86_64-x64-vc14-debug-dynamic:log_writer_stdout.obj
 0002:ffefe000       $unwind$_snprintf          0000000140000000     pjlib-x86_64-x64-vc14-debug-dynamic:os_core_win32.obj
 0002:ffefe000       $unwind$_vsnprintf         0000000140000000     pjlib-x86_64-x64-vc14-debug-dynamic:os_core_win32.obj
 0002:ffefe000       $unwind$_vsnprintf_l       0000000140000000     pjlib-x86_64-x64-vc14-debug-dynamic:os_core_win32.obj
 0000:ffe89000       _volmd                     0000000140000000     pjlib-x86_64-x64-vc14-debug-dynamic:os_core_win32.obj
 0002:ffefe000       $unwind$_snprintf          0000000140000000     pjlib-x86_64-x64-vc14-debug-dynamic:os_error_win32.obj
 0002:ffefe000       $unwind$_vsnprintf         0000000140000000     pjlib-x86_64-x64-vc14-debug-dynamic:os_error_win32.obj
 0002:ffefe000       $unwind$_vsnprintf_l       0000000140000000     pjlib-x86_64-x64-vc14-debug-dynamic:os_error_win32.obj
 0000:ffe89000       _volmd                     0000000140000000     pjlib-x86_64-x64-vc14-debug-dynamic:os_time_win32.obj
 0002:ffefe000       $unwind$_snprintf          0000000140000000     pjlib-x86_64-x64-vc14-debug-dynamic:pool.obj
 0002:ffefe000       $unwind$_vsnprintf         0000000140000000     pjlib-x86_64-x64-vc14-debug-dynamic:pool.obj
 0002:ffefe000       $unwind$_vsnprintf_l       0000000140000000     pjlib-x86_64-x64-vc14-debug-dynamic:pool.obj
 0000:ffe89000       _volmd                     0000000140000000     pjlib-x86_64-x64-vc14-debug-dynamic:pool.obj
 0000:ffe89000       _volmd                     0000000140000000     pjlib-x86_64-x64-vc14-debug-dynamic:sock_bsd.obj
 0002:ffefe000       $unwind$_snprintf          0000000140000000     pjlib-x86_64-x64-vc14-debug-dynamic:sock_common.obj
 0002:ffefe000       $unwind$_vsnprintf         0000000140000000     pjlib-x86_64-x64-vc14-debug-dynamic:sock_common.obj
 0002:ffefe000       $unwind$_vsnprintf_l       0000000140000000     pjlib-x86_64-x64-vc14-debug-dynamic:sock_common.obj
 0000:ffe89000       _volmd                     0000000140000000     pjlib-x86_64-x64-vc14-debug-dynamic:sock_common.obj
 0002:ffefe000       $unwind$_snprintf          0000000140000000     pjmedia-audiodev-x86_64-x64-vc14-debug-dynamic:errno.obj
 0002:ffefe000       $unwind$_vsnprintf         0000000140000000     pjmedia-audiodev-x86_64-x64-vc14-debug-dynamic:errno.obj
 0002:ffefe000       $unwind$_vsnprintf_l       0000000140000000     pjmedia-audiodev-x86_64-x64-vc14-debug-dynamic:errno.obj
 0000:ffe89000       _volmd                     0000000140000000     pjmedia-audiodev-x86_64-x64-vc14-debug-dynamic:wmme_dev.obj
 0000:ffe89000       _volmd                     0000000140000000     pjmedia-codec-x86_64-x64-vc14-debug-dynamic:audio_codecs.obj
 0000:ffe89000       _volmd                     0000000140000000     pjmedia-codec-x86_64-x64-vc14-debug-dynamic:g722.obj
 0000:ffe89000       _volmd                     0000000140000000     pjmedia-codec-x86_64-x64-vc14-debug-dynamic:gsm.obj
 0002:ffefe000       $unwind$_snprintf          0000000140000000     pjmedia-codec-x86_64-x64-vc14-debug-dynamic:opus.obj
 0002:ffefe000       $unwind$_vsnprintf         0000000140000000     pjmedia-codec-x86_64-x64-vc14-debug-dynamic:opus.obj
 0002:ffefe000       $unwind$_vsnprintf_l       0000000140000000     pjmedia-codec-x86_64-x64-vc14-debug-dynamic:opus.obj
 0000:ffe89000       _volmd                     0000000140000000     pjmedia-codec-x86_64-x64-vc14-debug-dynamic:opus.obj
 0000:ffe89000       _volmd                     0000000140000000     pjmedia-x86_64-x64-vc14-debug-dynamic:audiodev.obj
 0002:ffefe000       $unwind$_snprintf          0000000140000000     pjmedia-x86_64-x64-vc14-debug-dynamic:codec.obj
 0002:ffefe000       $unwind$_vsnprintf         0000000140000000     pjmedia-x86_64-x64-vc14-debug-dynamic:codec.obj
 0002:ffefe000       $unwind$_vsnprintf_l       0000000140000000     pjmedia-x86_64-x64-vc14-debug-dynamic:codec.obj
 0000:ffe89000       _volmd                     0000000140000000     pjmedia-x86_64-x64-vc14-debug-dynamic:codec.obj
 0002:ffefe000       $unwind$_snprintf          0000000140000000     pjmedia-x86_64-x64-vc14-debug-dynamic:endpoint.obj
 0002:ffefe000       $unwind$_vsnprintf         0000000140000000     pjmedia-x86_64-x64-vc14-debug-dynamic:endpoint.obj
 0002:ffefe000       $unwind$_vsnprintf_l       0000000140000000     pjmedia-x86_64-x64-vc14-debug-dynamic:endpoint.obj
 0000:ffe89000       _volmd                     0000000140000000     pjmedia-x86_64-x64-vc14-debug-dynamic:endpoint.obj
 0002:ffefe000       $unwind$_snprintf          0000000140000000     pjmedia-x86_64-x64-vc14-debug-dynamic:errno.obj
 0002:ffefe000       $unwind$_vsnprintf         0000000140000000     pjmedia-x86_64-x64-vc14-debug-dynamic:errno.obj
 0002:ffefe000       $unwind$_vsnprintf_l       0000000140000000     pjmedia-x86_64-x64-vc14-debug-dynamic:errno.obj
 0000:ffe89000       _volmd                     0000000140000000     pjmedia-x86_64-x64-vc14-debug-dynamic:event.obj
 0000:ffe89000       _volmd                     0000000140000000     pjmedia-x86_64-x64-vc14-debug-dynamic:g711.obj
 0002:ffefe000       $unwind$_snprintf          0000000140000000     pjmedia-x86_64-x64-vc14-debug-dynamic:sdp.obj
 0002:ffefe000       $unwind$_vsnprintf         0000000140000000     pjmedia-x86_64-x64-vc14-debug-dynamic:sdp.obj
 0002:ffefe000       $unwind$_vsnprintf_l       0000000140000000     pjmedia-x86_64-x64-vc14-debug-dynamic:sdp.obj
 0000:ffe89000       _volmd                     0000000140000000     pjmedia-x86_64-x64-vc14-debug-dynamic:sdp.obj
 0002:ffefe000       $unwind$_snprintf          0000000140000000     pjmedia-x86_64-x64-vc14-debug-dynamic:silencedet.obj
 0002:ffefe000       $unwind$_vsnprintf         0000000140000000     pjmedia-x86_64-x64-vc14-debug-dynamic:silencedet.obj
 0002:ffefe000       $unwind$_vsnprintf_l       0000000140000000     pjmedia-x86_64-x64-vc14-debug-dynamic:silencedet.obj
 0002:ffefe000       $unwind$_snprintf          0000000140000000     pjmedia-x86_64-x64-vc14-debug-dynamic:transport_srtp.obj
 0002:ffefe000       $unwind$_vsnprintf         0000000140000000     pjmedia-x86_64-x64-vc14-debug-dynamic:transport_srtp.obj
 0002:ffefe000       $unwind$_vsnprintf_l       0000000140000000     pjmedia-x86_64-x64-vc14-debug-dynamic:transport_srtp.obj
 0002:ffefe000       $unwind$_vsprintf_l        0000000140000000     pjmedia-x86_64-x64-vc14-debug-dynamic:transport_srtp.obj
 0002:ffefe000       $unwind$sprintf            0000000140000000     pjmedia-x86_64-x64-vc14-debug-dynamic:transport_srtp.obj
 0000:ffe89000       _volmd                     0000000140000000     pjmedia-x86_64-x64-vc14-debug-dynamic:transport_srtp.obj
 0000:ffe89000       _volmd                     0000000140000000     pjmedia-x86_64-x64-vc14-debug-dynamic:wav_player.obj
 0000:ffe89000       _volmd                     0000000140000000     pjmedia-x86_64-x64-vc14-debug-dynamic:wav_writer.obj
 0000:ffe89000       _volmd                     0000000140000000     libgsmcodec-x86_64-x64-vc14-debug-dynamic:code.obj
 0000:ffe89000       _volmd                     0000000140000000     libgsmcodec-x86_64-x64-vc14-debug-dynamic:decode.obj
 0000:ffe89000       _volmd                     0000000140000000     libgsmcodec-x86_64-x64-vc14-debug-dynamic:gsm_decode.obj
 0000:ffe89000       _volmd                     0000000140000000     libgsmcodec-x86_64-x64-vc14-debug-dynamic:gsm_encode.obj
 0000:ffe89000       _volmd                     0000000140000000     libgsmcodec-x86_64-x64-vc14-debug-dynamic:long_term.obj
 0000:ffe89000       _volmd                     0000000140000000     libgsmcodec-x86_64-x64-vc14-debug-dynamic:lpc.obj
 0000:ffe89000       _volmd                     0000000140000000     libgsmcodec-x86_64-x64-vc14-debug-dynamic:rpe.obj
 0000:ffe89000       _volmd                     0000000140000000     libgsmcodec-x86_64-x64-vc14-debug-dynamic:short_term.obj
 0000:ffe89000       _volmd                     0000000140000000     libilbccodec-x86_64-x64-vc14-debug-dynamic:FrameClassify.obj
 0000:ffe89000       _volmd                     0000000140000000     libilbccodec-x86_64-x64-vc14-debug-dynamic:LPCdecode.obj
 0000:ffe89000       _volmd                     0000000140000000     libilbccodec-x86_64-x64-vc14-debug-dynamic:LPCencode.obj
 0000:ffe89000       _volmd                     0000000140000000     libilbccodec-x86_64-x64-vc14-debug-dynamic:StateConstructW.obj
 0000:ffe89000       _volmd                     0000000140000000     libilbccodec-x86_64-x64-vc14-debug-dynamic:StateSearchW.obj
 0000:ffe89000       _volmd                     0000000140000000     libilbccodec-x86_64-x64-vc14-debug-dynamic:createCB.obj
 0000:ffe89000       _volmd                     0000000140000000     libilbccodec-x86_64-x64-vc14-debug-dynamic:doCPLC.obj
 0000:ffe89000       _volmd                     0000000140000000     libilbccodec-x86_64-x64-vc14-debug-dynamic:enhancer.obj
 0000:ffe89000       _volmd                     0000000140000000     libilbccodec-x86_64-x64-vc14-debug-dynamic:getCBvec.obj
 0000:ffe89000       _volmd                     0000000140000000     libilbccodec-x86_64-x64-vc14-debug-dynamic:iCBConstruct.obj
 0000:ffe89000       _volmd                     0000000140000000     libilbccodec-x86_64-x64-vc14-debug-dynamic:iCBSearch.obj
 0000:ffe89000       _volmd                     0000000140000000     libilbccodec-x86_64-x64-vc14-debug-dynamic:iLBC_decode.obj
 0000:ffe89000       _volmd                     0000000140000000     libilbccodec-x86_64-x64-vc14-debug-dynamic:iLBC_encode.obj
 0000:ffe89000       _volmd                     0000000140000000     libilbccodec-x86_64-x64-vc14-debug-dynamic:lsf.obj
 0002:ffefe000       $unwind$_vfprintf_l        0000000140000000     libspeex-x86_64-x64-vc14-debug-dynamic:bits.obj
 0000:ffe89000       _volmd                     0000000140000000     libspeex-x86_64-x64-vc14-debug-dynamic:cb_search.obj
 0000:ffe89000       _volmd                     0000000140000000     libspeex-x86_64-x64-vc14-debug-dynamic:filters.obj
 0000:ffe89000       _volmd                     0000000140000000     libspeex-x86_64-x64-vc14-debug-dynamic:lsp.obj
 0000:ffe89000       _volmd                     0000000140000000     libspeex-x86_64-x64-vc14-debug-dynamic:ltp.obj
 0002:ffefe000       $unwind$_vfprintf_l        0000000140000000     libspeex-x86_64-x64-vc14-debug-dynamic:nb_celp.obj
 0002:ffefe000       $unwind$fprintf            0000000140000000     libspeex-x86_64-x64-vc14-debug-dynamic:nb_celp.obj
 0000:ffe89000       _volmd                     0000000140000000     libspeex-x86_64-x64-vc14-debug-dynamic:nb_celp.obj
 0000:ffe89000       _volmd                     0000000140000000     libspeex-x86_64-x64-vc14-debug-dynamic:quant_lsp.obj
 0002:ffefe000       $unwind$_vfprintf_l        0000000140000000     libspeex-x86_64-x64-vc14-debug-dynamic:sb_celp.obj
 0002:ffefe000       $unwind$fprintf            0000000140000000     libspeex-x86_64-x64-vc14-debug-dynamic:sb_celp.obj
 0000:ffe89000       _volmd                     0000000140000000     libspeex-x86_64-x64-vc14-debug-dynamic:sb_celp.obj
 0000:ffe89000       _volmd                     0000000140000000     libspeex-x86_64-x64-vc14-debug-dynamic:speex.obj
 0002:ffefe000       $unwind$_vfprintf_l        0000000140000000     libspeex-x86_64-x64-vc14-debug-dynamic:speex_callbacks.obj
 0002:ffefe000       $unwind$fprintf            0000000140000000     libspeex-x86_64-x64-vc14-debug-dynamic:speex_callbacks.obj
 0000:ffe89000       _volmd                     0000000140000000     libsrtp-x86_64-x64-vc14-debug-dynamic:aes.obj
 0000:ffe89000       _volmd                     0000000140000000     libsrtp-x86_64-x64-vc14-debug-dynamic:aes_icm.obj
 0000:ffe89000       _volmd                     0000000140000000     libsrtp-x86_64-x64-vc14-debug-dynamic:auth.obj
 0000:ffe89000       _volmd                     0000000140000000     libsrtp-x86_64-x64-vc14-debug-dynamic:cipher.obj
 0000:ffe89000       _volmd                     0000000140000000     libsrtp-x86_64-x64-vc14-debug-dynamic:datatypes.obj
 0000:ffe89000       _volmd                     0000000140000000     libsrtp-x86_64-x64-vc14-debug-dynamic:ekt.obj
 0000:ffe89000       _volmd                     0000000140000000     libsrtp-x86_64-x64-vc14-debug-dynamic:hmac.obj
 0000:ffe89000       _volmd                     0000000140000000     libsrtp-x86_64-x64-vc14-debug-dynamic:sha1.obj
 0000:ffe89000       _volmd                     0000000140000000     libsrtp-x86_64-x64-vc14-debug-dynamic:srtp.obj
 0000:ffe89000       _volmd                     0000000140000000     libsrtp-x86_64-x64-vc14-debug-dynamic:stat.obj
 0000:ffe89000       _volmd                     0000000140000000     MSVCRTD:cpu_disp.obj
 0000:ffe89000       __guard_ehcont_?__scrt_common_main_seh@@YAHXZ 0000000140000000     MSVCRTD:exe_main.obj
 0000:ffe89000       __guard_fids_?pre_c_initialization@@YAHXZ 0000000140000000     MSVCRTD:exe_main.obj
 0000:ffe89000       __guard_fids__             0000000140000000     MSVCRTD:exe_main.obj
 0000:ffe89000       _volmd                     0000000140000000     MSVCRTD:gs_report.obj
 0000:ffe89000       _volmd                     0000000140000000     MSVCRTD:gs_report.obj
 0000:ffe89000       _volmd                     0000000140000000     MSVCRTD:gs_report.obj
 0000:ffe89000       __guard_fids__             0000000140000000     MSVCRTD:guard_support.obj
 0000:ffe89000       __guard_fids__             0000000140000000     MSVCRTD:guard_support.obj
 0000:ffe89000       __guard_fids__guard_icall_checks_enforced 0000000140000000     MSVCRTD:guard_support.obj
 0000:ffe89000       _volmd                     0000000140000000     MSVCRTD:guard_support.obj
 0000:ffe89000       _volmd                     0000000140000000     MSVCRTD:guard_support.obj
 0000:ffe89000       _volmd                     0000000140000000     MSVCRTD:guard_support.obj
 0002:ffefe000       $unwind$?configure_argv@__scrt_narrow_argv_policy@@SAHXZ 0000000140000000     MSVCRTD:utility.obj
 0002:ffefe000       $unwind$?initialize_environment@__scrt_narrow_environment_policy@@SAHXZ 0000000140000000     MSVCRTD:utility.obj
 0000:ffe89000       __guard_ehcont___scrt_is_nonwritable_in_current_image 0000000140000000     MSVCRTD:utility.obj
 0000:ffe89000       _volmd                     0000000140000000     MSVCRTD:utility.obj
 0000:ffe89000       _volmd                     0000000140000000     MSVCRTD:utility.obj
 0000:ffe89000       _volmd                     0000000140000000     MSVCRTD:utility.obj
 0000:ffe89000       __guard_fids___scrt_set_unhandled_exception_filter 0000000140000000     MSVCRTD:utility_desktop.obj
 0000:ffe89000       _volmd                     0000000140000000     MSVCRTD:utility_desktop.obj
 0000:ffe85000       .debug$S                   0000000140000000     vcruntimed:VCRUNTIME140D.dll
 0000:ffe85000       .debug$S                   0000000140000000     vcruntimed:VCRUNTIME140D.dll
 0000:ffe85000       .debug$S                   0000000140000000     vcruntimed:VCRUNTIME140D.dll
 0000:ffe85000       .debug$S                   0000000140000000     vcruntimed:VCRUNTIME140D.dll
 0000:ffe85000       .debug$S                   0000000140000000     vcruntimed:VCRUNTIME140D.dll
 0000:ffe85000       .debug$S                   0000000140000000     vcruntimed:VCRUNTIME140D.dll
 0000:ffe85000       .debug$S                   0000000140000000     vcruntimed:VCRUNTIME140D.dll
 0000:ffe85000       .debug$S                   0000000140000000     vcruntimed:VCRUNTIME140D.dll
 0000:ffe85000       .debug$S                   0000000140000000     vcruntimed:VCRUNTIME140D.dll
 0000:ffe85000       .debug$S                   0000000140000000     vcruntimed:VCRUNTIME140D.dll
 0000:ffe85000       .debug$S                   0000000140000000     vcruntimed:VCRUNTIME140D.dll
 0000:ffe85000       .debug$S                   0000000140000000     vcruntimed:VCRUNTIME140D.dll
 0000:ffe85000       .debug$S                   0000000140000000     ucrtd:ucrtbased.dll
 0000:ffe85000       .debug$S                   0000000140000000     ucrtd:ucrtbased.dll
 0000:ffe85000       .debug$S                   0000000140000000     ucrtd:ucrtbased.dll
 0000:ffe85000       .debug$S                   0000000140000000     ucrtd:ucrtbased.dll
 0000:ffe85000       .debug$S                   0000000140000000     ucrtd:ucrtbased.dll
 0000:ffe85000       .debug$S                   0000000140000000     ucrtd:ucrtbased.dll
 0000:ffe85000       .debug$S                   0000000140000000     ucrtd:ucrtbased.dll
 0000:ffe85000       .debug$S                   0000000140000000     ucrtd:ucrtbased.dll
 0000:ffe85000       .debug$S                   0000000140000000     ucrtd:ucrtbased.dll
 0000:ffe85000       .debug$S                   0000000140000000     ucrtd:ucrtbased.dll
 0000:ffe85000       .debug$S                   0000000140000000     ucrtd:ucrtbased.dll
 0000:ffe85000       .debug$S                   0000000140000000     ucrtd:ucrtbased.dll
 0000:ffe85000       .debug$S                   0000000140000000     ucrtd:ucrtbased.dll
 0000:ffe85000       .debug$S                   0000000140000000     ucrtd:ucrtbased.dll
 0000:ffe85000       .debug$S                   0000000140000000     ucrtd:ucrtbased.dll
 0000:ffe85000       .debug$S                   0000000140000000     ucrtd:ucrtbased.dll
 0000:ffe85000       .debug$S                   0000000140000000     ucrtd:ucrtbased.dll
 0000:ffe85000       .debug$S                   0000000140000000     ucrtd:ucrtbased.dll
 0000:ffe85000       .debug$S                   0000000140000000     ucrtd:ucrtbased.dll
 0000:ffe85000       .debug$S                   0000000140000000     ucrtd:ucrtbased.dll
 0000:ffe85000       .debug$S                   0000000140000000     ucrtd:ucrtbased.dll
 0000:ffe85000       .debug$S                   0000000140000000     ucrtd:ucrtbased.dll
 0000:ffe85000       .debug$S                   0000000140000000     ucrtd:ucrtbased.dll
 0000:ffe85000       .debug$S                   0000000140000000     ucrtd:ucrtbased.dll
 0000:ffe85000       .debug$S                   0000000140000000     ucrtd:ucrtbased.dll
 0000:ffe85000       .debug$S                   0000000140000000     ucrtd:ucrtbased.dll
 0000:ffe85000       .debug$S                   0000000140000000     ucrtd:ucrtbased.dll
 0000:ffe85000       .debug$S                   0000000140000000     ucrtd:ucrtbased.dll
 0000:ffe85000       .debug$S                   0000000140000000     ucrtd:ucrtbased.dll
 0000:ffe85000       .debug$S                   0000000140000000     ucrtd:ucrtbased.dll
 0000:ffe85000       .debug$S                   0000000140000000     ucrtd:ucrtbased.dll
 0000:ffe85000       .debug$S                   0000000140000000     ucrtd:ucrtbased.dll
 0000:ffe85000       .debug$S                   0000000140000000     ucrtd:ucrtbased.dll
 0000:ffe85000       .debug$S                   0000000140000000     ucrtd:ucrtbased.dll
 0000:ffe85000       .debug$S                   0000000140000000     ucrtd:ucrtbased.dll
 0000:ffe85000       .debug$S                   0000000140000000     ucrtd:ucrtbased.dll
 0000:ffe85000       .debug$S                   0000000140000000     ucrtd:ucrtbased.dll
 0000:ffe85000       .debug$S                   0000000140000000     ucrtd:ucrtbased.dll
 0000:ffe85000       .debug$S                   0000000140000000     ucrtd:ucrtbased.dll
 0000:ffe85000       .debug$S                   0000000140000000     ucrtd:ucrtbased.dll
 0000:ffe85000       .debug$S                   0000000140000000     ucrtd:ucrtbased.dll
 0000:ffe85000       .debug$S                   0000000140000000     ucrtd:ucrtbased.dll
 0000:ffe85000       .debug$S                   0000000140000000     ucrtd:ucrtbased.dll
 0000:ffe85000       .debug$S                   0000000140000000     ucrtd:ucrtbased.dll
 0000:ffe85000       .debug$S                   0000000140000000     ucrtd:ucrtbased.dll
 0000:ffe85000       .debug$S                   0000000140000000     ucrtd:ucrtbased.dll
 0000:ffe85000       .debug$S                   0000000140000000     ucrtd:ucrtbased.dll
 0000:ffe85000       .debug$S                   0000000140000000     ucrtd:ucrtbased.dll
 0000:ffe85000       .debug$S                   0000000140000000     ucrtd:ucrtbased.dll
 0000:ffe85000       .debug$S                   0000000140000000     ucrtd:ucrtbased.dll
 0000:ffe85000       .debug$S                   0000000140000000     ucrtd:ucrtbased.dll
 0000:ffe85000       .debug$S                   0000000140000000     ucrtd:ucrtbased.dll
 0000:ffe85000       .debug$S                   0000000140000000     ucrtd:ucrtbased.dll
 0000:ffe85000       .debug$S                   0000000140000000     ucrtd:ucrtbased.dll
 0000:ffe85000       .debug$S                   0000000140000000     ucrtd:ucrtbased.dll
 0000:ffe85000       .debug$S                   0000000140000000     ucrtd:ucrtbased.dll
 0000:ffe85000       .debug$S                   0000000140000000     ucrtd:ucrtbased.dll
 0000:ffe85000       .debug$S                   0000000140000000     ucrtd:ucrtbased.dll
 0000:ffe85000       .debug$S                   0000000140000000     ucrtd:ucrtbased.dll
 0000:ffe85000       .debug$S                   0000000140000000     ucrtd:ucrtbased.dll
 0000:ffe85000       .debug$S                   0000000140000000     ucrtd:ucrtbased.dll
 0000:ffe85000       .debug$S                   0000000140000000     kernel32:KERNEL32.dll
 0000:ffe85000       .debug$S                   0000000140000000     kernel32:KERNEL32.dll
 0000:ffe85000       .debug$S                   0000000140000000     kernel32:KERNEL32.dll
 0000:ffe85000       .debug$S                   0000000140000000     kernel32:KERNEL32.dll
 0000:ffe85000       .debug$S                   0000000140000000     kernel32:KERNEL32.dll
 0000:ffe85000       .debug$S                   0000000140000000     kernel32:KERNEL32.dll
 0000:ffe85000       .debug$S                   0000000140000000     kernel32:KERNEL32.dll
 0000:ffe85000       .debug$S                   0000000140000000     kernel32:KERNEL32.dll
 0000:ffe85000       .debug$S                   0000000140000000     kernel32:KERNEL32.dll
 0000:ffe85000       .debug$S                   0000000140000000     kernel32:KERNEL32.dll
 0000:ffe85000       .debug$S                   0000000140000000     kernel32:KERNEL32.dll
 0000:ffe85000       .debug$S                   0000000140000000     kernel32:KERNEL32.dll
 0000:ffe85000       .debug$S                   0000000140000000     kernel32:KERNEL32.dll
 0000:ffe85000       .debug$S                   0000000140000000     kernel32:KERNEL32.dll
 0000:ffe85000       .debug$S                   0000000140000000     kernel32:KERNEL32.dll
 0000:ffe85000       .debug$S                   0000000140000000     kernel32:KERNEL32.dll
 0000:ffe85000       .debug$S                   0000000140000000     kernel32:KERNEL32.dll
 0000:ffe85000       .debug$S                   0000000140000000     kernel32:KERNEL32.dll
 0000:ffe85000       .debug$S                   0000000140000000     kernel32:KERNEL32.dll
 0000:ffe85000       .debug$S                   0000000140000000     kernel32:KERNEL32.dll
 0000:ffe85000       .debug$S                   0000000140000000     kernel32:KERNEL32.dll
 0000:ffe85000       .debug$S                   0000000140000000     kernel32:KERNEL32.dll
 0000:ffe85000       .debug$S                   0000000140000000     kernel32:KERNEL32.dll
 0000:ffe85000       .debug$S                   0000000140000000     kernel32:KERNEL32.dll
 0000:ffe85000       .debug$S                   0000000140000000     kernel32:KERNEL32.dll
 0000:ffe85000       .debug$S                   0000000140000000     kernel32:KERNEL32.dll
 0000:ffe85000       .debug$S                   0000000140000000     kernel32:KERNEL32.dll
 0000:ffe85000       .debug$S                   0000000140000000     kernel32:KERNEL32.dll
 0000:ffe85000       .debug$S                   0000000140000000     kernel32:KERNEL32.dll
 0000:ffe85000       .debug$S                   0000000140000000     kernel32:KERNEL32.dll
 0000:ffe85000       .debug$S                   0000000140000000     kernel32:KERNEL32.dll
 0000:ffe85000       .debug$S                   0000000140000000     kernel32:KERNEL32.dll
 0000:ffe85000       .debug$S                   0000000140000000     kernel32:KERNEL32.dll
 0000:ffe85000       .debug$S                   0000000140000000     kernel32:KERNEL32.dll
 0000:ffe85000       .debug$S                   0000000140000000     kernel32:KERNEL32.dll
 0000:ffe85000       .debug$S                   0000000140000000     kernel32:KERNEL32.dll
 0000:ffe85000       .debug$S                   0000000140000000     kernel32:KERNEL32.dll
 0000:ffe85000       .debug$S                   0000000140000000     kernel32:KERNEL32.dll
 0000:ffe85000       .debug$S                   0000000140000000     kernel32:KERNEL32.dll
 0000:ffe85000       .debug$S                   0000000140000000     kernel32:KERNEL32.dll
 0000:ffe85000       .debug$S                   0000000140000000     kernel32:KERNEL32.dll
 0000:ffe85000       .debug$S                   0000000140000000     kernel32:KERNEL32.dll
 0000:ffe85000       .debug$S                   0000000140000000     kernel32:KERNEL32.dll
 0000:ffe85000       .debug$S                   0000000140000000     kernel32:KERNEL32.dll
 0000:ffe85000       .debug$S                   0000000140000000     kernel32:KERNEL32.dll
 0000:ffe85000       .debug$S                   0000000140000000     kernel32:KERNEL32.dll
 0000:ffe85000       .debug$S                   0000000140000000     kernel32:KERNEL32.dll
 0000:ffe85000       .debug$S                   0000000140000000     kernel32:KERNEL32.dll
 0000:ffe85000       .debug$S                   0000000140000000     kernel32:KERNEL32.dll
 0000:ffe85000       .debug$S                   0000000140000000     kernel32:KERNEL32.dll
 0000:ffe85000       .debug$S                   0000000140000000     kernel32:KERNEL32.dll
 0000:ffe85000       .debug$S                   0000000140000000     kernel32:KERNEL32.dll
 0000:ffe85000       .debug$S                   0000000140000000     kernel32:KERNEL32.dll
 0000:ffe85000       .debug$S                   0000000140000000     kernel32:KERNEL32.dll
 0000:ffe85000       .debug$S                   0000000140000000     kernel32:KERNEL32.dll
 0000:ffe85000       .debug$S                   0000000140000000     kernel32:KERNEL32.dll
 0000:ffe85000       .debug$S                   0000000140000000     kernel32:KERNEL32.dll
 0000:ffe85000       .debug$S                   0000000140000000     kernel32:KERNEL32.dll
 0000:ffe85000       .debug$S                   0000000140000000     kernel32:KERNEL32.dll
 0000:ffe85000       .debug$S                   0000000140000000     kernel32:KERNEL32.dll
 0000:ffe85000       .debug$S                   0000000140000000     kernel32:KERNEL32.dll
 0000:ffe85000       .debug$S                   0000000140000000     kernel32:KERNEL32.dll
 0000:ffe85000       .debug$S                   0000000140000000     kernel32:KERNEL32.dll
 0000:ffe85000       .debug$S                   0000000140000000     ole32:ole32.dll
 0000:ffe85000       .debug$S                   0000000140000000     winmm:WINMM.dll
 0000:ffe85000       .debug$S                   0000000140000000     winmm:WINMM.dll
 0000:ffe85000       .debug$S                   0000000140000000     winmm:WINMM.dll
 0000:ffe85000       .debug$S                   0000000140000000     winmm:WINMM.dll
 0000:ffe85000       .debug$S                   0000000140000000     winmm:WINMM.dll
 0000:ffe85000       .debug$S                   0000000140000000     winmm:WINMM.dll
 0000:ffe85000       .debug$S                   0000000140000000     winmm:WINMM.dll
 0000:ffe85000       .debug$S                   0000000140000000     winmm:WINMM.dll
 0000:ffe85000       .debug$S                   0000000140000000     winmm:WINMM.dll
 0000:ffe85000       .debug$S                   0000000140000000     winmm:WINMM.dll
 0000:ffe85000       .debug$S                   0000000140000000     winmm:WINMM.dll
 0000:ffe85000       .debug$S                   0000000140000000     winmm:WINMM.dll
 0000:ffe85000       .debug$S                   0000000140000000     winmm:WINMM.dll
 0000:ffe85000       .debug$S                   0000000140000000     winmm:WINMM.dll
 0000:ffe85000       .debug$S                   0000000140000000     winmm:WINMM.dll
 0000:ffe85000       .debug$S                   0000000140000000     winmm:WINMM.dll
 0000:ffe85000       .debug$S                   0000000140000000     winmm:WINMM.dll
 0000:ffe85000       .debug$S                   0000000140000000     winmm:WINMM.dll
 0000:ffe85000       .debug$S                   0000000140000000     winmm:WINMM.dll
 0000:ffe85000       .debug$S                   0000000140000000     winmm:WINMM.dll
 0000:ffe85000       .debug$S                   0000000140000000     winmm:WINMM.dll
 0000:ffe85000       .debug$S                   0000000140000000     winmm:WINMM.dll
 0000:ffe85000       .debug$S                   0000000140000000     winmm:WINMM.dll
 0000:ffe85000       .debug$S                   0000000140000000     winmm:WINMM.dll
 0000:ffe85000       .debug$S                   0000000140000000     ws2_32:WS2_32.dll
 0000:ffe85000       .debug$S                   0000000140000000     ws2_32:WS2_32.dll
 0000:ffe85000       .debug$S                   0000000140000000     ws2_32:WS2_32.dll
 0000:ffe85000       .debug$S                   0000000140000000     ws2_32:WS2_32.dll
 0000:ffe85000       .debug$S                   0000000140000000     ws2_32:WS2_32.dll
 0000:ffe85000       .debug$S                   0000000140000000     ws2_32:WS2_32.dll
 0000:ffe85000       .debug$S                   0000000140000000     ws2_32:WS2_32.dll
 0000:ffe85000       .debug$S                   0000000140000000     ws2_32:WS2_32.dll
 0000:ffe85000       .debug$S                   0000000140000000     ws2_32:WS2_32.dll
 0000:ffe85000       .debug$S                   0000000140000000     ws2_32:WS2_32.dll
 0000:ffe85000       .debug$S                   0000000140000000     ws2_32:WS2_32.dll
 0000:ffe85000       .debug$S                   0000000140000000     ws2_32:WS2_32.dll
 0000:ffe85000       .debug$S                   0000000140000000     ws2_32:WS2_32.dll
 0000:ffe85000       .debug$S                   0000000140000000     ws2_32:WS2_32.dll
 0000:ffe85000       .debug$S                   0000000140000000     ws2_32:WS2_32.dll
 0000:ffe85000       .debug$S                   0000000140000000     ws2_32:WS2_32.dll
 0000:ffe85000       .debug$S                   0000000140000000     ws2_32:WS2_32.dll
 0000:ffe85000       .debug$S                   0000000140000000     ws2_32:WS2_32.dll
 0000:ffe85000       .debug$S                   0000000140000000     ws2_32:WS2_32.dll
 0000:ffe85000       .debug$S                   0000000140000000     ws2_32:WS2_32.dll
 0000:ffe85000       .debug$S                   0000000140000000     ws2_32:WS2_32.dll
 0000:ffe85000       .debug$S                   0000000140000000     ws2_32:WS2_32.dll
 0000:ffe85000       .debug$S                   0000000140000000     ws2_32:WS2_32.dll
 0000:ffe85000       .debug$S                   0000000140000000     ws2_32:WS2_32.dll
 0000:ffe85000       .debug$S                   0000000140000000     ws2_32:WS2_32.dll
 0000:ffe85000       .debug$S                   0000000140000000     ws2_32:WS2_32.dll
 0000:ffe85000       .debug$S                   0000000140000000     ws2_32:WS2_32.dll
 0000:ffe85000       .debug$S                   0000000140000000     ws2_32:WS2_32.dll
 0000:ffe85000       .debug$S                   0000000140000000     ws2_32:WS2_32.dll
 0000:ffe85000       .debug$S                   0000000140000000     ws2_32:WS2_32.dll
 0000:ffe85000       .debug$S                   0000000140000000     ws2_32:WS2_32.dll
 0000:ffe85000       .debug$S                   0000000140000000     ws2_32:WS2_32.dll
 0000:ffe85000       .debug$S                   0000000140000000     ws2_32:WS2_32.dll
 0000:ffe89004       __guard_fids__             0000000140000004     MSVCRTD:exe_main.obj
 0000:ffe89008       _volmd                     0000000140000008     pjlib-x86_64-x64-vc14-debug-dynamic:os_core_win32.obj
 0000:ffe89008       _volmd                     0000000140000008     libsrtp-x86_64-x64-vc14-debug-dynamic:datatypes.obj
 0000:ffe89008       __guard_fids__             0000000140000008     MSVCRTD:exe_main.obj
 0000:ffe8900c       _volmd                     000000014000000c     encdec.obj
 0000:ffe8900c       _volmd                     000000014000000c     pjlib-x86_64-x64-vc14-debug-dynamic:ip_helper_win32.obj
 0000:ffe8900c       _volmd                     000000014000000c     pjlib-x86_64-x64-vc14-debug-dynamic:os_time_win32.obj
 0000:ffe8900c       _volmd                     000000014000000c     pjlib-x86_64-x64-vc14-debug-dynamic:sock_bsd.obj
 0000:ffe8900c       _volmd                     000000014000000c     pjlib-x86_64-x64-vc14-debug-dynamic:sock_common.obj
 0000:ffe8900c       _volmd                     000000014000000c     pjmedia-audiodev-x86_64-x64-vc14-debug-dynamic:wmme_dev.obj
 0000:ffe8900c       _volmd                     000000014000000c     pjmedia-codec-x86_64-x64-vc14-debug-dynamic:opus.obj
 0000:ffe8900c       _volmd                     000000014000000c     pjmedia-x86_64-x64-vc14-debug-dynamic:audiodev.obj
 0000:ffe8900c       _volmd                     000000014000000c     pjmedia-x86_64-x64-vc14-debug-dynamic:codec.obj
 0000:ffe8900c       _volmd                     000000014000000c     pjmedia-x86_64-x64-vc14-debug-dynamic:endpoint.obj
 0000:ffe8900c       _volmd                     000000014000000c     pjmedia-x86_64-x64-vc14-debug-dynamic:sdp.obj
 0000:ffe8900c       _volmd                     000000014000000c     pjmedia-x86_64-x64-vc14-debug-dynamic:transport_srtp.obj
 0000:ffe8900c       _volmd                     000000014000000c     pjmedia-x86_64-x64-vc14-debug-dynamic:wav_player.obj
 0000:ffe8900c       _volmd                     000000014000000c     pjmedia-x86_64-x64-vc14-debug-dynamic:wav_writer.obj
 0000:ffe8900c       _volmd                     000000014000000c     libgsmcodec-x86_64-x64-vc14-debug-dynamic:lpc.obj
 0000:ffe8900c       _volmd                     000000014000000c     libgsmcodec-x86_64-x64-vc14-debug-dynamic:rpe.obj
 0000:ffe8900c       _volmd                     000000014000000c     libgsmcodec-x86_64-x64-vc14-debug-dynamic:short_term.obj
 0000:ffe8900c       _volmd                     000000014000000c     libilbccodec-x86_64-x64-vc14-debug-dynamic:LPCdecode.obj
 0000:ffe8900c       _volmd                     000000014000000c     libilbccodec-x86_64-x64-vc14-debug-dynamic:LPCencode.obj
 0000:ffe8900c       _volmd                     000000014000000c     libilbccodec-x86_64-x64-vc14-debug-dynamic:StateSearchW.obj
 0000:ffe8900c       _volmd                     000000014000000c     libilbccodec-x86_64-x64-vc14-debug-dynamic:enhancer.obj
 0000:ffe8900c       _volmd                     000000014000000c     libilbccodec-x86_64-x64-vc14-debug-dynamic:iLBC_decode.obj
 0000:ffe8900c       _volmd                     000000014000000c     libilbccodec-x86_64-x64-vc14-debug-dynamic:lsf.obj
 0000:ffe8900c       _volmd                     000000014000000c     libspeex-x86_64-x64-vc14-debug-dynamic:cb_search.obj
 0000:ffe8900c       _volmd                     000000014000000c     libspeex-x86_64-x64-vc14-debug-dynamic:filters.obj
 0000:ffe8900c       _volmd                     000000014000000c     libspeex-x86_64-x64-vc14-debug-dynamic:lsp.obj
 0000:ffe8900c       _volmd                     000000014000000c     libspeex-x86_64-x64-vc14-debug-dynamic:ltp.obj
 0000:ffe8900c       _volmd                     000000014000000c     libspeex-x86_64-x64-vc14-debug-dynamic:nb_celp.obj
 0000:ffe8900c       _volmd                     000000014000000c     libspeex-x86_64-x64-vc14-debug-dynamic:quant_lsp.obj
 0000:ffe8900c       _volmd                     000000014000000c     libspeex-x86_64-x64-vc14-debug-dynamic:sb_celp.obj
 0000:ffe8900c       _volmd                     000000014000000c     libspeex-x86_64-x64-vc14-debug-dynamic:speex.obj
 0000:ffe8900c       _volmd                     000000014000000c     libsrtp-x86_64-x64-vc14-debug-dynamic:cipher.obj
 0000:ffe8900c       _volmd                     000000014000000c     libsrtp-x86_64-x64-vc14-debug-dynamic:ekt.obj
 0000:ffe8900c       _volmd                     000000014000000c     libsrtp-x86_64-x64-vc14-debug-dynamic:hmac.obj
 0000:ffe8900c       _volmd                     000000014000000c     libsrtp-x86_64-x64-vc14-debug-dynamic:sha1.obj
 0000:ffe8900c       _volmd                     000000014000000c     libsrtp-x86_64-x64-vc14-debug-dynamic:srtp.obj
 0000:ffe8900c       _volmd                     000000014000000c     libsrtp-x86_64-x64-vc14-debug-dynamic:stat.obj
 0000:ffe89010       _volmd                     0000000140000010     pjlib-x86_64-x64-vc14-debug-dynamic:os_core_win32.obj
 0000:ffe89018       _volmd                     0000000140000018     encdec.obj
 0000:ffe89018       _volmd                     0000000140000018     pjlib-x86_64-x64-vc14-debug-dynamic:ip_helper_win32.obj
 0000:ffe89018       _volmd                     0000000140000018     pjlib-x86_64-x64-vc14-debug-dynamic:os_core_win32.obj
 0000:ffe89018       _volmd                     0000000140000018     pjlib-x86_64-x64-vc14-debug-dynamic:os_time_win32.obj
 0000:ffe89018       _volmd                     0000000140000018     pjlib-x86_64-x64-vc14-debug-dynamic:sock_bsd.obj
 0000:ffe89018       _volmd                     0000000140000018     pjlib-x86_64-x64-vc14-debug-dynamic:sock_common.obj
 0000:ffe89018       _volmd                     0000000140000018     pjmedia-audiodev-x86_64-x64-vc14-debug-dynamic:wmme_dev.obj
 0000:ffe89018       _volmd                     0000000140000018     pjmedia-x86_64-x64-vc14-debug-dynamic:audiodev.obj
 0000:ffe89018       _volmd                     0000000140000018     pjmedia-x86_64-x64-vc14-debug-dynamic:codec.obj
 0000:ffe89018       _volmd                     0000000140000018     pjmedia-x86_64-x64-vc14-debug-dynamic:endpoint.obj
 0000:ffe89018       _volmd                     0000000140000018     pjmedia-x86_64-x64-vc14-debug-dynamic:sdp.obj
 0000:ffe89018       _volmd                     0000000140000018     pjmedia-x86_64-x64-vc14-debug-dynamic:transport_srtp.obj
 0000:ffe89018       _volmd                     0000000140000018     libilbccodec-x86_64-x64-vc14-debug-dynamic:LPCencode.obj
 0000:ffe89018       _volmd                     0000000140000018     libilbccodec-x86_64-x64-vc14-debug-dynamic:enhancer.obj
 0000:ffe89018       _volmd                     0000000140000018     libspeex-x86_64-x64-vc14-debug-dynamic:cb_search.obj
 0000:ffe89018       _volmd                     0000000140000018     libspeex-x86_64-x64-vc14-debug-dynamic:filters.obj
 0000:ffe89018       _volmd                     0000000140000018     libspeex-x86_64-x64-vc14-debug-dynamic:ltp.obj
 0000:ffe89018       _volmd                     0000000140000018     libspeex-x86_64-x64-vc14-debug-dynamic:quant_lsp.obj
 0000:ffe89018       _volmd                     0000000140000018     libsrtp-x86_64-x64-vc14-debug-dynamic:sha1.obj
 0000:ffe89018       _volmd                     0000000140000018     libsrtp-x86_64-x64-vc14-debug-dynamic:srtp.obj
 0000:ffe89020       _volmd                     0000000140000020     pjlib-x86_64-x64-vc14-debug-dynamic:os_core_win32.obj
 0000:ffe89024       _volmd                     0000000140000024     pjlib-x86_64-x64-vc14-debug-dynamic:os_time_win32.obj
 0000:ffe89024       _volmd                     0000000140000024     pjlib-x86_64-x64-vc14-debug-dynamic:sock_bsd.obj
 0000:ffe89024       _volmd                     0000000140000024     pjlib-x86_64-x64-vc14-debug-dynamic:sock_common.obj
 0000:ffe89024       _volmd                     0000000140000024     pjmedia-audiodev-x86_64-x64-vc14-debug-dynamic:wmme_dev.obj
 0000:ffe89024       _volmd                     0000000140000024     pjmedia-x86_64-x64-vc14-debug-dynamic:codec.obj
 0000:ffe89024       _volmd                     0000000140000024     pjmedia-x86_64-x64-vc14-debug-dynamic:endpoint.obj
 0000:ffe89024       _volmd                     0000000140000024     pjmedia-x86_64-x64-vc14-debug-dynamic:sdp.obj
 0000:ffe89024       _volmd                     0000000140000024     pjmedia-x86_64-x64-vc14-debug-dynamic:transport_srtp.obj
 0000:ffe89024       _volmd                     0000000140000024     libilbccodec-x86_64-x64-vc14-debug-dynamic:LPCencode.obj
 0000:ffe89024       _volmd                     0000000140000024     libilbccodec-x86_64-x64-vc14-debug-dynamic:enhancer.obj
 0000:ffe89024       _volmd                     0000000140000024     libspeex-x86_64-x64-vc14-debug-dynamic:cb_search.obj
 0000:ffe89024       _volmd                     0000000140000024     libspeex-x86_64-x64-vc14-debug-dynamic:filters.obj
 0000:ffe89024       _volmd                     0000000140000024     libspeex-x86_64-x64-vc14-debug-dynamic:ltp.obj
 0000:ffe89024       _volmd                     0000000140000024     libsrtp-x86_64-x64-vc14-debug-dynamic:srtp.obj
 0000:ffe89028       _volmd                     0000000140000028     pjlib-x86_64-x64-vc14-debug-dynamic:os_core_win32.obj
 0000:ffe89030       _volmd                     0000000140000030     pjlib-x86_64-x64-vc14-debug-dynamic:sock_common.obj
 0000:ffe89030       _volmd                     0000000140000030     pjmedia-x86_64-x64-vc14-debug-dynamic:sdp.obj
 0000:ffe89030       _volmd                     0000000140000030     pjmedia-x86_64-x64-vc14-debug-dynamic:transport_srtp.obj
 0000:ffe89030       _volmd                     0000000140000030     libilbccodec-x86_64-x64-vc14-debug-dynamic:enhancer.obj
 0000:ffe89030       _volmd                     0000000140000030     libspeex-x86_64-x64-vc14-debug-dynamic:cb_search.obj
 0000:ffe89030       _volmd                     0000000140000030     libspeex-x86_64-x64-vc14-debug-dynamic:filters.obj
 0000:ffe89030       _volmd                     0000000140000030     libspeex-x86_64-x64-vc14-debug-dynamic:ltp.obj
 0000:ffe89030       _volmd                     0000000140000030     libsrtp-x86_64-x64-vc14-debug-dynamic:srtp.obj
 0000:ffe89034       _volmd                     0000000140000034     pjlib-x86_64-x64-vc14-debug-dynamic:os_core_win32.obj
 0000:ffe8903c       _volmd                     000000014000003c     pjlib-x86_64-x64-vc14-debug-dynamic:sock_common.obj
 0000:ffe8903c       _volmd                     000000014000003c     pjmedia-x86_64-x64-vc14-debug-dynamic:sdp.obj
 0000:ffe8903c       _volmd                     000000014000003c     libilbccodec-x86_64-x64-vc14-debug-dynamic:enhancer.obj
 0000:ffe8903c       _volmd                     000000014000003c     libspeex-x86_64-x64-vc14-debug-dynamic:filters.obj
 0000:ffe8903c       _volmd                     000000014000003c     libspeex-x86_64-x64-vc14-debug-dynamic:ltp.obj
 0000:ffe8903c       _volmd                     000000014000003c     libsrtp-x86_64-x64-vc14-debug-dynamic:srtp.obj
 0000:ffe89048       _volmd                     0000000140000048     pjlib-x86_64-x64-vc14-debug-dynamic:sock_common.obj
 0000:ffe89048       _volmd                     0000000140000048     libspeex-x86_64-x64-vc14-debug-dynamic:filters.obj
 0000:ffe89048       _volmd                     0000000140000048     libsrtp-x86_64-x64-vc14-debug-dynamic:srtp.obj
 0000:ffe89054       _volmd                     0000000140000054     pjlib-x86_64-x64-vc14-debug-dynamic:sock_common.obj
 0000:ffe89054       _volmd                     0000000140000054     libspeex-x86_64-x64-vc14-debug-dynamic:filters.obj
 0000:ffe89054       _volmd                     0000000140000054     libsrtp-x86_64-x64-vc14-debug-dynamic:srtp.obj
 0000:ffe89060       _volmd                     0000000140000060     pjlib-x86_64-x64-vc14-debug-dynamic:sock_common.obj
 0000:ffe89060       _volmd                     0000000140000060     libsrtp-x86_64-x64-vc14-debug-dynamic:srtp.obj
 0000:ffe8906c       _volmd                     000000014000006c     pjlib-x86_64-x64-vc14-debug-dynamic:sock_common.obj
 0000:ffe8906c       _volmd                     000000014000006c     libsrtp-x86_64-x64-vc14-debug-dynamic:srtp.obj
 0000:ffe89078       _volmd                     0000000140000078     libsrtp-x86_64-x64-vc14-debug-dynamic:srtp.obj
 0000:ffe89084       _volmd                     0000000140000084     libsrtp-x86_64-x64-vc14-debug-dynamic:srtp.obj
 0000:ffe89090       _volmd                     0000000140000090     libsrtp-x86_64-x64-vc14-debug-dynamic:srtp.obj
 0000:ffe8909c       _volmd                     000000014000009c     libsrtp-x86_64-x64-vc14-debug-dynamic:srtp.obj
 0000:ffe890a8       _volmd                     00000001400000a8     libsrtp-x86_64-x64-vc14-debug-dynamic:srtp.obj
 0001:00003120       pj_cstr                    0000000140004120 f   encdec.obj
 0001:00003180       pjmedia_codec_init         0000000140004180 f   encdec.obj
 0001:000031b0       pjmedia_codec_open         00000001400041b0 f   encdec.obj
 0001:000031e0       pjmedia_codec_close        00000001400041e0 f   encdec.obj
 0001:00003210       pjmedia_codec_parse        0000000140004210 f   encdec.obj
 0001:00003270       pjmedia_codec_encode       0000000140004270 f   encdec.obj
 0001:000032c0       pjmedia_codec_decode       00000001400042c0 f   encdec.obj
 0001:00003310       pjmedia_codec_recover      0000000140004310 f   encdec.obj
 0001:00003370       pjmedia_endpt_create       0000000140004370 f   encdec.obj
 0001:000033e0       pjmedia_endpt_destroy      00000001400043e0 f   encdec.obj
 0001:00003410       err                        0000000140004410 f   encdec.obj
 0001:000034a0       enc_dec_test               00000001400044a0 f   encdec.obj
 0001:000041a0       pj_bzero                   00000001400051a0 f   pjmedia-codec-x86_64-x64-vc14-debug-dynamic:audio_codecs.obj
 0001:000044b0       pj_list_init               00000001400054b0 f   pjmedia-codec-x86_64-x64-vc14-debug-dynamic:g722.obj
 0001:000044e0       pj_list_empty              00000001400054e0 f   pjmedia-codec-x86_64-x64-vc14-debug-dynamic:g722.obj
 0001:00004520       pj_list_push_front         0000000140005520 f   pjmedia-codec-x86_64-x64-vc14-debug-dynamic:g722.obj
 0001:00004550       pj_pool_zalloc             0000000140005550 f   pjmedia-codec-x86_64-x64-vc14-debug-dynamic:g722.obj
 0001:00004580       pj_bzero                   0000000140005580 f   pjmedia-codec-x86_64-x64-vc14-debug-dynamic:g722.obj
 0001:000045b0       pjmedia_zero_samples       00000001400055b0 f   pjmedia-codec-x86_64-x64-vc14-debug-dynamic:g722.obj
 0001:000045e0       pj_set_timestamp32         00000001400055e0 f   pjmedia-codec-x86_64-x64-vc14-debug-dynamic:g722.obj
 0001:00004610       pj_timestamp_diff32        0000000140005610 f   pjmedia-codec-x86_64-x64-vc14-debug-dynamic:g722.obj
 0001:00004820       g722_test_alloc            0000000140005820 f   pjmedia-codec-x86_64-x64-vc14-debug-dynamic:g722.obj
 0001:00004850       g722_default_attr          0000000140005850 f   pjmedia-codec-x86_64-x64-vc14-debug-dynamic:g722.obj
 0001:00004900       g722_enum_codecs           0000000140005900 f   pjmedia-codec-x86_64-x64-vc14-debug-dynamic:g722.obj
 0001:00004a30       g722_alloc_codec           0000000140005a30 f   pjmedia-codec-x86_64-x64-vc14-debug-dynamic:g722.obj
 0001:00004c70       g722_dealloc_codec         0000000140005c70 f   pjmedia-codec-x86_64-x64-vc14-debug-dynamic:g722.obj
 0001:00004e00       g722_codec_init            0000000140005e00 f   pjmedia-codec-x86_64-x64-vc14-debug-dynamic:g722.obj
 0001:00004e20       g722_codec_open            0000000140005e20 f   pjmedia-codec-x86_64-x64-vc14-debug-dynamic:g722.obj
 0001:00005010       g722_codec_close           0000000140006010 f   pjmedia-codec-x86_64-x64-vc14-debug-dynamic:g722.obj
 0001:00005020       g722_codec_modify          0000000140006020 f   pjmedia-codec-x86_64-x64-vc14-debug-dynamic:g722.obj
 0001:000050d0       g722_codec_parse           00000001400060d0 f   pjmedia-codec-x86_64-x64-vc14-debug-dynamic:g722.obj
 0001:00005200       g722_codec_encode          0000000140006200 f   pjmedia-codec-x86_64-x64-vc14-debug-dynamic:g722.obj
 0001:000054e0       g722_codec_decode          00000001400064e0 f   pjmedia-codec-x86_64-x64-vc14-debug-dynamic:g722.obj
 0001:000057d0       g722_codec_recover         00000001400067d0 f   pjmedia-codec-x86_64-x64-vc14-debug-dynamic:g722.obj
 0001:00005db0       pj_list_init               0000000140006db0 f   pjmedia-codec-x86_64-x64-vc14-debug-dynamic:gsm.obj
 0001:00005de0       pj_list_empty              0000000140006de0 f   pjmedia-codec-x86_64-x64-vc14-debug-dynamic:gsm.obj
 0001:00005e20       pj_list_push_front         0000000140006e20 f   pjmedia-codec-x86_64-x64-vc14-debug-dynamic:gsm.obj
 0001:00005e50       pj_pool_zalloc             0000000140006e50 f   pjmedia-codec-x86_64-x64-vc14-debug-dynamic:gsm.obj
 0001:00005e80       pj_bzero                   0000000140006e80 f   pjmedia-codec-x86_64-x64-vc14-debug-dynamic:gsm.obj
 0001:00005eb0       pjmedia_zero_samples       0000000140006eb0 f   pjmedia-codec-x86_64-x64-vc14-debug-dynamic:gsm.obj
 0001:00005ee0       pj_set_timestamp32         0000000140006ee0 f   pjmedia-codec-x86_64-x64-vc14-debug-dynamic:gsm.obj
 0001:00005f10       pj_timestamp_diff32        0000000140006f10 f   pjmedia-codec-x86_64-x64-vc14-debug-dynamic:gsm.obj
 0001:00006100       gsm_test_alloc             0000000140007100 f   pjmedia-codec-x86_64-x64-vc14-debug-dynamic:gsm.obj
 0001:00006130       gsm_default_attr           0000000140007130 f   pjmedia-codec-x86_64-x64-vc14-debug-dynamic:gsm.obj
 0001:000061e0       gsm_enum_codecs            00000001400071e0 f   pjmedia-codec-x86_64-x64-vc14-debug-dynamic:gsm.obj
 0001:00006310       gsm_alloc_codec            0000000140007310 f   pjmedia-codec-x86_64-x64-vc14-debug-dynamic:gsm.obj
 0001:00006540       gsm_dealloc_codec          0000000140007540 f   pjmedia-codec-x86_64-x64-vc14-debug-dynamic:gsm.obj
 0001:000066d0       gsm_codec_init             00000001400076d0 f   pjmedia-codec-x86_64-x64-vc14-debug-dynamic:gsm.obj
 0001:000066f0       gsm_codec_open             00000001400076f0 f   pjmedia-codec-x86_64-x64-vc14-debug-dynamic:gsm.obj
 0001:00006810       gsm_codec_close            0000000140007810 f   pjmedia-codec-x86_64-x64-vc14-debug-dynamic:gsm.obj
 0001:000068b0       gsm_codec_modify           00000001400078b0 f   pjmedia-codec-x86_64-x64-vc14-debug-dynamic:gsm.obj
 0001:00006990       gsm_codec_parse            0000000140007990 f   pjmedia-codec-x86_64-x64-vc14-debug-dynamic:gsm.obj
 0001:00006ac0       gsm_codec_encode           0000000140007ac0 f   pjmedia-codec-x86_64-x64-vc14-debug-dynamic:gsm.obj
 0001:00006d70       gsm_codec_decode           0000000140007d70 f   pjmedia-codec-x86_64-x64-vc14-debug-dynamic:gsm.obj
 0001:00006eb0       gsm_codec_recover          0000000140007eb0 f   pjmedia-codec-x86_64-x64-vc14-debug-dynamic:gsm.obj
 0001:000073f0       pj_pool_zalloc             00000001400083f0 f   pjmedia-codec-x86_64-x64-vc14-debug-dynamic:ilbc.obj
 0001:00007420       pj_bzero                   0000000140008420 f   pjmedia-codec-x86_64-x64-vc14-debug-dynamic:ilbc.obj
 0001:00007450       pj_set_timestamp32         0000000140008450 f   pjmedia-codec-x86_64-x64-vc14-debug-dynamic:ilbc.obj
 0001:00007480       pj_timestamp_diff32        0000000140008480 f   pjmedia-codec-x86_64-x64-vc14-debug-dynamic:ilbc.obj
 0001:000076a0       ilbc_test_alloc            00000001400086a0 f   pjmedia-codec-x86_64-x64-vc14-debug-dynamic:ilbc.obj
 0001:00007770       ilbc_default_attr          0000000140008770 f   pjmedia-codec-x86_64-x64-vc14-debug-dynamic:ilbc.obj
 0001:00007990       ilbc_enum_codecs           0000000140008990 f   pjmedia-codec-x86_64-x64-vc14-debug-dynamic:ilbc.obj
 0001:00007b00       ilbc_alloc_codec           0000000140008b00 f   pjmedia-codec-x86_64-x64-vc14-debug-dynamic:ilbc.obj
 0001:00007c90       ilbc_dealloc_codec         0000000140008c90 f   pjmedia-codec-x86_64-x64-vc14-debug-dynamic:ilbc.obj
 0001:00007d60       ilbc_codec_init            0000000140008d60 f   pjmedia-codec-x86_64-x64-vc14-debug-dynamic:ilbc.obj
 0001:00007d80       ilbc_codec_open            0000000140008d80 f   pjmedia-codec-x86_64-x64-vc14-debug-dynamic:ilbc.obj
 0001:000081d0       ilbc_codec_close           00000001400091d0 f   pjmedia-codec-x86_64-x64-vc14-debug-dynamic:ilbc.obj
 0001:00008220       ilbc_codec_modify          0000000140009220 f   pjmedia-codec-x86_64-x64-vc14-debug-dynamic:ilbc.obj
 0001:000082a0       ilbc_codec_parse           00000001400092a0 f   pjmedia-codec-x86_64-x64-vc14-debug-dynamic:ilbc.obj
 0001:00008400       ilbc_codec_encode          0000000140009400 f   pjmedia-codec-x86_64-x64-vc14-debug-dynamic:ilbc.obj
 0001:000087d0       ilbc_codec_decode          00000001400097d0 f   pjmedia-codec-x86_64-x64-vc14-debug-dynamic:ilbc.obj
 0001:00008960       ilbc_codec_recover         0000000140009960 f   pjmedia-codec-x86_64-x64-vc14-debug-dynamic:ilbc.obj
 0001:000091a0       pj_pool_zalloc             000000014000a1a0 f   pjmedia-codec-x86_64-x64-vc14-debug-dynamic:l16.obj
 0001:000091d0       pj_bzero                   000000014000a1d0 f   pjmedia-codec-x86_64-x64-vc14-debug-dynamic:l16.obj
 0001:00009200       pj_timestamp_diff32        000000014000a200 f   pjmedia-codec-x86_64-x64-vc14-debug-dynamic:l16.obj
 0001:00009450       l16_test_alloc             000000014000a450 f   pjmedia-codec-x86_64-x64-vc14-debug-dynamic:l16.obj
 0001:00009490       l16_default_attr           000000014000a490 f   pjmedia-codec-x86_64-x64-vc14-debug-dynamic:l16.obj
 0001:00009590       l16_enum_codecs            000000014000a590 f   pjmedia-codec-x86_64-x64-vc14-debug-dynamic:l16.obj
 0001:00009b00       l16_alloc_codec            000000014000ab00 f   pjmedia-codec-x86_64-x64-vc14-debug-dynamic:l16.obj
 0001:00009d20       l16_dealloc_codec          000000014000ad20 f   pjmedia-codec-x86_64-x64-vc14-debug-dynamic:l16.obj
 0001:00009e30       l16_init                   000000014000ae30 f   pjmedia-codec-x86_64-x64-vc14-debug-dynamic:l16.obj
 0001:00009e50       l16_open                   000000014000ae50 f   pjmedia-codec-x86_64-x64-vc14-debug-dynamic:l16.obj
 0001:00009f40       l16_close                  000000014000af40 f   pjmedia-codec-x86_64-x64-vc14-debug-dynamic:l16.obj
 0001:00009f50       l16_modify                 000000014000af50 f   pjmedia-codec-x86_64-x64-vc14-debug-dynamic:l16.obj
 0001:0000a000       l16_parse                  000000014000b000 f   pjmedia-codec-x86_64-x64-vc14-debug-dynamic:l16.obj
 0001:0000a160       l16_encode                 000000014000b160 f   pjmedia-codec-x86_64-x64-vc14-debug-dynamic:l16.obj
 0001:0000a370       l16_decode                 000000014000b370 f   pjmedia-codec-x86_64-x64-vc14-debug-dynamic:l16.obj
 0001:0000a510       l16_recover                000000014000b510 f   pjmedia-codec-x86_64-x64-vc14-debug-dynamic:l16.obj
 0001:0000ab00       pj_pool_zalloc             000000014000bb00 f   pjmedia-codec-x86_64-x64-vc14-debug-dynamic:opus.obj
 0001:0000ab30       pj_bzero                   000000014000bb30 f   pjmedia-codec-x86_64-x64-vc14-debug-dynamic:opus.obj
 0001:0000ab60       pj_memcpy                  000000014000bb60 f   pjmedia-codec-x86_64-x64-vc14-debug-dynamic:opus.obj
 0001:0000aba0       pjmedia_zero_samples       000000014000bba0 f   pjmedia-codec-x86_64-x64-vc14-debug-dynamic:opus.obj
 0001:0000b120       factory_test_alloc         000000014000c120 f   pjmedia-codec-x86_64-x64-vc14-debug-dynamic:opus.obj
 0001:0000b220       factory_default_attr       000000014000c220 f   pjmedia-codec-x86_64-x64-vc14-debug-dynamic:opus.obj
 0001:0000b300       factory_enum_codecs        000000014000c300 f   pjmedia-codec-x86_64-x64-vc14-debug-dynamic:opus.obj
 0001:0000b420       factory_alloc_codec        000000014000c420 f   pjmedia-codec-x86_64-x64-vc14-debug-dynamic:opus.obj
 0001:0000b550       factory_dealloc_codec      000000014000c550 f   pjmedia-codec-x86_64-x64-vc14-debug-dynamic:opus.obj
 0001:0000b640       codec_init                 000000014000c640 f   pjmedia-codec-x86_64-x64-vc14-debug-dynamic:opus.obj
 0001:0000b660       codec_open                 000000014000c660 f   pjmedia-codec-x86_64-x64-vc14-debug-dynamic:opus.obj
 0001:0000bfc0       codec_close                000000014000cfc0 f   pjmedia-codec-x86_64-x64-vc14-debug-dynamic:opus.obj
 0001:0000bfd0       codec_modify               000000014000cfd0 f   pjmedia-codec-x86_64-x64-vc14-debug-dynamic:opus.obj
 0001:0000c140       codec_parse                000000014000d140 f   pjmedia-codec-x86_64-x64-vc14-debug-dynamic:opus.obj
 0001:0000c4e0       codec_encode               000000014000d4e0 f   pjmedia-codec-x86_64-x64-vc14-debug-dynamic:opus.obj
 0001:0000c7e0       codec_decode               000000014000d7e0 f   pjmedia-codec-x86_64-x64-vc14-debug-dynamic:opus.obj
 0001:0000cc80       codec_recover              000000014000dc80 f   pjmedia-codec-x86_64-x64-vc14-debug-dynamic:opus.obj
 0001:0000cf60       get_opus_bw_constant       000000014000df60 f   pjmedia-codec-x86_64-x64-vc14-debug-dynamic:opus.obj
 0001:0000cfc0       find_fmtp                  000000014000dfc0 f   pjmedia-codec-x86_64-x64-vc14-debug-dynamic:opus.obj
 0001:0000d080       remove_fmtp                000000014000e080 f   pjmedia-codec-x86_64-x64-vc14-debug-dynamic:opus.obj
 0001:0000d1a0       generate_fmtp              000000014000e1a0 f   pjmedia-codec-x86_64-x64-vc14-debug-dynamic:opus.obj
 0001:0000e150       pj_list_init               000000014000f150 f   pjmedia-codec-x86_64-x64-vc14-debug-dynamic:speex_codec.obj
 0001:0000e180       pj_list_empty              000000014000f180 f   pjmedia-codec-x86_64-x64-vc14-debug-dynamic:speex_codec.obj
 0001:0000e1c0       pj_list_push_front         000000014000f1c0 f   pjmedia-codec-x86_64-x64-vc14-debug-dynamic:speex_codec.obj
 0001:0000e1f0       pj_pool_zalloc             000000014000f1f0 f   pjmedia-codec-x86_64-x64-vc14-debug-dynamic:speex_codec.obj
 0001:0000e220       pj_bzero                   000000014000f220 f   pjmedia-codec-x86_64-x64-vc14-debug-dynamic:speex_codec.obj
 0001:0000e250       pjmedia_zero_samples       000000014000f250 f   pjmedia-codec-x86_64-x64-vc14-debug-dynamic:speex_codec.obj
 0001:0000e9b0       spx_test_alloc             000000014000f9b0 f   pjmedia-codec-x86_64-x64-vc14-debug-dynamic:speex_codec.obj
 0001:0000ea60       spx_default_attr           000000014000fa60 f   pjmedia-codec-x86_64-x64-vc14-debug-dynamic:speex_codec.obj
 0001:0000ec90       spx_enum_codecs            000000014000fc90 f   pjmedia-codec-x86_64-x64-vc14-debug-dynamic:speex_codec.obj
 0001:0000ee50       spx_alloc_codec            000000014000fe50 f   pjmedia-codec-x86_64-x64-vc14-debug-dynamic:speex_codec.obj
 0001:0000f060       spx_dealloc_codec          0000000140010060 f   pjmedia-codec-x86_64-x64-vc14-debug-dynamic:speex_codec.obj
 0001:0000f170       spx_codec_init             0000000140010170 f   pjmedia-codec-x86_64-x64-vc14-debug-dynamic:speex_codec.obj
 0001:0000f190       spx_codec_open             0000000140010190 f   pjmedia-codec-x86_64-x64-vc14-debug-dynamic:speex_codec.obj
 0001:0000f3d0       spx_codec_close            00000001400103d0 f   pjmedia-codec-x86_64-x64-vc14-debug-dynamic:speex_codec.obj
 0001:0000f470       spx_codec_modify           0000000140010470 f   pjmedia-codec-x86_64-x64-vc14-debug-dynamic:speex_codec.obj
 0001:0000f520       spx_codec_parse            0000000140010520 f   pjmedia-codec-x86_64-x64-vc14-debug-dynamic:speex_codec.obj
 0001:0000f6d0       spx_codec_encode           00000001400106d0 f   pjmedia-codec-x86_64-x64-vc14-debug-dynamic:speex_codec.obj
 0001:0000f930       spx_codec_decode           0000000140010930 f   pjmedia-codec-x86_64-x64-vc14-debug-dynamic:speex_codec.obj
 0001:0000faa0       spx_codec_recover          0000000140010aa0 f   pjmedia-codec-x86_64-x64-vc14-debug-dynamic:speex_codec.obj
 0001:0000fb50       get_speex_info             0000000140010b50 f   pjmedia-codec-x86_64-x64-vc14-debug-dynamic:speex_codec.obj
 0001:0000fca0       speex_get_next_frame       0000000140010ca0 f   pjmedia-codec-x86_64-x64-vc14-debug-dynamic:speex_codec.obj
 0001:00010630       pj_bzero                   0000000140011630 f   pjmedia-codec-x86_64-x64-vc14-debug-dynamic:g722_enc.obj
 0001:00010660       pj_memmove                 0000000140011660 f   pjmedia-codec-x86_64-x64-vc14-debug-dynamic:g722_enc.obj
 0001:00010a50       block1l                    0000000140011a50 f   pjmedia-codec-x86_64-x64-vc14-debug-dynamic:g722_enc.obj
 0001:00010b60       block2l                    0000000140011b60 f   pjmedia-codec-x86_64-x64-vc14-debug-dynamic:g722_enc.obj
 0001:00010bb0       block3l                    0000000140011bb0 f   pjmedia-codec-x86_64-x64-vc14-debug-dynamic:g722_enc.obj
 0001:00010ce0       block4l                    0000000140011ce0 f   pjmedia-codec-x86_64-x64-vc14-debug-dynamic:g722_enc.obj
 0001:00011640       block1h                    0000000140012640 f   pjmedia-codec-x86_64-x64-vc14-debug-dynamic:g722_enc.obj
 0001:00011720       block2h                    0000000140012720 f   pjmedia-codec-x86_64-x64-vc14-debug-dynamic:g722_enc.obj
 0001:00011760       block3h                    0000000140012760 f   pjmedia-codec-x86_64-x64-vc14-debug-dynamic:g722_enc.obj
 0001:00011880       block4h                    0000000140012880 f   pjmedia-codec-x86_64-x64-vc14-debug-dynamic:g722_enc.obj
 0001:000122d0       tx_qmf                     00000001400132d0 f   pjmedia-codec-x86_64-x64-vc14-debug-dynamic:g722_enc.obj
 0001:00012c20       pj_bzero                   0000000140013c20 f   pjmedia-codec-x86_64-x64-vc14-debug-dynamic:g722_dec.obj
 0001:00012c50       pj_memmove                 0000000140013c50 f   pjmedia-codec-x86_64-x64-vc14-debug-dynamic:g722_dec.obj
 0001:00013000       block2l                    0000000140014000 f   pjmedia-codec-x86_64-x64-vc14-debug-dynamic:g722_dec.obj
 0001:00013050       block3l                    0000000140014050 f   pjmedia-codec-x86_64-x64-vc14-debug-dynamic:g722_dec.obj
 0001:00013180       block4l                    0000000140014180 f   pjmedia-codec-x86_64-x64-vc14-debug-dynamic:g722_dec.obj
 0001:00013ab0       block5l                    0000000140014ab0 f   pjmedia-codec-x86_64-x64-vc14-debug-dynamic:g722_dec.obj
 0001:00013b90       block6l                    0000000140014b90 f   pjmedia-codec-x86_64-x64-vc14-debug-dynamic:g722_dec.obj
 0001:00013bd0       block2h                    0000000140014bd0 f   pjmedia-codec-x86_64-x64-vc14-debug-dynamic:g722_dec.obj
 0001:00013c10       block3h                    0000000140014c10 f   pjmedia-codec-x86_64-x64-vc14-debug-dynamic:g722_dec.obj
 0001:00013d30       block4h                    0000000140014d30 f   pjmedia-codec-x86_64-x64-vc14-debug-dynamic:g722_dec.obj
 0001:00014710       block5h                    0000000140015710 f   pjmedia-codec-x86_64-x64-vc14-debug-dynamic:g722_dec.obj
 0001:00014760       rx_qmf                     0000000140015760 f   pjmedia-codec-x86_64-x64-vc14-debug-dynamic:g722_dec.obj
 0001:00015a40       pjmedia_format_init_audio  0000000140016a40 f   pjmedia-audiodev-x86_64-x64-vc14-debug-dynamic:wmme_dev.obj
 0001:00015ad0       pj_bzero                   0000000140016ad0 f   pjmedia-audiodev-x86_64-x64-vc14-debug-dynamic:wmme_dev.obj
 0001:00015b00       pj_memset                  0000000140016b00 f   pjmedia-audiodev-x86_64-x64-vc14-debug-dynamic:wmme_dev.obj
 0001:00015b30       pj_memcpy                  0000000140016b30 f   pjmedia-audiodev-x86_64-x64-vc14-debug-dynamic:wmme_dev.obj
 0001:00015b70       pjmedia_frame_ext_append_subframe 0000000140016b70 f   pjmedia-audiodev-x86_64-x64-vc14-debug-dynamic:wmme_dev.obj
 0001:00015c60       pjmedia_frame_ext_get_subframe 0000000140016c60 f   pjmedia-audiodev-x86_64-x64-vc14-debug-dynamic:wmme_dev.obj
 0001:00015d00       pjmedia_frame_ext_copy_payload 0000000140016d00 f   pjmedia-audiodev-x86_64-x64-vc14-debug-dynamic:wmme_dev.obj
 0001:00015de0       factory_init               0000000140016de0 f   pjmedia-audiodev-x86_64-x64-vc14-debug-dynamic:wmme_dev.obj
 0001:00015e40       factory_destroy            0000000140016e40 f   pjmedia-audiodev-x86_64-x64-vc14-debug-dynamic:wmme_dev.obj
 0001:00015ea0       factory_refresh            0000000140016ea0 f   pjmedia-audiodev-x86_64-x64-vc14-debug-dynamic:wmme_dev.obj
 0001:000163d0       factory_get_dev_count      00000001400173d0 f   pjmedia-audiodev-x86_64-x64-vc14-debug-dynamic:wmme_dev.obj
 0001:00016400       factory_get_dev_info       0000000140017400 f   pjmedia-audiodev-x86_64-x64-vc14-debug-dynamic:wmme_dev.obj
 0001:000164a0       factory_default_param      00000001400174a0 f   pjmedia-audiodev-x86_64-x64-vc14-debug-dynamic:wmme_dev.obj
 0001:00016660       factory_create_stream      0000000140017660 f   pjmedia-audiodev-x86_64-x64-vc14-debug-dynamic:wmme_dev.obj
 0001:00016b40       stream_get_param           0000000140017b40 f   pjmedia-audiodev-x86_64-x64-vc14-debug-dynamic:wmme_dev.obj
 0001:00016c00       stream_get_cap             0000000140017c00 f   pjmedia-audiodev-x86_64-x64-vc14-debug-dynamic:wmme_dev.obj
 0001:00016d40       stream_set_cap             0000000140017d40 f   pjmedia-audiodev-x86_64-x64-vc14-debug-dynamic:wmme_dev.obj
 0001:00016e80       stream_start               0000000140017e80 f   pjmedia-audiodev-x86_64-x64-vc14-debug-dynamic:wmme_dev.obj
 0001:00016f60       stream_stop                0000000140017f60 f   pjmedia-audiodev-x86_64-x64-vc14-debug-dynamic:wmme_dev.obj
 0001:00017070       stream_destroy             0000000140018070 f   pjmedia-audiodev-x86_64-x64-vc14-debug-dynamic:wmme_dev.obj
 0001:000173a0       get_dev_names              00000001400183a0 f   pjmedia-audiodev-x86_64-x64-vc14-debug-dynamic:wmme_dev.obj
 0001:000173b0       build_dev_info             00000001400183b0 f   pjmedia-audiodev-x86_64-x64-vc14-debug-dynamic:wmme_dev.obj
 0001:00017670       init_waveformatex          0000000140018670 f   pjmedia-audiodev-x86_64-x64-vc14-debug-dynamic:wmme_dev.obj
 0001:00017820       get_fmt_name               0000000140018820 f   pjmedia-audiodev-x86_64-x64-vc14-debug-dynamic:wmme_dev.obj
 0001:00017890       init_player_stream         0000000140018890 f   pjmedia-audiodev-x86_64-x64-vc14-debug-dynamic:wmme_dev.obj
 0001:00017cd0       init_capture_stream        0000000140018cd0 f   pjmedia-audiodev-x86_64-x64-vc14-debug-dynamic:wmme_dev.obj
 0001:000180d0       wmme_dev_thread            00000001400190d0 f   pjmedia-audiodev-x86_64-x64-vc14-debug-dynamic:wmme_dev.obj
 0001:000197c0       pj_pool_zalloc             000000014001a7c0 f   pjmedia-audiodev-x86_64-x64-vc14-debug-dynamic:wmme_dev.obj
 0001:000197f0       pjmedia_format_init_audio  000000014001a7f0 f   pjmedia-x86_64-x64-vc14-debug-dynamic:port.obj
 0001:00019880       pj_bzero                   000000014001a880 f   pjmedia-x86_64-x64-vc14-debug-dynamic:port.obj
 0001:00019da0       pj_list_init               000000014001ada0 f   pjmedia-x86_64-x64-vc14-debug-dynamic:codec.obj
 0001:00019dd0       pj_list_push_back          000000014001add0 f   pjmedia-x86_64-x64-vc14-debug-dynamic:codec.obj
 0001:00019e00       pj_pool_zalloc             000000014001ae00 f   pjmedia-x86_64-x64-vc14-debug-dynamic:codec.obj
 0001:00019e30       pj_bzero                   000000014001ae30 f   pjmedia-x86_64-x64-vc14-debug-dynamic:codec.obj
 0001:00019e60       pj_memcpy                  000000014001ae60 f   pjmedia-x86_64-x64-vc14-debug-dynamic:codec.obj
 0001:0001b4c0       sort_codecs                000000014001c4c0 f   pjmedia-x86_64-x64-vc14-debug-dynamic:codec.obj
 0001:0001b5e0       swap_codec                 000000014001c5e0 f   pjmedia-x86_64-x64-vc14-debug-dynamic:codec.obj
 0001:0001bd00       pj_list_init               000000014001cd00 f   pjmedia-x86_64-x64-vc14-debug-dynamic:endpoint.obj
 0001:0001bd30       pj_list_push_back          000000014001cd30 f   pjmedia-x86_64-x64-vc14-debug-dynamic:endpoint.obj
 0001:0001bd60       pj_pool_zalloc             000000014001cd60 f   pjmedia-x86_64-x64-vc14-debug-dynamic:endpoint.obj
 0001:0001bd90       pj_bzero                   000000014001cd90 f   pjmedia-x86_64-x64-vc14-debug-dynamic:endpoint.obj
 0001:0001db40       worker_proc                000000014001eb40 f   pjmedia-x86_64-x64-vc14-debug-dynamic:endpoint.obj
 0001:0001dba0       init_sdp_media             000000014001eba0 f   pjmedia-x86_64-x64-vc14-debug-dynamic:endpoint.obj
 0001:0001de80       good_number                000000014001ee80 f   pjmedia-x86_64-x64-vc14-debug-dynamic:endpoint.obj
 0001:0001e8b0       pj_pool_zalloc             000000014001f8b0 f   pjmedia-x86_64-x64-vc14-debug-dynamic:wav_player.obj
 0001:0001e8e0       pj_bzero                   000000014001f8e0 f   pjmedia-x86_64-x64-vc14-debug-dynamic:wav_player.obj
 0001:0001e910       pj_memset                  000000014001f910 f   pjmedia-x86_64-x64-vc14-debug-dynamic:wav_player.obj
 0001:0001e940       pj_memcpy                  000000014001f940 f   pjmedia-x86_64-x64-vc14-debug-dynamic:wav_player.obj
 0001:0001f8a0       file_get_frame             00000001400208a0 f   pjmedia-x86_64-x64-vc14-debug-dynamic:wav_player.obj
 0001:00020060       file_on_destroy            0000000140021060 f   pjmedia-x86_64-x64-vc14-debug-dynamic:wav_player.obj
 0001:000200f0       create_file_port           00000001400210f0 f   pjmedia-x86_64-x64-vc14-debug-dynamic:wav_player.obj
 0001:000201b0       fill_buffer                00000001400211b0 f   pjmedia-x86_64-x64-vc14-debug-dynamic:wav_player.obj
 0001:00020440       file_on_event              0000000140021440 f   pjmedia-x86_64-x64-vc14-debug-dynamic:wav_player.obj
 0001:00020b90       pj_pool_zalloc             0000000140021b90 f   pjmedia-x86_64-x64-vc14-debug-dynamic:wav_writer.obj
 0001:00020bc0       PJMEDIA_FSZ                0000000140021bc0 f   pjmedia-x86_64-x64-vc14-debug-dynamic:wav_writer.obj
 0001:00020bf0       PJMEDIA_AFD_AVG_FSZ        0000000140021bf0 f   pjmedia-x86_64-x64-vc14-debug-dynamic:wav_writer.obj
 0001:00020c20       pj_bzero                   0000000140021c20 f   pjmedia-x86_64-x64-vc14-debug-dynamic:wav_writer.obj
 0001:00020c50       pj_memcpy                  0000000140021c50 f   pjmedia-x86_64-x64-vc14-debug-dynamic:wav_writer.obj
 0001:00020c90       PJMEDIA_PIA_SRATE          0000000140021c90 f   pjmedia-x86_64-x64-vc14-debug-dynamic:wav_writer.obj
 0001:00020ce0       PJMEDIA_PIA_AVG_FSZ        0000000140021ce0 f   pjmedia-x86_64-x64-vc14-debug-dynamic:wav_writer.obj
 0001:00021650       file_put_frame             0000000140022650 f   pjmedia-x86_64-x64-vc14-debug-dynamic:wav_writer.obj
 0001:00021a40       file_get_frame             0000000140022a40 f   pjmedia-x86_64-x64-vc14-debug-dynamic:wav_writer.obj
 0001:00021a60       file_on_destroy            0000000140022a60 f   pjmedia-x86_64-x64-vc14-debug-dynamic:wav_writer.obj
 0001:00021d20       flush_buffer               0000000140022d20 f   pjmedia-x86_64-x64-vc14-debug-dynamic:wav_writer.obj
 0001:00021da0       file_on_event              0000000140022da0 f   pjmedia-x86_64-x64-vc14-debug-dynamic:wav_writer.obj
 0001:00022290       pj_list_init               0000000140023290 f   pjmedia-x86_64-x64-vc14-debug-dynamic:g711.obj
 0001:000222c0       pj_list_empty              00000001400232c0 f   pjmedia-x86_64-x64-vc14-debug-dynamic:g711.obj
 0001:00022300       pj_pool_zalloc             0000000140023300 f   pjmedia-x86_64-x64-vc14-debug-dynamic:g711.obj
 0001:00022330       pj_bzero                   0000000140023330 f   pjmedia-x86_64-x64-vc14-debug-dynamic:g711.obj
 0001:00022360       pjmedia_zero_samples       0000000140023360 f   pjmedia-x86_64-x64-vc14-debug-dynamic:g711.obj
 0001:00022390       pj_timestamp_diff32        0000000140023390 f   pjmedia-x86_64-x64-vc14-debug-dynamic:g711.obj
 0001:000225e0       g711_test_alloc            00000001400235e0 f   pjmedia-x86_64-x64-vc14-debug-dynamic:g711.obj
 0001:00022630       g711_default_attr          0000000140023630 f   pjmedia-x86_64-x64-vc14-debug-dynamic:g711.obj
 0001:000226f0       g711_enum_codecs           00000001400236f0 f   pjmedia-x86_64-x64-vc14-debug-dynamic:g711.obj
 0001:00022880       g711_alloc_codec           0000000140023880 f   pjmedia-x86_64-x64-vc14-debug-dynamic:g711.obj
 0001:00022a70       g711_dealloc_codec         0000000140023a70 f   pjmedia-x86_64-x64-vc14-debug-dynamic:g711.obj
 0001:00022bf0       g711_init                  0000000140023bf0 f   pjmedia-x86_64-x64-vc14-debug-dynamic:g711.obj
 0001:00022c10       g711_open                  0000000140023c10 f   pjmedia-x86_64-x64-vc14-debug-dynamic:g711.obj
 0001:00022cb0       g711_close                 0000000140023cb0 f   pjmedia-x86_64-x64-vc14-debug-dynamic:g711.obj
 0001:00022cc0       g711_modify                0000000140023cc0 f   pjmedia-x86_64-x64-vc14-debug-dynamic:g711.obj
 0001:00022d60       g711_parse                 0000000140023d60 f   pjmedia-x86_64-x64-vc14-debug-dynamic:g711.obj
 0001:00022ea0       g711_encode                0000000140023ea0 f   pjmedia-x86_64-x64-vc14-debug-dynamic:g711.obj
 0001:00023120       g711_decode                0000000140024120 f   pjmedia-x86_64-x64-vc14-debug-dynamic:g711.obj
 0001:00023360       g711_recover               0000000140024360 f   pjmedia-x86_64-x64-vc14-debug-dynamic:g711.obj
 0001:00023a80       plc_wsola_create           0000000140024a80 f   pjmedia-x86_64-x64-vc14-debug-dynamic:plc_common.obj
 0001:00023b20       plc_wsola_save             0000000140024b20 f   pjmedia-x86_64-x64-vc14-debug-dynamic:plc_common.obj
 0001:00023b70       plc_wsola_generate         0000000140024b70 f   pjmedia-x86_64-x64-vc14-debug-dynamic:plc_common.obj
 0001:00023c80       pj_pool_zalloc             0000000140024c80 f   pjmedia-x86_64-x64-vc14-debug-dynamic:plc_common.obj
 0001:00024740       pj_pool_zalloc             0000000140025740 f   pjmedia-x86_64-x64-vc14-debug-dynamic:silencedet.obj
 0001:00024770       pj_bzero                   0000000140025770 f   pjmedia-x86_64-x64-vc14-debug-dynamic:audiodev.obj
 0001:000247a0       pj_memcpy                  00000001400257a0 f   pjmedia-x86_64-x64-vc14-debug-dynamic:audiodev.obj
 0001:00025850       get_cap_pointer            0000000140026850 f   pjmedia-x86_64-x64-vc14-debug-dynamic:audiodev.obj
 0001:00025a70       make_global_index          0000000140026a70 f   pjmedia-x86_64-x64-vc14-debug-dynamic:audiodev.obj
 0001:00025b90       lookup_dev                 0000000140026b90 f   pjmedia-x86_64-x64-vc14-debug-dynamic:audiodev.obj
 0001:000262b0       pj_list_init               00000001400272b0 f   pjmedia-x86_64-x64-vc14-debug-dynamic:event.obj
 0001:000262e0       pj_list_push_back          00000001400272e0 f   pjmedia-x86_64-x64-vc14-debug-dynamic:event.obj
 0001:00026310       pj_pool_zalloc             0000000140027310 f   pjmedia-x86_64-x64-vc14-debug-dynamic:event.obj
 0001:00026340       pj_bzero                   0000000140027340 f   pjmedia-x86_64-x64-vc14-debug-dynamic:event.obj
 0001:00026370       pj_memcpy                  0000000140027370 f   pjmedia-x86_64-x64-vc14-debug-dynamic:event.obj
 0001:00026ce0       event_queue_add_event      0000000140027ce0 f   pjmedia-x86_64-x64-vc14-debug-dynamic:event.obj
 0001:00026df0       event_mgr_distribute_events 0000000140027df0 f   pjmedia-x86_64-x64-vc14-debug-dynamic:event.obj
 0001:00026f60       event_worker_thread        0000000140027f60 f   pjmedia-x86_64-x64-vc14-debug-dynamic:event.obj
 0001:00027340       pjmedia_fourcc_name        0000000140028340 f   pjmedia-x86_64-x64-vc14-debug-dynamic:event.obj
 0001:000274a0       pj_memcpy                  00000001400284a0 f   pjmedia-x86_64-x64-vc14-debug-dynamic:format.obj
 0001:00029c94       $LN73                      000000014002ac94     pjmedia-x86_64-x64-vc14-debug-dynamic:sdp.obj
 0001:00029cc0       $LN72                      000000014002acc0     pjmedia-x86_64-x64-vc14-debug-dynamic:sdp.obj
 0001:0002a470       pj_scan_get_col            000000014002b470 f   pjmedia-x86_64-x64-vc14-debug-dynamic:sdp.obj
 0001:0002a4a0       pj_strset                  000000014002b4a0 f   pjmedia-x86_64-x64-vc14-debug-dynamic:sdp.obj
 0001:0002a4e0       pj_bzero                   000000014002b4e0 f   pjmedia-x86_64-x64-vc14-debug-dynamic:sdp.obj
 0001:0002a510       pj_memcpy                  000000014002b510 f   pjmedia-x86_64-x64-vc14-debug-dynamic:sdp.obj
 0001:0002a550       pj_pool_zalloc             000000014002b550 f   pjmedia-x86_64-x64-vc14-debug-dynamic:sdp.obj
 0001:0002a580       pj_isdigit                 000000014002b580 f   pjmedia-x86_64-x64-vc14-debug-dynamic:sdp.obj
 0001:0002a5a0       parse_version              000000014002b5a0 f   pjmedia-x86_64-x64-vc14-debug-dynamic:sdp.obj
 0001:0002a610       parse_origin               000000014002b610 f   pjmedia-x86_64-x64-vc14-debug-dynamic:sdp.obj
 0001:0002a760       parse_time                 000000014002b760 f   pjmedia-x86_64-x64-vc14-debug-dynamic:sdp.obj
 0001:0002a830       parse_generic_line         000000014002b830 f   pjmedia-x86_64-x64-vc14-debug-dynamic:sdp.obj
 0001:0002a8b0       parse_connection_info      000000014002b8b0 f   pjmedia-x86_64-x64-vc14-debug-dynamic:sdp.obj
 0001:0002a960       parse_bandwidth_info       000000014002b960 f   pjmedia-x86_64-x64-vc14-debug-dynamic:sdp.obj
 0001:0002a9f0       parse_attr                 000000014002b9f0 f   pjmedia-x86_64-x64-vc14-debug-dynamic:sdp.obj
 0001:0002ab60       parse_media                000000014002bb60 f   pjmedia-x86_64-x64-vc14-debug-dynamic:sdp.obj
 0001:0002ad80       on_scanner_error           000000014002bd80 f   pjmedia-x86_64-x64-vc14-debug-dynamic:sdp.obj
 0001:0002ada0       init_sdp_parser            000000014002bda0 f   pjmedia-x86_64-x64-vc14-debug-dynamic:sdp.obj
 0001:0002ae50       print_connection_info      000000014002be50 f   pjmedia-x86_64-x64-vc14-debug-dynamic:sdp.obj
 0001:0002af00       print_bandw                000000014002bf00 f   pjmedia-x86_64-x64-vc14-debug-dynamic:sdp.obj
 0001:0002b020       print_attr                 000000014002c020 f   pjmedia-x86_64-x64-vc14-debug-dynamic:sdp.obj
 0001:0002b170       print_media_desc           000000014002c170 f   pjmedia-x86_64-x64-vc14-debug-dynamic:sdp.obj
 0001:0002b530       print_session              000000014002c530 f   pjmedia-x86_64-x64-vc14-debug-dynamic:sdp.obj
 0001:0002bb30       apply_media_direction      000000014002cb30 f   pjmedia-x86_64-x64-vc14-debug-dynamic:sdp.obj
 0001:0002bdd0       validate_sdp_conn          000000014002cdd0 f   pjmedia-x86_64-x64-vc14-debug-dynamic:sdp.obj
 0001:0002d0e0       pj_scan_is_eof             000000014002e0e0 f   pjmedia-x86_64-x64-vc14-debug-dynamic:sdp.obj
 0001:0002d4f0       wave_hdr_swap_bytes        000000014002e4f0 f   pjmedia-x86_64-x64-vc14-debug-dynamic:wave.obj
 0001:0002e6e0       pj_bzero                   000000014002f6e0 f   pjmedia-x86_64-x64-vc14-debug-dynamic:wsola.obj
 0001:0002e710       pj_memcpy                  000000014002f710 f   pjmedia-x86_64-x64-vc14-debug-dynamic:wsola.obj
 0001:0002e750       pj_memmove                 000000014002f750 f   pjmedia-x86_64-x64-vc14-debug-dynamic:wsola.obj
 0001:0002e790       pjmedia_zero_samples       000000014002f790 f   pjmedia-x86_64-x64-vc14-debug-dynamic:wsola.obj
 0001:0002e7c0       pjmedia_copy_samples       000000014002f7c0 f   pjmedia-x86_64-x64-vc14-debug-dynamic:wsola.obj
 0001:0002e800       pjmedia_move_samples       000000014002f800 f   pjmedia-x86_64-x64-vc14-debug-dynamic:wsola.obj
 0001:0002e840       pjmedia_circ_buf_create    000000014002f840 f   pjmedia-x86_64-x64-vc14-debug-dynamic:wsola.obj
 0001:0002e8d0       pjmedia_circ_buf_reset     000000014002f8d0 f   pjmedia-x86_64-x64-vc14-debug-dynamic:wsola.obj
 0001:0002e900       pjmedia_circ_buf_get_len   000000014002f900 f   pjmedia-x86_64-x64-vc14-debug-dynamic:wsola.obj
 0001:0002e920       pjmedia_circ_buf_set_len   000000014002f920 f   pjmedia-x86_64-x64-vc14-debug-dynamic:wsola.obj
 0001:0002e940       pjmedia_circ_buf_adv_read_ptr 000000014002f940 f   pjmedia-x86_64-x64-vc14-debug-dynamic:wsola.obj
 0001:0002e9f0       pjmedia_circ_buf_adv_write_ptr 000000014002f9f0 f   pjmedia-x86_64-x64-vc14-debug-dynamic:wsola.obj
 0001:0002ea40       pjmedia_circ_buf_get_read_regions 000000014002fa40 f   pjmedia-x86_64-x64-vc14-debug-dynamic:wsola.obj
 0001:0002eb10       pjmedia_circ_buf_get_write_regions 000000014002fb10 f   pjmedia-x86_64-x64-vc14-debug-dynamic:wsola.obj
 0001:0002ec40       pjmedia_circ_buf_write     000000014002fc40 f   pjmedia-x86_64-x64-vc14-debug-dynamic:wsola.obj
 0001:0002ed10       pjmedia_circ_buf_copy      000000014002fd10 f   pjmedia-x86_64-x64-vc14-debug-dynamic:wsola.obj
 0001:0002ee20       pjmedia_circ_buf_pack_buffer 000000014002fe20 f   pjmedia-x86_64-x64-vc14-debug-dynamic:wsola.obj
 0001:0002efb0       find_pitch                 000000014002ffb0 f   pjmedia-x86_64-x64-vc14-debug-dynamic:wsola.obj
 0001:0002f290       overlapp_add               0000000140030290 f   pjmedia-x86_64-x64-vc14-debug-dynamic:wsola.obj
 0001:0002f330       overlapp_add_simple        0000000140030330 f   pjmedia-x86_64-x64-vc14-debug-dynamic:wsola.obj
 0001:0002f400       create_win                 0000000140030400 f   pjmedia-x86_64-x64-vc14-debug-dynamic:wsola.obj
 0001:0002f4d0       fade_in                    00000001400304d0 f   pjmedia-x86_64-x64-vc14-debug-dynamic:wsola.obj
 0001:0002f5e0       wsola_fade_out             00000001400305e0 f   pjmedia-x86_64-x64-vc14-debug-dynamic:wsola.obj
 0001:0002f770       expand                     0000000140030770 f   pjmedia-x86_64-x64-vc14-debug-dynamic:wsola.obj
 0001:0002f9e0       compress                   00000001400309e0 f   pjmedia-x86_64-x64-vc14-debug-dynamic:wsola.obj
 0001:000305c0       pj_pool_zalloc             00000001400315c0 f   pjmedia-x86_64-x64-vc14-debug-dynamic:wsola.obj
 0001:000305f0       pj_strset                  00000001400315f0 f   pjmedia-x86_64-x64-vc14-debug-dynamic:transport_srtp.obj
 0001:00030630       pj_bzero                   0000000140031630 f   pjmedia-x86_64-x64-vc14-debug-dynamic:transport_srtp.obj
 0001:00030660       pj_memcpy                  0000000140031660 f   pjmedia-x86_64-x64-vc14-debug-dynamic:transport_srtp.obj
 0001:000306a0       pj_memmove                 00000001400316a0 f   pjmedia-x86_64-x64-vc14-debug-dynamic:transport_srtp.obj
 0001:000306e0       pjmedia_transport_get_info 00000001400316e0 f   pjmedia-x86_64-x64-vc14-debug-dynamic:transport_srtp.obj
 0001:00030740       pjmedia_transport_attach2  0000000140031740 f   pjmedia-x86_64-x64-vc14-debug-dynamic:transport_srtp.obj
 0001:000307f0       pjmedia_transport_detach   00000001400317f0 f   pjmedia-x86_64-x64-vc14-debug-dynamic:transport_srtp.obj
 0001:00030820       pjmedia_transport_send_rtp 0000000140031820 f   pjmedia-x86_64-x64-vc14-debug-dynamic:transport_srtp.obj
 0001:00030860       pjmedia_transport_send_rtcp2 0000000140031860 f   pjmedia-x86_64-x64-vc14-debug-dynamic:transport_srtp.obj
 0001:000308b0       pjmedia_transport_media_create 00000001400318b0 f   pjmedia-x86_64-x64-vc14-debug-dynamic:transport_srtp.obj
 0001:00030900       pjmedia_transport_encode_sdp 0000000140031900 f   pjmedia-x86_64-x64-vc14-debug-dynamic:transport_srtp.obj
 0001:00030950       pjmedia_transport_media_start 0000000140031950 f   pjmedia-x86_64-x64-vc14-debug-dynamic:transport_srtp.obj
 0001:000309a0       pjmedia_transport_media_stop 00000001400319a0 f   pjmedia-x86_64-x64-vc14-debug-dynamic:transport_srtp.obj
 0001:000309d0       pjmedia_transport_close    00000001400319d0 f   pjmedia-x86_64-x64-vc14-debug-dynamic:transport_srtp.obj
 0001:00030a10       pjmedia_transport_simulate_lost 0000000140031a10 f   pjmedia-x86_64-x64-vc14-debug-dynamic:transport_srtp.obj
 0001:000320b0       pj_pool_zalloc             00000001400330b0 f   pjmedia-x86_64-x64-vc14-debug-dynamic:transport_srtp.obj
 0001:000320e0       pj_isdigit                 00000001400330e0 f   pjmedia-x86_64-x64-vc14-debug-dynamic:transport_srtp.obj
 0001:00032100       srtp_rtp_cb                0000000140033100 f   pjmedia-x86_64-x64-vc14-debug-dynamic:transport_srtp.obj
 0001:000325c0       srtp_rtcp_cb               00000001400335c0 f   pjmedia-x86_64-x64-vc14-debug-dynamic:transport_srtp.obj
 0001:00032770       transport_get_info         0000000140033770 f   pjmedia-x86_64-x64-vc14-debug-dynamic:transport_srtp.obj
 0001:000329c0       transport_detach           00000001400339c0 f   pjmedia-x86_64-x64-vc14-debug-dynamic:transport_srtp.obj
 0001:00032ab0       transport_send_rtp         0000000140033ab0 f   pjmedia-x86_64-x64-vc14-debug-dynamic:transport_srtp.obj
 0001:00032bf0       transport_send_rtcp        0000000140033bf0 f   pjmedia-x86_64-x64-vc14-debug-dynamic:transport_srtp.obj
 0001:00032c30       transport_send_rtcp2       0000000140033c30 f   pjmedia-x86_64-x64-vc14-debug-dynamic:transport_srtp.obj
 0001:00032da0       transport_media_create     0000000140033da0 f   pjmedia-x86_64-x64-vc14-debug-dynamic:transport_srtp.obj
 0001:000330c0       transport_encode_sdp       00000001400340c0 f   pjmedia-x86_64-x64-vc14-debug-dynamic:transport_srtp.obj
 0001:00033490       transport_media_start      0000000140034490 f   pjmedia-x86_64-x64-vc14-debug-dynamic:transport_srtp.obj
 0001:000336e0       transport_media_stop       00000001400346e0 f   pjmedia-x86_64-x64-vc14-debug-dynamic:transport_srtp.obj
 0001:000337e0       transport_simulate_lost    00000001400347e0 f   pjmedia-x86_64-x64-vc14-debug-dynamic:transport_srtp.obj
 0001:00033860       transport_destroy          0000000140034860 f   pjmedia-x86_64-x64-vc14-debug-dynamic:transport_srtp.obj
 0001:00033970       transport_attach2          0000000140034970 f   pjmedia-x86_64-x64-vc14-debug-dynamic:transport_srtp.obj
 0001:00033be0       get_crypto_idx             0000000140034be0 f   pjmedia-x86_64-x64-vc14-debug-dynamic:transport_srtp.obj
 0001:00033c60       srtp_crypto_empty          0000000140034c60 f   pjmedia-x86_64-x64-vc14-debug-dynamic:transport_srtp.obj
 0001:00033ca0       srtp_crypto_cmp            0000000140034ca0 f   pjmedia-x86_64-x64-vc14-debug-dynamic:transport_srtp.obj
 0001:00033d30       start_srtp                 0000000140034d30 f   pjmedia-x86_64-x64-vc14-debug-dynamic:transport_srtp.obj
 0001:00033f70       sdes_media_create          0000000140034f70 f   pjmedia-x86_64-x64-vc14-debug-dynamic:transport_srtp.obj
 0001:00034060       sdes_encode_sdp            0000000140035060 f   pjmedia-x86_64-x64-vc14-debug-dynamic:transport_srtp.obj
 0001:00034810       sdes_media_start           0000000140035810 f   pjmedia-x86_64-x64-vc14-debug-dynamic:transport_srtp.obj
 0001:00034c40       sdes_media_stop            0000000140035c40 f   pjmedia-x86_64-x64-vc14-debug-dynamic:transport_srtp.obj
 0001:00034c50       sdes_create                0000000140035c50 f   pjmedia-x86_64-x64-vc14-debug-dynamic:transport_srtp.obj
 0001:00034d30       generate_crypto_attr_value 0000000140035d30 f   pjmedia-x86_64-x64-vc14-debug-dynamic:transport_srtp.obj
 0001:00035160       parse_attr_crypto          0000000140036160 f   pjmedia-x86_64-x64-vc14-debug-dynamic:transport_srtp.obj
 0001:00035580       fill_local_crypto          0000000140036580 f   pjmedia-x86_64-x64-vc14-debug-dynamic:transport_srtp.obj
 0001:00035700       pjmedia_srtp_deinit_lib    0000000140036700 f   pjmedia-x86_64-x64-vc14-debug-dynamic:transport_srtp.obj
 0001:000384d0       pj_isxdigit                00000001400394d0 f   pjlib-util-x86_64-x64-vc14-debug-dynamic:scanner.obj
 0001:000384f0       pj_hex_digit_to_val        00000001400394f0 f   pjlib-util-x86_64-x64-vc14-debug-dynamic:scanner.obj
 0001:00038540       pj_strset                  0000000140039540 f   pjlib-util-x86_64-x64-vc14-debug-dynamic:scanner.obj
 0001:00038580       pj_strset3                 0000000140039580 f   pjlib-util-x86_64-x64-vc14-debug-dynamic:scanner.obj
 0001:000385d0       pj_bzero                   00000001400395d0 f   pjlib-util-x86_64-x64-vc14-debug-dynamic:scanner.obj
 0001:00038600       pj_memmove                 0000000140039600 f   pjlib-util-x86_64-x64-vc14-debug-dynamic:scanner.obj
 0001:00038640       pj_scan_syntax_err         0000000140039640 f   pjlib-util-x86_64-x64-vc14-debug-dynamic:scanner.obj
 0001:00038d10       pj_cis_match               0000000140039d10 f   pjlib-util-x86_64-x64-vc14-debug-dynamic:scanner.obj
 0001:00039310       base256to64                000000014003a310 f   pjlib-util-x86_64-x64-vc14-debug-dynamic:base64.obj
 0001:00039630       base256_char               000000014003a630 f   pjlib-util-x86_64-x64-vc14-debug-dynamic:base64.obj
 0001:0003bf80       pj_strlen                  000000014003cf80 f   pjlib-x86_64-x64-vc14-debug-dynamic:os_core_win32.obj
 0001:0003bfa0       pj_bzero                   000000014003cfa0 f   pjlib-x86_64-x64-vc14-debug-dynamic:os_core_win32.obj
 0001:0003bfd0       init_mutex                 000000014003cfd0 f   pjlib-x86_64-x64-vc14-debug-dynamic:os_core_win32.obj
 0001:0003c0b0       thread_main                000000014003d0b0 f   pjlib-x86_64-x64-vc14-debug-dynamic:os_core_win32.obj
 0001:0003c190       pj_sem_wait_for            000000014003d190 f   pjlib-x86_64-x64-vc14-debug-dynamic:os_core_win32.obj
 0001:0003c2a0       pj_event_wait_for          000000014003d2a0 f   pjlib-x86_64-x64-vc14-debug-dynamic:os_core_win32.obj
 0001:0003c3b0       pj_color_to_os_attr        000000014003d3b0 f   pjlib-x86_64-x64-vc14-debug-dynamic:os_core_win32.obj
 0001:0003c430       os_attr_to_pj_color        000000014003d430 f   pjlib-x86_64-x64-vc14-debug-dynamic:os_core_win32.obj
 0001:0003d8f0       pj_bzero                   000000014003e8f0 f   pjlib-x86_64-x64-vc14-debug-dynamic:errno.obj
 0001:0003d920       pj_memcpy                  000000014003e920 f   pjlib-x86_64-x64-vc14-debug-dynamic:errno.obj
 0001:0003d960       pjlib_error                000000014003e960 f   pjlib-x86_64-x64-vc14-debug-dynamic:errno.obj
 0001:0003da70       invoke_log                 000000014003ea70 f   pjlib-x86_64-x64-vc14-debug-dynamic:errno.obj
 0001:0003dac0       pj_perror_imp              000000014003eac0 f   pjlib-x86_64-x64-vc14-debug-dynamic:errno.obj
 0001:0003e82c       $LN15                      000000014003f82c     pjlib-x86_64-x64-vc14-debug-dynamic:log.obj
 0001:0003e850       $LN14                      000000014003f850     pjlib-x86_64-x64-vc14-debug-dynamic:log.obj
 0001:0003e920       $LN13                      000000014003f920     pjlib-x86_64-x64-vc14-debug-dynamic:log.obj
 0001:0003eb60       pj_memset                  000000014003fb60 f   pjlib-x86_64-x64-vc14-debug-dynamic:log.obj
 0001:0003eb90       logging_shutdown           000000014003fb90 f   pjlib-x86_64-x64-vc14-debug-dynamic:log.obj
 0001:0003ebe0       log_set_indent             000000014003fbe0 f   pjlib-x86_64-x64-vc14-debug-dynamic:log.obj
 0001:0003ec20       log_get_raw_indent         000000014003fc20 f   pjlib-x86_64-x64-vc14-debug-dynamic:log.obj
 0001:0003ec40       log_get_indent             000000014003fc40 f   pjlib-x86_64-x64-vc14-debug-dynamic:log.obj
 0001:0003ec80       suspend_logging            000000014003fc80 f   pjlib-x86_64-x64-vc14-debug-dynamic:log.obj
 0001:0003ecd0       resume_logging             000000014003fcd0 f   pjlib-x86_64-x64-vc14-debug-dynamic:log.obj
 0001:0003ed20       is_logging_suspended       000000014003fd20 f   pjlib-x86_64-x64-vc14-debug-dynamic:log.obj
 0001:0003f430       pj_bzero                   0000000140040430 f   pjlib-x86_64-x64-vc14-debug-dynamic:os_time_win32.obj
 0001:0003f460       get_base_time              0000000140040460 f   pjlib-x86_64-x64-vc14-debug-dynamic:os_time_win32.obj
 0001:0003fe20       pj_bzero                   0000000140040e20 f   pjlib-x86_64-x64-vc14-debug-dynamic:pool.obj
 0001:0003fe50       pj_pool_create_block       0000000140040e50 f   pjlib-x86_64-x64-vc14-debug-dynamic:pool.obj
 0001:0003ff80       reset_pool                 0000000140040f80 f   pjlib-x86_64-x64-vc14-debug-dynamic:pool.obj
 0001:00040330       pj_list_init               0000000140041330 f   pjlib-x86_64-x64-vc14-debug-dynamic:pool.obj
 0001:00040360       pj_list_empty              0000000140041360 f   pjlib-x86_64-x64-vc14-debug-dynamic:pool_caching.obj
 0001:00040660       pj_bzero                   0000000140041660 f   pjlib-x86_64-x64-vc14-debug-dynamic:pool_caching.obj
 0001:00040690       pj_memcpy                  0000000140041690 f   pjlib-x86_64-x64-vc14-debug-dynamic:pool_caching.obj
 0001:000406d0       cpool_create_pool          00000001400416d0 f   pjlib-x86_64-x64-vc14-debug-dynamic:pool_caching.obj
 0001:00040940       cpool_release_pool         0000000140041940 f   pjlib-x86_64-x64-vc14-debug-dynamic:pool_caching.obj
 0001:00040b10       cpool_dump_status          0000000140041b10 f   pjlib-x86_64-x64-vc14-debug-dynamic:pool_caching.obj
 0001:00040d40       cpool_on_block_alloc       0000000140041d40 f   pjlib-x86_64-x64-vc14-debug-dynamic:pool_caching.obj
 0001:00040da0       cpool_on_block_free        0000000140041da0 f   pjlib-x86_64-x64-vc14-debug-dynamic:pool_caching.obj
 0001:00041080       pj_list_init               0000000140042080 f   pjlib-x86_64-x64-vc14-debug-dynamic:pool_caching.obj
 0001:00041120       platform_rand              0000000140042120 f   pjlib-x86_64-x64-vc14-debug-dynamic:rand.obj
 0001:00041160       pj_list_empty              0000000140042160 f   pjlib-x86_64-x64-vc14-debug-dynamic:list.obj
 0001:00041500       pj_link_node               0000000140042500 f   pjlib-x86_64-x64-vc14-debug-dynamic:list.obj
 0001:00041620       pj_list_init               0000000140042620 f   pjlib-x86_64-x64-vc14-debug-dynamic:list.obj
 0001:00043650       pj_memcpy                  0000000140044650 f   pjlib-x86_64-x64-vc14-debug-dynamic:string.obj
 0001:00043690       pj_memcmp                  0000000140044690 f   pjlib-x86_64-x64-vc14-debug-dynamic:string.obj
 0001:000436d0       pj_memchr                  00000001400446d0 f   pjlib-x86_64-x64-vc14-debug-dynamic:string.obj
 0001:00043700       pj_isdigit                 0000000140044700 f   pjlib-x86_64-x64-vc14-debug-dynamic:string.obj
 0001:00043720       pj_isspace                 0000000140044720 f   pjlib-x86_64-x64-vc14-debug-dynamic:string.obj
 0001:00043740       pj_isxdigit                0000000140044740 f   pjlib-x86_64-x64-vc14-debug-dynamic:string.obj
 0001:00043760       pj_val_to_hex_digit        0000000140044760 f   pjlib-x86_64-x64-vc14-debug-dynamic:string.obj
 0001:000437c0       pj_hex_digit_to_val        00000001400447c0 f   pjlib-x86_64-x64-vc14-debug-dynamic:string.obj
 0001:000456b0       pj_bzero                   00000001400466b0 f   pjlib-x86_64-x64-vc14-debug-dynamic:sock_bsd.obj
 0001:000456e0       pj_memcpy                  00000001400466e0 f   pjlib-x86_64-x64-vc14-debug-dynamic:sock_bsd.obj
 0001:00045dc0       pj_memcpy                  0000000140046dc0 f   pjlib-x86_64-x64-vc14-debug-dynamic:os_error_win32.obj
 0001:00046340       pj_memmove                 0000000140047340 f   pjlib-x86_64-x64-vc14-debug-dynamic:array.obj
 0001:00048070       pj_isdigit                 0000000140049070 f   pjlib-x86_64-x64-vc14-debug-dynamic:sock_common.obj
 0001:00048090       pj_strchr                  0000000140049090 f   pjlib-x86_64-x64-vc14-debug-dynamic:sock_common.obj
 0001:000480e0       pj_bzero                   00000001400490e0 f   pjlib-x86_64-x64-vc14-debug-dynamic:sock_common.obj
 0001:00048110       pj_memcpy                  0000000140049110 f   pjlib-x86_64-x64-vc14-debug-dynamic:sock_common.obj
 0001:00048150       pj_memcmp                  0000000140049150 f   pjlib-x86_64-x64-vc14-debug-dynamic:sock_common.obj
 0001:0004bd50       pj_list_empty              000000014004cd50 f   pjlib-x86_64-x64-vc14-debug-dynamic:ioqueue_select.obj
 0001:0004bd90       pj_list_push_back          000000014004cd90 f   pjlib-x86_64-x64-vc14-debug-dynamic:ioqueue_select.obj
 0001:0004bdc0       pj_bzero                   000000014004cdc0 f   pjlib-x86_64-x64-vc14-debug-dynamic:ioqueue_select.obj
 0001:0004bdf0       pj_memcpy                  000000014004cdf0 f   pjlib-x86_64-x64-vc14-debug-dynamic:ioqueue_select.obj
 0001:0004be30       ioqueue_add_to_set         000000014004ce30 f   pjlib-x86_64-x64-vc14-debug-dynamic:ioqueue_select.obj
 0001:0004bf00       ioqueue_remove_from_set    000000014004cf00 f   pjlib-x86_64-x64-vc14-debug-dynamic:ioqueue_select.obj
 0001:0004bfd0       ioqueue_init               000000014004cfd0 f   pjlib-x86_64-x64-vc14-debug-dynamic:ioqueue_select.obj
 0001:0004c000       ioqueue_destroy            000000014004d000 f   pjlib-x86_64-x64-vc14-debug-dynamic:ioqueue_select.obj
 0001:0004c050       ioqueue_init_key           000000014004d050 f   pjlib-x86_64-x64-vc14-debug-dynamic:ioqueue_select.obj
 0001:0004c1f0       key_has_pending_write      000000014004d1f0 f   pjlib-x86_64-x64-vc14-debug-dynamic:ioqueue_select.obj
 0001:0004c240       key_has_pending_read       000000014004d240 f   pjlib-x86_64-x64-vc14-debug-dynamic:ioqueue_select.obj
 0001:0004c280       key_has_pending_accept     000000014004d280 f   pjlib-x86_64-x64-vc14-debug-dynamic:ioqueue_select.obj
 0001:0004c2d0       key_has_pending_connect    000000014004d2d0 f   pjlib-x86_64-x64-vc14-debug-dynamic:ioqueue_select.obj
 0001:0004cd00       scan_closing_keys          000000014004dd00 f   pjlib-x86_64-x64-vc14-debug-dynamic:ioqueue_select.obj
 0001:0004ce10       rescan_fdset               000000014004de10 f   pjlib-x86_64-x64-vc14-debug-dynamic:ioqueue_select.obj
 0001:0004ce30       increment_counter          000000014004de30 f   pjlib-x86_64-x64-vc14-debug-dynamic:ioqueue_select.obj
 0001:0004ce90       decrement_counter          000000014004de90 f   pjlib-x86_64-x64-vc14-debug-dynamic:ioqueue_select.obj
 0001:0004dcf0       pj_list_init               000000014004ecf0 f   pjlib-x86_64-x64-vc14-debug-dynamic:ioqueue_select.obj
 0001:0004e290       pj_bzero                   000000014004f290 f   pjlib-x86_64-x64-vc14-debug-dynamic:file_access_win32.obj
 0001:0004e2c0       get_file_size              000000014004f2c0 f   pjlib-x86_64-x64-vc14-debug-dynamic:file_access_win32.obj
 0001:0004e380       create_file                000000014004f380 f   pjlib-x86_64-x64-vc14-debug-dynamic:file_access_win32.obj
 0001:0004e3e0       file_time_to_time_val      000000014004f3e0 f   pjlib-x86_64-x64-vc14-debug-dynamic:file_access_win32.obj
 0001:0004ed50       set_file_pointer           000000014004fd50 f   pjlib-x86_64-x64-vc14-debug-dynamic:file_io_win32.obj
 0001:0004f310       exception_cleanup          0000000140050310 f   pjlib-x86_64-x64-vc14-debug-dynamic:except.obj
 0001:00050030       pj_list_push_back          0000000140051030 f   pjlib-x86_64-x64-vc14-debug-dynamic:lock.obj
 0001:00050060       pj_pool_zalloc             0000000140051060 f   pjlib-x86_64-x64-vc14-debug-dynamic:lock.obj
 0001:00050090       pj_bzero                   0000000140051090 f   pjlib-x86_64-x64-vc14-debug-dynamic:lock.obj
 0001:000500c0       pj_memcpy                  00000001400510c0 f   pjlib-x86_64-x64-vc14-debug-dynamic:lock.obj
 0001:00050100       create_mutex_lock          0000000140051100 f   pjlib-x86_64-x64-vc14-debug-dynamic:lock.obj
 0001:000501f0       null_op                    00000001400511f0 f   pjlib-x86_64-x64-vc14-debug-dynamic:lock.obj
 0001:00050200       grp_lock_set_owner_thread  0000000140051200 f   pjlib-x86_64-x64-vc14-debug-dynamic:lock.obj
 0001:00050280       grp_lock_unset_owner_thread 0000000140051280 f   pjlib-x86_64-x64-vc14-debug-dynamic:lock.obj
 0001:00050330       grp_lock_acquire           0000000140051330 f   pjlib-x86_64-x64-vc14-debug-dynamic:lock.obj
 0001:000503d0       grp_lock_tryacquire        00000001400513d0 f   pjlib-x86_64-x64-vc14-debug-dynamic:lock.obj
 0001:000504c0       grp_lock_release           00000001400514c0 f   pjlib-x86_64-x64-vc14-debug-dynamic:lock.obj
 0001:00050530       grp_lock_add_handler       0000000140051530 f   pjlib-x86_64-x64-vc14-debug-dynamic:lock.obj
 0001:000505e0       grp_lock_destroy           00000001400515e0 f   pjlib-x86_64-x64-vc14-debug-dynamic:lock.obj
 0001:00050720       grp_lock_add_ref           0000000140051720 f   pjlib-x86_64-x64-vc14-debug-dynamic:lock.obj
 0001:00050750       grp_lock_dec_ref           0000000140051750 f   pjlib-x86_64-x64-vc14-debug-dynamic:lock.obj
 0001:00050c40       pj_list_init               0000000140051c40 f   pjlib-x86_64-x64-vc14-debug-dynamic:lock.obj
 0001:00050ce0       hex2digit                  0000000140051ce0 f   pjlib-x86_64-x64-vc14-debug-dynamic:guid_win32.obj
 0001:00050d50       guid_to_str                0000000140051d50 f   pjlib-x86_64-x64-vc14-debug-dynamic:guid_win32.obj
 0001:000515e0       term_set_color             00000001400525e0 f   pjlib-x86_64-x64-vc14-debug-dynamic:log_writer_stdout.obj
 0001:00051610       term_restore_color         0000000140052610 f   pjlib-x86_64-x64-vc14-debug-dynamic:log_writer_stdout.obj
 0001:00051790       stack_alloc                0000000140052790 f   pjlib-x86_64-x64-vc14-debug-dynamic:pool_buf.obj
 0001:00051840       pool_buf_cleanup           0000000140052840 f   pjlib-x86_64-x64-vc14-debug-dynamic:pool_buf.obj
 0001:00051880       pool_buf_initialize        0000000140052880 f   pjlib-x86_64-x64-vc14-debug-dynamic:pool_buf.obj
 0001:00051960       default_block_alloc        0000000140052960 f   pjlib-x86_64-x64-vc14-debug-dynamic:pool_policy_malloc.obj
 0001:00051a00       default_block_free         0000000140052a00 f   pjlib-x86_64-x64-vc14-debug-dynamic:pool_policy_malloc.obj
 0001:00051a60       default_pool_callback      0000000140052a60 f   pjlib-x86_64-x64-vc14-debug-dynamic:pool_policy_malloc.obj
 0001:00051ae0       pj_bzero                   0000000140052ae0 f   pjlib-x86_64-x64-vc14-debug-dynamic:ip_helper_win32.obj
 0001:00051b10       pj_memcpy                  0000000140052b10 f   pjlib-x86_64-x64-vc14-debug-dynamic:ip_helper_win32.obj
 0001:00051b50       pj_enum_ip_option_default  0000000140052b50 f   pjlib-x86_64-x64-vc14-debug-dynamic:ip_helper_win32.obj
 0001:00052040       unload_iphlp_module        0000000140053040 f   pjlib-x86_64-x64-vc14-debug-dynamic:ip_helper_win32.obj
 0001:000520a0       GetIpHlpApiProc            00000001400530a0 f   pjlib-x86_64-x64-vc14-debug-dynamic:ip_helper_win32.obj
 0001:00052110       MyGetIpAddrTable           0000000140053110 f   pjlib-x86_64-x64-vc14-debug-dynamic:ip_helper_win32.obj
 0001:00052180       MyGetAdapterAddresses      0000000140053180 f   pjlib-x86_64-x64-vc14-debug-dynamic:ip_helper_win32.obj
 0001:00052200       MyGetIfEntry               0000000140053200 f   pjlib-x86_64-x64-vc14-debug-dynamic:ip_helper_win32.obj
 0001:00052250       MyGetIpForwardTable        0000000140053250 f   pjlib-x86_64-x64-vc14-debug-dynamic:ip_helper_win32.obj
 0001:000522c0       enum_ipv4_interface        00000001400532c0 f   pjlib-x86_64-x64-vc14-debug-dynamic:ip_helper_win32.obj
 0001:000525e0       enum_ipv4_ipv6_interface   00000001400535e0 f   pjlib-x86_64-x64-vc14-debug-dynamic:ip_helper_win32.obj
 0001:00053030       pj_bzero                   0000000140054030 f   pjlib-x86_64-x64-vc14-debug-dynamic:addr_resolv_sock.obj
 0001:00053060       pj_memcpy                  0000000140054060 f   pjlib-x86_64-x64-vc14-debug-dynamic:addr_resolv_sock.obj
 0001:00053450       get_elapsed                0000000140054450 f   pjlib-x86_64-x64-vc14-debug-dynamic:os_timestamp_common.obj
 0001:00053480       elapsed_msec               0000000140054480 f   pjlib-x86_64-x64-vc14-debug-dynamic:os_timestamp_common.obj
 0001:00053520       elapsed_usec               0000000140054520 f   pjlib-x86_64-x64-vc14-debug-dynamic:os_timestamp_common.obj
 0001:000536c0       pj_set_timestamp32         00000001400546c0 f   pjlib-x86_64-x64-vc14-debug-dynamic:os_timestamp_common.obj
 0001:000566c0       Postprocessing             00000001400576c0 f   libgsmcodec-x86_64-x64-vc14-debug-dynamic:decode.obj
 0001:00056ca0       Calculation_of_the_LTP_parameters 0000000140057ca0 f   libgsmcodec-x86_64-x64-vc14-debug-dynamic:long_term.obj
 0001:00057a50       Long_term_analysis_filtering 0000000140058a50 f   libgsmcodec-x86_64-x64-vc14-debug-dynamic:long_term.obj
 0001:00058510       Autocorrelation            0000000140059510 f   libgsmcodec-x86_64-x64-vc14-debug-dynamic:lpc.obj
 0001:00059790       Reflection_coefficients    000000014005a790 f   libgsmcodec-x86_64-x64-vc14-debug-dynamic:lpc.obj
 0001:00059e40       Transformation_to_Log_Area_Ratios 000000014005ae40 f   libgsmcodec-x86_64-x64-vc14-debug-dynamic:lpc.obj
 0001:0005a010       Quantization_and_coding    000000014005b010 f   libgsmcodec-x86_64-x64-vc14-debug-dynamic:lpc.obj
 0001:0005c0e0       Decoding_of_the_coded_Log_Area_Ratios 000000014005d0e0 f   libgsmcodec-x86_64-x64-vc14-debug-dynamic:short_term.obj
 0001:0005cdf0       Coefficients_0_12          000000014005ddf0 f   libgsmcodec-x86_64-x64-vc14-debug-dynamic:short_term.obj
 0001:0005cfa0       Coefficients_13_26         000000014005dfa0 f   libgsmcodec-x86_64-x64-vc14-debug-dynamic:short_term.obj
 0001:0005d0c0       Coefficients_27_39         000000014005e0c0 f   libgsmcodec-x86_64-x64-vc14-debug-dynamic:short_term.obj
 0001:0005d270       Coefficients_40_159        000000014005e270 f   libgsmcodec-x86_64-x64-vc14-debug-dynamic:short_term.obj
 0001:0005d2d0       LARp_to_rp                 000000014005e2d0 f   libgsmcodec-x86_64-x64-vc14-debug-dynamic:short_term.obj
 0001:0005d4a0       Short_term_analysis_filtering 000000014005e4a0 f   libgsmcodec-x86_64-x64-vc14-debug-dynamic:short_term.obj
 0001:0005d6e0       Short_term_synthesis_filtering 000000014005e6e0 f   libgsmcodec-x86_64-x64-vc14-debug-dynamic:short_term.obj
 0001:0005e190       Weighting_filter           000000014005f190 f   libgsmcodec-x86_64-x64-vc14-debug-dynamic:rpe.obj
 0001:0005e350       RPE_grid_selection         000000014005f350 f   libgsmcodec-x86_64-x64-vc14-debug-dynamic:rpe.obj
 0001:0005f700       APCM_quantization_xmaxc_to_exp_mant 0000000140060700 f   libgsmcodec-x86_64-x64-vc14-debug-dynamic:rpe.obj
 0001:0005f850       APCM_quantization          0000000140060850 f   libgsmcodec-x86_64-x64-vc14-debug-dynamic:rpe.obj
 0001:0005fca0       APCM_inverse_quantization  0000000140060ca0 f   libgsmcodec-x86_64-x64-vc14-debug-dynamic:rpe.obj
 0001:0005fee0       RPE_grid_positioning       0000000140060ee0 f   libgsmcodec-x86_64-x64-vc14-debug-dynamic:rpe.obj
 0001:00072220       speex_alloc                0000000140073220 f   libspeex-x86_64-x64-vc14-debug-dynamic:bits.obj
 0001:00072250       speex_realloc              0000000140073250 f   libspeex-x86_64-x64-vc14-debug-dynamic:bits.obj
 0001:00072280       speex_free                 0000000140073280 f   libspeex-x86_64-x64-vc14-debug-dynamic:bits.obj
 0001:000722a0       speex_notify               00000001400732a0 f   libspeex-x86_64-x64-vc14-debug-dynamic:bits.obj
 0001:000722e0       speex_bits_flush           00000001400732e0 f   libspeex-x86_64-x64-vc14-debug-dynamic:bits.obj
 0001:00074820       compute_pitch_error        0000000140075820 f   libspeex-x86_64-x64-vc14-debug-dynamic:ltp.obj
 0001:00074b00       pitch_gain_search_3tap_vq  0000000140075b00 f   libspeex-x86_64-x64-vc14-debug-dynamic:ltp.obj
 0001:00074cb0       pitch_gain_search_3tap     0000000140075cb0 f   libspeex-x86_64-x64-vc14-debug-dynamic:ltp.obj
 0001:00077320       compute_quant_weights      0000000140078320 f   libspeex-x86_64-x64-vc14-debug-dynamic:quant_lsp.obj
 0001:00077450       lsp_quant                  0000000140078450 f   libspeex-x86_64-x64-vc14-debug-dynamic:quant_lsp.obj
 0001:000775b0       lsp_weight_quant           00000001400785b0 f   libspeex-x86_64-x64-vc14-debug-dynamic:quant_lsp.obj
 0001:00079010       compute_weighted_codebook  000000014007a010 f   libspeex-x86_64-x64-vc14-debug-dynamic:cb_search.obj
 0001:000791e0       target_update              000000014007a1e0 f   libspeex-x86_64-x64-vc14-debug-dynamic:cb_search.obj
 0001:00079260       split_cb_search_shape_sign_N1 000000014007a260 f   libspeex-x86_64-x64-vc14-debug-dynamic:cb_search.obj
 0001:0007a030       speex_rand                 000000014007b030 f   libspeex-x86_64-x64-vc14-debug-dynamic:cb_search.obj
 0001:0007faf0       $LN83                      0000000140080af0     libspeex-x86_64-x64-vc14-debug-dynamic:nb_celp.obj
 0001:0007fb8c       $LN82                      0000000140080b8c     libspeex-x86_64-x64-vc14-debug-dynamic:nb_celp.obj
 0001:00080150       $LN52                      0000000140081150     libspeex-x86_64-x64-vc14-debug-dynamic:nb_celp.obj
 0001:000801b8       $LN51                      00000001400811b8     libspeex-x86_64-x64-vc14-debug-dynamic:nb_celp.obj
 0001:00080230       speex_alloc                0000000140081230 f   libspeex-x86_64-x64-vc14-debug-dynamic:nb_celp.obj
 0001:00080260       speex_free                 0000000140081260 f   libspeex-x86_64-x64-vc14-debug-dynamic:nb_celp.obj
 0001:00080280       _speex_fatal               0000000140081280 f   libspeex-x86_64-x64-vc14-debug-dynamic:nb_celp.obj
 0001:000802e0       speex_notify               00000001400812e0 f   libspeex-x86_64-x64-vc14-debug-dynamic:nb_celp.obj
 0001:00080320       nb_decode_lost             0000000140081320 f   libspeex-x86_64-x64-vc14-debug-dynamic:nb_celp.obj
 0001:000823d0       speex_rand                 00000001400833d0 f   libspeex-x86_64-x64-vc14-debug-dynamic:nb_celp.obj
 0001:00087344       $LN90                      0000000140088344     libspeex-x86_64-x64-vc14-debug-dynamic:sb_celp.obj
 0001:000873e0       $LN89                      00000001400883e0     libspeex-x86_64-x64-vc14-debug-dynamic:sb_celp.obj
 0001:0008798c       $LN53                      000000014008898c     libspeex-x86_64-x64-vc14-debug-dynamic:sb_celp.obj
 0001:000879f8       $LN52                      00000001400889f8     libspeex-x86_64-x64-vc14-debug-dynamic:sb_celp.obj
 0001:00087a70       speex_alloc                0000000140088a70 f   libspeex-x86_64-x64-vc14-debug-dynamic:sb_celp.obj
 0001:00087aa0       speex_free                 0000000140088aa0 f   libspeex-x86_64-x64-vc14-debug-dynamic:sb_celp.obj
 0001:00087ac0       speex_notify               0000000140088ac0 f   libspeex-x86_64-x64-vc14-debug-dynamic:sb_celp.obj
 0001:00087b00       sb_decode_lost             0000000140088b00 f   libspeex-x86_64-x64-vc14-debug-dynamic:sb_celp.obj
 0001:00088f00       speex_rand                 0000000140089f00 f   libspeex-x86_64-x64-vc14-debug-dynamic:sb_celp.obj
 0001:0008c410       _speex_putc                000000014008d410 f   libspeex-x86_64-x64-vc14-debug-dynamic:speex_callbacks.obj
 0001:0008d560       cheb_poly_eva              000000014008e560 f   libspeex-x86_64-x64-vc14-debug-dynamic:lsp.obj
 0001:0008d980       spx_cos                    000000014008e980 f   libspeex-x86_64-x64-vc14-debug-dynamic:lsp.obj
 0001:0008fa98       $LN12                      0000000140090a98     libsrtp-x86_64-x64-vc14-debug-dynamic:srtp.obj
 0001:0008fb28       $LN12                      0000000140090b28     libsrtp-x86_64-x64-vc14-debug-dynamic:srtp.obj
 0001:000910b0       be64_to_cpu                00000001400920b0 f   libsrtp-x86_64-x64-vc14-debug-dynamic:srtp.obj
 0001:00091ef0       srtp_validate_rtp_header   0000000140092ef0 f   libsrtp-x86_64-x64-vc14-debug-dynamic:srtp.obj
 0001:00091fe0       srtp_stream_free           0000000140092fe0 f   libsrtp-x86_64-x64-vc14-debug-dynamic:srtp.obj
 0001:00092cc0       srtp_kdf_init              0000000140093cc0 f   libsrtp-x86_64-x64-vc14-debug-dynamic:srtp.obj
 0001:00092d80       srtp_kdf_generate          0000000140093d80 f   libsrtp-x86_64-x64-vc14-debug-dynamic:srtp.obj
 0001:00092e80       srtp_kdf_clear             0000000140093e80 f   libsrtp-x86_64-x64-vc14-debug-dynamic:srtp.obj
 0001:00092ec0       base_key_length            0000000140093ec0 f   libsrtp-x86_64-x64-vc14-debug-dynamic:srtp.obj
 0001:00093240       srtp_protect_extension_header 0000000140094240 f   libsrtp-x86_64-x64-vc14-debug-dynamic:srtp.obj
 0001:000932c0       srtp_process_header_encryption 00000001400942c0 f   libsrtp-x86_64-x64-vc14-debug-dynamic:srtp.obj
 0001:00093630       srtp_calc_aead_iv          0000000140094630 f   libsrtp-x86_64-x64-vc14-debug-dynamic:srtp.obj
 0001:00093a10       srtp_estimate_index        0000000140094a10 f   libsrtp-x86_64-x64-vc14-debug-dynamic:srtp.obj
 0001:00093ae0       srtp_get_est_pkt_index     0000000140094ae0 f   libsrtp-x86_64-x64-vc14-debug-dynamic:srtp.obj
 0001:00093bb0       srtp_protect_aead          0000000140094bb0 f   libsrtp-x86_64-x64-vc14-debug-dynamic:srtp.obj
 0001:000940d0       srtp_unprotect_aead        00000001400950d0 f   libsrtp-x86_64-x64-vc14-debug-dynamic:srtp.obj
 0001:00094600       update_template_streams    0000000140095600 f   libsrtp-x86_64-x64-vc14-debug-dynamic:srtp.obj
 0001:000948e0       update_stream              00000001400958e0 f   libsrtp-x86_64-x64-vc14-debug-dynamic:srtp.obj
 0001:00094a30       srtp_calc_aead_iv_srtcp    0000000140095a30 f   libsrtp-x86_64-x64-vc14-debug-dynamic:srtp.obj
 0001:00094c40       srtp_protect_rtcp_aead     0000000140095c40 f   libsrtp-x86_64-x64-vc14-debug-dynamic:srtp.obj
 0001:00095040       srtp_unprotect_rtcp_aead   0000000140096040 f   libsrtp-x86_64-x64-vc14-debug-dynamic:srtp.obj
 0001:0009a5d0       srtp_cipher_rand           000000014009b5d0 f   libsrtp-x86_64-x64-vc14-debug-dynamic:cipher.obj
 0001:0009b990       srtp_crypto_kernel_do_load_cipher_type 000000014009c990 f   libsrtp-x86_64-x64-vc14-debug-dynamic:crypto_kernel.obj
 0001:0009c3c0       srtcp_packet_get_ekt_spi   000000014009d3c0 f   libsrtp-x86_64-x64-vc14-debug-dynamic:ekt.obj
 0001:0009c400       srtcp_packet_get_ekt_roc   000000014009d400 f   libsrtp-x86_64-x64-vc14-debug-dynamic:ekt.obj
 0001:0009c440       srtcp_packet_get_emk_location 000000014009d440 f   libsrtp-x86_64-x64-vc14-debug-dynamic:ekt.obj
 0001:0009cf60       srtp_null_cipher_alloc     000000014009df60 f   libsrtp-x86_64-x64-vc14-debug-dynamic:null_cipher.obj
 0001:0009d020       srtp_null_cipher_dealloc   000000014009e020 f   libsrtp-x86_64-x64-vc14-debug-dynamic:null_cipher.obj
 0001:0009d050       srtp_null_cipher_init      000000014009e050 f   libsrtp-x86_64-x64-vc14-debug-dynamic:null_cipher.obj
 0001:0009d090       srtp_null_cipher_set_iv    000000014009e090 f   libsrtp-x86_64-x64-vc14-debug-dynamic:null_cipher.obj
 0001:0009d0b0       srtp_null_cipher_encrypt   000000014009e0b0 f   libsrtp-x86_64-x64-vc14-debug-dynamic:null_cipher.obj
 0001:0009d120       srtp_aes_icm_alloc         000000014009e120 f   libsrtp-x86_64-x64-vc14-debug-dynamic:aes_icm.obj
 0001:0009d280       srtp_aes_icm_dealloc       000000014009e280 f   libsrtp-x86_64-x64-vc14-debug-dynamic:aes_icm.obj
 0001:0009d2e0       srtp_aes_icm_context_init  000000014009e2e0 f   libsrtp-x86_64-x64-vc14-debug-dynamic:aes_icm.obj
 0001:0009d5d0       srtp_aes_icm_set_iv        000000014009e5d0 f   libsrtp-x86_64-x64-vc14-debug-dynamic:aes_icm.obj
 0001:0009d760       srtp_aes_icm_advance       000000014009e760 f   libsrtp-x86_64-x64-vc14-debug-dynamic:aes_icm.obj
 0001:0009d8f0       srtp_aes_icm_encrypt       000000014009e8f0 f   libsrtp-x86_64-x64-vc14-debug-dynamic:aes_icm.obj
 0001:0009e380       srtp_null_auth_alloc       000000014009f380 f   libsrtp-x86_64-x64-vc14-debug-dynamic:null_auth.obj
 0001:0009e470       srtp_null_auth_dealloc     000000014009f470 f   libsrtp-x86_64-x64-vc14-debug-dynamic:null_auth.obj
 0001:0009e4a0       srtp_null_auth_init        000000014009f4a0 f   libsrtp-x86_64-x64-vc14-debug-dynamic:null_auth.obj
 0001:0009e4c0       srtp_null_auth_compute     000000014009f4c0 f   libsrtp-x86_64-x64-vc14-debug-dynamic:null_auth.obj
 0001:0009e4e0       srtp_null_auth_update      000000014009f4e0 f   libsrtp-x86_64-x64-vc14-debug-dynamic:null_auth.obj
 0001:0009e500       srtp_null_auth_start       000000014009f500 f   libsrtp-x86_64-x64-vc14-debug-dynamic:null_auth.obj
 0001:0009e570       srtp_hmac_alloc            000000014009f570 f   libsrtp-x86_64-x64-vc14-debug-dynamic:hmac.obj
 0001:0009e680       srtp_hmac_dealloc          000000014009f680 f   libsrtp-x86_64-x64-vc14-debug-dynamic:hmac.obj
 0001:0009e6b0       srtp_hmac_init             000000014009f6b0 f   libsrtp-x86_64-x64-vc14-debug-dynamic:hmac.obj
 0001:0009e830       srtp_hmac_start            000000014009f830 f   libsrtp-x86_64-x64-vc14-debug-dynamic:hmac.obj
 0001:0009e880       srtp_hmac_update           000000014009f880 f   libsrtp-x86_64-x64-vc14-debug-dynamic:hmac.obj
 0001:0009e900       srtp_hmac_compute          000000014009f900 f   libsrtp-x86_64-x64-vc14-debug-dynamic:hmac.obj
 0001:0009faf0       aes_128_expand_encryption_key 00000001400a0af0 f   libsrtp-x86_64-x64-vc14-debug-dynamic:aes.obj
 0001:0009fe80       aes_256_expand_encryption_key 00000001400a0e80 f   libsrtp-x86_64-x64-vc14-debug-dynamic:aes.obj
 0001:000a0390       aes_round                  00000001400a1390 f   libsrtp-x86_64-x64-vc14-debug-dynamic:aes.obj
 0001:000a0630       aes_inv_round              00000001400a1630 f   libsrtp-x86_64-x64-vc14-debug-dynamic:aes.obj
 0001:000a08d0       aes_final_round            00000001400a18d0 f   libsrtp-x86_64-x64-vc14-debug-dynamic:aes.obj
 0001:000a0c70       aes_inv_final_round        00000001400a1c70 f   libsrtp-x86_64-x64-vc14-debug-dynamic:aes.obj
 0001:000a3d10       $$000000                   00000001400a4d10     MSVCRTD:chkstk.obj
 0001:000a3d90       $$000000                   00000001400a4d90     MSVCRTD:amdsecgs.obj
 0001:000a3dd0       ?pre_c_initialization@@YAHXZ 00000001400a4dd0 f   MSVCRTD:exe_main.obj
 0001:000a3eb0       ?post_pgo_initialization@@YAHXZ 00000001400a4eb0 f   MSVCRTD:exe_main.obj
 0001:000a3ed0       ?pre_cpp_initialization@@YAXXZ 00000001400a4ed0 f   MSVCRTD:exe_main.obj
 0001:000a3ef0       ?__scrt_common_main@@YAHXZ 00000001400a4ef0 f   MSVCRTD:exe_main.obj
 0001:000a3f10       ?__scrt_common_main_seh@@YAHXZ 00000001400a4f10 f   MSVCRTD:exe_main.obj
 0001:000a4160       ?invoke_main@@YAHXZ        00000001400a5160 f   MSVCRTD:exe_main.obj
 0001:000a45f0       capture_current_context    00000001400a55f0 f   MSVCRTD:gs_report.obj
 0001:000a46b0       capture_previous_context   00000001400a56b0 f   MSVCRTD:gs_report.obj
 0001:000a4790       ?find_pe_section@@YAPEAU_IMAGE_SECTION_HEADER@@QEAE_K@Z 00000001400a5790 f   MSVCRTD:utility.obj
 0001:000a4890       ?is_potentially_valid_image_base@@YA_NQEAX@Z 00000001400a5890 f   MSVCRTD:utility.obj
 0001:000a4fb0       __get_entropy              00000001400a5fb0 f   MSVCRTD:gs_support.obj
 0001:000a5930       __castguard_compat_check   00000001400a6930 f   MSVCRTD:guard_support.obj
 0001:000a5b10       __castguard_slow_path_compat_check 00000001400a6b10 f   MSVCRTD:guard_support.obj
 0001:000a60b0       compute_equiv_rate         00000001400a70b0 f   opus:opus_encoder.obj
 0001:000a61e0       compute_redundancy_bytes   00000001400a71e0 f   opus:opus_encoder.obj
 0001:000a62b0       compute_silk_rate_for_hybrid 00000001400a72b0 f   opus:opus_encoder.obj
 0001:000a6800       dc_reject                  00000001400a7800 f   opus:opus_encoder.obj
 0001:000a7610       encode_multiframe_packet   00000001400a8610 f   opus:opus_encoder.obj
 0001:000a7a70       gain_fade                  00000001400a8a70 f   opus:opus_encoder.obj
 0001:000a8110       gen_toc                    00000001400a9110 f   opus:opus_encoder.obj
 0001:000abea0       $LN140                     00000001400acea0     opus:opus_encoder.obj
 0001:000ac590       silk_biquad_float          00000001400ad590 f   opus:opus_encoder.obj
 0001:000aca30       stereo_fade                00000001400ada30 f   opus:opus_encoder.obj
 0001:000ad100       user_bitrate_to_bitrate    00000001400ae100 f   opus:opus_encoder.obj
 0001:000ad3f0       opus_decode_frame          00000001400ae3f0 f   opus:opus_decoder.obj
 0001:000aec0c       $LN30                      00000001400afc0c     opus:opus_decoder.obj
 0001:000aec38       $LN29                      00000001400afc38     opus:opus_decoder.obj
 0001:000af140       smooth_fade                00000001400b0140 f   opus:opus_decoder.obj
 0001:000afea0       opus_repacketizer_cat_impl 00000001400b0ea0 f   opus:repacketizer.obj
 0001:000b0520       alloc_trim_analysis        00000001400b1520 f   opus:celt_encoder.obj
 0001:000b4760       celt_maxabs16              00000001400b5760 f   opus:celt_encoder.obj
 0001:000b4ee0       compute_mdcts              00000001400b5ee0 f   opus:celt_encoder.obj
 0001:000b52d0       compute_vbr                00000001400b62d0 f   opus:celt_encoder.obj
 0001:000b5650       dynalloc_analysis          00000001400b6650 f   opus:celt_encoder.obj
 0001:000b7cf0       l1_metric                  00000001400b8cf0 f   opus:celt_encoder.obj
 0001:000b81dc       $LN63                      00000001400b91dc     opus:celt_encoder.obj
 0001:000b820c       $LN62                      00000001400b920c     opus:celt_encoder.obj
 0001:000b823c       $LN61                      00000001400b923c     opus:celt_encoder.obj
 0001:000b83a0       patch_transient_decision   00000001400b93a0 f   opus:celt_encoder.obj
 0001:000b8ae0       run_prefilter              00000001400b9ae0 f   opus:celt_encoder.obj
 0001:000b9290       stereo_analysis            00000001400ba290 f   opus:celt_encoder.obj
 0001:000b95b0       tf_analysis                00000001400ba5b0 f   opus:celt_encoder.obj
 0001:000b9e30       tf_encode                  00000001400bae30 f   opus:celt_encoder.obj
 0001:000ba010       transient_analysis         00000001400bb010 f   opus:celt_encoder.obj
 0001:000badf0       ec_enc_normalize           00000001400bbdf0 f   opus:entenc.obj
 0001:000bcff0       downmix_and_resample       00000001400bdff0 f   opus:analysis.obj
 0001:000bd650       silk_resampler_down2_hp    00000001400be650 f   opus:analysis.obj
 0001:000bda80       tonality_analysis          00000001400bea80 f   opus:analysis.obj
 0001:000c1ed0       celt_decode_lost           00000001400c2ed0 f   opus:celt_decoder.obj
 0001:000c4fb0       celt_plc_pitch_search      00000001400c5fb0 f   opus:celt_decoder.obj
 0001:000c5070       celt_synthesis             00000001400c6070 f   opus:celt_decoder.obj
 0001:000c57e0       deemphasis                 00000001400c67e0 f   opus:celt_decoder.obj
 0001:000c5df0       deemphasis_stereo_simple   00000001400c6df0 f   opus:celt_decoder.obj
 0001:000c630c       $LN42                      00000001400c730c     opus:celt_decoder.obj
 0001:000c65e0       ec_dec_normalize           00000001400c75e0 f   opus:entdec.obj
 0001:000c7a90       parse_size                 00000001400c8a90 f   opus:opus.obj
 0001:000cadb0       celt_fir5                  00000001400cbdb0 f   opus:pitch.obj
 0001:000cb230       find_best_pitch            00000001400cc230 f   opus:pitch.obj
 0001:000cd060       interp_bits2pulses         00000001400ce060 f   opus:rate.obj
 0001:000ce500       compute_theta              00000001400cf500 f   opus:bands.obj
 0001:000ceff0       deinterleave_hadamard      00000001400cfff0 f   opus:bands.obj
 0001:000cf9e0       intensity_stereo           00000001400d09e0 f   opus:bands.obj
 0001:000cfc60       interleave_hadamard        00000001400d0c60 f   opus:bands.obj
 0001:000d16a0       quant_band                 00000001400d26a0 f   opus:bands.obj
 0001:000d1cc0       quant_band_n1              00000001400d2cc0 f   opus:bands.obj
 0001:000d1e10       quant_band_stereo          00000001400d2e10 f   opus:bands.obj
 0001:000d25d0       quant_partition            00000001400d35d0 f   opus:bands.obj
 0001:000d2f90       special_hybrid_folding     00000001400d3f90 f   opus:bands.obj
 0001:000d3580       stereo_merge               00000001400d4580 f   opus:bands.obj
 0001:000d3910       stereo_split               00000001400d4910 f   opus:bands.obj
 0001:000d4510       quant_coarse_energy_impl   00000001400d5510 f   opus:quant_bands.obj
 0001:000d5b30       silk_DIV32_varQ            00000001400d6b30 f   opus:stereo_LR_to_MS.obj
 0001:000d7760       silk_LBRR_encode_FLP       00000001400d8760 f   opus:encode_frame_FLP.obj
 0001:000d8c30       silk_setup_complexity      00000001400d9c30 f   opus:control_codec.obj
 0001:000d8ef0       silk_setup_fs              00000001400d9ef0 f   opus:control_codec.obj
 0001:000d9240       silk_setup_resamplers      00000001400da240 f   opus:control_codec.obj
 0001:000d9620       kf_bfly2                   00000001400da620 f   opus:kiss_fft.obj
 0001:000d9e80       kf_bfly3                   00000001400dae80 f   opus:kiss_fft.obj
 0001:000da110       kf_bfly4                   00000001400db110 f   opus:kiss_fft.obj
 0001:000da990       kf_bfly5                   00000001400db990 f   opus:kiss_fft.obj
 0001:000dc960       gemm_accum                 00000001400dd960 f   opus:mlp.obj
 0001:000dcb60       tansig_approx              00000001400ddb60 f   opus:mlp.obj
 0001:000de540       exp_rotation1              00000001400df540 f   opus:vq.obj
 0001:000de940       extract_collapse_mask      00000001400df940 f   opus:vq.obj
 0001:000e0d30       silk_resampler_private_down_FIR_INTERPOL 00000001400e1d30 f   opus:resampler_private_down_FIR.obj
 0001:000e1700       silk_DIV32_varQ            00000001400e2700 f   opus:stereo_find_predictor.obj
 0001:000e1870       silk_SQRT_APPROX           00000001400e2870 f   opus:stereo_find_predictor.obj
 0001:000e2be0       silk_LP_interpolate_filter_taps 00000001400e3be0 f   opus:LP_variable_cutoff.obj
 0001:000e3c40       warped_true2monic_coefs    00000001400e4c40 f   opus:noise_shape_analysis_FLP.obj
 0001:000e5df0       silk_SQRT_APPROX           00000001400e6df0 f   opus:VAD.obj
 0001:000e6af0       cwrsi                      00000001400e7af0 f   opus:cwrs.obj
 0001:000e7690       silk_PLC_conceal           00000001400e8690 f   opus:PLC.obj
 0001:000e84a0       silk_PLC_update            00000001400e94a0 f   opus:PLC.obj
 0001:000e9010       silk_SQRT_APPROX           00000001400ea010 f   opus:CNG.obj
 0001:000eb6e0       silk_P_Ana_calc_corr_st3   00000001400ec6e0 f   opus:pitch_analysis_core_FLP.obj
 0001:000eba50       silk_P_Ana_calc_energy_st3 00000001400eca50 f   opus:pitch_analysis_core_FLP.obj
 0001:000ed6b0       silk_LPC_analysis_filter10_FLP 00000001400ee6b0 f   opus:LPC_analysis_filter_FLP.obj
 0001:000edb10       silk_LPC_analysis_filter12_FLP 00000001400eeb10 f   opus:LPC_analysis_filter_FLP.obj
 0001:000ee010       silk_LPC_analysis_filter16_FLP 00000001400ef010 f   opus:LPC_analysis_filter_FLP.obj
 0001:000ee670       silk_LPC_analysis_filter6_FLP 00000001400ef670 f   opus:LPC_analysis_filter_FLP.obj
 0001:000ee960       silk_LPC_analysis_filter8_FLP 00000001400ef960 f   opus:LPC_analysis_filter_FLP.obj
 0001:000f04d0       silk_A2NLSF_eval_poly      00000001400f14d0 f   opus:A2NLSF.obj
 0001:000f05a0       silk_A2NLSF_init           00000001400f15a0 f   opus:A2NLSF.obj
 0001:000f0b10       silk_NLSF2A_find_poly      00000001400f1b10 f   opus:NLSF2A.obj
 0001:000f1e30       silk_nsq_scale_states      00000001400f2e30 f   opus:NSQ.obj
 0001:000f3520       silk_noise_shape_quantizer_del_dec 00000001400f4520 f   opus:NSQ_del_dec.obj
 0001:000f45b0       silk_nsq_del_dec_scale_states 00000001400f55b0 f   opus:NSQ_del_dec.obj
 0001:000f54c0       silk_SQRT_APPROX           00000001400f64c0 f   opus:VAD_sse4_1.obj
 0001:000f60d0       LPC_inverse_pred_gain_QA_c 00000001400f70d0 f   opus:LPC_inv_pred_gain.obj
 0001:000fba50       $$000000                   00000001400fca50     libcmt:svml_dexp2_dispatch.obj
 0001:000fba70       $$000000                   00000001400fca70     libcmt:svml_dfloor2_dispatch.obj
 0001:000fba90       $$000000                   00000001400fca90     libcmt:svml_dexp2_sse2.obj
 0001:000fbe40       $$000000                   00000001400fce40     libcmt:svml_dexp2_sse4.obj
 0001:000fc1c0       $$000000                   00000001400fd1c0     libcmt:svml_dfloor2_sse2.obj
 0001:000fc220       $$000000                   00000001400fd220     libcmt:svml_dfloor2_sse4.obj
 0001:000fe700       $$000000                   00000001400ff700     MSVCRTD:guard_dispatch.obj
 0001:000fe720       $$000000                   00000001400ff720     MSVCRTD:guard_xfg_dispatch.obj
 0001:000ff740       ?filt$0@?0??__scrt_common_main_seh@@YAHXZ@4HA 0000000140100740 f   MSVCRTD:exe_main.obj
 0001:000ff780       __scrt_is_nonwritable_in_current_image$filt$0 0000000140100780 f   MSVCRTD:utility.obj
 0002:00000110       ?pre_cpp_initializer@@3P6AXXZEA 0000000140102110     MSVCRTD:exe_main.obj
 0002:00000440       ?pre_c_initializer@@3P6AHXZEA 0000000140102440     MSVCRTD:exe_main.obj
 0002:00000550       ?post_pgo_initializer@@3P6AHXZEA 0000000140102550     MSVCRTD:exe_main.obj
 0002:00000bc0       STR_L16                    0000000140102bc0     pjmedia-codec-x86_64-x64-vc14-debug-dynamic:l16.obj
 0002:00000be0       ?inband_skip_table@?1??speex_get_next_frame@@9@9 0000000140102be0     pjmedia-codec-x86_64-x64-vc14-debug-dynamic:speex_codec.obj
 0002:00000c20       ?wb_skip_table@?1??speex_get_next_frame@@9@9 0000000140102c20     pjmedia-codec-x86_64-x64-vc14-debug-dynamic:speex_codec.obj
 0002:00000cc0       ?q6@?1??block1l@@9@9       0000000140102cc0     pjmedia-codec-x86_64-x64-vc14-debug-dynamic:g722_enc.obj
 0002:00000d40       ?iln@?1??block1l@@9@9      0000000140102d40     pjmedia-codec-x86_64-x64-vc14-debug-dynamic:g722_enc.obj
 0002:00000dc0       ?ilp@?1??block1l@@9@9      0000000140102dc0     pjmedia-codec-x86_64-x64-vc14-debug-dynamic:g722_enc.obj
 0002:00000e40       ?qm4@?1??block2l@@9@9      0000000140102e40     pjmedia-codec-x86_64-x64-vc14-debug-dynamic:g722_enc.obj
 0002:00000e80       ?wl@?1??block3l@@9@9       0000000140102e80     pjmedia-codec-x86_64-x64-vc14-debug-dynamic:g722_enc.obj
 0002:00000ea0       ?rl42@?1??block3l@@9@9     0000000140102ea0     pjmedia-codec-x86_64-x64-vc14-debug-dynamic:g722_enc.obj
 0002:00000ee0       ?ilb@?1??block3l@@9@9      0000000140102ee0     pjmedia-codec-x86_64-x64-vc14-debug-dynamic:g722_enc.obj
 0002:00000f60       ?ihn@?1??block1h@@9@9      0000000140102f60     pjmedia-codec-x86_64-x64-vc14-debug-dynamic:g722_enc.obj
 0002:00000f70       ?ihp@?1??block1h@@9@9      0000000140102f70     pjmedia-codec-x86_64-x64-vc14-debug-dynamic:g722_enc.obj
 0002:00000f80       ?qm2@?1??block2h@@9@9      0000000140102f80     pjmedia-codec-x86_64-x64-vc14-debug-dynamic:g722_enc.obj
 0002:00000f90       ?wh@?1??block3h@@9@9       0000000140102f90     pjmedia-codec-x86_64-x64-vc14-debug-dynamic:g722_enc.obj
 0002:00000fa0       ?rh2@?1??block3h@@9@9      0000000140102fa0     pjmedia-codec-x86_64-x64-vc14-debug-dynamic:g722_enc.obj
 0002:00000fb0       ?ilb@?1??block3h@@9@9      0000000140102fb0     pjmedia-codec-x86_64-x64-vc14-debug-dynamic:g722_enc.obj
 0002:00001100       qm4                        0000000140103100     pjmedia-codec-x86_64-x64-vc14-debug-dynamic:g722_dec.obj
 0002:00001140       ilb                        0000000140103140     pjmedia-codec-x86_64-x64-vc14-debug-dynamic:g722_dec.obj
 0002:000011c0       ?wl@?1??block3l@@9@9       00000001401031c0     pjmedia-codec-x86_64-x64-vc14-debug-dynamic:g722_dec.obj
 0002:000011e0       ?rl42@?1??block3l@@9@9     00000001401031e0     pjmedia-codec-x86_64-x64-vc14-debug-dynamic:g722_dec.obj
 0002:00001220       ?qm5@?1??block5l@@9@9      0000000140103220     pjmedia-codec-x86_64-x64-vc14-debug-dynamic:g722_dec.obj
 0002:000012a0       ?qm6@?1??block5l@@9@9      00000001401032a0     pjmedia-codec-x86_64-x64-vc14-debug-dynamic:g722_dec.obj
 0002:000013a0       ?qm2@?1??block2h@@9@9      00000001401033a0     pjmedia-codec-x86_64-x64-vc14-debug-dynamic:g722_dec.obj
 0002:000013b0       ?wh@?1??block3h@@9@9       00000001401033b0     pjmedia-codec-x86_64-x64-vc14-debug-dynamic:g722_dec.obj
 0002:000013c0       ?rh2@?1??block3h@@9@9      00000001401033c0     pjmedia-codec-x86_64-x64-vc14-debug-dynamic:g722_dec.obj
 0002:00001460       err_str                    0000000140103460     pjmedia-audiodev-x86_64-x64-vc14-debug-dynamic:errno.obj
 0002:00001548       STR_IN                     0000000140103548     pjmedia-x86_64-x64-vc14-debug-dynamic:endpoint.obj
 0002:00001558       STR_IP4                    0000000140103558     pjmedia-x86_64-x64-vc14-debug-dynamic:endpoint.obj
 0002:00001568       STR_IP6                    0000000140103568     pjmedia-x86_64-x64-vc14-debug-dynamic:endpoint.obj
 0002:00001578       STR_RTP_AVP                0000000140103578     pjmedia-x86_64-x64-vc14-debug-dynamic:endpoint.obj
 0002:00001588       STR_SDP_NAME               0000000140103588     pjmedia-x86_64-x64-vc14-debug-dynamic:endpoint.obj
 0002:00001598       STR_SENDRECV               0000000140103598     pjmedia-x86_64-x64-vc14-debug-dynamic:endpoint.obj
 0002:000015c0       err_str                    00000001401035c0     pjmedia-x86_64-x64-vc14-debug-dynamic:errno.obj
 0002:0000bc70       ID_RTP_AVP                 000000014010dc70     pjmedia-x86_64-x64-vc14-debug-dynamic:transport_srtp.obj
 0002:0000bc80       ID_RTP_SAVP                000000014010dc80     pjmedia-x86_64-x64-vc14-debug-dynamic:transport_srtp.obj
 0002:0000bc90       ID_CRYPTO                  000000014010dc90     pjmedia-x86_64-x64-vc14-debug-dynamic:transport_srtp.obj
 0002:0000bcb0       base64_char                000000014010dcb0     pjlib-util-x86_64-x64-vc14-debug-dynamic:base64.obj
 0002:0000bd00       err_str                    000000014010dd00     pjlib-x86_64-x64-vc14-debug-dynamic:errno.obj
 0002:0000bf80       gaErrorList                000000014010df80     pjlib-x86_64-x64-vc14-debug-dynamic:os_error_win32.obj
 0002:0000c3a0       ident                      000000014010e3a0     libgsmcodec-x86_64-x64-vc14-debug-dynamic:gsm_create.obj
 0002:0000c420       bitoff                     000000014010e420     libgsmcodec-x86_64-x64-vc14-debug-dynamic:add.obj
 0002:0000d0a0       ltp_params_nb              000000014010f0a0     libspeex-x86_64-x64-vc14-debug-dynamic:modes.obj
 0002:0000d0b0       ltp_params_vlbr            000000014010f0b0     libspeex-x86_64-x64-vc14-debug-dynamic:modes.obj
 0002:0000d0c0       ltp_params_lbr             000000014010f0c0     libspeex-x86_64-x64-vc14-debug-dynamic:modes.obj
 0002:0000d0d0       ltp_params_med             000000014010f0d0     libspeex-x86_64-x64-vc14-debug-dynamic:modes.obj
 0002:0000d0e0       split_cb_nb_vlbr           000000014010f0e0     libspeex-x86_64-x64-vc14-debug-dynamic:modes.obj
 0002:0000d0f8       split_cb_nb_ulbr           000000014010f0f8     libspeex-x86_64-x64-vc14-debug-dynamic:modes.obj
 0002:0000d110       split_cb_nb_lbr            000000014010f110     libspeex-x86_64-x64-vc14-debug-dynamic:modes.obj
 0002:0000d128       split_cb_nb                000000014010f128     libspeex-x86_64-x64-vc14-debug-dynamic:modes.obj
 0002:0000d140       split_cb_nb_med            000000014010f140     libspeex-x86_64-x64-vc14-debug-dynamic:modes.obj
 0002:0000d158       split_cb_sb                000000014010f158     libspeex-x86_64-x64-vc14-debug-dynamic:modes.obj
 0002:0000d170       nb_submode1                000000014010f170     libspeex-x86_64-x64-vc14-debug-dynamic:modes.obj
 0002:0000d1d0       nb_submode8                000000014010f1d0     libspeex-x86_64-x64-vc14-debug-dynamic:modes.obj
 0002:0000d230       nb_submode2                000000014010f230     libspeex-x86_64-x64-vc14-debug-dynamic:modes.obj
 0002:0000d290       nb_submode3                000000014010f290     libspeex-x86_64-x64-vc14-debug-dynamic:modes.obj
 0002:0000d2f0       nb_submode4                000000014010f2f0     libspeex-x86_64-x64-vc14-debug-dynamic:modes.obj
 0002:0000d350       nb_submode5                000000014010f350     libspeex-x86_64-x64-vc14-debug-dynamic:modes.obj
 0002:0000d3b0       nb_submode6                000000014010f3b0     libspeex-x86_64-x64-vc14-debug-dynamic:modes.obj
 0002:0000d410       nb_submode7                000000014010f410     libspeex-x86_64-x64-vc14-debug-dynamic:modes.obj
 0002:0000d470       nb_mode                    000000014010f470     libspeex-x86_64-x64-vc14-debug-dynamic:modes.obj
 0002:0000d718       split_cb_high              000000014010f718     libspeex-x86_64-x64-vc14-debug-dynamic:modes_wb.obj
 0002:0000d730       split_cb_high_lbr          000000014010f730     libspeex-x86_64-x64-vc14-debug-dynamic:modes_wb.obj
 0002:0000d750       wb_submode1                000000014010f750     libspeex-x86_64-x64-vc14-debug-dynamic:modes_wb.obj
 0002:0000d7b0       wb_submode2                000000014010f7b0     libspeex-x86_64-x64-vc14-debug-dynamic:modes_wb.obj
 0002:0000d810       wb_submode3                000000014010f810     libspeex-x86_64-x64-vc14-debug-dynamic:modes_wb.obj
 0002:0000d870       wb_submode4                000000014010f870     libspeex-x86_64-x64-vc14-debug-dynamic:modes_wb.obj
 0002:0000d8d0       sb_wb_mode                 000000014010f8d0     libspeex-x86_64-x64-vc14-debug-dynamic:modes_wb.obj
 0002:0000d9b0       sb_uwb_mode                000000014010f9b0     libspeex-x86_64-x64-vc14-debug-dynamic:modes_wb.obj
 0002:0000dcb0       wb_skip_table              000000014010fcb0     libspeex-x86_64-x64-vc14-debug-dynamic:nb_celp.obj
 0002:0000f700       gc_quant_bound             0000000140111700     libspeex-x86_64-x64-vc14-debug-dynamic:sb_celp.obj
 0002:0000f740       fold_quant_bound           0000000140111740     libspeex-x86_64-x64-vc14-debug-dynamic:sb_celp.obj
 0002:0000f7c0       h0                         00000001401117c0     libspeex-x86_64-x64-vc14-debug-dynamic:sb_celp.obj
 0002:000112e0       srtp_null_cipher_description 00000001401132e0     libsrtp-x86_64-x64-vc14-debug-dynamic:null_cipher.obj
 0002:000112f0       srtp_null_cipher_test_0    00000001401132f0     libsrtp-x86_64-x64-vc14-debug-dynamic:null_cipher.obj
 0002:00011488       srtp_aes_icm_128_description 0000000140113488     libsrtp-x86_64-x64-vc14-debug-dynamic:aes_icm.obj
 0002:000114a8       srtp_aes_icm_256_description 00000001401134a8     libsrtp-x86_64-x64-vc14-debug-dynamic:aes_icm.obj
 0002:000114c8       srtp_aes_icm_128_test_case_0_key 00000001401134c8     libsrtp-x86_64-x64-vc14-debug-dynamic:aes_icm.obj
 0002:000114e8       srtp_aes_icm_128_test_case_0_plaintext 00000001401134e8     libsrtp-x86_64-x64-vc14-debug-dynamic:aes_icm.obj
 0002:00011508       srtp_aes_icm_128_test_case_0_ciphertext 0000000140113508     libsrtp-x86_64-x64-vc14-debug-dynamic:aes_icm.obj
 0002:00011530       srtp_aes_icm_128_test_case_0 0000000140113530     libsrtp-x86_64-x64-vc14-debug-dynamic:aes_icm.obj
 0002:00011588       srtp_aes_icm_256_test_case_0_key 0000000140113588     libsrtp-x86_64-x64-vc14-debug-dynamic:aes_icm.obj
 0002:000115b8       srtp_aes_icm_256_test_case_0_plaintext 00000001401135b8     libsrtp-x86_64-x64-vc14-debug-dynamic:aes_icm.obj
 0002:000115d8       srtp_aes_icm_256_test_case_0_ciphertext 00000001401135d8     libsrtp-x86_64-x64-vc14-debug-dynamic:aes_icm.obj
 0002:00011600       srtp_aes_icm_256_test_case_0 0000000140113600     libsrtp-x86_64-x64-vc14-debug-dynamic:aes_icm.obj
 0002:000116e0       srtp_null_auth_test_case_0 00000001401136e0     libsrtp-x86_64-x64-vc14-debug-dynamic:null_auth.obj
 0002:00011718       srtp_null_auth_description 0000000140113718     libsrtp-x86_64-x64-vc14-debug-dynamic:null_auth.obj
 0002:000117b0       srtp_hmac_test_case_0_key  00000001401137b0     libsrtp-x86_64-x64-vc14-debug-dynamic:hmac.obj
 0002:000117c8       srtp_hmac_test_case_0_data 00000001401137c8     libsrtp-x86_64-x64-vc14-debug-dynamic:hmac.obj
 0002:000117d0       srtp_hmac_test_case_0_tag  00000001401137d0     libsrtp-x86_64-x64-vc14-debug-dynamic:hmac.obj
 0002:000117e8       srtp_hmac_test_case_0      00000001401137e8     libsrtp-x86_64-x64-vc14-debug-dynamic:hmac.obj
 0002:00011820       srtp_hmac_description      0000000140113820     libsrtp-x86_64-x64-vc14-debug-dynamic:hmac.obj
 0002:000118d0       T0                         00000001401138d0     libsrtp-x86_64-x64-vc14-debug-dynamic:aes.obj
 0002:00011cd0       T1                         0000000140113cd0     libsrtp-x86_64-x64-vc14-debug-dynamic:aes.obj
 0002:000120d0       T2                         00000001401140d0     libsrtp-x86_64-x64-vc14-debug-dynamic:aes.obj
 0002:000124d0       T3                         00000001401144d0     libsrtp-x86_64-x64-vc14-debug-dynamic:aes.obj
 0002:000128d0       U0                         00000001401148d0     libsrtp-x86_64-x64-vc14-debug-dynamic:aes.obj
 0002:00012cd0       U1                         0000000140114cd0     libsrtp-x86_64-x64-vc14-debug-dynamic:aes.obj
 0002:000130d0       U2                         00000001401150d0     libsrtp-x86_64-x64-vc14-debug-dynamic:aes.obj
 0002:000134d0       U3                         00000001401154d0     libsrtp-x86_64-x64-vc14-debug-dynamic:aes.obj
 0002:000138d0       aes_sbox                   00000001401158d0     libsrtp-x86_64-x64-vc14-debug-dynamic:aes.obj
 0002:000139d0       aes_inv_sbox               00000001401159d0     libsrtp-x86_64-x64-vc14-debug-dynamic:aes.obj
 0002:000141a0       GS_ExceptionPointers       00000001401161a0     MSVCRTD:gs_report.obj
 0002:000141b8       mono_voice_bandwidth_thresholds 00000001401161b8     opus:opus_encoder.obj
 0002:000141d8       mono_music_bandwidth_thresholds 00000001401161d8     opus:opus_encoder.obj
 0002:000141f8       stereo_voice_bandwidth_thresholds 00000001401161f8     opus:opus_encoder.obj
 0002:00014218       stereo_music_bandwidth_thresholds 0000000140116218     opus:opus_encoder.obj
 0002:00014238       fec_thresholds             0000000140116238     opus:opus_encoder.obj
 0002:00014340       ?intensity_thresholds@?EG@??celt_encode_with_ec@@9@9 0000000140116340     opus:celt_encoder.obj
 0002:00014394       spread_icdf                0000000140116394     opus:celt_encoder.obj
 0002:00014398       tapset_icdf                0000000140116398     opus:celt_encoder.obj
 0002:000143a0       ?intensity_histeresis@?EG@??celt_encode_with_ec@@9@9 00000001401163a0     opus:celt_encoder.obj
 0002:000143f8       trim_icdf                  00000001401163f8     opus:celt_encoder.obj
 0002:00014410       ?inv_table@?1??transient_analysis@@9@9 0000000140116410     opus:celt_encoder.obj
 0002:000146a0       dct_table                  00000001401166a0     opus:analysis.obj
 0002:000148a0       analysis_window            00000001401168a0     opus:analysis.obj
 0002:00014c60       tbands                     0000000140116c60     opus:analysis.obj
 0002:00014f18       trim_icdf                  0000000140116f18     opus:celt_decoder.obj
 0002:00014f24       spread_icdf                0000000140116f24     opus:celt_decoder.obj
 0002:00014f28       tapset_icdf                0000000140116f28     opus:celt_decoder.obj
 0002:00014f80       eband5ms                   0000000140116f80     opus:modes.obj
 0002:00014fb0       band_allocation            0000000140116fb0     opus:modes.obj
 0002:000150a0       window120                  00000001401170a0     opus:modes.obj
 0002:00015280       logN400                    0000000140117280     opus:modes.obj
 0002:000152b0       cache_index50              00000001401172b0     opus:modes.obj
 0002:00015390       cache_bits50               0000000140117390     opus:modes.obj
 0002:00015520       cache_caps50               0000000140117520     opus:modes.obj
 0002:000155d0       fft_twiddles48000_960      00000001401175d0     opus:modes.obj
 0002:000164d0       fft_bitrev480              00000001401184d0     opus:modes.obj
 0002:00016890       fft_bitrev240              0000000140118890     opus:modes.obj
 0002:00016a70       fft_bitrev120              0000000140118a70     opus:modes.obj
 0002:00016b60       fft_bitrev60               0000000140118b60     opus:modes.obj
 0002:00016be0       fft_state48000_960_0       0000000140118be0     opus:modes.obj
 0002:00016c30       fft_state48000_960_1       0000000140118c30     opus:modes.obj
 0002:00016c80       fft_state48000_960_2       0000000140118c80     opus:modes.obj
 0002:00016cd0       fft_state48000_960_3       0000000140118cd0     opus:modes.obj
 0002:00016d20       mdct_twiddles960           0000000140118d20     opus:modes.obj
 0002:00018940       mode48000_960_120          000000014011a940     opus:modes.obj
 0002:000189e0       static_mode_list           000000014011a9e0     opus:modes.obj
 0002:00019598       ?correction@?1??ec_tell_frac@@9@9 000000014011b598     opus:entcode.obj
 0002:000195e0       ?gains@?1??comb_filter@@9@9 000000014011b5e0     opus:celt.obj
 0002:00019610       ?error_strings@?1??opus_strerror@@9@9 000000014011b610     opus:celt.obj
 0002:00019750       second_check               000000014011b750     opus:pitch.obj
 0002:000197c8       LOG2_FRAC_TABLE            000000014011b7c8     opus:rate.obj
 0002:00019810       ordery_table               000000014011b810     opus:bands.obj
 0002:00019888       ?exp2_table8@?1??compute_qn@@9@9 000000014011b888     opus:bands.obj
 0002:00019898       ?bit_interleave_table@?5??quant_band@@9@9 000000014011b898     opus:bands.obj
 0002:000198a8       ?bit_deinterleave_table@?N@??quant_band@@9@9 000000014011b8a8     opus:bands.obj
 0002:00019984       small_energy_icdf          000000014011b984     opus:quant_bands.obj
 0002:00019990       e_prob_model               000000014011b990     opus:quant_bands.obj
 0002:00019ae0       pred_coef                  000000014011bae0     opus:quant_bands.obj
 0002:00019af0       beta_coef                  000000014011baf0     opus:quant_bands.obj
 0002:00019b78       delay_matrix_enc           000000014011bb78     opus:resampler.obj
 0002:00019b88       delay_matrix_dec           000000014011bb88     opus:resampler.obj
 0002:00019ba0       silk_TargetRate_NB_21      000000014011bba0     opus:control_SNR.obj
 0002:00019c10       silk_TargetRate_MB_21      000000014011bc10     opus:control_SNR.obj
 0002:00019cb0       silk_TargetRate_WB_21      000000014011bcb0     opus:control_SNR.obj
 0002:00019eac       silk_LBRR_flags_2_iCDF     000000014011beac     opus:tables_other.obj
 0002:00019ed8       silk_LBRR_flags_3_iCDF     000000014011bed8     opus:tables_other.obj
 0002:00019f20       tansig_table               000000014011bf20     opus:mlp.obj
 0002:0001a380       layer0_weights             000000014011c380     opus:mlp_data.obj
 0002:0001a6a0       layer0_bias                000000014011c6a0     opus:mlp_data.obj
 0002:0001a6c0       layer1_weights             000000014011c6c0     opus:mlp_data.obj
 0002:0001afc0       layer1_recur_weights       000000014011cfc0     opus:mlp_data.obj
 0002:0001b680       layer1_bias                000000014011d680     opus:mlp_data.obj
 0002:0001b6c8       layer2_weights             000000014011d6c8     opus:mlp_data.obj
 0002:0001b6f8       layer2_bias                000000014011d6f8     opus:mlp_data.obj
 0002:0001baf8       ?SPREAD_FACTOR@?1??exp_rotation@@9@9 000000014011daf8     opus:vq.obj
 0002:0001c350       silk_LTP_gain_iCDF_0       000000014011e350     opus:tables_LTP.obj
 0002:0001c358       silk_LTP_gain_iCDF_1       000000014011e358     opus:tables_LTP.obj
 0002:0001c368       silk_LTP_gain_iCDF_2       000000014011e368     opus:tables_LTP.obj
 0002:0001c388       silk_LTP_gain_BITS_Q5_0    000000014011e388     opus:tables_LTP.obj
 0002:0001c390       silk_LTP_gain_BITS_Q5_1    000000014011e390     opus:tables_LTP.obj
 0002:0001c3a0       silk_LTP_gain_BITS_Q5_2    000000014011e3a0     opus:tables_LTP.obj
 0002:0001c3c0       silk_LTP_gain_vq_0         000000014011e3c0     opus:tables_LTP.obj
 0002:0001c3e8       silk_LTP_gain_vq_0_gain    000000014011e3e8     opus:tables_LTP.obj
 0002:0001c3f0       silk_LTP_gain_vq_1         000000014011e3f0     opus:tables_LTP.obj
 0002:0001c440       silk_LTP_gain_vq_2         000000014011e440     opus:tables_LTP.obj
 0002:0001c4e0       silk_LTP_gain_vq_1_gain    000000014011e4e0     opus:tables_LTP.obj
 0002:0001c4f0       silk_LTP_gain_vq_2_gain    000000014011e4f0     opus:tables_LTP.obj
 0002:0001c680       tiltWeights                000000014011e680     opus:VAD.obj
 0002:0001c6e8       silk_NLSF_DELTA_MIN_WB_Q15 000000014011e6e8     opus:tables_NLSF_CB_WB.obj
 0002:0001c710       silk_NLSF_CB1_WB_Q8        000000014011e710     opus:tables_NLSF_CB_WB.obj
 0002:0001c910       silk_NLSF_CB1_WB_Wght_Q9   000000014011e910     opus:tables_NLSF_CB_WB.obj
 0002:0001cd10       silk_NLSF_CB1_iCDF_WB      000000014011ed10     opus:tables_NLSF_CB_WB.obj
 0002:0001cd50       silk_NLSF_CB2_SELECT_WB    000000014011ed50     opus:tables_NLSF_CB_WB.obj
 0002:0001ce50       silk_NLSF_CB2_iCDF_WB      000000014011ee50     opus:tables_NLSF_CB_WB.obj
 0002:0001cea0       silk_NLSF_CB2_BITS_WB_Q5   000000014011eea0     opus:tables_NLSF_CB_WB.obj
 0002:0001cee8       silk_NLSF_PRED_WB_Q8       000000014011eee8     opus:tables_NLSF_CB_WB.obj
 0002:0001d108       silk_NLSF_PRED_NB_MB_Q8    000000014011f108     opus:tables_NLSF_CB_NB_MB.obj
 0002:0001d120       silk_NLSF_CB1_NB_MB_Q8     000000014011f120     opus:tables_NLSF_CB_NB_MB.obj
 0002:0001d260       silk_NLSF_CB1_Wght_Q9      000000014011f260     opus:tables_NLSF_CB_NB_MB.obj
 0002:0001d4e0       silk_NLSF_CB1_iCDF_NB_MB   000000014011f4e0     opus:tables_NLSF_CB_NB_MB.obj
 0002:0001d520       silk_NLSF_CB2_SELECT_NB_MB 000000014011f520     opus:tables_NLSF_CB_NB_MB.obj
 0002:0001d5c0       silk_NLSF_CB2_iCDF_NB_MB   000000014011f5c0     opus:tables_NLSF_CB_NB_MB.obj
 0002:0001d610       silk_NLSF_CB2_BITS_NB_MB_Q5 000000014011f610     opus:tables_NLSF_CB_NB_MB.obj
 0002:0001d658       silk_NLSF_DELTA_MIN_NB_MB_Q15 000000014011f658     opus:tables_NLSF_CB_NB_MB.obj
 0002:0001d790       CELT_PVQ_U_DATA            000000014011f790     opus:cwrs.obj
 0002:0001eb70       CELT_PVQ_U_ROW             0000000140120b70     opus:cwrs.obj
 0002:0001f034       HARM_ATT_Q15               0000000140121034     opus:PLC.obj
 0002:0001f038       PLC_RAND_ATTENUATE_V_Q15   0000000140121038     opus:PLC.obj
 0002:0001f03c       PLC_RAND_ATTENUATE_UV_Q15  000000014012103c     opus:PLC.obj
 0002:0001f080       ?ordering16@?1??silk_NLSF2A@@9@9 0000000140121080     opus:NLSF2A.obj
 0002:0001f090       ?ordering10@?1??silk_NLSF2A@@9@9 0000000140121090     opus:NLSF2A.obj
 0002:0001f0b8       tiltWeights                00000001401210b8     opus:VAD_sse4_1.obj
 0002:0001f0d0       sigm_LUT_slope_Q10         00000001401210d0     opus:sigm_Q15.obj
 0002:0001f0e8       sigm_LUT_pos_Q15           00000001401210e8     opus:sigm_Q15.obj
 0002:0001f100       sigm_LUT_neg_Q15           0000000140121100     opus:sigm_Q15.obj
 0002:00020158       $unwind$_vfprintf_l        0000000140122158     encdec.obj
 0002:00020160       $unwind$printf             0000000140122160     encdec.obj
 0002:00020168       $unwind$pj_cstr            0000000140122168     encdec.obj
 0002:00020170       $unwind$pjmedia_codec_init 0000000140122170     encdec.obj
 0002:00020178       $unwind$pjmedia_codec_open 0000000140122178     encdec.obj
 0002:00020180       $unwind$pjmedia_codec_close 0000000140122180     encdec.obj
 0002:00020188       $unwind$pjmedia_codec_parse 0000000140122188     encdec.obj
 0002:00020190       $unwind$pjmedia_codec_encode 0000000140122190     encdec.obj
 0002:00020198       $unwind$pjmedia_codec_decode 0000000140122198     encdec.obj
 0002:000201a0       $unwind$pjmedia_codec_recover 00000001401221a0     encdec.obj
 0002:000201a8       $unwind$pjmedia_endpt_create 00000001401221a8     encdec.obj
 0002:000201b0       $unwind$pjmedia_endpt_destroy 00000001401221b0     encdec.obj
 0002:000201b8       $unwind$err                00000001401221b8     encdec.obj
 0002:000201c8       $unwind$enc_dec_test       00000001401221c8     encdec.obj
 0002:000201d8       $unwind$main               00000001401221d8     encdec.obj
 0002:000201f4       $unwind$pj_bzero           00000001401221f4     pjmedia-codec-x86_64-x64-vc14-debug-dynamic:audio_codecs.obj
 0002:000201fc       $unwind$pjmedia_audio_codec_config_default 00000001401221fc     pjmedia-codec-x86_64-x64-vc14-debug-dynamic:audio_codecs.obj
 0002:00020204       $unwind$pjmedia_codec_register_audio_codecs 0000000140122204     pjmedia-codec-x86_64-x64-vc14-debug-dynamic:audio_codecs.obj
 0002:00020218       $unwind$pj_list_empty      0000000140122218     pjmedia-codec-x86_64-x64-vc14-debug-dynamic:g722.obj
 0002:00020220       $unwind$pj_list_push_front 0000000140122220     pjmedia-codec-x86_64-x64-vc14-debug-dynamic:g722.obj
 0002:00020228       $unwind$pj_pool_zalloc     0000000140122228     pjmedia-codec-x86_64-x64-vc14-debug-dynamic:g722.obj
 0002:00020230       $unwind$pj_bzero           0000000140122230     pjmedia-codec-x86_64-x64-vc14-debug-dynamic:g722.obj
 0002:00020238       $unwind$pjmedia_zero_samples 0000000140122238     pjmedia-codec-x86_64-x64-vc14-debug-dynamic:g722.obj
 0002:00020240       $unwind$pj_timestamp_diff32 0000000140122240     pjmedia-codec-x86_64-x64-vc14-debug-dynamic:g722.obj
 0002:00020248       $unwind$pjmedia_codec_g722_init 0000000140122248     pjmedia-codec-x86_64-x64-vc14-debug-dynamic:g722.obj
 0002:00020250       $unwind$pjmedia_codec_g722_deinit 0000000140122250     pjmedia-codec-x86_64-x64-vc14-debug-dynamic:g722.obj
 0002:00020258       $unwind$g722_default_attr  0000000140122258     pjmedia-codec-x86_64-x64-vc14-debug-dynamic:g722.obj
 0002:00020260       $unwind$g722_enum_codecs   0000000140122260     pjmedia-codec-x86_64-x64-vc14-debug-dynamic:g722.obj
 0002:0002026c       $unwind$g722_alloc_codec   000000014012226c     pjmedia-codec-x86_64-x64-vc14-debug-dynamic:g722.obj
 0002:00020274       $unwind$g722_dealloc_codec 0000000140122274     pjmedia-codec-x86_64-x64-vc14-debug-dynamic:g722.obj
 0002:00020284       $unwind$g722_codec_open    0000000140122284     pjmedia-codec-x86_64-x64-vc14-debug-dynamic:g722.obj
 0002:0002028c       $unwind$g722_codec_modify  000000014012228c     pjmedia-codec-x86_64-x64-vc14-debug-dynamic:g722.obj
 0002:00020294       $unwind$g722_codec_parse   0000000140122294     pjmedia-codec-x86_64-x64-vc14-debug-dynamic:g722.obj
 0002:0002029c       $unwind$g722_codec_encode  000000014012229c     pjmedia-codec-x86_64-x64-vc14-debug-dynamic:g722.obj
 0002:000202a4       $unwind$g722_codec_decode  00000001401222a4     pjmedia-codec-x86_64-x64-vc14-debug-dynamic:g722.obj
 0002:000202ac       $unwind$g722_codec_recover 00000001401222ac     pjmedia-codec-x86_64-x64-vc14-debug-dynamic:g722.obj
 0002:000202c4       $unwind$pj_list_empty      00000001401222c4     pjmedia-codec-x86_64-x64-vc14-debug-dynamic:gsm.obj
 0002:000202cc       $unwind$pj_list_push_front 00000001401222cc     pjmedia-codec-x86_64-x64-vc14-debug-dynamic:gsm.obj
 0002:000202d4       $unwind$pj_pool_zalloc     00000001401222d4     pjmedia-codec-x86_64-x64-vc14-debug-dynamic:gsm.obj
 0002:000202dc       $unwind$pj_bzero           00000001401222dc     pjmedia-codec-x86_64-x64-vc14-debug-dynamic:gsm.obj
 0002:000202e4       $unwind$pjmedia_zero_samples 00000001401222e4     pjmedia-codec-x86_64-x64-vc14-debug-dynamic:gsm.obj
 0002:000202ec       $unwind$pj_timestamp_diff32 00000001401222ec     pjmedia-codec-x86_64-x64-vc14-debug-dynamic:gsm.obj
 0002:000202f4       $unwind$pjmedia_codec_gsm_init 00000001401222f4     pjmedia-codec-x86_64-x64-vc14-debug-dynamic:gsm.obj
 0002:000202fc       $unwind$pjmedia_codec_gsm_deinit 00000001401222fc     pjmedia-codec-x86_64-x64-vc14-debug-dynamic:gsm.obj
 0002:00020304       $unwind$gsm_default_attr   0000000140122304     pjmedia-codec-x86_64-x64-vc14-debug-dynamic:gsm.obj
 0002:0002030c       $unwind$gsm_enum_codecs    000000014012230c     pjmedia-codec-x86_64-x64-vc14-debug-dynamic:gsm.obj
 0002:00020318       $unwind$gsm_alloc_codec    0000000140122318     pjmedia-codec-x86_64-x64-vc14-debug-dynamic:gsm.obj
 0002:00020320       $unwind$gsm_dealloc_codec  0000000140122320     pjmedia-codec-x86_64-x64-vc14-debug-dynamic:gsm.obj
 0002:00020330       $unwind$gsm_codec_open     0000000140122330     pjmedia-codec-x86_64-x64-vc14-debug-dynamic:gsm.obj
 0002:00020338       $unwind$gsm_codec_close    0000000140122338     pjmedia-codec-x86_64-x64-vc14-debug-dynamic:gsm.obj
 0002:00020340       $unwind$gsm_codec_modify   0000000140122340     pjmedia-codec-x86_64-x64-vc14-debug-dynamic:gsm.obj
 0002:00020348       $unwind$gsm_codec_parse    0000000140122348     pjmedia-codec-x86_64-x64-vc14-debug-dynamic:gsm.obj
 0002:00020350       $unwind$gsm_codec_encode   0000000140122350     pjmedia-codec-x86_64-x64-vc14-debug-dynamic:gsm.obj
 0002:00020358       $unwind$gsm_codec_decode   0000000140122358     pjmedia-codec-x86_64-x64-vc14-debug-dynamic:gsm.obj
 0002:00020360       $unwind$gsm_codec_recover  0000000140122360     pjmedia-codec-x86_64-x64-vc14-debug-dynamic:gsm.obj
 0002:00020378       $unwind$pj_pool_zalloc     0000000140122378     pjmedia-codec-x86_64-x64-vc14-debug-dynamic:ilbc.obj
 0002:00020380       $unwind$pj_bzero           0000000140122380     pjmedia-codec-x86_64-x64-vc14-debug-dynamic:ilbc.obj
 0002:00020388       $unwind$pj_timestamp_diff32 0000000140122388     pjmedia-codec-x86_64-x64-vc14-debug-dynamic:ilbc.obj
 0002:00020390       $unwind$pjmedia_codec_ilbc_init 0000000140122390     pjmedia-codec-x86_64-x64-vc14-debug-dynamic:ilbc.obj
 0002:00020398       $unwind$pjmedia_codec_ilbc_deinit 0000000140122398     pjmedia-codec-x86_64-x64-vc14-debug-dynamic:ilbc.obj
 0002:000203a0       $unwind$ilbc_test_alloc    00000001401223a0     pjmedia-codec-x86_64-x64-vc14-debug-dynamic:ilbc.obj
 0002:000203a8       $unwind$ilbc_default_attr  00000001401223a8     pjmedia-codec-x86_64-x64-vc14-debug-dynamic:ilbc.obj
 0002:000203b4       $unwind$ilbc_enum_codecs   00000001401223b4     pjmedia-codec-x86_64-x64-vc14-debug-dynamic:ilbc.obj
 0002:000203c0       $unwind$ilbc_alloc_codec   00000001401223c0     pjmedia-codec-x86_64-x64-vc14-debug-dynamic:ilbc.obj
 0002:000203c8       $unwind$ilbc_dealloc_codec 00000001401223c8     pjmedia-codec-x86_64-x64-vc14-debug-dynamic:ilbc.obj
 0002:000203d0       $unwind$ilbc_codec_open    00000001401223d0     pjmedia-codec-x86_64-x64-vc14-debug-dynamic:ilbc.obj
 0002:000203d8       $unwind$ilbc_codec_close   00000001401223d8     pjmedia-codec-x86_64-x64-vc14-debug-dynamic:ilbc.obj
 0002:000203e0       $unwind$ilbc_codec_modify  00000001401223e0     pjmedia-codec-x86_64-x64-vc14-debug-dynamic:ilbc.obj
 0002:000203e8       $unwind$ilbc_codec_parse   00000001401223e8     pjmedia-codec-x86_64-x64-vc14-debug-dynamic:ilbc.obj
 0002:000203f0       $unwind$ilbc_codec_encode  00000001401223f0     pjmedia-codec-x86_64-x64-vc14-debug-dynamic:ilbc.obj
 0002:000203f8       $unwind$ilbc_codec_decode  00000001401223f8     pjmedia-codec-x86_64-x64-vc14-debug-dynamic:ilbc.obj
 0002:00020400       $unwind$ilbc_codec_recover 0000000140122400     pjmedia-codec-x86_64-x64-vc14-debug-dynamic:ilbc.obj
 0002:00020418       $unwind$_vsnprintf_l       0000000140122418     pjmedia-codec-x86_64-x64-vc14-debug-dynamic:ilbc.obj
 0002:00020420       $unwind$_vsnprintf         0000000140122420     pjmedia-codec-x86_64-x64-vc14-debug-dynamic:ilbc.obj
 0002:00020428       $unwind$_snprintf          0000000140122428     pjmedia-codec-x86_64-x64-vc14-debug-dynamic:ilbc.obj
 0002:00020430       $unwind$pj_pool_zalloc     0000000140122430     pjmedia-codec-x86_64-x64-vc14-debug-dynamic:l16.obj
 0002:00020438       $unwind$pj_bzero           0000000140122438     pjmedia-codec-x86_64-x64-vc14-debug-dynamic:l16.obj
 0002:00020440       $unwind$pj_timestamp_diff32 0000000140122440     pjmedia-codec-x86_64-x64-vc14-debug-dynamic:l16.obj
 0002:00020448       $unwind$pjmedia_codec_l16_init 0000000140122448     pjmedia-codec-x86_64-x64-vc14-debug-dynamic:l16.obj
 0002:00020450       $unwind$pjmedia_codec_l16_deinit 0000000140122450     pjmedia-codec-x86_64-x64-vc14-debug-dynamic:l16.obj
 0002:00020458       $unwind$l16_test_alloc     0000000140122458     pjmedia-codec-x86_64-x64-vc14-debug-dynamic:l16.obj
 0002:00020460       $unwind$l16_default_attr   0000000140122460     pjmedia-codec-x86_64-x64-vc14-debug-dynamic:l16.obj
 0002:00020468       $unwind$l16_enum_codecs    0000000140122468     pjmedia-codec-x86_64-x64-vc14-debug-dynamic:l16.obj
 0002:00020474       $unwind$l16_alloc_codec    0000000140122474     pjmedia-codec-x86_64-x64-vc14-debug-dynamic:l16.obj
 0002:0002047c       $unwind$l16_dealloc_codec  000000014012247c     pjmedia-codec-x86_64-x64-vc14-debug-dynamic:l16.obj
 0002:00020484       $unwind$l16_open           0000000140122484     pjmedia-codec-x86_64-x64-vc14-debug-dynamic:l16.obj
 0002:0002048c       $unwind$l16_modify         000000014012248c     pjmedia-codec-x86_64-x64-vc14-debug-dynamic:l16.obj
 0002:00020494       $unwind$l16_parse          0000000140122494     pjmedia-codec-x86_64-x64-vc14-debug-dynamic:l16.obj
 0002:0002049c       $unwind$l16_encode         000000014012249c     pjmedia-codec-x86_64-x64-vc14-debug-dynamic:l16.obj
 0002:000204a4       $unwind$l16_decode         00000001401224a4     pjmedia-codec-x86_64-x64-vc14-debug-dynamic:l16.obj
 0002:000204ac       $unwind$l16_recover        00000001401224ac     pjmedia-codec-x86_64-x64-vc14-debug-dynamic:l16.obj
 0002:000204c4       $unwind$pj_pool_zalloc     00000001401224c4     pjmedia-codec-x86_64-x64-vc14-debug-dynamic:opus.obj
 0002:000204cc       $unwind$pj_bzero           00000001401224cc     pjmedia-codec-x86_64-x64-vc14-debug-dynamic:opus.obj
 0002:000204d4       $unwind$pj_memcpy          00000001401224d4     pjmedia-codec-x86_64-x64-vc14-debug-dynamic:opus.obj
 0002:000204dc       $unwind$pjmedia_zero_samples 00000001401224dc     pjmedia-codec-x86_64-x64-vc14-debug-dynamic:opus.obj
 0002:000204e4       $unwind$pjmedia_codec_opus_init 00000001401224e4     pjmedia-codec-x86_64-x64-vc14-debug-dynamic:opus.obj
 0002:000204ec       $unwind$pjmedia_codec_opus_deinit 00000001401224ec     pjmedia-codec-x86_64-x64-vc14-debug-dynamic:opus.obj
 0002:000204f4       $unwind$pjmedia_codec_opus_get_config 00000001401224f4     pjmedia-codec-x86_64-x64-vc14-debug-dynamic:opus.obj
 0002:000204fc       $unwind$pjmedia_codec_opus_set_default_param 00000001401224fc     pjmedia-codec-x86_64-x64-vc14-debug-dynamic:opus.obj
 0002:00020504       $unwind$factory_test_alloc 0000000140122504     pjmedia-codec-x86_64-x64-vc14-debug-dynamic:opus.obj
 0002:0002050c       $unwind$factory_default_attr 000000014012250c     pjmedia-codec-x86_64-x64-vc14-debug-dynamic:opus.obj
 0002:00020514       $unwind$factory_enum_codecs 0000000140122514     pjmedia-codec-x86_64-x64-vc14-debug-dynamic:opus.obj
 0002:00020520       $unwind$factory_alloc_codec 0000000140122520     pjmedia-codec-x86_64-x64-vc14-debug-dynamic:opus.obj
 0002:00020528       $unwind$factory_dealloc_codec 0000000140122528     pjmedia-codec-x86_64-x64-vc14-debug-dynamic:opus.obj
 0002:00020530       $unwind$codec_open         0000000140122530     pjmedia-codec-x86_64-x64-vc14-debug-dynamic:opus.obj
 0002:00020538       $unwind$codec_modify       0000000140122538     pjmedia-codec-x86_64-x64-vc14-debug-dynamic:opus.obj
 0002:00020540       $unwind$codec_parse        0000000140122540     pjmedia-codec-x86_64-x64-vc14-debug-dynamic:opus.obj
 0002:00020550       $unwind$codec_encode       0000000140122550     pjmedia-codec-x86_64-x64-vc14-debug-dynamic:opus.obj
 0002:00020560       $unwind$codec_decode       0000000140122560     pjmedia-codec-x86_64-x64-vc14-debug-dynamic:opus.obj
 0002:00020568       $unwind$codec_recover      0000000140122568     pjmedia-codec-x86_64-x64-vc14-debug-dynamic:opus.obj
 0002:00020570       $unwind$find_fmtp          0000000140122570     pjmedia-codec-x86_64-x64-vc14-debug-dynamic:opus.obj
 0002:0002057c       $unwind$remove_fmtp        000000014012257c     pjmedia-codec-x86_64-x64-vc14-debug-dynamic:opus.obj
 0002:00020588       $unwind$generate_fmtp      0000000140122588     pjmedia-codec-x86_64-x64-vc14-debug-dynamic:opus.obj
 0002:000205a8       $unwind$pj_list_empty      00000001401225a8     pjmedia-codec-x86_64-x64-vc14-debug-dynamic:speex_codec.obj
 0002:000205b0       $unwind$pj_list_push_front 00000001401225b0     pjmedia-codec-x86_64-x64-vc14-debug-dynamic:speex_codec.obj
 0002:000205b8       $unwind$pj_pool_zalloc     00000001401225b8     pjmedia-codec-x86_64-x64-vc14-debug-dynamic:speex_codec.obj
 0002:000205c0       $unwind$pj_bzero           00000001401225c0     pjmedia-codec-x86_64-x64-vc14-debug-dynamic:speex_codec.obj
 0002:000205c8       $unwind$pjmedia_zero_samples 00000001401225c8     pjmedia-codec-x86_64-x64-vc14-debug-dynamic:speex_codec.obj
 0002:000205d0       $unwind$pjmedia_codec_speex_init 00000001401225d0     pjmedia-codec-x86_64-x64-vc14-debug-dynamic:speex_codec.obj
 0002:000205d8       $unwind$pjmedia_codec_speex_init_default 00000001401225d8     pjmedia-codec-x86_64-x64-vc14-debug-dynamic:speex_codec.obj
 0002:000205e0       $unwind$pjmedia_codec_speex_set_param 00000001401225e0     pjmedia-codec-x86_64-x64-vc14-debug-dynamic:speex_codec.obj
 0002:000205e8       $unwind$pjmedia_codec_speex_deinit 00000001401225e8     pjmedia-codec-x86_64-x64-vc14-debug-dynamic:speex_codec.obj
 0002:000205f0       $unwind$spx_test_alloc     00000001401225f0     pjmedia-codec-x86_64-x64-vc14-debug-dynamic:speex_codec.obj
 0002:000205f8       $unwind$spx_default_attr   00000001401225f8     pjmedia-codec-x86_64-x64-vc14-debug-dynamic:speex_codec.obj
 0002:00020600       $unwind$spx_enum_codecs    0000000140122600     pjmedia-codec-x86_64-x64-vc14-debug-dynamic:speex_codec.obj
 0002:0002060c       $unwind$spx_alloc_codec    000000014012260c     pjmedia-codec-x86_64-x64-vc14-debug-dynamic:speex_codec.obj
 0002:00020614       $unwind$spx_dealloc_codec  0000000140122614     pjmedia-codec-x86_64-x64-vc14-debug-dynamic:speex_codec.obj
 0002:0002061c       $unwind$spx_codec_open     000000014012261c     pjmedia-codec-x86_64-x64-vc14-debug-dynamic:speex_codec.obj
 0002:00020624       $unwind$spx_codec_close    0000000140122624     pjmedia-codec-x86_64-x64-vc14-debug-dynamic:speex_codec.obj
 0002:0002062c       $unwind$spx_codec_modify   000000014012262c     pjmedia-codec-x86_64-x64-vc14-debug-dynamic:speex_codec.obj
 0002:00020634       $unwind$spx_codec_parse    0000000140122634     pjmedia-codec-x86_64-x64-vc14-debug-dynamic:speex_codec.obj
 0002:0002063c       $unwind$spx_codec_encode   000000014012263c     pjmedia-codec-x86_64-x64-vc14-debug-dynamic:speex_codec.obj
 0002:00020644       $unwind$spx_codec_decode   0000000140122644     pjmedia-codec-x86_64-x64-vc14-debug-dynamic:speex_codec.obj
 0002:0002064c       $unwind$spx_codec_recover  000000014012264c     pjmedia-codec-x86_64-x64-vc14-debug-dynamic:speex_codec.obj
 0002:00020654       $unwind$get_speex_info     0000000140122654     pjmedia-codec-x86_64-x64-vc14-debug-dynamic:speex_codec.obj
 0002:0002065c       $unwind$speex_get_next_frame 000000014012265c     pjmedia-codec-x86_64-x64-vc14-debug-dynamic:speex_codec.obj
 0002:00020678       $unwind$pj_bzero           0000000140122678     pjmedia-codec-x86_64-x64-vc14-debug-dynamic:g722_enc.obj
 0002:00020680       $unwind$pj_memmove         0000000140122680     pjmedia-codec-x86_64-x64-vc14-debug-dynamic:g722_enc.obj
 0002:00020688       $unwind$g722_enc_init      0000000140122688     pjmedia-codec-x86_64-x64-vc14-debug-dynamic:g722_enc.obj
 0002:00020690       $unwind$g722_enc_encode    0000000140122690     pjmedia-codec-x86_64-x64-vc14-debug-dynamic:g722_enc.obj
 0002:00020698       $unwind$g722_enc_deinit    0000000140122698     pjmedia-codec-x86_64-x64-vc14-debug-dynamic:g722_enc.obj
 0002:000206a0       $unwind$block1l            00000001401226a0     pjmedia-codec-x86_64-x64-vc14-debug-dynamic:g722_enc.obj
 0002:000206a8       $unwind$block2l            00000001401226a8     pjmedia-codec-x86_64-x64-vc14-debug-dynamic:g722_enc.obj
 0002:000206b0       $unwind$block3l            00000001401226b0     pjmedia-codec-x86_64-x64-vc14-debug-dynamic:g722_enc.obj
 0002:000206b8       $unwind$block4l            00000001401226b8     pjmedia-codec-x86_64-x64-vc14-debug-dynamic:g722_enc.obj
 0002:000206c0       $unwind$block1h            00000001401226c0     pjmedia-codec-x86_64-x64-vc14-debug-dynamic:g722_enc.obj
 0002:000206c8       $unwind$block2h            00000001401226c8     pjmedia-codec-x86_64-x64-vc14-debug-dynamic:g722_enc.obj
 0002:000206d0       $unwind$block3h            00000001401226d0     pjmedia-codec-x86_64-x64-vc14-debug-dynamic:g722_enc.obj
 0002:000206d8       $unwind$block4h            00000001401226d8     pjmedia-codec-x86_64-x64-vc14-debug-dynamic:g722_enc.obj
 0002:000206e0       $unwind$tx_qmf             00000001401226e0     pjmedia-codec-x86_64-x64-vc14-debug-dynamic:g722_enc.obj
 0002:000206f4       $unwind$pj_bzero           00000001401226f4     pjmedia-codec-x86_64-x64-vc14-debug-dynamic:g722_dec.obj
 0002:000206fc       $unwind$pj_memmove         00000001401226fc     pjmedia-codec-x86_64-x64-vc14-debug-dynamic:g722_dec.obj
 0002:00020704       $unwind$g722_dec_init      0000000140122704     pjmedia-codec-x86_64-x64-vc14-debug-dynamic:g722_dec.obj
 0002:0002070c       $unwind$g722_dec_decode    000000014012270c     pjmedia-codec-x86_64-x64-vc14-debug-dynamic:g722_dec.obj
 0002:00020714       $unwind$g722_dec_deinit    0000000140122714     pjmedia-codec-x86_64-x64-vc14-debug-dynamic:g722_dec.obj
 0002:0002071c       $unwind$block2l            000000014012271c     pjmedia-codec-x86_64-x64-vc14-debug-dynamic:g722_dec.obj
 0002:00020724       $unwind$block3l            0000000140122724     pjmedia-codec-x86_64-x64-vc14-debug-dynamic:g722_dec.obj
 0002:0002072c       $unwind$block4l            000000014012272c     pjmedia-codec-x86_64-x64-vc14-debug-dynamic:g722_dec.obj
 0002:00020734       $unwind$block5l            0000000140122734     pjmedia-codec-x86_64-x64-vc14-debug-dynamic:g722_dec.obj
 0002:0002073c       $unwind$block6l            000000014012273c     pjmedia-codec-x86_64-x64-vc14-debug-dynamic:g722_dec.obj
 0002:00020744       $unwind$block2h            0000000140122744     pjmedia-codec-x86_64-x64-vc14-debug-dynamic:g722_dec.obj
 0002:0002074c       $unwind$block3h            000000014012274c     pjmedia-codec-x86_64-x64-vc14-debug-dynamic:g722_dec.obj
 0002:00020754       $unwind$block4h            0000000140122754     pjmedia-codec-x86_64-x64-vc14-debug-dynamic:g722_dec.obj
 0002:0002075c       $unwind$block5h            000000014012275c     pjmedia-codec-x86_64-x64-vc14-debug-dynamic:g722_dec.obj
 0002:00020764       $unwind$rx_qmf             0000000140122764     pjmedia-codec-x86_64-x64-vc14-debug-dynamic:g722_dec.obj
 0002:00020778       $unwind$pjmedia_aud_subsys_init 0000000140122778     pjmedia-audiodev-x86_64-x64-vc14-debug-dynamic:audiodev.obj
 0002:00020780       $unwind$pjmedia_aud_subsys_get_pool_factory 0000000140122780     pjmedia-audiodev-x86_64-x64-vc14-debug-dynamic:audiodev.obj
 0002:00020788       $unwind$pjmedia_aud_subsys_shutdown 0000000140122788     pjmedia-audiodev-x86_64-x64-vc14-debug-dynamic:audiodev.obj
 0002:00020790       $unwind$pjmedia_aud_register_factory 0000000140122790     pjmedia-audiodev-x86_64-x64-vc14-debug-dynamic:audiodev.obj
 0002:00020798       $unwind$pjmedia_aud_unregister_factory 0000000140122798     pjmedia-audiodev-x86_64-x64-vc14-debug-dynamic:audiodev.obj
 0002:000207a4       $unwind$pjmedia_audiodev_strerror 00000001401227a4     pjmedia-audiodev-x86_64-x64-vc14-debug-dynamic:errno.obj
 0002:000207b4       $unwind$pj_pool_zalloc     00000001401227b4     pjmedia-audiodev-x86_64-x64-vc14-debug-dynamic:wmme_dev.obj
 0002:000207bc       $unwind$pj_bzero           00000001401227bc     pjmedia-audiodev-x86_64-x64-vc14-debug-dynamic:wmme_dev.obj
 0002:000207c4       $unwind$pj_memset          00000001401227c4     pjmedia-audiodev-x86_64-x64-vc14-debug-dynamic:wmme_dev.obj
 0002:000207cc       $unwind$pj_memcpy          00000001401227cc     pjmedia-audiodev-x86_64-x64-vc14-debug-dynamic:wmme_dev.obj
 0002:000207d4       $unwind$pjmedia_frame_ext_append_subframe 00000001401227d4     pjmedia-audiodev-x86_64-x64-vc14-debug-dynamic:wmme_dev.obj
 0002:000207dc       $unwind$pjmedia_frame_ext_get_subframe 00000001401227dc     pjmedia-audiodev-x86_64-x64-vc14-debug-dynamic:wmme_dev.obj
 0002:000207e4       $unwind$pjmedia_frame_ext_copy_payload 00000001401227e4     pjmedia-audiodev-x86_64-x64-vc14-debug-dynamic:wmme_dev.obj
 0002:000207ec       $unwind$factory_init       00000001401227ec     pjmedia-audiodev-x86_64-x64-vc14-debug-dynamic:wmme_dev.obj
 0002:000207f4       $unwind$factory_destroy    00000001401227f4     pjmedia-audiodev-x86_64-x64-vc14-debug-dynamic:wmme_dev.obj
 0002:000207fc       $unwind$factory_refresh    00000001401227fc     pjmedia-audiodev-x86_64-x64-vc14-debug-dynamic:wmme_dev.obj
 0002:0002080c       $unwind$factory_get_dev_count 000000014012280c     pjmedia-audiodev-x86_64-x64-vc14-debug-dynamic:wmme_dev.obj
 0002:00020814       $unwind$factory_get_dev_info 0000000140122814     pjmedia-audiodev-x86_64-x64-vc14-debug-dynamic:wmme_dev.obj
 0002:0002081c       $unwind$factory_default_param 000000014012281c     pjmedia-audiodev-x86_64-x64-vc14-debug-dynamic:wmme_dev.obj
 0002:00020824       $unwind$factory_create_stream 0000000140122824     pjmedia-audiodev-x86_64-x64-vc14-debug-dynamic:wmme_dev.obj
 0002:0002082c       $unwind$stream_get_param   000000014012282c     pjmedia-audiodev-x86_64-x64-vc14-debug-dynamic:wmme_dev.obj
 0002:00020834       $unwind$stream_get_cap     0000000140122834     pjmedia-audiodev-x86_64-x64-vc14-debug-dynamic:wmme_dev.obj
 0002:0002083c       $unwind$stream_set_cap     000000014012283c     pjmedia-audiodev-x86_64-x64-vc14-debug-dynamic:wmme_dev.obj
 0002:00020844       $unwind$stream_start       0000000140122844     pjmedia-audiodev-x86_64-x64-vc14-debug-dynamic:wmme_dev.obj
 0002:0002084c       $unwind$stream_stop        000000014012284c     pjmedia-audiodev-x86_64-x64-vc14-debug-dynamic:wmme_dev.obj
 0002:00020854       $unwind$stream_destroy     0000000140122854     pjmedia-audiodev-x86_64-x64-vc14-debug-dynamic:wmme_dev.obj
 0002:0002085c       $unwind$pjmedia_wmme_factory 000000014012285c     pjmedia-audiodev-x86_64-x64-vc14-debug-dynamic:wmme_dev.obj
 0002:00020864       $unwind$build_dev_info     0000000140122864     pjmedia-audiodev-x86_64-x64-vc14-debug-dynamic:wmme_dev.obj
 0002:0002086c       $unwind$init_waveformatex  000000014012286c     pjmedia-audiodev-x86_64-x64-vc14-debug-dynamic:wmme_dev.obj
 0002:00020874       $unwind$get_fmt_name       0000000140122874     pjmedia-audiodev-x86_64-x64-vc14-debug-dynamic:wmme_dev.obj
 0002:0002087c       $unwind$init_player_stream 000000014012287c     pjmedia-audiodev-x86_64-x64-vc14-debug-dynamic:wmme_dev.obj
 0002:0002088c       $unwind$init_capture_stream 000000014012288c     pjmedia-audiodev-x86_64-x64-vc14-debug-dynamic:wmme_dev.obj
 0002:0002089c       $unwind$wmme_dev_thread    000000014012289c     pjmedia-audiodev-x86_64-x64-vc14-debug-dynamic:wmme_dev.obj
 0002:000208c4       $unwind$pj_bzero           00000001401228c4     pjmedia-x86_64-x64-vc14-debug-dynamic:port.obj
 0002:000208cc       $unwind$pjmedia_port_info_init 00000001401228cc     pjmedia-x86_64-x64-vc14-debug-dynamic:port.obj
 0002:000208d8       $unwind$pjmedia_port_info_init2 00000001401228d8     pjmedia-x86_64-x64-vc14-debug-dynamic:port.obj
 0002:000208e4       $unwind$pjmedia_port_get_clock_src 00000001401228e4     pjmedia-x86_64-x64-vc14-debug-dynamic:port.obj
 0002:000208ec       $unwind$pjmedia_port_get_frame 00000001401228ec     pjmedia-x86_64-x64-vc14-debug-dynamic:port.obj
 0002:000208f4       $unwind$pjmedia_port_put_frame 00000001401228f4     pjmedia-x86_64-x64-vc14-debug-dynamic:port.obj
 0002:000208fc       $unwind$pjmedia_port_destroy 00000001401228fc     pjmedia-x86_64-x64-vc14-debug-dynamic:port.obj
 0002:0002090c       $unwind$pj_list_push_back  000000014012290c     pjmedia-x86_64-x64-vc14-debug-dynamic:codec.obj
 0002:00020914       $unwind$pj_pool_zalloc     0000000140122914     pjmedia-x86_64-x64-vc14-debug-dynamic:codec.obj
 0002:0002091c       $unwind$pj_bzero           000000014012291c     pjmedia-x86_64-x64-vc14-debug-dynamic:codec.obj
 0002:00020924       $unwind$pj_memcpy          0000000140122924     pjmedia-x86_64-x64-vc14-debug-dynamic:codec.obj
 0002:0002092c       $unwind$pjmedia_codec_param_clone 000000014012292c     pjmedia-x86_64-x64-vc14-debug-dynamic:codec.obj
 0002:00020934       $unwind$pjmedia_codec_mgr_init 0000000140122934     pjmedia-x86_64-x64-vc14-debug-dynamic:codec.obj
 0002:0002093c       $unwind$pjmedia_codec_mgr_destroy 000000014012293c     pjmedia-x86_64-x64-vc14-debug-dynamic:codec.obj
 0002:00020944       $unwind$pjmedia_codec_mgr_register_factory 0000000140122944     pjmedia-x86_64-x64-vc14-debug-dynamic:codec.obj
 0002:00020954       $unwind$pjmedia_codec_mgr_unregister_factory 0000000140122954     pjmedia-x86_64-x64-vc14-debug-dynamic:codec.obj
 0002:0002095c       $unwind$pjmedia_codec_mgr_enum_codecs 000000014012295c     pjmedia-x86_64-x64-vc14-debug-dynamic:codec.obj
 0002:00020964       $unwind$pjmedia_codec_mgr_get_codec_info 0000000140122964     pjmedia-x86_64-x64-vc14-debug-dynamic:codec.obj
 0002:0002096c       $unwind$pjmedia_codec_info_to_id 000000014012296c     pjmedia-x86_64-x64-vc14-debug-dynamic:codec.obj
 0002:00020974       $unwind$pjmedia_codec_mgr_find_codecs_by_id 0000000140122974     pjmedia-x86_64-x64-vc14-debug-dynamic:codec.obj
 0002:0002097c       $unwind$pjmedia_codec_mgr_set_codec_priority 000000014012297c     pjmedia-x86_64-x64-vc14-debug-dynamic:codec.obj
 0002:00020984       $unwind$pjmedia_codec_mgr_get_default_param 0000000140122984     pjmedia-x86_64-x64-vc14-debug-dynamic:codec.obj
 0002:00020994       $unwind$pjmedia_codec_mgr_set_default_param 0000000140122994     pjmedia-x86_64-x64-vc14-debug-dynamic:codec.obj
 0002:000209a4       $unwind$pjmedia_codec_mgr_alloc_codec 00000001401229a4     pjmedia-x86_64-x64-vc14-debug-dynamic:codec.obj
 0002:000209ac       $unwind$pjmedia_codec_mgr_dealloc_codec 00000001401229ac     pjmedia-x86_64-x64-vc14-debug-dynamic:codec.obj
 0002:000209b4       $unwind$sort_codecs        00000001401229b4     pjmedia-x86_64-x64-vc14-debug-dynamic:codec.obj
 0002:000209bc       $unwind$swap_codec         00000001401229bc     pjmedia-x86_64-x64-vc14-debug-dynamic:codec.obj
 0002:000209e0       $unwind$pj_list_push_back  00000001401229e0     pjmedia-x86_64-x64-vc14-debug-dynamic:endpoint.obj
 0002:000209e8       $unwind$pj_pool_zalloc     00000001401229e8     pjmedia-x86_64-x64-vc14-debug-dynamic:endpoint.obj
 0002:000209f0       $unwind$pj_bzero           00000001401229f0     pjmedia-x86_64-x64-vc14-debug-dynamic:endpoint.obj
 0002:000209f8       $unwind$pjmedia_endpt_create2 00000001401229f8     pjmedia-x86_64-x64-vc14-debug-dynamic:endpoint.obj
 0002:00020a00       $unwind$pjmedia_endpt_destroy2 0000000140122a00     pjmedia-x86_64-x64-vc14-debug-dynamic:endpoint.obj
 0002:00020a08       $unwind$pjmedia_endpt_set_flag 0000000140122a08     pjmedia-x86_64-x64-vc14-debug-dynamic:endpoint.obj
 0002:00020a10       $unwind$pjmedia_endpt_get_flag 0000000140122a10     pjmedia-x86_64-x64-vc14-debug-dynamic:endpoint.obj
 0002:00020a18       $unwind$pjmedia_endpt_get_ioqueue 0000000140122a18     pjmedia-x86_64-x64-vc14-debug-dynamic:endpoint.obj
 0002:00020a20       $unwind$pjmedia_endpt_get_thread_count 0000000140122a20     pjmedia-x86_64-x64-vc14-debug-dynamic:endpoint.obj
 0002:00020a28       $unwind$pjmedia_endpt_get_thread 0000000140122a28     pjmedia-x86_64-x64-vc14-debug-dynamic:endpoint.obj
 0002:00020a30       $unwind$pjmedia_endpt_stop_threads 0000000140122a30     pjmedia-x86_64-x64-vc14-debug-dynamic:endpoint.obj
 0002:00020a38       $unwind$pjmedia_endpt_create_pool 0000000140122a38     pjmedia-x86_64-x64-vc14-debug-dynamic:endpoint.obj
 0002:00020a40       $unwind$pjmedia_endpt_create_sdp 0000000140122a40     pjmedia-x86_64-x64-vc14-debug-dynamic:endpoint.obj
 0002:00020a48       $unwind$pjmedia_endpt_create_base_sdp 0000000140122a48     pjmedia-x86_64-x64-vc14-debug-dynamic:endpoint.obj
 0002:00020a5c       $unwind$pjmedia_endpt_create_audio_sdp 0000000140122a5c     pjmedia-x86_64-x64-vc14-debug-dynamic:endpoint.obj
 0002:00020a70       $unwind$pjmedia_endpt_dump 0000000140122a70     pjmedia-x86_64-x64-vc14-debug-dynamic:endpoint.obj
 0002:00020a80       $unwind$pjmedia_endpt_atexit 0000000140122a80     pjmedia-x86_64-x64-vc14-debug-dynamic:endpoint.obj
 0002:00020a88       $unwind$worker_proc        0000000140122a88     pjmedia-x86_64-x64-vc14-debug-dynamic:endpoint.obj
 0002:00020a90       $unwind$init_sdp_media     0000000140122a90     pjmedia-x86_64-x64-vc14-debug-dynamic:endpoint.obj
 0002:00020aa4       $unwind$good_number        0000000140122aa4     pjmedia-x86_64-x64-vc14-debug-dynamic:endpoint.obj
 0002:00020ac0       $unwind$_vsprintf_l        0000000140122ac0     pjmedia-x86_64-x64-vc14-debug-dynamic:endpoint.obj
 0002:00020ac8       $unwind$sprintf            0000000140122ac8     pjmedia-x86_64-x64-vc14-debug-dynamic:endpoint.obj
 0002:00020ad0       $unwind$pj_pool_zalloc     0000000140122ad0     pjmedia-x86_64-x64-vc14-debug-dynamic:wav_player.obj
 0002:00020ad8       $unwind$pj_bzero           0000000140122ad8     pjmedia-x86_64-x64-vc14-debug-dynamic:wav_player.obj
 0002:00020ae0       $unwind$pj_memset          0000000140122ae0     pjmedia-x86_64-x64-vc14-debug-dynamic:wav_player.obj
 0002:00020ae8       $unwind$pj_memcpy          0000000140122ae8     pjmedia-x86_64-x64-vc14-debug-dynamic:wav_player.obj
 0002:00020af0       $unwind$pjmedia_wav_player_port_create 0000000140122af0     pjmedia-x86_64-x64-vc14-debug-dynamic:wav_player.obj
 0002:00020b00       $unwind$pjmedia_wav_player_get_info 0000000140122b00     pjmedia-x86_64-x64-vc14-debug-dynamic:wav_player.obj
 0002:00020b08       $unwind$pjmedia_wav_player_get_len 0000000140122b08     pjmedia-x86_64-x64-vc14-debug-dynamic:wav_player.obj
 0002:00020b10       $unwind$pjmedia_wav_player_port_set_pos 0000000140122b10     pjmedia-x86_64-x64-vc14-debug-dynamic:wav_player.obj
 0002:00020b18       $unwind$pjmedia_wav_player_port_get_pos 0000000140122b18     pjmedia-x86_64-x64-vc14-debug-dynamic:wav_player.obj
 0002:00020b20       $unwind$pjmedia_wav_player_set_eof_cb 0000000140122b20     pjmedia-x86_64-x64-vc14-debug-dynamic:wav_player.obj
 0002:00020b28       $unwind$pjmedia_wav_player_set_eof_cb2 0000000140122b28     pjmedia-x86_64-x64-vc14-debug-dynamic:wav_player.obj
 0002:00020b30       $unwind$file_get_frame     0000000140122b30     pjmedia-x86_64-x64-vc14-debug-dynamic:wav_player.obj
 0002:00020b40       $unwind$file_on_destroy    0000000140122b40     pjmedia-x86_64-x64-vc14-debug-dynamic:wav_player.obj
 0002:00020b48       $unwind$create_file_port   0000000140122b48     pjmedia-x86_64-x64-vc14-debug-dynamic:wav_player.obj
 0002:00020b54       $unwind$fill_buffer        0000000140122b54     pjmedia-x86_64-x64-vc14-debug-dynamic:wav_player.obj
 0002:00020b5c       $unwind$file_on_event      0000000140122b5c     pjmedia-x86_64-x64-vc14-debug-dynamic:wav_player.obj
 0002:00020b74       $unwind$pj_pool_zalloc     0000000140122b74     pjmedia-x86_64-x64-vc14-debug-dynamic:wav_writer.obj
 0002:00020b7c       $unwind$PJMEDIA_AFD_AVG_FSZ 0000000140122b7c     pjmedia-x86_64-x64-vc14-debug-dynamic:wav_writer.obj
 0002:00020b84       $unwind$pj_bzero           0000000140122b84     pjmedia-x86_64-x64-vc14-debug-dynamic:wav_writer.obj
 0002:00020b8c       $unwind$pj_memcpy          0000000140122b8c     pjmedia-x86_64-x64-vc14-debug-dynamic:wav_writer.obj
 0002:00020b94       $unwind$PJMEDIA_PIA_SRATE  0000000140122b94     pjmedia-x86_64-x64-vc14-debug-dynamic:wav_writer.obj
 0002:00020b9c       $unwind$PJMEDIA_PIA_AVG_FSZ 0000000140122b9c     pjmedia-x86_64-x64-vc14-debug-dynamic:wav_writer.obj
 0002:00020ba4       $unwind$pjmedia_wav_writer_port_create 0000000140122ba4     pjmedia-x86_64-x64-vc14-debug-dynamic:wav_writer.obj
 0002:00020bb4       $unwind$pjmedia_wav_writer_port_get_pos 0000000140122bb4     pjmedia-x86_64-x64-vc14-debug-dynamic:wav_writer.obj
 0002:00020bbc       $unwind$pjmedia_wav_writer_port_set_cb 0000000140122bbc     pjmedia-x86_64-x64-vc14-debug-dynamic:wav_writer.obj
 0002:00020bc4       $unwind$pjmedia_wav_writer_port_set_cb2 0000000140122bc4     pjmedia-x86_64-x64-vc14-debug-dynamic:wav_writer.obj
 0002:00020bcc       $unwind$file_put_frame     0000000140122bcc     pjmedia-x86_64-x64-vc14-debug-dynamic:wav_writer.obj
 0002:00020bdc       $unwind$file_on_destroy    0000000140122bdc     pjmedia-x86_64-x64-vc14-debug-dynamic:wav_writer.obj
 0002:00020be4       $unwind$flush_buffer       0000000140122be4     pjmedia-x86_64-x64-vc14-debug-dynamic:wav_writer.obj
 0002:00020bec       $unwind$file_on_event      0000000140122bec     pjmedia-x86_64-x64-vc14-debug-dynamic:wav_writer.obj
 0002:00020c00       $unwind$pj_list_empty      0000000140122c00     pjmedia-x86_64-x64-vc14-debug-dynamic:g711.obj
 0002:00020c08       $unwind$pj_pool_zalloc     0000000140122c08     pjmedia-x86_64-x64-vc14-debug-dynamic:g711.obj
 0002:00020c10       $unwind$pj_bzero           0000000140122c10     pjmedia-x86_64-x64-vc14-debug-dynamic:g711.obj
 0002:00020c18       $unwind$pjmedia_zero_samples 0000000140122c18     pjmedia-x86_64-x64-vc14-debug-dynamic:g711.obj
 0002:00020c20       $unwind$pj_timestamp_diff32 0000000140122c20     pjmedia-x86_64-x64-vc14-debug-dynamic:g711.obj
 0002:00020c28       $unwind$pjmedia_codec_g711_init 0000000140122c28     pjmedia-x86_64-x64-vc14-debug-dynamic:g711.obj
 0002:00020c30       $unwind$pjmedia_codec_g711_deinit 0000000140122c30     pjmedia-x86_64-x64-vc14-debug-dynamic:g711.obj
 0002:00020c38       $unwind$g711_test_alloc    0000000140122c38     pjmedia-x86_64-x64-vc14-debug-dynamic:g711.obj
 0002:00020c40       $unwind$g711_default_attr  0000000140122c40     pjmedia-x86_64-x64-vc14-debug-dynamic:g711.obj
 0002:00020c48       $unwind$g711_enum_codecs   0000000140122c48     pjmedia-x86_64-x64-vc14-debug-dynamic:g711.obj
 0002:00020c54       $unwind$g711_alloc_codec   0000000140122c54     pjmedia-x86_64-x64-vc14-debug-dynamic:g711.obj
 0002:00020c5c       $unwind$g711_dealloc_codec 0000000140122c5c     pjmedia-x86_64-x64-vc14-debug-dynamic:g711.obj
 0002:00020c6c       $unwind$g711_open          0000000140122c6c     pjmedia-x86_64-x64-vc14-debug-dynamic:g711.obj
 0002:00020c74       $unwind$g711_modify        0000000140122c74     pjmedia-x86_64-x64-vc14-debug-dynamic:g711.obj
 0002:00020c7c       $unwind$g711_parse         0000000140122c7c     pjmedia-x86_64-x64-vc14-debug-dynamic:g711.obj
 0002:00020c84       $unwind$g711_encode        0000000140122c84     pjmedia-x86_64-x64-vc14-debug-dynamic:g711.obj
 0002:00020c8c       $unwind$g711_decode        0000000140122c8c     pjmedia-x86_64-x64-vc14-debug-dynamic:g711.obj
 0002:00020c94       $unwind$g711_recover       0000000140122c94     pjmedia-x86_64-x64-vc14-debug-dynamic:g711.obj
 0002:00020cac       $unwind$pjmedia_plc_create 0000000140122cac     pjmedia-x86_64-x64-vc14-debug-dynamic:plc_common.obj
 0002:00020cb4       $unwind$pjmedia_plc_save   0000000140122cb4     pjmedia-x86_64-x64-vc14-debug-dynamic:plc_common.obj
 0002:00020cbc       $unwind$pjmedia_plc_generate 0000000140122cbc     pjmedia-x86_64-x64-vc14-debug-dynamic:plc_common.obj
 0002:00020cc4       $unwind$plc_wsola_create   0000000140122cc4     pjmedia-x86_64-x64-vc14-debug-dynamic:plc_common.obj
 0002:00020ccc       $unwind$plc_wsola_save     0000000140122ccc     pjmedia-x86_64-x64-vc14-debug-dynamic:plc_common.obj
 0002:00020cd4       $unwind$plc_wsola_generate 0000000140122cd4     pjmedia-x86_64-x64-vc14-debug-dynamic:plc_common.obj
 0002:00020ce0       $unwind$pj_pool_zalloc     0000000140122ce0     pjmedia-x86_64-x64-vc14-debug-dynamic:plc_common.obj
 0002:00020ce8       $unwind$pjmedia_silence_det_create 0000000140122ce8     pjmedia-x86_64-x64-vc14-debug-dynamic:silencedet.obj
 0002:00020cf0       $unwind$pjmedia_silence_det_set_name 0000000140122cf0     pjmedia-x86_64-x64-vc14-debug-dynamic:silencedet.obj
 0002:00020cf8       $unwind$pjmedia_silence_det_set_fixed 0000000140122cf8     pjmedia-x86_64-x64-vc14-debug-dynamic:silencedet.obj
 0002:00020d00       $unwind$pjmedia_silence_det_set_adaptive 0000000140122d00     pjmedia-x86_64-x64-vc14-debug-dynamic:silencedet.obj
 0002:00020d08       $unwind$pjmedia_silence_det_set_params 0000000140122d08     pjmedia-x86_64-x64-vc14-debug-dynamic:silencedet.obj
 0002:00020d10       $unwind$pjmedia_silence_det_disable 0000000140122d10     pjmedia-x86_64-x64-vc14-debug-dynamic:silencedet.obj
 0002:00020d18       $unwind$pjmedia_silence_det_detect 0000000140122d18     pjmedia-x86_64-x64-vc14-debug-dynamic:silencedet.obj
 0002:00020d20       $unwind$pjmedia_calc_avg_signal 0000000140122d20     pjmedia-x86_64-x64-vc14-debug-dynamic:silencedet.obj
 0002:00020d28       $unwind$pjmedia_silence_det_apply 0000000140122d28     pjmedia-x86_64-x64-vc14-debug-dynamic:silencedet.obj
 0002:00020d38       $unwind$pj_pool_zalloc     0000000140122d38     pjmedia-x86_64-x64-vc14-debug-dynamic:silencedet.obj
 0002:00020d40       $unwind$pj_bzero           0000000140122d40     pjmedia-x86_64-x64-vc14-debug-dynamic:audiodev.obj
 0002:00020d48       $unwind$pj_memcpy          0000000140122d48     pjmedia-x86_64-x64-vc14-debug-dynamic:audiodev.obj
 0002:00020d50       $unwind$pjmedia_aud_driver_init 0000000140122d50     pjmedia-x86_64-x64-vc14-debug-dynamic:audiodev.obj
 0002:00020d60       $unwind$pjmedia_aud_driver_deinit 0000000140122d60     pjmedia-x86_64-x64-vc14-debug-dynamic:audiodev.obj
 0002:00020d68       $unwind$pjmedia_aud_dev_cap_name 0000000140122d68     pjmedia-x86_64-x64-vc14-debug-dynamic:audiodev.obj
 0002:00020d70       $unwind$pjmedia_aud_param_set_cap 0000000140122d70     pjmedia-x86_64-x64-vc14-debug-dynamic:audiodev.obj
 0002:00020d78       $unwind$pjmedia_aud_param_get_cap 0000000140122d78     pjmedia-x86_64-x64-vc14-debug-dynamic:audiodev.obj
 0002:00020d80       $unwind$pjmedia_aud_dev_refresh 0000000140122d80     pjmedia-x86_64-x64-vc14-debug-dynamic:audiodev.obj
 0002:00020d88       $unwind$pjmedia_aud_dev_get_info 0000000140122d88     pjmedia-x86_64-x64-vc14-debug-dynamic:audiodev.obj
 0002:00020d90       $unwind$pjmedia_aud_dev_lookup 0000000140122d90     pjmedia-x86_64-x64-vc14-debug-dynamic:audiodev.obj
 0002:00020da0       $unwind$pjmedia_aud_dev_default_param 0000000140122da0     pjmedia-x86_64-x64-vc14-debug-dynamic:audiodev.obj
 0002:00020da8       $unwind$pjmedia_aud_stream_create 0000000140122da8     pjmedia-x86_64-x64-vc14-debug-dynamic:audiodev.obj
 0002:00020db8       $unwind$pjmedia_aud_stream_get_param 0000000140122db8     pjmedia-x86_64-x64-vc14-debug-dynamic:audiodev.obj
 0002:00020dc0       $unwind$pjmedia_aud_stream_get_cap 0000000140122dc0     pjmedia-x86_64-x64-vc14-debug-dynamic:audiodev.obj
 0002:00020dc8       $unwind$pjmedia_aud_stream_set_cap 0000000140122dc8     pjmedia-x86_64-x64-vc14-debug-dynamic:audiodev.obj
 0002:00020dd0       $unwind$pjmedia_aud_stream_start 0000000140122dd0     pjmedia-x86_64-x64-vc14-debug-dynamic:audiodev.obj
 0002:00020dd8       $unwind$pjmedia_aud_stream_stop 0000000140122dd8     pjmedia-x86_64-x64-vc14-debug-dynamic:audiodev.obj
 0002:00020de0       $unwind$pjmedia_aud_stream_destroy 0000000140122de0     pjmedia-x86_64-x64-vc14-debug-dynamic:audiodev.obj
 0002:00020de8       $unwind$get_cap_pointer    0000000140122de8     pjmedia-x86_64-x64-vc14-debug-dynamic:audiodev.obj
 0002:00020df0       $unwind$make_global_index  0000000140122df0     pjmedia-x86_64-x64-vc14-debug-dynamic:audiodev.obj
 0002:00020df8       $unwind$lookup_dev         0000000140122df8     pjmedia-x86_64-x64-vc14-debug-dynamic:audiodev.obj
 0002:00020e14       $unwind$pj_list_push_back  0000000140122e14     pjmedia-x86_64-x64-vc14-debug-dynamic:event.obj
 0002:00020e1c       $unwind$pj_pool_zalloc     0000000140122e1c     pjmedia-x86_64-x64-vc14-debug-dynamic:event.obj
 0002:00020e24       $unwind$pj_bzero           0000000140122e24     pjmedia-x86_64-x64-vc14-debug-dynamic:event.obj
 0002:00020e2c       $unwind$pj_memcpy          0000000140122e2c     pjmedia-x86_64-x64-vc14-debug-dynamic:event.obj
 0002:00020e34       $unwind$pjmedia_event_mgr_create 0000000140122e34     pjmedia-x86_64-x64-vc14-debug-dynamic:event.obj
 0002:00020e3c       $unwind$pjmedia_event_mgr_destroy 0000000140122e3c     pjmedia-x86_64-x64-vc14-debug-dynamic:event.obj
 0002:00020e44       $unwind$pjmedia_event_init 0000000140122e44     pjmedia-x86_64-x64-vc14-debug-dynamic:event.obj
 0002:00020e4c       $unwind$pjmedia_event_subscribe 0000000140122e4c     pjmedia-x86_64-x64-vc14-debug-dynamic:event.obj
 0002:00020e54       $unwind$pjmedia_event_unsubscribe 0000000140122e54     pjmedia-x86_64-x64-vc14-debug-dynamic:event.obj
 0002:00020e5c       $unwind$pjmedia_event_publish 0000000140122e5c     pjmedia-x86_64-x64-vc14-debug-dynamic:event.obj
 0002:00020e64       $unwind$event_queue_add_event 0000000140122e64     pjmedia-x86_64-x64-vc14-debug-dynamic:event.obj
 0002:00020e74       $unwind$event_mgr_distribute_events 0000000140122e74     pjmedia-x86_64-x64-vc14-debug-dynamic:event.obj
 0002:00020e7c       $unwind$event_worker_thread 0000000140122e7c     pjmedia-x86_64-x64-vc14-debug-dynamic:event.obj
 0002:00020e90       $unwind$pjmedia_format_copy 0000000140122e90     pjmedia-x86_64-x64-vc14-debug-dynamic:format.obj
 0002:00020e98       $unwind$pjmedia_format_get_audio_format_detail 0000000140122e98     pjmedia-x86_64-x64-vc14-debug-dynamic:format.obj
 0002:00020ea0       $unwind$pj_memcpy          0000000140122ea0     pjmedia-x86_64-x64-vc14-debug-dynamic:format.obj
 0002:00020eac       $unwind$pjmedia_sdp_attr_create 0000000140122eac     pjmedia-x86_64-x64-vc14-debug-dynamic:sdp.obj
 0002:00020eb4       $unwind$pjmedia_sdp_attr_clone 0000000140122eb4     pjmedia-x86_64-x64-vc14-debug-dynamic:sdp.obj
 0002:00020ebc       $unwind$pjmedia_sdp_attr_find 0000000140122ebc     pjmedia-x86_64-x64-vc14-debug-dynamic:sdp.obj
 0002:00020ec4       $unwind$pjmedia_sdp_attr_find2 0000000140122ec4     pjmedia-x86_64-x64-vc14-debug-dynamic:sdp.obj
 0002:00020ecc       $unwind$pjmedia_sdp_attr_add 0000000140122ecc     pjmedia-x86_64-x64-vc14-debug-dynamic:sdp.obj
 0002:00020ed4       $unwind$pjmedia_sdp_attr_remove_all 0000000140122ed4     pjmedia-x86_64-x64-vc14-debug-dynamic:sdp.obj
 0002:00020edc       $unwind$pjmedia_sdp_attr_remove 0000000140122edc     pjmedia-x86_64-x64-vc14-debug-dynamic:sdp.obj
 0002:00020ee4       $unwind$pjmedia_sdp_attr_to_rtpmap 0000000140122ee4     pjmedia-x86_64-x64-vc14-debug-dynamic:sdp.obj
 0002:00020eec       $unwind$pjmedia_sdp_attr_get_rtpmap 0000000140122eec     pjmedia-x86_64-x64-vc14-debug-dynamic:sdp.obj
 0002:00020efc       $unwind$pjmedia_sdp_rtpmap_to_attr 0000000140122efc     pjmedia-x86_64-x64-vc14-debug-dynamic:sdp.obj
 0002:00020f0c       $unwind$pjmedia_sdp_attr_get_fmtp 0000000140122f0c     pjmedia-x86_64-x64-vc14-debug-dynamic:sdp.obj
 0002:00020f18       $unwind$pjmedia_sdp_attr_get_rtcp 0000000140122f18     pjmedia-x86_64-x64-vc14-debug-dynamic:sdp.obj
 0002:00020f28       $unwind$pjmedia_sdp_attr_create_rtcp 0000000140122f28     pjmedia-x86_64-x64-vc14-debug-dynamic:sdp.obj
 0002:00020f3c       $unwind$pjmedia_sdp_attr_get_ssrc 0000000140122f3c     pjmedia-x86_64-x64-vc14-debug-dynamic:sdp.obj
 0002:00020f4c       $unwind$pjmedia_sdp_attr_create_ssrc 0000000140122f4c     pjmedia-x86_64-x64-vc14-debug-dynamic:sdp.obj
 0002:00020f58       $unwind$pjmedia_sdp_conn_clone 0000000140122f58     pjmedia-x86_64-x64-vc14-debug-dynamic:sdp.obj
 0002:00020f60       $unwind$pjmedia_sdp_bandw_clone 0000000140122f60     pjmedia-x86_64-x64-vc14-debug-dynamic:sdp.obj
 0002:00020f68       $unwind$pjmedia_sdp_media_clone 0000000140122f68     pjmedia-x86_64-x64-vc14-debug-dynamic:sdp.obj
 0002:00020f70       $unwind$pjmedia_sdp_media_find_attr 0000000140122f70     pjmedia-x86_64-x64-vc14-debug-dynamic:sdp.obj
 0002:00020f78       $unwind$pjmedia_sdp_media_find_attr2 0000000140122f78     pjmedia-x86_64-x64-vc14-debug-dynamic:sdp.obj
 0002:00020f80       $unwind$pjmedia_sdp_media_add_attr 0000000140122f80     pjmedia-x86_64-x64-vc14-debug-dynamic:sdp.obj
 0002:00020f88       $unwind$pjmedia_sdp_media_remove_all_attr 0000000140122f88     pjmedia-x86_64-x64-vc14-debug-dynamic:sdp.obj
 0002:00020f90       $unwind$pjmedia_sdp_media_remove_attr 0000000140122f90     pjmedia-x86_64-x64-vc14-debug-dynamic:sdp.obj
 0002:00020f98       $unwind$pjmedia_sdp_transport_cmp 0000000140122f98     pjmedia-x86_64-x64-vc14-debug-dynamic:sdp.obj
 0002:00020fa0       $unwind$pjmedia_sdp_transport_get_proto 0000000140122fa0     pjmedia-x86_64-x64-vc14-debug-dynamic:sdp.obj
 0002:00020fa8       $unwind$pjmedia_sdp_media_deactivate 0000000140122fa8     pjmedia-x86_64-x64-vc14-debug-dynamic:sdp.obj
 0002:00020fb0       $unwind$pjmedia_sdp_media_clone_deactivate 0000000140122fb0     pjmedia-x86_64-x64-vc14-debug-dynamic:sdp.obj
 0002:00020fb8       $unwind$pjmedia_sdp_parse  0000000140122fb8     pjmedia-x86_64-x64-vc14-debug-dynamic:sdp.obj
 0002:00020fc8       $unwind$pjmedia_sdp_print  0000000140122fc8     pjmedia-x86_64-x64-vc14-debug-dynamic:sdp.obj
 0002:00020fd0       $unwind$pjmedia_sdp_validate 0000000140122fd0     pjmedia-x86_64-x64-vc14-debug-dynamic:sdp.obj
 0002:00020fd8       $unwind$pjmedia_sdp_validate2 0000000140122fd8     pjmedia-x86_64-x64-vc14-debug-dynamic:sdp.obj
 0002:00020fe0       $unwind$pjmedia_sdp_session_clone 0000000140122fe0     pjmedia-x86_64-x64-vc14-debug-dynamic:sdp.obj
 0002:00020fe8       $unwind$pjmedia_sdp_session_add_attr 0000000140122fe8     pjmedia-x86_64-x64-vc14-debug-dynamic:sdp.obj
 0002:00020ff0       $unwind$pj_bzero           0000000140122ff0     pjmedia-x86_64-x64-vc14-debug-dynamic:sdp.obj
 0002:00020ff8       $unwind$pj_memcpy          0000000140122ff8     pjmedia-x86_64-x64-vc14-debug-dynamic:sdp.obj
 0002:00021000       $unwind$pj_pool_zalloc     0000000140123000     pjmedia-x86_64-x64-vc14-debug-dynamic:sdp.obj
 0002:00021008       $unwind$pj_isdigit         0000000140123008     pjmedia-x86_64-x64-vc14-debug-dynamic:sdp.obj
 0002:00021010       $unwind$parse_version      0000000140123010     pjmedia-x86_64-x64-vc14-debug-dynamic:sdp.obj
 0002:00021018       $unwind$parse_origin       0000000140123018     pjmedia-x86_64-x64-vc14-debug-dynamic:sdp.obj
 0002:00021020       $unwind$parse_time         0000000140123020     pjmedia-x86_64-x64-vc14-debug-dynamic:sdp.obj
 0002:00021028       $unwind$parse_generic_line 0000000140123028     pjmedia-x86_64-x64-vc14-debug-dynamic:sdp.obj
 0002:00021030       $unwind$parse_connection_info 0000000140123030     pjmedia-x86_64-x64-vc14-debug-dynamic:sdp.obj
 0002:00021038       $unwind$parse_bandwidth_info 0000000140123038     pjmedia-x86_64-x64-vc14-debug-dynamic:sdp.obj
 0002:00021040       $unwind$parse_attr         0000000140123040     pjmedia-x86_64-x64-vc14-debug-dynamic:sdp.obj
 0002:00021048       $unwind$parse_media        0000000140123048     pjmedia-x86_64-x64-vc14-debug-dynamic:sdp.obj
 0002:00021054       $unwind$on_scanner_error   0000000140123054     pjmedia-x86_64-x64-vc14-debug-dynamic:sdp.obj
 0002:0002105c       $unwind$init_sdp_parser    000000014012305c     pjmedia-x86_64-x64-vc14-debug-dynamic:sdp.obj
 0002:00021064       $unwind$print_connection_info 0000000140123064     pjmedia-x86_64-x64-vc14-debug-dynamic:sdp.obj
 0002:0002106c       $unwind$print_bandw        000000014012306c     pjmedia-x86_64-x64-vc14-debug-dynamic:sdp.obj
 0002:00021074       $unwind$print_attr         0000000140123074     pjmedia-x86_64-x64-vc14-debug-dynamic:sdp.obj
 0002:0002107c       $unwind$print_media_desc   000000014012307c     pjmedia-x86_64-x64-vc14-debug-dynamic:sdp.obj
 0002:00021084       $unwind$print_session      0000000140123084     pjmedia-x86_64-x64-vc14-debug-dynamic:sdp.obj
 0002:0002108c       $unwind$apply_media_direction 000000014012308c     pjmedia-x86_64-x64-vc14-debug-dynamic:sdp.obj
 0002:00021094       $unwind$validate_sdp_conn  0000000140123094     pjmedia-x86_64-x64-vc14-debug-dynamic:sdp.obj
 0002:000210d0       $unwind$pj_scan_is_eof     00000001401230d0     pjmedia-x86_64-x64-vc14-debug-dynamic:sdp.obj
 0002:000210d8       $unwind$pjmedia_strerror   00000001401230d8     pjmedia-x86_64-x64-vc14-debug-dynamic:errno.obj
 0002:000210e8       $unwind$pjmedia_wave_hdr_file_to_host 00000001401230e8     pjmedia-x86_64-x64-vc14-debug-dynamic:wave.obj
 0002:000210f0       $unwind$pjmedia_wave_hdr_host_to_file 00000001401230f0     pjmedia-x86_64-x64-vc14-debug-dynamic:wave.obj
 0002:000210fc       $unwind$pjmedia_wsola_create 00000001401230fc     pjmedia-x86_64-x64-vc14-debug-dynamic:wsola.obj
 0002:00021104       $unwind$pjmedia_wsola_set_max_expand 0000000140123104     pjmedia-x86_64-x64-vc14-debug-dynamic:wsola.obj
 0002:0002110c       $unwind$pjmedia_wsola_reset 000000014012310c     pjmedia-x86_64-x64-vc14-debug-dynamic:wsola.obj
 0002:00021114       $unwind$pjmedia_wsola_save 0000000140123114     pjmedia-x86_64-x64-vc14-debug-dynamic:wsola.obj
 0002:0002111c       $unwind$pjmedia_wsola_generate 000000014012311c     pjmedia-x86_64-x64-vc14-debug-dynamic:wsola.obj
 0002:00021124       $unwind$pjmedia_wsola_discard 0000000140123124     pjmedia-x86_64-x64-vc14-debug-dynamic:wsola.obj
 0002:0002112c       $unwind$pj_bzero           000000014012312c     pjmedia-x86_64-x64-vc14-debug-dynamic:wsola.obj
 0002:00021134       $unwind$pj_memcpy          0000000140123134     pjmedia-x86_64-x64-vc14-debug-dynamic:wsola.obj
 0002:0002113c       $unwind$pj_memmove         000000014012313c     pjmedia-x86_64-x64-vc14-debug-dynamic:wsola.obj
 0002:00021144       $unwind$pjmedia_zero_samples 0000000140123144     pjmedia-x86_64-x64-vc14-debug-dynamic:wsola.obj
 0002:0002114c       $unwind$pjmedia_copy_samples 000000014012314c     pjmedia-x86_64-x64-vc14-debug-dynamic:wsola.obj
 0002:00021154       $unwind$pjmedia_move_samples 0000000140123154     pjmedia-x86_64-x64-vc14-debug-dynamic:wsola.obj
 0002:0002115c       $unwind$pjmedia_circ_buf_create 000000014012315c     pjmedia-x86_64-x64-vc14-debug-dynamic:wsola.obj
 0002:00021164       $unwind$pjmedia_circ_buf_adv_read_ptr 0000000140123164     pjmedia-x86_64-x64-vc14-debug-dynamic:wsola.obj
 0002:0002116c       $unwind$pjmedia_circ_buf_write 000000014012316c     pjmedia-x86_64-x64-vc14-debug-dynamic:wsola.obj
 0002:00021174       $unwind$pjmedia_circ_buf_copy 0000000140123174     pjmedia-x86_64-x64-vc14-debug-dynamic:wsola.obj
 0002:0002117c       $unwind$pjmedia_circ_buf_pack_buffer 000000014012317c     pjmedia-x86_64-x64-vc14-debug-dynamic:wsola.obj
 0002:00021184       $unwind$find_pitch         0000000140123184     pjmedia-x86_64-x64-vc14-debug-dynamic:wsola.obj
 0002:0002118c       $unwind$overlapp_add       000000014012318c     pjmedia-x86_64-x64-vc14-debug-dynamic:wsola.obj
 0002:00021194       $unwind$overlapp_add_simple 0000000140123194     pjmedia-x86_64-x64-vc14-debug-dynamic:wsola.obj
 0002:0002119c       $unwind$create_win         000000014012319c     pjmedia-x86_64-x64-vc14-debug-dynamic:wsola.obj
 0002:000211a4       $unwind$fade_in            00000001401231a4     pjmedia-x86_64-x64-vc14-debug-dynamic:wsola.obj
 0002:000211ac       $unwind$wsola_fade_out     00000001401231ac     pjmedia-x86_64-x64-vc14-debug-dynamic:wsola.obj
 0002:000211b4       $unwind$expand             00000001401231b4     pjmedia-x86_64-x64-vc14-debug-dynamic:wsola.obj
 0002:000211bc       $unwind$compress           00000001401231bc     pjmedia-x86_64-x64-vc14-debug-dynamic:wsola.obj
 0002:000211d8       $unwind$pj_pool_zalloc     00000001401231d8     pjmedia-x86_64-x64-vc14-debug-dynamic:wsola.obj
 0002:000211e0       $unwind$pj_bzero           00000001401231e0     pjmedia-x86_64-x64-vc14-debug-dynamic:transport_srtp.obj
 0002:000211e8       $unwind$pj_memcpy          00000001401231e8     pjmedia-x86_64-x64-vc14-debug-dynamic:transport_srtp.obj
 0002:000211f0       $unwind$pj_memmove         00000001401231f0     pjmedia-x86_64-x64-vc14-debug-dynamic:transport_srtp.obj
 0002:000211f8       $unwind$pjmedia_transport_get_info 00000001401231f8     pjmedia-x86_64-x64-vc14-debug-dynamic:transport_srtp.obj
 0002:00021200       $unwind$pjmedia_transport_attach2 0000000140123200     pjmedia-x86_64-x64-vc14-debug-dynamic:transport_srtp.obj
 0002:00021208       $unwind$pjmedia_transport_detach 0000000140123208     pjmedia-x86_64-x64-vc14-debug-dynamic:transport_srtp.obj
 0002:00021210       $unwind$pjmedia_transport_send_rtp 0000000140123210     pjmedia-x86_64-x64-vc14-debug-dynamic:transport_srtp.obj
 0002:00021218       $unwind$pjmedia_transport_send_rtcp2 0000000140123218     pjmedia-x86_64-x64-vc14-debug-dynamic:transport_srtp.obj
 0002:00021220       $unwind$pjmedia_transport_media_create 0000000140123220     pjmedia-x86_64-x64-vc14-debug-dynamic:transport_srtp.obj
 0002:00021228       $unwind$pjmedia_transport_encode_sdp 0000000140123228     pjmedia-x86_64-x64-vc14-debug-dynamic:transport_srtp.obj
 0002:00021230       $unwind$pjmedia_transport_media_start 0000000140123230     pjmedia-x86_64-x64-vc14-debug-dynamic:transport_srtp.obj
 0002:00021238       $unwind$pjmedia_transport_media_stop 0000000140123238     pjmedia-x86_64-x64-vc14-debug-dynamic:transport_srtp.obj
 0002:00021240       $unwind$pjmedia_transport_close 0000000140123240     pjmedia-x86_64-x64-vc14-debug-dynamic:transport_srtp.obj
 0002:00021248       $unwind$pjmedia_transport_simulate_lost 0000000140123248     pjmedia-x86_64-x64-vc14-debug-dynamic:transport_srtp.obj
 0002:00021250       $unwind$pjmedia_srtp_init_lib 0000000140123250     pjmedia-x86_64-x64-vc14-debug-dynamic:transport_srtp.obj
 0002:00021258       $unwind$pjmedia_srtp_setting_default 0000000140123258     pjmedia-x86_64-x64-vc14-debug-dynamic:transport_srtp.obj
 0002:00021260       $unwind$pjmedia_srtp_enum_crypto 0000000140123260     pjmedia-x86_64-x64-vc14-debug-dynamic:transport_srtp.obj
 0002:0002126c       $unwind$pjmedia_srtp_enum_keying 000000014012326c     pjmedia-x86_64-x64-vc14-debug-dynamic:transport_srtp.obj
 0002:00021274       $unwind$pjmedia_transport_srtp_create 0000000140123274     pjmedia-x86_64-x64-vc14-debug-dynamic:transport_srtp.obj
 0002:00021280       $unwind$pjmedia_transport_srtp_start 0000000140123280     pjmedia-x86_64-x64-vc14-debug-dynamic:transport_srtp.obj
 0002:00021294       $unwind$pjmedia_transport_srtp_stop 0000000140123294     pjmedia-x86_64-x64-vc14-debug-dynamic:transport_srtp.obj
 0002:0002129c       $unwind$pjmedia_transport_srtp_decrypt_pkt 000000014012329c     pjmedia-x86_64-x64-vc14-debug-dynamic:transport_srtp.obj
 0002:000212a4       $unwind$pjmedia_transport_srtp_get_member 00000001401232a4     pjmedia-x86_64-x64-vc14-debug-dynamic:transport_srtp.obj
 0002:000212ac       $unwind$pj_pool_zalloc     00000001401232ac     pjmedia-x86_64-x64-vc14-debug-dynamic:transport_srtp.obj
 0002:000212b4       $unwind$pj_isdigit         00000001401232b4     pjmedia-x86_64-x64-vc14-debug-dynamic:transport_srtp.obj
 0002:000212bc       $unwind$srtp_rtp_cb        00000001401232bc     pjmedia-x86_64-x64-vc14-debug-dynamic:transport_srtp.obj
 0002:000212c8       $unwind$srtp_rtcp_cb       00000001401232c8     pjmedia-x86_64-x64-vc14-debug-dynamic:transport_srtp.obj
 0002:000212d0       $unwind$transport_get_info 00000001401232d0     pjmedia-x86_64-x64-vc14-debug-dynamic:transport_srtp.obj
 0002:000212dc       $unwind$transport_detach   00000001401232dc     pjmedia-x86_64-x64-vc14-debug-dynamic:transport_srtp.obj
 0002:000212e4       $unwind$transport_send_rtp 00000001401232e4     pjmedia-x86_64-x64-vc14-debug-dynamic:transport_srtp.obj
 0002:000212ec       $unwind$transport_send_rtcp 00000001401232ec     pjmedia-x86_64-x64-vc14-debug-dynamic:transport_srtp.obj
 0002:000212f4       $unwind$transport_send_rtcp2 00000001401232f4     pjmedia-x86_64-x64-vc14-debug-dynamic:transport_srtp.obj
 0002:000212fc       $unwind$transport_media_create 00000001401232fc     pjmedia-x86_64-x64-vc14-debug-dynamic:transport_srtp.obj
 0002:00021304       $unwind$transport_encode_sdp 0000000140123304     pjmedia-x86_64-x64-vc14-debug-dynamic:transport_srtp.obj
 0002:0002130c       $unwind$transport_media_start 000000014012330c     pjmedia-x86_64-x64-vc14-debug-dynamic:transport_srtp.obj
 0002:00021314       $unwind$transport_media_stop 0000000140123314     pjmedia-x86_64-x64-vc14-debug-dynamic:transport_srtp.obj
 0002:0002131c       $unwind$transport_simulate_lost 000000014012331c     pjmedia-x86_64-x64-vc14-debug-dynamic:transport_srtp.obj
 0002:00021324       $unwind$transport_destroy  0000000140123324     pjmedia-x86_64-x64-vc14-debug-dynamic:transport_srtp.obj
 0002:0002132c       $unwind$transport_attach2  000000014012332c     pjmedia-x86_64-x64-vc14-debug-dynamic:transport_srtp.obj
 0002:00021340       $unwind$get_crypto_idx     0000000140123340     pjmedia-x86_64-x64-vc14-debug-dynamic:transport_srtp.obj
 0002:00021348       $unwind$srtp_crypto_empty  0000000140123348     pjmedia-x86_64-x64-vc14-debug-dynamic:transport_srtp.obj
 0002:00021350       $unwind$srtp_crypto_cmp    0000000140123350     pjmedia-x86_64-x64-vc14-debug-dynamic:transport_srtp.obj
 0002:00021358       $unwind$start_srtp         0000000140123358     pjmedia-x86_64-x64-vc14-debug-dynamic:transport_srtp.obj
 0002:00021360       $unwind$get_libsrtp_errstr 0000000140123360     pjmedia-x86_64-x64-vc14-debug-dynamic:transport_srtp.obj
 0002:00021368       $unwind$sdes_media_create  0000000140123368     pjmedia-x86_64-x64-vc14-debug-dynamic:transport_srtp.obj
 0002:00021370       $unwind$sdes_encode_sdp    0000000140123370     pjmedia-x86_64-x64-vc14-debug-dynamic:transport_srtp.obj
 0002:00021384       $unwind$sdes_media_start   0000000140123384     pjmedia-x86_64-x64-vc14-debug-dynamic:transport_srtp.obj
 0002:00021398       $unwind$sdes_create        0000000140123398     pjmedia-x86_64-x64-vc14-debug-dynamic:transport_srtp.obj
 0002:000213a0       $unwind$generate_crypto_attr_value 00000001401233a0     pjmedia-x86_64-x64-vc14-debug-dynamic:transport_srtp.obj
 0002:000213b0       $unwind$parse_attr_crypto  00000001401233b0     pjmedia-x86_64-x64-vc14-debug-dynamic:transport_srtp.obj
 0002:000213bc       $unwind$fill_local_crypto  00000001401233bc     pjmedia-x86_64-x64-vc14-debug-dynamic:transport_srtp.obj
 0002:000213c8       $unwind$pjmedia_srtp_deinit_lib 00000001401233c8     pjmedia-x86_64-x64-vc14-debug-dynamic:transport_srtp.obj
 0002:00021404       $unwind$pj_cis_buf_init    0000000140123404     pjlib-util-x86_64-x64-vc14-debug-dynamic:scanner.obj
 0002:0002140c       $unwind$pj_cis_init        000000014012340c     pjlib-util-x86_64-x64-vc14-debug-dynamic:scanner.obj
 0002:00021414       $unwind$pj_cis_dup         0000000140123414     pjlib-util-x86_64-x64-vc14-debug-dynamic:scanner.obj
 0002:0002141c       $unwind$pj_cis_add_range   000000014012341c     pjlib-util-x86_64-x64-vc14-debug-dynamic:scanner.obj
 0002:00021424       $unwind$pj_cis_add_alpha   0000000140123424     pjlib-util-x86_64-x64-vc14-debug-dynamic:scanner.obj
 0002:0002142c       $unwind$pj_cis_add_num     000000014012342c     pjlib-util-x86_64-x64-vc14-debug-dynamic:scanner.obj
 0002:00021434       $unwind$pj_cis_add_str     0000000140123434     pjlib-util-x86_64-x64-vc14-debug-dynamic:scanner.obj
 0002:0002143c       $unwind$pj_cis_add_cis     000000014012343c     pjlib-util-x86_64-x64-vc14-debug-dynamic:scanner.obj
 0002:00021444       $unwind$pj_cis_del_range   0000000140123444     pjlib-util-x86_64-x64-vc14-debug-dynamic:scanner.obj
 0002:0002144c       $unwind$pj_cis_del_str     000000014012344c     pjlib-util-x86_64-x64-vc14-debug-dynamic:scanner.obj
 0002:00021454       $unwind$pj_cis_invert      0000000140123454     pjlib-util-x86_64-x64-vc14-debug-dynamic:scanner.obj
 0002:0002145c       $unwind$pj_scan_init       000000014012345c     pjlib-util-x86_64-x64-vc14-debug-dynamic:scanner.obj
 0002:00021464       $unwind$pj_scan_fini       0000000140123464     pjlib-util-x86_64-x64-vc14-debug-dynamic:scanner.obj
 0002:0002146c       $unwind$pj_scan_peek       000000014012346c     pjlib-util-x86_64-x64-vc14-debug-dynamic:scanner.obj
 0002:00021474       $unwind$pj_scan_peek_n     0000000140123474     pjlib-util-x86_64-x64-vc14-debug-dynamic:scanner.obj
 0002:0002147c       $unwind$pj_scan_peek_until 000000014012347c     pjlib-util-x86_64-x64-vc14-debug-dynamic:scanner.obj
 0002:00021484       $unwind$pj_scan_get        0000000140123484     pjlib-util-x86_64-x64-vc14-debug-dynamic:scanner.obj
 0002:0002148c       $unwind$pj_scan_get_unescape 000000014012348c     pjlib-util-x86_64-x64-vc14-debug-dynamic:scanner.obj
 0002:00021494       $unwind$pj_scan_get_quote  0000000140123494     pjlib-util-x86_64-x64-vc14-debug-dynamic:scanner.obj
 0002:0002149c       $unwind$pj_scan_get_quotes 000000014012349c     pjlib-util-x86_64-x64-vc14-debug-dynamic:scanner.obj
 0002:000214a4       $unwind$pj_scan_get_n      00000001401234a4     pjlib-util-x86_64-x64-vc14-debug-dynamic:scanner.obj
 0002:000214ac       $unwind$pj_scan_get_char   00000001401234ac     pjlib-util-x86_64-x64-vc14-debug-dynamic:scanner.obj
 0002:000214b4       $unwind$pj_scan_get_until  00000001401234b4     pjlib-util-x86_64-x64-vc14-debug-dynamic:scanner.obj
 0002:000214bc       $unwind$pj_scan_get_until_ch 00000001401234bc     pjlib-util-x86_64-x64-vc14-debug-dynamic:scanner.obj
 0002:000214c4       $unwind$pj_scan_get_until_chr 00000001401234c4     pjlib-util-x86_64-x64-vc14-debug-dynamic:scanner.obj
 0002:000214cc       $unwind$pj_scan_advance_n  00000001401234cc     pjlib-util-x86_64-x64-vc14-debug-dynamic:scanner.obj
 0002:000214d4       $unwind$pj_scan_strcmp     00000001401234d4     pjlib-util-x86_64-x64-vc14-debug-dynamic:scanner.obj
 0002:000214dc       $unwind$pj_scan_stricmp    00000001401234dc     pjlib-util-x86_64-x64-vc14-debug-dynamic:scanner.obj
 0002:000214e4       $unwind$pj_scan_stricmp_alnum 00000001401234e4     pjlib-util-x86_64-x64-vc14-debug-dynamic:scanner.obj
 0002:000214ec       $unwind$pj_scan_get_newline 00000001401234ec     pjlib-util-x86_64-x64-vc14-debug-dynamic:scanner.obj
 0002:000214f4       $unwind$pj_scan_skip_whitespace 00000001401234f4     pjlib-util-x86_64-x64-vc14-debug-dynamic:scanner.obj
 0002:000214fc       $unwind$pj_scan_skip_line  00000001401234fc     pjlib-util-x86_64-x64-vc14-debug-dynamic:scanner.obj
 0002:00021504       $unwind$pj_isxdigit        0000000140123504     pjlib-util-x86_64-x64-vc14-debug-dynamic:scanner.obj
 0002:0002150c       $unwind$pj_bzero           000000014012350c     pjlib-util-x86_64-x64-vc14-debug-dynamic:scanner.obj
 0002:00021514       $unwind$pj_memmove         0000000140123514     pjlib-util-x86_64-x64-vc14-debug-dynamic:scanner.obj
 0002:0002151c       $unwind$pj_scan_syntax_err 000000014012351c     pjlib-util-x86_64-x64-vc14-debug-dynamic:scanner.obj
 0002:00021540       $unwind$pj_cis_match       0000000140123540     pjlib-util-x86_64-x64-vc14-debug-dynamic:scanner.obj
 0002:00021548       $unwind$pj_base64_encode   0000000140123548     pjlib-util-x86_64-x64-vc14-debug-dynamic:base64.obj
 0002:00021550       $unwind$pj_base64_decode   0000000140123550     pjlib-util-x86_64-x64-vc14-debug-dynamic:base64.obj
 0002:00021560       $unwind$base256to64        0000000140123560     pjlib-util-x86_64-x64-vc14-debug-dynamic:base64.obj
 0002:0002156c       $unwind$pj_init            000000014012356c     pjlib-x86_64-x64-vc14-debug-dynamic:os_core_win32.obj
 0002:0002157c       $unwind$pj_shutdown        000000014012357c     pjlib-x86_64-x64-vc14-debug-dynamic:os_core_win32.obj
 0002:00021584       $unwind$pj_getpid          0000000140123584     pjlib-x86_64-x64-vc14-debug-dynamic:os_core_win32.obj
 0002:0002158c       $unwind$pj_thread_create   000000014012358c     pjlib-x86_64-x64-vc14-debug-dynamic:os_core_win32.obj
 0002:00021594       $unwind$pj_thread_register 0000000140123594     pjlib-x86_64-x64-vc14-debug-dynamic:os_core_win32.obj
 0002:000215a0       $unwind$pj_thread_is_registered 00000001401235a0     pjlib-x86_64-x64-vc14-debug-dynamic:os_core_win32.obj
 0002:000215a8       $unwind$pj_thread_get_prio 00000001401235a8     pjlib-x86_64-x64-vc14-debug-dynamic:os_core_win32.obj
 0002:000215b0       $unwind$pj_thread_set_prio 00000001401235b0     pjlib-x86_64-x64-vc14-debug-dynamic:os_core_win32.obj
 0002:000215b8       $unwind$pj_thread_get_os_handle 00000001401235b8     pjlib-x86_64-x64-vc14-debug-dynamic:os_core_win32.obj
 0002:000215c0       $unwind$pj_thread_get_name 00000001401235c0     pjlib-x86_64-x64-vc14-debug-dynamic:os_core_win32.obj
 0002:000215c8       $unwind$pj_thread_resume   00000001401235c8     pjlib-x86_64-x64-vc14-debug-dynamic:os_core_win32.obj
 0002:000215d0       $unwind$pj_thread_this     00000001401235d0     pjlib-x86_64-x64-vc14-debug-dynamic:os_core_win32.obj
 0002:000215d8       $unwind$pj_thread_join     00000001401235d8     pjlib-x86_64-x64-vc14-debug-dynamic:os_core_win32.obj
 0002:000215e0       $unwind$pj_thread_destroy  00000001401235e0     pjlib-x86_64-x64-vc14-debug-dynamic:os_core_win32.obj
 0002:000215e8       $unwind$pj_thread_sleep    00000001401235e8     pjlib-x86_64-x64-vc14-debug-dynamic:os_core_win32.obj
 0002:000215f0       $unwind$pj_thread_check_stack 00000001401235f0     pjlib-x86_64-x64-vc14-debug-dynamic:os_core_win32.obj
 0002:000215f8       $unwind$pj_thread_get_stack_info 00000001401235f8     pjlib-x86_64-x64-vc14-debug-dynamic:os_core_win32.obj
 0002:00021600       $unwind$pj_thread_local_alloc 0000000140123600     pjlib-x86_64-x64-vc14-debug-dynamic:os_core_win32.obj
 0002:00021608       $unwind$pj_thread_local_free 0000000140123608     pjlib-x86_64-x64-vc14-debug-dynamic:os_core_win32.obj
 0002:00021610       $unwind$pj_thread_local_set 0000000140123610     pjlib-x86_64-x64-vc14-debug-dynamic:os_core_win32.obj
 0002:00021618       $unwind$pj_thread_local_get 0000000140123618     pjlib-x86_64-x64-vc14-debug-dynamic:os_core_win32.obj
 0002:00021620       $unwind$pj_atomic_create   0000000140123620     pjlib-x86_64-x64-vc14-debug-dynamic:os_core_win32.obj
 0002:00021628       $unwind$pj_atomic_destroy  0000000140123628     pjlib-x86_64-x64-vc14-debug-dynamic:os_core_win32.obj
 0002:00021630       $unwind$pj_atomic_set      0000000140123630     pjlib-x86_64-x64-vc14-debug-dynamic:os_core_win32.obj
 0002:00021638       $unwind$pj_atomic_get      0000000140123638     pjlib-x86_64-x64-vc14-debug-dynamic:os_core_win32.obj
 0002:00021640       $unwind$pj_atomic_inc      0000000140123640     pjlib-x86_64-x64-vc14-debug-dynamic:os_core_win32.obj
 0002:00021648       $unwind$pj_atomic_inc_and_get 0000000140123648     pjlib-x86_64-x64-vc14-debug-dynamic:os_core_win32.obj
 0002:00021650       $unwind$pj_atomic_dec      0000000140123650     pjlib-x86_64-x64-vc14-debug-dynamic:os_core_win32.obj
 0002:00021658       $unwind$pj_atomic_dec_and_get 0000000140123658     pjlib-x86_64-x64-vc14-debug-dynamic:os_core_win32.obj
 0002:00021660       $unwind$pj_atomic_add      0000000140123660     pjlib-x86_64-x64-vc14-debug-dynamic:os_core_win32.obj
 0002:00021668       $unwind$pj_atomic_add_and_get 0000000140123668     pjlib-x86_64-x64-vc14-debug-dynamic:os_core_win32.obj
 0002:00021670       $unwind$pj_mutex_create    0000000140123670     pjlib-x86_64-x64-vc14-debug-dynamic:os_core_win32.obj
 0002:00021678       $unwind$pj_mutex_create_simple 0000000140123678     pjlib-x86_64-x64-vc14-debug-dynamic:os_core_win32.obj
 0002:00021680       $unwind$pj_mutex_create_recursive 0000000140123680     pjlib-x86_64-x64-vc14-debug-dynamic:os_core_win32.obj
 0002:00021688       $unwind$pj_mutex_lock      0000000140123688     pjlib-x86_64-x64-vc14-debug-dynamic:os_core_win32.obj
 0002:00021690       $unwind$pj_mutex_unlock    0000000140123690     pjlib-x86_64-x64-vc14-debug-dynamic:os_core_win32.obj
 0002:00021698       $unwind$pj_mutex_trylock   0000000140123698     pjlib-x86_64-x64-vc14-debug-dynamic:os_core_win32.obj
 0002:000216a0       $unwind$pj_mutex_destroy   00000001401236a0     pjlib-x86_64-x64-vc14-debug-dynamic:os_core_win32.obj
 0002:000216a8       $unwind$pj_mutex_is_locked 00000001401236a8     pjlib-x86_64-x64-vc14-debug-dynamic:os_core_win32.obj
 0002:000216b0       $unwind$pj_rwmutex_create  00000001401236b0     pjlib-x86_64-x64-vc14-debug-dynamic:os_core_win32.obj
 0002:000216b8       $unwind$pj_rwmutex_lock_read 00000001401236b8     pjlib-x86_64-x64-vc14-debug-dynamic:os_core_win32.obj
 0002:000216c0       $unwind$pj_rwmutex_lock_write 00000001401236c0     pjlib-x86_64-x64-vc14-debug-dynamic:os_core_win32.obj
 0002:000216c8       $unwind$pj_rwmutex_unlock_read 00000001401236c8     pjlib-x86_64-x64-vc14-debug-dynamic:os_core_win32.obj
 0002:000216d0       $unwind$pj_rwmutex_unlock_write 00000001401236d0     pjlib-x86_64-x64-vc14-debug-dynamic:os_core_win32.obj
 0002:000216d8       $unwind$pj_rwmutex_destroy 00000001401236d8     pjlib-x86_64-x64-vc14-debug-dynamic:os_core_win32.obj
 0002:000216e0       $unwind$pj_enter_critical_section 00000001401236e0     pjlib-x86_64-x64-vc14-debug-dynamic:os_core_win32.obj
 0002:000216e8       $unwind$pj_leave_critical_section 00000001401236e8     pjlib-x86_64-x64-vc14-debug-dynamic:os_core_win32.obj
 0002:000216f0       $unwind$pj_sem_create      00000001401236f0     pjlib-x86_64-x64-vc14-debug-dynamic:os_core_win32.obj
 0002:000216f8       $unwind$pj_sem_wait        00000001401236f8     pjlib-x86_64-x64-vc14-debug-dynamic:os_core_win32.obj
 0002:00021700       $unwind$pj_sem_trywait     0000000140123700     pjlib-x86_64-x64-vc14-debug-dynamic:os_core_win32.obj
 0002:00021708       $unwind$pj_sem_post        0000000140123708     pjlib-x86_64-x64-vc14-debug-dynamic:os_core_win32.obj
 0002:00021710       $unwind$pj_sem_destroy     0000000140123710     pjlib-x86_64-x64-vc14-debug-dynamic:os_core_win32.obj
 0002:00021718       $unwind$pj_event_create    0000000140123718     pjlib-x86_64-x64-vc14-debug-dynamic:os_core_win32.obj
 0002:00021720       $unwind$pj_event_wait      0000000140123720     pjlib-x86_64-x64-vc14-debug-dynamic:os_core_win32.obj
 0002:00021728       $unwind$pj_event_trywait   0000000140123728     pjlib-x86_64-x64-vc14-debug-dynamic:os_core_win32.obj
 0002:00021730       $unwind$pj_event_set       0000000140123730     pjlib-x86_64-x64-vc14-debug-dynamic:os_core_win32.obj
 0002:00021738       $unwind$pj_event_pulse     0000000140123738     pjlib-x86_64-x64-vc14-debug-dynamic:os_core_win32.obj
 0002:00021740       $unwind$pj_event_reset     0000000140123740     pjlib-x86_64-x64-vc14-debug-dynamic:os_core_win32.obj
 0002:00021748       $unwind$pj_event_destroy   0000000140123748     pjlib-x86_64-x64-vc14-debug-dynamic:os_core_win32.obj
 0002:00021750       $unwind$pj_term_set_color  0000000140123750     pjlib-x86_64-x64-vc14-debug-dynamic:os_core_win32.obj
 0002:00021758       $unwind$pj_term_get_color  0000000140123758     pjlib-x86_64-x64-vc14-debug-dynamic:os_core_win32.obj
 0002:00021768       $unwind$pj_run_app         0000000140123768     pjlib-x86_64-x64-vc14-debug-dynamic:os_core_win32.obj
 0002:00021770       $unwind$pj_thread_init     0000000140123770     pjlib-x86_64-x64-vc14-debug-dynamic:os_core_win32.obj
 0002:00021778       $unwind$pj_bzero           0000000140123778     pjlib-x86_64-x64-vc14-debug-dynamic:os_core_win32.obj
 0002:00021780       $unwind$init_mutex         0000000140123780     pjlib-x86_64-x64-vc14-debug-dynamic:os_core_win32.obj
 0002:00021788       $unwind$thread_main        0000000140123788     pjlib-x86_64-x64-vc14-debug-dynamic:os_core_win32.obj
 0002:00021790       $unwind$pj_sem_wait_for    0000000140123790     pjlib-x86_64-x64-vc14-debug-dynamic:os_core_win32.obj
 0002:00021798       $unwind$pj_event_wait_for  0000000140123798     pjlib-x86_64-x64-vc14-debug-dynamic:os_core_win32.obj
 0002:000217a0       $unwind$pj_color_to_os_attr 00000001401237a0     pjlib-x86_64-x64-vc14-debug-dynamic:os_core_win32.obj
 0002:000217a8       $unwind$os_attr_to_pj_color 00000001401237a8     pjlib-x86_64-x64-vc14-debug-dynamic:os_core_win32.obj
 0002:000217ec       $unwind$pj_time_val_normalize 00000001401237ec     pjlib-x86_64-x64-vc14-debug-dynamic:types.obj
 0002:000217f4       $unwind$pj_strerror        00000001401237f4     pjlib-x86_64-x64-vc14-debug-dynamic:errno.obj
 0002:00021800       $unwind$pj_perror          0000000140123800     pjlib-x86_64-x64-vc14-debug-dynamic:errno.obj
 0002:00021808       $unwind$pj_register_strerror 0000000140123808     pjlib-x86_64-x64-vc14-debug-dynamic:errno.obj
 0002:00021810       $unwind$pj_errno_clear_handlers 0000000140123810     pjlib-x86_64-x64-vc14-debug-dynamic:errno.obj
 0002:00021818       $unwind$pj_perror_1        0000000140123818     pjlib-x86_64-x64-vc14-debug-dynamic:errno.obj
 0002:00021820       $unwind$pj_perror_2        0000000140123820     pjlib-x86_64-x64-vc14-debug-dynamic:errno.obj
 0002:00021828       $unwind$pj_perror_3        0000000140123828     pjlib-x86_64-x64-vc14-debug-dynamic:errno.obj
 0002:00021830       $unwind$pj_perror_4        0000000140123830     pjlib-x86_64-x64-vc14-debug-dynamic:errno.obj
 0002:00021838       $unwind$pj_perror_5        0000000140123838     pjlib-x86_64-x64-vc14-debug-dynamic:errno.obj
 0002:00021840       $unwind$pj_bzero           0000000140123840     pjlib-x86_64-x64-vc14-debug-dynamic:errno.obj
 0002:00021848       $unwind$pj_memcpy          0000000140123848     pjlib-x86_64-x64-vc14-debug-dynamic:errno.obj
 0002:00021850       $unwind$pjlib_error        0000000140123850     pjlib-x86_64-x64-vc14-debug-dynamic:errno.obj
 0002:00021858       $unwind$invoke_log         0000000140123858     pjlib-x86_64-x64-vc14-debug-dynamic:errno.obj
 0002:00021860       $unwind$pj_perror_imp      0000000140123860     pjlib-x86_64-x64-vc14-debug-dynamic:errno.obj
 0002:0002187c       $unwind$pj_log             000000014012387c     pjlib-x86_64-x64-vc14-debug-dynamic:log.obj
 0002:0002188c       $unwind$pj_log_add_indent  000000014012388c     pjlib-x86_64-x64-vc14-debug-dynamic:log.obj
 0002:00021894       $unwind$pj_log_push_indent 0000000140123894     pjlib-x86_64-x64-vc14-debug-dynamic:log.obj
 0002:0002189c       $unwind$pj_log_pop_indent  000000014012389c     pjlib-x86_64-x64-vc14-debug-dynamic:log.obj
 0002:000218a4       $unwind$pj_log_set_color   00000001401238a4     pjlib-x86_64-x64-vc14-debug-dynamic:log.obj
 0002:000218ac       $unwind$pj_log_get_color   00000001401238ac     pjlib-x86_64-x64-vc14-debug-dynamic:log.obj
 0002:000218b4       $unwind$pj_log_init        00000001401238b4     pjlib-x86_64-x64-vc14-debug-dynamic:log.obj
 0002:000218bc       $unwind$pj_log_1           00000001401238bc     pjlib-x86_64-x64-vc14-debug-dynamic:log.obj
 0002:000218c4       $unwind$pj_log_2           00000001401238c4     pjlib-x86_64-x64-vc14-debug-dynamic:log.obj
 0002:000218cc       $unwind$pj_log_3           00000001401238cc     pjlib-x86_64-x64-vc14-debug-dynamic:log.obj
 0002:000218d4       $unwind$pj_log_4           00000001401238d4     pjlib-x86_64-x64-vc14-debug-dynamic:log.obj
 0002:000218dc       $unwind$pj_log_5           00000001401238dc     pjlib-x86_64-x64-vc14-debug-dynamic:log.obj
 0002:000218e4       $unwind$pj_memset          00000001401238e4     pjlib-x86_64-x64-vc14-debug-dynamic:log.obj
 0002:000218ec       $unwind$logging_shutdown   00000001401238ec     pjlib-x86_64-x64-vc14-debug-dynamic:log.obj
 0002:000218f4       $unwind$log_set_indent     00000001401238f4     pjlib-x86_64-x64-vc14-debug-dynamic:log.obj
 0002:000218fc       $unwind$log_get_raw_indent 00000001401238fc     pjlib-x86_64-x64-vc14-debug-dynamic:log.obj
 0002:00021904       $unwind$log_get_indent     0000000140123904     pjlib-x86_64-x64-vc14-debug-dynamic:log.obj
 0002:0002190c       $unwind$suspend_logging    000000014012390c     pjlib-x86_64-x64-vc14-debug-dynamic:log.obj
 0002:00021914       $unwind$resume_logging     0000000140123914     pjlib-x86_64-x64-vc14-debug-dynamic:log.obj
 0002:0002191c       $unwind$is_logging_suspended 000000014012391c     pjlib-x86_64-x64-vc14-debug-dynamic:log.obj
 0002:00021934       $unwind$pj_gettimeofday    0000000140123934     pjlib-x86_64-x64-vc14-debug-dynamic:os_time_win32.obj
 0002:00021944       $unwind$pj_time_decode     0000000140123944     pjlib-x86_64-x64-vc14-debug-dynamic:os_time_win32.obj
 0002:00021954       $unwind$pj_time_encode     0000000140123954     pjlib-x86_64-x64-vc14-debug-dynamic:os_time_win32.obj
 0002:00021964       $unwind$pj_bzero           0000000140123964     pjlib-x86_64-x64-vc14-debug-dynamic:os_time_win32.obj
 0002:0002196c       $unwind$get_base_time      000000014012396c     pjlib-x86_64-x64-vc14-debug-dynamic:os_time_win32.obj
 0002:00021984       $unwind$pj_pool_create     0000000140123984     pjlib-x86_64-x64-vc14-debug-dynamic:pool.obj
 0002:0002198c       $unwind$pj_pool_release    000000014012398c     pjlib-x86_64-x64-vc14-debug-dynamic:pool.obj
 0002:00021994       $unwind$pj_pool_safe_release 0000000140123994     pjlib-x86_64-x64-vc14-debug-dynamic:pool.obj
 0002:0002199c       $unwind$pj_pool_secure_release 000000014012399c     pjlib-x86_64-x64-vc14-debug-dynamic:pool.obj
 0002:000219a4       $unwind$pj_pool_reset      00000001401239a4     pjlib-x86_64-x64-vc14-debug-dynamic:pool.obj
 0002:000219ac       $unwind$pj_pool_get_used_size 00000001401239ac     pjlib-x86_64-x64-vc14-debug-dynamic:pool.obj
 0002:000219b4       $unwind$pj_pool_alloc      00000001401239b4     pjlib-x86_64-x64-vc14-debug-dynamic:pool.obj
 0002:000219bc       $unwind$pj_pool_calloc     00000001401239bc     pjlib-x86_64-x64-vc14-debug-dynamic:pool.obj
 0002:000219c4       $unwind$pj_pool_alloc_from_block 00000001401239c4     pjlib-x86_64-x64-vc14-debug-dynamic:pool.obj
 0002:000219cc       $unwind$pj_pool_allocate_find 00000001401239cc     pjlib-x86_64-x64-vc14-debug-dynamic:pool.obj
 0002:000219d4       $unwind$pj_pool_create_int 00000001401239d4     pjlib-x86_64-x64-vc14-debug-dynamic:pool.obj
 0002:000219dc       $unwind$pj_pool_init_int   00000001401239dc     pjlib-x86_64-x64-vc14-debug-dynamic:pool.obj
 0002:000219e4       $unwind$pj_pool_destroy_int 00000001401239e4     pjlib-x86_64-x64-vc14-debug-dynamic:pool.obj
 0002:000219ec       $unwind$pj_bzero           00000001401239ec     pjlib-x86_64-x64-vc14-debug-dynamic:pool.obj
 0002:000219f4       $unwind$pj_pool_create_block 00000001401239f4     pjlib-x86_64-x64-vc14-debug-dynamic:pool.obj
 0002:000219fc       $unwind$reset_pool         00000001401239fc     pjlib-x86_64-x64-vc14-debug-dynamic:pool.obj
 0002:00021a10       $unwind$pj_list_empty      0000000140123a10     pjlib-x86_64-x64-vc14-debug-dynamic:pool_caching.obj
 0002:00021a18       $unwind$pj_caching_pool_init 0000000140123a18     pjlib-x86_64-x64-vc14-debug-dynamic:pool_caching.obj
 0002:00021a20       $unwind$pj_caching_pool_destroy 0000000140123a20     pjlib-x86_64-x64-vc14-debug-dynamic:pool_caching.obj
 0002:00021a28       $unwind$pj_bzero           0000000140123a28     pjlib-x86_64-x64-vc14-debug-dynamic:pool_caching.obj
 0002:00021a30       $unwind$pj_memcpy          0000000140123a30     pjlib-x86_64-x64-vc14-debug-dynamic:pool_caching.obj
 0002:00021a38       $unwind$cpool_create_pool  0000000140123a38     pjlib-x86_64-x64-vc14-debug-dynamic:pool_caching.obj
 0002:00021a40       $unwind$cpool_release_pool 0000000140123a40     pjlib-x86_64-x64-vc14-debug-dynamic:pool_caching.obj
 0002:00021a48       $unwind$cpool_dump_status  0000000140123a48     pjlib-x86_64-x64-vc14-debug-dynamic:pool_caching.obj
 0002:00021a50       $unwind$cpool_on_block_alloc 0000000140123a50     pjlib-x86_64-x64-vc14-debug-dynamic:pool_caching.obj
 0002:00021a58       $unwind$cpool_on_block_free 0000000140123a58     pjlib-x86_64-x64-vc14-debug-dynamic:pool_caching.obj
 0002:00021a68       $unwind$pj_srand           0000000140123a68     pjlib-x86_64-x64-vc14-debug-dynamic:rand.obj
 0002:00021a70       $unwind$pj_rand            0000000140123a70     pjlib-x86_64-x64-vc14-debug-dynamic:rand.obj
 0002:00021a7c       $unwind$platform_rand      0000000140123a7c     pjlib-x86_64-x64-vc14-debug-dynamic:rand.obj
 0002:00021a84       $unwind$pj_list_empty      0000000140123a84     pjlib-x86_64-x64-vc14-debug-dynamic:list.obj
 0002:00021a8c       $unwind$pj_list_insert_before 0000000140123a8c     pjlib-x86_64-x64-vc14-debug-dynamic:list.obj
 0002:00021a94       $unwind$pj_list_insert_nodes_before 0000000140123a94     pjlib-x86_64-x64-vc14-debug-dynamic:list.obj
 0002:00021a9c       $unwind$pj_list_insert_nodes_after 0000000140123a9c     pjlib-x86_64-x64-vc14-debug-dynamic:list.obj
 0002:00021aa4       $unwind$pj_list_merge_first 0000000140123aa4     pjlib-x86_64-x64-vc14-debug-dynamic:list.obj
 0002:00021aac       $unwind$pj_list_merge_last 0000000140123aac     pjlib-x86_64-x64-vc14-debug-dynamic:list.obj
 0002:00021ab4       $unwind$pj_list_erase      0000000140123ab4     pjlib-x86_64-x64-vc14-debug-dynamic:list.obj
 0002:00021abc       $unwind$pj_list_find_node  0000000140123abc     pjlib-x86_64-x64-vc14-debug-dynamic:list.obj
 0002:00021ac4       $unwind$pj_list_search     0000000140123ac4     pjlib-x86_64-x64-vc14-debug-dynamic:list.obj
 0002:00021acc       $unwind$pj_list_size       0000000140123acc     pjlib-x86_64-x64-vc14-debug-dynamic:list.obj
 0002:00021adc       $unwind$pj_str             0000000140123adc     pjlib-x86_64-x64-vc14-debug-dynamic:string.obj
 0002:00021ae8       $unwind$pj_strcpy          0000000140123ae8     pjlib-x86_64-x64-vc14-debug-dynamic:string.obj
 0002:00021af0       $unwind$pj_strcpy2         0000000140123af0     pjlib-x86_64-x64-vc14-debug-dynamic:string.obj
 0002:00021af8       $unwind$pj_strncpy         0000000140123af8     pjlib-x86_64-x64-vc14-debug-dynamic:string.obj
 0002:00021b00       $unwind$pj_strncpy_with_null 0000000140123b00     pjlib-x86_64-x64-vc14-debug-dynamic:string.obj
 0002:00021b08       $unwind$pj_strdup          0000000140123b08     pjlib-x86_64-x64-vc14-debug-dynamic:string.obj
 0002:00021b10       $unwind$pj_strdup_with_null 0000000140123b10     pjlib-x86_64-x64-vc14-debug-dynamic:string.obj
 0002:00021b18       $unwind$pj_strdup2         0000000140123b18     pjlib-x86_64-x64-vc14-debug-dynamic:string.obj
 0002:00021b20       $unwind$pj_strdup2_with_null 0000000140123b20     pjlib-x86_64-x64-vc14-debug-dynamic:string.obj
 0002:00021b28       $unwind$pj_strdup3         0000000140123b28     pjlib-x86_64-x64-vc14-debug-dynamic:string.obj
 0002:00021b34       $unwind$pj_strcmp          0000000140123b34     pjlib-x86_64-x64-vc14-debug-dynamic:string.obj
 0002:00021b3c       $unwind$pj_strcmp2         0000000140123b3c     pjlib-x86_64-x64-vc14-debug-dynamic:string.obj
 0002:00021b44       $unwind$pj_strncmp         0000000140123b44     pjlib-x86_64-x64-vc14-debug-dynamic:string.obj
 0002:00021b4c       $unwind$pj_strncmp2        0000000140123b4c     pjlib-x86_64-x64-vc14-debug-dynamic:string.obj
 0002:00021b54       $unwind$pj_stricmp         0000000140123b54     pjlib-x86_64-x64-vc14-debug-dynamic:string.obj
 0002:00021b5c       $unwind$pj_stricmp2        0000000140123b5c     pjlib-x86_64-x64-vc14-debug-dynamic:string.obj
 0002:00021b64       $unwind$pj_strnicmp        0000000140123b64     pjlib-x86_64-x64-vc14-debug-dynamic:string.obj
 0002:00021b6c       $unwind$pj_strnicmp2       0000000140123b6c     pjlib-x86_64-x64-vc14-debug-dynamic:string.obj
 0002:00021b74       $unwind$pj_strcat          0000000140123b74     pjlib-x86_64-x64-vc14-debug-dynamic:string.obj
 0002:00021b7c       $unwind$pj_strcat2         0000000140123b7c     pjlib-x86_64-x64-vc14-debug-dynamic:string.obj
 0002:00021b84       $unwind$pj_strspn          0000000140123b84     pjlib-x86_64-x64-vc14-debug-dynamic:string.obj
 0002:00021b8c       $unwind$pj_strspn2         0000000140123b8c     pjlib-x86_64-x64-vc14-debug-dynamic:string.obj
 0002:00021b94       $unwind$pj_strcspn         0000000140123b94     pjlib-x86_64-x64-vc14-debug-dynamic:string.obj
 0002:00021b9c       $unwind$pj_strcspn2        0000000140123b9c     pjlib-x86_64-x64-vc14-debug-dynamic:string.obj
 0002:00021ba4       $unwind$pj_strtok          0000000140123ba4     pjlib-x86_64-x64-vc14-debug-dynamic:string.obj
 0002:00021bac       $unwind$pj_strtok2         0000000140123bac     pjlib-x86_64-x64-vc14-debug-dynamic:string.obj
 0002:00021bb4       $unwind$pj_strstr          0000000140123bb4     pjlib-x86_64-x64-vc14-debug-dynamic:string.obj
 0002:00021bbc       $unwind$pj_stristr         0000000140123bbc     pjlib-x86_64-x64-vc14-debug-dynamic:string.obj
 0002:00021bc4       $unwind$pj_strltrim        0000000140123bc4     pjlib-x86_64-x64-vc14-debug-dynamic:string.obj
 0002:00021bcc       $unwind$pj_strrtrim        0000000140123bcc     pjlib-x86_64-x64-vc14-debug-dynamic:string.obj
 0002:00021bd4       $unwind$pj_strtrim         0000000140123bd4     pjlib-x86_64-x64-vc14-debug-dynamic:string.obj
 0002:00021bdc       $unwind$pj_create_random_string 0000000140123bdc     pjlib-x86_64-x64-vc14-debug-dynamic:string.obj
 0002:00021be4       $unwind$pj_strtol          0000000140123be4     pjlib-x86_64-x64-vc14-debug-dynamic:string.obj
 0002:00021bec       $unwind$pj_strtol2         0000000140123bec     pjlib-x86_64-x64-vc14-debug-dynamic:string.obj
 0002:00021bf8       $unwind$pj_strtoul         0000000140123bf8     pjlib-x86_64-x64-vc14-debug-dynamic:string.obj
 0002:00021c00       $unwind$pj_strtoul2        0000000140123c00     pjlib-x86_64-x64-vc14-debug-dynamic:string.obj
 0002:00021c08       $unwind$pj_strtoul3        0000000140123c08     pjlib-x86_64-x64-vc14-debug-dynamic:string.obj
 0002:00021c14       $unwind$pj_strtof          0000000140123c14     pjlib-x86_64-x64-vc14-debug-dynamic:string.obj
 0002:00021c1c       $unwind$pj_utoa            0000000140123c1c     pjlib-x86_64-x64-vc14-debug-dynamic:string.obj
 0002:00021c24       $unwind$pj_utoa_pad        0000000140123c24     pjlib-x86_64-x64-vc14-debug-dynamic:string.obj
 0002:00021c2c       $unwind$pj_memcpy          0000000140123c2c     pjlib-x86_64-x64-vc14-debug-dynamic:string.obj
 0002:00021c34       $unwind$pj_memcmp          0000000140123c34     pjlib-x86_64-x64-vc14-debug-dynamic:string.obj
 0002:00021c3c       $unwind$pj_memchr          0000000140123c3c     pjlib-x86_64-x64-vc14-debug-dynamic:string.obj
 0002:00021c44       $unwind$pj_isdigit         0000000140123c44     pjlib-x86_64-x64-vc14-debug-dynamic:string.obj
 0002:00021c4c       $unwind$pj_isspace         0000000140123c4c     pjlib-x86_64-x64-vc14-debug-dynamic:string.obj
 0002:00021c54       $unwind$pj_isxdigit        0000000140123c54     pjlib-x86_64-x64-vc14-debug-dynamic:string.obj
 0002:00021c84       $unwind$pj_ntohs           0000000140123c84     pjlib-x86_64-x64-vc14-debug-dynamic:sock_bsd.obj
 0002:00021c8c       $unwind$pj_htons           0000000140123c8c     pjlib-x86_64-x64-vc14-debug-dynamic:sock_bsd.obj
 0002:00021c94       $unwind$pj_ntohl           0000000140123c94     pjlib-x86_64-x64-vc14-debug-dynamic:sock_bsd.obj
 0002:00021c9c       $unwind$pj_htonl           0000000140123c9c     pjlib-x86_64-x64-vc14-debug-dynamic:sock_bsd.obj
 0002:00021ca4       $unwind$pj_inet_ntoa       0000000140123ca4     pjlib-x86_64-x64-vc14-debug-dynamic:sock_bsd.obj
 0002:00021cac       $unwind$pj_inet_aton       0000000140123cac     pjlib-x86_64-x64-vc14-debug-dynamic:sock_bsd.obj
 0002:00021cbc       $unwind$pj_inet_pton       0000000140123cbc     pjlib-x86_64-x64-vc14-debug-dynamic:sock_bsd.obj
 0002:00021ccc       $unwind$pj_inet_ntop       0000000140123ccc     pjlib-x86_64-x64-vc14-debug-dynamic:sock_bsd.obj
 0002:00021cdc       $unwind$pj_gethostname     0000000140123cdc     pjlib-x86_64-x64-vc14-debug-dynamic:sock_bsd.obj
 0002:00021ce4       $unwind$pj_sock_socket     0000000140123ce4     pjlib-x86_64-x64-vc14-debug-dynamic:sock_bsd.obj
 0002:00021cec       $unwind$pj_sock_close      0000000140123cec     pjlib-x86_64-x64-vc14-debug-dynamic:sock_bsd.obj
 0002:00021cf4       $unwind$pj_sock_bind       0000000140123cf4     pjlib-x86_64-x64-vc14-debug-dynamic:sock_bsd.obj
 0002:00021cfc       $unwind$pj_sock_bind_in    0000000140123cfc     pjlib-x86_64-x64-vc14-debug-dynamic:sock_bsd.obj
 0002:00021d0c       $unwind$pj_sock_listen     0000000140123d0c     pjlib-x86_64-x64-vc14-debug-dynamic:sock_bsd.obj
 0002:00021d14       $unwind$pj_sock_accept     0000000140123d14     pjlib-x86_64-x64-vc14-debug-dynamic:sock_bsd.obj
 0002:00021d1c       $unwind$pj_sock_connect    0000000140123d1c     pjlib-x86_64-x64-vc14-debug-dynamic:sock_bsd.obj
 0002:00021d24       $unwind$pj_sock_getpeername 0000000140123d24     pjlib-x86_64-x64-vc14-debug-dynamic:sock_bsd.obj
 0002:00021d2c       $unwind$pj_sock_getsockname 0000000140123d2c     pjlib-x86_64-x64-vc14-debug-dynamic:sock_bsd.obj
 0002:00021d34       $unwind$pj_sock_getsockopt 0000000140123d34     pjlib-x86_64-x64-vc14-debug-dynamic:sock_bsd.obj
 0002:00021d3c       $unwind$pj_sock_setsockopt 0000000140123d3c     pjlib-x86_64-x64-vc14-debug-dynamic:sock_bsd.obj
 0002:00021d44       $unwind$pj_sock_setsockopt_params 0000000140123d44     pjlib-x86_64-x64-vc14-debug-dynamic:sock_bsd.obj
 0002:00021d4c       $unwind$pj_sock_recv       0000000140123d4c     pjlib-x86_64-x64-vc14-debug-dynamic:sock_bsd.obj
 0002:00021d54       $unwind$pj_sock_recvfrom   0000000140123d54     pjlib-x86_64-x64-vc14-debug-dynamic:sock_bsd.obj
 0002:00021d5c       $unwind$pj_sock_send       0000000140123d5c     pjlib-x86_64-x64-vc14-debug-dynamic:sock_bsd.obj
 0002:00021d64       $unwind$pj_sock_sendto     0000000140123d64     pjlib-x86_64-x64-vc14-debug-dynamic:sock_bsd.obj
 0002:00021d6c       $unwind$pj_sock_shutdown   0000000140123d6c     pjlib-x86_64-x64-vc14-debug-dynamic:sock_bsd.obj
 0002:00021d74       $unwind$pj_bzero           0000000140123d74     pjlib-x86_64-x64-vc14-debug-dynamic:sock_bsd.obj
 0002:00021d7c       $unwind$pj_memcpy          0000000140123d7c     pjlib-x86_64-x64-vc14-debug-dynamic:sock_bsd.obj
 0002:00021da0       $unwind$pj_get_os_error    0000000140123da0     pjlib-x86_64-x64-vc14-debug-dynamic:os_error_win32.obj
 0002:00021da8       $unwind$pj_set_os_error    0000000140123da8     pjlib-x86_64-x64-vc14-debug-dynamic:os_error_win32.obj
 0002:00021db0       $unwind$pj_get_netos_error 0000000140123db0     pjlib-x86_64-x64-vc14-debug-dynamic:os_error_win32.obj
 0002:00021db8       $unwind$pj_set_netos_error 0000000140123db8     pjlib-x86_64-x64-vc14-debug-dynamic:os_error_win32.obj
 0002:00021dc0       $unwind$pj_memcpy          0000000140123dc0     pjlib-x86_64-x64-vc14-debug-dynamic:os_error_win32.obj
 0002:00021dc8       $unwind$platform_strerror  0000000140123dc8     pjlib-x86_64-x64-vc14-debug-dynamic:os_error_win32.obj
 0002:00021dd4       $unwind$pj_array_insert    0000000140123dd4     pjlib-x86_64-x64-vc14-debug-dynamic:array.obj
 0002:00021ddc       $unwind$pj_array_erase     0000000140123ddc     pjlib-x86_64-x64-vc14-debug-dynamic:array.obj
 0002:00021de4       $unwind$pj_array_find      0000000140123de4     pjlib-x86_64-x64-vc14-debug-dynamic:array.obj
 0002:00021dec       $unwind$pj_memmove         0000000140123dec     pjlib-x86_64-x64-vc14-debug-dynamic:array.obj
 0002:00021df8       $unwind$pj_inet_ntop2      0000000140123df8     pjlib-x86_64-x64-vc14-debug-dynamic:sock_common.obj
 0002:00021e00       $unwind$pj_sockaddr_print  0000000140123e00     pjlib-x86_64-x64-vc14-debug-dynamic:sock_common.obj
 0002:00021e10       $unwind$pj_inet_addr       0000000140123e10     pjlib-x86_64-x64-vc14-debug-dynamic:sock_common.obj
 0002:00021e18       $unwind$pj_inet_addr2      0000000140123e18     pjlib-x86_64-x64-vc14-debug-dynamic:sock_common.obj
 0002:00021e24       $unwind$pj_sockaddr_in_init 0000000140123e24     pjlib-x86_64-x64-vc14-debug-dynamic:sock_common.obj
 0002:00021e2c       $unwind$pj_sockaddr_init   0000000140123e2c     pjlib-x86_64-x64-vc14-debug-dynamic:sock_common.obj
 0002:00021e34       $unwind$pj_sockaddr_cmp    0000000140123e34     pjlib-x86_64-x64-vc14-debug-dynamic:sock_common.obj
 0002:00021e3c       $unwind$pj_sockaddr_get_addr 0000000140123e3c     pjlib-x86_64-x64-vc14-debug-dynamic:sock_common.obj
 0002:00021e44       $unwind$pj_sockaddr_has_addr 0000000140123e44     pjlib-x86_64-x64-vc14-debug-dynamic:sock_common.obj
 0002:00021e54       $unwind$pj_sockaddr_get_addr_len 0000000140123e54     pjlib-x86_64-x64-vc14-debug-dynamic:sock_common.obj
 0002:00021e5c       $unwind$pj_sockaddr_get_len 0000000140123e5c     pjlib-x86_64-x64-vc14-debug-dynamic:sock_common.obj
 0002:00021e64       $unwind$pj_sockaddr_copy_addr 0000000140123e64     pjlib-x86_64-x64-vc14-debug-dynamic:sock_common.obj
 0002:00021e6c       $unwind$pj_sockaddr_cp     0000000140123e6c     pjlib-x86_64-x64-vc14-debug-dynamic:sock_common.obj
 0002:00021e74       $unwind$pj_sockaddr_synthesize 0000000140123e74     pjlib-x86_64-x64-vc14-debug-dynamic:sock_common.obj
 0002:00021e88       $unwind$pj_sockaddr_in_get_addr 0000000140123e88     pjlib-x86_64-x64-vc14-debug-dynamic:sock_common.obj
 0002:00021e90       $unwind$pj_sockaddr_in_set_addr 0000000140123e90     pjlib-x86_64-x64-vc14-debug-dynamic:sock_common.obj
 0002:00021e98       $unwind$pj_sockaddr_in_set_str_addr 0000000140123e98     pjlib-x86_64-x64-vc14-debug-dynamic:sock_common.obj
 0002:00021ea8       $unwind$pj_sockaddr_set_str_addr 0000000140123ea8     pjlib-x86_64-x64-vc14-debug-dynamic:sock_common.obj
 0002:00021eb8       $unwind$pj_sockaddr_get_port 0000000140123eb8     pjlib-x86_64-x64-vc14-debug-dynamic:sock_common.obj
 0002:00021ec0       $unwind$pj_sockaddr_in_get_port 0000000140123ec0     pjlib-x86_64-x64-vc14-debug-dynamic:sock_common.obj
 0002:00021ec8       $unwind$pj_sockaddr_set_port 0000000140123ec8     pjlib-x86_64-x64-vc14-debug-dynamic:sock_common.obj
 0002:00021ed0       $unwind$pj_sockaddr_in_set_port 0000000140123ed0     pjlib-x86_64-x64-vc14-debug-dynamic:sock_common.obj
 0002:00021ed8       $unwind$pj_sockaddr_parse  0000000140123ed8     pjlib-x86_64-x64-vc14-debug-dynamic:sock_common.obj
 0002:00021ee0       $unwind$pj_sockaddr_parse2 0000000140123ee0     pjlib-x86_64-x64-vc14-debug-dynamic:sock_common.obj
 0002:00021eec       $unwind$pj_gethostaddr     0000000140123eec     pjlib-x86_64-x64-vc14-debug-dynamic:sock_common.obj
 0002:00021efc       $unwind$pj_sock_bind_random 0000000140123efc     pjlib-x86_64-x64-vc14-debug-dynamic:sock_common.obj
 0002:00021f0c       $unwind$pj_sock_setsockopt_sobuf 0000000140123f0c     pjlib-x86_64-x64-vc14-debug-dynamic:sock_common.obj
 0002:00021f14       $unwind$pj_addr_str_print  0000000140123f14     pjlib-x86_64-x64-vc14-debug-dynamic:sock_common.obj
 0002:00021f24       $unwind$pj_isdigit         0000000140123f24     pjlib-x86_64-x64-vc14-debug-dynamic:sock_common.obj
 0002:00021f2c       $unwind$pj_strchr          0000000140123f2c     pjlib-x86_64-x64-vc14-debug-dynamic:sock_common.obj
 0002:00021f34       $unwind$pj_bzero           0000000140123f34     pjlib-x86_64-x64-vc14-debug-dynamic:sock_common.obj
 0002:00021f3c       $unwind$pj_memcpy          0000000140123f3c     pjlib-x86_64-x64-vc14-debug-dynamic:sock_common.obj
 0002:00021f44       $unwind$pj_memcmp          0000000140123f44     pjlib-x86_64-x64-vc14-debug-dynamic:sock_common.obj
 0002:00021f4c       $unwind$pj_gethostip       0000000140123f4c     pjlib-x86_64-x64-vc14-debug-dynamic:sock_common.obj
 0002:00021f5c       $unwind$pj_getipinterface  0000000140123f5c     pjlib-x86_64-x64-vc14-debug-dynamic:sock_common.obj
 0002:00021f70       $unwind$pj_getdefaultipinterface 0000000140123f70     pjlib-x86_64-x64-vc14-debug-dynamic:sock_common.obj
 0002:00021fa4       $unwind$pj_ioqueue_create  0000000140123fa4     pjlib-x86_64-x64-vc14-debug-dynamic:ioqueue_select.obj
 0002:00021fac       $unwind$pj_ioqueue_destroy 0000000140123fac     pjlib-x86_64-x64-vc14-debug-dynamic:ioqueue_select.obj
 0002:00021fb4       $unwind$pj_ioqueue_set_lock 0000000140123fb4     pjlib-x86_64-x64-vc14-debug-dynamic:ioqueue_select.obj
 0002:00021fbc       $unwind$pj_ioqueue_set_default_concurrency 0000000140123fbc     pjlib-x86_64-x64-vc14-debug-dynamic:ioqueue_select.obj
 0002:00021fc4       $unwind$pj_ioqueue_register_sock 0000000140123fc4     pjlib-x86_64-x64-vc14-debug-dynamic:ioqueue_select.obj
 0002:00021fcc       $unwind$pj_ioqueue_register_sock2 0000000140123fcc     pjlib-x86_64-x64-vc14-debug-dynamic:ioqueue_select.obj
 0002:00021fd4       $unwind$pj_ioqueue_unregister 0000000140123fd4     pjlib-x86_64-x64-vc14-debug-dynamic:ioqueue_select.obj
 0002:00021fdc       $unwind$pj_ioqueue_get_user_data 0000000140123fdc     pjlib-x86_64-x64-vc14-debug-dynamic:ioqueue_select.obj
 0002:00021fe4       $unwind$pj_ioqueue_set_user_data 0000000140123fe4     pjlib-x86_64-x64-vc14-debug-dynamic:ioqueue_select.obj
 0002:00021fec       $unwind$pj_ioqueue_set_concurrency 0000000140123fec     pjlib-x86_64-x64-vc14-debug-dynamic:ioqueue_select.obj
 0002:00021ff4       $unwind$pj_ioqueue_lock_key 0000000140123ff4     pjlib-x86_64-x64-vc14-debug-dynamic:ioqueue_select.obj
 0002:00021ffc       $unwind$pj_ioqueue_trylock_key 0000000140123ffc     pjlib-x86_64-x64-vc14-debug-dynamic:ioqueue_select.obj
 0002:00022004       $unwind$pj_ioqueue_unlock_key 0000000140124004     pjlib-x86_64-x64-vc14-debug-dynamic:ioqueue_select.obj
 0002:0002200c       $unwind$pj_ioqueue_op_key_init 000000014012400c     pjlib-x86_64-x64-vc14-debug-dynamic:ioqueue_select.obj
 0002:00022014       $unwind$pj_ioqueue_is_pending 0000000140124014     pjlib-x86_64-x64-vc14-debug-dynamic:ioqueue_select.obj
 0002:0002201c       $unwind$pj_ioqueue_post_completion 000000014012401c     pjlib-x86_64-x64-vc14-debug-dynamic:ioqueue_select.obj
 0002:00022024       $unwind$pj_ioqueue_accept  0000000140124024     pjlib-x86_64-x64-vc14-debug-dynamic:ioqueue_select.obj
 0002:0002202c       $unwind$pj_ioqueue_connect 000000014012402c     pjlib-x86_64-x64-vc14-debug-dynamic:ioqueue_select.obj
 0002:00022034       $unwind$pj_ioqueue_poll    0000000140124034     pjlib-x86_64-x64-vc14-debug-dynamic:ioqueue_select.obj
 0002:00022044       $unwind$pj_ioqueue_recv    0000000140124044     pjlib-x86_64-x64-vc14-debug-dynamic:ioqueue_select.obj
 0002:0002204c       $unwind$pj_ioqueue_recvfrom 000000014012404c     pjlib-x86_64-x64-vc14-debug-dynamic:ioqueue_select.obj
 0002:00022054       $unwind$pj_ioqueue_send    0000000140124054     pjlib-x86_64-x64-vc14-debug-dynamic:ioqueue_select.obj
 0002:0002205c       $unwind$pj_ioqueue_sendto  000000014012405c     pjlib-x86_64-x64-vc14-debug-dynamic:ioqueue_select.obj
 0002:00022064       $unwind$pj_list_empty      0000000140124064     pjlib-x86_64-x64-vc14-debug-dynamic:ioqueue_select.obj
 0002:0002206c       $unwind$pj_list_push_back  000000014012406c     pjlib-x86_64-x64-vc14-debug-dynamic:ioqueue_select.obj
 0002:00022074       $unwind$pj_bzero           0000000140124074     pjlib-x86_64-x64-vc14-debug-dynamic:ioqueue_select.obj
 0002:0002207c       $unwind$pj_memcpy          000000014012407c     pjlib-x86_64-x64-vc14-debug-dynamic:ioqueue_select.obj
 0002:00022084       $unwind$ioqueue_add_to_set 0000000140124084     pjlib-x86_64-x64-vc14-debug-dynamic:ioqueue_select.obj
 0002:0002208c       $unwind$ioqueue_remove_from_set 000000014012408c     pjlib-x86_64-x64-vc14-debug-dynamic:ioqueue_select.obj
 0002:00022094       $unwind$ioqueue_destroy    0000000140124094     pjlib-x86_64-x64-vc14-debug-dynamic:ioqueue_select.obj
 0002:0002209c       $unwind$ioqueue_init_key   000000014012409c     pjlib-x86_64-x64-vc14-debug-dynamic:ioqueue_select.obj
 0002:000220a4       $unwind$key_has_pending_write 00000001401240a4     pjlib-x86_64-x64-vc14-debug-dynamic:ioqueue_select.obj
 0002:000220ac       $unwind$key_has_pending_read 00000001401240ac     pjlib-x86_64-x64-vc14-debug-dynamic:ioqueue_select.obj
 0002:000220b4       $unwind$key_has_pending_accept 00000001401240b4     pjlib-x86_64-x64-vc14-debug-dynamic:ioqueue_select.obj
 0002:000220bc       $unwind$ioqueue_dispatch_write_event 00000001401240bc     pjlib-x86_64-x64-vc14-debug-dynamic:ioqueue_select.obj
 0002:000220c4       $unwind$ioqueue_dispatch_read_event 00000001401240c4     pjlib-x86_64-x64-vc14-debug-dynamic:ioqueue_select.obj
 0002:000220cc       $unwind$ioqueue_dispatch_exception_event 00000001401240cc     pjlib-x86_64-x64-vc14-debug-dynamic:ioqueue_select.obj
 0002:000220d4       $unwind$scan_closing_keys  00000001401240d4     pjlib-x86_64-x64-vc14-debug-dynamic:ioqueue_select.obj
 0002:000220dc       $unwind$increment_counter  00000001401240dc     pjlib-x86_64-x64-vc14-debug-dynamic:ioqueue_select.obj
 0002:000220e4       $unwind$decrement_counter  00000001401240e4     pjlib-x86_64-x64-vc14-debug-dynamic:ioqueue_select.obj
 0002:0002210c       $unwind$pj_file_exists     000000014012410c     pjlib-x86_64-x64-vc14-debug-dynamic:file_access_win32.obj
 0002:00022114       $unwind$pj_file_size       0000000140124114     pjlib-x86_64-x64-vc14-debug-dynamic:file_access_win32.obj
 0002:0002211c       $unwind$pj_file_delete     000000014012411c     pjlib-x86_64-x64-vc14-debug-dynamic:file_access_win32.obj
 0002:00022124       $unwind$pj_file_move       0000000140124124     pjlib-x86_64-x64-vc14-debug-dynamic:file_access_win32.obj
 0002:0002212c       $unwind$pj_file_getstat    000000014012412c     pjlib-x86_64-x64-vc14-debug-dynamic:file_access_win32.obj
 0002:00022134       $unwind$pj_bzero           0000000140124134     pjlib-x86_64-x64-vc14-debug-dynamic:file_access_win32.obj
 0002:0002213c       $unwind$get_file_size      000000014012413c     pjlib-x86_64-x64-vc14-debug-dynamic:file_access_win32.obj
 0002:00022144       $unwind$create_file        0000000140124144     pjlib-x86_64-x64-vc14-debug-dynamic:file_access_win32.obj
 0002:0002214c       $unwind$file_time_to_time_val 000000014012414c     pjlib-x86_64-x64-vc14-debug-dynamic:file_access_win32.obj
 0002:00022164       $unwind$pj_file_open       0000000140124164     pjlib-x86_64-x64-vc14-debug-dynamic:file_io_win32.obj
 0002:0002216c       $unwind$pj_file_close      000000014012416c     pjlib-x86_64-x64-vc14-debug-dynamic:file_io_win32.obj
 0002:00022174       $unwind$pj_file_write      0000000140124174     pjlib-x86_64-x64-vc14-debug-dynamic:file_io_win32.obj
 0002:0002217c       $unwind$pj_file_read       000000014012417c     pjlib-x86_64-x64-vc14-debug-dynamic:file_io_win32.obj
 0002:00022184       $unwind$pj_file_setpos     0000000140124184     pjlib-x86_64-x64-vc14-debug-dynamic:file_io_win32.obj
 0002:0002218c       $unwind$pj_file_getpos     000000014012418c     pjlib-x86_64-x64-vc14-debug-dynamic:file_io_win32.obj
 0002:00022194       $unwind$pj_file_flush      0000000140124194     pjlib-x86_64-x64-vc14-debug-dynamic:file_io_win32.obj
 0002:0002219c       $unwind$set_file_pointer   000000014012419c     pjlib-x86_64-x64-vc14-debug-dynamic:file_io_win32.obj
 0002:000221ac       $unwind$pj_exception_id_alloc 00000001401241ac     pjlib-x86_64-x64-vc14-debug-dynamic:except.obj
 0002:000221b4       $unwind$pj_exception_id_free 00000001401241b4     pjlib-x86_64-x64-vc14-debug-dynamic:except.obj
 0002:000221bc       $unwind$pj_exception_id_name 00000001401241bc     pjlib-x86_64-x64-vc14-debug-dynamic:except.obj
 0002:000221c4       $unwind$pj_throw_exception_ 00000001401241c4     pjlib-x86_64-x64-vc14-debug-dynamic:except.obj
 0002:000221cc       $unwind$pj_push_exception_handler_ 00000001401241cc     pjlib-x86_64-x64-vc14-debug-dynamic:except.obj
 0002:000221d4       $unwind$pj_pop_exception_handler_ 00000001401241d4     pjlib-x86_64-x64-vc14-debug-dynamic:except.obj
 0002:000221dc       $unwind$exception_cleanup  00000001401241dc     pjlib-x86_64-x64-vc14-debug-dynamic:except.obj
 0002:000221ec       $unwind$pj_get_timestamp   00000001401241ec     pjlib-x86_64-x64-vc14-debug-dynamic:os_timestamp_win32.obj
 0002:000221f4       $unwind$pj_get_timestamp_freq 00000001401241f4     pjlib-x86_64-x64-vc14-debug-dynamic:os_timestamp_win32.obj
 0002:00022200       $unwind$pj_lock_create_simple_mutex 0000000140124200     pjlib-x86_64-x64-vc14-debug-dynamic:lock.obj
 0002:00022208       $unwind$pj_lock_create_recursive_mutex 0000000140124208     pjlib-x86_64-x64-vc14-debug-dynamic:lock.obj
 0002:00022210       $unwind$pj_lock_create_null_mutex 0000000140124210     pjlib-x86_64-x64-vc14-debug-dynamic:lock.obj
 0002:00022218       $unwind$pj_lock_create_semaphore 0000000140124218     pjlib-x86_64-x64-vc14-debug-dynamic:lock.obj
 0002:00022220       $unwind$pj_lock_acquire    0000000140124220     pjlib-x86_64-x64-vc14-debug-dynamic:lock.obj
 0002:00022228       $unwind$pj_lock_tryacquire 0000000140124228     pjlib-x86_64-x64-vc14-debug-dynamic:lock.obj
 0002:00022230       $unwind$pj_lock_release    0000000140124230     pjlib-x86_64-x64-vc14-debug-dynamic:lock.obj
 0002:00022238       $unwind$pj_lock_destroy    0000000140124238     pjlib-x86_64-x64-vc14-debug-dynamic:lock.obj
 0002:00022240       $unwind$pj_grp_lock_config_default 0000000140124240     pjlib-x86_64-x64-vc14-debug-dynamic:lock.obj
 0002:00022248       $unwind$pj_grp_lock_create 0000000140124248     pjlib-x86_64-x64-vc14-debug-dynamic:lock.obj
 0002:00022250       $unwind$pj_grp_lock_create_w_handler 0000000140124250     pjlib-x86_64-x64-vc14-debug-dynamic:lock.obj
 0002:00022258       $unwind$pj_grp_lock_destroy 0000000140124258     pjlib-x86_64-x64-vc14-debug-dynamic:lock.obj
 0002:00022260       $unwind$pj_grp_lock_replace 0000000140124260     pjlib-x86_64-x64-vc14-debug-dynamic:lock.obj
 0002:00022268       $unwind$pj_grp_lock_acquire 0000000140124268     pjlib-x86_64-x64-vc14-debug-dynamic:lock.obj
 0002:00022270       $unwind$pj_grp_lock_tryacquire 0000000140124270     pjlib-x86_64-x64-vc14-debug-dynamic:lock.obj
 0002:00022278       $unwind$pj_grp_lock_release 0000000140124278     pjlib-x86_64-x64-vc14-debug-dynamic:lock.obj
 0002:00022280       $unwind$pj_grp_lock_add_handler 0000000140124280     pjlib-x86_64-x64-vc14-debug-dynamic:lock.obj
 0002:00022288       $unwind$pj_grp_lock_del_handler 0000000140124288     pjlib-x86_64-x64-vc14-debug-dynamic:lock.obj
 0002:00022290       $unwind$pj_grp_lock_add_ref 0000000140124290     pjlib-x86_64-x64-vc14-debug-dynamic:lock.obj
 0002:00022298       $unwind$pj_grp_lock_dec_ref 0000000140124298     pjlib-x86_64-x64-vc14-debug-dynamic:lock.obj
 0002:000222a0       $unwind$pj_grp_lock_get_ref 00000001401242a0     pjlib-x86_64-x64-vc14-debug-dynamic:lock.obj
 0002:000222a8       $unwind$pj_grp_lock_dump   00000001401242a8     pjlib-x86_64-x64-vc14-debug-dynamic:lock.obj
 0002:000222b0       $unwind$pj_grp_lock_chain_lock 00000001401242b0     pjlib-x86_64-x64-vc14-debug-dynamic:lock.obj
 0002:000222b8       $unwind$pj_grp_lock_unchain_lock 00000001401242b8     pjlib-x86_64-x64-vc14-debug-dynamic:lock.obj
 0002:000222c0       $unwind$pj_list_push_back  00000001401242c0     pjlib-x86_64-x64-vc14-debug-dynamic:lock.obj
 0002:000222c8       $unwind$pj_pool_zalloc     00000001401242c8     pjlib-x86_64-x64-vc14-debug-dynamic:lock.obj
 0002:000222d0       $unwind$pj_bzero           00000001401242d0     pjlib-x86_64-x64-vc14-debug-dynamic:lock.obj
 0002:000222d8       $unwind$pj_memcpy          00000001401242d8     pjlib-x86_64-x64-vc14-debug-dynamic:lock.obj
 0002:000222e0       $unwind$create_mutex_lock  00000001401242e0     pjlib-x86_64-x64-vc14-debug-dynamic:lock.obj
 0002:000222e8       $unwind$grp_lock_set_owner_thread 00000001401242e8     pjlib-x86_64-x64-vc14-debug-dynamic:lock.obj
 0002:000222f0       $unwind$grp_lock_unset_owner_thread 00000001401242f0     pjlib-x86_64-x64-vc14-debug-dynamic:lock.obj
 0002:000222f8       $unwind$grp_lock_acquire   00000001401242f8     pjlib-x86_64-x64-vc14-debug-dynamic:lock.obj
 0002:00022300       $unwind$grp_lock_tryacquire 0000000140124300     pjlib-x86_64-x64-vc14-debug-dynamic:lock.obj
 0002:00022308       $unwind$grp_lock_release   0000000140124308     pjlib-x86_64-x64-vc14-debug-dynamic:lock.obj
 0002:00022310       $unwind$grp_lock_add_handler 0000000140124310     pjlib-x86_64-x64-vc14-debug-dynamic:lock.obj
 0002:00022318       $unwind$grp_lock_destroy   0000000140124318     pjlib-x86_64-x64-vc14-debug-dynamic:lock.obj
 0002:00022320       $unwind$grp_lock_add_ref   0000000140124320     pjlib-x86_64-x64-vc14-debug-dynamic:lock.obj
 0002:00022328       $unwind$grp_lock_dec_ref   0000000140124328     pjlib-x86_64-x64-vc14-debug-dynamic:lock.obj
 0002:00022350       $unwind$pj_generate_unique_string 0000000140124350     pjlib-x86_64-x64-vc14-debug-dynamic:guid_win32.obj
 0002:00022360       $unwind$guid_to_str        0000000140124360     pjlib-x86_64-x64-vc14-debug-dynamic:guid_win32.obj
 0002:0002236c       $unwind$pj_dump_config     000000014012436c     pjlib-x86_64-x64-vc14-debug-dynamic:config.obj
 0002:00022374       $unwind$pj_log_write       0000000140124374     pjlib-x86_64-x64-vc14-debug-dynamic:log_writer_stdout.obj
 0002:0002237c       $unwind$term_set_color     000000014012437c     pjlib-x86_64-x64-vc14-debug-dynamic:log_writer_stdout.obj
 0002:00022384       $unwind$term_restore_color 0000000140124384     pjlib-x86_64-x64-vc14-debug-dynamic:log_writer_stdout.obj
 0002:00022390       $unwind$pj_pool_create_on_buf 0000000140124390     pjlib-x86_64-x64-vc14-debug-dynamic:pool_buf.obj
 0002:00022398       $unwind$stack_alloc        0000000140124398     pjlib-x86_64-x64-vc14-debug-dynamic:pool_buf.obj
 0002:000223a0       $unwind$pool_buf_cleanup   00000001401243a0     pjlib-x86_64-x64-vc14-debug-dynamic:pool_buf.obj
 0002:000223a8       $unwind$pool_buf_initialize 00000001401243a8     pjlib-x86_64-x64-vc14-debug-dynamic:pool_buf.obj
 0002:000223b4       $unwind$default_block_alloc 00000001401243b4     pjlib-x86_64-x64-vc14-debug-dynamic:pool_policy_malloc.obj
 0002:000223bc       $unwind$default_block_free 00000001401243bc     pjlib-x86_64-x64-vc14-debug-dynamic:pool_policy_malloc.obj
 0002:000223c4       $unwind$default_pool_callback 00000001401243c4     pjlib-x86_64-x64-vc14-debug-dynamic:pool_policy_malloc.obj
 0002:000223d0       $unwind$pj_bzero           00000001401243d0     pjlib-x86_64-x64-vc14-debug-dynamic:ip_helper_win32.obj
 0002:000223d8       $unwind$pj_memcpy          00000001401243d8     pjlib-x86_64-x64-vc14-debug-dynamic:ip_helper_win32.obj
 0002:000223e0       $unwind$pj_enum_ip_option_default 00000001401243e0     pjlib-x86_64-x64-vc14-debug-dynamic:ip_helper_win32.obj
 0002:000223e8       $unwind$pj_enum_ip_interface 00000001401243e8     pjlib-x86_64-x64-vc14-debug-dynamic:ip_helper_win32.obj
 0002:000223f0       $unwind$pj_enum_ip_interface2 00000001401243f0     pjlib-x86_64-x64-vc14-debug-dynamic:ip_helper_win32.obj
 0002:000223f8       $unwind$pj_enum_ip_route   00000001401243f8     pjlib-x86_64-x64-vc14-debug-dynamic:ip_helper_win32.obj
 0002:00022408       $unwind$unload_iphlp_module 0000000140124408     pjlib-x86_64-x64-vc14-debug-dynamic:ip_helper_win32.obj
 0002:00022410       $unwind$GetIpHlpApiProc    0000000140124410     pjlib-x86_64-x64-vc14-debug-dynamic:ip_helper_win32.obj
 0002:00022418       $unwind$MyGetIpAddrTable   0000000140124418     pjlib-x86_64-x64-vc14-debug-dynamic:ip_helper_win32.obj
 0002:00022420       $unwind$MyGetAdapterAddresses 0000000140124420     pjlib-x86_64-x64-vc14-debug-dynamic:ip_helper_win32.obj
 0002:00022428       $unwind$MyGetIfEntry       0000000140124428     pjlib-x86_64-x64-vc14-debug-dynamic:ip_helper_win32.obj
 0002:00022430       $unwind$MyGetIpForwardTable 0000000140124430     pjlib-x86_64-x64-vc14-debug-dynamic:ip_helper_win32.obj
 0002:00022438       $unwind$enum_ipv4_interface 0000000140124438     pjlib-x86_64-x64-vc14-debug-dynamic:ip_helper_win32.obj
 0002:00022448       $unwind$enum_ipv4_ipv6_interface 0000000140124448     pjlib-x86_64-x64-vc14-debug-dynamic:ip_helper_win32.obj
 0002:00022468       $unwind$pj_gethostbyname   0000000140124468     pjlib-x86_64-x64-vc14-debug-dynamic:addr_resolv_sock.obj
 0002:00022478       $unwind$pj_getaddrinfo     0000000140124478     pjlib-x86_64-x64-vc14-debug-dynamic:addr_resolv_sock.obj
 0002:00022480       $unwind$pj_bzero           0000000140124480     pjlib-x86_64-x64-vc14-debug-dynamic:addr_resolv_sock.obj
 0002:00022488       $unwind$pj_memcpy          0000000140124488     pjlib-x86_64-x64-vc14-debug-dynamic:addr_resolv_sock.obj
 0002:00022494       $unwind$pj_gettickcount    0000000140124494     pjlib-x86_64-x64-vc14-debug-dynamic:os_timestamp_common.obj
 0002:0002249c       $unwind$pj_elapsed_time    000000014012449c     pjlib-x86_64-x64-vc14-debug-dynamic:os_timestamp_common.obj
 0002:000224a4       $unwind$pj_elapsed_msec    00000001401244a4     pjlib-x86_64-x64-vc14-debug-dynamic:os_timestamp_common.obj
 0002:000224ac       $unwind$pj_elapsed_msec64  00000001401244ac     pjlib-x86_64-x64-vc14-debug-dynamic:os_timestamp_common.obj
 0002:000224b4       $unwind$pj_elapsed_usec    00000001401244b4     pjlib-x86_64-x64-vc14-debug-dynamic:os_timestamp_common.obj
 0002:000224bc       $unwind$pj_elapsed_nanosec 00000001401244bc     pjlib-x86_64-x64-vc14-debug-dynamic:os_timestamp_common.obj
 0002:000224c4       $unwind$elapsed_msec       00000001401244c4     pjlib-x86_64-x64-vc14-debug-dynamic:os_timestamp_common.obj
 0002:000224cc       $unwind$elapsed_usec       00000001401244cc     pjlib-x86_64-x64-vc14-debug-dynamic:os_timestamp_common.obj
 0002:000224dc       $unwind$PJ_FD_ZERO         00000001401244dc     pjlib-x86_64-x64-vc14-debug-dynamic:sock_select.obj
 0002:000224e4       $unwind$PJ_FD_SET          00000001401244e4     pjlib-x86_64-x64-vc14-debug-dynamic:sock_select.obj
 0002:000224ec       $unwind$PJ_FD_CLR          00000001401244ec     pjlib-x86_64-x64-vc14-debug-dynamic:sock_select.obj
 0002:000224f4       $unwind$PJ_FD_ISSET        00000001401244f4     pjlib-x86_64-x64-vc14-debug-dynamic:sock_select.obj
 0002:000224fc       $unwind$pj_sock_select     00000001401244fc     pjlib-x86_64-x64-vc14-debug-dynamic:sock_select.obj
 0002:00022508       $unwind$gsm_create         0000000140124508     libgsmcodec-x86_64-x64-vc14-debug-dynamic:gsm_create.obj
 0002:00022510       $unwind$gsm_destroy        0000000140124510     libgsmcodec-x86_64-x64-vc14-debug-dynamic:gsm_destroy.obj
 0002:00022518       $unwind$gsm_encode         0000000140124518     libgsmcodec-x86_64-x64-vc14-debug-dynamic:gsm_encode.obj
 0002:0002252c       $unwind$gsm_decode         000000014012452c     libgsmcodec-x86_64-x64-vc14-debug-dynamic:gsm_decode.obj
 0002:00022540       $unwind$Gsm_Coder          0000000140124540     libgsmcodec-x86_64-x64-vc14-debug-dynamic:code.obj
 0002:00022554       $unwind$Gsm_Decoder        0000000140124554     libgsmcodec-x86_64-x64-vc14-debug-dynamic:decode.obj
 0002:00022564       $unwind$Postprocessing     0000000140124564     libgsmcodec-x86_64-x64-vc14-debug-dynamic:decode.obj
 0002:00022570       $unwind$Gsm_Long_Term_Predictor 0000000140124570     libgsmcodec-x86_64-x64-vc14-debug-dynamic:long_term.obj
 0002:00022578       $unwind$Gsm_Long_Term_Synthesis_Filtering 0000000140124578     libgsmcodec-x86_64-x64-vc14-debug-dynamic:long_term.obj
 0002:00022580       $unwind$Calculation_of_the_LTP_parameters 0000000140124580     libgsmcodec-x86_64-x64-vc14-debug-dynamic:long_term.obj
 0002:00022590       $unwind$Long_term_analysis_filtering 0000000140124590     libgsmcodec-x86_64-x64-vc14-debug-dynamic:long_term.obj
 0002:0002259c       $unwind$Gsm_LPC_Analysis   000000014012459c     libgsmcodec-x86_64-x64-vc14-debug-dynamic:lpc.obj
 0002:000225ac       $unwind$Autocorrelation    00000001401245ac     libgsmcodec-x86_64-x64-vc14-debug-dynamic:lpc.obj
 0002:000225b4       $unwind$Reflection_coefficients 00000001401245b4     libgsmcodec-x86_64-x64-vc14-debug-dynamic:lpc.obj
 0002:000225c4       $unwind$Transformation_to_Log_Area_Ratios 00000001401245c4     libgsmcodec-x86_64-x64-vc14-debug-dynamic:lpc.obj
 0002:000225cc       $unwind$Quantization_and_coding 00000001401245cc     libgsmcodec-x86_64-x64-vc14-debug-dynamic:lpc.obj
 0002:000225dc       $unwind$Gsm_Preprocess     00000001401245dc     libgsmcodec-x86_64-x64-vc14-debug-dynamic:preprocess.obj
 0002:000225e4       $unwind$Gsm_Short_Term_Analysis_Filter 00000001401245e4     libgsmcodec-x86_64-x64-vc14-debug-dynamic:short_term.obj
 0002:000225f4       $unwind$Gsm_Short_Term_Synthesis_Filter 00000001401245f4     libgsmcodec-x86_64-x64-vc14-debug-dynamic:short_term.obj
 0002:00022604       $unwind$Decoding_of_the_coded_Log_Area_Ratios 0000000140124604     libgsmcodec-x86_64-x64-vc14-debug-dynamic:short_term.obj
 0002:0002260c       $unwind$Coefficients_0_12  000000014012460c     libgsmcodec-x86_64-x64-vc14-debug-dynamic:short_term.obj
 0002:00022614       $unwind$Coefficients_13_26 0000000140124614     libgsmcodec-x86_64-x64-vc14-debug-dynamic:short_term.obj
 0002:0002261c       $unwind$Coefficients_27_39 000000014012461c     libgsmcodec-x86_64-x64-vc14-debug-dynamic:short_term.obj
 0002:00022624       $unwind$Coefficients_40_159 0000000140124624     libgsmcodec-x86_64-x64-vc14-debug-dynamic:short_term.obj
 0002:0002262c       $unwind$LARp_to_rp         000000014012462c     libgsmcodec-x86_64-x64-vc14-debug-dynamic:short_term.obj
 0002:00022634       $unwind$Short_term_analysis_filtering 0000000140124634     libgsmcodec-x86_64-x64-vc14-debug-dynamic:short_term.obj
 0002:0002263c       $unwind$Short_term_synthesis_filtering 000000014012463c     libgsmcodec-x86_64-x64-vc14-debug-dynamic:short_term.obj
 0002:00022650       $unwind$Gsm_RPE_Decoding   0000000140124650     libgsmcodec-x86_64-x64-vc14-debug-dynamic:rpe.obj
 0002:00022660       $unwind$Gsm_RPE_Encoding   0000000140124660     libgsmcodec-x86_64-x64-vc14-debug-dynamic:rpe.obj
 0002:00022670       $unwind$Weighting_filter   0000000140124670     libgsmcodec-x86_64-x64-vc14-debug-dynamic:rpe.obj
 0002:00022678       $unwind$RPE_grid_selection 0000000140124678     libgsmcodec-x86_64-x64-vc14-debug-dynamic:rpe.obj
 0002:00022680       $unwind$APCM_quantization_xmaxc_to_exp_mant 0000000140124680     libgsmcodec-x86_64-x64-vc14-debug-dynamic:rpe.obj
 0002:00022688       $unwind$APCM_quantization  0000000140124688     libgsmcodec-x86_64-x64-vc14-debug-dynamic:rpe.obj
 0002:00022690       $unwind$APCM_inverse_quantization 0000000140124690     libgsmcodec-x86_64-x64-vc14-debug-dynamic:rpe.obj
 0002:00022698       $unwind$RPE_grid_positioning 0000000140124698     libgsmcodec-x86_64-x64-vc14-debug-dynamic:rpe.obj
 0002:000226a8       $unwind$gsm_mult           00000001401246a8     libgsmcodec-x86_64-x64-vc14-debug-dynamic:add.obj
 0002:000226b0       $unwind$gsm_L_mult         00000001401246b0     libgsmcodec-x86_64-x64-vc14-debug-dynamic:add.obj
 0002:000226b8       $unwind$gsm_mult_r         00000001401246b8     libgsmcodec-x86_64-x64-vc14-debug-dynamic:add.obj
 0002:000226c0       $unwind$gsm_div            00000001401246c0     libgsmcodec-x86_64-x64-vc14-debug-dynamic:add.obj
 0002:000226c8       $unwind$gsm_add            00000001401246c8     libgsmcodec-x86_64-x64-vc14-debug-dynamic:add.obj
 0002:000226d0       $unwind$gsm_L_add          00000001401246d0     libgsmcodec-x86_64-x64-vc14-debug-dynamic:add.obj
 0002:000226d8       $unwind$gsm_sub            00000001401246d8     libgsmcodec-x86_64-x64-vc14-debug-dynamic:add.obj
 0002:000226e0       $unwind$gsm_L_sub          00000001401246e0     libgsmcodec-x86_64-x64-vc14-debug-dynamic:add.obj
 0002:000226e8       $unwind$gsm_abs            00000001401246e8     libgsmcodec-x86_64-x64-vc14-debug-dynamic:add.obj
 0002:000226f0       $unwind$gsm_norm           00000001401246f0     libgsmcodec-x86_64-x64-vc14-debug-dynamic:add.obj
 0002:000226f8       $unwind$gsm_L_asl          00000001401246f8     libgsmcodec-x86_64-x64-vc14-debug-dynamic:add.obj
 0002:00022700       $unwind$gsm_asl            0000000140124700     libgsmcodec-x86_64-x64-vc14-debug-dynamic:add.obj
 0002:00022708       $unwind$gsm_L_asr          0000000140124708     libgsmcodec-x86_64-x64-vc14-debug-dynamic:add.obj
 0002:00022710       $unwind$gsm_asr            0000000140124710     libgsmcodec-x86_64-x64-vc14-debug-dynamic:add.obj
 0002:00022724       $unwind$initEncode         0000000140124724     libilbccodec-x86_64-x64-vc14-debug-dynamic:iLBC_encode.obj
 0002:0002272c       $unwind$iLBC_encode        000000014012472c     libilbccodec-x86_64-x64-vc14-debug-dynamic:iLBC_encode.obj
 0002:00022744       $unwind$initDecode         0000000140124744     libilbccodec-x86_64-x64-vc14-debug-dynamic:iLBC_decode.obj
 0002:0002274c       $unwind$Decode             000000014012474c     libilbccodec-x86_64-x64-vc14-debug-dynamic:iLBC_decode.obj
 0002:0002275c       $unwind$iLBC_decode        000000014012475c     libilbccodec-x86_64-x64-vc14-debug-dynamic:iLBC_decode.obj
 0002:00022770       $unwind$SimpleAnalysis     0000000140124770     libilbccodec-x86_64-x64-vc14-debug-dynamic:LPCencode.obj
 0002:00022780       $unwind$LSFinterpolate2a_enc 0000000140124780     libilbccodec-x86_64-x64-vc14-debug-dynamic:LPCencode.obj
 0002:00022790       $unwind$SimpleInterpolateLSF 0000000140124790     libilbccodec-x86_64-x64-vc14-debug-dynamic:LPCencode.obj
 0002:000227a0       $unwind$SimplelsfQ         00000001401247a0     libilbccodec-x86_64-x64-vc14-debug-dynamic:LPCencode.obj
 0002:000227a8       $unwind$LPCencode          00000001401247a8     libilbccodec-x86_64-x64-vc14-debug-dynamic:LPCencode.obj
 0002:000227c0       $unwind$FrameClassify      00000001401247c0     libilbccodec-x86_64-x64-vc14-debug-dynamic:FrameClassify.obj
 0002:000227d4       $unwind$AbsQuantW          00000001401247d4     libilbccodec-x86_64-x64-vc14-debug-dynamic:StateSearchW.obj
 0002:000227e4       $unwind$StateSearchW       00000001401247e4     libilbccodec-x86_64-x64-vc14-debug-dynamic:StateSearchW.obj
 0002:000227f8       $unwind$StateConstructW    00000001401247f8     libilbccodec-x86_64-x64-vc14-debug-dynamic:StateConstructW.obj
 0002:0002280c       $unwind$packsplit          000000014012480c     libilbccodec-x86_64-x64-vc14-debug-dynamic:packing.obj
 0002:00022814       $unwind$packcombine        0000000140124814     libilbccodec-x86_64-x64-vc14-debug-dynamic:packing.obj
 0002:0002281c       $unwind$dopack             000000014012481c     libilbccodec-x86_64-x64-vc14-debug-dynamic:packing.obj
 0002:00022824       $unwind$unpack             0000000140124824     libilbccodec-x86_64-x64-vc14-debug-dynamic:packing.obj
 0002:00022830       $unwind$iCBSearch          0000000140124830     libilbccodec-x86_64-x64-vc14-debug-dynamic:iCBSearch.obj
 0002:00022844       $unwind$index_conv_enc     0000000140124844     libilbccodec-x86_64-x64-vc14-debug-dynamic:iCBConstruct.obj
 0002:0002284c       $unwind$index_conv_dec     000000014012484c     libilbccodec-x86_64-x64-vc14-debug-dynamic:iCBConstruct.obj
 0002:00022854       $unwind$iCBConstruct       0000000140124854     libilbccodec-x86_64-x64-vc14-debug-dynamic:iCBConstruct.obj
 0002:00022868       $unwind$hpInput            0000000140124868     libilbccodec-x86_64-x64-vc14-debug-dynamic:hpInput.obj
 0002:00022870       $unwind$anaFilter          0000000140124870     libilbccodec-x86_64-x64-vc14-debug-dynamic:anaFilter.obj
 0002:00022878       $unwind$LSFinterpolate2a_dec 0000000140124878     libilbccodec-x86_64-x64-vc14-debug-dynamic:LPCdecode.obj
 0002:00022888       $unwind$SimplelsfDEQ       0000000140124888     libilbccodec-x86_64-x64-vc14-debug-dynamic:LPCdecode.obj
 0002:00022890       $unwind$DecoderInterpolateLSF 0000000140124890     libilbccodec-x86_64-x64-vc14-debug-dynamic:LPCdecode.obj
 0002:000228a4       $unwind$compCorr           00000001401248a4     libilbccodec-x86_64-x64-vc14-debug-dynamic:doCPLC.obj
 0002:000228ac       $unwind$doThePLC           00000001401248ac     libilbccodec-x86_64-x64-vc14-debug-dynamic:doCPLC.obj
 0002:000228c0       $unwind$autocorr           00000001401248c0     libilbccodec-x86_64-x64-vc14-debug-dynamic:helpfun.obj
 0002:000228c8       $unwind$window             00000001401248c8     libilbccodec-x86_64-x64-vc14-debug-dynamic:helpfun.obj
 0002:000228d0       $unwind$levdurb            00000001401248d0     libilbccodec-x86_64-x64-vc14-debug-dynamic:helpfun.obj
 0002:000228d8       $unwind$interpolate        00000001401248d8     libilbccodec-x86_64-x64-vc14-debug-dynamic:helpfun.obj
 0002:000228e0       $unwind$bwexpand           00000001401248e0     libilbccodec-x86_64-x64-vc14-debug-dynamic:helpfun.obj
 0002:000228e8       $unwind$vq                 00000001401248e8     libilbccodec-x86_64-x64-vc14-debug-dynamic:helpfun.obj
 0002:000228f0       $unwind$SplitVQ            00000001401248f0     libilbccodec-x86_64-x64-vc14-debug-dynamic:helpfun.obj
 0002:000228f8       $unwind$sort_sq            00000001401248f8     libilbccodec-x86_64-x64-vc14-debug-dynamic:helpfun.obj
 0002:00022900       $unwind$LSF_check          0000000140124900     libilbccodec-x86_64-x64-vc14-debug-dynamic:helpfun.obj
 0002:00022910       $unwind$NearestNeighbor    0000000140124910     libilbccodec-x86_64-x64-vc14-debug-dynamic:enhancer.obj
 0002:00022918       $unwind$mycorr1            0000000140124918     libilbccodec-x86_64-x64-vc14-debug-dynamic:enhancer.obj
 0002:00022920       $unwind$enh_upsample       0000000140124920     libilbccodec-x86_64-x64-vc14-debug-dynamic:enhancer.obj
 0002:00022930       $unwind$refiner            0000000140124930     libilbccodec-x86_64-x64-vc14-debug-dynamic:enhancer.obj
 0002:00022940       $unwind$smath              0000000140124940     libilbccodec-x86_64-x64-vc14-debug-dynamic:enhancer.obj
 0002:00022950       $unwind$getsseq            0000000140124950     libilbccodec-x86_64-x64-vc14-debug-dynamic:enhancer.obj
 0002:00022960       $unwind$enhancer           0000000140124960     libilbccodec-x86_64-x64-vc14-debug-dynamic:enhancer.obj
 0002:00022970       $unwind$xCorrCoef          0000000140124970     libilbccodec-x86_64-x64-vc14-debug-dynamic:enhancer.obj
 0002:00022978       $unwind$enhancerInterface  0000000140124978     libilbccodec-x86_64-x64-vc14-debug-dynamic:enhancer.obj
 0002:00022994       $unwind$hpOutput           0000000140124994     libilbccodec-x86_64-x64-vc14-debug-dynamic:hpOutput.obj
 0002:0002299c       $unwind$syntFilter         000000014012499c     libilbccodec-x86_64-x64-vc14-debug-dynamic:syntFilter.obj
 0002:000229a4       $unwind$a2lsf              00000001401249a4     libilbccodec-x86_64-x64-vc14-debug-dynamic:lsf.obj
 0002:000229b4       $unwind$lsf2a              00000001401249b4     libilbccodec-x86_64-x64-vc14-debug-dynamic:lsf.obj
 0002:000229c8       $unwind$AllPoleFilter      00000001401249c8     libilbccodec-x86_64-x64-vc14-debug-dynamic:filter.obj
 0002:000229d0       $unwind$AllZeroFilter      00000001401249d0     libilbccodec-x86_64-x64-vc14-debug-dynamic:filter.obj
 0002:000229d8       $unwind$ZeroPoleFilter     00000001401249d8     libilbccodec-x86_64-x64-vc14-debug-dynamic:filter.obj
 0002:000229e0       $unwind$DownSample         00000001401249e0     libilbccodec-x86_64-x64-vc14-debug-dynamic:filter.obj
 0002:000229ec       $unwind$gainquant          00000001401249ec     libilbccodec-x86_64-x64-vc14-debug-dynamic:gainquant.obj
 0002:000229f4       $unwind$gaindequant        00000001401249f4     libilbccodec-x86_64-x64-vc14-debug-dynamic:gainquant.obj
 0002:00022a00       $unwind$filteredCBvecs     0000000140124a00     libilbccodec-x86_64-x64-vc14-debug-dynamic:createCB.obj
 0002:00022a10       $unwind$searchAugmentedCB  0000000140124a10     libilbccodec-x86_64-x64-vc14-debug-dynamic:createCB.obj
 0002:00022a18       $unwind$createAugmentedVec 0000000140124a18     libilbccodec-x86_64-x64-vc14-debug-dynamic:createCB.obj
 0002:00022a24       $unwind$getCBvec           0000000140124a24     libilbccodec-x86_64-x64-vc14-debug-dynamic:getCBvec.obj
 0002:00022a38       $unwind$speex_bits_init    0000000140124a38     libspeex-x86_64-x64-vc14-debug-dynamic:bits.obj
 0002:00022a40       $unwind$speex_bits_init_buffer 0000000140124a40     libspeex-x86_64-x64-vc14-debug-dynamic:bits.obj
 0002:00022a48       $unwind$speex_bits_destroy 0000000140124a48     libspeex-x86_64-x64-vc14-debug-dynamic:bits.obj
 0002:00022a50       $unwind$speex_bits_read_from 0000000140124a50     libspeex-x86_64-x64-vc14-debug-dynamic:bits.obj
 0002:00022a58       $unwind$speex_bits_read_whole_bytes 0000000140124a58     libspeex-x86_64-x64-vc14-debug-dynamic:bits.obj
 0002:00022a60       $unwind$speex_bits_write   0000000140124a60     libspeex-x86_64-x64-vc14-debug-dynamic:bits.obj
 0002:00022a68       $unwind$speex_bits_write_whole_bytes 0000000140124a68     libspeex-x86_64-x64-vc14-debug-dynamic:bits.obj
 0002:00022a70       $unwind$speex_bits_pack    0000000140124a70     libspeex-x86_64-x64-vc14-debug-dynamic:bits.obj
 0002:00022a78       $unwind$speex_bits_unpack_signed 0000000140124a78     libspeex-x86_64-x64-vc14-debug-dynamic:bits.obj
 0002:00022a80       $unwind$speex_bits_unpack_unsigned 0000000140124a80     libspeex-x86_64-x64-vc14-debug-dynamic:bits.obj
 0002:00022a88       $unwind$speex_bits_peek_unsigned 0000000140124a88     libspeex-x86_64-x64-vc14-debug-dynamic:bits.obj
 0002:00022a90       $unwind$speex_bits_insert_terminator 0000000140124a90     libspeex-x86_64-x64-vc14-debug-dynamic:bits.obj
 0002:00022a98       $unwind$speex_alloc        0000000140124a98     libspeex-x86_64-x64-vc14-debug-dynamic:bits.obj
 0002:00022aa0       $unwind$speex_realloc      0000000140124aa0     libspeex-x86_64-x64-vc14-debug-dynamic:bits.obj
 0002:00022aa8       $unwind$speex_free         0000000140124aa8     libspeex-x86_64-x64-vc14-debug-dynamic:bits.obj
 0002:00022ab0       $unwind$speex_notify       0000000140124ab0     libspeex-x86_64-x64-vc14-debug-dynamic:bits.obj
 0002:00022ab8       $unwind$speex_bits_flush   0000000140124ab8     libspeex-x86_64-x64-vc14-debug-dynamic:bits.obj
 0002:00022ad0       $unwind$fprintf            0000000140124ad0     libspeex-x86_64-x64-vc14-debug-dynamic:bits.obj
 0002:00022ad8       $unwind$speex_encoder_init 0000000140124ad8     libspeex-x86_64-x64-vc14-debug-dynamic:speex.obj
 0002:00022ae0       $unwind$speex_encoder_destroy 0000000140124ae0     libspeex-x86_64-x64-vc14-debug-dynamic:speex.obj
 0002:00022ae8       $unwind$speex_encode       0000000140124ae8     libspeex-x86_64-x64-vc14-debug-dynamic:speex.obj
 0002:00022af0       $unwind$speex_encode_int   0000000140124af0     libspeex-x86_64-x64-vc14-debug-dynamic:speex.obj
 0002:00022b00       $unwind$speex_encoder_ctl  0000000140124b00     libspeex-x86_64-x64-vc14-debug-dynamic:speex.obj
 0002:00022b08       $unwind$speex_decoder_init 0000000140124b08     libspeex-x86_64-x64-vc14-debug-dynamic:speex.obj
 0002:00022b10       $unwind$speex_decoder_destroy 0000000140124b10     libspeex-x86_64-x64-vc14-debug-dynamic:speex.obj
 0002:00022b18       $unwind$speex_decode       0000000140124b18     libspeex-x86_64-x64-vc14-debug-dynamic:speex.obj
 0002:00022b20       $unwind$speex_decode_int   0000000140124b20     libspeex-x86_64-x64-vc14-debug-dynamic:speex.obj
 0002:00022b30       $unwind$speex_decoder_ctl  0000000140124b30     libspeex-x86_64-x64-vc14-debug-dynamic:speex.obj
 0002:00022b38       $unwind$speex_lib_ctl      0000000140124b38     libspeex-x86_64-x64-vc14-debug-dynamic:speex.obj
 0002:00022b40       $unwind$speex_encode_native 0000000140124b40     libspeex-x86_64-x64-vc14-debug-dynamic:speex.obj
 0002:00022b48       $unwind$speex_decode_native 0000000140124b48     libspeex-x86_64-x64-vc14-debug-dynamic:speex.obj
 0002:00022b50       $unwind$nb_mode_query      0000000140124b50     libspeex-x86_64-x64-vc14-debug-dynamic:speex.obj
 0002:00022b64       $unwind$speex_mode_query   0000000140124b64     libspeex-x86_64-x64-vc14-debug-dynamic:modes.obj
 0002:00022b6c       $unwind$wb_mode_query      0000000140124b6c     libspeex-x86_64-x64-vc14-debug-dynamic:modes_wb.obj
 0002:00022b74       $unwind$inner_prod         0000000140124b74     libspeex-x86_64-x64-vc14-debug-dynamic:ltp.obj
 0002:00022b7c       $unwind$pitch_xcorr        0000000140124b7c     libspeex-x86_64-x64-vc14-debug-dynamic:ltp.obj
 0002:00022b84       $unwind$open_loop_nbest_pitch 0000000140124b84     libspeex-x86_64-x64-vc14-debug-dynamic:ltp.obj
 0002:00022b98       $unwind$pitch_search_3tap  0000000140124b98     libspeex-x86_64-x64-vc14-debug-dynamic:ltp.obj
 0002:00022bac       $unwind$pitch_unquant_3tap 0000000140124bac     libspeex-x86_64-x64-vc14-debug-dynamic:ltp.obj
 0002:00022bbc       $unwind$forced_pitch_quant 0000000140124bbc     libspeex-x86_64-x64-vc14-debug-dynamic:ltp.obj
 0002:00022bd0       $unwind$forced_pitch_unquant 0000000140124bd0     libspeex-x86_64-x64-vc14-debug-dynamic:ltp.obj
 0002:00022bd8       $unwind$compute_pitch_error 0000000140124bd8     libspeex-x86_64-x64-vc14-debug-dynamic:ltp.obj
 0002:00022be0       $unwind$pitch_gain_search_3tap_vq 0000000140124be0     libspeex-x86_64-x64-vc14-debug-dynamic:ltp.obj
 0002:00022bf0       $unwind$pitch_gain_search_3tap 0000000140124bf0     libspeex-x86_64-x64-vc14-debug-dynamic:ltp.obj
 0002:00022c14       $unwind$lsp_quant_nb       0000000140124c14     libspeex-x86_64-x64-vc14-debug-dynamic:quant_lsp.obj
 0002:00022c24       $unwind$lsp_unquant_nb     0000000140124c24     libspeex-x86_64-x64-vc14-debug-dynamic:quant_lsp.obj
 0002:00022c2c       $unwind$lsp_quant_lbr      0000000140124c2c     libspeex-x86_64-x64-vc14-debug-dynamic:quant_lsp.obj
 0002:00022c3c       $unwind$lsp_unquant_lbr    0000000140124c3c     libspeex-x86_64-x64-vc14-debug-dynamic:quant_lsp.obj
 0002:00022c44       $unwind$lsp_quant_high     0000000140124c44     libspeex-x86_64-x64-vc14-debug-dynamic:quant_lsp.obj
 0002:00022c54       $unwind$lsp_unquant_high   0000000140124c54     libspeex-x86_64-x64-vc14-debug-dynamic:quant_lsp.obj
 0002:00022c5c       $unwind$compute_quant_weights 0000000140124c5c     libspeex-x86_64-x64-vc14-debug-dynamic:quant_lsp.obj
 0002:00022c64       $unwind$lsp_quant          0000000140124c64     libspeex-x86_64-x64-vc14-debug-dynamic:quant_lsp.obj
 0002:00022c6c       $unwind$lsp_weight_quant   0000000140124c6c     libspeex-x86_64-x64-vc14-debug-dynamic:quant_lsp.obj
 0002:00022c80       $unwind$split_cb_search_shape_sign 0000000140124c80     libspeex-x86_64-x64-vc14-debug-dynamic:cb_search.obj
 0002:00022c94       $unwind$split_cb_shape_sign_unquant 0000000140124c94     libspeex-x86_64-x64-vc14-debug-dynamic:cb_search.obj
 0002:00022ca8       $unwind$noise_codebook_quant 0000000140124ca8     libspeex-x86_64-x64-vc14-debug-dynamic:cb_search.obj
 0002:00022cbc       $unwind$noise_codebook_unquant 0000000140124cbc     libspeex-x86_64-x64-vc14-debug-dynamic:cb_search.obj
 0002:00022cc4       $unwind$compute_weighted_codebook 0000000140124cc4     libspeex-x86_64-x64-vc14-debug-dynamic:cb_search.obj
 0002:00022cd8       $unwind$target_update      0000000140124cd8     libspeex-x86_64-x64-vc14-debug-dynamic:cb_search.obj
 0002:00022ce0       $unwind$split_cb_search_shape_sign_N1 0000000140124ce0     libspeex-x86_64-x64-vc14-debug-dynamic:cb_search.obj
 0002:00022d00       $unwind$speex_rand         0000000140124d00     libspeex-x86_64-x64-vc14-debug-dynamic:cb_search.obj
 0002:00022d08       $unwind$nb_encoder_init    0000000140124d08     libspeex-x86_64-x64-vc14-debug-dynamic:nb_celp.obj
 0002:00022d10       $unwind$nb_encoder_destroy 0000000140124d10     libspeex-x86_64-x64-vc14-debug-dynamic:nb_celp.obj
 0002:00022d18       $unwind$nb_encode          0000000140124d18     libspeex-x86_64-x64-vc14-debug-dynamic:nb_celp.obj
 0002:00022d2c       $unwind$nb_decoder_init    0000000140124d2c     libspeex-x86_64-x64-vc14-debug-dynamic:nb_celp.obj
 0002:00022d34       $unwind$nb_decoder_destroy 0000000140124d34     libspeex-x86_64-x64-vc14-debug-dynamic:nb_celp.obj
 0002:00022d3c       $unwind$nb_decode          0000000140124d3c     libspeex-x86_64-x64-vc14-debug-dynamic:nb_celp.obj
 0002:00022d50       $unwind$nb_encoder_ctl     0000000140124d50     libspeex-x86_64-x64-vc14-debug-dynamic:nb_celp.obj
 0002:00022d58       $unwind$nb_decoder_ctl     0000000140124d58     libspeex-x86_64-x64-vc14-debug-dynamic:nb_celp.obj
 0002:00022d60       $unwind$speex_alloc        0000000140124d60     libspeex-x86_64-x64-vc14-debug-dynamic:nb_celp.obj
 0002:00022d68       $unwind$speex_free         0000000140124d68     libspeex-x86_64-x64-vc14-debug-dynamic:nb_celp.obj
 0002:00022d70       $unwind$_speex_fatal       0000000140124d70     libspeex-x86_64-x64-vc14-debug-dynamic:nb_celp.obj
 0002:00022d78       $unwind$speex_notify       0000000140124d78     libspeex-x86_64-x64-vc14-debug-dynamic:nb_celp.obj
 0002:00022d80       $unwind$nb_decode_lost     0000000140124d80     libspeex-x86_64-x64-vc14-debug-dynamic:nb_celp.obj
 0002:00022d94       $unwind$speex_rand         0000000140124d94     libspeex-x86_64-x64-vc14-debug-dynamic:nb_celp.obj
 0002:00022d9c       $unwind$vbr_init           0000000140124d9c     libspeex-x86_64-x64-vc14-debug-dynamic:vbr.obj
 0002:00022da4       $unwind$vbr_analysis       0000000140124da4     libspeex-x86_64-x64-vc14-debug-dynamic:vbr.obj
 0002:00022db0       $unwind$sb_encoder_init    0000000140124db0     libspeex-x86_64-x64-vc14-debug-dynamic:sb_celp.obj
 0002:00022db8       $unwind$sb_encoder_destroy 0000000140124db8     libspeex-x86_64-x64-vc14-debug-dynamic:sb_celp.obj
 0002:00022dc0       $unwind$sb_encode          0000000140124dc0     libspeex-x86_64-x64-vc14-debug-dynamic:sb_celp.obj
 0002:00022dd4       $unwind$sb_decoder_init    0000000140124dd4     libspeex-x86_64-x64-vc14-debug-dynamic:sb_celp.obj
 0002:00022ddc       $unwind$sb_decoder_destroy 0000000140124ddc     libspeex-x86_64-x64-vc14-debug-dynamic:sb_celp.obj
 0002:00022de4       $unwind$sb_decode          0000000140124de4     libspeex-x86_64-x64-vc14-debug-dynamic:sb_celp.obj
 0002:00022df8       $unwind$sb_encoder_ctl     0000000140124df8     libspeex-x86_64-x64-vc14-debug-dynamic:sb_celp.obj
 0002:00022e00       $unwind$sb_decoder_ctl     0000000140124e00     libspeex-x86_64-x64-vc14-debug-dynamic:sb_celp.obj
 0002:00022e08       $unwind$speex_alloc        0000000140124e08     libspeex-x86_64-x64-vc14-debug-dynamic:sb_celp.obj
 0002:00022e10       $unwind$speex_free         0000000140124e10     libspeex-x86_64-x64-vc14-debug-dynamic:sb_celp.obj
 0002:00022e18       $unwind$speex_notify       0000000140124e18     libspeex-x86_64-x64-vc14-debug-dynamic:sb_celp.obj
 0002:00022e20       $unwind$sb_decode_lost     0000000140124e20     libspeex-x86_64-x64-vc14-debug-dynamic:sb_celp.obj
 0002:00022e34       $unwind$speex_rand         0000000140124e34     libspeex-x86_64-x64-vc14-debug-dynamic:sb_celp.obj
 0002:00022e3c       $unwind$compute_rms        0000000140124e3c     libspeex-x86_64-x64-vc14-debug-dynamic:filters.obj
 0002:00022e44       $unwind$compute_rms16      0000000140124e44     libspeex-x86_64-x64-vc14-debug-dynamic:filters.obj
 0002:00022e4c       $unwind$signal_mul         0000000140124e4c     libspeex-x86_64-x64-vc14-debug-dynamic:filters.obj
 0002:00022e54       $unwind$signal_div         0000000140124e54     libspeex-x86_64-x64-vc14-debug-dynamic:filters.obj
 0002:00022e5c       $unwind$highpass           0000000140124e5c     libspeex-x86_64-x64-vc14-debug-dynamic:filters.obj
 0002:00022e6c       $unwind$qmf_decomp         0000000140124e6c     libspeex-x86_64-x64-vc14-debug-dynamic:filters.obj
 0002:00022e80       $unwind$qmf_synth          0000000140124e80     libspeex-x86_64-x64-vc14-debug-dynamic:filters.obj
 0002:00022e94       $unwind$filter_mem16       0000000140124e94     libspeex-x86_64-x64-vc14-debug-dynamic:filters.obj
 0002:00022e9c       $unwind$iir_mem16          0000000140124e9c     libspeex-x86_64-x64-vc14-debug-dynamic:filters.obj
 0002:00022ea4       $unwind$fir_mem16          0000000140124ea4     libspeex-x86_64-x64-vc14-debug-dynamic:filters.obj
 0002:00022eac       $unwind$bw_lpc             0000000140124eac     libspeex-x86_64-x64-vc14-debug-dynamic:filters.obj
 0002:00022eb4       $unwind$sanitize_values32  0000000140124eb4     libspeex-x86_64-x64-vc14-debug-dynamic:filters.obj
 0002:00022ebc       $unwind$syn_percep_zero16  0000000140124ebc     libspeex-x86_64-x64-vc14-debug-dynamic:filters.obj
 0002:00022ed0       $unwind$residue_percep_zero16 0000000140124ed0     libspeex-x86_64-x64-vc14-debug-dynamic:filters.obj
 0002:00022ee4       $unwind$compute_impulse_response 0000000140124ee4     libspeex-x86_64-x64-vc14-debug-dynamic:filters.obj
 0002:00022ef8       $unwind$multicomb          0000000140124ef8     libspeex-x86_64-x64-vc14-debug-dynamic:filters.obj
 0002:00022f0c       $unwind$interp_pitch       0000000140124f0c     libspeex-x86_64-x64-vc14-debug-dynamic:filters.obj
 0002:00022f34       $unwind$scal_quant         0000000140124f34     libspeex-x86_64-x64-vc14-debug-dynamic:vq.obj
 0002:00022f3c       $unwind$scal_quant32       0000000140124f3c     libspeex-x86_64-x64-vc14-debug-dynamic:vq.obj
 0002:00022f44       $unwind$vq_nbest           0000000140124f44     libspeex-x86_64-x64-vc14-debug-dynamic:vq.obj
 0002:00022f4c       $unwind$vq_nbest_sign      0000000140124f4c     libspeex-x86_64-x64-vc14-debug-dynamic:vq.obj
 0002:00022f58       $unwind$speex_inband_handler 0000000140124f58     libspeex-x86_64-x64-vc14-debug-dynamic:speex_callbacks.obj
 0002:00022f60       $unwind$speex_std_mode_request_handler 0000000140124f60     libspeex-x86_64-x64-vc14-debug-dynamic:speex_callbacks.obj
 0002:00022f68       $unwind$speex_std_high_mode_request_handler 0000000140124f68     libspeex-x86_64-x64-vc14-debug-dynamic:speex_callbacks.obj
 0002:00022f70       $unwind$speex_std_char_handler 0000000140124f70     libspeex-x86_64-x64-vc14-debug-dynamic:speex_callbacks.obj
 0002:00022f78       $unwind$speex_default_user_handler 0000000140124f78     libspeex-x86_64-x64-vc14-debug-dynamic:speex_callbacks.obj
 0002:00022f80       $unwind$speex_std_low_mode_request_handler 0000000140124f80     libspeex-x86_64-x64-vc14-debug-dynamic:speex_callbacks.obj
 0002:00022f88       $unwind$speex_std_vbr_request_handler 0000000140124f88     libspeex-x86_64-x64-vc14-debug-dynamic:speex_callbacks.obj
 0002:00022f90       $unwind$speex_std_enh_request_handler 0000000140124f90     libspeex-x86_64-x64-vc14-debug-dynamic:speex_callbacks.obj
 0002:00022f98       $unwind$speex_std_vbr_quality_request_handler 0000000140124f98     libspeex-x86_64-x64-vc14-debug-dynamic:speex_callbacks.obj
 0002:00022fa0       $unwind$_speex_putc        0000000140124fa0     libspeex-x86_64-x64-vc14-debug-dynamic:speex_callbacks.obj
 0002:00022fb0       $unwind$_spx_autocorr      0000000140124fb0     libspeex-x86_64-x64-vc14-debug-dynamic:lpc.obj
 0002:00022fb8       $unwind$_spx_lpc           0000000140124fb8     libspeex-x86_64-x64-vc14-debug-dynamic:lpc.obj
 0002:00022fc4       $unwind$lpc_to_lsp         0000000140124fc4     libspeex-x86_64-x64-vc14-debug-dynamic:lsp.obj
 0002:00022fd8       $unwind$lsp_to_lpc         0000000140124fd8     libspeex-x86_64-x64-vc14-debug-dynamic:lsp.obj
 0002:00022fec       $unwind$lsp_enforce_margin 0000000140124fec     libspeex-x86_64-x64-vc14-debug-dynamic:lsp.obj
 0002:00022ff4       $unwind$lsp_interpolate    0000000140124ff4     libspeex-x86_64-x64-vc14-debug-dynamic:lsp.obj
 0002:00022ffc       $unwind$cheb_poly_eva      0000000140124ffc     libspeex-x86_64-x64-vc14-debug-dynamic:lsp.obj
 0002:0002300c       $unwind$srtp_init          000000014012500c     libsrtp-x86_64-x64-vc14-debug-dynamic:srtp.obj
 0002:00023014       $unwind$srtp_shutdown      0000000140125014     libsrtp-x86_64-x64-vc14-debug-dynamic:srtp.obj
 0002:0002301c       $unwind$srtp_protect       000000014012501c     libsrtp-x86_64-x64-vc14-debug-dynamic:srtp.obj
 0002:00023024       $unwind$srtp_protect_mki   0000000140125024     libsrtp-x86_64-x64-vc14-debug-dynamic:srtp.obj
 0002:00023034       $unwind$srtp_unprotect     0000000140125034     libsrtp-x86_64-x64-vc14-debug-dynamic:srtp.obj
 0002:0002303c       $unwind$srtp_unprotect_mki 000000014012503c     libsrtp-x86_64-x64-vc14-debug-dynamic:srtp.obj
 0002:0002304c       $unwind$srtp_create        000000014012504c     libsrtp-x86_64-x64-vc14-debug-dynamic:srtp.obj
 0002:00023054       $unwind$srtp_add_stream    0000000140125054     libsrtp-x86_64-x64-vc14-debug-dynamic:srtp.obj
 0002:0002305c       $unwind$srtp_remove_stream 000000014012505c     libsrtp-x86_64-x64-vc14-debug-dynamic:srtp.obj
 0002:00023064       $unwind$srtp_update        0000000140125064     libsrtp-x86_64-x64-vc14-debug-dynamic:srtp.obj
 0002:0002306c       $unwind$srtp_update_stream 000000014012506c     libsrtp-x86_64-x64-vc14-debug-dynamic:srtp.obj
 0002:00023074       $unwind$srtp_dealloc       0000000140125074     libsrtp-x86_64-x64-vc14-debug-dynamic:srtp.obj
 0002:0002307c       $unwind$srtp_crypto_policy_set_from_profile_for_rtp 000000014012507c     libsrtp-x86_64-x64-vc14-debug-dynamic:srtp.obj
 0002:00023084       $unwind$srtp_crypto_policy_set_from_profile_for_rtcp 0000000140125084     libsrtp-x86_64-x64-vc14-debug-dynamic:srtp.obj
 0002:0002308c       $unwind$srtp_profile_get_master_key_length 000000014012508c     libsrtp-x86_64-x64-vc14-debug-dynamic:srtp.obj
 0002:00023094       $unwind$srtp_profile_get_master_salt_length 0000000140125094     libsrtp-x86_64-x64-vc14-debug-dynamic:srtp.obj
 0002:0002309c       $unwind$srtp_append_salt_to_key 000000014012509c     libsrtp-x86_64-x64-vc14-debug-dynamic:srtp.obj
 0002:000230a4       $unwind$srtp_protect_rtcp  00000001401250a4     libsrtp-x86_64-x64-vc14-debug-dynamic:srtp.obj
 0002:000230ac       $unwind$srtp_protect_rtcp_mki 00000001401250ac     libsrtp-x86_64-x64-vc14-debug-dynamic:srtp.obj
 0002:000230bc       $unwind$srtp_unprotect_rtcp 00000001401250bc     libsrtp-x86_64-x64-vc14-debug-dynamic:srtp.obj
 0002:000230c4       $unwind$srtp_unprotect_rtcp_mki 00000001401250c4     libsrtp-x86_64-x64-vc14-debug-dynamic:srtp.obj
 0002:000230d4       $unwind$srtp_get_version   00000001401250d4     libsrtp-x86_64-x64-vc14-debug-dynamic:srtp.obj
 0002:000230dc       $unwind$srtp_set_debug_module 00000001401250dc     libsrtp-x86_64-x64-vc14-debug-dynamic:srtp.obj
 0002:000230e4       $unwind$srtp_list_debug_modules 00000001401250e4     libsrtp-x86_64-x64-vc14-debug-dynamic:srtp.obj
 0002:000230ec       $unwind$srtp_install_log_handler 00000001401250ec     libsrtp-x86_64-x64-vc14-debug-dynamic:srtp.obj
 0002:000230f4       $unwind$srtp_get_protect_trailer_length 00000001401250f4     libsrtp-x86_64-x64-vc14-debug-dynamic:srtp.obj
 0002:000230fc       $unwind$srtp_get_protect_rtcp_trailer_length 00000001401250fc     libsrtp-x86_64-x64-vc14-debug-dynamic:srtp.obj
 0002:00023104       $unwind$srtp_set_stream_roc 0000000140125104     libsrtp-x86_64-x64-vc14-debug-dynamic:srtp.obj
 0002:0002310c       $unwind$srtp_get_stream_roc 000000014012510c     libsrtp-x86_64-x64-vc14-debug-dynamic:srtp.obj
 0002:00023114       $unwind$be64_to_cpu        0000000140125114     libsrtp-x86_64-x64-vc14-debug-dynamic:srtp.obj
 0002:0002311c       $unwind$srtp_get_stream    000000014012511c     libsrtp-x86_64-x64-vc14-debug-dynamic:srtp.obj
 0002:00023124       $unwind$srtp_stream_init_keys 0000000140125124     libsrtp-x86_64-x64-vc14-debug-dynamic:srtp.obj
 0002:00023134       $unwind$srtp_stream_init   0000000140125134     libsrtp-x86_64-x64-vc14-debug-dynamic:srtp.obj
 0002:0002313c       $unwind$srtp_validate_rtp_header 000000014012513c     libsrtp-x86_64-x64-vc14-debug-dynamic:srtp.obj
 0002:00023144       $unwind$srtp_stream_free   0000000140125144     libsrtp-x86_64-x64-vc14-debug-dynamic:srtp.obj
 0002:0002314c       $unwind$srtp_stream_alloc  000000014012514c     libsrtp-x86_64-x64-vc14-debug-dynamic:srtp.obj
 0002:00023154       $unwind$srtp_stream_dealloc 0000000140125154     libsrtp-x86_64-x64-vc14-debug-dynamic:srtp.obj
 0002:0002315c       $unwind$srtp_stream_clone  000000014012515c     libsrtp-x86_64-x64-vc14-debug-dynamic:srtp.obj
 0002:00023164       $unwind$srtp_kdf_init      0000000140125164     libsrtp-x86_64-x64-vc14-debug-dynamic:srtp.obj
 0002:0002316c       $unwind$srtp_kdf_generate  000000014012516c     libsrtp-x86_64-x64-vc14-debug-dynamic:srtp.obj
 0002:0002317c       $unwind$srtp_kdf_clear     000000014012517c     libsrtp-x86_64-x64-vc14-debug-dynamic:srtp.obj
 0002:00023184       $unwind$base_key_length    0000000140125184     libsrtp-x86_64-x64-vc14-debug-dynamic:srtp.obj
 0002:0002318c       $unwind$srtp_validate_policy_master_keys 000000014012518c     libsrtp-x86_64-x64-vc14-debug-dynamic:srtp.obj
 0002:00023194       $unwind$srtp_inject_mki    0000000140125194     libsrtp-x86_64-x64-vc14-debug-dynamic:srtp.obj
 0002:0002319c       $unwind$srtp_stream_init_all_master_keys 000000014012519c     libsrtp-x86_64-x64-vc14-debug-dynamic:srtp.obj
 0002:000231a4       $unwind$srtp_event_reporter 00000001401251a4     libsrtp-x86_64-x64-vc14-debug-dynamic:srtp.obj
 0002:000231ac       $unwind$srtp_protect_extension_header 00000001401251ac     libsrtp-x86_64-x64-vc14-debug-dynamic:srtp.obj
 0002:000231b4       $unwind$srtp_process_header_encryption 00000001401251b4     libsrtp-x86_64-x64-vc14-debug-dynamic:srtp.obj
 0002:000231c4       $unwind$srtp_calc_aead_iv  00000001401251c4     libsrtp-x86_64-x64-vc14-debug-dynamic:srtp.obj
 0002:000231d4       $unwind$srtp_get_session_keys 00000001401251d4     libsrtp-x86_64-x64-vc14-debug-dynamic:srtp.obj
 0002:000231dc       $unwind$srtp_get_est_pkt_index 00000001401251dc     libsrtp-x86_64-x64-vc14-debug-dynamic:srtp.obj
 0002:000231e4       $unwind$srtp_protect_aead  00000001401251e4     libsrtp-x86_64-x64-vc14-debug-dynamic:srtp.obj
 0002:000231f4       $unwind$srtp_unprotect_aead 00000001401251f4     libsrtp-x86_64-x64-vc14-debug-dynamic:srtp.obj
 0002:00023204       $unwind$update_template_streams 0000000140125204     libsrtp-x86_64-x64-vc14-debug-dynamic:srtp.obj
 0002:00023218       $unwind$update_stream      0000000140125218     libsrtp-x86_64-x64-vc14-debug-dynamic:srtp.obj
 0002:0002322c       $unwind$srtp_calc_aead_iv_srtcp 000000014012522c     libsrtp-x86_64-x64-vc14-debug-dynamic:srtp.obj
 0002:0002323c       $unwind$srtp_protect_rtcp_aead 000000014012523c     libsrtp-x86_64-x64-vc14-debug-dynamic:srtp.obj
 0002:0002324c       $unwind$srtp_unprotect_rtcp_aead 000000014012524c     libsrtp-x86_64-x64-vc14-debug-dynamic:srtp.obj
 0002:0002325c       $unwind$srtp_err_handler   000000014012525c     libsrtp-x86_64-x64-vc14-debug-dynamic:srtp.obj
 0002:000232a0       $unwind$_vsscanf_l         00000001401252a0     libsrtp-x86_64-x64-vc14-debug-dynamic:srtp.obj
 0002:000232a8       $unwind$sscanf             00000001401252a8     libsrtp-x86_64-x64-vc14-debug-dynamic:srtp.obj
 0002:000232b0       $unwind$srtp_crypto_alloc  00000001401252b0     libsrtp-x86_64-x64-vc14-debug-dynamic:alloc.obj
 0002:000232b8       $unwind$srtp_crypto_free   00000001401252b8     libsrtp-x86_64-x64-vc14-debug-dynamic:alloc.obj
 0002:000232c4       $unwind$srtp_octet_string_hex_string 00000001401252c4     libsrtp-x86_64-x64-vc14-debug-dynamic:datatypes.obj
 0002:000232cc       $unwind$v128_bit_string    00000001401252cc     libsrtp-x86_64-x64-vc14-debug-dynamic:datatypes.obj
 0002:000232d4       $unwind$v128_hex_string    00000001401252d4     libsrtp-x86_64-x64-vc14-debug-dynamic:datatypes.obj
 0002:000232dc       $unwind$v128_left_shift    00000001401252dc     libsrtp-x86_64-x64-vc14-debug-dynamic:datatypes.obj
 0002:000232e4       $unwind$v128_right_shift   00000001401252e4     libsrtp-x86_64-x64-vc14-debug-dynamic:datatypes.obj
 0002:000232ec       $unwind$octet_string_is_eq 00000001401252ec     libsrtp-x86_64-x64-vc14-debug-dynamic:datatypes.obj
 0002:000232f4       $unwind$srtp_cleanse       00000001401252f4     libsrtp-x86_64-x64-vc14-debug-dynamic:datatypes.obj
 0002:000232fc       $unwind$octet_string_set_to_zero 00000001401252fc     libsrtp-x86_64-x64-vc14-debug-dynamic:datatypes.obj
 0002:00023304       $unwind$bitvector_alloc    0000000140125304     libsrtp-x86_64-x64-vc14-debug-dynamic:datatypes.obj
 0002:0002330c       $unwind$bitvector_dealloc  000000014012530c     libsrtp-x86_64-x64-vc14-debug-dynamic:datatypes.obj
 0002:00023314       $unwind$bitvector_set_to_zero 0000000140125314     libsrtp-x86_64-x64-vc14-debug-dynamic:datatypes.obj
 0002:0002331c       $unwind$bitvector_left_shift 000000014012531c     libsrtp-x86_64-x64-vc14-debug-dynamic:datatypes.obj
 0002:00023324       $unwind$bitvector_bit_string 0000000140125324     libsrtp-x86_64-x64-vc14-debug-dynamic:datatypes.obj
 0002:0002332c       $unwind$srtp_nibble_to_hex_char 000000014012532c     libsrtp-x86_64-x64-vc14-debug-dynamic:datatypes.obj
 0002:00023348       $unwind$srtp_err_report    0000000140125348     libsrtp-x86_64-x64-vc14-debug-dynamic:srtp_err.obj
 0002:00023350       $unwind$srtp_rdbx_init     0000000140125350     libsrtp-x86_64-x64-vc14-debug-dynamic:rdbx.obj
 0002:00023358       $unwind$srtp_rdbx_dealloc  0000000140125358     libsrtp-x86_64-x64-vc14-debug-dynamic:rdbx.obj
 0002:00023360       $unwind$srtp_rdbx_estimate_index 0000000140125360     libsrtp-x86_64-x64-vc14-debug-dynamic:rdbx.obj
 0002:00023368       $unwind$srtp_rdbx_check    0000000140125368     libsrtp-x86_64-x64-vc14-debug-dynamic:rdbx.obj
 0002:00023370       $unwind$srtp_rdbx_add_index 0000000140125370     libsrtp-x86_64-x64-vc14-debug-dynamic:rdbx.obj
 0002:00023378       $unwind$srtp_rdbx_set_roc  0000000140125378     libsrtp-x86_64-x64-vc14-debug-dynamic:rdbx.obj
 0002:00023380       $unwind$srtp_index_guess   0000000140125380     libsrtp-x86_64-x64-vc14-debug-dynamic:rdbx.obj
 0002:00023388       $unwind$srtp_rdbx_get_roc  0000000140125388     libsrtp-x86_64-x64-vc14-debug-dynamic:rdbx.obj
 0002:00023390       $unwind$srtp_rdbx_set_roc_seq 0000000140125390     libsrtp-x86_64-x64-vc14-debug-dynamic:rdbx.obj
 0002:000233a0       $unwind$srtp_rdb_add_index 00000001401253a0     libsrtp-x86_64-x64-vc14-debug-dynamic:rdb.obj
 0002:000233a8       $unwind$srtp_cipher_type_self_test 00000001401253a8     libsrtp-x86_64-x64-vc14-debug-dynamic:cipher.obj
 0002:000233b0       $unwind$srtp_cipher_type_test 00000001401253b0     libsrtp-x86_64-x64-vc14-debug-dynamic:cipher.obj
 0002:000233c0       $unwind$srtp_cipher_bits_per_second 00000001401253c0     libsrtp-x86_64-x64-vc14-debug-dynamic:cipher.obj
 0002:000233d0       $unwind$srtp_cipher_type_alloc 00000001401253d0     libsrtp-x86_64-x64-vc14-debug-dynamic:cipher.obj
 0002:000233d8       $unwind$srtp_cipher_dealloc 00000001401253d8     libsrtp-x86_64-x64-vc14-debug-dynamic:cipher.obj
 0002:000233e0       $unwind$srtp_cipher_init   00000001401253e0     libsrtp-x86_64-x64-vc14-debug-dynamic:cipher.obj
 0002:000233e8       $unwind$srtp_cipher_set_iv 00000001401253e8     libsrtp-x86_64-x64-vc14-debug-dynamic:cipher.obj
 0002:000233f0       $unwind$srtp_cipher_output 00000001401253f0     libsrtp-x86_64-x64-vc14-debug-dynamic:cipher.obj
 0002:000233f8       $unwind$srtp_cipher_encrypt 00000001401253f8     libsrtp-x86_64-x64-vc14-debug-dynamic:cipher.obj
 0002:00023400       $unwind$srtp_cipher_decrypt 0000000140125400     libsrtp-x86_64-x64-vc14-debug-dynamic:cipher.obj
 0002:00023408       $unwind$srtp_cipher_get_tag 0000000140125408     libsrtp-x86_64-x64-vc14-debug-dynamic:cipher.obj
 0002:00023410       $unwind$srtp_cipher_set_aad 0000000140125410     libsrtp-x86_64-x64-vc14-debug-dynamic:cipher.obj
 0002:00023418       $unwind$srtp_cipher_rand   0000000140125418     libsrtp-x86_64-x64-vc14-debug-dynamic:cipher.obj
 0002:0002342c       $unwind$srtp_auth_type_self_test 000000014012542c     libsrtp-x86_64-x64-vc14-debug-dynamic:auth.obj
 0002:00023434       $unwind$srtp_auth_type_test 0000000140125434     libsrtp-x86_64-x64-vc14-debug-dynamic:auth.obj
 0002:00023448       $unwind$srtp_replace_cipher_type 0000000140125448     libsrtp-x86_64-x64-vc14-debug-dynamic:crypto_kernel.obj
 0002:00023450       $unwind$srtp_replace_auth_type 0000000140125450     libsrtp-x86_64-x64-vc14-debug-dynamic:crypto_kernel.obj
 0002:00023458       $unwind$srtp_crypto_kernel_init 0000000140125458     libsrtp-x86_64-x64-vc14-debug-dynamic:crypto_kernel.obj
 0002:00023460       $unwind$srtp_crypto_kernel_shutdown 0000000140125460     libsrtp-x86_64-x64-vc14-debug-dynamic:crypto_kernel.obj
 0002:00023468       $unwind$srtp_crypto_kernel_status 0000000140125468     libsrtp-x86_64-x64-vc14-debug-dynamic:crypto_kernel.obj
 0002:00023470       $unwind$srtp_crypto_kernel_list_debug_modules 0000000140125470     libsrtp-x86_64-x64-vc14-debug-dynamic:crypto_kernel.obj
 0002:00023478       $unwind$srtp_crypto_kernel_load_cipher_type 0000000140125478     libsrtp-x86_64-x64-vc14-debug-dynamic:crypto_kernel.obj
 0002:00023480       $unwind$srtp_crypto_kernel_load_auth_type 0000000140125480     libsrtp-x86_64-x64-vc14-debug-dynamic:crypto_kernel.obj
 0002:00023488       $unwind$srtp_crypto_kernel_load_debug_module 0000000140125488     libsrtp-x86_64-x64-vc14-debug-dynamic:crypto_kernel.obj
 0002:00023490       $unwind$srtp_crypto_kernel_alloc_cipher 0000000140125490     libsrtp-x86_64-x64-vc14-debug-dynamic:crypto_kernel.obj
 0002:00023498       $unwind$srtp_crypto_kernel_alloc_auth 0000000140125498     libsrtp-x86_64-x64-vc14-debug-dynamic:crypto_kernel.obj
 0002:000234a0       $unwind$srtp_crypto_kernel_set_debug_module 00000001401254a0     libsrtp-x86_64-x64-vc14-debug-dynamic:crypto_kernel.obj
 0002:000234a8       $unwind$srtp_crypto_kernel_do_load_cipher_type 00000001401254a8     libsrtp-x86_64-x64-vc14-debug-dynamic:crypto_kernel.obj
 0002:000234b0       $unwind$srtp_crypto_kernel_do_load_auth_type 00000001401254b0     libsrtp-x86_64-x64-vc14-debug-dynamic:crypto_kernel.obj
 0002:000234b8       $unwind$srtp_crypto_kernel_get_cipher_type 00000001401254b8     libsrtp-x86_64-x64-vc14-debug-dynamic:crypto_kernel.obj
 0002:000234c0       $unwind$srtp_crypto_kernel_get_auth_type 00000001401254c0     libsrtp-x86_64-x64-vc14-debug-dynamic:crypto_kernel.obj
 0002:000234d4       $unwind$srtp_ekt_octets_after_base_tag 00000001401254d4     libsrtp-x86_64-x64-vc14-debug-dynamic:ekt.obj
 0002:000234dc       $unwind$srtp_stream_init_from_ekt 00000001401254dc     libsrtp-x86_64-x64-vc14-debug-dynamic:ekt.obj
 0002:000234ec       $unwind$srtp_ekt_write_data 00000001401254ec     libsrtp-x86_64-x64-vc14-debug-dynamic:ekt.obj
 0002:000234f4       $unwind$srtcp_packet_get_ekt_spi 00000001401254f4     libsrtp-x86_64-x64-vc14-debug-dynamic:ekt.obj
 0002:000234fc       $unwind$srtcp_packet_get_ekt_roc 00000001401254fc     libsrtp-x86_64-x64-vc14-debug-dynamic:ekt.obj
 0002:00023504       $unwind$srtcp_packet_get_emk_location 0000000140125504     libsrtp-x86_64-x64-vc14-debug-dynamic:ekt.obj
 0002:0002350c       $unwind$aes_decrypt_with_raw_key 000000014012550c     libsrtp-x86_64-x64-vc14-debug-dynamic:ekt.obj
 0002:00023524       $unwind$stat_test_monobit  0000000140125524     libsrtp-x86_64-x64-vc14-debug-dynamic:stat.obj
 0002:0002352c       $unwind$stat_test_poker    000000014012552c     libsrtp-x86_64-x64-vc14-debug-dynamic:stat.obj
 0002:0002353c       $unwind$stat_test_runs     000000014012553c     libsrtp-x86_64-x64-vc14-debug-dynamic:stat.obj
 0002:00023550       $unwind$srtp_null_cipher_alloc 0000000140125550     libsrtp-x86_64-x64-vc14-debug-dynamic:null_cipher.obj
 0002:00023558       $unwind$srtp_null_cipher_dealloc 0000000140125558     libsrtp-x86_64-x64-vc14-debug-dynamic:null_cipher.obj
 0002:00023560       $unwind$srtp_null_cipher_init 0000000140125560     libsrtp-x86_64-x64-vc14-debug-dynamic:null_cipher.obj
 0002:0002356c       $unwind$srtp_aes_icm_alloc 000000014012556c     libsrtp-x86_64-x64-vc14-debug-dynamic:aes_icm.obj
 0002:00023574       $unwind$srtp_aes_icm_dealloc 0000000140125574     libsrtp-x86_64-x64-vc14-debug-dynamic:aes_icm.obj
 0002:0002357c       $unwind$srtp_aes_icm_context_init 000000014012557c     libsrtp-x86_64-x64-vc14-debug-dynamic:aes_icm.obj
 0002:00023584       $unwind$srtp_aes_icm_set_iv 0000000140125584     libsrtp-x86_64-x64-vc14-debug-dynamic:aes_icm.obj
 0002:00023594       $unwind$srtp_aes_icm_advance 0000000140125594     libsrtp-x86_64-x64-vc14-debug-dynamic:aes_icm.obj
 0002:0002359c       $unwind$srtp_aes_icm_encrypt 000000014012559c     libsrtp-x86_64-x64-vc14-debug-dynamic:aes_icm.obj
 0002:000235ac       $unwind$srtp_null_auth_alloc 00000001401255ac     libsrtp-x86_64-x64-vc14-debug-dynamic:null_auth.obj
 0002:000235b4       $unwind$srtp_null_auth_dealloc 00000001401255b4     libsrtp-x86_64-x64-vc14-debug-dynamic:null_auth.obj
 0002:000235c0       $unwind$srtp_hmac_alloc    00000001401255c0     libsrtp-x86_64-x64-vc14-debug-dynamic:hmac.obj
 0002:000235c8       $unwind$srtp_hmac_dealloc  00000001401255c8     libsrtp-x86_64-x64-vc14-debug-dynamic:hmac.obj
 0002:000235d0       $unwind$srtp_hmac_init     00000001401255d0     libsrtp-x86_64-x64-vc14-debug-dynamic:hmac.obj
 0002:000235e0       $unwind$srtp_hmac_start    00000001401255e0     libsrtp-x86_64-x64-vc14-debug-dynamic:hmac.obj
 0002:000235e8       $unwind$srtp_hmac_update   00000001401255e8     libsrtp-x86_64-x64-vc14-debug-dynamic:hmac.obj
 0002:000235f0       $unwind$srtp_hmac_compute  00000001401255f0     libsrtp-x86_64-x64-vc14-debug-dynamic:hmac.obj
 0002:00023608       $unwind$srtp_aes_expand_encryption_key 0000000140125608     libsrtp-x86_64-x64-vc14-debug-dynamic:aes.obj
 0002:00023610       $unwind$srtp_aes_expand_decryption_key 0000000140125610     libsrtp-x86_64-x64-vc14-debug-dynamic:aes.obj
 0002:00023620       $unwind$srtp_aes_encrypt   0000000140125620     libsrtp-x86_64-x64-vc14-debug-dynamic:aes.obj
 0002:00023628       $unwind$srtp_aes_decrypt   0000000140125628     libsrtp-x86_64-x64-vc14-debug-dynamic:aes.obj
 0002:00023630       $unwind$aes_128_expand_encryption_key 0000000140125630     libsrtp-x86_64-x64-vc14-debug-dynamic:aes.obj
 0002:00023638       $unwind$aes_256_expand_encryption_key 0000000140125638     libsrtp-x86_64-x64-vc14-debug-dynamic:aes.obj
 0002:00023640       $unwind$aes_round          0000000140125640     libsrtp-x86_64-x64-vc14-debug-dynamic:aes.obj
 0002:00023648       $unwind$aes_inv_round      0000000140125648     libsrtp-x86_64-x64-vc14-debug-dynamic:aes.obj
 0002:00023650       $unwind$aes_final_round    0000000140125650     libsrtp-x86_64-x64-vc14-debug-dynamic:aes.obj
 0002:00023658       $unwind$aes_inv_final_round 0000000140125658     libsrtp-x86_64-x64-vc14-debug-dynamic:aes.obj
 0002:00023668       $unwind$srtp_sha1_update   0000000140125668     libsrtp-x86_64-x64-vc14-debug-dynamic:sha1.obj
 0002:00023670       $unwind$srtp_sha1_final    0000000140125670     libsrtp-x86_64-x64-vc14-debug-dynamic:sha1.obj
 0002:00023680       $unwind$srtp_sha1_core     0000000140125680     libsrtp-x86_64-x64-vc14-debug-dynamic:sha1.obj
 0002:00023690       $unwind$srtp_sha1          0000000140125690     libsrtp-x86_64-x64-vc14-debug-dynamic:sha1.obj
 0002:000236a8       $unwind$__GSHandlerCheckCommon 00000001401256a8     MSVCRTD:gshandler.obj
 0002:000236b0       $unwind$__GSHandlerCheck   00000001401256b0     MSVCRTD:gshandler.obj
 0002:000236b8       $xdatasym                  00000001401256b8     MSVCRTD:chkstk.obj
 0002:000236c0       $xdatasym                  00000001401256c0     MSVCRTD:amdsecgs.obj
 0002:000236c4       $unwind$?configure_argv@__scrt_narrow_argv_policy@@SAHXZ 00000001401256c4     MSVCRTD:exe_main.obj
 0002:000236cc       $unwind$?initialize_environment@__scrt_narrow_environment_policy@@SAHXZ 00000001401256cc     MSVCRTD:exe_main.obj
 0002:000236d4       $unwind$?set_app_type@__scrt_main_policy@@SAXXZ 00000001401256d4     MSVCRTD:exe_main.obj
 0002:000236dc       $unwind$?set_fmode@__scrt_file_policy@@SAXXZ 00000001401256dc     MSVCRTD:exe_main.obj
 0002:000236e4       $unwind$?set_commode@__scrt_file_policy@@SAXXZ 00000001401256e4     MSVCRTD:exe_main.obj
 0002:000236ec       $unwind$?invoke_main@@YAHXZ 00000001401256ec     MSVCRTD:exe_main.obj
 0002:000236f4       $unwind$?pre_c_initialization@@YAHXZ 00000001401256f4     MSVCRTD:exe_main.obj
 0002:000236fc       $unwind$?post_pgo_initialization@@YAHXZ 00000001401256fc     MSVCRTD:exe_main.obj
 0002:00023704       $unwind$?pre_cpp_initialization@@YAXXZ 0000000140125704     MSVCRTD:exe_main.obj
 0002:0002370c       $unwind$?__scrt_common_main_seh@@YAHXZ 000000014012570c     MSVCRTD:exe_main.obj
 0002:00023730       $unwind$?filt$0@?0??__scrt_common_main_seh@@YAHXZ@4HA 0000000140125730     MSVCRTD:exe_main.obj
 0002:00023738       $unwind$?__scrt_common_main@@YAHXZ 0000000140125738     MSVCRTD:exe_main.obj
 0002:00023740       $unwind$mainCRTStartup     0000000140125740     MSVCRTD:exe_main.obj
 0002:00023748       $unwind$__report_securityfailure 0000000140125748     MSVCRTD:gs_report.obj
 0002:00023750       $unwind$__report_securityfailureEx 0000000140125750     MSVCRTD:gs_report.obj
 0002:00023758       $unwind$__report_rangecheckfailure 0000000140125758     MSVCRTD:gs_report.obj
 0002:00023760       $unwind$__report_gsfailure 0000000140125760     MSVCRTD:gs_report.obj
 0002:00023768       $unwind$capture_current_context 0000000140125768     MSVCRTD:gs_report.obj
 0002:00023770       $unwind$capture_previous_context 0000000140125770     MSVCRTD:gs_report.obj
 0002:00023778       $unwind$__raise_securityfailure 0000000140125778     MSVCRTD:gs_report.obj
 0002:00023780       $unwind$atexit             0000000140125780     MSVCRTD:utility.obj
 0002:00023788       $unwind$_onexit            0000000140125788     MSVCRTD:utility.obj
 0002:00023790       $unwind$at_quick_exit      0000000140125790     MSVCRTD:utility.obj
 0002:00023798       $unwind$__scrt_is_nonwritable_in_current_image 0000000140125798     MSVCRTD:utility.obj
 0002:000237bc       $unwind$__scrt_is_nonwritable_in_current_image$filt$0 00000001401257bc     MSVCRTD:utility.obj
 0002:000237c4       $unwind$__scrt_acquire_startup_lock 00000001401257c4     MSVCRTD:utility.obj
 0002:000237cc       $unwind$__scrt_release_startup_lock 00000001401257cc     MSVCRTD:utility.obj
 0002:000237d4       $unwind$__scrt_initialize_crt 00000001401257d4     MSVCRTD:utility.obj
 0002:000237dc       $unwind$__scrt_uninitialize_crt 00000001401257dc     MSVCRTD:utility.obj
 0002:000237e4       $unwind$__scrt_initialize_onexit_tables 00000001401257e4     MSVCRTD:utility.obj
 0002:000237f4       $unwind$__scrt_dllmain_exception_filter 00000001401257f4     MSVCRTD:utility.obj
 0002:000237fc       $unwind$__scrt_dllmain_before_initialize_c 00000001401257fc     MSVCRTD:utility.obj
 0002:00023804       $unwind$__scrt_dllmain_after_initialize_c 0000000140125804     MSVCRTD:utility.obj
 0002:0002380c       $unwind$__scrt_dllmain_uninitialize_c 000000014012580c     MSVCRTD:utility.obj
 0002:00023814       $unwind$__scrt_dllmain_uninitialize_critical 0000000140125814     MSVCRTD:utility.obj
 0002:0002381c       $unwind$__scrt_dllmain_crt_thread_attach 000000014012581c     MSVCRTD:utility.obj
 0002:00023824       $unwind$__scrt_dllmain_crt_thread_detach 0000000140125824     MSVCRTD:utility.obj
 0002:0002382c       $unwind$?is_potentially_valid_image_base@@YA_NQEAX@Z 000000014012582c     MSVCRTD:utility.obj
 0002:00023834       $unwind$?find_pe_section@@YAPEAU_IMAGE_SECTION_HEADER@@QEAE_K@Z 0000000140125834     MSVCRTD:utility.obj
 0002:0002383c       $unwind$__security_init_cookie 000000014012583c     MSVCRTD:gs_support.obj
 0002:00023844       $unwind$__get_entropy      0000000140125844     MSVCRTD:gs_support.obj
 0002:0002384c       $unwind$?__scrt_initialize_type_info@@YAXXZ 000000014012584c     MSVCRTD:tncleanup.obj
 0002:00023854       $unwind$?__scrt_uninitialize_type_info@@YAXXZ 0000000140125854     MSVCRTD:tncleanup.obj
 0002:0002385c       $unwind$__scrt_initialize_default_local_stdio_options 000000014012585c     MSVCRTD:default_local_stdio_options.obj
 0002:00023864       $unwind$__scrt_is_user_matherr_present 0000000140125864     MSVCRTD:matherr_detection.obj
 0002:0002386c       $unwind$__scrt_get_show_window_mode 000000014012586c     MSVCRTD:utility_desktop.obj
 0002:0002387c       $unwind$__scrt_is_managed_app 000000014012587c     MSVCRTD:utility_desktop.obj
 0002:00023884       $unwind$__scrt_initialize_mta 0000000140125884     MSVCRTD:utility_desktop.obj
 0002:0002388c       $unwind$__scrt_set_unhandled_exception_filter 000000014012588c     MSVCRTD:utility_desktop.obj
 0002:00023894       $unwind$__scrt_fastfail    0000000140125894     MSVCRTD:utility_desktop.obj
 0002:000238a4       $unwind$__scrt_unhandled_exception_filter 00000001401258a4     MSVCRTD:utility_desktop.obj
 0002:000238ac       $unwind$_RTC_Initialize    00000001401258ac     MSVCRTD:initsect.obj
 0002:000238bc       $unwind$_RTC_Terminate     00000001401258bc     MSVCRTD:initsect.obj
 0002:000238cc       $unwind$ReadNoFence64      00000001401258cc     MSVCRTD:guard_support.obj
 0002:000238d4       $unwind$ReadPointerNoFence 00000001401258d4     MSVCRTD:guard_support.obj
 0002:000238dc       $unwind$_guard_icall_checks_enforced 00000001401258dc     MSVCRTD:guard_support.obj
 0002:000238e4       $unwind$__castguard_compat_check 00000001401258e4     MSVCRTD:guard_support.obj
 0002:000238ec       $unwind$__castguard_check_failure_debugbreak 00000001401258ec     MSVCRTD:guard_support.obj
 0002:000238f4       $unwind$__castguard_check_failure_fastfail 00000001401258f4     MSVCRTD:guard_support.obj
 0002:000238fc       $unwind$__castguard_check_failure_os_handled 00000001401258fc     MSVCRTD:guard_support.obj
 0002:00023904       $unwind$__castguard_slow_path_compat_check 0000000140125904     MSVCRTD:guard_support.obj
 0002:0002390c       $unwind$__castguard_slow_path_check_debugbreak 000000014012590c     MSVCRTD:guard_support.obj
 0002:00023914       $unwind$__castguard_slow_path_check_fastfail 0000000140125914     MSVCRTD:guard_support.obj
 0002:0002391c       $unwind$__castguard_slow_path_check_os_handled 000000014012591c     MSVCRTD:guard_support.obj
 0002:00023924       $unwind$__isa_available_init 0000000140125924     MSVCRTD:cpu_disp.obj
 0002:00023938       $unwind$__scrt_is_ucrt_dll_in_use 0000000140125938     MSVCRTD:ucrt_detection.obj
 0002:00023940       $xdatasym                  0000000140125940     MSVCRTD:guard_dispatch.obj
 0002:00023948       $xdatasym                  0000000140125948     MSVCRTD:guard_xfg_dispatch.obj
 0002:0002394c       $unwind$opus_encoder_get_size 000000014012594c     opus:opus_encoder.obj
 0002:00023954       $unwind$opus_encoder_create 0000000140125954     opus:opus_encoder.obj
 0002:0002396c       $unwind$opus_encoder_init  000000014012596c     opus:opus_encoder.obj
 0002:00023980       $chain$2$opus_encoder_init 0000000140125980     opus:opus_encoder.obj
 0002:000239a0       $chain$3$opus_encoder_init 00000001401259a0     opus:opus_encoder.obj
 0002:000239bc       $chain$5$opus_encoder_init 00000001401259bc     opus:opus_encoder.obj
 0002:000239d8       $chain$6$opus_encoder_init 00000001401259d8     opus:opus_encoder.obj
 0002:000239ec       $unwind$opus_encode        00000001401259ec     opus:opus_encoder.obj
 0002:00023a14       $unwind$opus_encode_float  0000000140125a14     opus:opus_encoder.obj
 0002:00023a2c       $unwind$opus_encoder_ctl   0000000140125a2c     opus:opus_encoder.obj
 0002:00023a48       $chain$1$opus_encoder_ctl  0000000140125a48     opus:opus_encoder.obj
 0002:00023a64       $chain$2$opus_encoder_ctl  0000000140125a64     opus:opus_encoder.obj
 0002:00023a78       $unwind$downmix_float      0000000140125a78     opus:opus_encoder.obj
 0002:00023a94       $unwind$downmix_int        0000000140125a94     opus:opus_encoder.obj
 0002:00023ab0       $unwind$is_digital_silence 0000000140125ab0     opus:opus_encoder.obj
 0002:00023ac0       $unwind$opus_encode_native 0000000140125ac0     opus:opus_encoder.obj
 0002:00023b14       $unwind$silk_biquad_float  0000000140125b14     opus:opus_encoder.obj
 0002:00023b3c       $chain$5$silk_biquad_float 0000000140125b3c     opus:opus_encoder.obj
 0002:00023b68       $chain$6$silk_biquad_float 0000000140125b68     opus:opus_encoder.obj
 0002:00023b7c       $unwind$dc_reject          0000000140125b7c     opus:opus_encoder.obj
 0002:00023b90       $chain$1$dc_reject         0000000140125b90     opus:opus_encoder.obj
 0002:00023bac       $chain$2$dc_reject         0000000140125bac     opus:opus_encoder.obj
 0002:00023bc0       $unwind$stereo_fade        0000000140125bc0     opus:opus_encoder.obj
 0002:00023bd8       $chain$0$stereo_fade       0000000140125bd8     opus:opus_encoder.obj
 0002:00023bf0       $chain$2$stereo_fade       0000000140125bf0     opus:opus_encoder.obj
 0002:00023c0c       $chain$3$stereo_fade       0000000140125c0c     opus:opus_encoder.obj
 0002:00023c20       $chain$4$stereo_fade       0000000140125c20     opus:opus_encoder.obj
 0002:00023c34       $unwind$gain_fade          0000000140125c34     opus:opus_encoder.obj
 0002:00023c54       $unwind$compute_stereo_width 0000000140125c54     opus:opus_encoder.obj
 0002:00023c7c       $chain$0$compute_stereo_width 0000000140125c7c     opus:opus_encoder.obj
 0002:00023c94       $chain$2$compute_stereo_width 0000000140125c94     opus:opus_encoder.obj
 0002:00023cb0       $chain$3$compute_stereo_width 0000000140125cb0     opus:opus_encoder.obj
 0002:00023cc4       $chain$4$compute_stereo_width 0000000140125cc4     opus:opus_encoder.obj
 0002:00023cd8       $unwind$compute_silk_rate_for_hybrid 0000000140125cd8     opus:opus_encoder.obj
 0002:00023cf4       $unwind$encode_multiframe_packet 0000000140125cf4     opus:opus_encoder.obj
 0002:00023d20       $unwind$compute_redundancy_bytes 0000000140125d20     opus:opus_encoder.obj
 0002:00023d28       $unwind$opus_decoder_get_size 0000000140125d28     opus:opus_decoder.obj
 0002:00023d30       $unwind$opus_decoder_create 0000000140125d30     opus:opus_decoder.obj
 0002:00023d48       $unwind$opus_decoder_init  0000000140125d48     opus:opus_decoder.obj
 0002:00023d58       $chain$0$opus_decoder_init 0000000140125d58     opus:opus_decoder.obj
 0002:00023d70       $chain$2$opus_decoder_init 0000000140125d70     opus:opus_decoder.obj
 0002:00023d88       $unwind$opus_decode        0000000140125d88     opus:opus_decoder.obj
 0002:00023db4       $unwind$opus_decode_float  0000000140125db4     opus:opus_decoder.obj
 0002:00023dbc       $unwind$opus_decoder_ctl   0000000140125dbc     opus:opus_decoder.obj
 0002:00023dcc       $unwind$opus_packet_get_nb_samples 0000000140125dcc     opus:opus_decoder.obj
 0002:00023ddc       $unwind$opus_decoder_get_nb_samples 0000000140125ddc     opus:opus_decoder.obj
 0002:00023dec       $unwind$opus_decode_native 0000000140125dec     opus:opus_decoder.obj
 0002:00023e0c       $chain$1$opus_decode_native 0000000140125e0c     opus:opus_decoder.obj
 0002:00023e28       $chain$2$opus_decode_native 0000000140125e28     opus:opus_decoder.obj
 0002:00023e3c       $chain$3$opus_decode_native 0000000140125e3c     opus:opus_decoder.obj
 0002:00023e58       $chain$4$opus_decode_native 0000000140125e58     opus:opus_decoder.obj
 0002:00023e6c       $unwind$smooth_fade        0000000140125e6c     opus:opus_decoder.obj
 0002:00023e84       $chain$2$smooth_fade       0000000140125e84     opus:opus_decoder.obj
 0002:00023ea4       $chain$3$smooth_fade       0000000140125ea4     opus:opus_decoder.obj
 0002:00023eb8       $unwind$opus_decode_frame  0000000140125eb8     opus:opus_decoder.obj
 0002:00023ee4       $unwind$opus_repacketizer_create 0000000140125ee4     opus:repacketizer.obj
 0002:00023eec       $unwind$opus_repacketizer_out_range 0000000140125eec     opus:repacketizer.obj
 0002:00023ef4       $unwind$opus_repacketizer_out 0000000140125ef4     opus:repacketizer.obj
 0002:00023efc       $unwind$opus_packet_pad    0000000140125efc     opus:repacketizer.obj
 0002:00023f20       $unwind$opus_packet_unpad  0000000140125f20     opus:repacketizer.obj
 0002:00023f38       $chain$1$opus_packet_unpad 0000000140125f38     opus:repacketizer.obj
 0002:00023f54       $chain$2$opus_packet_unpad 0000000140125f54     opus:repacketizer.obj
 0002:00023f68       $unwind$opus_multistream_packet_pad 0000000140125f68     opus:repacketizer.obj
 0002:00023f84       $chain$1$opus_multistream_packet_pad 0000000140125f84     opus:repacketizer.obj
 0002:00023fa0       $chain$2$opus_multistream_packet_pad 0000000140125fa0     opus:repacketizer.obj
 0002:00023fb4       $chain$3$opus_multistream_packet_pad 0000000140125fb4     opus:repacketizer.obj
 0002:00023fd0       $chain$4$opus_multistream_packet_pad 0000000140125fd0     opus:repacketizer.obj
 0002:00023fe4       $unwind$opus_multistream_packet_unpad 0000000140125fe4     opus:repacketizer.obj
 0002:00023ffc       $chain$5$opus_multistream_packet_unpad 0000000140125ffc     opus:repacketizer.obj
 0002:00024028       $chain$6$opus_multistream_packet_unpad 0000000140126028     opus:repacketizer.obj
 0002:0002403c       $unwind$opus_repacketizer_out_range_impl 000000014012603c     opus:repacketizer.obj
 0002:0002404c       $chain$5$opus_repacketizer_out_range_impl 000000014012604c     opus:repacketizer.obj
 0002:00024078       $chain$7$opus_repacketizer_out_range_impl 0000000140126078     opus:repacketizer.obj
 0002:000240a4       $chain$8$opus_repacketizer_out_range_impl 00000001401260a4     opus:repacketizer.obj
 0002:000240b8       $unwind$opus_repacketizer_cat_impl 00000001401260b8     opus:repacketizer.obj
 0002:000240d0       $unwind$opus_custom_encoder_ctl 00000001401260d0     opus:celt_encoder.obj
 0002:000240d8       $chain$1$opus_custom_encoder_ctl 00000001401260d8     opus:celt_encoder.obj
 0002:000240f4       $chain$2$opus_custom_encoder_ctl 00000001401260f4     opus:celt_encoder.obj
 0002:00024108       $unwind$celt_encoder_get_size 0000000140126108     opus:celt_encoder.obj
 0002:00024110       $unwind$celt_encode_with_ec 0000000140126110     opus:celt_encoder.obj
 0002:00024168       $unwind$celt_encoder_init  0000000140126168     opus:celt_encoder.obj
 0002:00024184       $unwind$celt_preemphasis   0000000140126184     opus:celt_encoder.obj
 0002:000241a8       $unwind$celt_maxabs16      00000001401261a8     opus:celt_encoder.obj
 0002:000241b8       $unwind$transient_analysis 00000001401261b8     opus:celt_encoder.obj
 0002:00024210       $unwind$patch_transient_decision 0000000140126210     opus:celt_encoder.obj
 0002:0002423c       $unwind$compute_mdcts      000000014012623c     opus:celt_encoder.obj
 0002:00024258       $unwind$tf_analysis        0000000140126258     opus:celt_encoder.obj
 0002:00024294       $unwind$tf_encode          0000000140126294     opus:celt_encoder.obj
 0002:000242b0       $unwind$alloc_trim_analysis 00000001401262b0     opus:celt_encoder.obj
 0002:000242b8       $chain$0$alloc_trim_analysis 00000001401262b8     opus:celt_encoder.obj
 0002:000242d0       $chain$8$alloc_trim_analysis 00000001401262d0     opus:celt_encoder.obj
 0002:00024304       $chain$14$alloc_trim_analysis 0000000140126304     opus:celt_encoder.obj
 0002:00024330       $chain$15$alloc_trim_analysis 0000000140126330     opus:celt_encoder.obj
 0002:00024344       $chain$16$alloc_trim_analysis 0000000140126344     opus:celt_encoder.obj
 0002:00024374       $chain$17$alloc_trim_analysis 0000000140126374     opus:celt_encoder.obj
 0002:00024390       $chain$18$alloc_trim_analysis 0000000140126390     opus:celt_encoder.obj
 0002:000243a8       $chain$19$alloc_trim_analysis 00000001401263a8     opus:celt_encoder.obj
 0002:000243bc       $unwind$stereo_analysis    00000001401263bc     opus:celt_encoder.obj
 0002:000243e4       $unwind$dynalloc_analysis  00000001401263e4     opus:celt_encoder.obj
 0002:00024438       $unwind$run_prefilter      0000000140126438     opus:celt_encoder.obj
 0002:00024474       $unwind$compute_vbr        0000000140126474     opus:celt_encoder.obj
 0002:00024490       $unwind$ec_encode_bin      0000000140126490     opus:entenc.obj
 0002:00024498       $unwind$ec_enc_icdf        0000000140126498     opus:entenc.obj
 0002:000244a0       $unwind$ec_enc_uint        00000001401264a0     opus:entenc.obj
 0002:000244b4       $unwind$ec_enc_bits        00000001401264b4     opus:entenc.obj
 0002:000244c4       $unwind$ec_enc_shrink      00000001401264c4     opus:entenc.obj
 0002:000244d4       $unwind$ec_enc_done        00000001401264d4     opus:entenc.obj
 0002:000244ec       $unwind$opus_select_arch   00000001401264ec     opus:x86cpu.obj
 0002:00024500       $unwind$silk_InitEncoder   0000000140126500     opus:enc_API.obj
 0002:0002451c       $unwind$silk_Encode        000000014012651c     opus:enc_API.obj
 0002:00024548       $unwind$xcorr_kernel_sse   0000000140126548     opus:pitch_sse.obj
 0002:00024558       $chain$0$xcorr_kernel_sse  0000000140126558     opus:pitch_sse.obj
 0002:00024570       $chain$1$xcorr_kernel_sse  0000000140126570     opus:pitch_sse.obj
 0002:00024584       $unwind$celt_inner_prod_sse 0000000140126584     opus:pitch_sse.obj
 0002:0002458c       $unwind$dual_inner_prod_sse 000000014012658c     opus:pitch_sse.obj
 0002:000245a0       $chain$0$dual_inner_prod_sse 00000001401265a0     opus:pitch_sse.obj
 0002:000245b8       $chain$1$dual_inner_prod_sse 00000001401265b8     opus:pitch_sse.obj
 0002:000245cc       $unwind$comb_filter_const_sse 00000001401265cc     opus:pitch_sse.obj
 0002:000245e0       $unwind$tonality_analysis_init 00000001401265e0     opus:analysis.obj
 0002:000245f0       $unwind$tonality_get_info  00000001401265f0     opus:analysis.obj
 0002:00024608       $chain$8$tonality_get_info 0000000140126608     opus:analysis.obj
 0002:00024644       $chain$9$tonality_get_info 0000000140126644     opus:analysis.obj
 0002:00024674       $chain$10$tonality_get_info 0000000140126674     opus:analysis.obj
 0002:00024698       $chain$11$tonality_get_info 0000000140126698     opus:analysis.obj
 0002:000246ac       $unwind$run_analysis       00000001401266ac     opus:analysis.obj
 0002:000246c0       $chain$2$run_analysis      00000001401266c0     opus:analysis.obj
 0002:000246e0       $chain$3$run_analysis      00000001401266e0     opus:analysis.obj
 0002:000246f8       $chain$4$run_analysis      00000001401266f8     opus:analysis.obj
 0002:0002470c       $chain$5$run_analysis      000000014012670c     opus:analysis.obj
 0002:00024720       $unwind$silk_resampler_down2_hp 0000000140126720     opus:analysis.obj
 0002:00024740       $chain$0$silk_resampler_down2_hp 0000000140126740     opus:analysis.obj
 0002:00024758       $chain$1$silk_resampler_down2_hp 0000000140126758     opus:analysis.obj
 0002:0002476c       $unwind$downmix_and_resample 000000014012676c     opus:analysis.obj
 0002:0002479c       $unwind$tonality_analysis  000000014012679c     opus:analysis.obj
 0002:000247f0       $unwind$opus_custom_decoder_ctl 00000001401267f0     opus:celt_decoder.obj
 0002:000247f8       $chain$1$opus_custom_decoder_ctl 00000001401267f8     opus:celt_decoder.obj
 0002:00024814       $chain$2$opus_custom_decoder_ctl 0000000140126814     opus:celt_decoder.obj
 0002:00024828       $unwind$celt_decoder_get_size 0000000140126828     opus:celt_decoder.obj
 0002:00024830       $unwind$celt_decoder_init  0000000140126830     opus:celt_decoder.obj
 0002:00024848       $unwind$celt_decode_with_ec 0000000140126848     opus:celt_decoder.obj
 0002:00024878       $unwind$deemphasis_stereo_simple 0000000140126878     opus:celt_decoder.obj
 0002:00024894       $chain$1$deemphasis_stereo_simple 0000000140126894     opus:celt_decoder.obj
 0002:000248b0       $chain$2$deemphasis_stereo_simple 00000001401268b0     opus:celt_decoder.obj
 0002:000248c4       $unwind$deemphasis         00000001401268c4     opus:celt_decoder.obj
 0002:000248f0       $unwind$celt_synthesis     00000001401268f0     opus:celt_decoder.obj
 0002:0002491c       $unwind$celt_plc_pitch_search 000000014012691c     opus:celt_decoder.obj
 0002:0002493c       $unwind$celt_decode_lost   000000014012693c     opus:celt_decoder.obj
 0002:00024984       $unwind$ec_dec_bit_logp    0000000140126984     opus:entdec.obj
 0002:0002498c       $unwind$ec_dec_icdf        000000014012698c     opus:entdec.obj
 0002:00024994       $unwind$ec_dec_uint        0000000140126994     opus:entdec.obj
 0002:000249ac       $chain$0$ec_dec_uint       00000001401269ac     opus:entdec.obj
 0002:000249c4       $chain$1$ec_dec_uint       00000001401269c4     opus:entdec.obj
 0002:000249d8       $unwind$ec_dec_bits        00000001401269d8     opus:entdec.obj
 0002:000249e0       $chain$0$ec_dec_bits       00000001401269e0     opus:entdec.obj
 0002:000249f8       $chain$1$ec_dec_bits       00000001401269f8     opus:entdec.obj
 0002:00024a0c       $unwind$ec_dec_normalize   0000000140126a0c     opus:entdec.obj
 0002:00024a14       $chain$2$ec_dec_normalize  0000000140126a14     opus:entdec.obj
 0002:00024a34       $chain$3$ec_dec_normalize  0000000140126a34     opus:entdec.obj
 0002:00024a48       $unwind$opus_packet_parse  0000000140126a48     opus:opus.obj
 0002:00024a50       $unwind$opus_pcm_soft_clip 0000000140126a50     opus:opus.obj
 0002:00024a60       $chain$0$opus_pcm_soft_clip 0000000140126a60     opus:opus.obj
 0002:00024a78       $chain$11$opus_pcm_soft_clip 0000000140126a78     opus:opus.obj
 0002:00024abc       $chain$12$opus_pcm_soft_clip 0000000140126abc     opus:opus.obj
 0002:00024ad0       $chain$13$opus_pcm_soft_clip 0000000140126ad0     opus:opus.obj
 0002:00024ae4       $unwind$opus_packet_parse_impl 0000000140126ae4     opus:opus.obj
 0002:00024af8       $chain$2$opus_packet_parse_impl 0000000140126af8     opus:opus.obj
 0002:00024b18       $chain$4$opus_packet_parse_impl 0000000140126b18     opus:opus.obj
 0002:00024b38       $chain$5$opus_packet_parse_impl 0000000140126b38     opus:opus.obj
 0002:00024b4c       $unwind$silk_InitDecoder   0000000140126b4c     opus:dec_API.obj
 0002:00024b60       $unwind$silk_Decode        0000000140126b60     opus:dec_API.obj
 0002:00024b88       $unwind$clt_mdct_forward_c 0000000140126b88     opus:mdct.obj
 0002:00024bb8       $unwind$clt_mdct_backward_c 0000000140126bb8     opus:mdct.obj
 0002:00024bcc       $chain$4$clt_mdct_backward_c 0000000140126bcc     opus:mdct.obj
 0002:00024bf4       $chain$5$clt_mdct_backward_c 0000000140126bf4     opus:mdct.obj
 0002:00024c0c       $chain$6$clt_mdct_backward_c 0000000140126c0c     opus:mdct.obj
 0002:00024c24       $chain$7$clt_mdct_backward_c 0000000140126c24     opus:mdct.obj
 0002:00024c38       $chain$8$clt_mdct_backward_c 0000000140126c38     opus:mdct.obj
 0002:00024c4c       $unwind$opus_custom_mode_create 0000000140126c4c     opus:modes.obj
 0002:00024c68       $unwind$comb_filter        0000000140126c68     opus:celt.obj
 0002:00024c78       $chain$1$comb_filter       0000000140126c78     opus:celt.obj
 0002:00024c94       $chain$13$comb_filter      0000000140126c94     opus:celt.obj
 0002:00024cdc       $chain$15$comb_filter      0000000140126cdc     opus:celt.obj
 0002:00024cf8       $chain$16$comb_filter      0000000140126cf8     opus:celt.obj
 0002:00024d10       $chain$17$comb_filter      0000000140126d10     opus:celt.obj
 0002:00024d24       $chain$18$comb_filter      0000000140126d24     opus:celt.obj
 0002:00024d44       $chain$19$comb_filter      0000000140126d44     opus:celt.obj
 0002:00024d94       $chain$20$comb_filter      0000000140126d94     opus:celt.obj
 0002:00024db4       $chain$21$comb_filter      0000000140126db4     opus:celt.obj
 0002:00024dc8       $unwind$init_caps          0000000140126dc8     opus:celt.obj
 0002:00024ddc       $chain$1$init_caps         0000000140126ddc     opus:celt.obj
 0002:00024df8       $chain$2$init_caps         0000000140126df8     opus:celt.obj
 0002:00024e0c       $unwind$pitch_downsample   0000000140126e0c     opus:pitch.obj
 0002:00024e24       $chain$0$pitch_downsample  0000000140126e24     opus:pitch.obj
 0002:00024e3c       $chain$1$pitch_downsample  0000000140126e3c     opus:pitch.obj
 0002:00024e54       $chain$2$pitch_downsample  0000000140126e54     opus:pitch.obj
 0002:00024e68       $chain$3$pitch_downsample  0000000140126e68     opus:pitch.obj
 0002:00024e7c       $unwind$pitch_search       0000000140126e7c     opus:pitch.obj
 0002:00024ea8       $unwind$remove_doubling    0000000140126ea8     opus:pitch.obj
 0002:00024efc       $unwind$celt_pitch_xcorr_c 0000000140126efc     opus:pitch.obj
 0002:00024f1c       $chain$0$celt_pitch_xcorr_c 0000000140126f1c     opus:pitch.obj
 0002:00024f34       $chain$1$celt_pitch_xcorr_c 0000000140126f34     opus:pitch.obj
 0002:00024f48       $unwind$find_best_pitch    0000000140126f48     opus:pitch.obj
 0002:00024f70       $chain$3$find_best_pitch   0000000140126f70     opus:pitch.obj
 0002:00024f94       $chain$4$find_best_pitch   0000000140126f94     opus:pitch.obj
 0002:00024fa8       $unwind$celt_fir5          0000000140126fa8     opus:pitch.obj
 0002:00024fdc       $unwind$clt_compute_allocation 0000000140126fdc     opus:rate.obj
 0002:00025008       $unwind$interp_bits2pulses 0000000140127008     opus:rate.obj
 0002:00025028       $unwind$bitexact_log2tan   0000000140127028     opus:bands.obj
 0002:00025030       $unwind$compute_band_energies 0000000140127030     opus:bands.obj
 0002:00025050       $unwind$normalise_bands    0000000140127050     opus:bands.obj
 0002:00025070       $unwind$denormalise_bands  0000000140127070     opus:bands.obj
 0002:0002508c       $chain$1$denormalise_bands 000000014012708c     opus:bands.obj
 0002:000250a8       $chain$2$denormalise_bands 00000001401270a8     opus:bands.obj
 0002:000250bc       $unwind$spreading_decision 00000001401270bc     opus:bands.obj
 0002:000250d0       $chain$3$spreading_decision 00000001401270d0     opus:bands.obj
 0002:000250f4       $chain$4$spreading_decision 00000001401270f4     opus:bands.obj
 0002:00025108       $unwind$haar1              0000000140127108     opus:bands.obj
 0002:00025118       $chain$5$haar1             0000000140127118     opus:bands.obj
 0002:00025144       $chain$6$haar1             0000000140127144     opus:bands.obj
 0002:00025158       $unwind$quant_all_bands    0000000140127158     opus:bands.obj
 0002:000251ac       $unwind$anti_collapse      00000001401271ac     opus:bands.obj
 0002:000251bc       $chain$14$anti_collapse    00000001401271bc     opus:bands.obj
 0002:00025210       $chain$15$anti_collapse    0000000140127210     opus:bands.obj
 0002:00025224       $unwind$hysteresis_decision 0000000140127224     opus:bands.obj
 0002:0002522c       $unwind$intensity_stereo   000000014012722c     opus:bands.obj
 0002:0002523c       $unwind$stereo_split       000000014012723c     opus:bands.obj
 0002:00025244       $chain$0$stereo_split      0000000140127244     opus:bands.obj
 0002:0002525c       $chain$1$stereo_split      000000014012725c     opus:bands.obj
 0002:00025270       $unwind$stereo_merge       0000000140127270     opus:bands.obj
 0002:0002528c       $chain$0$stereo_merge      000000014012728c     opus:bands.obj
 0002:000252a4       $chain$1$stereo_merge      00000001401272a4     opus:bands.obj
 0002:000252b8       $unwind$deinterleave_hadamard 00000001401272b8     opus:bands.obj
 0002:000252e4       $unwind$interleave_hadamard 00000001401272e4     opus:bands.obj
 0002:00025310       $unwind$compute_theta      0000000140127310     opus:bands.obj
 0002:0002532c       $unwind$quant_band_n1      000000014012732c     opus:bands.obj
 0002:00025358       $unwind$quant_partition    0000000140127358     opus:bands.obj
 0002:00025378       $chain$1$quant_partition   0000000140127378     opus:bands.obj
 0002:00025394       $chain$2$quant_partition   0000000140127394     opus:bands.obj
 0002:000253ac       $chain$3$quant_partition   00000001401273ac     opus:bands.obj
 0002:000253c0       $chain$4$quant_partition   00000001401273c0     opus:bands.obj
 0002:000253e0       $chain$5$quant_partition   00000001401273e0     opus:bands.obj
 0002:000253f4       $unwind$quant_band         00000001401273f4     opus:bands.obj
 0002:00025414       $unwind$quant_band_stereo  0000000140127414     opus:bands.obj
 0002:00025428       $chain$5$quant_band_stereo 0000000140127428     opus:bands.obj
 0002:00025454       $chain$6$quant_band_stereo 0000000140127454     opus:bands.obj
 0002:00025474       $unwind$special_hybrid_folding 0000000140127474     opus:bands.obj
 0002:00025490       $unwind$amp2Log2           0000000140127490     opus:quant_bands.obj
 0002:000254b0       $unwind$quant_coarse_energy 00000001401274b0     opus:quant_bands.obj
 0002:00025508       $unwind$quant_fine_energy  0000000140127508     opus:quant_bands.obj
 0002:00025518       $chain$7$quant_fine_energy 0000000140127518     opus:quant_bands.obj
 0002:0002554c       $chain$8$quant_fine_energy 000000014012754c     opus:quant_bands.obj
 0002:00025560       $unwind$quant_energy_finalise 0000000140127560     opus:quant_bands.obj
 0002:00025588       $unwind$unquant_coarse_energy 0000000140127588     opus:quant_bands.obj
 0002:000255a8       $chain$2$unquant_coarse_energy 00000001401275a8     opus:quant_bands.obj
 0002:000255c8       $chain$3$unquant_coarse_energy 00000001401275c8     opus:quant_bands.obj
 0002:000255dc       $unwind$unquant_fine_energy 00000001401275dc     opus:quant_bands.obj
 0002:000255f0       $chain$5$unquant_fine_energy 00000001401275f0     opus:quant_bands.obj
 0002:0002561c       $chain$6$unquant_fine_energy 000000014012761c     opus:quant_bands.obj
 0002:00025630       $unwind$unquant_energy_finalise 0000000140127630     opus:quant_bands.obj
 0002:00025654       $unwind$quant_coarse_energy_impl 0000000140127654     opus:quant_bands.obj
 0002:00025674       $chain$9$quant_coarse_energy_impl 0000000140127674     opus:quant_bands.obj
 0002:000256b0       $chain$10$quant_coarse_energy_impl 00000001401276b0     opus:quant_bands.obj
 0002:000256c4       $unwind$silk_resampler_init 00000001401276c4     opus:resampler.obj
 0002:000256dc       $unwind$silk_resampler     00000001401276dc     opus:resampler.obj
 0002:000256f8       $unwind$silk_DIV32_varQ    00000001401276f8     opus:stereo_LR_to_MS.obj
 0002:00025708       $unwind$silk_stereo_LR_to_MS 0000000140127708     opus:stereo_LR_to_MS.obj
 0002:00025734       $unwind$silk_stereo_encode_pred 0000000140127734     opus:stereo_encode_pred.obj
 0002:00025748       $unwind$silk_encode_pulses 0000000140127748     opus:encode_pulses.obj
 0002:00025770       $unwind$silk_encode_indices 0000000140127770     opus:encode_indices.obj
 0002:00025794       $unwind$silk_HP_variable_cutoff 0000000140127794     opus:HP_variable_cutoff.obj
 0002:0002579c       $chain$0$silk_HP_variable_cutoff 000000014012779c     opus:HP_variable_cutoff.obj
 0002:000257b4       $chain$2$silk_HP_variable_cutoff 00000001401277b4     opus:HP_variable_cutoff.obj
 0002:000257d0       $chain$3$silk_HP_variable_cutoff 00000001401277d0     opus:HP_variable_cutoff.obj
 0002:000257e8       $chain$4$silk_HP_variable_cutoff 00000001401277e8     opus:HP_variable_cutoff.obj
 0002:000257fc       $unwind$silk_encode_do_VAD_FLP 00000001401277fc     opus:encode_frame_FLP.obj
 0002:0002580c       $unwind$silk_encode_frame_FLP 000000014012780c     opus:encode_frame_FLP.obj
 0002:00025828       $chain$2$silk_encode_frame_FLP 0000000140127828     opus:encode_frame_FLP.obj
 0002:00025848       $chain$13$silk_encode_frame_FLP 0000000140127848     opus:encode_frame_FLP.obj
 0002:0002588c       $chain$14$silk_encode_frame_FLP 000000014012788c     opus:encode_frame_FLP.obj
 0002:000258a0       $chain$15$silk_encode_frame_FLP 00000001401278a0     opus:encode_frame_FLP.obj
 0002:000258b4       $unwind$silk_LBRR_encode_FLP 00000001401278b4     opus:encode_frame_FLP.obj
 0002:000258d4       $chain$1$silk_LBRR_encode_FLP 00000001401278d4     opus:encode_frame_FLP.obj
 0002:000258f0       $chain$2$silk_LBRR_encode_FLP 00000001401278f0     opus:encode_frame_FLP.obj
 0002:00025908       $chain$3$silk_LBRR_encode_FLP 0000000140127908     opus:encode_frame_FLP.obj
 0002:0002591c       $unwind$silk_init_encoder  000000014012791c     opus:init_encoder.obj
 0002:0002592c       $unwind$silk_control_encoder 000000014012792c     opus:control_codec.obj
 0002:0002593c       $chain$1$silk_control_encoder 000000014012793c     opus:control_codec.obj
 0002:00025958       $chain$2$silk_control_encoder 0000000140127958     opus:control_codec.obj
 0002:0002596c       $unwind$silk_setup_resamplers 000000014012796c     opus:control_codec.obj
 0002:00025998       $unwind$silk_setup_fs      0000000140127998     opus:control_codec.obj
 0002:000259b8       $unwind$opus_fft_c         00000001401279b8     opus:kiss_fft.obj
 0002:000259d4       $chain$2$opus_fft_c        00000001401279d4     opus:kiss_fft.obj
 0002:000259f4       $chain$3$opus_fft_c        00000001401279f4     opus:kiss_fft.obj
 0002:00025a08       $unwind$opus_ifft_c        0000000140127a08     opus:kiss_fft.obj
 0002:00025a28       $chain$1$opus_ifft_c       0000000140127a28     opus:kiss_fft.obj
 0002:00025a44       $chain$4$opus_ifft_c       0000000140127a44     opus:kiss_fft.obj
 0002:00025a64       $chain$5$opus_ifft_c       0000000140127a64     opus:kiss_fft.obj
 0002:00025a78       $chain$6$opus_ifft_c       0000000140127a78     opus:kiss_fft.obj
 0002:00025a8c       $unwind$opus_fft_impl      0000000140127a8c     opus:kiss_fft.obj
 0002:00025aa8       $chain$1$opus_fft_impl     0000000140127aa8     opus:kiss_fft.obj
 0002:00025ac4       $chain$2$opus_fft_impl     0000000140127ac4     opus:kiss_fft.obj
 0002:00025ad8       $unwind$kf_bfly2           0000000140127ad8     opus:kiss_fft.obj
 0002:00025af0       $unwind$kf_bfly4           0000000140127af0     opus:kiss_fft.obj
 0002:00025b1c       $chain$4$kf_bfly4          0000000140127b1c     opus:kiss_fft.obj
 0002:00025b44       $chain$5$kf_bfly4          0000000140127b44     opus:kiss_fft.obj
 0002:00025b58       $unwind$kf_bfly3           0000000140127b58     opus:kiss_fft.obj
 0002:00025b6c       $chain$7$kf_bfly3          0000000140127b6c     opus:kiss_fft.obj
 0002:00025ba0       $chain$8$kf_bfly3          0000000140127ba0     opus:kiss_fft.obj
 0002:00025bb4       $unwind$kf_bfly5           0000000140127bb4     opus:kiss_fft.obj
 0002:00025bc4       $chain$16$kf_bfly5         0000000140127bc4     opus:kiss_fft.obj
 0002:00025c20       $chain$17$kf_bfly5         0000000140127c20     opus:kiss_fft.obj
 0002:00025c34       $unwind$compute_dense      0000000140127c34     opus:mlp.obj
 0002:00025c50       $chain$0$compute_dense     0000000140127c50     opus:mlp.obj
 0002:00025c68       $chain$1$compute_dense     0000000140127c68     opus:mlp.obj
 0002:00025c7c       $chain$3$compute_dense     0000000140127c7c     opus:mlp.obj
 0002:00025c98       $chain$9$compute_dense     0000000140127c98     opus:mlp.obj
 0002:00025cc4       $chain$10$compute_dense    0000000140127cc4     opus:mlp.obj
 0002:00025cd8       $chain$11$compute_dense    0000000140127cd8     opus:mlp.obj
 0002:00025cec       $unwind$compute_gru        0000000140127cec     opus:mlp.obj
 0002:00025d14       $chain$3$compute_gru       0000000140127d14     opus:mlp.obj
 0002:00025d38       $chain$4$compute_gru       0000000140127d38     opus:mlp.obj
 0002:00025d4c       $chain$10$compute_gru      0000000140127d4c     opus:mlp.obj
 0002:00025d78       $chain$11$compute_gru      0000000140127d78     opus:mlp.obj
 0002:00025d8c       $unwind$gemm_accum         0000000140127d8c     opus:mlp.obj
 0002:00025da0       $chain$3$gemm_accum        0000000140127da0     opus:mlp.obj
 0002:00025dc4       $chain$4$gemm_accum        0000000140127dc4     opus:mlp.obj
 0002:00025dd8       $unwind$_celt_lpc          0000000140127dd8     opus:celt_lpc.obj
 0002:00025df4       $chain$3$_celt_lpc         0000000140127df4     opus:celt_lpc.obj
 0002:00025e18       $chain$4$_celt_lpc         0000000140127e18     opus:celt_lpc.obj
 0002:00025e2c       $unwind$celt_fir_c         0000000140127e2c     opus:celt_lpc.obj
 0002:00025e54       $unwind$celt_iir           0000000140127e54     opus:celt_lpc.obj
 0002:00025e80       $unwind$_celt_autocorr     0000000140127e80     opus:celt_lpc.obj
 0002:00025eac       $unwind$exp_rotation       0000000140127eac     opus:vq.obj
 0002:00025ec4       $chain$2$exp_rotation      0000000140127ec4     opus:vq.obj
 0002:00025ee4       $chain$3$exp_rotation      0000000140127ee4     opus:vq.obj
 0002:00025efc       $chain$4$exp_rotation      0000000140127efc     opus:vq.obj
 0002:00025f10       $chain$5$exp_rotation      0000000140127f10     opus:vq.obj
 0002:00025f24       $unwind$op_pvq_search_c    0000000140127f24     opus:vq.obj
 0002:00025f64       $unwind$alg_quant          0000000140127f64     opus:vq.obj
 0002:00025f90       $unwind$alg_unquant        0000000140127f90     opus:vq.obj
 0002:00025fbc       $unwind$renormalise_vector 0000000140127fbc     opus:vq.obj
 0002:00025fd0       $unwind$stereo_itheta      0000000140127fd0     opus:vq.obj
 0002:00025fd8       $chain$3$stereo_itheta     0000000140127fd8     opus:vq.obj
 0002:00025ffc       $chain$4$stereo_itheta     0000000140127ffc     opus:vq.obj
 0002:00026018       $chain$5$stereo_itheta     0000000140128018     opus:vq.obj
 0002:00026030       $chain$6$stereo_itheta     0000000140128030     opus:vq.obj
 0002:00026044       $chain$7$stereo_itheta     0000000140128044     opus:vq.obj
 0002:00026058       $unwind$exp_rotation1      0000000140128058     opus:vq.obj
 0002:0002606c       $chain$1$exp_rotation1     000000014012806c     opus:vq.obj
 0002:00026088       $chain$3$exp_rotation1     0000000140128088     opus:vq.obj
 0002:000260a4       $chain$4$exp_rotation1     00000001401280a4     opus:vq.obj
 0002:000260b8       $chain$5$exp_rotation1     00000001401280b8     opus:vq.obj
 0002:000260cc       $unwind$extract_collapse_mask 00000001401280cc     opus:vq.obj
 0002:000260e0       $unwind$silk_stereo_MS_to_LR 00000001401280e0     opus:stereo_MS_to_LR.obj
 0002:000260f8       $unwind$silk_stereo_decode_pred 00000001401280f8     opus:stereo_decode_pred.obj
 0002:00026114       $unwind$silk_stereo_decode_mid_only 0000000140128114     opus:stereo_decode_pred.obj
 0002:0002611c       $unwind$silk_init_decoder  000000014012811c     opus:init_decoder.obj
 0002:00026124       $unwind$silk_decoder_set_fs 0000000140128124     opus:decoder_set_fs.obj
 0002:00026140       $unwind$silk_decode_frame  0000000140128140     opus:decode_frame.obj
 0002:0002616c       $unwind$silk_decode_indices 000000014012816c     opus:decode_indices.obj
 0002:00026188       $chain$1$silk_decode_indices 0000000140128188     opus:decode_indices.obj
 0002:000261a4       $chain$2$silk_decode_indices 00000001401281a4     opus:decode_indices.obj
 0002:000261bc       $unwind$silk_decode_pulses 00000001401281bc     opus:decode_pulses.obj
 0002:000261d8       $chain$3$silk_decode_pulses 00000001401281d8     opus:decode_pulses.obj
 0002:000261fc       $chain$4$silk_decode_pulses 00000001401281fc     opus:decode_pulses.obj
 0002:00026210       $unwind$ec_laplace_encode  0000000140128210     opus:laplace.obj
 0002:00026220       $chain$0$ec_laplace_encode 0000000140128220     opus:laplace.obj
 0002:00026238       $chain$1$ec_laplace_encode 0000000140128238     opus:laplace.obj
 0002:0002624c       $unwind$ec_laplace_decode  000000014012824c     opus:laplace.obj
 0002:00026264       $unwind$silk_resampler_private_IIR_FIR 0000000140128264     opus:resampler_private_IIR_FIR.obj
 0002:00026290       $unwind$silk_resampler_private_down_FIR 0000000140128290     opus:resampler_private_down_FIR.obj
 0002:000262bc       $unwind$silk_resampler_private_down_FIR_INTERPOL 00000001401282bc     opus:resampler_private_down_FIR.obj
 0002:000262d4       $chain$0$silk_resampler_private_down_FIR_INTERPOL 00000001401282d4     opus:resampler_private_down_FIR.obj
 0002:000262ec       $chain$1$silk_resampler_private_down_FIR_INTERPOL 00000001401282ec     opus:resampler_private_down_FIR.obj
 0002:00026304       $chain$2$silk_resampler_private_down_FIR_INTERPOL 0000000140128304     opus:resampler_private_down_FIR.obj
 0002:00026318       $chain$3$silk_resampler_private_down_FIR_INTERPOL 0000000140128318     opus:resampler_private_down_FIR.obj
 0002:0002632c       $unwind$silk_resampler_private_up2_HQ 000000014012832c     opus:resampler_private_up2_HQ.obj
 0002:00026340       $chain$1$silk_resampler_private_up2_HQ 0000000140128340     opus:resampler_private_up2_HQ.obj
 0002:0002635c       $chain$2$silk_resampler_private_up2_HQ 000000014012835c     opus:resampler_private_up2_HQ.obj
 0002:00026370       $unwind$silk_DIV32_varQ    0000000140128370     opus:stereo_find_predictor.obj
 0002:00026380       $unwind$silk_stereo_find_predictor 0000000140128380     opus:stereo_find_predictor.obj
 0002:0002639c       $unwind$silk_stereo_quant_pred 000000014012839c     opus:stereo_quant_pred.obj
 0002:000263bc       $unwind$silk_encode_signs  00000001401283bc     opus:code_signs.obj
 0002:000263d0       $chain$2$silk_encode_signs 00000001401283d0     opus:code_signs.obj
 0002:000263f0       $chain$3$silk_encode_signs 00000001401283f0     opus:code_signs.obj
 0002:00026404       $unwind$silk_decode_signs  0000000140128404     opus:code_signs.obj
 0002:00026418       $chain$2$silk_decode_signs 0000000140128418     opus:code_signs.obj
 0002:00026438       $chain$3$silk_decode_signs 0000000140128438     opus:code_signs.obj
 0002:0002644c       $unwind$silk_shell_encoder 000000014012844c     opus:shell_coder.obj
 0002:00026468       $unwind$silk_shell_decoder 0000000140128468     opus:shell_coder.obj
 0002:00026480       $chain$0$silk_shell_decoder 0000000140128480     opus:shell_coder.obj
 0002:00026498       $chain$1$silk_shell_decoder 0000000140128498     opus:shell_coder.obj
 0002:000264b0       $chain$2$silk_shell_decoder 00000001401284b0     opus:shell_coder.obj
 0002:000264c4       $chain$3$silk_shell_decoder 00000001401284c4     opus:shell_coder.obj
 0002:000264d8       $unwind$silk_NLSF_unpack   00000001401284d8     opus:NLSF_unpack.obj
 0002:000264ec       $unwind$silk_gains_quant   00000001401284ec     opus:gain_quant.obj
 0002:00026500       $chain$2$silk_gains_quant  0000000140128500     opus:gain_quant.obj
 0002:00026520       $chain$3$silk_gains_quant  0000000140128520     opus:gain_quant.obj
 0002:00026534       $unwind$silk_gains_dequant 0000000140128534     opus:gain_quant.obj
 0002:0002654c       $chain$1$silk_gains_dequant 000000014012854c     opus:gain_quant.obj
 0002:00026568       $chain$2$silk_gains_dequant 0000000140128568     opus:gain_quant.obj
 0002:0002657c       $unwind$silk_LP_variable_cutoff 000000014012857c     opus:LP_variable_cutoff.obj
 0002:00026598       $chain$0$silk_LP_variable_cutoff 0000000140128598     opus:LP_variable_cutoff.obj
 0002:000265b0       $chain$1$silk_LP_variable_cutoff 00000001401285b0     opus:LP_variable_cutoff.obj
 0002:000265c4       $unwind$silk_LP_interpolate_filter_taps 00000001401285c4     opus:LP_variable_cutoff.obj
 0002:000265cc       $chain$6$silk_LP_interpolate_filter_taps 00000001401285cc     opus:LP_variable_cutoff.obj
 0002:000265fc       $chain$7$silk_LP_interpolate_filter_taps 00000001401285fc     opus:LP_variable_cutoff.obj
 0002:00026610       $unwind$silk_noise_shape_analysis_FLP 0000000140128610     opus:noise_shape_analysis_FLP.obj
 0002:00026634       $chain$0$silk_noise_shape_analysis_FLP 0000000140128634     opus:noise_shape_analysis_FLP.obj
 0002:0002664c       $chain$10$silk_noise_shape_analysis_FLP 000000014012864c     opus:noise_shape_analysis_FLP.obj
 0002:0002668c       $chain$12$silk_noise_shape_analysis_FLP 000000014012868c     opus:noise_shape_analysis_FLP.obj
 0002:000266a8       $chain$13$silk_noise_shape_analysis_FLP 00000001401286a8     opus:noise_shape_analysis_FLP.obj
 0002:000266cc       $chain$14$silk_noise_shape_analysis_FLP 00000001401286cc     opus:noise_shape_analysis_FLP.obj
 0002:000266e4       $chain$15$silk_noise_shape_analysis_FLP 00000001401286e4     opus:noise_shape_analysis_FLP.obj
 0002:000266f8       $unwind$warped_true2monic_coefs 00000001401286f8     opus:noise_shape_analysis_FLP.obj
 0002:00026744       $unwind$silk_find_pitch_lags_FLP 0000000140128744     opus:find_pitch_lags_FLP.obj
 0002:00026768       $unwind$silk_find_pred_coefs_FLP 0000000140128768     opus:find_pred_coefs_FLP.obj
 0002:00026784       $chain$1$silk_find_pred_coefs_FLP 0000000140128784     opus:find_pred_coefs_FLP.obj
 0002:000267a0       $chain$2$silk_find_pred_coefs_FLP 00000001401287a0     opus:find_pred_coefs_FLP.obj
 0002:000267b8       $unwind$silk_process_gains_FLP 00000001401287b8     opus:process_gains_FLP.obj
 0002:000267d4       $unwind$silk_quant_LTP_gains_FLP 00000001401287d4     opus:wrappers_FLP.obj
 0002:000267f8       $unwind$silk_A2NLSF_FLP    00000001401287f8     opus:wrappers_FLP.obj
 0002:0002680c       $unwind$silk_NLSF2A_FLP    000000014012880c     opus:wrappers_FLP.obj
 0002:00026824       $unwind$silk_process_NLSFs_FLP 0000000140128824     opus:wrappers_FLP.obj
 0002:0002683c       $unwind$silk_NSQ_wrapper_FLP 000000014012883c     opus:wrappers_FLP.obj
 0002:00026860       $unwind$silk_VAD_GetNoiseLevels 0000000140128860     opus:VAD.obj
 0002:0002687c       $unwind$silk_VAD_GetSA_Q8_c 000000014012887c     opus:VAD.obj
 0002:000268a4       $unwind$encode_pulses      00000001401288a4     opus:cwrs.obj
 0002:000268c4       $unwind$decode_pulses      00000001401288c4     opus:cwrs.obj
 0002:000268dc       $unwind$cwrsi              00000001401288dc     opus:cwrs.obj
 0002:000268e4       $chain$0$cwrsi             00000001401288e4     opus:cwrs.obj
 0002:000268fc       $chain$5$cwrsi             00000001401288fc     opus:cwrs.obj
 0002:00026924       $chain$6$cwrsi             0000000140128924     opus:cwrs.obj
 0002:00026938       $chain$7$cwrsi             0000000140128938     opus:cwrs.obj
 0002:0002694c       $unwind$op_pvq_search_sse2 000000014012894c     opus:vq_sse2.obj
 0002:000269a4       $unwind$silk_PLC           00000001401289a4     opus:PLC.obj
 0002:000269ac       $unwind$silk_PLC_glue_frames 00000001401289ac     opus:PLC.obj
 0002:000269c0       $unwind$silk_PLC_update    00000001401289c0     opus:PLC.obj
 0002:000269d0       $unwind$silk_PLC_conceal   00000001401289d0     opus:PLC.obj
 0002:000269f8       $unwind$silk_CNG           00000001401289f8     opus:CNG.obj
 0002:00026a20       $unwind$silk_decode_parameters 0000000140128a20     opus:decode_parameters.obj
 0002:00026a3c       $chain$1$silk_decode_parameters 0000000140128a3c     opus:decode_parameters.obj
 0002:00026a58       $chain$2$silk_decode_parameters 0000000140128a58     opus:decode_parameters.obj
 0002:00026a6c       $chain$3$silk_decode_parameters 0000000140128a6c     opus:decode_parameters.obj
 0002:00026a88       $chain$4$silk_decode_parameters 0000000140128a88     opus:decode_parameters.obj
 0002:00026aa0       $chain$5$silk_decode_parameters 0000000140128aa0     opus:decode_parameters.obj
 0002:00026ab4       $chain$6$silk_decode_parameters 0000000140128ab4     opus:decode_parameters.obj
 0002:00026ac8       $unwind$silk_decode_core   0000000140128ac8     opus:decode_core.obj
 0002:00026af0       $unwind$silk_resampler_private_AR2 0000000140128af0     opus:resampler_private_AR2.obj
 0002:00026af8       $unwind$silk_sum_sqr_shift 0000000140128af8     opus:sum_sqr_shift.obj
 0002:00026b08       $chain$1$silk_sum_sqr_shift 0000000140128b08     opus:sum_sqr_shift.obj
 0002:00026b24       $chain$2$silk_sum_sqr_shift 0000000140128b24     opus:sum_sqr_shift.obj
 0002:00026b3c       $chain$3$silk_sum_sqr_shift 0000000140128b3c     opus:sum_sqr_shift.obj
 0002:00026b54       $chain$4$silk_sum_sqr_shift 0000000140128b54     opus:sum_sqr_shift.obj
 0002:00026b68       $chain$5$silk_sum_sqr_shift 0000000140128b68     opus:sum_sqr_shift.obj
 0002:00026b7c       $chain$6$silk_sum_sqr_shift 0000000140128b7c     opus:sum_sqr_shift.obj
 0002:00026b90       $unwind$silk_inner_prod_aligned_scale 0000000140128b90     opus:inner_prod_aligned.obj
 0002:00026ba8       $chain$0$silk_inner_prod_aligned_scale 0000000140128ba8     opus:inner_prod_aligned.obj
 0002:00026bc0       $chain$1$silk_inner_prod_aligned_scale 0000000140128bc0     opus:inner_prod_aligned.obj
 0002:00026bd4       $unwind$silk_biquad_alt_stride1 0000000140128bd4     opus:biquad_alt.obj
 0002:00026be4       $chain$4$silk_biquad_alt_stride1 0000000140128be4     opus:biquad_alt.obj
 0002:00026c0c       $chain$5$silk_biquad_alt_stride1 0000000140128c0c     opus:biquad_alt.obj
 0002:00026c20       $unwind$silk_biquad_alt_stride2_c 0000000140128c20     opus:biquad_alt.obj
 0002:00026c30       $chain$4$silk_biquad_alt_stride2_c 0000000140128c30     opus:biquad_alt.obj
 0002:00026c58       $chain$5$silk_biquad_alt_stride2_c 0000000140128c58     opus:biquad_alt.obj
 0002:00026c6c       $unwind$silk_schur_FLP     0000000140128c6c     opus:schur_FLP.obj
 0002:00026c8c       $chain$0$silk_schur_FLP    0000000140128c8c     opus:schur_FLP.obj
 0002:00026ca4       $chain$1$silk_schur_FLP    0000000140128ca4     opus:schur_FLP.obj
 0002:00026cb8       $unwind$silk_k2a_FLP       0000000140128cb8     opus:k2a_FLP.obj
 0002:00026cc0       $chain$2$silk_k2a_FLP      0000000140128cc0     opus:k2a_FLP.obj
 0002:00026ce0       $chain$3$silk_k2a_FLP      0000000140128ce0     opus:k2a_FLP.obj
 0002:00026cf4       $unwind$silk_autocorrelation_FLP 0000000140128cf4     opus:autocorrelation_FLP.obj
 0002:00026d0c       $chain$0$silk_autocorrelation_FLP 0000000140128d0c     opus:autocorrelation_FLP.obj
 0002:00026d24       $chain$1$silk_autocorrelation_FLP 0000000140128d24     opus:autocorrelation_FLP.obj
 0002:00026d38       $unwind$silk_energy_FLP    0000000140128d38     opus:energy_FLP.obj
 0002:00026d40       $unwind$silk_warped_autocorrelation_FLP 0000000140128d40     opus:warped_autocorrelation_FLP.obj
 0002:00026d68       $unwind$silk_apply_sine_window_FLP 0000000140128d68     opus:apply_sine_window_FLP.obj
 0002:00026d78       $unwind$silk_pitch_analysis_core_FLP 0000000140128d78     opus:pitch_analysis_core_FLP.obj
 0002:00026da0       $chain$3$silk_pitch_analysis_core_FLP 0000000140128da0     opus:pitch_analysis_core_FLP.obj
 0002:00026dc4       $chain$5$silk_pitch_analysis_core_FLP 0000000140128dc4     opus:pitch_analysis_core_FLP.obj
 0002:00026de0       $chain$7$silk_pitch_analysis_core_FLP 0000000140128de0     opus:pitch_analysis_core_FLP.obj
 0002:00026dfc       $chain$8$silk_pitch_analysis_core_FLP 0000000140128dfc     opus:pitch_analysis_core_FLP.obj
 0002:00026e14       $chain$9$silk_pitch_analysis_core_FLP 0000000140128e14     opus:pitch_analysis_core_FLP.obj
 0002:00026e28       $chain$10$silk_pitch_analysis_core_FLP 0000000140128e28     opus:pitch_analysis_core_FLP.obj
 0002:00026e3c       $chain$11$silk_pitch_analysis_core_FLP 0000000140128e3c     opus:pitch_analysis_core_FLP.obj
 0002:00026e60       $chain$12$silk_pitch_analysis_core_FLP 0000000140128e60     opus:pitch_analysis_core_FLP.obj
 0002:00026e74       $unwind$silk_P_Ana_calc_corr_st3 0000000140128e74     opus:pitch_analysis_core_FLP.obj
 0002:00026e94       $chain$2$silk_P_Ana_calc_corr_st3 0000000140128e94     opus:pitch_analysis_core_FLP.obj
 0002:00026eb4       $chain$3$silk_P_Ana_calc_corr_st3 0000000140128eb4     opus:pitch_analysis_core_FLP.obj
 0002:00026ec8       $unwind$silk_P_Ana_calc_energy_st3 0000000140128ec8     opus:pitch_analysis_core_FLP.obj
 0002:00026ee8       $chain$2$silk_P_Ana_calc_energy_st3 0000000140128ee8     opus:pitch_analysis_core_FLP.obj
 0002:00026f08       $chain$3$silk_P_Ana_calc_energy_st3 0000000140128f08     opus:pitch_analysis_core_FLP.obj
 0002:00026f1c       $unwind$silk_LPC_analysis_filter_FLP 0000000140128f1c     opus:LPC_analysis_filter_FLP.obj
 0002:00026f24       $unwind$silk_LPC_analysis_filter16_FLP 0000000140128f24     opus:LPC_analysis_filter_FLP.obj
 0002:00026f2c       $chain$0$silk_LPC_analysis_filter16_FLP 0000000140128f2c     opus:LPC_analysis_filter_FLP.obj
 0002:00026f44       $chain$1$silk_LPC_analysis_filter16_FLP 0000000140128f44     opus:LPC_analysis_filter_FLP.obj
 0002:00026f58       $unwind$silk_LPC_analysis_filter12_FLP 0000000140128f58     opus:LPC_analysis_filter_FLP.obj
 0002:00026f60       $chain$0$silk_LPC_analysis_filter12_FLP 0000000140128f60     opus:LPC_analysis_filter_FLP.obj
 0002:00026f78       $chain$1$silk_LPC_analysis_filter12_FLP 0000000140128f78     opus:LPC_analysis_filter_FLP.obj
 0002:00026f8c       $unwind$silk_LPC_analysis_filter10_FLP 0000000140128f8c     opus:LPC_analysis_filter_FLP.obj
 0002:00026f94       $chain$0$silk_LPC_analysis_filter10_FLP 0000000140128f94     opus:LPC_analysis_filter_FLP.obj
 0002:00026fac       $chain$1$silk_LPC_analysis_filter10_FLP 0000000140128fac     opus:LPC_analysis_filter_FLP.obj
 0002:00026fc0       $unwind$silk_LPC_analysis_filter8_FLP 0000000140128fc0     opus:LPC_analysis_filter_FLP.obj
 0002:00026fc8       $chain$0$silk_LPC_analysis_filter8_FLP 0000000140128fc8     opus:LPC_analysis_filter_FLP.obj
 0002:00026fe0       $chain$1$silk_LPC_analysis_filter8_FLP 0000000140128fe0     opus:LPC_analysis_filter_FLP.obj
 0002:00026ff4       $unwind$silk_LPC_analysis_filter6_FLP 0000000140128ff4     opus:LPC_analysis_filter_FLP.obj
 0002:00026ffc       $chain$0$silk_LPC_analysis_filter6_FLP 0000000140128ffc     opus:LPC_analysis_filter_FLP.obj
 0002:00027014       $chain$1$silk_LPC_analysis_filter6_FLP 0000000140129014     opus:LPC_analysis_filter_FLP.obj
 0002:00027028       $unwind$silk_scale_copy_vector_FLP 0000000140129028     opus:scale_copy_vector_FLP.obj
 0002:00027030       $chain$1$silk_scale_copy_vector_FLP 0000000140129030     opus:scale_copy_vector_FLP.obj
 0002:0002704c       $chain$2$silk_scale_copy_vector_FLP 000000014012904c     opus:scale_copy_vector_FLP.obj
 0002:00027064       $chain$3$silk_scale_copy_vector_FLP 0000000140129064     opus:scale_copy_vector_FLP.obj
 0002:00027078       $chain$4$silk_scale_copy_vector_FLP 0000000140129078     opus:scale_copy_vector_FLP.obj
 0002:0002708c       $unwind$silk_find_LPC_FLP  000000014012908c     opus:find_LPC_FLP.obj
 0002:000270a4       $chain$3$silk_find_LPC_FLP 00000001401290a4     opus:find_LPC_FLP.obj
 0002:000270c8       $chain$8$silk_find_LPC_FLP 00000001401290c8     opus:find_LPC_FLP.obj
 0002:000270f0       $chain$9$silk_find_LPC_FLP 00000001401290f0     opus:find_LPC_FLP.obj
 0002:00027104       $chain$10$silk_find_LPC_FLP 0000000140129104     opus:find_LPC_FLP.obj
 0002:00027118       $unwind$silk_find_LTP_FLP  0000000140129118     opus:find_LTP_FLP.obj
 0002:0002712c       $chain$6$silk_find_LTP_FLP 000000014012912c     opus:find_LTP_FLP.obj
 0002:0002715c       $chain$7$silk_find_LTP_FLP 000000014012915c     opus:find_LTP_FLP.obj
 0002:00027170       $unwind$silk_LTP_analysis_filter_FLP 0000000140129170     opus:LTP_analysis_filter_FLP.obj
 0002:00027180       $chain$4$silk_LTP_analysis_filter_FLP 0000000140129180     opus:LTP_analysis_filter_FLP.obj
 0002:000271a8       $chain$5$silk_LTP_analysis_filter_FLP 00000001401291a8     opus:LTP_analysis_filter_FLP.obj
 0002:000271bc       $unwind$silk_residual_energy_FLP 00000001401291bc     opus:residual_energy_FLP.obj
 0002:000271e8       $unwind$silk_residual_energy_covar_FLP 00000001401291e8     opus:residual_energy_FLP.obj
 0002:0002720c       $unwind$silk_A2NLSF        000000014012920c     opus:A2NLSF.obj
 0002:00027234       $unwind$silk_A2NLSF_init   0000000140129234     opus:A2NLSF.obj
 0002:00027248       $unwind$silk_NLSF2A        0000000140129248     opus:NLSF2A.obj
 0002:00027264       $chain$1$silk_NLSF2A       0000000140129264     opus:NLSF2A.obj
 0002:00027280       $chain$2$silk_NLSF2A       0000000140129280     opus:NLSF2A.obj
 0002:00027294       $unwind$silk_NLSF2A_find_poly 0000000140129294     opus:NLSF2A.obj
 0002:0002729c       $chain$1$silk_NLSF2A_find_poly 000000014012929c     opus:NLSF2A.obj
 0002:000272b8       $chain$2$silk_NLSF2A_find_poly 00000001401292b8     opus:NLSF2A.obj
 0002:000272cc       $unwind$silk_quant_LTP_gains 00000001401292cc     opus:quant_LTP_gains.obj
 0002:000272e8       $unwind$silk_noise_shape_quantizer 00000001401292e8     opus:NSQ.obj
 0002:000272fc       $chain$2$silk_noise_shape_quantizer 00000001401292fc     opus:NSQ.obj
 0002:0002731c       $chain$3$silk_noise_shape_quantizer 000000014012931c     opus:NSQ.obj
 0002:00027330       $unwind$silk_NSQ_c         0000000140129330     opus:NSQ.obj
 0002:0002735c       $unwind$silk_nsq_scale_states 000000014012935c     opus:NSQ.obj
 0002:0002737c       $unwind$silk_NSQ_del_dec_c 000000014012937c     opus:NSQ_del_dec.obj
 0002:000273a8       $unwind$silk_nsq_del_dec_scale_states 00000001401293a8     opus:NSQ_del_dec.obj
 0002:000273c8       $unwind$silk_noise_shape_quantizer_del_dec 00000001401293c8     opus:NSQ_del_dec.obj
 0002:000273f4       $unwind$silk_process_NLSFs 00000001401293f4     opus:process_NLSFs.obj
 0002:00027414       $chain$0$silk_process_NLSFs 0000000140129414     opus:process_NLSFs.obj
 0002:0002742c       $chain$1$silk_process_NLSFs 000000014012942c     opus:process_NLSFs.obj
 0002:00027444       $chain$2$silk_process_NLSFs 0000000140129444     opus:process_NLSFs.obj
 0002:00027458       $chain$3$silk_process_NLSFs 0000000140129458     opus:process_NLSFs.obj
 0002:0002746c       $unwind$silk_VAD_GetSA_Q8_sse4_1 000000014012946c     opus:VAD_sse4_1.obj
 0002:00027494       $unwind$silk_ana_filt_bank_1 0000000140129494     opus:ana_filt_bank_1.obj
 0002:000274a4       $chain$3$silk_ana_filt_bank_1 00000001401294a4     opus:ana_filt_bank_1.obj
 0002:000274c8       $chain$4$silk_ana_filt_bank_1 00000001401294c8     opus:ana_filt_bank_1.obj
 0002:000274dc       $unwind$silk_LPC_analysis_filter 00000001401294dc     opus:LPC_analysis_filter.obj
 0002:000274f0       $chain$2$silk_LPC_analysis_filter 00000001401294f0     opus:LPC_analysis_filter.obj
 0002:00027510       $chain$3$silk_LPC_analysis_filter 0000000140129510     opus:LPC_analysis_filter.obj
 0002:00027524       $unwind$silk_LPC_inverse_pred_gain_c 0000000140129524     opus:LPC_inv_pred_gain.obj
 0002:00027538       $unwind$LPC_inverse_pred_gain_QA_c 0000000140129538     opus:LPC_inv_pred_gain.obj
 0002:00027550       $unwind$silk_decode_pitch  0000000140129550     opus:decode_pitch.obj
 0002:00027568       $unwind$silk_NLSF_decode   0000000140129568     opus:NLSF_decode.obj
 0002:00027584       $unwind$silk_inner_product_FLP 0000000140129584     opus:inner_product_FLP.obj
 0002:0002758c       $unwind$silk_resampler_down2 000000014012958c     opus:resampler_down2.obj
 0002:000275a4       $chain$0$silk_resampler_down2 00000001401295a4     opus:resampler_down2.obj
 0002:000275bc       $chain$1$silk_resampler_down2 00000001401295bc     opus:resampler_down2.obj
 0002:000275d0       $unwind$silk_resampler_down2_3 00000001401295d0     opus:resampler_down2_3.obj
 0002:000275fc       $unwind$silk_insertion_sort_decreasing_FLP 00000001401295fc     opus:sort_FLP.obj
 0002:00027618       $unwind$silk_burg_modified_FLP 0000000140129618     opus:burg_modified_FLP.obj
 0002:0002765c       $chain$3$silk_burg_modified_FLP 000000014012965c     opus:burg_modified_FLP.obj
 0002:00027680       $unwind$silk_interpolate   0000000140129680     opus:interpolate.obj
 0002:00027688       $chain$0$silk_interpolate  0000000140129688     opus:interpolate.obj
 0002:000276a0       $chain$2$silk_interpolate  00000001401296a0     opus:interpolate.obj
 0002:000276bc       $chain$3$silk_interpolate  00000001401296bc     opus:interpolate.obj
 0002:000276d0       $chain$4$silk_interpolate  00000001401296d0     opus:interpolate.obj
 0002:000276e4       $unwind$silk_corrMatrix_FLP 00000001401296e4     opus:corrMatrix_FLP.obj
 0002:000276fc       $chain$0$silk_corrMatrix_FLP 00000001401296fc     opus:corrMatrix_FLP.obj
 0002:00027714       $chain$1$silk_corrMatrix_FLP 0000000140129714     opus:corrMatrix_FLP.obj
 0002:00027728       $chain$2$silk_corrMatrix_FLP 0000000140129728     opus:corrMatrix_FLP.obj
 0002:00027740       $unwind$silk_corrVector_FLP 0000000140129740     opus:corrMatrix_FLP.obj
 0002:00027754       $chain$1$silk_corrVector_FLP 0000000140129754     opus:corrMatrix_FLP.obj
 0002:00027770       $chain$2$silk_corrVector_FLP 0000000140129770     opus:corrMatrix_FLP.obj
 0002:00027784       $unwind$silk_LPC_fit       0000000140129784     opus:LPC_fit.obj
 0002:000277a4       $chain$0$silk_LPC_fit      00000001401297a4     opus:LPC_fit.obj
 0002:000277bc       $chain$1$silk_LPC_fit      00000001401297bc     opus:LPC_fit.obj
 0002:000277d4       $chain$2$silk_LPC_fit      00000001401297d4     opus:LPC_fit.obj
 0002:000277e8       $chain$3$silk_LPC_fit      00000001401297e8     opus:LPC_fit.obj
 0002:000277fc       $unwind$silk_VQ_WMat_EC_c  00000001401297fc     opus:VQ_WMat_EC.obj
 0002:0002780c       $chain$5$silk_VQ_WMat_EC_c 000000014012980c     opus:VQ_WMat_EC.obj
 0002:00027838       $chain$6$silk_VQ_WMat_EC_c 0000000140129838     opus:VQ_WMat_EC.obj
 0002:0002784c       $unwind$silk_NLSF_VQ_weights_laroia 000000014012984c     opus:NLSF_VQ_weights_laroia.obj
 0002:00027864       $chain$0$silk_NLSF_VQ_weights_laroia 0000000140129864     opus:NLSF_VQ_weights_laroia.obj
 0002:0002787c       $chain$1$silk_NLSF_VQ_weights_laroia 000000014012987c     opus:NLSF_VQ_weights_laroia.obj
 0002:00027890       $unwind$silk_NLSF_encode   0000000140129890     opus:NLSF_encode.obj
 0002:000278b8       $unwind$silk_NLSF_stabilize 00000001401298b8     opus:NLSF_stabilize.obj
 0002:000278d8       $unwind$silk_insertion_sort_increasing 00000001401298d8     opus:sort.obj
 0002:000278f4       $chain$1$silk_insertion_sort_increasing 00000001401298f4     opus:sort.obj
 0002:0002790c       $chain$2$silk_insertion_sort_increasing 000000014012990c     opus:sort.obj
 0002:00027920       $unwind$silk_insertion_sort_increasing_all_values_int16 0000000140129920     opus:sort.obj
 0002:00027928       $unwind$silk_NLSF_VQ       0000000140129928     opus:NLSF_VQ.obj
 0002:00027938       $chain$5$silk_NLSF_VQ      0000000140129938     opus:NLSF_VQ.obj
 0002:00027964       $chain$6$silk_NLSF_VQ      0000000140129964     opus:NLSF_VQ.obj
 0002:00027978       $unwind$silk_NLSF_del_dec_quant 0000000140129978     opus:NLSF_del_dec_quant.obj
 0002:00027994       $chain$1$silk_NLSF_del_dec_quant 0000000140129994     opus:NLSF_del_dec_quant.obj
 0002:000279b0       $chain$3$silk_NLSF_del_dec_quant 00000001401299b0     opus:NLSF_del_dec_quant.obj
 0002:000279cc       $chain$4$silk_NLSF_del_dec_quant 00000001401299cc     opus:NLSF_del_dec_quant.obj
 0002:000279e0       $chain$5$silk_NLSF_del_dec_quant 00000001401299e0     opus:NLSF_del_dec_quant.obj
 0002:000279f8       $xdatasym                  00000001401299f8     libcmt:svml_dexp2_sse2.obj
 0002:00027a10       $xdatasym                  0000000140129a10     libcmt:svml_dexp2_sse4.obj
 0003:00000000       $SG25488                   000000014012a000     encdec.obj
 0003:000001b0       desc                       000000014012a1b0     encdec.obj
 0003:000001b8       $SG25500                   000000014012a1b8     encdec.obj
 0003:000001c8       $SG25583                   000000014012a1c8     encdec.obj
 0003:000001d0       $SG25585                   000000014012a1d0     encdec.obj
 0003:00000228       $SG25587                   000000014012a228     encdec.obj
 0003:00000260       $SG25589                   000000014012a260     encdec.obj
 0003:000002d0       $SG25591                   000000014012a2d0     encdec.obj
 0003:00000358       $SG25593                   000000014012a358     encdec.obj
 0003:00000388       $SG25595                   000000014012a388     encdec.obj
 0003:000003a8       $SG25597                   000000014012a3a8     encdec.obj
 0003:000003d0       $SG25601                   000000014012a3d0     encdec.obj
 0003:00000418       $SG25605                   000000014012a418     encdec.obj
 0003:00000448       $SG25609                   000000014012a448     encdec.obj
 0003:00000468       $SG25613                   000000014012a468     encdec.obj
 0003:000004a0       $SG25607                   000000014012a4a0     encdec.obj
 0003:000004e8       $SG25619                   000000014012a4e8     encdec.obj
 0003:00000500       $SG25615                   000000014012a500     encdec.obj
 0003:00000548       $SG25617                   000000014012a548     encdec.obj
 0003:00000578       $SG25618                   000000014012a578     encdec.obj
 0003:00000598       $SG25647                   000000014012a598     encdec.obj
 0003:000005a8       $SG25649                   000000014012a5a8     encdec.obj
 0003:000005e0       $SG25651                   000000014012a5e0     encdec.obj
 0003:00000610       $SG25654                   000000014012a610     encdec.obj
 0003:00000618       $SG25655                   000000014012a618     encdec.obj
 0003:00000630       $SG25656                   000000014012a630     encdec.obj
 0003:00000790       $SG20406                   000000014012a790     pjmedia-codec-x86_64-x64-vc14-debug-dynamic:audio_codecs.obj
 0003:000008a8       $SG20407                   000000014012a8a8     pjmedia-codec-x86_64-x64-vc14-debug-dynamic:audio_codecs.obj
 0003:000008c0       $SG20410                   000000014012a8c0     pjmedia-codec-x86_64-x64-vc14-debug-dynamic:audio_codecs.obj
 0003:000009e0       $SG20411                   000000014012a9e0     pjmedia-codec-x86_64-x64-vc14-debug-dynamic:audio_codecs.obj
 0003:00000ab0       g722_op                    000000014012aab0     pjmedia-codec-x86_64-x64-vc14-debug-dynamic:g722.obj
 0003:00000af0       g722_factory_op            000000014012aaf0     pjmedia-codec-x86_64-x64-vc14-debug-dynamic:g722.obj
 0003:00000b20       $SG20227                   000000014012ab20     pjmedia-codec-x86_64-x64-vc14-debug-dynamic:g722.obj
 0003:00000b28       $SG20229                   000000014012ab28     pjmedia-codec-x86_64-x64-vc14-debug-dynamic:g722.obj
 0003:00000b30       $SG20278                   000000014012ab30     pjmedia-codec-x86_64-x64-vc14-debug-dynamic:g722.obj
 0003:00000c38       $SG20279                   000000014012ac38     pjmedia-codec-x86_64-x64-vc14-debug-dynamic:g722.obj
 0003:00000c64       $SG20280                   000000014012ac64     pjmedia-codec-x86_64-x64-vc14-debug-dynamic:g722.obj
 0003:00000c70       $SG20314                   000000014012ac70     pjmedia-codec-x86_64-x64-vc14-debug-dynamic:g722.obj
 0003:00000d78       $SG20315                   000000014012ad78     pjmedia-codec-x86_64-x64-vc14-debug-dynamic:g722.obj
 0003:00000db0       $SG20317                   000000014012adb0     pjmedia-codec-x86_64-x64-vc14-debug-dynamic:g722.obj
 0003:00000ec0       $SG20318                   000000014012aec0     pjmedia-codec-x86_64-x64-vc14-debug-dynamic:g722.obj
 0003:00000f10       $SG20322                   000000014012af10     pjmedia-codec-x86_64-x64-vc14-debug-dynamic:g722.obj
 0003:00001018       $SG20323                   000000014012b018     pjmedia-codec-x86_64-x64-vc14-debug-dynamic:g722.obj
 0003:00001050       $SG20350                   000000014012b050     pjmedia-codec-x86_64-x64-vc14-debug-dynamic:g722.obj
 0003:00001158       $SG20351                   000000014012b158     pjmedia-codec-x86_64-x64-vc14-debug-dynamic:g722.obj
 0003:00001180       $SG20353                   000000014012b180     pjmedia-codec-x86_64-x64-vc14-debug-dynamic:g722.obj
 0003:00001290       $SG20354                   000000014012b290     pjmedia-codec-x86_64-x64-vc14-debug-dynamic:g722.obj
 0003:000012e0       $SG20385                   000000014012b2e0     pjmedia-codec-x86_64-x64-vc14-debug-dynamic:g722.obj
 0003:000013e8       $SG20386                   000000014012b3e8     pjmedia-codec-x86_64-x64-vc14-debug-dynamic:g722.obj
 0003:00001410       $SG20388                   000000014012b410     pjmedia-codec-x86_64-x64-vc14-debug-dynamic:g722.obj
 0003:00001518       $SG20389                   000000014012b518     pjmedia-codec-x86_64-x64-vc14-debug-dynamic:g722.obj
 0003:00001550       $SG20406                   000000014012b550     pjmedia-codec-x86_64-x64-vc14-debug-dynamic:g722.obj
 0003:00001658       $SG20407                   000000014012b658     pjmedia-codec-x86_64-x64-vc14-debug-dynamic:g722.obj
 0003:00001690       $SG20432                   000000014012b690     pjmedia-codec-x86_64-x64-vc14-debug-dynamic:g722.obj
 0003:00001798       $SG20433                   000000014012b798     pjmedia-codec-x86_64-x64-vc14-debug-dynamic:g722.obj
 0003:000017b0       $SG20465                   000000014012b7b0     pjmedia-codec-x86_64-x64-vc14-debug-dynamic:g722.obj
 0003:000018b8       $SG20466                   000000014012b8b8     pjmedia-codec-x86_64-x64-vc14-debug-dynamic:g722.obj
 0003:00001900       $SG20468                   000000014012b900     pjmedia-codec-x86_64-x64-vc14-debug-dynamic:g722.obj
 0003:00001a10       $SG20469                   000000014012ba10     pjmedia-codec-x86_64-x64-vc14-debug-dynamic:g722.obj
 0003:00001a60       $SG20505                   000000014012ba60     pjmedia-codec-x86_64-x64-vc14-debug-dynamic:g722.obj
 0003:00001b68       $SG20506                   000000014012bb68     pjmedia-codec-x86_64-x64-vc14-debug-dynamic:g722.obj
 0003:00001ba0       $SG20509                   000000014012bba0     pjmedia-codec-x86_64-x64-vc14-debug-dynamic:g722.obj
 0003:00001ca8       $SG20510                   000000014012bca8     pjmedia-codec-x86_64-x64-vc14-debug-dynamic:g722.obj
 0003:00001cd0       $SG20514                   000000014012bcd0     pjmedia-codec-x86_64-x64-vc14-debug-dynamic:g722.obj
 0003:00001de0       $SG20515                   000000014012bde0     pjmedia-codec-x86_64-x64-vc14-debug-dynamic:g722.obj
 0003:00001e30       $SG20541                   000000014012be30     pjmedia-codec-x86_64-x64-vc14-debug-dynamic:g722.obj
 0003:00001f38       $SG20542                   000000014012bf38     pjmedia-codec-x86_64-x64-vc14-debug-dynamic:g722.obj
 0003:00001f70       $SG20544                   000000014012bf70     pjmedia-codec-x86_64-x64-vc14-debug-dynamic:g722.obj
 0003:00002080       $SG20545                   000000014012c080     pjmedia-codec-x86_64-x64-vc14-debug-dynamic:g722.obj
 0003:00002550       gsm_op                     000000014012c550     pjmedia-codec-x86_64-x64-vc14-debug-dynamic:gsm.obj
 0003:00002590       gsm_factory_op             000000014012c590     pjmedia-codec-x86_64-x64-vc14-debug-dynamic:gsm.obj
 0003:000025c0       $SG20038                   000000014012c5c0     pjmedia-codec-x86_64-x64-vc14-debug-dynamic:gsm.obj
 0003:000025c4       $SG20040                   000000014012c5c4     pjmedia-codec-x86_64-x64-vc14-debug-dynamic:gsm.obj
 0003:000025c8       $SG20088                   000000014012c5c8     pjmedia-codec-x86_64-x64-vc14-debug-dynamic:gsm.obj
 0003:000025d0       $SG20086                   000000014012c5d0     pjmedia-codec-x86_64-x64-vc14-debug-dynamic:gsm.obj
 0003:000026d8       $SG20087                   000000014012c6d8     pjmedia-codec-x86_64-x64-vc14-debug-dynamic:gsm.obj
 0003:00002710       $SG20122                   000000014012c710     pjmedia-codec-x86_64-x64-vc14-debug-dynamic:gsm.obj
 0003:00002818       $SG20123                   000000014012c818     pjmedia-codec-x86_64-x64-vc14-debug-dynamic:gsm.obj
 0003:00002850       $SG20125                   000000014012c850     pjmedia-codec-x86_64-x64-vc14-debug-dynamic:gsm.obj
 0003:00002960       $SG20126                   000000014012c960     pjmedia-codec-x86_64-x64-vc14-debug-dynamic:gsm.obj
 0003:000029b0       $SG20130                   000000014012c9b0     pjmedia-codec-x86_64-x64-vc14-debug-dynamic:gsm.obj
 0003:00002ab8       $SG20131                   000000014012cab8     pjmedia-codec-x86_64-x64-vc14-debug-dynamic:gsm.obj
 0003:00002af0       $SG20158                   000000014012caf0     pjmedia-codec-x86_64-x64-vc14-debug-dynamic:gsm.obj
 0003:00002bf8       $SG20159                   000000014012cbf8     pjmedia-codec-x86_64-x64-vc14-debug-dynamic:gsm.obj
 0003:00002c20       $SG20161                   000000014012cc20     pjmedia-codec-x86_64-x64-vc14-debug-dynamic:gsm.obj
 0003:00002d30       $SG20162                   000000014012cd30     pjmedia-codec-x86_64-x64-vc14-debug-dynamic:gsm.obj
 0003:00002d80       $SG20184                   000000014012cd80     pjmedia-codec-x86_64-x64-vc14-debug-dynamic:gsm.obj
 0003:00002e88       $SG20185                   000000014012ce88     pjmedia-codec-x86_64-x64-vc14-debug-dynamic:gsm.obj
 0003:00002ec0       $SG20186                   000000014012cec0     pjmedia-codec-x86_64-x64-vc14-debug-dynamic:gsm.obj
 0003:00002fd0       $SG20187                   000000014012cfd0     pjmedia-codec-x86_64-x64-vc14-debug-dynamic:gsm.obj
 0003:00003060       $SG20200                   000000014012d060     pjmedia-codec-x86_64-x64-vc14-debug-dynamic:gsm.obj
 0003:00003168       $SG20201                   000000014012d168     pjmedia-codec-x86_64-x64-vc14-debug-dynamic:gsm.obj
 0003:000031a0       $SG20218                   000000014012d1a0     pjmedia-codec-x86_64-x64-vc14-debug-dynamic:gsm.obj
 0003:000032a8       $SG20219                   000000014012d2a8     pjmedia-codec-x86_64-x64-vc14-debug-dynamic:gsm.obj
 0003:000032e0       $SG20220                   000000014012d2e0     pjmedia-codec-x86_64-x64-vc14-debug-dynamic:gsm.obj
 0003:000033f0       $SG20221                   000000014012d3f0     pjmedia-codec-x86_64-x64-vc14-debug-dynamic:gsm.obj
 0003:00003480       $SG20246                   000000014012d480     pjmedia-codec-x86_64-x64-vc14-debug-dynamic:gsm.obj
 0003:00003588       $SG20247                   000000014012d588     pjmedia-codec-x86_64-x64-vc14-debug-dynamic:gsm.obj
 0003:000035a0       $SG20282                   000000014012d5a0     pjmedia-codec-x86_64-x64-vc14-debug-dynamic:gsm.obj
 0003:000036a8       $SG20283                   000000014012d6a8     pjmedia-codec-x86_64-x64-vc14-debug-dynamic:gsm.obj
 0003:000036e0       $SG20285                   000000014012d6e0     pjmedia-codec-x86_64-x64-vc14-debug-dynamic:gsm.obj
 0003:000037e8       $SG20286                   000000014012d7e8     pjmedia-codec-x86_64-x64-vc14-debug-dynamic:gsm.obj
 0003:00003810       $SG20288                   000000014012d810     pjmedia-codec-x86_64-x64-vc14-debug-dynamic:gsm.obj
 0003:00003920       $SG20289                   000000014012d920     pjmedia-codec-x86_64-x64-vc14-debug-dynamic:gsm.obj
 0003:00003970       $SG20316                   000000014012d970     pjmedia-codec-x86_64-x64-vc14-debug-dynamic:gsm.obj
 0003:00003a78       $SG20317                   000000014012da78     pjmedia-codec-x86_64-x64-vc14-debug-dynamic:gsm.obj
 0003:00003ab0       $SG20320                   000000014012dab0     pjmedia-codec-x86_64-x64-vc14-debug-dynamic:gsm.obj
 0003:00003bb8       $SG20321                   000000014012dbb8     pjmedia-codec-x86_64-x64-vc14-debug-dynamic:gsm.obj
 0003:00003be0       $SG20346                   000000014012dbe0     pjmedia-codec-x86_64-x64-vc14-debug-dynamic:gsm.obj
 0003:00003ce8       $SG20347                   000000014012dce8     pjmedia-codec-x86_64-x64-vc14-debug-dynamic:gsm.obj
 0003:00003d20       $SG20349                   000000014012dd20     pjmedia-codec-x86_64-x64-vc14-debug-dynamic:gsm.obj
 0003:00003e28       $SG20350                   000000014012de28     pjmedia-codec-x86_64-x64-vc14-debug-dynamic:gsm.obj
 0003:00004360       $SG20275                   000000014012e360     pjmedia-codec-x86_64-x64-vc14-debug-dynamic:ilbc.obj
 0003:00004370       ilbc_op                    000000014012e370     pjmedia-codec-x86_64-x64-vc14-debug-dynamic:ilbc.obj
 0003:000043b0       ilbc_factory_op            000000014012e3b0     pjmedia-codec-x86_64-x64-vc14-debug-dynamic:ilbc.obj
 0003:000043e0       STR_MODE                   000000014012e3e0     pjmedia-codec-x86_64-x64-vc14-debug-dynamic:ilbc.obj
 0003:000043f0       $SG20300                   000000014012e3f0     pjmedia-codec-x86_64-x64-vc14-debug-dynamic:ilbc.obj
 0003:000044f4       $SG20371                   000000014012e4f4     pjmedia-codec-x86_64-x64-vc14-debug-dynamic:ilbc.obj
 0003:000044f8       $SG20301                   000000014012e4f8     pjmedia-codec-x86_64-x64-vc14-debug-dynamic:ilbc.obj
 0003:00004524       $SG20332                   000000014012e524     pjmedia-codec-x86_64-x64-vc14-debug-dynamic:ilbc.obj
 0003:00004530       $SG20303                   000000014012e530     pjmedia-codec-x86_64-x64-vc14-debug-dynamic:ilbc.obj
 0003:00004634       $SG20365                   000000014012e634     pjmedia-codec-x86_64-x64-vc14-debug-dynamic:ilbc.obj
 0003:00004640       $SG20304                   000000014012e640     pjmedia-codec-x86_64-x64-vc14-debug-dynamic:ilbc.obj
 0003:00004680       $SG20334                   000000014012e680     pjmedia-codec-x86_64-x64-vc14-debug-dynamic:ilbc.obj
 0003:00004784       $SG20372                   000000014012e784     pjmedia-codec-x86_64-x64-vc14-debug-dynamic:ilbc.obj
 0003:00004788       $SG20335                   000000014012e788     pjmedia-codec-x86_64-x64-vc14-debug-dynamic:ilbc.obj
 0003:000047c0       $SG20362                   000000014012e7c0     pjmedia-codec-x86_64-x64-vc14-debug-dynamic:ilbc.obj
 0003:000048c8       $SG20363                   000000014012e8c8     pjmedia-codec-x86_64-x64-vc14-debug-dynamic:ilbc.obj
 0003:00004900       $SG20366                   000000014012e900     pjmedia-codec-x86_64-x64-vc14-debug-dynamic:ilbc.obj
 0003:00004908       $SG20394                   000000014012e908     pjmedia-codec-x86_64-x64-vc14-debug-dynamic:ilbc.obj
 0003:00004940       $SG20367                   000000014012e940     pjmedia-codec-x86_64-x64-vc14-debug-dynamic:ilbc.obj
 0003:00004a44       $SG20399                   000000014012ea44     pjmedia-codec-x86_64-x64-vc14-debug-dynamic:ilbc.obj
 0003:00004a50       $SG20368                   000000014012ea50     pjmedia-codec-x86_64-x64-vc14-debug-dynamic:ilbc.obj
 0003:00004aa8       $SG20431                   000000014012eaa8     pjmedia-codec-x86_64-x64-vc14-debug-dynamic:ilbc.obj
 0003:00004ae0       $SG20393                   000000014012eae0     pjmedia-codec-x86_64-x64-vc14-debug-dynamic:ilbc.obj
 0003:00004be4       $SG20435                   000000014012ebe4     pjmedia-codec-x86_64-x64-vc14-debug-dynamic:ilbc.obj
 0003:00004bf0       $SG20397                   000000014012ebf0     pjmedia-codec-x86_64-x64-vc14-debug-dynamic:ilbc.obj
 0003:00004cf8       $SG20398                   000000014012ecf8     pjmedia-codec-x86_64-x64-vc14-debug-dynamic:ilbc.obj
 0003:00004d28       $SG20434                   000000014012ed28     pjmedia-codec-x86_64-x64-vc14-debug-dynamic:ilbc.obj
 0003:00004d64       $SG20439                   000000014012ed64     pjmedia-codec-x86_64-x64-vc14-debug-dynamic:ilbc.obj
 0003:00004d70       $SG20430                   000000014012ed70     pjmedia-codec-x86_64-x64-vc14-debug-dynamic:ilbc.obj
 0003:00004e80       $SG20433                   000000014012ee80     pjmedia-codec-x86_64-x64-vc14-debug-dynamic:ilbc.obj
 0003:00004f90       $SG20437                   000000014012ef90     pjmedia-codec-x86_64-x64-vc14-debug-dynamic:ilbc.obj
 0003:00005098       $SG20438                   000000014012f098     pjmedia-codec-x86_64-x64-vc14-debug-dynamic:ilbc.obj
 0003:000050c0       $SG20460                   000000014012f0c0     pjmedia-codec-x86_64-x64-vc14-debug-dynamic:ilbc.obj
 0003:000051c8       $SG20461                   000000014012f1c8     pjmedia-codec-x86_64-x64-vc14-debug-dynamic:ilbc.obj
 0003:000051f0       $SG20463                   000000014012f1f0     pjmedia-codec-x86_64-x64-vc14-debug-dynamic:ilbc.obj
 0003:000052f8       $SG20464                   000000014012f2f8     pjmedia-codec-x86_64-x64-vc14-debug-dynamic:ilbc.obj
 0003:00005340       $SG20512                   000000014012f340     pjmedia-codec-x86_64-x64-vc14-debug-dynamic:ilbc.obj
 0003:00005448       $SG20513                   000000014012f448     pjmedia-codec-x86_64-x64-vc14-debug-dynamic:ilbc.obj
 0003:00005480       $SG20514                   000000014012f480     pjmedia-codec-x86_64-x64-vc14-debug-dynamic:ilbc.obj
 0003:00005590       $SG20515                   000000014012f590     pjmedia-codec-x86_64-x64-vc14-debug-dynamic:ilbc.obj
 0003:00005620       $SG20518                   000000014012f620     pjmedia-codec-x86_64-x64-vc14-debug-dynamic:ilbc.obj
 0003:00005730       $SG20519                   000000014012f730     pjmedia-codec-x86_64-x64-vc14-debug-dynamic:ilbc.obj
 0003:00005790       $SG20522                   000000014012f790     pjmedia-codec-x86_64-x64-vc14-debug-dynamic:ilbc.obj
 0003:000058a0       $SG20523                   000000014012f8a0     pjmedia-codec-x86_64-x64-vc14-debug-dynamic:ilbc.obj
 0003:000058f0       $SG20526                   000000014012f8f0     pjmedia-codec-x86_64-x64-vc14-debug-dynamic:ilbc.obj
 0003:00005920       $SG20529                   000000014012f920     pjmedia-codec-x86_64-x64-vc14-debug-dynamic:ilbc.obj
 0003:00005940       $SG20540                   000000014012f940     pjmedia-codec-x86_64-x64-vc14-debug-dynamic:ilbc.obj
 0003:00005958       $SG20574                   000000014012f958     pjmedia-codec-x86_64-x64-vc14-debug-dynamic:ilbc.obj
 0003:00005970       $SG20573                   000000014012f970     pjmedia-codec-x86_64-x64-vc14-debug-dynamic:ilbc.obj
 0003:00005a80       $SG20614                   000000014012fa80     pjmedia-codec-x86_64-x64-vc14-debug-dynamic:ilbc.obj
 0003:00005b88       $SG20615                   000000014012fb88     pjmedia-codec-x86_64-x64-vc14-debug-dynamic:ilbc.obj
 0003:00005bd0       $SG20617                   000000014012fbd0     pjmedia-codec-x86_64-x64-vc14-debug-dynamic:ilbc.obj
 0003:00005ce0       $SG20618                   000000014012fce0     pjmedia-codec-x86_64-x64-vc14-debug-dynamic:ilbc.obj
 0003:00005d50       $SG20620                   000000014012fd50     pjmedia-codec-x86_64-x64-vc14-debug-dynamic:ilbc.obj
 0003:00005e60       $SG20621                   000000014012fe60     pjmedia-codec-x86_64-x64-vc14-debug-dynamic:ilbc.obj
 0003:00005f20       $SG20652                   000000014012ff20     pjmedia-codec-x86_64-x64-vc14-debug-dynamic:ilbc.obj
 0003:00006028       $SG20653                   0000000140130028     pjmedia-codec-x86_64-x64-vc14-debug-dynamic:ilbc.obj
 0003:00006060       $SG20656                   0000000140130060     pjmedia-codec-x86_64-x64-vc14-debug-dynamic:ilbc.obj
 0003:00006168       $SG20657                   0000000140130168     pjmedia-codec-x86_64-x64-vc14-debug-dynamic:ilbc.obj
 0003:00006190       $SG20684                   0000000140130190     pjmedia-codec-x86_64-x64-vc14-debug-dynamic:ilbc.obj
 0003:00006298       $SG20685                   0000000140130298     pjmedia-codec-x86_64-x64-vc14-debug-dynamic:ilbc.obj
 0003:000062d0       $SG20687                   00000001401302d0     pjmedia-codec-x86_64-x64-vc14-debug-dynamic:ilbc.obj
 0003:000063d8       $SG20688                   00000001401303d8     pjmedia-codec-x86_64-x64-vc14-debug-dynamic:ilbc.obj
 0003:00006a70       $SG19901                   0000000140130a70     pjmedia-codec-x86_64-x64-vc14-debug-dynamic:l16.obj
 0003:00006a74       $SG20021                   0000000140130a74     pjmedia-codec-x86_64-x64-vc14-debug-dynamic:l16.obj
 0003:00006a78       $SG20023                   0000000140130a78     pjmedia-codec-x86_64-x64-vc14-debug-dynamic:l16.obj
 0003:00006a7c       $SG20103                   0000000140130a7c     pjmedia-codec-x86_64-x64-vc14-debug-dynamic:l16.obj
 0003:00006a80       l16_op                     0000000140130a80     pjmedia-codec-x86_64-x64-vc14-debug-dynamic:l16.obj
 0003:00006ac0       l16_factory_op             0000000140130ac0     pjmedia-codec-x86_64-x64-vc14-debug-dynamic:l16.obj
 0003:00006af0       $SG20101                   0000000140130af0     pjmedia-codec-x86_64-x64-vc14-debug-dynamic:l16.obj
 0003:00006bf8       $SG20102                   0000000140130bf8     pjmedia-codec-x86_64-x64-vc14-debug-dynamic:l16.obj
 0003:00006c30       $SG20127                   0000000140130c30     pjmedia-codec-x86_64-x64-vc14-debug-dynamic:l16.obj
 0003:00006d38       $SG20128                   0000000140130d38     pjmedia-codec-x86_64-x64-vc14-debug-dynamic:l16.obj
 0003:00006d60       $SG20130                   0000000140130d60     pjmedia-codec-x86_64-x64-vc14-debug-dynamic:l16.obj
 0003:00006e68       $SG20131                   0000000140130e68     pjmedia-codec-x86_64-x64-vc14-debug-dynamic:l16.obj
 0003:00006ea0       $SG20132                   0000000140130ea0     pjmedia-codec-x86_64-x64-vc14-debug-dynamic:l16.obj
 0003:00006fa8       $SG20133                   0000000140130fa8     pjmedia-codec-x86_64-x64-vc14-debug-dynamic:l16.obj
 0003:00006fc0       $SG20156                   0000000140130fc0     pjmedia-codec-x86_64-x64-vc14-debug-dynamic:l16.obj
 0003:000070d0       $SG20157                   00000001401310d0     pjmedia-codec-x86_64-x64-vc14-debug-dynamic:l16.obj
 0003:00007120       $SG20172                   0000000140131120     pjmedia-codec-x86_64-x64-vc14-debug-dynamic:l16.obj
 0003:00007228       $SG20173                   0000000140131228     pjmedia-codec-x86_64-x64-vc14-debug-dynamic:l16.obj
 0003:00007250       $SG20200                   0000000140131250     pjmedia-codec-x86_64-x64-vc14-debug-dynamic:l16.obj
 0003:00007358       $SG20201                   0000000140131358     pjmedia-codec-x86_64-x64-vc14-debug-dynamic:l16.obj
 0003:00007370       $SG20229                   0000000140131370     pjmedia-codec-x86_64-x64-vc14-debug-dynamic:l16.obj
 0003:00007478       $SG20230                   0000000140131478     pjmedia-codec-x86_64-x64-vc14-debug-dynamic:l16.obj
 0003:000074b0       $SG20264                   00000001401314b0     pjmedia-codec-x86_64-x64-vc14-debug-dynamic:l16.obj
 0003:000075b8       $SG20265                   00000001401315b8     pjmedia-codec-x86_64-x64-vc14-debug-dynamic:l16.obj
 0003:000075f0       $SG20268                   00000001401315f0     pjmedia-codec-x86_64-x64-vc14-debug-dynamic:l16.obj
 0003:000076f8       $SG20269                   00000001401316f8     pjmedia-codec-x86_64-x64-vc14-debug-dynamic:l16.obj
 0003:00007720       $SG20293                   0000000140131720     pjmedia-codec-x86_64-x64-vc14-debug-dynamic:l16.obj
 0003:00007828       $SG20294                   0000000140131828     pjmedia-codec-x86_64-x64-vc14-debug-dynamic:l16.obj
 0003:00007850       $SG20296                   0000000140131850     pjmedia-codec-x86_64-x64-vc14-debug-dynamic:l16.obj
 0003:00007960       $SG20297                   0000000140131960     pjmedia-codec-x86_64-x64-vc14-debug-dynamic:l16.obj
 0003:00007cb0       $SG20503                   0000000140131cb0     pjmedia-codec-x86_64-x64-vc14-debug-dynamic:opus.obj
 0003:00007cc0       $SG20505                   0000000140131cc0     pjmedia-codec-x86_64-x64-vc14-debug-dynamic:opus.obj
 0003:00007cd8       $SG20507                   0000000140131cd8     pjmedia-codec-x86_64-x64-vc14-debug-dynamic:opus.obj
 0003:00007ce0       $SG20509                   0000000140131ce0     pjmedia-codec-x86_64-x64-vc14-debug-dynamic:opus.obj
 0003:00007cf0       $SG20511                   0000000140131cf0     pjmedia-codec-x86_64-x64-vc14-debug-dynamic:opus.obj
 0003:00007d04       $SG20515                   0000000140131d04     pjmedia-codec-x86_64-x64-vc14-debug-dynamic:opus.obj
 0003:00007d0c       $SG20517                   0000000140131d0c     pjmedia-codec-x86_64-x64-vc14-debug-dynamic:opus.obj
 0003:00007d10       $SG20513                   0000000140131d10     pjmedia-codec-x86_64-x64-vc14-debug-dynamic:opus.obj
 0003:00007d20       opus_op                    0000000140131d20     pjmedia-codec-x86_64-x64-vc14-debug-dynamic:opus.obj
 0003:00007d60       opus_factory_op            0000000140131d60     pjmedia-codec-x86_64-x64-vc14-debug-dynamic:opus.obj
 0003:00007d90       opus_cfg                   0000000140131d90     pjmedia-codec-x86_64-x64-vc14-debug-dynamic:opus.obj
 0003:00007db0       $SG20452                   0000000140131db0     pjmedia-codec-x86_64-x64-vc14-debug-dynamic:opus.obj
 0003:00007eb4       $SG20559                   0000000140131eb4     pjmedia-codec-x86_64-x64-vc14-debug-dynamic:opus.obj
 0003:00007eb8       $SG20453                   0000000140131eb8     pjmedia-codec-x86_64-x64-vc14-debug-dynamic:opus.obj
 0003:00007ec4       $SG20565                   0000000140131ec4     pjmedia-codec-x86_64-x64-vc14-debug-dynamic:opus.obj
 0003:00007ec8       $SG20455                   0000000140131ec8     pjmedia-codec-x86_64-x64-vc14-debug-dynamic:opus.obj
 0003:00007ed8       $SG20458                   0000000140131ed8     pjmedia-codec-x86_64-x64-vc14-debug-dynamic:opus.obj
 0003:00007f04       $SG20459                   0000000140131f04     pjmedia-codec-x86_64-x64-vc14-debug-dynamic:opus.obj
 0003:00007f0c       $SG20569                   0000000140131f0c     pjmedia-codec-x86_64-x64-vc14-debug-dynamic:opus.obj
 0003:00007f10       $SG20462                   0000000140131f10     pjmedia-codec-x86_64-x64-vc14-debug-dynamic:opus.obj
 0003:00007f30       $SG20463                   0000000140131f30     pjmedia-codec-x86_64-x64-vc14-debug-dynamic:opus.obj
 0003:00007f38       $SG20466                   0000000140131f38     pjmedia-codec-x86_64-x64-vc14-debug-dynamic:opus.obj
 0003:00007f60       $SG20467                   0000000140131f60     pjmedia-codec-x86_64-x64-vc14-debug-dynamic:opus.obj
 0003:00007f68       $SG20484                   0000000140131f68     pjmedia-codec-x86_64-x64-vc14-debug-dynamic:opus.obj
 0003:00007f88       $SG20485                   0000000140131f88     pjmedia-codec-x86_64-x64-vc14-debug-dynamic:opus.obj
 0003:00007f90       $SG20488                   0000000140131f90     pjmedia-codec-x86_64-x64-vc14-debug-dynamic:opus.obj
 0003:00007fb8       $SG20489                   0000000140131fb8     pjmedia-codec-x86_64-x64-vc14-debug-dynamic:opus.obj
 0003:00007fc0       $SG20500                   0000000140131fc0     pjmedia-codec-x86_64-x64-vc14-debug-dynamic:opus.obj
 0003:000080c4       $SG20571                   00000001401320c4     pjmedia-codec-x86_64-x64-vc14-debug-dynamic:opus.obj
 0003:000080c8       $SG20501                   00000001401320c8     pjmedia-codec-x86_64-x64-vc14-debug-dynamic:opus.obj
 0003:000080d0       STR_MAX_PLAYBACK           00000001401320d0     pjmedia-codec-x86_64-x64-vc14-debug-dynamic:opus.obj
 0003:000080e0       STR_MAX_CAPTURE            00000001401320e0     pjmedia-codec-x86_64-x64-vc14-debug-dynamic:opus.obj
 0003:000080f0       STR_STEREO                 00000001401320f0     pjmedia-codec-x86_64-x64-vc14-debug-dynamic:opus.obj
 0003:00008100       STR_SPROP_STEREO           0000000140132100     pjmedia-codec-x86_64-x64-vc14-debug-dynamic:opus.obj
 0003:00008110       STR_MAX_BIT_RATE           0000000140132110     pjmedia-codec-x86_64-x64-vc14-debug-dynamic:opus.obj
 0003:00008120       STR_INBAND_FEC             0000000140132120     pjmedia-codec-x86_64-x64-vc14-debug-dynamic:opus.obj
 0003:00008130       STR_DTX                    0000000140132130     pjmedia-codec-x86_64-x64-vc14-debug-dynamic:opus.obj
 0003:00008140       STR_CBR                    0000000140132140     pjmedia-codec-x86_64-x64-vc14-debug-dynamic:opus.obj
 0003:00008150       $SG20575                   0000000140132150     pjmedia-codec-x86_64-x64-vc14-debug-dynamic:opus.obj
 0003:00008154       $SG20579                   0000000140132154     pjmedia-codec-x86_64-x64-vc14-debug-dynamic:opus.obj
 0003:00008158       $SG20583                   0000000140132158     pjmedia-codec-x86_64-x64-vc14-debug-dynamic:opus.obj
 0003:0000815c       $SG20602                   000000014013215c     pjmedia-codec-x86_64-x64-vc14-debug-dynamic:opus.obj
 0003:00008168       $SG20606                   0000000140132168     pjmedia-codec-x86_64-x64-vc14-debug-dynamic:opus.obj
 0003:00008184       $SG20627                   0000000140132184     pjmedia-codec-x86_64-x64-vc14-debug-dynamic:opus.obj
 0003:00008190       $SG20605                   0000000140132190     pjmedia-codec-x86_64-x64-vc14-debug-dynamic:opus.obj
 0003:00008294       $SG20663                   0000000140132294     pjmedia-codec-x86_64-x64-vc14-debug-dynamic:opus.obj
 0003:000082a0       $SG20629                   00000001401322a0     pjmedia-codec-x86_64-x64-vc14-debug-dynamic:opus.obj
 0003:000083a4       $SG20683                   00000001401323a4     pjmedia-codec-x86_64-x64-vc14-debug-dynamic:opus.obj
 0003:000083b0       $SG20630                   00000001401323b0     pjmedia-codec-x86_64-x64-vc14-debug-dynamic:opus.obj
 0003:000083f4       $SG20793                   00000001401323f4     pjmedia-codec-x86_64-x64-vc14-debug-dynamic:opus.obj
 0003:00008400       $SG20660                   0000000140132400     pjmedia-codec-x86_64-x64-vc14-debug-dynamic:opus.obj
 0003:00008508       $SG20661                   0000000140132508     pjmedia-codec-x86_64-x64-vc14-debug-dynamic:opus.obj
 0003:00008518       $SG20685                   0000000140132518     pjmedia-codec-x86_64-x64-vc14-debug-dynamic:opus.obj
 0003:00008528       $SG20708                   0000000140132528     pjmedia-codec-x86_64-x64-vc14-debug-dynamic:opus.obj
 0003:00008550       $SG20707                   0000000140132550     pjmedia-codec-x86_64-x64-vc14-debug-dynamic:opus.obj
 0003:00008654       $SG20804                   0000000140132654     pjmedia-codec-x86_64-x64-vc14-debug-dynamic:opus.obj
 0003:00008660       $SG20710                   0000000140132660     pjmedia-codec-x86_64-x64-vc14-debug-dynamic:opus.obj
 0003:00008764       $SG20807                   0000000140132764     pjmedia-codec-x86_64-x64-vc14-debug-dynamic:opus.obj
 0003:00008770       $SG20711                   0000000140132770     pjmedia-codec-x86_64-x64-vc14-debug-dynamic:opus.obj
 0003:000087b8       $SG20784                   00000001401327b8     pjmedia-codec-x86_64-x64-vc14-debug-dynamic:opus.obj
 0003:000087f0       $SG20783                   00000001401327f0     pjmedia-codec-x86_64-x64-vc14-debug-dynamic:opus.obj
 0003:000088f8       $SG20792                   00000001401328f8     pjmedia-codec-x86_64-x64-vc14-debug-dynamic:opus.obj
 0003:00008920       $SG20803                   0000000140132920     pjmedia-codec-x86_64-x64-vc14-debug-dynamic:opus.obj
 0003:0000893c       $SG20811                   000000014013293c     pjmedia-codec-x86_64-x64-vc14-debug-dynamic:opus.obj
 0003:00008948       $SG20810                   0000000140132948     pjmedia-codec-x86_64-x64-vc14-debug-dynamic:opus.obj
 0003:00008968       $SG20870                   0000000140132968     pjmedia-codec-x86_64-x64-vc14-debug-dynamic:opus.obj
 0003:00008988       $SG20871                   0000000140132988     pjmedia-codec-x86_64-x64-vc14-debug-dynamic:opus.obj
 0003:00008990       $SG20806                   0000000140132990     pjmedia-codec-x86_64-x64-vc14-debug-dynamic:opus.obj
 0003:00008a14       $SG20875                   0000000140132a14     pjmedia-codec-x86_64-x64-vc14-debug-dynamic:opus.obj
 0003:00008a20       $SG20874                   0000000140132a20     pjmedia-codec-x86_64-x64-vc14-debug-dynamic:opus.obj
 0003:00008a38       $SG20879                   0000000140132a38     pjmedia-codec-x86_64-x64-vc14-debug-dynamic:opus.obj
 0003:00008a64       $SG20880                   0000000140132a64     pjmedia-codec-x86_64-x64-vc14-debug-dynamic:opus.obj
 0003:00008a70       $SG20914                   0000000140132a70     pjmedia-codec-x86_64-x64-vc14-debug-dynamic:opus.obj
 0003:00008a84       $SG20915                   0000000140132a84     pjmedia-codec-x86_64-x64-vc14-debug-dynamic:opus.obj
 0003:00008a90       $SG20921                   0000000140132a90     pjmedia-codec-x86_64-x64-vc14-debug-dynamic:opus.obj
 0003:00008ab4       $SG20922                   0000000140132ab4     pjmedia-codec-x86_64-x64-vc14-debug-dynamic:opus.obj
 0003:00008ac0       $SG20957                   0000000140132ac0     pjmedia-codec-x86_64-x64-vc14-debug-dynamic:opus.obj
 0003:00008ad0       $SG20958                   0000000140132ad0     pjmedia-codec-x86_64-x64-vc14-debug-dynamic:opus.obj
 0003:00008ad8       $SG20988                   0000000140132ad8     pjmedia-codec-x86_64-x64-vc14-debug-dynamic:opus.obj
 0003:00008ae8       $SG20989                   0000000140132ae8     pjmedia-codec-x86_64-x64-vc14-debug-dynamic:opus.obj
 0003:00008dd0       spx_op                     0000000140132dd0     pjmedia-codec-x86_64-x64-vc14-debug-dynamic:speex_codec.obj
 0003:00008e10       spx_factory_op             0000000140132e10     pjmedia-codec-x86_64-x64-vc14-debug-dynamic:speex_codec.obj
 0003:00008e40       $SG20405                   0000000140132e40     pjmedia-codec-x86_64-x64-vc14-debug-dynamic:speex_codec.obj
 0003:00008f58       $SG20406                   0000000140132f58     pjmedia-codec-x86_64-x64-vc14-debug-dynamic:speex_codec.obj
 0003:00008f94       $SG20411                   0000000140132f94     pjmedia-codec-x86_64-x64-vc14-debug-dynamic:speex_codec.obj
 0003:00008fa0       $SG20409                   0000000140132fa0     pjmedia-codec-x86_64-x64-vc14-debug-dynamic:speex_codec.obj
 0003:000090b4       $SG20413                   00000001401330b4     pjmedia-codec-x86_64-x64-vc14-debug-dynamic:speex_codec.obj
 0003:000090c0       $SG20410                   00000001401330c0     pjmedia-codec-x86_64-x64-vc14-debug-dynamic:speex_codec.obj
 0003:00009108       $SG20417                   0000000140133108     pjmedia-codec-x86_64-x64-vc14-debug-dynamic:speex_codec.obj
 0003:00009128       $SG20418                   0000000140133128     pjmedia-codec-x86_64-x64-vc14-debug-dynamic:speex_codec.obj
 0003:00009138       $SG20462                   0000000140133138     pjmedia-codec-x86_64-x64-vc14-debug-dynamic:speex_codec.obj
 0003:00009158       $SG20486                   0000000140133158     pjmedia-codec-x86_64-x64-vc14-debug-dynamic:speex_codec.obj
 0003:00009160       $SG20453                   0000000140133160     pjmedia-codec-x86_64-x64-vc14-debug-dynamic:speex_codec.obj
 0003:00009278       $SG20454                   0000000140133278     pjmedia-codec-x86_64-x64-vc14-debug-dynamic:speex_codec.obj
 0003:000092b4       $SG20536                   00000001401332b4     pjmedia-codec-x86_64-x64-vc14-debug-dynamic:speex_codec.obj
 0003:000092c0       $SG20457                   00000001401332c0     pjmedia-codec-x86_64-x64-vc14-debug-dynamic:speex_codec.obj
 0003:000093d8       $SG20463                   00000001401333d8     pjmedia-codec-x86_64-x64-vc14-debug-dynamic:speex_codec.obj
 0003:000093e8       $SG20507                   00000001401333e8     pjmedia-codec-x86_64-x64-vc14-debug-dynamic:speex_codec.obj
 0003:00009420       $SG20458                   0000000140133420     pjmedia-codec-x86_64-x64-vc14-debug-dynamic:speex_codec.obj
 0003:00009468       $SG20572                   0000000140133468     pjmedia-codec-x86_64-x64-vc14-debug-dynamic:speex_codec.obj
 0003:000094a0       $SG20506                   00000001401334a0     pjmedia-codec-x86_64-x64-vc14-debug-dynamic:speex_codec.obj
 0003:000095b8       $SG20607                   00000001401335b8     pjmedia-codec-x86_64-x64-vc14-debug-dynamic:speex_codec.obj
 0003:000095e0       $SG20533                   00000001401335e0     pjmedia-codec-x86_64-x64-vc14-debug-dynamic:speex_codec.obj
 0003:000096f8       $SG20534                   00000001401336f8     pjmedia-codec-x86_64-x64-vc14-debug-dynamic:speex_codec.obj
 0003:00009728       $SG20790                   0000000140133728     pjmedia-codec-x86_64-x64-vc14-debug-dynamic:speex_codec.obj
 0003:00009760       $SG20571                   0000000140133760     pjmedia-codec-x86_64-x64-vc14-debug-dynamic:speex_codec.obj
 0003:00009880       $SG20574                   0000000140133880     pjmedia-codec-x86_64-x64-vc14-debug-dynamic:speex_codec.obj
 0003:00009998       $SG20575                   0000000140133998     pjmedia-codec-x86_64-x64-vc14-debug-dynamic:speex_codec.obj
 0003:000099e0       $SG20579                   00000001401339e0     pjmedia-codec-x86_64-x64-vc14-debug-dynamic:speex_codec.obj
 0003:00009af8       $SG20580                   0000000140133af8     pjmedia-codec-x86_64-x64-vc14-debug-dynamic:speex_codec.obj
 0003:00009b30       $SG20606                   0000000140133b30     pjmedia-codec-x86_64-x64-vc14-debug-dynamic:speex_codec.obj
 0003:00009c50       $SG20609                   0000000140133c50     pjmedia-codec-x86_64-x64-vc14-debug-dynamic:speex_codec.obj
 0003:00009d68       $SG20610                   0000000140133d68     pjmedia-codec-x86_64-x64-vc14-debug-dynamic:speex_codec.obj
 0003:00009db0       $SG20744                   0000000140133db0     pjmedia-codec-x86_64-x64-vc14-debug-dynamic:speex_codec.obj
 0003:00009ed0       $SG20745                   0000000140133ed0     pjmedia-codec-x86_64-x64-vc14-debug-dynamic:speex_codec.obj
 0003:00009f20       $SG20747                   0000000140133f20     pjmedia-codec-x86_64-x64-vc14-debug-dynamic:speex_codec.obj
 0003:0000a040       $SG20748                   0000000140134040     pjmedia-codec-x86_64-x64-vc14-debug-dynamic:speex_codec.obj
 0003:0000a0c0       $SG20771                   00000001401340c0     pjmedia-codec-x86_64-x64-vc14-debug-dynamic:speex_codec.obj
 0003:0000a1e0       $SG20772                   00000001401341e0     pjmedia-codec-x86_64-x64-vc14-debug-dynamic:speex_codec.obj
 0003:0000a240       $SG20789                   0000000140134240     pjmedia-codec-x86_64-x64-vc14-debug-dynamic:speex_codec.obj
 0003:0000a7a0       $SG19700                   00000001401347a0     pjmedia-codec-x86_64-x64-vc14-debug-dynamic:g722_enc.obj
 0003:0000a8b8       $SG19701                   00000001401348b8     pjmedia-codec-x86_64-x64-vc14-debug-dynamic:g722_enc.obj
 0003:0000a8c0       $SG19743                   00000001401348c0     pjmedia-codec-x86_64-x64-vc14-debug-dynamic:g722_enc.obj
 0003:0000a9e0       $SG19744                   00000001401349e0     pjmedia-codec-x86_64-x64-vc14-debug-dynamic:g722_enc.obj
 0003:0000aa40       $SG19746                   0000000140134a40     pjmedia-codec-x86_64-x64-vc14-debug-dynamic:g722_enc.obj
 0003:0000ab58       $SG19747                   0000000140134b58     pjmedia-codec-x86_64-x64-vc14-debug-dynamic:g722_enc.obj
 0003:0000ab80       $SG19749                   0000000140134b80     pjmedia-codec-x86_64-x64-vc14-debug-dynamic:g722_enc.obj
 0003:0000ac98       $SG19750                   0000000140134c98     pjmedia-codec-x86_64-x64-vc14-debug-dynamic:g722_enc.obj
 0003:0000ade0       $SG19678                   0000000140134de0     pjmedia-codec-x86_64-x64-vc14-debug-dynamic:g722_dec.obj
 0003:0000aef8       $SG19679                   0000000140134ef8     pjmedia-codec-x86_64-x64-vc14-debug-dynamic:g722_dec.obj
 0003:0000af00       $SG19720                   0000000140134f00     pjmedia-codec-x86_64-x64-vc14-debug-dynamic:g722_dec.obj
 0003:0000b020       $SG19721                   0000000140135020     pjmedia-codec-x86_64-x64-vc14-debug-dynamic:g722_dec.obj
 0003:0000b070       $SG19723                   0000000140135070     pjmedia-codec-x86_64-x64-vc14-debug-dynamic:g722_dec.obj
 0003:0000b188       $SG19724                   0000000140135188     pjmedia-codec-x86_64-x64-vc14-debug-dynamic:g722_dec.obj
 0003:0000b290       $SG15485                   0000000140135290     pjmedia-audiodev-x86_64-x64-vc14-debug-dynamic:audiodev.obj
 0003:0000b3a8       $SG15486                   00000001401353a8     pjmedia-audiodev-x86_64-x64-vc14-debug-dynamic:audiodev.obj
 0003:0000b420       $SG61333                   0000000140135420     pjmedia-audiodev-x86_64-x64-vc14-debug-dynamic:errno.obj
 0003:0000b458       $SG61334                   0000000140135458     pjmedia-audiodev-x86_64-x64-vc14-debug-dynamic:errno.obj
 0003:0000b490       $SG61335                   0000000140135490     pjmedia-audiodev-x86_64-x64-vc14-debug-dynamic:errno.obj
 0003:0000b4c8       $SG61336                   00000001401354c8     pjmedia-audiodev-x86_64-x64-vc14-debug-dynamic:errno.obj
 0003:0000b4f8       $SG61337                   00000001401354f8     pjmedia-audiodev-x86_64-x64-vc14-debug-dynamic:errno.obj
 0003:0000b528       $SG61338                   0000000140135528     pjmedia-audiodev-x86_64-x64-vc14-debug-dynamic:errno.obj
 0003:0000b568       $SG61339                   0000000140135568     pjmedia-audiodev-x86_64-x64-vc14-debug-dynamic:errno.obj
 0003:0000b598       $SG61340                   0000000140135598     pjmedia-audiodev-x86_64-x64-vc14-debug-dynamic:errno.obj
 0003:0000b5e0       $SG61341                   00000001401355e0     pjmedia-audiodev-x86_64-x64-vc14-debug-dynamic:errno.obj
 0003:0000b628       $SG61342                   0000000140135628     pjmedia-audiodev-x86_64-x64-vc14-debug-dynamic:errno.obj
 0003:0000b668       $SG61343                   0000000140135668     pjmedia-audiodev-x86_64-x64-vc14-debug-dynamic:errno.obj
 0003:0000b6a8       $SG61344                   00000001401356a8     pjmedia-audiodev-x86_64-x64-vc14-debug-dynamic:errno.obj
 0003:0000b6e0       $SG61380                   00000001401356e0     pjmedia-audiodev-x86_64-x64-vc14-debug-dynamic:errno.obj
 0003:0000b700       $SG61387                   0000000140135700     pjmedia-audiodev-x86_64-x64-vc14-debug-dynamic:errno.obj
 0003:0000b7c0       factory_op                 00000001401357c0     pjmedia-audiodev-x86_64-x64-vc14-debug-dynamic:wmme_dev.obj
 0003:0000b7f8       stream_op                  00000001401357f8     pjmedia-audiodev-x86_64-x64-vc14-debug-dynamic:wmme_dev.obj
 0003:0000b828       $SG67699                   0000000140135828     pjmedia-audiodev-x86_64-x64-vc14-debug-dynamic:wmme_dev.obj
 0003:0000b838       $SG67722                   0000000140135838     pjmedia-audiodev-x86_64-x64-vc14-debug-dynamic:wmme_dev.obj
 0003:0000b844       $SG67723                   0000000140135844     pjmedia-audiodev-x86_64-x64-vc14-debug-dynamic:wmme_dev.obj
 0003:0000b84c       $SG67910                   000000014013584c     pjmedia-audiodev-x86_64-x64-vc14-debug-dynamic:wmme_dev.obj
 0003:0000b850       $SG67740                   0000000140135850     pjmedia-audiodev-x86_64-x64-vc14-debug-dynamic:wmme_dev.obj
 0003:0000b868       $SG67741                   0000000140135868     pjmedia-audiodev-x86_64-x64-vc14-debug-dynamic:wmme_dev.obj
 0003:0000b874       $SG67807                   0000000140135874     pjmedia-audiodev-x86_64-x64-vc14-debug-dynamic:wmme_dev.obj
 0003:0000b880       $SG67811                   0000000140135880     pjmedia-audiodev-x86_64-x64-vc14-debug-dynamic:wmme_dev.obj
 0003:0000b8a0       $SG67812                   00000001401358a0     pjmedia-audiodev-x86_64-x64-vc14-debug-dynamic:wmme_dev.obj
 0003:0000b8b0       $SG67824                   00000001401358b0     pjmedia-audiodev-x86_64-x64-vc14-debug-dynamic:wmme_dev.obj
 0003:0000b8c8       $SG67825                   00000001401358c8     pjmedia-audiodev-x86_64-x64-vc14-debug-dynamic:wmme_dev.obj
 0003:0000b8d8       $SG67827                   00000001401358d8     pjmedia-audiodev-x86_64-x64-vc14-debug-dynamic:wmme_dev.obj
 0003:0000b8f8       $SG67828                   00000001401358f8     pjmedia-audiodev-x86_64-x64-vc14-debug-dynamic:wmme_dev.obj
 0003:0000b908       $SG67857                   0000000140135908     pjmedia-audiodev-x86_64-x64-vc14-debug-dynamic:wmme_dev.obj
 0003:0000b934       $SG68219                   0000000140135934     pjmedia-audiodev-x86_64-x64-vc14-debug-dynamic:wmme_dev.obj
 0003:0000b940       $SG67856                   0000000140135940     pjmedia-audiodev-x86_64-x64-vc14-debug-dynamic:wmme_dev.obj
 0003:0000ba58       $SG67875                   0000000140135a58     pjmedia-audiodev-x86_64-x64-vc14-debug-dynamic:wmme_dev.obj
 0003:0000ba90       $SG67874                   0000000140135a90     pjmedia-audiodev-x86_64-x64-vc14-debug-dynamic:wmme_dev.obj
 0003:0000bbb0       $SG67957                   0000000140135bb0     pjmedia-audiodev-x86_64-x64-vc14-debug-dynamic:wmme_dev.obj
 0003:0000bcd0       $SG67958                   0000000140135cd0     pjmedia-audiodev-x86_64-x64-vc14-debug-dynamic:wmme_dev.obj
 0003:0000bd20       $SG67967                   0000000140135d20     pjmedia-audiodev-x86_64-x64-vc14-debug-dynamic:wmme_dev.obj
 0003:0000bd98       $SG67968                   0000000140135d98     pjmedia-audiodev-x86_64-x64-vc14-debug-dynamic:wmme_dev.obj
 0003:0000bdb0       $SG68013                   0000000140135db0     pjmedia-audiodev-x86_64-x64-vc14-debug-dynamic:wmme_dev.obj
 0003:0000bed0       $SG68014                   0000000140135ed0     pjmedia-audiodev-x86_64-x64-vc14-debug-dynamic:wmme_dev.obj
 0003:0000bf20       $SG68021                   0000000140135f20     pjmedia-audiodev-x86_64-x64-vc14-debug-dynamic:wmme_dev.obj
 0003:0000bf98       $SG68022                   0000000140135f98     pjmedia-audiodev-x86_64-x64-vc14-debug-dynamic:wmme_dev.obj
 0003:0000bfa8       $SG68124                   0000000140135fa8     pjmedia-audiodev-x86_64-x64-vc14-debug-dynamic:wmme_dev.obj
 0003:0000bfd0       $SG68125                   0000000140135fd0     pjmedia-audiodev-x86_64-x64-vc14-debug-dynamic:wmme_dev.obj
 0003:0000c0e8       $SG68126                   00000001401360e8     pjmedia-audiodev-x86_64-x64-vc14-debug-dynamic:wmme_dev.obj
 0003:0000c120       $SG68129                   0000000140136120     pjmedia-audiodev-x86_64-x64-vc14-debug-dynamic:wmme_dev.obj
 0003:0000c140       $SG68130                   0000000140136140     pjmedia-audiodev-x86_64-x64-vc14-debug-dynamic:wmme_dev.obj
 0003:0000c258       $SG68131                   0000000140136258     pjmedia-audiodev-x86_64-x64-vc14-debug-dynamic:wmme_dev.obj
 0003:0000c290       $SG68137                   0000000140136290     pjmedia-audiodev-x86_64-x64-vc14-debug-dynamic:wmme_dev.obj
 0003:0000c2b0       $SG68138                   00000001401362b0     pjmedia-audiodev-x86_64-x64-vc14-debug-dynamic:wmme_dev.obj
 0003:0000c3c8       $SG68139                   00000001401363c8     pjmedia-audiodev-x86_64-x64-vc14-debug-dynamic:wmme_dev.obj
 0003:0000c400       $SG68141                   0000000140136400     pjmedia-audiodev-x86_64-x64-vc14-debug-dynamic:wmme_dev.obj
 0003:0000c430       $SG68142                   0000000140136430     pjmedia-audiodev-x86_64-x64-vc14-debug-dynamic:wmme_dev.obj
 0003:0000c440       $SG68148                   0000000140136440     pjmedia-audiodev-x86_64-x64-vc14-debug-dynamic:wmme_dev.obj
 0003:0000c460       $SG68149                   0000000140136460     pjmedia-audiodev-x86_64-x64-vc14-debug-dynamic:wmme_dev.obj
 0003:0000c470       $SG68153                   0000000140136470     pjmedia-audiodev-x86_64-x64-vc14-debug-dynamic:wmme_dev.obj
 0003:0000c488       $SG68154                   0000000140136488     pjmedia-audiodev-x86_64-x64-vc14-debug-dynamic:wmme_dev.obj
 0003:0000c498       $SG68156                   0000000140136498     pjmedia-audiodev-x86_64-x64-vc14-debug-dynamic:wmme_dev.obj
 0003:0000c4c0       $SG68157                   00000001401364c0     pjmedia-audiodev-x86_64-x64-vc14-debug-dynamic:wmme_dev.obj
 0003:0000c4d0       $SG68158                   00000001401364d0     pjmedia-audiodev-x86_64-x64-vc14-debug-dynamic:wmme_dev.obj
 0003:0000c5f0       $SG68159                   00000001401365f0     pjmedia-audiodev-x86_64-x64-vc14-debug-dynamic:wmme_dev.obj
 0003:0000c638       $SG68206                   0000000140136638     pjmedia-audiodev-x86_64-x64-vc14-debug-dynamic:wmme_dev.obj
 0003:0000c650       $SG68208                   0000000140136650     pjmedia-audiodev-x86_64-x64-vc14-debug-dynamic:wmme_dev.obj
 0003:0000c768       $SG68209                   0000000140136768     pjmedia-audiodev-x86_64-x64-vc14-debug-dynamic:wmme_dev.obj
 0003:0000c790       $SG68236                   0000000140136790     pjmedia-audiodev-x86_64-x64-vc14-debug-dynamic:wmme_dev.obj
 0003:0000c8a8       $SG68237                   00000001401368a8     pjmedia-audiodev-x86_64-x64-vc14-debug-dynamic:wmme_dev.obj
 0003:0000c8c0       $SG68261                   00000001401368c0     pjmedia-audiodev-x86_64-x64-vc14-debug-dynamic:wmme_dev.obj
 0003:0000c9d8       $SG68262                   00000001401369d8     pjmedia-audiodev-x86_64-x64-vc14-debug-dynamic:wmme_dev.obj
 0003:0000c9f0       $SG68293                   00000001401369f0     pjmedia-audiodev-x86_64-x64-vc14-debug-dynamic:wmme_dev.obj
 0003:0000cb08       $SG68294                   0000000140136b08     pjmedia-audiodev-x86_64-x64-vc14-debug-dynamic:wmme_dev.obj
 0003:0000cb20       $SG68317                   0000000140136b20     pjmedia-audiodev-x86_64-x64-vc14-debug-dynamic:wmme_dev.obj
 0003:0000cb40       $SG68318                   0000000140136b40     pjmedia-audiodev-x86_64-x64-vc14-debug-dynamic:wmme_dev.obj
 0003:0000cb50       $SG68322                   0000000140136b50     pjmedia-audiodev-x86_64-x64-vc14-debug-dynamic:wmme_dev.obj
 0003:0000cb70       $SG68323                   0000000140136b70     pjmedia-audiodev-x86_64-x64-vc14-debug-dynamic:wmme_dev.obj
 0003:0000cb80       $SG68348                   0000000140136b80     pjmedia-audiodev-x86_64-x64-vc14-debug-dynamic:wmme_dev.obj
 0003:0000cc98       $SG68349                   0000000140136c98     pjmedia-audiodev-x86_64-x64-vc14-debug-dynamic:wmme_dev.obj
 0003:0000ccc8       $SG68353                   0000000140136cc8     pjmedia-audiodev-x86_64-x64-vc14-debug-dynamic:wmme_dev.obj
 0003:0000cce8       $SG68354                   0000000140136ce8     pjmedia-audiodev-x86_64-x64-vc14-debug-dynamic:wmme_dev.obj
 0003:0000ccf8       $SG68358                   0000000140136cf8     pjmedia-audiodev-x86_64-x64-vc14-debug-dynamic:wmme_dev.obj
 0003:0000cd18       $SG68359                   0000000140136d18     pjmedia-audiodev-x86_64-x64-vc14-debug-dynamic:wmme_dev.obj
 0003:0000cd30       $SG68388                   0000000140136d30     pjmedia-audiodev-x86_64-x64-vc14-debug-dynamic:wmme_dev.obj
 0003:0000ce48       $SG68389                   0000000140136e48     pjmedia-audiodev-x86_64-x64-vc14-debug-dynamic:wmme_dev.obj
 0003:0000d300       $SG19013                   0000000140137300     pjmedia-x86_64-x64-vc14-debug-dynamic:port.obj
 0003:0000d3f8       $SG19014                   00000001401373f8     pjmedia-x86_64-x64-vc14-debug-dynamic:port.obj
 0003:0000d430       $SG19046                   0000000140137430     pjmedia-x86_64-x64-vc14-debug-dynamic:port.obj
 0003:0000d528       $SG19047                   0000000140137528     pjmedia-x86_64-x64-vc14-debug-dynamic:port.obj
 0003:0000d550       $SG19062                   0000000140137550     pjmedia-x86_64-x64-vc14-debug-dynamic:port.obj
 0003:0000d648       $SG19063                   0000000140137648     pjmedia-x86_64-x64-vc14-debug-dynamic:port.obj
 0003:0000d670       $SG19076                   0000000140137670     pjmedia-x86_64-x64-vc14-debug-dynamic:port.obj
 0003:0000d768       $SG19077                   0000000140137768     pjmedia-x86_64-x64-vc14-debug-dynamic:port.obj
 0003:0000d860       $SG19404                   0000000140137860     pjmedia-x86_64-x64-vc14-debug-dynamic:codec.obj
 0003:0000d960       $SG19405                   0000000140137960     pjmedia-x86_64-x64-vc14-debug-dynamic:codec.obj
 0003:0000d978       $SG19422                   0000000140137978     pjmedia-x86_64-x64-vc14-debug-dynamic:codec.obj
 0003:0000d990       $SG19421                   0000000140137990     pjmedia-x86_64-x64-vc14-debug-dynamic:codec.obj
 0003:0000da90       $SG19423                   0000000140137a90     pjmedia-x86_64-x64-vc14-debug-dynamic:codec.obj
 0003:0000daa0       $SG19424                   0000000140137aa0     pjmedia-x86_64-x64-vc14-debug-dynamic:codec.obj
 0003:0000dab0       $SG19446                   0000000140137ab0     pjmedia-x86_64-x64-vc14-debug-dynamic:codec.obj
 0003:0000dbb0       $SG19447                   0000000140137bb0     pjmedia-x86_64-x64-vc14-debug-dynamic:codec.obj
 0003:0000dbb8       $SG19731                   0000000140137bb8     pjmedia-x86_64-x64-vc14-debug-dynamic:codec.obj
 0003:0000dbf0       $SG19449                   0000000140137bf0     pjmedia-x86_64-x64-vc14-debug-dynamic:codec.obj
 0003:0000dcf0       $SG19450                   0000000140137cf0     pjmedia-x86_64-x64-vc14-debug-dynamic:codec.obj
 0003:0000dd30       $SG19481                   0000000140137d30     pjmedia-x86_64-x64-vc14-debug-dynamic:codec.obj
 0003:0000de30       $SG19482                   0000000140137e30     pjmedia-x86_64-x64-vc14-debug-dynamic:codec.obj
 0003:0000de50       $SG19484                   0000000140137e50     pjmedia-x86_64-x64-vc14-debug-dynamic:codec.obj
 0003:0000df50       $SG19485                   0000000140137f50     pjmedia-x86_64-x64-vc14-debug-dynamic:codec.obj
 0003:0000df98       $SG19770                   0000000140137f98     pjmedia-x86_64-x64-vc14-debug-dynamic:codec.obj
 0003:0000dfb0       $SG19506                   0000000140137fb0     pjmedia-x86_64-x64-vc14-debug-dynamic:codec.obj
 0003:0000e0b0       $SG19507                   00000001401380b0     pjmedia-x86_64-x64-vc14-debug-dynamic:codec.obj
 0003:0000e0d0       $SG19512                   00000001401380d0     pjmedia-x86_64-x64-vc14-debug-dynamic:codec.obj
 0003:0000e1d0       $SG19513                   00000001401381d0     pjmedia-x86_64-x64-vc14-debug-dynamic:codec.obj
 0003:0000e210       $SG19538                   0000000140138210     pjmedia-x86_64-x64-vc14-debug-dynamic:codec.obj
 0003:0000e310       $SG19539                   0000000140138310     pjmedia-x86_64-x64-vc14-debug-dynamic:codec.obj
 0003:0000e340       $SG19560                   0000000140138340     pjmedia-x86_64-x64-vc14-debug-dynamic:codec.obj
 0003:0000e440       $SG19561                   0000000140138440     pjmedia-x86_64-x64-vc14-debug-dynamic:codec.obj
 0003:0000e488       $SG19669                   0000000140138488     pjmedia-x86_64-x64-vc14-debug-dynamic:codec.obj
 0003:0000e4b0       $SG19582                   00000001401384b0     pjmedia-x86_64-x64-vc14-debug-dynamic:codec.obj
 0003:0000e5b0       $SG19583                   00000001401385b0     pjmedia-x86_64-x64-vc14-debug-dynamic:codec.obj
 0003:0000e5e0       $SG19584                   00000001401385e0     pjmedia-x86_64-x64-vc14-debug-dynamic:codec.obj
 0003:0000e5f0       $SG19610                   00000001401385f0     pjmedia-x86_64-x64-vc14-debug-dynamic:codec.obj
 0003:0000e6f0       $SG19611                   00000001401386f0     pjmedia-x86_64-x64-vc14-debug-dynamic:codec.obj
 0003:0000e740       $SG19668                   0000000140138740     pjmedia-x86_64-x64-vc14-debug-dynamic:codec.obj
 0003:0000e840       $SG19692                   0000000140138840     pjmedia-x86_64-x64-vc14-debug-dynamic:codec.obj
 0003:0000e940       $SG19693                   0000000140138940     pjmedia-x86_64-x64-vc14-debug-dynamic:codec.obj
 0003:0000e970       $SG19725                   0000000140138970     pjmedia-x86_64-x64-vc14-debug-dynamic:codec.obj
 0003:0000ea70       $SG19726                   0000000140138a70     pjmedia-x86_64-x64-vc14-debug-dynamic:codec.obj
 0003:0000eaa0       $SG19730                   0000000140138aa0     pjmedia-x86_64-x64-vc14-debug-dynamic:codec.obj
 0003:0000eba0       $SG19769                   0000000140138ba0     pjmedia-x86_64-x64-vc14-debug-dynamic:codec.obj
 0003:0000eca0       $SG19775                   0000000140138ca0     pjmedia-x86_64-x64-vc14-debug-dynamic:codec.obj
 0003:0000eda0       $SG19776                   0000000140138da0     pjmedia-x86_64-x64-vc14-debug-dynamic:codec.obj
 0003:0000edd0       $SG19793                   0000000140138dd0     pjmedia-x86_64-x64-vc14-debug-dynamic:codec.obj
 0003:0000eed0       $SG19794                   0000000140138ed0     pjmedia-x86_64-x64-vc14-debug-dynamic:codec.obj
 0003:0000f370       $SG20510                   0000000140139370     pjmedia-x86_64-x64-vc14-debug-dynamic:endpoint.obj
 0003:0000f374       $SG20512                   0000000140139374     pjmedia-x86_64-x64-vc14-debug-dynamic:endpoint.obj
 0003:0000f378       $SG20514                   0000000140139378     pjmedia-x86_64-x64-vc14-debug-dynamic:endpoint.obj
 0003:0000f380       $SG20516                   0000000140139380     pjmedia-x86_64-x64-vc14-debug-dynamic:endpoint.obj
 0003:0000f388       $SG20518                   0000000140139388     pjmedia-x86_64-x64-vc14-debug-dynamic:endpoint.obj
 0003:0000f390       $SG20520                   0000000140139390     pjmedia-x86_64-x64-vc14-debug-dynamic:endpoint.obj
 0003:0000f3a0       $SG20580                   00000001401393a0     pjmedia-x86_64-x64-vc14-debug-dynamic:endpoint.obj
 0003:0000f4a0       $SG20581                   00000001401394a0     pjmedia-x86_64-x64-vc14-debug-dynamic:endpoint.obj
 0003:0000f4d0       $SG20584                   00000001401394d0     pjmedia-x86_64-x64-vc14-debug-dynamic:endpoint.obj
 0003:0000f5d0       $SG20585                   00000001401395d0     pjmedia-x86_64-x64-vc14-debug-dynamic:endpoint.obj
 0003:0000f5f0       $SG20587                   00000001401395f0     pjmedia-x86_64-x64-vc14-debug-dynamic:endpoint.obj
 0003:0000f6f0       $SG20588                   00000001401396f0     pjmedia-x86_64-x64-vc14-debug-dynamic:endpoint.obj
 0003:0000f714       $SG20882                   0000000140139714     pjmedia-x86_64-x64-vc14-debug-dynamic:endpoint.obj
 0003:0000f718       $SG20589                   0000000140139718     pjmedia-x86_64-x64-vc14-debug-dynamic:endpoint.obj
 0003:0000f720       $SG20596                   0000000140139720     pjmedia-x86_64-x64-vc14-debug-dynamic:endpoint.obj
 0003:0000f76c       $SG20884                   000000014013976c     pjmedia-x86_64-x64-vc14-debug-dynamic:endpoint.obj
 0003:0000f770       $SG20597                   0000000140139770     pjmedia-x86_64-x64-vc14-debug-dynamic:endpoint.obj
 0003:0000f77c       $SG20598                   000000014013977c     pjmedia-x86_64-x64-vc14-debug-dynamic:endpoint.obj
 0003:0000f788       $SG20631                   0000000140139788     pjmedia-x86_64-x64-vc14-debug-dynamic:endpoint.obj
 0003:0000f794       $SG20857                   0000000140139794     pjmedia-x86_64-x64-vc14-debug-dynamic:endpoint.obj
 0003:0000f7a0       $SG20630                   00000001401397a0     pjmedia-x86_64-x64-vc14-debug-dynamic:endpoint.obj
 0003:0000f8a0       $SG20650                   00000001401398a0     pjmedia-x86_64-x64-vc14-debug-dynamic:endpoint.obj
 0003:0000f9a0       $SG20651                   00000001401399a0     pjmedia-x86_64-x64-vc14-debug-dynamic:endpoint.obj
 0003:0000f9b0       $SG20664                   00000001401399b0     pjmedia-x86_64-x64-vc14-debug-dynamic:endpoint.obj
 0003:0000fab0       $SG20665                   0000000140139ab0     pjmedia-x86_64-x64-vc14-debug-dynamic:endpoint.obj
 0003:0000fac0       $SG20675                   0000000140139ac0     pjmedia-x86_64-x64-vc14-debug-dynamic:endpoint.obj
 0003:0000fbc0       $SG20676                   0000000140139bc0     pjmedia-x86_64-x64-vc14-debug-dynamic:endpoint.obj
 0003:0000fbd0       $SG20695                   0000000140139bd0     pjmedia-x86_64-x64-vc14-debug-dynamic:endpoint.obj
 0003:0000fcd0       $SG20696                   0000000140139cd0     pjmedia-x86_64-x64-vc14-debug-dynamic:endpoint.obj
 0003:0000fce0       $SG20698                   0000000140139ce0     pjmedia-x86_64-x64-vc14-debug-dynamic:endpoint.obj
 0003:0000fde0       $SG20699                   0000000140139de0     pjmedia-x86_64-x64-vc14-debug-dynamic:endpoint.obj
 0003:0000fe14       $SG20885                   0000000140139e14     pjmedia-x86_64-x64-vc14-debug-dynamic:endpoint.obj
 0003:0000fe18       $SG20889                   0000000140139e18     pjmedia-x86_64-x64-vc14-debug-dynamic:endpoint.obj
 0003:0000fe20       $SG20714                   0000000140139e20     pjmedia-x86_64-x64-vc14-debug-dynamic:endpoint.obj
 0003:0000ff20       $SG20715                   0000000140139f20     pjmedia-x86_64-x64-vc14-debug-dynamic:endpoint.obj
 0003:0000ff30       $SG20738                   0000000140139f30     pjmedia-x86_64-x64-vc14-debug-dynamic:endpoint.obj
 0003:00010030       $SG20739                   000000014013a030     pjmedia-x86_64-x64-vc14-debug-dynamic:endpoint.obj
 0003:00010060       $SG20763                   000000014013a060     pjmedia-x86_64-x64-vc14-debug-dynamic:endpoint.obj
 0003:00010160       $SG20764                   000000014013a160     pjmedia-x86_64-x64-vc14-debug-dynamic:endpoint.obj
 0003:000101f4       $SG20890                   000000014013a1f4     pjmedia-x86_64-x64-vc14-debug-dynamic:endpoint.obj
 0003:00010200       $SG20859                   000000014013a200     pjmedia-x86_64-x64-vc14-debug-dynamic:endpoint.obj
 0003:00010300       $SG20860                   000000014013a300     pjmedia-x86_64-x64-vc14-debug-dynamic:endpoint.obj
 0003:00010344       $SG20907                   000000014013a344     pjmedia-x86_64-x64-vc14-debug-dynamic:endpoint.obj
 0003:00010348       $SG20869                   000000014013a348     pjmedia-x86_64-x64-vc14-debug-dynamic:endpoint.obj
 0003:00010384       $SG20942                   000000014013a384     pjmedia-x86_64-x64-vc14-debug-dynamic:endpoint.obj
 0003:00010388       $SG20870                   000000014013a388     pjmedia-x86_64-x64-vc14-debug-dynamic:endpoint.obj
 0003:00010398       $SG20905                   000000014013a398     pjmedia-x86_64-x64-vc14-debug-dynamic:endpoint.obj
 0003:000103d8       $SG20908                   000000014013a3d8     pjmedia-x86_64-x64-vc14-debug-dynamic:endpoint.obj
 0003:000103e0       $SG20876                   000000014013a3e0     pjmedia-x86_64-x64-vc14-debug-dynamic:endpoint.obj
 0003:000104e0       $SG20877                   000000014013a4e0     pjmedia-x86_64-x64-vc14-debug-dynamic:endpoint.obj
 0003:0001051c       $SG20995                   000000014013a51c     pjmedia-x86_64-x64-vc14-debug-dynamic:endpoint.obj
 0003:00010520       $SG20888                   000000014013a520     pjmedia-x86_64-x64-vc14-debug-dynamic:endpoint.obj
 0003:0001052c       $SG20998                   000000014013a52c     pjmedia-x86_64-x64-vc14-debug-dynamic:endpoint.obj
 0003:00010538       $SG20906                   000000014013a538     pjmedia-x86_64-x64-vc14-debug-dynamic:endpoint.obj
 0003:00010548       $SG20909                   000000014013a548     pjmedia-x86_64-x64-vc14-debug-dynamic:endpoint.obj
 0003:00010560       $SG20910                   000000014013a560     pjmedia-x86_64-x64-vc14-debug-dynamic:endpoint.obj
 0003:00010568       $SG20911                   000000014013a568     pjmedia-x86_64-x64-vc14-debug-dynamic:endpoint.obj
 0003:00010570       $SG20914                   000000014013a570     pjmedia-x86_64-x64-vc14-debug-dynamic:endpoint.obj
 0003:00010578       $SG20941                   000000014013a578     pjmedia-x86_64-x64-vc14-debug-dynamic:endpoint.obj
 0003:000105a8       $SG20947                   000000014013a5a8     pjmedia-x86_64-x64-vc14-debug-dynamic:endpoint.obj
 0003:000105c0       $SG20940                   000000014013a5c0     pjmedia-x86_64-x64-vc14-debug-dynamic:endpoint.obj
 0003:000106c0       $SG20948                   000000014013a6c0     pjmedia-x86_64-x64-vc14-debug-dynamic:endpoint.obj
 0003:000107c0       $SG20949                   000000014013a7c0     pjmedia-x86_64-x64-vc14-debug-dynamic:endpoint.obj
 0003:000107f4       $SG21040                   000000014013a7f4     pjmedia-x86_64-x64-vc14-debug-dynamic:endpoint.obj
 0003:00010800       $SG20980                   000000014013a800     pjmedia-x86_64-x64-vc14-debug-dynamic:endpoint.obj
 0003:00010900       $SG20981                   000000014013a900     pjmedia-x86_64-x64-vc14-debug-dynamic:endpoint.obj
 0003:00010950       $SG20983                   000000014013a950     pjmedia-x86_64-x64-vc14-debug-dynamic:endpoint.obj
 0003:00010a50       $SG20984                   000000014013aa50     pjmedia-x86_64-x64-vc14-debug-dynamic:endpoint.obj
 0003:00010a70       $SG20999                   000000014013aa70     pjmedia-x86_64-x64-vc14-debug-dynamic:endpoint.obj
 0003:00010a80       $SG21030                   000000014013aa80     pjmedia-x86_64-x64-vc14-debug-dynamic:endpoint.obj
 0003:00010aa0       $SG21031                   000000014013aaa0     pjmedia-x86_64-x64-vc14-debug-dynamic:endpoint.obj
 0003:00010ab0       $SG21034                   000000014013aab0     pjmedia-x86_64-x64-vc14-debug-dynamic:endpoint.obj
 0003:00010ad0       $SG21035                   000000014013aad0     pjmedia-x86_64-x64-vc14-debug-dynamic:endpoint.obj
 0003:00010ae0       $SG21037                   000000014013aae0     pjmedia-x86_64-x64-vc14-debug-dynamic:endpoint.obj
 0003:00010b08       $SG21038                   000000014013ab08     pjmedia-x86_64-x64-vc14-debug-dynamic:endpoint.obj
 0003:00010b14       $SG21042                   000000014013ab14     pjmedia-x86_64-x64-vc14-debug-dynamic:endpoint.obj
 0003:00010b20       $SG21044                   000000014013ab20     pjmedia-x86_64-x64-vc14-debug-dynamic:endpoint.obj
 0003:00010b30       $SG21047                   000000014013ab30     pjmedia-x86_64-x64-vc14-debug-dynamic:endpoint.obj
 0003:00010b3c       $SG21049                   000000014013ab3c     pjmedia-x86_64-x64-vc14-debug-dynamic:endpoint.obj
 0003:00010b44       $SG21051                   000000014013ab44     pjmedia-x86_64-x64-vc14-debug-dynamic:endpoint.obj
 0003:00010b4c       $SG21053                   000000014013ab4c     pjmedia-x86_64-x64-vc14-debug-dynamic:endpoint.obj
 0003:00010b54       $SG21055                   000000014013ab54     pjmedia-x86_64-x64-vc14-debug-dynamic:endpoint.obj
 0003:00010b60       $SG21057                   000000014013ab60     pjmedia-x86_64-x64-vc14-debug-dynamic:endpoint.obj
 0003:00010ba0       $SG21058                   000000014013aba0     pjmedia-x86_64-x64-vc14-debug-dynamic:endpoint.obj
 0003:00010bb0       $SG21074                   000000014013abb0     pjmedia-x86_64-x64-vc14-debug-dynamic:endpoint.obj
 0003:00010cb0       $SG21075                   000000014013acb0     pjmedia-x86_64-x64-vc14-debug-dynamic:endpoint.obj
 0003:000111e0       $SG19324                   000000014013b1e0     pjmedia-x86_64-x64-vc14-debug-dynamic:wav_player.obj
 0003:000111f0       $SG19406                   000000014013b1f0     pjmedia-x86_64-x64-vc14-debug-dynamic:wav_player.obj
 0003:000112f8       $SG19407                   000000014013b2f8     pjmedia-x86_64-x64-vc14-debug-dynamic:wav_player.obj
 0003:00011330       $SG19419                   000000014013b330     pjmedia-x86_64-x64-vc14-debug-dynamic:wav_player.obj
 0003:00011368       $SG19420                   000000014013b368     pjmedia-x86_64-x64-vc14-debug-dynamic:wav_player.obj
 0003:00011380       $SG19443                   000000014013b380     pjmedia-x86_64-x64-vc14-debug-dynamic:wav_player.obj
 0003:000113d0       $SG19444                   000000014013b3d0     pjmedia-x86_64-x64-vc14-debug-dynamic:wav_player.obj
 0003:000113e0       $SG19467                   000000014013b3e0     pjmedia-x86_64-x64-vc14-debug-dynamic:wav_player.obj
 0003:000114e8       $SG19468                   000000014013b4e8     pjmedia-x86_64-x64-vc14-debug-dynamic:wav_player.obj
 0003:00011510       $SG19470                   000000014013b510     pjmedia-x86_64-x64-vc14-debug-dynamic:wav_player.obj
 0003:00011620       $SG19471                   000000014013b620     pjmedia-x86_64-x64-vc14-debug-dynamic:wav_player.obj
 0003:000116a0       $SG19478                   000000014013b6a0     pjmedia-x86_64-x64-vc14-debug-dynamic:wav_player.obj
 0003:000116c0       $SG19479                   000000014013b6c0     pjmedia-x86_64-x64-vc14-debug-dynamic:wav_player.obj
 0003:000117c8       $SG19480                   000000014013b7c8     pjmedia-x86_64-x64-vc14-debug-dynamic:wav_player.obj
 0003:00011800       $SG19499                   000000014013b800     pjmedia-x86_64-x64-vc14-debug-dynamic:wav_player.obj
 0003:00011908       $SG19500                   000000014013b908     pjmedia-x86_64-x64-vc14-debug-dynamic:wav_player.obj
 0003:00011920       $SG19502                   000000014013b920     pjmedia-x86_64-x64-vc14-debug-dynamic:wav_player.obj
 0003:00011a30       $SG19503                   000000014013ba30     pjmedia-x86_64-x64-vc14-debug-dynamic:wav_player.obj
 0003:00011ab0       $SG19528                   000000014013bab0     pjmedia-x86_64-x64-vc14-debug-dynamic:wav_player.obj
 0003:00011bb8       $SG19529                   000000014013bbb8     pjmedia-x86_64-x64-vc14-debug-dynamic:wav_player.obj
 0003:00011bd0       $SG19531                   000000014013bbd0     pjmedia-x86_64-x64-vc14-debug-dynamic:wav_player.obj
 0003:00011ce0       $SG19532                   000000014013bce0     pjmedia-x86_64-x64-vc14-debug-dynamic:wav_player.obj
 0003:00011d60       $SG19534                   000000014013bd60     pjmedia-x86_64-x64-vc14-debug-dynamic:wav_player.obj
 0003:00011e68       $SG19535                   000000014013be68     pjmedia-x86_64-x64-vc14-debug-dynamic:wav_player.obj
 0003:00011ea0       $SG19555                   000000014013bea0     pjmedia-x86_64-x64-vc14-debug-dynamic:wav_player.obj
 0003:00011fa8       $SG19556                   000000014013bfa8     pjmedia-x86_64-x64-vc14-debug-dynamic:wav_player.obj
 0003:00011fc0       $SG19558                   000000014013bfc0     pjmedia-x86_64-x64-vc14-debug-dynamic:wav_player.obj
 0003:000120d0       $SG19559                   000000014013c0d0     pjmedia-x86_64-x64-vc14-debug-dynamic:wav_player.obj
 0003:00012150       $SG19591                   000000014013c150     pjmedia-x86_64-x64-vc14-debug-dynamic:wav_player.obj
 0003:00012258       $SG19592                   000000014013c258     pjmedia-x86_64-x64-vc14-debug-dynamic:wav_player.obj
 0003:00012270       $SG19594                   000000014013c270     pjmedia-x86_64-x64-vc14-debug-dynamic:wav_player.obj
 0003:00012380       $SG19595                   000000014013c380     pjmedia-x86_64-x64-vc14-debug-dynamic:wav_player.obj
 0003:00012400       $SG19597                   000000014013c400     pjmedia-x86_64-x64-vc14-debug-dynamic:wav_player.obj
 0003:00012460       $SG19598                   000000014013c460     pjmedia-x86_64-x64-vc14-debug-dynamic:wav_player.obj
 0003:00012470       $SG19623                   000000014013c470     pjmedia-x86_64-x64-vc14-debug-dynamic:wav_player.obj
 0003:00012578       $SG19624                   000000014013c578     pjmedia-x86_64-x64-vc14-debug-dynamic:wav_player.obj
 0003:00012590       $SG19626                   000000014013c590     pjmedia-x86_64-x64-vc14-debug-dynamic:wav_player.obj
 0003:000126a0       $SG19627                   000000014013c6a0     pjmedia-x86_64-x64-vc14-debug-dynamic:wav_player.obj
 0003:00012720       $SG19689                   000000014013c720     pjmedia-x86_64-x64-vc14-debug-dynamic:wav_player.obj
 0003:00012830       $SG19690                   000000014013c830     pjmedia-x86_64-x64-vc14-debug-dynamic:wav_player.obj
 0003:000128c0       $SG19691                   000000014013c8c0     pjmedia-x86_64-x64-vc14-debug-dynamic:wav_player.obj
 0003:000129c8       $SG19692                   000000014013c9c8     pjmedia-x86_64-x64-vc14-debug-dynamic:wav_player.obj
 0003:00012a08       $SG19695                   000000014013ca08     pjmedia-x86_64-x64-vc14-debug-dynamic:wav_player.obj
 0003:00012a20       $SG19696                   000000014013ca20     pjmedia-x86_64-x64-vc14-debug-dynamic:wav_player.obj
 0003:00012a30       $SG19707                   000000014013ca30     pjmedia-x86_64-x64-vc14-debug-dynamic:wav_player.obj
 0003:00012a50       $SG19708                   000000014013ca50     pjmedia-x86_64-x64-vc14-debug-dynamic:wav_player.obj
 0003:00012a60       $SG19711                   000000014013ca60     pjmedia-x86_64-x64-vc14-debug-dynamic:wav_player.obj
 0003:00012b70       $SG19712                   000000014013cb70     pjmedia-x86_64-x64-vc14-debug-dynamic:wav_player.obj
 0003:00012c30       $SG19736                   000000014013cc30     pjmedia-x86_64-x64-vc14-debug-dynamic:wav_player.obj
 0003:00012d40       $SG19737                   000000014013cd40     pjmedia-x86_64-x64-vc14-debug-dynamic:wav_player.obj
 0003:00013360       $SG18624                   000000014013d360     pjmedia-x86_64-x64-vc14-debug-dynamic:wav_writer.obj
 0003:00013460       $SG18625                   000000014013d460     pjmedia-x86_64-x64-vc14-debug-dynamic:wav_writer.obj
 0003:00013510       $SG18680                   000000014013d510     pjmedia-x86_64-x64-vc14-debug-dynamic:wav_writer.obj
 0003:00013610       $SG18681                   000000014013d610     pjmedia-x86_64-x64-vc14-debug-dynamic:wav_writer.obj
 0003:000136c0       $SG19374                   000000014013d6c0     pjmedia-x86_64-x64-vc14-debug-dynamic:wav_writer.obj
 0003:000137c8       $SG19375                   000000014013d7c8     pjmedia-x86_64-x64-vc14-debug-dynamic:wav_writer.obj
 0003:00013800       $SG19377                   000000014013d800     pjmedia-x86_64-x64-vc14-debug-dynamic:wav_writer.obj
 0003:00013908       $SG19378                   000000014013d908     pjmedia-x86_64-x64-vc14-debug-dynamic:wav_writer.obj
 0003:00013940       $SG19380                   000000014013d940     pjmedia-x86_64-x64-vc14-debug-dynamic:wav_writer.obj
 0003:00013a48       $SG19381                   000000014013da48     pjmedia-x86_64-x64-vc14-debug-dynamic:wav_writer.obj
 0003:00013a80       $SG19395                   000000014013da80     pjmedia-x86_64-x64-vc14-debug-dynamic:wav_writer.obj
 0003:00013b90       $SG19396                   000000014013db90     pjmedia-x86_64-x64-vc14-debug-dynamic:wav_writer.obj
 0003:00013c08       $SG19399                   000000014013dc08     pjmedia-x86_64-x64-vc14-debug-dynamic:wav_writer.obj
 0003:00013c40       $SG19400                   000000014013dc40     pjmedia-x86_64-x64-vc14-debug-dynamic:wav_writer.obj
 0003:00013c50       $SG19417                   000000014013dc50     pjmedia-x86_64-x64-vc14-debug-dynamic:wav_writer.obj
 0003:00013d58       $SG19418                   000000014013dd58     pjmedia-x86_64-x64-vc14-debug-dynamic:wav_writer.obj
 0003:00013d70       $SG19420                   000000014013dd70     pjmedia-x86_64-x64-vc14-debug-dynamic:wav_writer.obj
 0003:00013e80       $SG19421                   000000014013de80     pjmedia-x86_64-x64-vc14-debug-dynamic:wav_writer.obj
 0003:00013f00       $SG19452                   000000014013df00     pjmedia-x86_64-x64-vc14-debug-dynamic:wav_writer.obj
 0003:00014008       $SG19453                   000000014013e008     pjmedia-x86_64-x64-vc14-debug-dynamic:wav_writer.obj
 0003:00014020       $SG19455                   000000014013e020     pjmedia-x86_64-x64-vc14-debug-dynamic:wav_writer.obj
 0003:00014130       $SG19456                   000000014013e130     pjmedia-x86_64-x64-vc14-debug-dynamic:wav_writer.obj
 0003:000141b0       $SG19458                   000000014013e1b0     pjmedia-x86_64-x64-vc14-debug-dynamic:wav_writer.obj
 0003:00014210       $SG19459                   000000014013e210     pjmedia-x86_64-x64-vc14-debug-dynamic:wav_writer.obj
 0003:00014220       $SG19487                   000000014013e220     pjmedia-x86_64-x64-vc14-debug-dynamic:wav_writer.obj
 0003:00014328       $SG19488                   000000014013e328     pjmedia-x86_64-x64-vc14-debug-dynamic:wav_writer.obj
 0003:00014340       $SG19490                   000000014013e340     pjmedia-x86_64-x64-vc14-debug-dynamic:wav_writer.obj
 0003:00014450       $SG19491                   000000014013e450     pjmedia-x86_64-x64-vc14-debug-dynamic:wav_writer.obj
 0003:000144d0       $SG19551                   000000014013e4d0     pjmedia-x86_64-x64-vc14-debug-dynamic:wav_writer.obj
 0003:000145e0       $SG19552                   000000014013e5e0     pjmedia-x86_64-x64-vc14-debug-dynamic:wav_writer.obj
 0003:00014a20       g711_op                    000000014013ea20     pjmedia-x86_64-x64-vc14-debug-dynamic:g711.obj
 0003:00014a60       g711_factory_op            000000014013ea60     pjmedia-x86_64-x64-vc14-debug-dynamic:g711.obj
 0003:00014a90       $SG20075                   000000014013ea90     pjmedia-x86_64-x64-vc14-debug-dynamic:g711.obj
 0003:00014a98       $SG20077                   000000014013ea98     pjmedia-x86_64-x64-vc14-debug-dynamic:g711.obj
 0003:00014aa0       $SG20120                   000000014013eaa0     pjmedia-x86_64-x64-vc14-debug-dynamic:g711.obj
 0003:00014aa8       $SG20122                   000000014013eaa8     pjmedia-x86_64-x64-vc14-debug-dynamic:g711.obj
 0003:00014ab0       $SG20145                   000000014013eab0     pjmedia-x86_64-x64-vc14-debug-dynamic:g711.obj
 0003:00014ba8       $SG20146                   000000014013eba8     pjmedia-x86_64-x64-vc14-debug-dynamic:g711.obj
 0003:00014be0       $SG20177                   000000014013ebe0     pjmedia-x86_64-x64-vc14-debug-dynamic:g711.obj
 0003:00014cd8       $SG20178                   000000014013ecd8     pjmedia-x86_64-x64-vc14-debug-dynamic:g711.obj
 0003:00014d10       $SG20179                   000000014013ed10     pjmedia-x86_64-x64-vc14-debug-dynamic:g711.obj
 0003:00014e08       $SG20235                   000000014013ee08     pjmedia-x86_64-x64-vc14-debug-dynamic:g711.obj
 0003:00014e40       $SG20180                   000000014013ee40     pjmedia-x86_64-x64-vc14-debug-dynamic:g711.obj
 0003:00014eb0       $SG20234                   000000014013eeb0     pjmedia-x86_64-x64-vc14-debug-dynamic:g711.obj
 0003:00014fb0       $SG20322                   000000014013efb0     pjmedia-x86_64-x64-vc14-debug-dynamic:g711.obj
 0003:000150b0       $SG20323                   000000014013f0b0     pjmedia-x86_64-x64-vc14-debug-dynamic:g711.obj
 0003:00015100       $SG20325                   000000014013f100     pjmedia-x86_64-x64-vc14-debug-dynamic:g711.obj
 0003:00015200       $SG20326                   000000014013f200     pjmedia-x86_64-x64-vc14-debug-dynamic:g711.obj
 0003:00015250       $SG20349                   000000014013f250     pjmedia-x86_64-x64-vc14-debug-dynamic:g711.obj
 0003:00015350       $SG20350                   000000014013f350     pjmedia-x86_64-x64-vc14-debug-dynamic:g711.obj
 0003:00015590       plc_wsola                  000000014013f590     pjmedia-x86_64-x64-vc14-debug-dynamic:plc_common.obj
 0003:000155b0       $SG15042                   000000014013f5b0     pjmedia-x86_64-x64-vc14-debug-dynamic:plc_common.obj
 0003:000156c0       $SG15043                   000000014013f6c0     pjmedia-x86_64-x64-vc14-debug-dynamic:plc_common.obj
 0003:00015730       $SG15045                   000000014013f730     pjmedia-x86_64-x64-vc14-debug-dynamic:plc_common.obj
 0003:00015838       $SG15046                   000000014013f838     pjmedia-x86_64-x64-vc14-debug-dynamic:plc_common.obj
 0003:00015860       $SG15059                   000000014013f860     pjmedia-x86_64-x64-vc14-debug-dynamic:plc_common.obj
 0003:00015968       $SG15060                   000000014013f968     pjmedia-x86_64-x64-vc14-debug-dynamic:plc_common.obj
 0003:00015990       $SG15073                   000000014013f990     pjmedia-x86_64-x64-vc14-debug-dynamic:plc_common.obj
 0003:00015a98       $SG15074                   000000014013fa98     pjmedia-x86_64-x64-vc14-debug-dynamic:plc_common.obj
 0003:00015bc0       $SG15170                   000000014013fbc0     pjmedia-x86_64-x64-vc14-debug-dynamic:silencedet.obj
 0003:00015cc4       $SG15303                   000000014013fcc4     pjmedia-x86_64-x64-vc14-debug-dynamic:silencedet.obj
 0003:00015cc8       $SG15171                   000000014013fcc8     pjmedia-x86_64-x64-vc14-debug-dynamic:silencedet.obj
 0003:00015ce4       $SG15172                   000000014013fce4     pjmedia-x86_64-x64-vc14-debug-dynamic:silencedet.obj
 0003:00015cf0       $SG15185                   000000014013fcf0     pjmedia-x86_64-x64-vc14-debug-dynamic:silencedet.obj
 0003:00015df4       $SG15317                   000000014013fdf4     pjmedia-x86_64-x64-vc14-debug-dynamic:silencedet.obj
 0003:00015df8       $SG15186                   000000014013fdf8     pjmedia-x86_64-x64-vc14-debug-dynamic:silencedet.obj
 0003:00015e10       $SG15198                   000000014013fe10     pjmedia-x86_64-x64-vc14-debug-dynamic:silencedet.obj
 0003:00015f14       $SG15199                   000000014013ff14     pjmedia-x86_64-x64-vc14-debug-dynamic:silencedet.obj
 0003:00015f20       $SG15212                   000000014013ff20     pjmedia-x86_64-x64-vc14-debug-dynamic:silencedet.obj
 0003:00016024       $SG15213                   0000000140140024     pjmedia-x86_64-x64-vc14-debug-dynamic:silencedet.obj
 0003:00016030       $SG15230                   0000000140140030     pjmedia-x86_64-x64-vc14-debug-dynamic:silencedet.obj
 0003:00016134       $SG15231                   0000000140140134     pjmedia-x86_64-x64-vc14-debug-dynamic:silencedet.obj
 0003:00016140       $SG15244                   0000000140140140     pjmedia-x86_64-x64-vc14-debug-dynamic:silencedet.obj
 0003:00016244       $SG15245                   0000000140140244     pjmedia-x86_64-x64-vc14-debug-dynamic:silencedet.obj
 0003:00016250       $SG15294                   0000000140140250     pjmedia-x86_64-x64-vc14-debug-dynamic:silencedet.obj
 0003:00016280       $SG15295                   0000000140140280     pjmedia-x86_64-x64-vc14-debug-dynamic:silencedet.obj
 0003:00016290       $SG15298                   0000000140140290     pjmedia-x86_64-x64-vc14-debug-dynamic:silencedet.obj
 0003:000162c0       $SG15299                   00000001401402c0     pjmedia-x86_64-x64-vc14-debug-dynamic:silencedet.obj
 0003:000162d0       $SG15302                   00000001401402d0     pjmedia-x86_64-x64-vc14-debug-dynamic:silencedet.obj
 0003:000163d8       $SG15307                   00000001401403d8     pjmedia-x86_64-x64-vc14-debug-dynamic:silencedet.obj
 0003:00016400       $SG15308                   0000000140140400     pjmedia-x86_64-x64-vc14-debug-dynamic:silencedet.obj
 0003:00016410       $SG15313                   0000000140140410     pjmedia-x86_64-x64-vc14-debug-dynamic:silencedet.obj
 0003:00016440       $SG15314                   0000000140140440     pjmedia-x86_64-x64-vc14-debug-dynamic:silencedet.obj
 0003:00016450       $SG15316                   0000000140140450     pjmedia-x86_64-x64-vc14-debug-dynamic:silencedet.obj
 0003:00016740       $SG15580                   0000000140140740     pjmedia-x86_64-x64-vc14-debug-dynamic:audiodev.obj
 0003:00016748       $SG15581                   0000000140140748     pjmedia-x86_64-x64-vc14-debug-dynamic:audiodev.obj
 0003:00016760       $SG15582                   0000000140140760     pjmedia-x86_64-x64-vc14-debug-dynamic:audiodev.obj
 0003:00016770       $SG15583                   0000000140140770     pjmedia-x86_64-x64-vc14-debug-dynamic:audiodev.obj
 0003:00016794       $SG15586                   0000000140140794     pjmedia-x86_64-x64-vc14-debug-dynamic:audiodev.obj
 0003:0001679c       $SG15598                   000000014014079c     pjmedia-x86_64-x64-vc14-debug-dynamic:audiodev.obj
 0003:000167a0       $SG15584                   00000001401407a0     pjmedia-x86_64-x64-vc14-debug-dynamic:audiodev.obj
 0003:000167ac       $SG15602                   00000001401407ac     pjmedia-x86_64-x64-vc14-debug-dynamic:audiodev.obj
 0003:000167b0       $SG15585                   00000001401407b0     pjmedia-x86_64-x64-vc14-debug-dynamic:audiodev.obj
 0003:000167d4       $SG15604                   00000001401407d4     pjmedia-x86_64-x64-vc14-debug-dynamic:audiodev.obj
 0003:000167d8       $SG15587                   00000001401407d8     pjmedia-x86_64-x64-vc14-debug-dynamic:audiodev.obj
 0003:000167f0       $SG15588                   00000001401407f0     pjmedia-x86_64-x64-vc14-debug-dynamic:audiodev.obj
 0003:000167f8       $SG15589                   00000001401407f8     pjmedia-x86_64-x64-vc14-debug-dynamic:audiodev.obj
 0003:00016810       $SG15590                   0000000140140810     pjmedia-x86_64-x64-vc14-debug-dynamic:audiodev.obj
 0003:0001681c       $SG15606                   000000014014081c     pjmedia-x86_64-x64-vc14-debug-dynamic:audiodev.obj
 0003:00016820       $SG15591                   0000000140140820     pjmedia-x86_64-x64-vc14-debug-dynamic:audiodev.obj
 0003:00016830       $SG15592                   0000000140140830     pjmedia-x86_64-x64-vc14-debug-dynamic:audiodev.obj
 0003:00016840       $SG15593                   0000000140140840     pjmedia-x86_64-x64-vc14-debug-dynamic:audiodev.obj
 0003:00016850       $SG15594                   0000000140140850     pjmedia-x86_64-x64-vc14-debug-dynamic:audiodev.obj
 0003:00016860       $SG15595                   0000000140140860     pjmedia-x86_64-x64-vc14-debug-dynamic:audiodev.obj
 0003:00016870       $SG15596                   0000000140140870     pjmedia-x86_64-x64-vc14-debug-dynamic:audiodev.obj
 0003:00016880       $SG15597                   0000000140140880     pjmedia-x86_64-x64-vc14-debug-dynamic:audiodev.obj
 0003:00016890       $SG15599                   0000000140140890     pjmedia-x86_64-x64-vc14-debug-dynamic:audiodev.obj
 0003:000168b0       $SG15600                   00000001401408b0     pjmedia-x86_64-x64-vc14-debug-dynamic:audiodev.obj
 0003:000168c0       $SG15601                   00000001401408c0     pjmedia-x86_64-x64-vc14-debug-dynamic:audiodev.obj
 0003:000168e0       $SG15603                   00000001401408e0     pjmedia-x86_64-x64-vc14-debug-dynamic:audiodev.obj
 0003:00016900       $SG15605                   0000000140140900     pjmedia-x86_64-x64-vc14-debug-dynamic:audiodev.obj
 0003:00016920       $SG15607                   0000000140140920     pjmedia-x86_64-x64-vc14-debug-dynamic:audiodev.obj
 0003:00016938       $SG15670                   0000000140140938     pjmedia-x86_64-x64-vc14-debug-dynamic:audiodev.obj
 0003:00016940       cap_infos                  0000000140140940     pjmedia-x86_64-x64-vc14-debug-dynamic:audiodev.obj
 0003:00016a20       $SG15642                   0000000140140a20     pjmedia-x86_64-x64-vc14-debug-dynamic:audiodev.obj
 0003:00016a68       $SG15643                   0000000140140a68     pjmedia-x86_64-x64-vc14-debug-dynamic:audiodev.obj
 0003:00016a74       $SG15671                   0000000140140a74     pjmedia-x86_64-x64-vc14-debug-dynamic:audiodev.obj
 0003:00016a78       $SG15744                   0000000140140a78     pjmedia-x86_64-x64-vc14-debug-dynamic:audiodev.obj
 0003:00016aa0       $SG15745                   0000000140140aa0     pjmedia-x86_64-x64-vc14-debug-dynamic:audiodev.obj
 0003:00016ab0       $SG15768                   0000000140140ab0     pjmedia-x86_64-x64-vc14-debug-dynamic:audiodev.obj
 0003:00016bb0       $SG15769                   0000000140140bb0     pjmedia-x86_64-x64-vc14-debug-dynamic:audiodev.obj
 0003:00016bf0       $SG15772                   0000000140140bf0     pjmedia-x86_64-x64-vc14-debug-dynamic:audiodev.obj
 0003:00016cf0       $SG15773                   0000000140140cf0     pjmedia-x86_64-x64-vc14-debug-dynamic:audiodev.obj
 0003:00016d60       $SG15824                   0000000140140d60     pjmedia-x86_64-x64-vc14-debug-dynamic:audiodev.obj
 0003:00016e60       $SG15825                   0000000140140e60     pjmedia-x86_64-x64-vc14-debug-dynamic:audiodev.obj
 0003:00016e80       $SG15827                   0000000140140e80     pjmedia-x86_64-x64-vc14-debug-dynamic:audiodev.obj
 0003:00016f80       $SG15828                   0000000140140f80     pjmedia-x86_64-x64-vc14-debug-dynamic:audiodev.obj
 0003:00016fa0       $SG15861                   0000000140140fa0     pjmedia-x86_64-x64-vc14-debug-dynamic:audiodev.obj
 0003:000170a0       $SG15862                   00000001401410a0     pjmedia-x86_64-x64-vc14-debug-dynamic:audiodev.obj
 0003:000170e0       $SG15864                   00000001401410e0     pjmedia-x86_64-x64-vc14-debug-dynamic:audiodev.obj
 0003:000171e0       $SG15865                   00000001401411e0     pjmedia-x86_64-x64-vc14-debug-dynamic:audiodev.obj
 0003:00017200       $SG15891                   0000000140141200     pjmedia-x86_64-x64-vc14-debug-dynamic:audiodev.obj
 0003:00017300       $SG15892                   0000000140141300     pjmedia-x86_64-x64-vc14-debug-dynamic:audiodev.obj
 0003:00017320       $SG15894                   0000000140141320     pjmedia-x86_64-x64-vc14-debug-dynamic:audiodev.obj
 0003:00017420       $SG15895                   0000000140141420     pjmedia-x86_64-x64-vc14-debug-dynamic:audiodev.obj
 0003:00017440       $SG15948                   0000000140141440     pjmedia-x86_64-x64-vc14-debug-dynamic:audiodev.obj
 0003:00017540       $SG15949                   0000000140141540     pjmedia-x86_64-x64-vc14-debug-dynamic:audiodev.obj
 0003:00017580       $SG15951                   0000000140141580     pjmedia-x86_64-x64-vc14-debug-dynamic:audiodev.obj
 0003:00017680       $SG15952                   0000000140141680     pjmedia-x86_64-x64-vc14-debug-dynamic:audiodev.obj
 0003:000176a0       $SG15954                   00000001401416a0     pjmedia-x86_64-x64-vc14-debug-dynamic:audiodev.obj
 0003:000177a0       $SG15955                   00000001401417a0     pjmedia-x86_64-x64-vc14-debug-dynamic:audiodev.obj
 0003:00017880       $SG15963                   0000000140141880     pjmedia-x86_64-x64-vc14-debug-dynamic:audiodev.obj
 0003:00017980       $SG15964                   0000000140141980     pjmedia-x86_64-x64-vc14-debug-dynamic:audiodev.obj
 0003:000179b0       $SG15966                   00000001401419b0     pjmedia-x86_64-x64-vc14-debug-dynamic:audiodev.obj
 0003:00017ab0       $SG15967                   0000000140141ab0     pjmedia-x86_64-x64-vc14-debug-dynamic:audiodev.obj
 0003:00017b40       $SG15987                   0000000140141b40     pjmedia-x86_64-x64-vc14-debug-dynamic:audiodev.obj
 0003:00017c40       $SG15988                   0000000140141c40     pjmedia-x86_64-x64-vc14-debug-dynamic:audiodev.obj
 0003:00017c60       $SG15990                   0000000140141c60     pjmedia-x86_64-x64-vc14-debug-dynamic:audiodev.obj
 0003:00017d60       $SG15991                   0000000140141d60     pjmedia-x86_64-x64-vc14-debug-dynamic:audiodev.obj
 0003:000181f0       $SG18771                   00000001401421f0     pjmedia-x86_64-x64-vc14-debug-dynamic:event.obj
 0003:00018228       $SG18772                   0000000140142228     pjmedia-x86_64-x64-vc14-debug-dynamic:event.obj
 0003:00018230       $SG18819                   0000000140142230     pjmedia-x86_64-x64-vc14-debug-dynamic:event.obj
 0003:00018238       $SG18821                   0000000140142238     pjmedia-x86_64-x64-vc14-debug-dynamic:event.obj
 0003:00018240       $SG18823                   0000000140142240     pjmedia-x86_64-x64-vc14-debug-dynamic:event.obj
 0003:00018250       $SG18825                   0000000140142250     pjmedia-x86_64-x64-vc14-debug-dynamic:event.obj
 0003:0001825c       $SG18893                   000000014014225c     pjmedia-x86_64-x64-vc14-debug-dynamic:event.obj
 0003:00018268       $SG18849                   0000000140142268     pjmedia-x86_64-x64-vc14-debug-dynamic:event.obj
 0003:00018290       $SG18848                   0000000140142290     pjmedia-x86_64-x64-vc14-debug-dynamic:event.obj
 0003:00018390       $SG18892                   0000000140142390     pjmedia-x86_64-x64-vc14-debug-dynamic:event.obj
 0003:00018490       $SG18896                   0000000140142490     pjmedia-x86_64-x64-vc14-debug-dynamic:event.obj
 0003:00018590       $SG18897                   0000000140142590     pjmedia-x86_64-x64-vc14-debug-dynamic:event.obj
 0003:00018598       $SG18926                   0000000140142598     pjmedia-x86_64-x64-vc14-debug-dynamic:event.obj
 0003:000185a0       $SG18925                   00000001401425a0     pjmedia-x86_64-x64-vc14-debug-dynamic:event.obj
 0003:000186a0       $SG18929                   00000001401426a0     pjmedia-x86_64-x64-vc14-debug-dynamic:event.obj
 0003:000187a0       $SG18930                   00000001401427a0     pjmedia-x86_64-x64-vc14-debug-dynamic:event.obj
 0003:000187a8       $SG18971                   00000001401427a8     pjmedia-x86_64-x64-vc14-debug-dynamic:event.obj
 0003:000187b0       $SG18966                   00000001401427b0     pjmedia-x86_64-x64-vc14-debug-dynamic:event.obj
 0003:000188b0       $SG18967                   00000001401428b0     pjmedia-x86_64-x64-vc14-debug-dynamic:event.obj
 0003:000188d0       $SG18970                   00000001401428d0     pjmedia-x86_64-x64-vc14-debug-dynamic:event.obj
 0003:00018b60       $SG15010                   0000000140142b60     pjmedia-x86_64-x64-vc14-debug-dynamic:format.obj
 0003:00018b80       $SG15011                   0000000140142b80     pjmedia-x86_64-x64-vc14-debug-dynamic:format.obj
 0003:00018c80       $SG15012                   0000000140142c80     pjmedia-x86_64-x64-vc14-debug-dynamic:format.obj
 0003:00018d30       $SG16712                   0000000140142d30     pjmedia-x86_64-x64-vc14-debug-dynamic:sdp.obj
 0003:00018d50       $SG16732                   0000000140142d50     pjmedia-x86_64-x64-vc14-debug-dynamic:sdp.obj
 0003:00018e48       $SG16733                   0000000140142e48     pjmedia-x86_64-x64-vc14-debug-dynamic:sdp.obj
 0003:00018e68       $SG16753                   0000000140142e68     pjmedia-x86_64-x64-vc14-debug-dynamic:sdp.obj
 0003:00018e80       $SG16752                   0000000140142e80     pjmedia-x86_64-x64-vc14-debug-dynamic:sdp.obj
 0003:00018f78       $SG16783                   0000000140142f78     pjmedia-x86_64-x64-vc14-debug-dynamic:sdp.obj
 0003:00018fa0       $SG16782                   0000000140142fa0     pjmedia-x86_64-x64-vc14-debug-dynamic:sdp.obj
 0003:00019098       $SG16820                   0000000140143098     pjmedia-x86_64-x64-vc14-debug-dynamic:sdp.obj
 0003:000190d0       $SG16819                   00000001401430d0     pjmedia-x86_64-x64-vc14-debug-dynamic:sdp.obj
 0003:000191c8       $SG16823                   00000001401431c8     pjmedia-x86_64-x64-vc14-debug-dynamic:sdp.obj
 0003:000191f0       $SG16822                   00000001401431f0     pjmedia-x86_64-x64-vc14-debug-dynamic:sdp.obj
 0003:000192e8       $SG16852                   00000001401432e8     pjmedia-x86_64-x64-vc14-debug-dynamic:sdp.obj
 0003:00019320       $SG16851                   0000000140143320     pjmedia-x86_64-x64-vc14-debug-dynamic:sdp.obj
 0003:00019418       $SG16884                   0000000140143418     pjmedia-x86_64-x64-vc14-debug-dynamic:sdp.obj
 0003:00019450       $SG16854                   0000000140143450     pjmedia-x86_64-x64-vc14-debug-dynamic:sdp.obj
 0003:00019548       $SG16855                   0000000140143548     pjmedia-x86_64-x64-vc14-debug-dynamic:sdp.obj
 0003:00019574       $SG16911                   0000000140143574     pjmedia-x86_64-x64-vc14-debug-dynamic:sdp.obj
 0003:00019580       $SG16883                   0000000140143580     pjmedia-x86_64-x64-vc14-debug-dynamic:sdp.obj
 0003:00019678       $SG16912                   0000000140143678     pjmedia-x86_64-x64-vc14-debug-dynamic:sdp.obj
 0003:00019680       $SG16886                   0000000140143680     pjmedia-x86_64-x64-vc14-debug-dynamic:sdp.obj
 0003:00019778       $SG16887                   0000000140143778     pjmedia-x86_64-x64-vc14-debug-dynamic:sdp.obj
 0003:000197a8       $SG16917                   00000001401437a8     pjmedia-x86_64-x64-vc14-debug-dynamic:sdp.obj
 0003:000197c0       $SG16913                   00000001401437c0     pjmedia-x86_64-x64-vc14-debug-dynamic:sdp.obj
 0003:000198b8       $SG16919                   00000001401438b8     pjmedia-x86_64-x64-vc14-debug-dynamic:sdp.obj
 0003:000198e0       $SG16914                   00000001401438e0     pjmedia-x86_64-x64-vc14-debug-dynamic:sdp.obj
 0003:00019930       $SG16918                   0000000140143930     pjmedia-x86_64-x64-vc14-debug-dynamic:sdp.obj
 0003:00019a28       $SG16946                   0000000140143a28     pjmedia-x86_64-x64-vc14-debug-dynamic:sdp.obj
 0003:00019a30       $SG16947                   0000000140143a30     pjmedia-x86_64-x64-vc14-debug-dynamic:sdp.obj
 0003:00019a38       $SG16970                   0000000140143a38     pjmedia-x86_64-x64-vc14-debug-dynamic:sdp.obj
 0003:00019a40       $SG16948                   0000000140143a40     pjmedia-x86_64-x64-vc14-debug-dynamic:sdp.obj
 0003:00019b38       $SG16971                   0000000140143b38     pjmedia-x86_64-x64-vc14-debug-dynamic:sdp.obj
 0003:00019b40       $SG16949                   0000000140143b40     pjmedia-x86_64-x64-vc14-debug-dynamic:sdp.obj
 0003:00019b88       $SG16980                   0000000140143b88     pjmedia-x86_64-x64-vc14-debug-dynamic:sdp.obj
 0003:00019b90       $SG16972                   0000000140143b90     pjmedia-x86_64-x64-vc14-debug-dynamic:sdp.obj
 0003:00019c88       $SG16996                   0000000140143c88     pjmedia-x86_64-x64-vc14-debug-dynamic:sdp.obj
 0003:00019c90       $SG16973                   0000000140143c90     pjmedia-x86_64-x64-vc14-debug-dynamic:sdp.obj
 0003:00019cd8       $SG16999                   0000000140143cd8     pjmedia-x86_64-x64-vc14-debug-dynamic:sdp.obj
 0003:00019ce8       $SG17002                   0000000140143ce8     pjmedia-x86_64-x64-vc14-debug-dynamic:sdp.obj
 0003:00019cf8       $SG17003                   0000000140143cf8     pjmedia-x86_64-x64-vc14-debug-dynamic:sdp.obj
 0003:00019d18       $SG17005                   0000000140143d18     pjmedia-x86_64-x64-vc14-debug-dynamic:sdp.obj
 0003:00019d54       $SG17024                   0000000140143d54     pjmedia-x86_64-x64-vc14-debug-dynamic:sdp.obj
 0003:00019d60       $SG17004                   0000000140143d60     pjmedia-x86_64-x64-vc14-debug-dynamic:sdp.obj
 0003:00019e58       $SG17025                   0000000140143e58     pjmedia-x86_64-x64-vc14-debug-dynamic:sdp.obj
 0003:00019e60       $SG17026                   0000000140143e60     pjmedia-x86_64-x64-vc14-debug-dynamic:sdp.obj
 0003:00019f58       $SG17034                   0000000140143f58     pjmedia-x86_64-x64-vc14-debug-dynamic:sdp.obj
 0003:00019f60       $SG17027                   0000000140143f60     pjmedia-x86_64-x64-vc14-debug-dynamic:sdp.obj
 0003:00019fa8       $SG17049                   0000000140143fa8     pjmedia-x86_64-x64-vc14-debug-dynamic:sdp.obj
 0003:00019fb0       $SG17050                   0000000140143fb0     pjmedia-x86_64-x64-vc14-debug-dynamic:sdp.obj
 0003:00019fc0       $SG17072                   0000000140143fc0     pjmedia-x86_64-x64-vc14-debug-dynamic:sdp.obj
 0003:0001a0b8       $SG17073                   00000001401440b8     pjmedia-x86_64-x64-vc14-debug-dynamic:sdp.obj
 0003:0001a0f0       $SG17075                   00000001401440f0     pjmedia-x86_64-x64-vc14-debug-dynamic:sdp.obj
 0003:0001a1e8       $SG17076                   00000001401441e8     pjmedia-x86_64-x64-vc14-debug-dynamic:sdp.obj
 0003:0001a200       $SG17113                   0000000140144200     pjmedia-x86_64-x64-vc14-debug-dynamic:sdp.obj
 0003:0001a2f8       $SG17114                   00000001401442f8     pjmedia-x86_64-x64-vc14-debug-dynamic:sdp.obj
 0003:0001a330       $SG17117                   0000000140144330     pjmedia-x86_64-x64-vc14-debug-dynamic:sdp.obj
 0003:0001a428       $SG17121                   0000000140144428     pjmedia-x86_64-x64-vc14-debug-dynamic:sdp.obj
 0003:0001a450       $SG17118                   0000000140144450     pjmedia-x86_64-x64-vc14-debug-dynamic:sdp.obj
 0003:0001a4a8       $SG17122                   00000001401444a8     pjmedia-x86_64-x64-vc14-debug-dynamic:sdp.obj
 0003:0001a4b0       $SG17120                   00000001401444b0     pjmedia-x86_64-x64-vc14-debug-dynamic:sdp.obj
 0003:0001a5a8       $SG17123                   00000001401445a8     pjmedia-x86_64-x64-vc14-debug-dynamic:sdp.obj
 0003:0001a5ac       $SG17414                   00000001401445ac     pjmedia-x86_64-x64-vc14-debug-dynamic:sdp.obj
 0003:0001a5b0       $SG17125                   00000001401445b0     pjmedia-x86_64-x64-vc14-debug-dynamic:sdp.obj
 0003:0001a5c4       $SG17483                   00000001401445c4     pjmedia-x86_64-x64-vc14-debug-dynamic:sdp.obj
 0003:0001a5c8       $SG17140                   00000001401445c8     pjmedia-x86_64-x64-vc14-debug-dynamic:sdp.obj
 0003:0001a5e0       $SG17277                   00000001401445e0     pjmedia-x86_64-x64-vc14-debug-dynamic:sdp.obj
 0003:0001a6d8       $SG17278                   00000001401446d8     pjmedia-x86_64-x64-vc14-debug-dynamic:sdp.obj
 0003:0001a700       $SG17282                   0000000140144700     pjmedia-x86_64-x64-vc14-debug-dynamic:sdp.obj
 0003:0001a7f8       $SG17283                   00000001401447f8     pjmedia-x86_64-x64-vc14-debug-dynamic:sdp.obj
 0003:0001a828       $SG17286                   0000000140144828     pjmedia-x86_64-x64-vc14-debug-dynamic:sdp.obj
 0003:0001a860       $SG17285                   0000000140144860     pjmedia-x86_64-x64-vc14-debug-dynamic:sdp.obj
 0003:0001a958       $SG17289                   0000000140144958     pjmedia-x86_64-x64-vc14-debug-dynamic:sdp.obj
 0003:0001a990       $SG17288                   0000000140144990     pjmedia-x86_64-x64-vc14-debug-dynamic:sdp.obj
 0003:0001aa88       $SG17306                   0000000140144a88     pjmedia-x86_64-x64-vc14-debug-dynamic:sdp.obj
 0003:0001aaa0       $SG17305                   0000000140144aa0     pjmedia-x86_64-x64-vc14-debug-dynamic:sdp.obj
 0003:0001ab98       $SG17323                   0000000140144b98     pjmedia-x86_64-x64-vc14-debug-dynamic:sdp.obj
 0003:0001abb0       $SG17322                   0000000140144bb0     pjmedia-x86_64-x64-vc14-debug-dynamic:sdp.obj
 0003:0001aca8       $SG17371                   0000000140144ca8     pjmedia-x86_64-x64-vc14-debug-dynamic:sdp.obj
 0003:0001acb0       $SG17395                   0000000140144cb0     pjmedia-x86_64-x64-vc14-debug-dynamic:sdp.obj
 0003:0001acb8       $SG17405                   0000000140144cb8     pjmedia-x86_64-x64-vc14-debug-dynamic:sdp.obj
 0003:0001acc0       $SG17423                   0000000140144cc0     pjmedia-x86_64-x64-vc14-debug-dynamic:sdp.obj
 0003:0001acc8       $SG17432                   0000000140144cc8     pjmedia-x86_64-x64-vc14-debug-dynamic:sdp.obj
 0003:0001acd0       $SG17453                   0000000140144cd0     pjmedia-x86_64-x64-vc14-debug-dynamic:sdp.obj
 0003:0001acd8       $SG17458                   0000000140144cd8     pjmedia-x86_64-x64-vc14-debug-dynamic:sdp.obj
 0003:0001ad10       $SG17459                   0000000140144d10     pjmedia-x86_64-x64-vc14-debug-dynamic:sdp.obj
 0003:0001ad18       $SG17507                   0000000140144d18     pjmedia-x86_64-x64-vc14-debug-dynamic:sdp.obj
 0003:0001ad24       $SG17600                   0000000140144d24     pjmedia-x86_64-x64-vc14-debug-dynamic:sdp.obj
 0003:0001ad2c       $SG17716                   0000000140144d2c     pjmedia-x86_64-x64-vc14-debug-dynamic:sdp.obj
 0003:0001ad30       $SG17509                   0000000140144d30     pjmedia-x86_64-x64-vc14-debug-dynamic:sdp.obj
 0003:0001ad3c       $SG17604                   0000000140144d3c     pjmedia-x86_64-x64-vc14-debug-dynamic:sdp.obj
 0003:0001ad44       $SG17718                   0000000140144d44     pjmedia-x86_64-x64-vc14-debug-dynamic:sdp.obj
 0003:0001ad48       $SG17511                   0000000140144d48     pjmedia-x86_64-x64-vc14-debug-dynamic:sdp.obj
 0003:0001ad54       $SG17615                   0000000140144d54     pjmedia-x86_64-x64-vc14-debug-dynamic:sdp.obj
 0003:0001ad5c       $SG17719                   0000000140144d5c     pjmedia-x86_64-x64-vc14-debug-dynamic:sdp.obj
 0003:0001ad60       $SG17513                   0000000140144d60     pjmedia-x86_64-x64-vc14-debug-dynamic:sdp.obj
 0003:0001ad70       $SG17586                   0000000140144d70     pjmedia-x86_64-x64-vc14-debug-dynamic:sdp.obj
 0003:0001ae68       $SG17587                   0000000140144e68     pjmedia-x86_64-x64-vc14-debug-dynamic:sdp.obj
 0003:0001ae98       $SG17599                   0000000140144e98     pjmedia-x86_64-x64-vc14-debug-dynamic:sdp.obj
 0003:0001aecc       $SG17786                   0000000140144ecc     pjmedia-x86_64-x64-vc14-debug-dynamic:sdp.obj
 0003:0001aed0       $SG17603                   0000000140144ed0     pjmedia-x86_64-x64-vc14-debug-dynamic:sdp.obj
 0003:0001af08       $SG17614                   0000000140144f08     pjmedia-x86_64-x64-vc14-debug-dynamic:sdp.obj
 0003:0001af30       $SG17625                   0000000140144f30     pjmedia-x86_64-x64-vc14-debug-dynamic:sdp.obj
 0003:0001af64       $SG17626                   0000000140144f64     pjmedia-x86_64-x64-vc14-debug-dynamic:sdp.obj
 0003:0001af6c       $SG17782                   0000000140144f6c     pjmedia-x86_64-x64-vc14-debug-dynamic:sdp.obj
 0003:0001af74       $SG17788                   0000000140144f74     pjmedia-x86_64-x64-vc14-debug-dynamic:sdp.obj
 0003:0001af78       $SG17629                   0000000140144f78     pjmedia-x86_64-x64-vc14-debug-dynamic:sdp.obj
 0003:0001afb0       $SG17630                   0000000140144fb0     pjmedia-x86_64-x64-vc14-debug-dynamic:sdp.obj
 0003:0001afb8       $SG17634                   0000000140144fb8     pjmedia-x86_64-x64-vc14-debug-dynamic:sdp.obj
 0003:0001afdc       $SG17635                   0000000140144fdc     pjmedia-x86_64-x64-vc14-debug-dynamic:sdp.obj
 0003:0001afe8       $SG17689                   0000000140144fe8     pjmedia-x86_64-x64-vc14-debug-dynamic:sdp.obj
 0003:0001b000       $SG17636                   0000000140145000     pjmedia-x86_64-x64-vc14-debug-dynamic:sdp.obj
 0003:0001b0f8       $SG17637                   00000001401450f8     pjmedia-x86_64-x64-vc14-debug-dynamic:sdp.obj
 0003:0001b138       $SG17692                   0000000140145138     pjmedia-x86_64-x64-vc14-debug-dynamic:sdp.obj
 0003:0001b160       $SG17688                   0000000140145160     pjmedia-x86_64-x64-vc14-debug-dynamic:sdp.obj
 0003:0001b258       $SG17696                   0000000140145258     pjmedia-x86_64-x64-vc14-debug-dynamic:sdp.obj
 0003:0001b290       $SG17691                   0000000140145290     pjmedia-x86_64-x64-vc14-debug-dynamic:sdp.obj
 0003:0001b388       $SG17789                   0000000140145388     pjmedia-x86_64-x64-vc14-debug-dynamic:sdp.obj
 0003:0001b390       $SG17695                   0000000140145390     pjmedia-x86_64-x64-vc14-debug-dynamic:sdp.obj
 0003:0001b488       $SG17830                   0000000140145488     pjmedia-x86_64-x64-vc14-debug-dynamic:sdp.obj
 0003:0001b490       $SG17829                   0000000140145490     pjmedia-x86_64-x64-vc14-debug-dynamic:sdp.obj
 0003:0001b588       $SG17831                   0000000140145588     pjmedia-x86_64-x64-vc14-debug-dynamic:sdp.obj
 0003:0001b58c       $SG17835                   000000014014558c     pjmedia-x86_64-x64-vc14-debug-dynamic:sdp.obj
 0003:0001b590       $SG17837                   0000000140145590     pjmedia-x86_64-x64-vc14-debug-dynamic:sdp.obj
 0003:0001b594       $SG17839                   0000000140145594     pjmedia-x86_64-x64-vc14-debug-dynamic:sdp.obj
 0003:0001b59c       $SG17841                   000000014014559c     pjmedia-x86_64-x64-vc14-debug-dynamic:sdp.obj
 0003:0001b5a4       $SG17843                   00000001401455a4     pjmedia-x86_64-x64-vc14-debug-dynamic:sdp.obj
 0003:0001b5ac       $SG17845                   00000001401455ac     pjmedia-x86_64-x64-vc14-debug-dynamic:sdp.obj
 0003:0001b5b0       $SG17848                   00000001401455b0     pjmedia-x86_64-x64-vc14-debug-dynamic:sdp.obj
 0003:0001b5c0       $SG17850                   00000001401455c0     pjmedia-x86_64-x64-vc14-debug-dynamic:sdp.obj
 0003:0001b5d0       $SG17863                   00000001401455d0     pjmedia-x86_64-x64-vc14-debug-dynamic:sdp.obj
 0003:0001b6c8       $SG17864                   00000001401456c8     pjmedia-x86_64-x64-vc14-debug-dynamic:sdp.obj
 0003:0001b6d0       $SG17904                   00000001401456d0     pjmedia-x86_64-x64-vc14-debug-dynamic:sdp.obj
 0003:0001b7c8       $SG17905                   00000001401457c8     pjmedia-x86_64-x64-vc14-debug-dynamic:sdp.obj
 0003:0001b7e0       $SG17908                   00000001401457e0     pjmedia-x86_64-x64-vc14-debug-dynamic:sdp.obj
 0003:0001b8d8       $SG17909                   00000001401458d8     pjmedia-x86_64-x64-vc14-debug-dynamic:sdp.obj
 0003:0001b908       $SG17912                   0000000140145908     pjmedia-x86_64-x64-vc14-debug-dynamic:sdp.obj
 0003:0001b940       $SG17911                   0000000140145940     pjmedia-x86_64-x64-vc14-debug-dynamic:sdp.obj
 0003:0001c340       $SG14621                   0000000140146340     pjmedia-x86_64-x64-vc14-debug-dynamic:errno.obj
 0003:0001c370       $SG14622                   0000000140146370     pjmedia-x86_64-x64-vc14-debug-dynamic:errno.obj
 0003:0001c3a0       $SG14623                   00000001401463a0     pjmedia-x86_64-x64-vc14-debug-dynamic:errno.obj
 0003:0001c3d0       $SG14624                   00000001401463d0     pjmedia-x86_64-x64-vc14-debug-dynamic:errno.obj
 0003:0001c400       $SG14625                   0000000140146400     pjmedia-x86_64-x64-vc14-debug-dynamic:errno.obj
 0003:0001c430       $SG14626                   0000000140146430     pjmedia-x86_64-x64-vc14-debug-dynamic:errno.obj
 0003:0001c468       $SG14627                   0000000140146468     pjmedia-x86_64-x64-vc14-debug-dynamic:errno.obj
 0003:0001c4a0       $SG14628                   00000001401464a0     pjmedia-x86_64-x64-vc14-debug-dynamic:errno.obj
 0003:0001c4e0       $SG14629                   00000001401464e0     pjmedia-x86_64-x64-vc14-debug-dynamic:errno.obj
 0003:0001c510       $SG14630                   0000000140146510     pjmedia-x86_64-x64-vc14-debug-dynamic:errno.obj
 0003:0001c548       $SG14631                   0000000140146548     pjmedia-x86_64-x64-vc14-debug-dynamic:errno.obj
 0003:0001c590       $SG14632                   0000000140146590     pjmedia-x86_64-x64-vc14-debug-dynamic:errno.obj
 0003:0001c5e0       $SG14633                   00000001401465e0     pjmedia-x86_64-x64-vc14-debug-dynamic:errno.obj
 0003:0001c610       $SG14634                   0000000140146610     pjmedia-x86_64-x64-vc14-debug-dynamic:errno.obj
 0003:0001c650       $SG14635                   0000000140146650     pjmedia-x86_64-x64-vc14-debug-dynamic:errno.obj
 0003:0001c690       $SG14636                   0000000140146690     pjmedia-x86_64-x64-vc14-debug-dynamic:errno.obj
 0003:0001c6c8       $SG14637                   00000001401466c8     pjmedia-x86_64-x64-vc14-debug-dynamic:errno.obj
 0003:0001c700       $SG14638                   0000000140146700     pjmedia-x86_64-x64-vc14-debug-dynamic:errno.obj
 0003:0001c740       $SG14639                   0000000140146740     pjmedia-x86_64-x64-vc14-debug-dynamic:errno.obj
 0003:0001c778       $SG14640                   0000000140146778     pjmedia-x86_64-x64-vc14-debug-dynamic:errno.obj
 0003:0001c7b0       $SG14641                   00000001401467b0     pjmedia-x86_64-x64-vc14-debug-dynamic:errno.obj
 0003:0001c800       $SG14642                   0000000140146800     pjmedia-x86_64-x64-vc14-debug-dynamic:errno.obj
 0003:0001c848       $SG14643                   0000000140146848     pjmedia-x86_64-x64-vc14-debug-dynamic:errno.obj
 0003:0001c888       $SG14644                   0000000140146888     pjmedia-x86_64-x64-vc14-debug-dynamic:errno.obj
 0003:0001c8d0       $SG14645                   00000001401468d0     pjmedia-x86_64-x64-vc14-debug-dynamic:errno.obj
 0003:0001c920       $SG14646                   0000000140146920     pjmedia-x86_64-x64-vc14-debug-dynamic:errno.obj
 0003:0001c970       $SG14647                   0000000140146970     pjmedia-x86_64-x64-vc14-debug-dynamic:errno.obj
 0003:0001c9c0       $SG14648                   00000001401469c0     pjmedia-x86_64-x64-vc14-debug-dynamic:errno.obj
 0003:0001ca10       $SG14649                   0000000140146a10     pjmedia-x86_64-x64-vc14-debug-dynamic:errno.obj
 0003:0001ca58       $SG14650                   0000000140146a58     pjmedia-x86_64-x64-vc14-debug-dynamic:errno.obj
 0003:0001caa0       $SG14651                   0000000140146aa0     pjmedia-x86_64-x64-vc14-debug-dynamic:errno.obj
 0003:0001caf0       $SG14652                   0000000140146af0     pjmedia-x86_64-x64-vc14-debug-dynamic:errno.obj
 0003:0001cb40       $SG14653                   0000000140146b40     pjmedia-x86_64-x64-vc14-debug-dynamic:errno.obj
 0003:0001cb80       $SG14654                   0000000140146b80     pjmedia-x86_64-x64-vc14-debug-dynamic:errno.obj
 0003:0001cbd0       $SG14655                   0000000140146bd0     pjmedia-x86_64-x64-vc14-debug-dynamic:errno.obj
 0003:0001cc20       $SG14656                   0000000140146c20     pjmedia-x86_64-x64-vc14-debug-dynamic:errno.obj
 0003:0001cc68       $SG14657                   0000000140146c68     pjmedia-x86_64-x64-vc14-debug-dynamic:errno.obj
 0003:0001cca8       $SG14658                   0000000140146ca8     pjmedia-x86_64-x64-vc14-debug-dynamic:errno.obj
 0003:0001cce0       $SG14659                   0000000140146ce0     pjmedia-x86_64-x64-vc14-debug-dynamic:errno.obj
 0003:0001cd20       $SG14660                   0000000140146d20     pjmedia-x86_64-x64-vc14-debug-dynamic:errno.obj
 0003:0001cd60       $SG14661                   0000000140146d60     pjmedia-x86_64-x64-vc14-debug-dynamic:errno.obj
 0003:0001cda0       $SG14662                   0000000140146da0     pjmedia-x86_64-x64-vc14-debug-dynamic:errno.obj
 0003:0001cde0       $SG14663                   0000000140146de0     pjmedia-x86_64-x64-vc14-debug-dynamic:errno.obj
 0003:0001ce18       $SG14664                   0000000140146e18     pjmedia-x86_64-x64-vc14-debug-dynamic:errno.obj
 0003:0001ce58       $SG14665                   0000000140146e58     pjmedia-x86_64-x64-vc14-debug-dynamic:errno.obj
 0003:0001ce90       $SG14666                   0000000140146e90     pjmedia-x86_64-x64-vc14-debug-dynamic:errno.obj
 0003:0001cec0       $SG14667                   0000000140146ec0     pjmedia-x86_64-x64-vc14-debug-dynamic:errno.obj
 0003:0001cef8       $SG14668                   0000000140146ef8     pjmedia-x86_64-x64-vc14-debug-dynamic:errno.obj
 0003:0001cf30       $SG14669                   0000000140146f30     pjmedia-x86_64-x64-vc14-debug-dynamic:errno.obj
 0003:0001cf68       $SG14670                   0000000140146f68     pjmedia-x86_64-x64-vc14-debug-dynamic:errno.obj
 0003:0001cfa0       $SG14671                   0000000140146fa0     pjmedia-x86_64-x64-vc14-debug-dynamic:errno.obj
 0003:0001cfd8       $SG14672                   0000000140146fd8     pjmedia-x86_64-x64-vc14-debug-dynamic:errno.obj
 0003:0001d010       $SG14673                   0000000140147010     pjmedia-x86_64-x64-vc14-debug-dynamic:errno.obj
 0003:0001d050       $SG14674                   0000000140147050     pjmedia-x86_64-x64-vc14-debug-dynamic:errno.obj
 0003:0001d088       $SG14675                   0000000140147088     pjmedia-x86_64-x64-vc14-debug-dynamic:errno.obj
 0003:0001d0c8       $SG14676                   00000001401470c8     pjmedia-x86_64-x64-vc14-debug-dynamic:errno.obj
 0003:0001d0f8       $SG14677                   00000001401470f8     pjmedia-x86_64-x64-vc14-debug-dynamic:errno.obj
 0003:0001d138       $SG14678                   0000000140147138     pjmedia-x86_64-x64-vc14-debug-dynamic:errno.obj
 0003:0001d168       $SG14679                   0000000140147168     pjmedia-x86_64-x64-vc14-debug-dynamic:errno.obj
 0003:0001d1a0       $SG14680                   00000001401471a0     pjmedia-x86_64-x64-vc14-debug-dynamic:errno.obj
 0003:0001d1d0       $SG14681                   00000001401471d0     pjmedia-x86_64-x64-vc14-debug-dynamic:errno.obj
 0003:0001d210       $SG14682                   0000000140147210     pjmedia-x86_64-x64-vc14-debug-dynamic:errno.obj
 0003:0001d230       $SG14683                   0000000140147230     pjmedia-x86_64-x64-vc14-debug-dynamic:errno.obj
 0003:0001d268       $SG14684                   0000000140147268     pjmedia-x86_64-x64-vc14-debug-dynamic:errno.obj
 0003:0001d290       $SG14685                   0000000140147290     pjmedia-x86_64-x64-vc14-debug-dynamic:errno.obj
 0003:0001d2d0       $SG14686                   00000001401472d0     pjmedia-x86_64-x64-vc14-debug-dynamic:errno.obj
 0003:0001d300       $SG14687                   0000000140147300     pjmedia-x86_64-x64-vc14-debug-dynamic:errno.obj
 0003:0001d338       $SG14688                   0000000140147338     pjmedia-x86_64-x64-vc14-debug-dynamic:errno.obj
 0003:0001d370       $SG14689                   0000000140147370     pjmedia-x86_64-x64-vc14-debug-dynamic:errno.obj
 0003:0001d3a0       $SG14690                   00000001401473a0     pjmedia-x86_64-x64-vc14-debug-dynamic:errno.obj
 0003:0001d3d8       $SG14691                   00000001401473d8     pjmedia-x86_64-x64-vc14-debug-dynamic:errno.obj
 0003:0001d410       $SG14692                   0000000140147410     pjmedia-x86_64-x64-vc14-debug-dynamic:errno.obj
 0003:0001d450       $SG14693                   0000000140147450     pjmedia-x86_64-x64-vc14-debug-dynamic:errno.obj
 0003:0001d498       $SG14694                   0000000140147498     pjmedia-x86_64-x64-vc14-debug-dynamic:errno.obj
 0003:0001d4c8       $SG14695                   00000001401474c8     pjmedia-x86_64-x64-vc14-debug-dynamic:errno.obj
 0003:0001d500       $SG14696                   0000000140147500     pjmedia-x86_64-x64-vc14-debug-dynamic:errno.obj
 0003:0001d540       $SG14697                   0000000140147540     pjmedia-x86_64-x64-vc14-debug-dynamic:errno.obj
 0003:0001d590       $SG14698                   0000000140147590     pjmedia-x86_64-x64-vc14-debug-dynamic:errno.obj
 0003:0001d5d0       $SG14699                   00000001401475d0     pjmedia-x86_64-x64-vc14-debug-dynamic:errno.obj
 0003:0001d610       $SG14700                   0000000140147610     pjmedia-x86_64-x64-vc14-debug-dynamic:errno.obj
 0003:0001d660       $SG14701                   0000000140147660     pjmedia-x86_64-x64-vc14-debug-dynamic:errno.obj
 0003:0001d6a8       $SG14702                   00000001401476a8     pjmedia-x86_64-x64-vc14-debug-dynamic:errno.obj
 0003:0001d6d8       $SG14703                   00000001401476d8     pjmedia-x86_64-x64-vc14-debug-dynamic:errno.obj
 0003:0001d710       $SG14704                   0000000140147710     pjmedia-x86_64-x64-vc14-debug-dynamic:errno.obj
 0003:0001d740       $SG14705                   0000000140147740     pjmedia-x86_64-x64-vc14-debug-dynamic:errno.obj
 0003:0001d780       $SG14706                   0000000140147780     pjmedia-x86_64-x64-vc14-debug-dynamic:errno.obj
 0003:0001d7b0       $SG14707                   00000001401477b0     pjmedia-x86_64-x64-vc14-debug-dynamic:errno.obj
 0003:0001d7e8       $SG14708                   00000001401477e8     pjmedia-x86_64-x64-vc14-debug-dynamic:errno.obj
 0003:0001d820       $SG14709                   0000000140147820     pjmedia-x86_64-x64-vc14-debug-dynamic:errno.obj
 0003:0001d850       $SG14710                   0000000140147850     pjmedia-x86_64-x64-vc14-debug-dynamic:errno.obj
 0003:0001d8a0       $SG14711                   00000001401478a0     pjmedia-x86_64-x64-vc14-debug-dynamic:errno.obj
 0003:0001d8f0       $SG14712                   00000001401478f0     pjmedia-x86_64-x64-vc14-debug-dynamic:errno.obj
 0003:0001d938       $SG14713                   0000000140147938     pjmedia-x86_64-x64-vc14-debug-dynamic:errno.obj
 0003:0001d978       $SG14714                   0000000140147978     pjmedia-x86_64-x64-vc14-debug-dynamic:errno.obj
 0003:0001d9b8       $SG14715                   00000001401479b8     pjmedia-x86_64-x64-vc14-debug-dynamic:errno.obj
 0003:0001d9f8       $SG14716                   00000001401479f8     pjmedia-x86_64-x64-vc14-debug-dynamic:errno.obj
 0003:0001da38       $SG14717                   0000000140147a38     pjmedia-x86_64-x64-vc14-debug-dynamic:errno.obj
 0003:0001da70       $SG14718                   0000000140147a70     pjmedia-x86_64-x64-vc14-debug-dynamic:errno.obj
 0003:0001dab8       $SG14719                   0000000140147ab8     pjmedia-x86_64-x64-vc14-debug-dynamic:errno.obj
 0003:0001db00       $SG14720                   0000000140147b00     pjmedia-x86_64-x64-vc14-debug-dynamic:errno.obj
 0003:0001db50       $SG14721                   0000000140147b50     pjmedia-x86_64-x64-vc14-debug-dynamic:errno.obj
 0003:0001dba0       $SG14722                   0000000140147ba0     pjmedia-x86_64-x64-vc14-debug-dynamic:errno.obj
 0003:0001dbf0       $SG14723                   0000000140147bf0     pjmedia-x86_64-x64-vc14-debug-dynamic:errno.obj
 0003:0001dc40       $SG14724                   0000000140147c40     pjmedia-x86_64-x64-vc14-debug-dynamic:errno.obj
 0003:0001dca0       $SG14725                   0000000140147ca0     pjmedia-x86_64-x64-vc14-debug-dynamic:errno.obj
 0003:0001dce0       $SG14726                   0000000140147ce0     pjmedia-x86_64-x64-vc14-debug-dynamic:errno.obj
 0003:0001dd28       $SG14755                   0000000140147d28     pjmedia-x86_64-x64-vc14-debug-dynamic:errno.obj
 0003:0001e280       $SG16794                   0000000140148280     pjmedia-x86_64-x64-vc14-debug-dynamic:wsola.obj
 0003:0001e380       $SG16795                   0000000140148380     pjmedia-x86_64-x64-vc14-debug-dynamic:wsola.obj
 0003:0001e3e8       $SG16798                   00000001401483e8     pjmedia-x86_64-x64-vc14-debug-dynamic:wsola.obj
 0003:0001e410       $SG16797                   0000000140148410     pjmedia-x86_64-x64-vc14-debug-dynamic:wsola.obj
 0003:0001e510       $SG16800                   0000000140148510     pjmedia-x86_64-x64-vc14-debug-dynamic:wsola.obj
 0003:0001e610       $SG16801                   0000000140148610     pjmedia-x86_64-x64-vc14-debug-dynamic:wsola.obj
 0003:0001e650       $SG16803                   0000000140148650     pjmedia-x86_64-x64-vc14-debug-dynamic:wsola.obj
 0003:0001e750       $SG16804                   0000000140148750     pjmedia-x86_64-x64-vc14-debug-dynamic:wsola.obj
 0003:0001e778       $SG16806                   0000000140148778     pjmedia-x86_64-x64-vc14-debug-dynamic:wsola.obj
 0003:0001e798       $SG16807                   0000000140148798     pjmedia-x86_64-x64-vc14-debug-dynamic:wsola.obj
 0003:0001e7a0       $SG16810                   00000001401487a0     pjmedia-x86_64-x64-vc14-debug-dynamic:wsola.obj
 0003:0001e8a0       $SG16811                   00000001401488a0     pjmedia-x86_64-x64-vc14-debug-dynamic:wsola.obj
 0003:0001e8f8       $SG16831                   00000001401488f8     pjmedia-x86_64-x64-vc14-debug-dynamic:wsola.obj
 0003:0001e908       $SG16846                   0000000140148908     pjmedia-x86_64-x64-vc14-debug-dynamic:wsola.obj
 0003:0001e930       $SG16830                   0000000140148930     pjmedia-x86_64-x64-vc14-debug-dynamic:wsola.obj
 0003:0001ea30       $SG16845                   0000000140148a30     pjmedia-x86_64-x64-vc14-debug-dynamic:wsola.obj
 0003:0001eb30       $SG16871                   0000000140148b30     pjmedia-x86_64-x64-vc14-debug-dynamic:wsola.obj
 0003:0001eb58       $SG17007                   0000000140148b58     pjmedia-x86_64-x64-vc14-debug-dynamic:wsola.obj
 0003:0001eb70       $SG16872                   0000000140148b70     pjmedia-x86_64-x64-vc14-debug-dynamic:wsola.obj
 0003:0001ec70       $SG16873                   0000000140148c70     pjmedia-x86_64-x64-vc14-debug-dynamic:wsola.obj
 0003:0001ecc0       $SG17003                   0000000140148cc0     pjmedia-x86_64-x64-vc14-debug-dynamic:wsola.obj
 0003:0001edc0       $SG17004                   0000000140148dc0     pjmedia-x86_64-x64-vc14-debug-dynamic:wsola.obj
 0003:0001ee10       $SG17006                   0000000140148e10     pjmedia-x86_64-x64-vc14-debug-dynamic:wsola.obj
 0003:0001ef10       $SG17011                   0000000140148f10     pjmedia-x86_64-x64-vc14-debug-dynamic:wsola.obj
 0003:0001f010       $SG17012                   0000000140149010     pjmedia-x86_64-x64-vc14-debug-dynamic:wsola.obj
 0003:0001f020       $SG17014                   0000000140149020     pjmedia-x86_64-x64-vc14-debug-dynamic:wsola.obj
 0003:0001f040       $SG17015                   0000000140149040     pjmedia-x86_64-x64-vc14-debug-dynamic:wsola.obj
 0003:0001f140       $SG17016                   0000000140149140     pjmedia-x86_64-x64-vc14-debug-dynamic:wsola.obj
 0003:0001f480       $SG22126                   0000000140149480     pjmedia-x86_64-x64-vc14-debug-dynamic:transport_srtp.obj
 0003:0001f488       $SG22128                   0000000140149488     pjmedia-x86_64-x64-vc14-debug-dynamic:transport_srtp.obj
 0003:0001f494       $SG22130                   0000000140149494     pjmedia-x86_64-x64-vc14-debug-dynamic:transport_srtp.obj
 0003:0001f49c       $SG22153                   000000014014949c     pjmedia-x86_64-x64-vc14-debug-dynamic:transport_srtp.obj
 0003:0001f4a4       $SG22329                   00000001401494a4     pjmedia-x86_64-x64-vc14-debug-dynamic:transport_srtp.obj
 0003:0001f4a8       $SG22154                   00000001401494a8     pjmedia-x86_64-x64-vc14-debug-dynamic:transport_srtp.obj
 0003:0001f4c0       $SG22155                   00000001401494c0     pjmedia-x86_64-x64-vc14-debug-dynamic:transport_srtp.obj
 0003:0001f4d8       $SG22156                   00000001401494d8     pjmedia-x86_64-x64-vc14-debug-dynamic:transport_srtp.obj
 0003:0001f4f0       $SG22157                   00000001401494f0     pjmedia-x86_64-x64-vc14-debug-dynamic:transport_srtp.obj
 0003:0001f508       $SG22330                   0000000140149508     pjmedia-x86_64-x64-vc14-debug-dynamic:transport_srtp.obj
 0003:0001f520       $SG22331                   0000000140149520     pjmedia-x86_64-x64-vc14-debug-dynamic:transport_srtp.obj
 0003:0001f538       $SG22332                   0000000140149538     pjmedia-x86_64-x64-vc14-debug-dynamic:transport_srtp.obj
 0003:0001f558       $SG22333                   0000000140149558     pjmedia-x86_64-x64-vc14-debug-dynamic:transport_srtp.obj
 0003:0001f578       $SG22334                   0000000140149578     pjmedia-x86_64-x64-vc14-debug-dynamic:transport_srtp.obj
 0003:0001f590       $SG22335                   0000000140149590     pjmedia-x86_64-x64-vc14-debug-dynamic:transport_srtp.obj
 0003:0001f5b8       $SG22336                   00000001401495b8     pjmedia-x86_64-x64-vc14-debug-dynamic:transport_srtp.obj
 0003:0001f5d0       $SG22337                   00000001401495d0     pjmedia-x86_64-x64-vc14-debug-dynamic:transport_srtp.obj
 0003:0001f5e0       $SG22338                   00000001401495e0     pjmedia-x86_64-x64-vc14-debug-dynamic:transport_srtp.obj
 0003:0001f600       $SG22339                   0000000140149600     pjmedia-x86_64-x64-vc14-debug-dynamic:transport_srtp.obj
 0003:0001f628       $SG22340                   0000000140149628     pjmedia-x86_64-x64-vc14-debug-dynamic:transport_srtp.obj
 0003:0001f648       $SG22341                   0000000140149648     pjmedia-x86_64-x64-vc14-debug-dynamic:transport_srtp.obj
 0003:0001f660       $SG22342                   0000000140149660     pjmedia-x86_64-x64-vc14-debug-dynamic:transport_srtp.obj
 0003:0001f680       $SG22343                   0000000140149680     pjmedia-x86_64-x64-vc14-debug-dynamic:transport_srtp.obj
 0003:0001f6a8       $SG22344                   00000001401496a8     pjmedia-x86_64-x64-vc14-debug-dynamic:transport_srtp.obj
 0003:0001f6c0       $SG22345                   00000001401496c0     pjmedia-x86_64-x64-vc14-debug-dynamic:transport_srtp.obj
 0003:0001f6d8       $SG22346                   00000001401496d8     pjmedia-x86_64-x64-vc14-debug-dynamic:transport_srtp.obj
 0003:0001f6f8       $SG22347                   00000001401496f8     pjmedia-x86_64-x64-vc14-debug-dynamic:transport_srtp.obj
 0003:0001f710       $SG22348                   0000000140149710     pjmedia-x86_64-x64-vc14-debug-dynamic:transport_srtp.obj
 0003:0001f728       $SG22349                   0000000140149728     pjmedia-x86_64-x64-vc14-debug-dynamic:transport_srtp.obj
 0003:0001f740       $SG22350                   0000000140149740     pjmedia-x86_64-x64-vc14-debug-dynamic:transport_srtp.obj
 0003:0001f758       $SG22351                   0000000140149758     pjmedia-x86_64-x64-vc14-debug-dynamic:transport_srtp.obj
 0003:0001f770       $SG22352                   0000000140149770     pjmedia-x86_64-x64-vc14-debug-dynamic:transport_srtp.obj
 0003:0001f790       $SG22353                   0000000140149790     pjmedia-x86_64-x64-vc14-debug-dynamic:transport_srtp.obj
 0003:0001f7a8       $SG22423                   00000001401497a8     pjmedia-x86_64-x64-vc14-debug-dynamic:transport_srtp.obj
 0003:0001f7b0       crypto_suites              00000001401497b0     pjmedia-x86_64-x64-vc14-debug-dynamic:transport_srtp.obj
 0003:0001f8c8       $SG22486                   00000001401498c8     pjmedia-x86_64-x64-vc14-debug-dynamic:transport_srtp.obj
 0003:0001f8e0       transport_srtp_op          00000001401498e0     pjmedia-x86_64-x64-vc14-debug-dynamic:transport_srtp.obj
 0003:0001f948       $SG22491                   0000000140149948     pjmedia-x86_64-x64-vc14-debug-dynamic:transport_srtp.obj
 0003:0001f970       ?liberr@?1??get_libsrtp_errstr@@9@9 0000000140149970     pjmedia-x86_64-x64-vc14-debug-dynamic:transport_srtp.obj
 0003:0001fa38       $SG22356                   0000000140149a38     pjmedia-x86_64-x64-vc14-debug-dynamic:transport_srtp.obj
 0003:0001fa58       $SG22492                   0000000140149a58     pjmedia-x86_64-x64-vc14-debug-dynamic:transport_srtp.obj
 0003:0001fa70       sdes_op                    0000000140149a70     pjmedia-x86_64-x64-vc14-debug-dynamic:transport_srtp.obj
 0003:0001fad8       $SG22425                   0000000140149ad8     pjmedia-x86_64-x64-vc14-debug-dynamic:transport_srtp.obj
 0003:0001faf8       $SG22496                   0000000140149af8     pjmedia-x86_64-x64-vc14-debug-dynamic:transport_srtp.obj
 0003:0001fb08       $SG22540                   0000000140149b08     pjmedia-x86_64-x64-vc14-debug-dynamic:transport_srtp.obj
 0003:0001fb10       $SG22482                   0000000140149b10     pjmedia-x86_64-x64-vc14-debug-dynamic:transport_srtp.obj
 0003:0001fc28       $SG22543                   0000000140149c28     pjmedia-x86_64-x64-vc14-debug-dynamic:transport_srtp.obj
 0003:0001fc48       $SG22544                   0000000140149c48     pjmedia-x86_64-x64-vc14-debug-dynamic:transport_srtp.obj
 0003:0001fc60       $SG22483                   0000000140149c60     pjmedia-x86_64-x64-vc14-debug-dynamic:transport_srtp.obj
 0003:0001fcb8       $SG22549                   0000000140149cb8     pjmedia-x86_64-x64-vc14-debug-dynamic:transport_srtp.obj
 0003:0001fce0       $SG22485                   0000000140149ce0     pjmedia-x86_64-x64-vc14-debug-dynamic:transport_srtp.obj
 0003:0001fd28       $SG22550                   0000000140149d28     pjmedia-x86_64-x64-vc14-debug-dynamic:transport_srtp.obj
 0003:0001fd40       $SG22494                   0000000140149d40     pjmedia-x86_64-x64-vc14-debug-dynamic:transport_srtp.obj
 0003:0001fe58       $SG22551                   0000000140149e58     pjmedia-x86_64-x64-vc14-debug-dynamic:transport_srtp.obj
 0003:0001fe60       $SG22495                   0000000140149e60     pjmedia-x86_64-x64-vc14-debug-dynamic:transport_srtp.obj
 0003:0001fecc       $SG22561                   0000000140149ecc     pjmedia-x86_64-x64-vc14-debug-dynamic:transport_srtp.obj
 0003:0001fed0       $SG22554                   0000000140149ed0     pjmedia-x86_64-x64-vc14-debug-dynamic:transport_srtp.obj
 0003:0001fef8       $SG22555                   0000000140149ef8     pjmedia-x86_64-x64-vc14-debug-dynamic:transport_srtp.obj
 0003:0001ff0c       $SG22557                   0000000140149f0c     pjmedia-x86_64-x64-vc14-debug-dynamic:transport_srtp.obj
 0003:0001ff18       $SG22559                   0000000140149f18     pjmedia-x86_64-x64-vc14-debug-dynamic:transport_srtp.obj
 0003:0001ff50       $SG22560                   0000000140149f50     pjmedia-x86_64-x64-vc14-debug-dynamic:transport_srtp.obj
 0003:0001ff68       $SG22564                   0000000140149f68     pjmedia-x86_64-x64-vc14-debug-dynamic:transport_srtp.obj
 0003:0001ff88       $SG22565                   0000000140149f88     pjmedia-x86_64-x64-vc14-debug-dynamic:transport_srtp.obj
 0003:0001ffa0       $SG22568                   0000000140149fa0     pjmedia-x86_64-x64-vc14-debug-dynamic:transport_srtp.obj
 0003:0001ffb0       $SG22569                   0000000140149fb0     pjmedia-x86_64-x64-vc14-debug-dynamic:transport_srtp.obj
 0003:0001ffc8       $SG22571                   0000000140149fc8     pjmedia-x86_64-x64-vc14-debug-dynamic:transport_srtp.obj
 0003:0001fff0       $SG22572                   0000000140149ff0     pjmedia-x86_64-x64-vc14-debug-dynamic:transport_srtp.obj
 0003:00020008       $SG22673                   000000014014a008     pjmedia-x86_64-x64-vc14-debug-dynamic:transport_srtp.obj
 0003:00020030       $SG22672                   000000014014a030     pjmedia-x86_64-x64-vc14-debug-dynamic:transport_srtp.obj
 0003:00020148       $SG22821                   000000014014a148     pjmedia-x86_64-x64-vc14-debug-dynamic:transport_srtp.obj
 0003:00020170       $SG22822                   000000014014a170     pjmedia-x86_64-x64-vc14-debug-dynamic:transport_srtp.obj
 0003:00020188       $SG22824                   000000014014a188     pjmedia-x86_64-x64-vc14-debug-dynamic:transport_srtp.obj
 0003:000201b0       $SG22825                   000000014014a1b0     pjmedia-x86_64-x64-vc14-debug-dynamic:transport_srtp.obj
 0003:000201c8       $SG22837                   000000014014a1c8     pjmedia-x86_64-x64-vc14-debug-dynamic:transport_srtp.obj
 0003:000201f0       $SG22838                   000000014014a1f0     pjmedia-x86_64-x64-vc14-debug-dynamic:transport_srtp.obj
 0003:00020208       $SG22867                   000000014014a208     pjmedia-x86_64-x64-vc14-debug-dynamic:transport_srtp.obj
 0003:00020210       $SG22866                   000000014014a210     pjmedia-x86_64-x64-vc14-debug-dynamic:transport_srtp.obj
 0003:00020320       $SG22885                   000000014014a320     pjmedia-x86_64-x64-vc14-debug-dynamic:transport_srtp.obj
 0003:00020430       $SG22886                   000000014014a430     pjmedia-x86_64-x64-vc14-debug-dynamic:transport_srtp.obj
 0003:00020450       $SG22901                   000000014014a450     pjmedia-x86_64-x64-vc14-debug-dynamic:transport_srtp.obj
 0003:00020560       $SG22902                   000000014014a560     pjmedia-x86_64-x64-vc14-debug-dynamic:transport_srtp.obj
 0003:00020580       $SG22941                   000000014014a580     pjmedia-x86_64-x64-vc14-debug-dynamic:transport_srtp.obj
 0003:00020690       $SG22942                   000000014014a690     pjmedia-x86_64-x64-vc14-debug-dynamic:transport_srtp.obj
 0003:000206b8       $SG22947                   000000014014a6b8     pjmedia-x86_64-x64-vc14-debug-dynamic:transport_srtp.obj
 0003:000206c0       $SG23013                   000000014014a6c0     pjmedia-x86_64-x64-vc14-debug-dynamic:transport_srtp.obj
 0003:000207d0       $SG23014                   000000014014a7d0     pjmedia-x86_64-x64-vc14-debug-dynamic:transport_srtp.obj
 0003:000207f0       $SG23041                   000000014014a7f0     pjmedia-x86_64-x64-vc14-debug-dynamic:transport_srtp.obj
 0003:00020808       $SG23043                   000000014014a808     pjmedia-x86_64-x64-vc14-debug-dynamic:transport_srtp.obj
 0003:00020818       $SG23047                   000000014014a818     pjmedia-x86_64-x64-vc14-debug-dynamic:transport_srtp.obj
 0003:00020820       $SG23049                   000000014014a820     pjmedia-x86_64-x64-vc14-debug-dynamic:transport_srtp.obj
 0003:00020828       $SG23050                   000000014014a828     pjmedia-x86_64-x64-vc14-debug-dynamic:transport_srtp.obj
 0003:00020838       $SG23053                   000000014014a838     pjmedia-x86_64-x64-vc14-debug-dynamic:transport_srtp.obj
 0003:00020850       $SG23055                   000000014014a850     pjmedia-x86_64-x64-vc14-debug-dynamic:transport_srtp.obj
 0003:00020860       $SG23059                   000000014014a860     pjmedia-x86_64-x64-vc14-debug-dynamic:transport_srtp.obj
 0003:00020868       $SG23061                   000000014014a868     pjmedia-x86_64-x64-vc14-debug-dynamic:transport_srtp.obj
 0003:00020870       $SG23062                   000000014014a870     pjmedia-x86_64-x64-vc14-debug-dynamic:transport_srtp.obj
 0003:00020880       $SG23081                   000000014014a880     pjmedia-x86_64-x64-vc14-debug-dynamic:transport_srtp.obj
 0003:00020990       $SG23082                   000000014014a990     pjmedia-x86_64-x64-vc14-debug-dynamic:transport_srtp.obj
 0003:000209a0       $SG23086                   000000014014a9a0     pjmedia-x86_64-x64-vc14-debug-dynamic:transport_srtp.obj
 0003:000209c8       $SG23089                   000000014014a9c8     pjmedia-x86_64-x64-vc14-debug-dynamic:transport_srtp.obj
 0003:000209f0       $SG23105                   000000014014a9f0     pjmedia-x86_64-x64-vc14-debug-dynamic:transport_srtp.obj
 0003:00020a00       $SG23110                   000000014014aa00     pjmedia-x86_64-x64-vc14-debug-dynamic:transport_srtp.obj
 0003:00020a08       $SG23111                   000000014014aa08     pjmedia-x86_64-x64-vc14-debug-dynamic:transport_srtp.obj
 0003:00020a18       $SG23112                   000000014014aa18     pjmedia-x86_64-x64-vc14-debug-dynamic:transport_srtp.obj
 0003:00020a40       $SG23125                   000000014014aa40     pjmedia-x86_64-x64-vc14-debug-dynamic:transport_srtp.obj
 0003:00020b4c       $SG23126                   000000014014ab4c     pjmedia-x86_64-x64-vc14-debug-dynamic:transport_srtp.obj
 0003:00020b58       $SG23162                   000000014014ab58     pjmedia-x86_64-x64-vc14-debug-dynamic:transport_srtp.obj
 0003:00020b70       $SG23161                   000000014014ab70     pjmedia-x86_64-x64-vc14-debug-dynamic:transport_srtp.obj
 0003:00020c80       $SG23164                   000000014014ac80     pjmedia-x86_64-x64-vc14-debug-dynamic:transport_srtp.obj
 0003:00020d90       $SG23165                   000000014014ad90     pjmedia-x86_64-x64-vc14-debug-dynamic:transport_srtp.obj
 0003:00020dc8       $SG23188                   000000014014adc8     pjmedia-x86_64-x64-vc14-debug-dynamic:transport_srtp.obj
 0003:00020de0       $SG23187                   000000014014ade0     pjmedia-x86_64-x64-vc14-debug-dynamic:transport_srtp.obj
 0003:00020ef0       $SG23209                   000000014014aef0     pjmedia-x86_64-x64-vc14-debug-dynamic:transport_srtp.obj
 0003:00020ffc       $SG23210                   000000014014affc     pjmedia-x86_64-x64-vc14-debug-dynamic:transport_srtp.obj
 0003:00021004       $SG23277                   000000014014b004     pjmedia-x86_64-x64-vc14-debug-dynamic:transport_srtp.obj
 0003:00021010       $SG23276                   000000014014b010     pjmedia-x86_64-x64-vc14-debug-dynamic:transport_srtp.obj
 0003:00021120       $SG23294                   000000014014b120     pjmedia-x86_64-x64-vc14-debug-dynamic:transport_srtp.obj
 0003:0002122c       $SG23295                   000000014014b22c     pjmedia-x86_64-x64-vc14-debug-dynamic:transport_srtp.obj
 0003:00021238       $SG23353                   000000014014b238     pjmedia-x86_64-x64-vc14-debug-dynamic:transport_srtp.obj
 0003:00021274       $SG23446                   000000014014b274     pjmedia-x86_64-x64-vc14-debug-dynamic:transport_srtp.obj
 0003:00021280       $SG23352                   000000014014b280     pjmedia-x86_64-x64-vc14-debug-dynamic:transport_srtp.obj
 0003:00021390       $SG23364                   000000014014b390     pjmedia-x86_64-x64-vc14-debug-dynamic:transport_srtp.obj
 0003:000213b0       $SG23369                   000000014014b3b0     pjmedia-x86_64-x64-vc14-debug-dynamic:transport_srtp.obj
 0003:000213e0       $SG23405                   000000014014b3e0     pjmedia-x86_64-x64-vc14-debug-dynamic:transport_srtp.obj
 0003:000214f0       $SG23406                   000000014014b4f0     pjmedia-x86_64-x64-vc14-debug-dynamic:transport_srtp.obj
 0003:00021530       $SG23412                   000000014014b530     pjmedia-x86_64-x64-vc14-debug-dynamic:transport_srtp.obj
 0003:00021560       $SG23445                   000000014014b560     pjmedia-x86_64-x64-vc14-debug-dynamic:transport_srtp.obj
 0003:00021670       $SG23492                   000000014014b670     pjmedia-x86_64-x64-vc14-debug-dynamic:transport_srtp.obj
 0003:00021780       $SG23493                   000000014014b780     pjmedia-x86_64-x64-vc14-debug-dynamic:transport_srtp.obj
 0003:000217b8       $SG23506                   000000014014b7b8     pjmedia-x86_64-x64-vc14-debug-dynamic:transport_srtp.obj
 0003:000217c0       $SG23503                   000000014014b7c0     pjmedia-x86_64-x64-vc14-debug-dynamic:transport_srtp.obj
 0003:000218d0       $SG23504                   000000014014b8d0     pjmedia-x86_64-x64-vc14-debug-dynamic:transport_srtp.obj
 0003:00021900       $SG23507                   000000014014b900     pjmedia-x86_64-x64-vc14-debug-dynamic:transport_srtp.obj
 0003:00021910       $SG23508                   000000014014b910     pjmedia-x86_64-x64-vc14-debug-dynamic:transport_srtp.obj
 0003:00021930       $SG23536                   000000014014b930     pjmedia-x86_64-x64-vc14-debug-dynamic:transport_srtp.obj
 0003:00021a3c       $SG23537                   000000014014ba3c     pjmedia-x86_64-x64-vc14-debug-dynamic:transport_srtp.obj
 0003:00021a48       $SG23539                   000000014014ba48     pjmedia-x86_64-x64-vc14-debug-dynamic:transport_srtp.obj
 0003:00021a74       $SG23565                   000000014014ba74     pjmedia-x86_64-x64-vc14-debug-dynamic:transport_srtp.obj
 0003:00021a80       $SG23538                   000000014014ba80     pjmedia-x86_64-x64-vc14-debug-dynamic:transport_srtp.obj
 0003:00021b90       $SG23564                   000000014014bb90     pjmedia-x86_64-x64-vc14-debug-dynamic:transport_srtp.obj
 0003:00021ca0       $SG23567                   000000014014bca0     pjmedia-x86_64-x64-vc14-debug-dynamic:transport_srtp.obj
 0003:00021cd0       $SG23603                   000000014014bcd0     pjmedia-x86_64-x64-vc14-debug-dynamic:transport_srtp.obj
 0003:00021de0       $SG23604                   000000014014bde0     pjmedia-x86_64-x64-vc14-debug-dynamic:transport_srtp.obj
 0003:00021e20       $SG23606                   000000014014be20     pjmedia-x86_64-x64-vc14-debug-dynamic:transport_srtp.obj
 0003:00021f30       $SG23607                   000000014014bf30     pjmedia-x86_64-x64-vc14-debug-dynamic:transport_srtp.obj
 0003:00021f60       $SG23608                   000000014014bf60     pjmedia-x86_64-x64-vc14-debug-dynamic:transport_srtp.obj
 0003:00022070       $SG23609                   000000014014c070     pjmedia-x86_64-x64-vc14-debug-dynamic:transport_srtp.obj
 0003:000220b0       $SG23616                   000000014014c0b0     pjmedia-x86_64-x64-vc14-debug-dynamic:transport_srtp.obj
 0003:000229c0       $SG15294                   000000014014c9c0     pjlib-util-x86_64-x64-vc14-debug-dynamic:scanner.obj
 0003:00022ad0       $SG15295                   000000014014cad0     pjlib-util-x86_64-x64-vc14-debug-dynamic:scanner.obj
 0003:00022af0       $SG15363                   000000014014caf0     pjlib-util-x86_64-x64-vc14-debug-dynamic:scanner.obj
 0003:00022b80       $SG15369                   000000014014cb80     pjlib-util-x86_64-x64-vc14-debug-dynamic:scanner.obj
 0003:00022c10       $SG15454                   000000014014cc10     pjlib-util-x86_64-x64-vc14-debug-dynamic:scanner.obj
 0003:00022d20       $SG15455                   000000014014cd20     pjlib-util-x86_64-x64-vc14-debug-dynamic:scanner.obj
 0003:00022d50       $SG15479                   000000014014cd50     pjlib-util-x86_64-x64-vc14-debug-dynamic:scanner.obj
 0003:00022e60       $SG15480                   000000014014ce60     pjlib-util-x86_64-x64-vc14-debug-dynamic:scanner.obj
 0003:00022e90       $SG15481                   000000014014ce90     pjlib-util-x86_64-x64-vc14-debug-dynamic:scanner.obj
 0003:00022fa0       $SG15482                   000000014014cfa0     pjlib-util-x86_64-x64-vc14-debug-dynamic:scanner.obj
 0003:00022fe0       $SG15532                   000000014014cfe0     pjlib-util-x86_64-x64-vc14-debug-dynamic:scanner.obj
 0003:000230f0       $SG15533                   000000014014d0f0     pjlib-util-x86_64-x64-vc14-debug-dynamic:scanner.obj
 0003:00023280       $SG8053                    000000014014d280     pjlib-util-x86_64-x64-vc14-debug-dynamic:base64.obj
 0003:00023388       $SG8054                    000000014014d388     pjlib-util-x86_64-x64-vc14-debug-dynamic:base64.obj
 0003:000233c0       $SG8056                    000000014014d3c0     pjlib-util-x86_64-x64-vc14-debug-dynamic:base64.obj
 0003:000234d0       $SG8057                    000000014014d4d0     pjlib-util-x86_64-x64-vc14-debug-dynamic:base64.obj
 0003:00023520       $SG8106                    000000014014d520     pjlib-util-x86_64-x64-vc14-debug-dynamic:base64.obj
 0003:00023628       $SG8107                    000000014014d628     pjlib-util-x86_64-x64-vc14-debug-dynamic:base64.obj
 0003:00023660       $SG8109                    000000014014d660     pjlib-util-x86_64-x64-vc14-debug-dynamic:base64.obj
 0003:00023768       $SG8110                    000000014014d768     pjlib-util-x86_64-x64-vc14-debug-dynamic:base64.obj
 0003:000237a0       $SG8115                    000000014014d7a0     pjlib-util-x86_64-x64-vc14-debug-dynamic:base64.obj
 0003:000238a8       $SG8116                    000000014014d8a8     pjlib-util-x86_64-x64-vc14-debug-dynamic:base64.obj
 0003:00023a10       thread_tls_id              000000014014da10     pjlib-x86_64-x64-vc14-debug-dynamic:os_core_win32.obj
 0003:00023a14       $SG59757                   000000014014da14     pjlib-x86_64-x64-vc14-debug-dynamic:os_core_win32.obj
 0003:00023a20       $SG59758                   000000014014da20     pjlib-x86_64-x64-vc14-debug-dynamic:os_core_win32.obj
 0003:00023a30       $SG59762                   000000014014da30     pjlib-x86_64-x64-vc14-debug-dynamic:os_core_win32.obj
 0003:00023b2c       $SG59960                   000000014014db2c     pjlib-x86_64-x64-vc14-debug-dynamic:os_core_win32.obj
 0003:00023b30       $SG59763                   000000014014db30     pjlib-x86_64-x64-vc14-debug-dynamic:os_core_win32.obj
 0003:00023b54       $SG59976                   000000014014db54     pjlib-x86_64-x64-vc14-debug-dynamic:os_core_win32.obj
 0003:00023b58       $SG59765                   000000014014db58     pjlib-x86_64-x64-vc14-debug-dynamic:os_core_win32.obj
 0003:00023b78       $SG59766                   000000014014db78     pjlib-x86_64-x64-vc14-debug-dynamic:os_core_win32.obj
 0003:00023b88       $SG59788                   000000014014db88     pjlib-x86_64-x64-vc14-debug-dynamic:os_core_win32.obj
 0003:00023bb0       $SG59784                   000000014014dbb0     pjlib-x86_64-x64-vc14-debug-dynamic:os_core_win32.obj
 0003:00023cac       $SG60007                   000000014014dcac     pjlib-x86_64-x64-vc14-debug-dynamic:os_core_win32.obj
 0003:00023cb0       $SG59785                   000000014014dcb0     pjlib-x86_64-x64-vc14-debug-dynamic:os_core_win32.obj
 0003:00023cd0       $SG59793                   000000014014dcd0     pjlib-x86_64-x64-vc14-debug-dynamic:os_core_win32.obj
 0003:00023d50       $SG59815                   000000014014dd50     pjlib-x86_64-x64-vc14-debug-dynamic:os_core_win32.obj
 0003:00023e4c       $SG60027                   000000014014de4c     pjlib-x86_64-x64-vc14-debug-dynamic:os_core_win32.obj
 0003:00023e50       $SG59816                   000000014014de50     pjlib-x86_64-x64-vc14-debug-dynamic:os_core_win32.obj
 0003:00023e60       $SG59819                   000000014014de60     pjlib-x86_64-x64-vc14-debug-dynamic:os_core_win32.obj
 0003:00023f60       $SG59820                   000000014014df60     pjlib-x86_64-x64-vc14-debug-dynamic:os_core_win32.obj
 0003:00023f90       $SG59840                   000000014014df90     pjlib-x86_64-x64-vc14-debug-dynamic:os_core_win32.obj
 0003:00024090       $SG59841                   000000014014e090     pjlib-x86_64-x64-vc14-debug-dynamic:os_core_win32.obj
 0003:000240a0       $SG59863                   000000014014e0a0     pjlib-x86_64-x64-vc14-debug-dynamic:os_core_win32.obj
 0003:000240c0       $SG59864                   000000014014e0c0     pjlib-x86_64-x64-vc14-debug-dynamic:os_core_win32.obj
 0003:000241c0       $SG59865                   000000014014e1c0     pjlib-x86_64-x64-vc14-debug-dynamic:os_core_win32.obj
 0003:00024208       $SG59869                   000000014014e208     pjlib-x86_64-x64-vc14-debug-dynamic:os_core_win32.obj
 0003:00024210       $SG59876                   000000014014e210     pjlib-x86_64-x64-vc14-debug-dynamic:os_core_win32.obj
 0003:00024218       $SG59897                   000000014014e218     pjlib-x86_64-x64-vc14-debug-dynamic:os_core_win32.obj
 0003:00024240       $SG59898                   000000014014e240     pjlib-x86_64-x64-vc14-debug-dynamic:os_core_win32.obj
 0003:00024340       $SG59899                   000000014014e340     pjlib-x86_64-x64-vc14-debug-dynamic:os_core_win32.obj
 0003:00024390       $SG59903                   000000014014e390     pjlib-x86_64-x64-vc14-debug-dynamic:os_core_win32.obj
 0003:000243b8       $SG59938                   000000014014e3b8     pjlib-x86_64-x64-vc14-debug-dynamic:os_core_win32.obj
 0003:000243f0       $SG59934                   000000014014e3f0     pjlib-x86_64-x64-vc14-debug-dynamic:os_core_win32.obj
 0003:00024470       $SG59937                   000000014014e470     pjlib-x86_64-x64-vc14-debug-dynamic:os_core_win32.obj
 0003:0002456c       $SG59942                   000000014014e56c     pjlib-x86_64-x64-vc14-debug-dynamic:os_core_win32.obj
 0003:00024578       $SG60049                   000000014014e578     pjlib-x86_64-x64-vc14-debug-dynamic:os_core_win32.obj
 0003:00024588       $SG60050                   000000014014e588     pjlib-x86_64-x64-vc14-debug-dynamic:os_core_win32.obj
 0003:000245a0       $SG59957                   000000014014e5a0     pjlib-x86_64-x64-vc14-debug-dynamic:os_core_win32.obj
 0003:00024620       $SG59959                   000000014014e620     pjlib-x86_64-x64-vc14-debug-dynamic:os_core_win32.obj
 0003:00024720       $SG59973                   000000014014e720     pjlib-x86_64-x64-vc14-debug-dynamic:os_core_win32.obj
 0003:000247a0       $SG59975                   000000014014e7a0     pjlib-x86_64-x64-vc14-debug-dynamic:os_core_win32.obj
 0003:000248a0       $SG59986                   000000014014e8a0     pjlib-x86_64-x64-vc14-debug-dynamic:os_core_win32.obj
 0003:00024930       $SG59987                   000000014014e930     pjlib-x86_64-x64-vc14-debug-dynamic:os_core_win32.obj
 0003:00024a30       $SG59988                   000000014014ea30     pjlib-x86_64-x64-vc14-debug-dynamic:os_core_win32.obj
 0003:00024b60       $SG60004                   000000014014eb60     pjlib-x86_64-x64-vc14-debug-dynamic:os_core_win32.obj
 0003:00024be0       $SG60006                   000000014014ebe0     pjlib-x86_64-x64-vc14-debug-dynamic:os_core_win32.obj
 0003:00024ce0       $SG60024                   000000014014ece0     pjlib-x86_64-x64-vc14-debug-dynamic:os_core_win32.obj
 0003:00024d60       $SG60026                   000000014014ed60     pjlib-x86_64-x64-vc14-debug-dynamic:os_core_win32.obj
 0003:00024e60       $SG60033                   000000014014ee60     pjlib-x86_64-x64-vc14-debug-dynamic:os_core_win32.obj
 0003:00024ee0       $SG60048                   000000014014eee0     pjlib-x86_64-x64-vc14-debug-dynamic:os_core_win32.obj
 0003:00024fe0       $SG60051                   000000014014efe0     pjlib-x86_64-x64-vc14-debug-dynamic:os_core_win32.obj
 0003:000250e0       $SG60052                   000000014014f0e0     pjlib-x86_64-x64-vc14-debug-dynamic:os_core_win32.obj
 0003:00025158       $SG60067                   000000014014f158     pjlib-x86_64-x64-vc14-debug-dynamic:os_core_win32.obj
 0003:00025168       $SG60089                   000000014014f168     pjlib-x86_64-x64-vc14-debug-dynamic:os_core_win32.obj
 0003:00025170       $SG60066                   000000014014f170     pjlib-x86_64-x64-vc14-debug-dynamic:os_core_win32.obj
 0003:00025270       $SG60088                   000000014014f270     pjlib-x86_64-x64-vc14-debug-dynamic:os_core_win32.obj
 0003:00025370       $SG60100                   000000014014f370     pjlib-x86_64-x64-vc14-debug-dynamic:os_core_win32.obj
 0003:000253f0       $SG60101                   000000014014f3f0     pjlib-x86_64-x64-vc14-debug-dynamic:os_core_win32.obj
 0003:000254f0       $SG60102                   000000014014f4f0     pjlib-x86_64-x64-vc14-debug-dynamic:os_core_win32.obj
 0003:00025508       $SG60115                   000000014014f508     pjlib-x86_64-x64-vc14-debug-dynamic:os_core_win32.obj
 0003:00025520       $SG60112                   000000014014f520     pjlib-x86_64-x64-vc14-debug-dynamic:os_core_win32.obj
 0003:000255a0       $SG60114                   000000014014f5a0     pjlib-x86_64-x64-vc14-debug-dynamic:os_core_win32.obj
 0003:000256a0       $SG60119                   000000014014f6a0     pjlib-x86_64-x64-vc14-debug-dynamic:os_core_win32.obj
 0003:00025720       $SG60128                   000000014014f720     pjlib-x86_64-x64-vc14-debug-dynamic:os_core_win32.obj
 0003:00025820       $SG60129                   000000014014f820     pjlib-x86_64-x64-vc14-debug-dynamic:os_core_win32.obj
 0003:00025838       $SG60144                   000000014014f838     pjlib-x86_64-x64-vc14-debug-dynamic:os_core_win32.obj
 0003:00025850       $SG60134                   000000014014f850     pjlib-x86_64-x64-vc14-debug-dynamic:os_core_win32.obj
 0003:000258d0       $SG60143                   000000014014f8d0     pjlib-x86_64-x64-vc14-debug-dynamic:os_core_win32.obj
 0003:000259d0       $SG60156                   000000014014f9d0     pjlib-x86_64-x64-vc14-debug-dynamic:os_core_win32.obj
 0003:00025ad0       $SG60157                   000000014014fad0     pjlib-x86_64-x64-vc14-debug-dynamic:os_core_win32.obj
 0003:00025ae8       $SG60205                   000000014014fae8     pjlib-x86_64-x64-vc14-debug-dynamic:os_core_win32.obj
 0003:00025af0       $SG60177                   000000014014faf0     pjlib-x86_64-x64-vc14-debug-dynamic:os_core_win32.obj
 0003:00025bf0       $SG60178                   000000014014fbf0     pjlib-x86_64-x64-vc14-debug-dynamic:os_core_win32.obj
 0003:00025c20       $SG60184                   000000014014fc20     pjlib-x86_64-x64-vc14-debug-dynamic:os_core_win32.obj
 0003:00025ca0       $SG60203                   000000014014fca0     pjlib-x86_64-x64-vc14-debug-dynamic:os_core_win32.obj
 0003:00025d20       $SG60228                   000000014014fd20     pjlib-x86_64-x64-vc14-debug-dynamic:os_core_win32.obj
 0003:00025e20       $SG60229                   000000014014fe20     pjlib-x86_64-x64-vc14-debug-dynamic:os_core_win32.obj
 0003:00025e44       $SG60480                   000000014014fe44     pjlib-x86_64-x64-vc14-debug-dynamic:os_core_win32.obj
 0003:00025e50       $SG60261                   000000014014fe50     pjlib-x86_64-x64-vc14-debug-dynamic:os_core_win32.obj
 0003:00025ed0       $SG60263                   000000014014fed0     pjlib-x86_64-x64-vc14-debug-dynamic:os_core_win32.obj
 0003:00025fd0       $SG60264                   000000014014ffd0     pjlib-x86_64-x64-vc14-debug-dynamic:os_core_win32.obj
 0003:00025fe0       $SG60283                   000000014014ffe0     pjlib-x86_64-x64-vc14-debug-dynamic:os_core_win32.obj
 0003:00026060       $SG60285                   0000000140150060     pjlib-x86_64-x64-vc14-debug-dynamic:os_core_win32.obj
 0003:00026160       $SG60286                   0000000140150160     pjlib-x86_64-x64-vc14-debug-dynamic:os_core_win32.obj
 0003:00026170       $SG60287                   0000000140150170     pjlib-x86_64-x64-vc14-debug-dynamic:os_core_win32.obj
 0003:00026270       $SG60288                   0000000140150270     pjlib-x86_64-x64-vc14-debug-dynamic:os_core_win32.obj
 0003:000262b8       $SG60312                   00000001401502b8     pjlib-x86_64-x64-vc14-debug-dynamic:os_core_win32.obj
 0003:000262c4       $SG60611                   00000001401502c4     pjlib-x86_64-x64-vc14-debug-dynamic:os_core_win32.obj
 0003:000262d0       $SG60309                   00000001401502d0     pjlib-x86_64-x64-vc14-debug-dynamic:os_core_win32.obj
 0003:00026350       $SG60311                   0000000140150350     pjlib-x86_64-x64-vc14-debug-dynamic:os_core_win32.obj
 0003:00026450       $SG60329                   0000000140150450     pjlib-x86_64-x64-vc14-debug-dynamic:os_core_win32.obj
 0003:000264d0       $SG60331                   00000001401504d0     pjlib-x86_64-x64-vc14-debug-dynamic:os_core_win32.obj
 0003:000265d0       $SG60332                   00000001401505d0     pjlib-x86_64-x64-vc14-debug-dynamic:os_core_win32.obj
 0003:000265e0       $SG60360                   00000001401505e0     pjlib-x86_64-x64-vc14-debug-dynamic:os_core_win32.obj
 0003:000266d8       $SG60361                   00000001401506d8     pjlib-x86_64-x64-vc14-debug-dynamic:os_core_win32.obj
 0003:000266f8       $SG60419                   00000001401506f8     pjlib-x86_64-x64-vc14-debug-dynamic:os_core_win32.obj
 0003:00026730       $SG60378                   0000000140150730     pjlib-x86_64-x64-vc14-debug-dynamic:os_core_win32.obj
 0003:00026828       $SG60379                   0000000140150828     pjlib-x86_64-x64-vc14-debug-dynamic:os_core_win32.obj
 0003:00026838       $SG60381                   0000000140150838     pjlib-x86_64-x64-vc14-debug-dynamic:os_core_win32.obj
 0003:00026858       $SG60435                   0000000140150858     pjlib-x86_64-x64-vc14-debug-dynamic:os_core_win32.obj
 0003:00026890       $SG60382                   0000000140150890     pjlib-x86_64-x64-vc14-debug-dynamic:os_core_win32.obj
 0003:00026988       $SG60415                   0000000140150988     pjlib-x86_64-x64-vc14-debug-dynamic:os_core_win32.obj
 0003:000269a8       $SG60477                   00000001401509a8     pjlib-x86_64-x64-vc14-debug-dynamic:os_core_win32.obj
 0003:000269c8       $SG60510                   00000001401509c8     pjlib-x86_64-x64-vc14-debug-dynamic:os_core_win32.obj
 0003:000269d0       $SG60383                   00000001401509d0     pjlib-x86_64-x64-vc14-debug-dynamic:os_core_win32.obj
 0003:00026a20       $SG60384                   0000000140150a20     pjlib-x86_64-x64-vc14-debug-dynamic:os_core_win32.obj
 0003:00026b18       $SG60531                   0000000140150b18     pjlib-x86_64-x64-vc14-debug-dynamic:os_core_win32.obj
 0003:00026b20       $SG60385                   0000000140150b20     pjlib-x86_64-x64-vc14-debug-dynamic:os_core_win32.obj
 0003:00026b68       $SG60543                   0000000140150b68     pjlib-x86_64-x64-vc14-debug-dynamic:os_core_win32.obj
 0003:00026b70       $SG60396                   0000000140150b70     pjlib-x86_64-x64-vc14-debug-dynamic:os_core_win32.obj
 0003:00026c68       $SG60397                   0000000140150c68     pjlib-x86_64-x64-vc14-debug-dynamic:os_core_win32.obj
 0003:00026c78       $SG60559                   0000000140150c78     pjlib-x86_64-x64-vc14-debug-dynamic:os_core_win32.obj
 0003:00026c80       $SG60412                   0000000140150c80     pjlib-x86_64-x64-vc14-debug-dynamic:os_core_win32.obj
 0003:00026d78       $SG60413                   0000000140150d78     pjlib-x86_64-x64-vc14-debug-dynamic:os_core_win32.obj
 0003:00026d88       $SG60577                   0000000140150d88     pjlib-x86_64-x64-vc14-debug-dynamic:os_core_win32.obj
 0003:00026d90       $SG60416                   0000000140150d90     pjlib-x86_64-x64-vc14-debug-dynamic:os_core_win32.obj
 0003:00026e88       $SG60607                   0000000140150e88     pjlib-x86_64-x64-vc14-debug-dynamic:os_core_win32.obj
 0003:00026eb0       $SG60417                   0000000140150eb0     pjlib-x86_64-x64-vc14-debug-dynamic:os_core_win32.obj
 0003:00026f00       $SG60418                   0000000140150f00     pjlib-x86_64-x64-vc14-debug-dynamic:os_core_win32.obj
 0003:00027000       $SG60432                   0000000140151000     pjlib-x86_64-x64-vc14-debug-dynamic:os_core_win32.obj
 0003:000270f8       $SG60433                   00000001401510f8     pjlib-x86_64-x64-vc14-debug-dynamic:os_core_win32.obj
 0003:00027110       $SG60434                   0000000140151110     pjlib-x86_64-x64-vc14-debug-dynamic:os_core_win32.obj
 0003:00027210       $SG60445                   0000000140151210     pjlib-x86_64-x64-vc14-debug-dynamic:os_core_win32.obj
 0003:00027308       $SG60446                   0000000140151308     pjlib-x86_64-x64-vc14-debug-dynamic:os_core_win32.obj
 0003:00027320       $SG60473                   0000000140151320     pjlib-x86_64-x64-vc14-debug-dynamic:os_core_win32.obj
 0003:000273a0       $SG60476                   00000001401513a0     pjlib-x86_64-x64-vc14-debug-dynamic:os_core_win32.obj
 0003:000274a0       $SG60507                   00000001401514a0     pjlib-x86_64-x64-vc14-debug-dynamic:os_core_win32.obj
 0003:00027520       $SG60509                   0000000140151520     pjlib-x86_64-x64-vc14-debug-dynamic:os_core_win32.obj
 0003:00027620       $SG60528                   0000000140151620     pjlib-x86_64-x64-vc14-debug-dynamic:os_core_win32.obj
 0003:000276a0       $SG60530                   00000001401516a0     pjlib-x86_64-x64-vc14-debug-dynamic:os_core_win32.obj
 0003:000277a0       $SG60540                   00000001401517a0     pjlib-x86_64-x64-vc14-debug-dynamic:os_core_win32.obj
 0003:00027820       $SG60542                   0000000140151820     pjlib-x86_64-x64-vc14-debug-dynamic:os_core_win32.obj
 0003:00027920       $SG60556                   0000000140151920     pjlib-x86_64-x64-vc14-debug-dynamic:os_core_win32.obj
 0003:000279a0       $SG60558                   00000001401519a0     pjlib-x86_64-x64-vc14-debug-dynamic:os_core_win32.obj
 0003:00027aa0       $SG60574                   0000000140151aa0     pjlib-x86_64-x64-vc14-debug-dynamic:os_core_win32.obj
 0003:00027b20       $SG60576                   0000000140151b20     pjlib-x86_64-x64-vc14-debug-dynamic:os_core_win32.obj
 0003:00027c20       $SG60603                   0000000140151c20     pjlib-x86_64-x64-vc14-debug-dynamic:os_core_win32.obj
 0003:00027ca0       $SG60606                   0000000140151ca0     pjlib-x86_64-x64-vc14-debug-dynamic:os_core_win32.obj
 0003:00027da0       $SG60638                   0000000140151da0     pjlib-x86_64-x64-vc14-debug-dynamic:os_core_win32.obj
 0003:00027e20       $SG60640                   0000000140151e20     pjlib-x86_64-x64-vc14-debug-dynamic:os_core_win32.obj
 0003:00027f20       $SG60641                   0000000140151f20     pjlib-x86_64-x64-vc14-debug-dynamic:os_core_win32.obj
 0003:00027f30       $SG60660                   0000000140151f30     pjlib-x86_64-x64-vc14-debug-dynamic:os_core_win32.obj
 0003:00028030       $SG60661                   0000000140152030     pjlib-x86_64-x64-vc14-debug-dynamic:os_core_win32.obj
 0003:00028040       $SG60671                   0000000140152040     pjlib-x86_64-x64-vc14-debug-dynamic:os_core_win32.obj
 0003:00028140       $SG60672                   0000000140152140     pjlib-x86_64-x64-vc14-debug-dynamic:os_core_win32.obj
 0003:00028150       $SG60684                   0000000140152150     pjlib-x86_64-x64-vc14-debug-dynamic:os_core_win32.obj
 0003:000281d0       $SG60686                   00000001401521d0     pjlib-x86_64-x64-vc14-debug-dynamic:os_core_win32.obj
 0003:000282d0       $SG60687                   00000001401522d0     pjlib-x86_64-x64-vc14-debug-dynamic:os_core_win32.obj
 0003:000282e0       $SG60702                   00000001401522e0     pjlib-x86_64-x64-vc14-debug-dynamic:os_core_win32.obj
 0003:00028360       $SG60704                   0000000140152360     pjlib-x86_64-x64-vc14-debug-dynamic:os_core_win32.obj
 0003:00028460       $SG60705                   0000000140152460     pjlib-x86_64-x64-vc14-debug-dynamic:os_core_win32.obj
 0003:00028470       $SG60720                   0000000140152470     pjlib-x86_64-x64-vc14-debug-dynamic:os_core_win32.obj
 0003:000284f0       $SG60722                   00000001401524f0     pjlib-x86_64-x64-vc14-debug-dynamic:os_core_win32.obj
 0003:000285f0       $SG60723                   00000001401525f0     pjlib-x86_64-x64-vc14-debug-dynamic:os_core_win32.obj
 0003:00028600       $SG60738                   0000000140152600     pjlib-x86_64-x64-vc14-debug-dynamic:os_core_win32.obj
 0003:00028680       $SG60740                   0000000140152680     pjlib-x86_64-x64-vc14-debug-dynamic:os_core_win32.obj
 0003:00028780       $SG60741                   0000000140152780     pjlib-x86_64-x64-vc14-debug-dynamic:os_core_win32.obj
 0003:00028790       $SG60769                   0000000140152790     pjlib-x86_64-x64-vc14-debug-dynamic:os_core_win32.obj
 0003:00028810       $SG60774                   0000000140152810     pjlib-x86_64-x64-vc14-debug-dynamic:os_core_win32.obj
 0003:00029840       $SG8212                    0000000140153840     pjlib-x86_64-x64-vc14-debug-dynamic:types.obj
 0003:000298d0       $SG13958                   00000001401538d0     pjlib-x86_64-x64-vc14-debug-dynamic:errno.obj
 0003:000298f0       $SG13959                   00000001401538f0     pjlib-x86_64-x64-vc14-debug-dynamic:errno.obj
 0003:00029910       $SG13960                   0000000140153910     pjlib-x86_64-x64-vc14-debug-dynamic:errno.obj
 0003:00029940       $SG13961                   0000000140153940     pjlib-x86_64-x64-vc14-debug-dynamic:errno.obj
 0003:00029968       $SG13962                   0000000140153968     pjlib-x86_64-x64-vc14-debug-dynamic:errno.obj
 0003:00029988       $SG13963                   0000000140153988     pjlib-x86_64-x64-vc14-debug-dynamic:errno.obj
 0003:000299a8       $SG13964                   00000001401539a8     pjlib-x86_64-x64-vc14-debug-dynamic:errno.obj
 0003:000299c8       $SG13965                   00000001401539c8     pjlib-x86_64-x64-vc14-debug-dynamic:errno.obj
 0003:000299e0       $SG13966                   00000001401539e0     pjlib-x86_64-x64-vc14-debug-dynamic:errno.obj
 0003:00029a08       $SG13967                   0000000140153a08     pjlib-x86_64-x64-vc14-debug-dynamic:errno.obj
 0003:00029a40       $SG13968                   0000000140153a40     pjlib-x86_64-x64-vc14-debug-dynamic:errno.obj
 0003:00029a60       $SG13969                   0000000140153a60     pjlib-x86_64-x64-vc14-debug-dynamic:errno.obj
 0003:00029a90       $SG13970                   0000000140153a90     pjlib-x86_64-x64-vc14-debug-dynamic:errno.obj
 0003:00029ab8       $SG13971                   0000000140153ab8     pjlib-x86_64-x64-vc14-debug-dynamic:errno.obj
 0003:00029ae0       $SG13972                   0000000140153ae0     pjlib-x86_64-x64-vc14-debug-dynamic:errno.obj
 0003:00029b08       $SG13973                   0000000140153b08     pjlib-x86_64-x64-vc14-debug-dynamic:errno.obj
 0003:00029b20       $SG13974                   0000000140153b20     pjlib-x86_64-x64-vc14-debug-dynamic:errno.obj
 0003:00029b40       $SG13975                   0000000140153b40     pjlib-x86_64-x64-vc14-debug-dynamic:errno.obj
 0003:00029b78       $SG13976                   0000000140153b78     pjlib-x86_64-x64-vc14-debug-dynamic:errno.obj
 0003:00029ba0       $SG13977                   0000000140153ba0     pjlib-x86_64-x64-vc14-debug-dynamic:errno.obj
 0003:00029bb8       $SG13978                   0000000140153bb8     pjlib-x86_64-x64-vc14-debug-dynamic:errno.obj
 0003:00029be0       $SG13979                   0000000140153be0     pjlib-x86_64-x64-vc14-debug-dynamic:errno.obj
 0003:00029c10       $SG13980                   0000000140153c10     pjlib-x86_64-x64-vc14-debug-dynamic:errno.obj
 0003:00029c38       $SG13981                   0000000140153c38     pjlib-x86_64-x64-vc14-debug-dynamic:errno.obj
 0003:00029c60       $SG14001                   0000000140153c60     pjlib-x86_64-x64-vc14-debug-dynamic:errno.obj
 0003:00029c80       $SG14033                   0000000140153c80     pjlib-x86_64-x64-vc14-debug-dynamic:errno.obj
 0003:00029d70       $SG14034                   0000000140153d70     pjlib-x86_64-x64-vc14-debug-dynamic:errno.obj
 0003:00029d98       $SG14068                   0000000140153d98     pjlib-x86_64-x64-vc14-debug-dynamic:errno.obj
 0003:00029da0       $SG14036                   0000000140153da0     pjlib-x86_64-x64-vc14-debug-dynamic:errno.obj
 0003:00029e90       $SG14037                   0000000140153e90     pjlib-x86_64-x64-vc14-debug-dynamic:errno.obj
 0003:00029f10       $SG14039                   0000000140153f10     pjlib-x86_64-x64-vc14-debug-dynamic:errno.obj
 0003:0002a000       $SG14040                   0000000140154000     pjlib-x86_64-x64-vc14-debug-dynamic:errno.obj
 0003:0002a060       $SG14064                   0000000140154060     pjlib-x86_64-x64-vc14-debug-dynamic:errno.obj
 0003:0002a150       $SG14065                   0000000140154150     pjlib-x86_64-x64-vc14-debug-dynamic:errno.obj
 0003:0002a170       $SG14071                   0000000140154170     pjlib-x86_64-x64-vc14-debug-dynamic:errno.obj
 0003:0002a184       $SG14111                   0000000140154184     pjlib-x86_64-x64-vc14-debug-dynamic:errno.obj
 0003:0002a190       $SG14077                   0000000140154190     pjlib-x86_64-x64-vc14-debug-dynamic:errno.obj
 0003:0002a1a4       $SG14112                   00000001401541a4     pjlib-x86_64-x64-vc14-debug-dynamic:errno.obj
 0003:0002a370       $SG14389                   0000000140154370     pjlib-x86_64-x64-vc14-debug-dynamic:log.obj
 0003:0002a378       $SG14390                   0000000140154378     pjlib-x86_64-x64-vc14-debug-dynamic:log.obj
 0003:0002a380       $SG14391                   0000000140154380     pjlib-x86_64-x64-vc14-debug-dynamic:log.obj
 0003:0002a388       $SG14392                   0000000140154388     pjlib-x86_64-x64-vc14-debug-dynamic:log.obj
 0003:0002a390       $SG14393                   0000000140154390     pjlib-x86_64-x64-vc14-debug-dynamic:log.obj
 0003:0002a398       $SG14394                   0000000140154398     pjlib-x86_64-x64-vc14-debug-dynamic:log.obj
 0003:0002a3a0       $SG14395                   00000001401543a0     pjlib-x86_64-x64-vc14-debug-dynamic:log.obj
 0003:0002a3a8       $SG14397                   00000001401543a8     pjlib-x86_64-x64-vc14-debug-dynamic:log.obj
 0003:0002a3ac       $SG14398                   00000001401543ac     pjlib-x86_64-x64-vc14-debug-dynamic:log.obj
 0003:0002a3b0       $SG14399                   00000001401543b0     pjlib-x86_64-x64-vc14-debug-dynamic:log.obj
 0003:0002a3b4       $SG14400                   00000001401543b4     pjlib-x86_64-x64-vc14-debug-dynamic:log.obj
 0003:0002a3b8       $SG14401                   00000001401543b8     pjlib-x86_64-x64-vc14-debug-dynamic:log.obj
 0003:0002a3bc       $SG14402                   00000001401543bc     pjlib-x86_64-x64-vc14-debug-dynamic:log.obj
 0003:0002a3c0       $SG14403                   00000001401543c0     pjlib-x86_64-x64-vc14-debug-dynamic:log.obj
 0003:0002a3c4       pj_log_max_level           00000001401543c4     pjlib-x86_64-x64-vc14-debug-dynamic:log.obj
 0003:0002a3c8       thread_suspended_tls_id    00000001401543c8     pjlib-x86_64-x64-vc14-debug-dynamic:log.obj
 0003:0002a3cc       thread_indent_tls_id       00000001401543cc     pjlib-x86_64-x64-vc14-debug-dynamic:log.obj
 0003:0002a3d0       log_writer                 00000001401543d0     pjlib-x86_64-x64-vc14-debug-dynamic:log.obj
 0003:0002a3d8       log_decor                  00000001401543d8     pjlib-x86_64-x64-vc14-debug-dynamic:log.obj
 0003:0002a3dc       PJ_LOG_COLOR_0             00000001401543dc     pjlib-x86_64-x64-vc14-debug-dynamic:log.obj
 0003:0002a3e0       PJ_LOG_COLOR_1             00000001401543e0     pjlib-x86_64-x64-vc14-debug-dynamic:log.obj
 0003:0002a3e4       PJ_LOG_COLOR_2             00000001401543e4     pjlib-x86_64-x64-vc14-debug-dynamic:log.obj
 0003:0002a3e8       PJ_LOG_COLOR_3             00000001401543e8     pjlib-x86_64-x64-vc14-debug-dynamic:log.obj
 0003:0002a3ec       PJ_LOG_COLOR_4             00000001401543ec     pjlib-x86_64-x64-vc14-debug-dynamic:log.obj
 0003:0002a3f0       PJ_LOG_COLOR_5             00000001401543f0     pjlib-x86_64-x64-vc14-debug-dynamic:log.obj
 0003:0002a3f4       PJ_LOG_COLOR_6             00000001401543f4     pjlib-x86_64-x64-vc14-debug-dynamic:log.obj
 0003:0002a3f8       PJ_LOG_COLOR_77            00000001401543f8     pjlib-x86_64-x64-vc14-debug-dynamic:log.obj
 0003:0002a400       ?ltexts@?2??pj_log@@9@9    0000000140154400     pjlib-x86_64-x64-vc14-debug-dynamic:log.obj
 0003:0002a438       ?wdays@?3??pj_log@@9@9     0000000140154438     pjlib-x86_64-x64-vc14-debug-dynamic:log.obj
 0003:0002a470       $SG14385                   0000000140154470     pjlib-x86_64-x64-vc14-debug-dynamic:log.obj
 0003:0002a4e8       $SG14427                   00000001401544e8     pjlib-x86_64-x64-vc14-debug-dynamic:log.obj
 0003:0002a560       $SG14684                   0000000140154560     pjlib-x86_64-x64-vc14-debug-dynamic:pool.obj
 0003:0002a5e0       $SG14685                   00000001401545e0     pjlib-x86_64-x64-vc14-debug-dynamic:pool.obj
 0003:0002a6d0       $SG14686                   00000001401546d0     pjlib-x86_64-x64-vc14-debug-dynamic:pool.obj
 0003:0002a710       $SG14717                   0000000140154710     pjlib-x86_64-x64-vc14-debug-dynamic:pool.obj
 0003:0002a790       $SG14725                   0000000140154790     pjlib-x86_64-x64-vc14-debug-dynamic:pool.obj
 0003:0002a880       $SG14726                   0000000140154880     pjlib-x86_64-x64-vc14-debug-dynamic:pool.obj
 0003:0002a8b0       $SG14738                   00000001401548b0     pjlib-x86_64-x64-vc14-debug-dynamic:pool.obj
 0003:0002a930       $SG14778                   0000000140154930     pjlib-x86_64-x64-vc14-debug-dynamic:pool.obj
 0003:0002a9b0       $SG14780                   00000001401549b0     pjlib-x86_64-x64-vc14-debug-dynamic:pool.obj
 0003:0002aaa0       $SG14781                   0000000140154aa0     pjlib-x86_64-x64-vc14-debug-dynamic:pool.obj
 0003:0002ab10       $SG14796                   0000000140154b10     pjlib-x86_64-x64-vc14-debug-dynamic:pool.obj
 0003:0002acc0       pool_sizes                 0000000140154cc0     pjlib-x86_64-x64-vc14-debug-dynamic:pool_caching.obj
 0003:0002ad40       $SG14694                   0000000140154d40     pjlib-x86_64-x64-vc14-debug-dynamic:pool_caching.obj
 0003:0002adc0       $SG14696                   0000000140154dc0     pjlib-x86_64-x64-vc14-debug-dynamic:pool_caching.obj
 0003:0002add0       $SG14697                   0000000140154dd0     pjlib-x86_64-x64-vc14-debug-dynamic:pool_caching.obj
 0003:0002ade0       $SG14721                   0000000140154de0     pjlib-x86_64-x64-vc14-debug-dynamic:pool_caching.obj
 0003:0002ae60       $SG14723                   0000000140154e60     pjlib-x86_64-x64-vc14-debug-dynamic:pool_caching.obj
 0003:0002ae98       $SG14725                   0000000140154e98     pjlib-x86_64-x64-vc14-debug-dynamic:pool_caching.obj
 0003:0002aeb0       $SG14755                   0000000140154eb0     pjlib-x86_64-x64-vc14-debug-dynamic:pool_caching.obj
 0003:0002af30       $SG14789                   0000000140154f30     pjlib-x86_64-x64-vc14-debug-dynamic:pool_caching.obj
 0003:0002afb0       $SG14790                   0000000140154fb0     pjlib-x86_64-x64-vc14-debug-dynamic:pool_caching.obj
 0003:0002b0b0       $SG14791                   00000001401550b0     pjlib-x86_64-x64-vc14-debug-dynamic:pool_caching.obj
 0003:0002b0d0       $SG14797                   00000001401550d0     pjlib-x86_64-x64-vc14-debug-dynamic:pool_caching.obj
 0003:0002b1d0       $SG14798                   00000001401551d0     pjlib-x86_64-x64-vc14-debug-dynamic:pool_caching.obj
 0003:0002b1e0       $SG14831                   00000001401551e0     pjlib-x86_64-x64-vc14-debug-dynamic:pool_caching.obj
 0003:0002b1f8       $SG14832                   00000001401551f8     pjlib-x86_64-x64-vc14-debug-dynamic:pool_caching.obj
 0003:0002b208       $SG14834                   0000000140155208     pjlib-x86_64-x64-vc14-debug-dynamic:pool_caching.obj
 0003:0002b238       $SG14835                   0000000140155238     pjlib-x86_64-x64-vc14-debug-dynamic:pool_caching.obj
 0003:0002b248       $SG14838                   0000000140155248     pjlib-x86_64-x64-vc14-debug-dynamic:pool_caching.obj
 0003:0002b268       $SG14839                   0000000140155268     pjlib-x86_64-x64-vc14-debug-dynamic:pool_caching.obj
 0003:0002b278       $SG14841                   0000000140155278     pjlib-x86_64-x64-vc14-debug-dynamic:pool_caching.obj
 0003:0002b298       $SG14842                   0000000140155298     pjlib-x86_64-x64-vc14-debug-dynamic:pool_caching.obj
 0003:0002b2a8       $SG14845                   00000001401552a8     pjlib-x86_64-x64-vc14-debug-dynamic:pool_caching.obj
 0003:0002b2d0       $SG14846                   00000001401552d0     pjlib-x86_64-x64-vc14-debug-dynamic:pool_caching.obj
 0003:0002b420       $SG9824                    0000000140155420     pjlib-x86_64-x64-vc14-debug-dynamic:rand.obj
 0003:0002b4a0       $SG9827                    00000001401554a0     pjlib-x86_64-x64-vc14-debug-dynamic:rand.obj
 0003:0002b550       $SG14474                   0000000140155550     pjlib-x86_64-x64-vc14-debug-dynamic:string.obj
 0003:0002b568       $SG14475                   0000000140155568     pjlib-x86_64-x64-vc14-debug-dynamic:string.obj
 0003:0002b580       $SG15132                   0000000140155580     pjlib-x86_64-x64-vc14-debug-dynamic:string.obj
 0003:0002b680       $SG15133                   0000000140155680     pjlib-x86_64-x64-vc14-debug-dynamic:string.obj
 0003:0002b6a0       $SG15145                   00000001401556a0     pjlib-x86_64-x64-vc14-debug-dynamic:string.obj
 0003:0002b7a0       $SG15146                   00000001401557a0     pjlib-x86_64-x64-vc14-debug-dynamic:string.obj
 0003:0002b7b0       $SG15407                   00000001401557b0     pjlib-x86_64-x64-vc14-debug-dynamic:string.obj
 0003:0002b828       $SG15408                   0000000140155828     pjlib-x86_64-x64-vc14-debug-dynamic:string.obj
 0003:0002b840       $SG15414                   0000000140155840     pjlib-x86_64-x64-vc14-debug-dynamic:string.obj
 0003:0002b8c0       $SG15428                   00000001401558c0     pjlib-x86_64-x64-vc14-debug-dynamic:string.obj
 0003:0002b940       $SG15448                   0000000140155940     pjlib-x86_64-x64-vc14-debug-dynamic:string.obj
 0003:0002b9c0       $SG15470                   00000001401559c0     pjlib-x86_64-x64-vc14-debug-dynamic:string.obj
 0003:0002ba38       $SG15477                   0000000140155a38     pjlib-x86_64-x64-vc14-debug-dynamic:string.obj
 0003:0002ba50       $SG15478                   0000000140155a50     pjlib-x86_64-x64-vc14-debug-dynamic:string.obj
 0003:0002bb40       $SG15479                   0000000140155b40     pjlib-x86_64-x64-vc14-debug-dynamic:string.obj
 0003:0002bb70       $SG15504                   0000000140155b70     pjlib-x86_64-x64-vc14-debug-dynamic:string.obj
 0003:0002bbe8       $SG15521                   0000000140155be8     pjlib-x86_64-x64-vc14-debug-dynamic:string.obj
 0003:0002bc00       $SG15522                   0000000140155c00     pjlib-x86_64-x64-vc14-debug-dynamic:string.obj
 0003:0002bcf0       $SG15523                   0000000140155cf0     pjlib-x86_64-x64-vc14-debug-dynamic:string.obj
 0003:0002bd20       $SG15577                   0000000140155d20     pjlib-x86_64-x64-vc14-debug-dynamic:string.obj
 0003:0002bf40       $SG60234                   0000000140155f40     pjlib-x86_64-x64-vc14-debug-dynamic:sock_bsd.obj
 0003:0002c038       $SG60235                   0000000140156038     pjlib-x86_64-x64-vc14-debug-dynamic:sock_bsd.obj
 0003:0002c068       $SG60274                   0000000140156068     pjlib-x86_64-x64-vc14-debug-dynamic:sock_bsd.obj
 0003:0002c098       $SG60283                   0000000140156098     pjlib-x86_64-x64-vc14-debug-dynamic:sock_bsd.obj
 0003:0002c0b0       $SG60269                   00000001401560b0     pjlib-x86_64-x64-vc14-debug-dynamic:sock_bsd.obj
 0003:0002c1a8       $SG60285                   00000001401561a8     pjlib-x86_64-x64-vc14-debug-dynamic:sock_bsd.obj
 0003:0002c1d0       $SG60270                   00000001401561d0     pjlib-x86_64-x64-vc14-debug-dynamic:sock_bsd.obj
 0003:0002c218       $SG60320                   0000000140156218     pjlib-x86_64-x64-vc14-debug-dynamic:sock_bsd.obj
 0003:0002c240       $SG60273                   0000000140156240     pjlib-x86_64-x64-vc14-debug-dynamic:sock_bsd.obj
 0003:0002c338       $SG60330                   0000000140156338     pjlib-x86_64-x64-vc14-debug-dynamic:sock_bsd.obj
 0003:0002c358       $SG60332                   0000000140156358     pjlib-x86_64-x64-vc14-debug-dynamic:sock_bsd.obj
 0003:0002c398       $SG60382                   0000000140156398     pjlib-x86_64-x64-vc14-debug-dynamic:sock_bsd.obj
 0003:0002c3c0       $SG60284                   00000001401563c0     pjlib-x86_64-x64-vc14-debug-dynamic:sock_bsd.obj
 0003:0002c4b8       $SG60471                   00000001401564b8     pjlib-x86_64-x64-vc14-debug-dynamic:sock_bsd.obj
 0003:0002c4c0       $SG60319                   00000001401564c0     pjlib-x86_64-x64-vc14-debug-dynamic:sock_bsd.obj
 0003:0002c5b8       $SG60498                   00000001401565b8     pjlib-x86_64-x64-vc14-debug-dynamic:sock_bsd.obj
 0003:0002c5c0       $SG60322                   00000001401565c0     pjlib-x86_64-x64-vc14-debug-dynamic:sock_bsd.obj
 0003:0002c6b8       $SG60521                   00000001401566b8     pjlib-x86_64-x64-vc14-debug-dynamic:sock_bsd.obj
 0003:0002c6d0       $SG60323                   00000001401566d0     pjlib-x86_64-x64-vc14-debug-dynamic:sock_bsd.obj
 0003:0002c718       $SG60550                   0000000140156718     pjlib-x86_64-x64-vc14-debug-dynamic:sock_bsd.obj
 0003:0002c730       $SG60331                   0000000140156730     pjlib-x86_64-x64-vc14-debug-dynamic:sock_bsd.obj
 0003:0002c828       $SG60576                   0000000140156828     pjlib-x86_64-x64-vc14-debug-dynamic:sock_bsd.obj
 0003:0002c850       $SG60342                   0000000140156850     pjlib-x86_64-x64-vc14-debug-dynamic:sock_bsd.obj
 0003:0002c8d0       $SG60379                   00000001401568d0     pjlib-x86_64-x64-vc14-debug-dynamic:sock_bsd.obj
 0003:0002c950       $SG60381                   0000000140156950     pjlib-x86_64-x64-vc14-debug-dynamic:sock_bsd.obj
 0003:0002ca48       $SG60620                   0000000140156a48     pjlib-x86_64-x64-vc14-debug-dynamic:sock_bsd.obj
 0003:0002ca58       $SG60622                   0000000140156a58     pjlib-x86_64-x64-vc14-debug-dynamic:sock_bsd.obj
 0003:0002ca80       $SG60404                   0000000140156a80     pjlib-x86_64-x64-vc14-debug-dynamic:sock_bsd.obj
 0003:0002cb00       $SG60407                   0000000140156b00     pjlib-x86_64-x64-vc14-debug-dynamic:sock_bsd.obj
 0003:0002cbf8       $SG60623                   0000000140156bf8     pjlib-x86_64-x64-vc14-debug-dynamic:sock_bsd.obj
 0003:0002cc08       $SG60672                   0000000140156c08     pjlib-x86_64-x64-vc14-debug-dynamic:sock_bsd.obj
 0003:0002cc40       $SG60408                   0000000140156c40     pjlib-x86_64-x64-vc14-debug-dynamic:sock_bsd.obj
 0003:0002cca0       $SG60420                   0000000140156ca0     pjlib-x86_64-x64-vc14-debug-dynamic:sock_bsd.obj
 0003:0002cd20       $SG60425                   0000000140156d20     pjlib-x86_64-x64-vc14-debug-dynamic:sock_bsd.obj
 0003:0002cda0       $SG60437                   0000000140156da0     pjlib-x86_64-x64-vc14-debug-dynamic:sock_bsd.obj
 0003:0002ce20       $SG60449                   0000000140156e20     pjlib-x86_64-x64-vc14-debug-dynamic:sock_bsd.obj
 0003:0002cea0       $SG60468                   0000000140156ea0     pjlib-x86_64-x64-vc14-debug-dynamic:sock_bsd.obj
 0003:0002cf20       $SG60470                   0000000140156f20     pjlib-x86_64-x64-vc14-debug-dynamic:sock_bsd.obj
 0003:0002d020       $SG60495                   0000000140157020     pjlib-x86_64-x64-vc14-debug-dynamic:sock_bsd.obj
 0003:0002d0a0       $SG60497                   00000001401570a0     pjlib-x86_64-x64-vc14-debug-dynamic:sock_bsd.obj
 0003:0002d1a0       $SG60517                   00000001401571a0     pjlib-x86_64-x64-vc14-debug-dynamic:sock_bsd.obj
 0003:0002d220       $SG60520                   0000000140157220     pjlib-x86_64-x64-vc14-debug-dynamic:sock_bsd.obj
 0003:0002d320       $SG60546                   0000000140157320     pjlib-x86_64-x64-vc14-debug-dynamic:sock_bsd.obj
 0003:0002d3a0       $SG60549                   00000001401573a0     pjlib-x86_64-x64-vc14-debug-dynamic:sock_bsd.obj
 0003:0002d4a0       $SG60572                   00000001401574a0     pjlib-x86_64-x64-vc14-debug-dynamic:sock_bsd.obj
 0003:0002d520       $SG60575                   0000000140157520     pjlib-x86_64-x64-vc14-debug-dynamic:sock_bsd.obj
 0003:0002d620       $SG60593                   0000000140157620     pjlib-x86_64-x64-vc14-debug-dynamic:sock_bsd.obj
 0003:0002d6a0       $SG60617                   00000001401576a0     pjlib-x86_64-x64-vc14-debug-dynamic:sock_bsd.obj
 0003:0002d720       $SG60619                   0000000140157720     pjlib-x86_64-x64-vc14-debug-dynamic:sock_bsd.obj
 0003:0002d820       $SG60632                   0000000140157820     pjlib-x86_64-x64-vc14-debug-dynamic:sock_bsd.obj
 0003:0002d8a0       $SG60640                   00000001401578a0     pjlib-x86_64-x64-vc14-debug-dynamic:sock_bsd.obj
 0003:0002d920       $SG60648                   0000000140157920     pjlib-x86_64-x64-vc14-debug-dynamic:sock_bsd.obj
 0003:0002d9a0       $SG60669                   00000001401579a0     pjlib-x86_64-x64-vc14-debug-dynamic:sock_bsd.obj
 0003:0002da20       $SG60671                   0000000140157a20     pjlib-x86_64-x64-vc14-debug-dynamic:sock_bsd.obj
 0003:0002e0b0       $SG58824                   00000001401580b0     pjlib-x86_64-x64-vc14-debug-dynamic:os_error_win32.obj
 0003:0002e0d8       $SG58825                   00000001401580d8     pjlib-x86_64-x64-vc14-debug-dynamic:os_error_win32.obj
 0003:0002e0f8       $SG58826                   00000001401580f8     pjlib-x86_64-x64-vc14-debug-dynamic:os_error_win32.obj
 0003:0002e118       $SG58827                   0000000140158118     pjlib-x86_64-x64-vc14-debug-dynamic:os_error_win32.obj
 0003:0002e130       $SG58828                   0000000140158130     pjlib-x86_64-x64-vc14-debug-dynamic:os_error_win32.obj
 0003:0002e150       $SG58829                   0000000140158150     pjlib-x86_64-x64-vc14-debug-dynamic:os_error_win32.obj
 0003:0002e178       $SG58830                   0000000140158178     pjlib-x86_64-x64-vc14-debug-dynamic:os_error_win32.obj
 0003:0002e1a0       $SG58831                   00000001401581a0     pjlib-x86_64-x64-vc14-debug-dynamic:os_error_win32.obj
 0003:0002e1d0       $SG58832                   00000001401581d0     pjlib-x86_64-x64-vc14-debug-dynamic:os_error_win32.obj
 0003:0002e200       $SG58833                   0000000140158200     pjlib-x86_64-x64-vc14-debug-dynamic:os_error_win32.obj
 0003:0002e230       $SG58834                   0000000140158230     pjlib-x86_64-x64-vc14-debug-dynamic:os_error_win32.obj
 0003:0002e260       $SG58835                   0000000140158260     pjlib-x86_64-x64-vc14-debug-dynamic:os_error_win32.obj
 0003:0002e280       $SG58836                   0000000140158280     pjlib-x86_64-x64-vc14-debug-dynamic:os_error_win32.obj
 0003:0002e2b0       $SG58837                   00000001401582b0     pjlib-x86_64-x64-vc14-debug-dynamic:os_error_win32.obj
 0003:0002e2d8       $SG58838                   00000001401582d8     pjlib-x86_64-x64-vc14-debug-dynamic:os_error_win32.obj
 0003:0002e308       $SG58839                   0000000140158308     pjlib-x86_64-x64-vc14-debug-dynamic:os_error_win32.obj
 0003:0002e338       $SG58840                   0000000140158338     pjlib-x86_64-x64-vc14-debug-dynamic:os_error_win32.obj
 0003:0002e370       $SG58841                   0000000140158370     pjlib-x86_64-x64-vc14-debug-dynamic:os_error_win32.obj
 0003:0002e3a0       $SG58842                   00000001401583a0     pjlib-x86_64-x64-vc14-debug-dynamic:os_error_win32.obj
 0003:0002e3d0       $SG58843                   00000001401583d0     pjlib-x86_64-x64-vc14-debug-dynamic:os_error_win32.obj
 0003:0002e3f8       $SG58844                   00000001401583f8     pjlib-x86_64-x64-vc14-debug-dynamic:os_error_win32.obj
 0003:0002e430       $SG58845                   0000000140158430     pjlib-x86_64-x64-vc14-debug-dynamic:os_error_win32.obj
 0003:0002e450       $SG58846                   0000000140158450     pjlib-x86_64-x64-vc14-debug-dynamic:os_error_win32.obj
 0003:0002e478       $SG58847                   0000000140158478     pjlib-x86_64-x64-vc14-debug-dynamic:os_error_win32.obj
 0003:0002e4a0       $SG58848                   00000001401584a0     pjlib-x86_64-x64-vc14-debug-dynamic:os_error_win32.obj
 0003:0002e4d8       $SG58849                   00000001401584d8     pjlib-x86_64-x64-vc14-debug-dynamic:os_error_win32.obj
 0003:0002e508       $SG58850                   0000000140158508     pjlib-x86_64-x64-vc14-debug-dynamic:os_error_win32.obj
 0003:0002e530       $SG58851                   0000000140158530     pjlib-x86_64-x64-vc14-debug-dynamic:os_error_win32.obj
 0003:0002e560       $SG58852                   0000000140158560     pjlib-x86_64-x64-vc14-debug-dynamic:os_error_win32.obj
 0003:0002e588       $SG58853                   0000000140158588     pjlib-x86_64-x64-vc14-debug-dynamic:os_error_win32.obj
 0003:0002e5b8       $SG58854                   00000001401585b8     pjlib-x86_64-x64-vc14-debug-dynamic:os_error_win32.obj
 0003:0002e5f0       $SG58855                   00000001401585f0     pjlib-x86_64-x64-vc14-debug-dynamic:os_error_win32.obj
 0003:0002e618       $SG58856                   0000000140158618     pjlib-x86_64-x64-vc14-debug-dynamic:os_error_win32.obj
 0003:0002e640       $SG58857                   0000000140158640     pjlib-x86_64-x64-vc14-debug-dynamic:os_error_win32.obj
 0003:0002e670       $SG58858                   0000000140158670     pjlib-x86_64-x64-vc14-debug-dynamic:os_error_win32.obj
 0003:0002e698       $SG58859                   0000000140158698     pjlib-x86_64-x64-vc14-debug-dynamic:os_error_win32.obj
 0003:0002e6b8       $SG58860                   00000001401586b8     pjlib-x86_64-x64-vc14-debug-dynamic:os_error_win32.obj
 0003:0002e6e0       $SG58861                   00000001401586e0     pjlib-x86_64-x64-vc14-debug-dynamic:os_error_win32.obj
 0003:0002e708       $SG58862                   0000000140158708     pjlib-x86_64-x64-vc14-debug-dynamic:os_error_win32.obj
 0003:0002e730       $SG58863                   0000000140158730     pjlib-x86_64-x64-vc14-debug-dynamic:os_error_win32.obj
 0003:0002e750       $SG58864                   0000000140158750     pjlib-x86_64-x64-vc14-debug-dynamic:os_error_win32.obj
 0003:0002e770       $SG58865                   0000000140158770     pjlib-x86_64-x64-vc14-debug-dynamic:os_error_win32.obj
 0003:0002e798       $SG58866                   0000000140158798     pjlib-x86_64-x64-vc14-debug-dynamic:os_error_win32.obj
 0003:0002e7c8       $SG58867                   00000001401587c8     pjlib-x86_64-x64-vc14-debug-dynamic:os_error_win32.obj
 0003:0002e7f8       $SG58868                   00000001401587f8     pjlib-x86_64-x64-vc14-debug-dynamic:os_error_win32.obj
 0003:0002e830       $SG58869                   0000000140158830     pjlib-x86_64-x64-vc14-debug-dynamic:os_error_win32.obj
 0003:0002e860       $SG58870                   0000000140158860     pjlib-x86_64-x64-vc14-debug-dynamic:os_error_win32.obj
 0003:0002e890       $SG58871                   0000000140158890     pjlib-x86_64-x64-vc14-debug-dynamic:os_error_win32.obj
 0003:0002e8b8       $SG58872                   00000001401588b8     pjlib-x86_64-x64-vc14-debug-dynamic:os_error_win32.obj
 0003:0002e8f0       $SG58912                   00000001401588f0     pjlib-x86_64-x64-vc14-debug-dynamic:os_error_win32.obj
 0003:0002e9f0       $SG58913                   00000001401589f0     pjlib-x86_64-x64-vc14-debug-dynamic:os_error_win32.obj
 0003:0002ea20       $SG58914                   0000000140158a20     pjlib-x86_64-x64-vc14-debug-dynamic:os_error_win32.obj
 0003:0002eb20       $SG58915                   0000000140158b20     pjlib-x86_64-x64-vc14-debug-dynamic:os_error_win32.obj
 0003:0002eb40       $SG58923                   0000000140158b40     pjlib-x86_64-x64-vc14-debug-dynamic:os_error_win32.obj
 0003:0002ed80       $SG13893                   0000000140158d80     pjlib-x86_64-x64-vc14-debug-dynamic:array.obj
 0003:0002ee70       $SG13894                   0000000140158e70     pjlib-x86_64-x64-vc14-debug-dynamic:array.obj
 0003:0002eec0       $SG60332                   0000000140158ec0     pjlib-x86_64-x64-vc14-debug-dynamic:sock_common.obj
 0003:0002eec4       $SG60333                   0000000140158ec4     pjlib-x86_64-x64-vc14-debug-dynamic:sock_common.obj
 0003:0002eec8       $SG60336                   0000000140158ec8     pjlib-x86_64-x64-vc14-debug-dynamic:sock_common.obj
 0003:0002eecc       $SG60978                   0000000140158ecc     pjlib-x86_64-x64-vc14-debug-dynamic:sock_common.obj
 0003:0002eed0       $SG60337                   0000000140158ed0     pjlib-x86_64-x64-vc14-debug-dynamic:sock_common.obj
 0003:0002eee0       $SG60353                   0000000140158ee0     pjlib-x86_64-x64-vc14-debug-dynamic:sock_common.obj
 0003:0002ef60       $SG60355                   0000000140158f60     pjlib-x86_64-x64-vc14-debug-dynamic:sock_common.obj
 0003:0002f058       $SG60559                   0000000140159058     pjlib-x86_64-x64-vc14-debug-dynamic:sock_common.obj
 0003:0002f070       $SG60356                   0000000140159070     pjlib-x86_64-x64-vc14-debug-dynamic:sock_common.obj
 0003:0002f0b8       $SG60871                   00000001401590b8     pjlib-x86_64-x64-vc14-debug-dynamic:sock_common.obj
 0003:0002f0c0       $SG60379                   00000001401590c0     pjlib-x86_64-x64-vc14-debug-dynamic:sock_common.obj
 0003:0002f1b8       $SG60380                   00000001401591b8     pjlib-x86_64-x64-vc14-debug-dynamic:sock_common.obj
 0003:0002f1d8       $SG60872                   00000001401591d8     pjlib-x86_64-x64-vc14-debug-dynamic:sock_common.obj
 0003:0002f1e0       $SG60399                   00000001401591e0     pjlib-x86_64-x64-vc14-debug-dynamic:sock_common.obj
 0003:0002f2d8       $SG60400                   00000001401592d8     pjlib-x86_64-x64-vc14-debug-dynamic:sock_common.obj
 0003:0002f2e8       $SG60420                   00000001401592e8     pjlib-x86_64-x64-vc14-debug-dynamic:sock_common.obj
 0003:0002f308       $SG60888                   0000000140159308     pjlib-x86_64-x64-vc14-debug-dynamic:sock_common.obj
 0003:0002f310       $SG60419                   0000000140159310     pjlib-x86_64-x64-vc14-debug-dynamic:sock_common.obj
 0003:0002f408       $SG60889                   0000000140159408     pjlib-x86_64-x64-vc14-debug-dynamic:sock_common.obj
 0003:0002f410       $SG60462                   0000000140159410     pjlib-x86_64-x64-vc14-debug-dynamic:sock_common.obj
 0003:0002f508       $SG60979                   0000000140159508     pjlib-x86_64-x64-vc14-debug-dynamic:sock_common.obj
 0003:0002f510       $SG60463                   0000000140159510     pjlib-x86_64-x64-vc14-debug-dynamic:sock_common.obj
 0003:0002f5a0       $SG60491                   00000001401595a0     pjlib-x86_64-x64-vc14-debug-dynamic:sock_common.obj
 0003:0002f6a0       $SG60492                   00000001401596a0     pjlib-x86_64-x64-vc14-debug-dynamic:sock_common.obj
 0003:0002f730       $SG60506                   0000000140159730     pjlib-x86_64-x64-vc14-debug-dynamic:sock_common.obj
 0003:0002f830       $SG60507                   0000000140159830     pjlib-x86_64-x64-vc14-debug-dynamic:sock_common.obj
 0003:0002f8c0       $SG60521                   00000001401598c0     pjlib-x86_64-x64-vc14-debug-dynamic:sock_common.obj
 0003:0002f9c0       $SG60522                   00000001401599c0     pjlib-x86_64-x64-vc14-debug-dynamic:sock_common.obj
 0003:0002fa50       $SG60558                   0000000140159a50     pjlib-x86_64-x64-vc14-debug-dynamic:sock_common.obj
 0003:0002fb50       $SG60579                   0000000140159b50     pjlib-x86_64-x64-vc14-debug-dynamic:sock_common.obj
 0003:0002fc50       $SG60580                   0000000140159c50     pjlib-x86_64-x64-vc14-debug-dynamic:sock_common.obj
 0003:0002fca0       $SG60648                   0000000140159ca0     pjlib-x86_64-x64-vc14-debug-dynamic:sock_common.obj
 0003:0002fda0       $SG60649                   0000000140159da0     pjlib-x86_64-x64-vc14-debug-dynamic:sock_common.obj
 0003:0002fe60       $SG60712                   0000000140159e60     pjlib-x86_64-x64-vc14-debug-dynamic:sock_common.obj
 0003:0002ff58       $SG60713                   0000000140159f58     pjlib-x86_64-x64-vc14-debug-dynamic:sock_common.obj
 0003:0002ff70       $SG60715                   0000000140159f70     pjlib-x86_64-x64-vc14-debug-dynamic:sock_common.obj
 0003:00030070       $SG60716                   000000014015a070     pjlib-x86_64-x64-vc14-debug-dynamic:sock_common.obj
 0003:000300e0       $SG60718                   000000014015a0e0     pjlib-x86_64-x64-vc14-debug-dynamic:sock_common.obj
 0003:000301d8       $SG60719                   000000014015a1d8     pjlib-x86_64-x64-vc14-debug-dynamic:sock_common.obj
 0003:00030200       $SG60821                   000000014015a200     pjlib-x86_64-x64-vc14-debug-dynamic:sock_common.obj
 0003:00030300       $SG60822                   000000014015a300     pjlib-x86_64-x64-vc14-debug-dynamic:sock_common.obj
 0003:00030360       $SG60913                   000000014015a360     pjlib-x86_64-x64-vc14-debug-dynamic:sock_common.obj
 0003:000303e0       $SG60915                   000000014015a3e0     pjlib-x86_64-x64-vc14-debug-dynamic:sock_common.obj
 0003:000304d8       $SG60916                   000000014015a4d8     pjlib-x86_64-x64-vc14-debug-dynamic:sock_common.obj
 0003:000304f0       $SG60945                   000000014015a4f0     pjlib-x86_64-x64-vc14-debug-dynamic:sock_common.obj
 0003:00030570       $SG60948                   000000014015a570     pjlib-x86_64-x64-vc14-debug-dynamic:sock_common.obj
 0003:00030670       $SG60949                   000000014015a670     pjlib-x86_64-x64-vc14-debug-dynamic:sock_common.obj
 0003:00030738       $SG60984                   000000014015a738     pjlib-x86_64-x64-vc14-debug-dynamic:sock_common.obj
 0003:00030748       $SG60985                   000000014015a748     pjlib-x86_64-x64-vc14-debug-dynamic:sock_common.obj
 0003:00030c40       $SG61111                   000000014015ac40     pjlib-x86_64-x64-vc14-debug-dynamic:ioqueue_select.obj
 0003:00030d48       $SG61112                   000000014015ad48     pjlib-x86_64-x64-vc14-debug-dynamic:ioqueue_select.obj
 0003:00030d68       $SG61137                   000000014015ad68     pjlib-x86_64-x64-vc14-debug-dynamic:ioqueue_select.obj
 0003:00030d90       $SG61136                   000000014015ad90     pjlib-x86_64-x64-vc14-debug-dynamic:ioqueue_select.obj
 0003:00030e98       $SG61154                   000000014015ae98     pjlib-x86_64-x64-vc14-debug-dynamic:ioqueue_select.obj
 0003:00030ec0       $SG61153                   000000014015aec0     pjlib-x86_64-x64-vc14-debug-dynamic:ioqueue_select.obj
 0003:00030fc8       $SG61169                   000000014015afc8     pjlib-x86_64-x64-vc14-debug-dynamic:ioqueue_select.obj
 0003:00030fd0       $SG61168                   000000014015afd0     pjlib-x86_64-x64-vc14-debug-dynamic:ioqueue_select.obj
 0003:000310d8       $SG61231                   000000014015b0d8     pjlib-x86_64-x64-vc14-debug-dynamic:ioqueue_select.obj
 0003:000310f0       $SG61232                   000000014015b0f0     pjlib-x86_64-x64-vc14-debug-dynamic:ioqueue_select.obj
 0003:000311f8       $SG61233                   000000014015b1f8     pjlib-x86_64-x64-vc14-debug-dynamic:ioqueue_select.obj
 0003:00031230       $SG61236                   000000014015b230     pjlib-x86_64-x64-vc14-debug-dynamic:ioqueue_select.obj
 0003:00031338       $SG61237                   000000014015b338     pjlib-x86_64-x64-vc14-debug-dynamic:ioqueue_select.obj
 0003:00031350       $SG61280                   000000014015b350     pjlib-x86_64-x64-vc14-debug-dynamic:ioqueue_select.obj
 0003:00031458       $SG61523                   000000014015b458     pjlib-x86_64-x64-vc14-debug-dynamic:ioqueue_select.obj
 0003:00031490       $SG61281                   000000014015b490     pjlib-x86_64-x64-vc14-debug-dynamic:ioqueue_select.obj
 0003:000314d4       $SG61658                   000000014015b4d4     pjlib-x86_64-x64-vc14-debug-dynamic:ioqueue_select.obj
 0003:000314e0       $SG61339                   000000014015b4e0     pjlib-x86_64-x64-vc14-debug-dynamic:ioqueue_select.obj
 0003:000315e8       $SG61634                   000000014015b5e8     pjlib-x86_64-x64-vc14-debug-dynamic:ioqueue_select.obj
 0003:000315f0       $SG61340                   000000014015b5f0     pjlib-x86_64-x64-vc14-debug-dynamic:ioqueue_select.obj
 0003:00031634       $SG61717                   000000014015b634     pjlib-x86_64-x64-vc14-debug-dynamic:ioqueue_select.obj
 0003:00031640       $SG61341                   000000014015b640     pjlib-x86_64-x64-vc14-debug-dynamic:ioqueue_select.obj
 0003:000316c8       $SG61551                   000000014015b6c8     pjlib-x86_64-x64-vc14-debug-dynamic:ioqueue_select.obj
 0003:000316f8       $SG61637                   000000014015b6f8     pjlib-x86_64-x64-vc14-debug-dynamic:ioqueue_select.obj
 0003:00031710       $SG61344                   000000014015b710     pjlib-x86_64-x64-vc14-debug-dynamic:ioqueue_select.obj
 0003:00031818       $SG61721                   000000014015b818     pjlib-x86_64-x64-vc14-debug-dynamic:ioqueue_select.obj
 0003:00031838       $SG61722                   000000014015b838     pjlib-x86_64-x64-vc14-debug-dynamic:ioqueue_select.obj
 0003:00031840       $SG61345                   000000014015b840     pjlib-x86_64-x64-vc14-debug-dynamic:ioqueue_select.obj
 0003:00031884       $SG61782                   000000014015b884     pjlib-x86_64-x64-vc14-debug-dynamic:ioqueue_select.obj
 0003:00031890       $SG61386                   000000014015b890     pjlib-x86_64-x64-vc14-debug-dynamic:ioqueue_select.obj
 0003:00031998       $SG61740                   000000014015b998     pjlib-x86_64-x64-vc14-debug-dynamic:ioqueue_select.obj
 0003:000319a8       $SG61817                   000000014015b9a8     pjlib-x86_64-x64-vc14-debug-dynamic:ioqueue_select.obj
 0003:000319d0       $SG61387                   000000014015b9d0     pjlib-x86_64-x64-vc14-debug-dynamic:ioqueue_select.obj
 0003:00031a14       $SG61871                   000000014015ba14     pjlib-x86_64-x64-vc14-debug-dynamic:ioqueue_select.obj
 0003:00031a18       $SG61839                   000000014015ba18     pjlib-x86_64-x64-vc14-debug-dynamic:ioqueue_select.obj
 0003:00031a20       $SG61388                   000000014015ba20     pjlib-x86_64-x64-vc14-debug-dynamic:ioqueue_select.obj
 0003:00031aa8       $SG61616                   000000014015baa8     pjlib-x86_64-x64-vc14-debug-dynamic:ioqueue_select.obj
 0003:00031ad8       $SG61891                   000000014015bad8     pjlib-x86_64-x64-vc14-debug-dynamic:ioqueue_select.obj
 0003:00031ae0       $SG61391                   000000014015bae0     pjlib-x86_64-x64-vc14-debug-dynamic:ioqueue_select.obj
 0003:00031be8       $SG61903                   000000014015bbe8     pjlib-x86_64-x64-vc14-debug-dynamic:ioqueue_select.obj
 0003:00031c08       $SG61973                   000000014015bc08     pjlib-x86_64-x64-vc14-debug-dynamic:ioqueue_select.obj
 0003:00031c30       $SG61392                   000000014015bc30     pjlib-x86_64-x64-vc14-debug-dynamic:ioqueue_select.obj
 0003:00031c80       $SG61427                   000000014015bc80     pjlib-x86_64-x64-vc14-debug-dynamic:ioqueue_select.obj
 0003:00031d90       $SG61428                   000000014015bd90     pjlib-x86_64-x64-vc14-debug-dynamic:ioqueue_select.obj
 0003:00031dd0       $SG61429                   000000014015bdd0     pjlib-x86_64-x64-vc14-debug-dynamic:ioqueue_select.obj
 0003:00031e60       $SG61481                   000000014015be60     pjlib-x86_64-x64-vc14-debug-dynamic:ioqueue_select.obj
 0003:00031f70       $SG61482                   000000014015bf70     pjlib-x86_64-x64-vc14-debug-dynamic:ioqueue_select.obj
 0003:00031fb0       $SG61483                   000000014015bfb0     pjlib-x86_64-x64-vc14-debug-dynamic:ioqueue_select.obj
 0003:00032040       $SG61490                   000000014015c040     pjlib-x86_64-x64-vc14-debug-dynamic:ioqueue_select.obj
 0003:00032150       $SG61491                   000000014015c150     pjlib-x86_64-x64-vc14-debug-dynamic:ioqueue_select.obj
 0003:000321a0       $SG61522                   000000014015c1a0     pjlib-x86_64-x64-vc14-debug-dynamic:ioqueue_select.obj
 0003:000322b0       $SG61526                   000000014015c2b0     pjlib-x86_64-x64-vc14-debug-dynamic:ioqueue_select.obj
 0003:000323c0       $SG61527                   000000014015c3c0     pjlib-x86_64-x64-vc14-debug-dynamic:ioqueue_select.obj
 0003:00032410       $SG61550                   000000014015c410     pjlib-x86_64-x64-vc14-debug-dynamic:ioqueue_select.obj
 0003:00032520       $SG61615                   000000014015c520     pjlib-x86_64-x64-vc14-debug-dynamic:ioqueue_select.obj
 0003:00032630       $SG61633                   000000014015c630     pjlib-x86_64-x64-vc14-debug-dynamic:ioqueue_select.obj
 0003:00032740       $SG61636                   000000014015c740     pjlib-x86_64-x64-vc14-debug-dynamic:ioqueue_select.obj
 0003:00032850       $SG61712                   000000014015c850     pjlib-x86_64-x64-vc14-debug-dynamic:ioqueue_select.obj
 0003:00032950       $SG61713                   000000014015c950     pjlib-x86_64-x64-vc14-debug-dynamic:ioqueue_select.obj
 0003:000329f0       $SG61739                   000000014015c9f0     pjlib-x86_64-x64-vc14-debug-dynamic:ioqueue_select.obj
 0003:00032af0       $SG61777                   000000014015caf0     pjlib-x86_64-x64-vc14-debug-dynamic:ioqueue_select.obj
 0003:00032bf0       $SG61778                   000000014015cbf0     pjlib-x86_64-x64-vc14-debug-dynamic:ioqueue_select.obj
 0003:00032c50       $SG61781                   000000014015cc50     pjlib-x86_64-x64-vc14-debug-dynamic:ioqueue_select.obj
 0003:00032cb0       $SG61784                   000000014015ccb0     pjlib-x86_64-x64-vc14-debug-dynamic:ioqueue_select.obj
 0003:00032db0       $SG61785                   000000014015cdb0     pjlib-x86_64-x64-vc14-debug-dynamic:ioqueue_select.obj
 0003:00032e00       $SG61816                   000000014015ce00     pjlib-x86_64-x64-vc14-debug-dynamic:ioqueue_select.obj
 0003:00032f00       $SG61838                   000000014015cf00     pjlib-x86_64-x64-vc14-debug-dynamic:ioqueue_select.obj
 0003:00033000       $SG61843                   000000014015d000     pjlib-x86_64-x64-vc14-debug-dynamic:ioqueue_select.obj
 0003:00033030       $SG61844                   000000014015d030     pjlib-x86_64-x64-vc14-debug-dynamic:ioqueue_select.obj
 0003:00033130       $SG61845                   000000014015d130     pjlib-x86_64-x64-vc14-debug-dynamic:ioqueue_select.obj
 0003:00033188       $SG61847                   000000014015d188     pjlib-x86_64-x64-vc14-debug-dynamic:ioqueue_select.obj
 0003:000331b8       $SG61848                   000000014015d1b8     pjlib-x86_64-x64-vc14-debug-dynamic:ioqueue_select.obj
 0003:000331d0       $SG61870                   000000014015d1d0     pjlib-x86_64-x64-vc14-debug-dynamic:ioqueue_select.obj
 0003:000332d0       $SG61890                   000000014015d2d0     pjlib-x86_64-x64-vc14-debug-dynamic:ioqueue_select.obj
 0003:000333d0       $SG61902                   000000014015d3d0     pjlib-x86_64-x64-vc14-debug-dynamic:ioqueue_select.obj
 0003:000334d0       $SG61949                   000000014015d4d0     pjlib-x86_64-x64-vc14-debug-dynamic:ioqueue_select.obj
 0003:000335d0       $SG61950                   000000014015d5d0     pjlib-x86_64-x64-vc14-debug-dynamic:ioqueue_select.obj
 0003:000335e0       $SG61971                   000000014015d5e0     pjlib-x86_64-x64-vc14-debug-dynamic:ioqueue_select.obj
 0003:000335f0       $SG61972                   000000014015d5f0     pjlib-x86_64-x64-vc14-debug-dynamic:ioqueue_select.obj
 0003:00033f80       $SG57815                   000000014015df80     pjlib-x86_64-x64-vc14-debug-dynamic:file_access_win32.obj
 0003:00034088       $SG57816                   000000014015e088     pjlib-x86_64-x64-vc14-debug-dynamic:file_access_win32.obj
 0003:000340c0       $SG57836                   000000014015e0c0     pjlib-x86_64-x64-vc14-debug-dynamic:file_access_win32.obj
 0003:000341c8       $SG57837                   000000014015e1c8     pjlib-x86_64-x64-vc14-debug-dynamic:file_access_win32.obj
 0003:00034200       $SG57851                   000000014015e200     pjlib-x86_64-x64-vc14-debug-dynamic:file_access_win32.obj
 0003:00034308       $SG57852                   000000014015e308     pjlib-x86_64-x64-vc14-debug-dynamic:file_access_win32.obj
 0003:00034340       $SG57873                   000000014015e340     pjlib-x86_64-x64-vc14-debug-dynamic:file_access_win32.obj
 0003:00034450       $SG57874                   000000014015e450     pjlib-x86_64-x64-vc14-debug-dynamic:file_access_win32.obj
 0003:000344b0       $SG57913                   000000014015e4b0     pjlib-x86_64-x64-vc14-debug-dynamic:file_access_win32.obj
 0003:000345c0       $SG57914                   000000014015e5c0     pjlib-x86_64-x64-vc14-debug-dynamic:file_access_win32.obj
 0003:00034770       $SG57087                   000000014015e770     pjlib-x86_64-x64-vc14-debug-dynamic:file_io_win32.obj
 0003:00034870       $SG57088                   000000014015e870     pjlib-x86_64-x64-vc14-debug-dynamic:file_io_win32.obj
 0003:000348a0       $SG57095                   000000014015e8a0     pjlib-x86_64-x64-vc14-debug-dynamic:file_io_win32.obj
 0003:000348c0       $SG57096                   000000014015e8c0     pjlib-x86_64-x64-vc14-debug-dynamic:file_io_win32.obj
 0003:000349c0       $SG57097                   000000014015e9c0     pjlib-x86_64-x64-vc14-debug-dynamic:file_io_win32.obj
 0003:000349f8       $SG57146                   000000014015e9f8     pjlib-x86_64-x64-vc14-debug-dynamic:file_io_win32.obj
 0003:00034a20       $SG57147                   000000014015ea20     pjlib-x86_64-x64-vc14-debug-dynamic:file_io_win32.obj
 0003:00034b20       $SG57148                   000000014015eb20     pjlib-x86_64-x64-vc14-debug-dynamic:file_io_win32.obj
 0003:00034c30       thread_local_id            000000014015ec30     pjlib-x86_64-x64-vc14-debug-dynamic:except.obj
 0003:00034c38       $SG14453                   000000014015ec38     pjlib-x86_64-x64-vc14-debug-dynamic:except.obj
 0003:00034c60       $SG14454                   000000014015ec60     pjlib-x86_64-x64-vc14-debug-dynamic:except.obj
 0003:00034c70       $SG14455                   000000014015ec70     pjlib-x86_64-x64-vc14-debug-dynamic:except.obj
 0003:00034d60       $SG14456                   000000014015ed60     pjlib-x86_64-x64-vc14-debug-dynamic:except.obj
 0003:00034d90       $SG14475                   000000014015ed90     pjlib-x86_64-x64-vc14-debug-dynamic:except.obj
 0003:00034e80       $SG14476                   000000014015ee80     pjlib-x86_64-x64-vc14-debug-dynamic:except.obj
 0003:00034eb0       $SG14505                   000000014015eeb0     pjlib-x86_64-x64-vc14-debug-dynamic:except.obj
 0003:00034fa0       $SG14506                   000000014015efa0     pjlib-x86_64-x64-vc14-debug-dynamic:except.obj
 0003:00034fc0       $SG14520                   000000014015efc0     pjlib-x86_64-x64-vc14-debug-dynamic:except.obj
 0003:000350b0       $SG14521                   000000014015f0b0     pjlib-x86_64-x64-vc14-debug-dynamic:except.obj
 0003:000350d0       $SG14522                   000000014015f0d0     pjlib-x86_64-x64-vc14-debug-dynamic:except.obj
 0003:000350e0       $SG14524                   000000014015f0e0     pjlib-x86_64-x64-vc14-debug-dynamic:except.obj
 0003:000351e0       mutex_lock_template        000000014015f1e0     pjlib-x86_64-x64-vc14-debug-dynamic:lock.obj
 0003:00035208       null_lock_template         000000014015f208     pjlib-x86_64-x64-vc14-debug-dynamic:lock.obj
 0003:00035230       $SG14806                   000000014015f230     pjlib-x86_64-x64-vc14-debug-dynamic:lock.obj
 0003:00035320       $SG14807                   000000014015f320     pjlib-x86_64-x64-vc14-debug-dynamic:lock.obj
 0003:00035340       $SG14846                   000000014015f340     pjlib-x86_64-x64-vc14-debug-dynamic:lock.obj
 0003:00035430       $SG14847                   000000014015f430     pjlib-x86_64-x64-vc14-debug-dynamic:lock.obj
 0003:00035440       sem_lock_template          000000014015f440     pjlib-x86_64-x64-vc14-debug-dynamic:lock.obj
 0003:00035468       $SG14894                   000000014015f468     pjlib-x86_64-x64-vc14-debug-dynamic:lock.obj
 0003:00035490       $SG14878                   000000014015f490     pjlib-x86_64-x64-vc14-debug-dynamic:lock.obj
 0003:00035580       $SG14879                   000000014015f580     pjlib-x86_64-x64-vc14-debug-dynamic:lock.obj
 0003:000355a0       $SG14893                   000000014015f5a0     pjlib-x86_64-x64-vc14-debug-dynamic:lock.obj
 0003:00035690       $SG14906                   000000014015f690     pjlib-x86_64-x64-vc14-debug-dynamic:lock.obj
 0003:00035780       $SG14907                   000000014015f780     pjlib-x86_64-x64-vc14-debug-dynamic:lock.obj
 0003:000357a8       $SG14920                   000000014015f7a8     pjlib-x86_64-x64-vc14-debug-dynamic:lock.obj
 0003:000357d0       $SG14919                   000000014015f7d0     pjlib-x86_64-x64-vc14-debug-dynamic:lock.obj
 0003:000358c0       $SG14932                   000000014015f8c0     pjlib-x86_64-x64-vc14-debug-dynamic:lock.obj
 0003:000359b0       $SG14933                   000000014015f9b0     pjlib-x86_64-x64-vc14-debug-dynamic:lock.obj
 0003:000359d8       $SG15088                   000000014015f9d8     pjlib-x86_64-x64-vc14-debug-dynamic:lock.obj
 0003:00035a00       $SG14966                   000000014015fa00     pjlib-x86_64-x64-vc14-debug-dynamic:lock.obj
 0003:00035af0       $SG14967                   000000014015faf0     pjlib-x86_64-x64-vc14-debug-dynamic:lock.obj
 0003:00035b34       $SG15089                   000000014015fb34     pjlib-x86_64-x64-vc14-debug-dynamic:lock.obj
 0003:00035b40       $SG14977                   000000014015fb40     pjlib-x86_64-x64-vc14-debug-dynamic:lock.obj
 0003:00035c30       $SG14978                   000000014015fc30     pjlib-x86_64-x64-vc14-debug-dynamic:lock.obj
 0003:00035c78       $SG15169                   000000014015fc78     pjlib-x86_64-x64-vc14-debug-dynamic:lock.obj
 0003:00035c88       $SG15219                   000000014015fc88     pjlib-x86_64-x64-vc14-debug-dynamic:lock.obj
 0003:00035c90       $SG14979                   000000014015fc90     pjlib-x86_64-x64-vc14-debug-dynamic:lock.obj
 0003:00035d80       $SG14980                   000000014015fd80     pjlib-x86_64-x64-vc14-debug-dynamic:lock.obj
 0003:00035db0       $SG14993                   000000014015fdb0     pjlib-x86_64-x64-vc14-debug-dynamic:lock.obj
 0003:00035ea0       $SG14994                   000000014015fea0     pjlib-x86_64-x64-vc14-debug-dynamic:lock.obj
 0003:00035ef0       $SG15009                   000000014015fef0     pjlib-x86_64-x64-vc14-debug-dynamic:lock.obj
 0003:00035fe0       $SG15010                   000000014015ffe0     pjlib-x86_64-x64-vc14-debug-dynamic:lock.obj
 0003:00036030       $SG15087                   0000000140160030     pjlib-x86_64-x64-vc14-debug-dynamic:lock.obj
 0003:00036120       $SG15168                   0000000140160120     pjlib-x86_64-x64-vc14-debug-dynamic:lock.obj
 0003:00036210       $SG15218                   0000000140160210     pjlib-x86_64-x64-vc14-debug-dynamic:lock.obj
 0003:00036570       ?hex@?1??hex2digit@@9@9    0000000140160570     pjlib-x86_64-x64-vc14-debug-dynamic:guid_win32.obj
 0003:00036580       $SG90277                   0000000140160580     pjlib-x86_64-x64-vc14-debug-dynamic:guid_win32.obj
 0003:00036620       $SG8120                    0000000140160620     pjlib-x86_64-x64-vc14-debug-dynamic:config.obj
 0003:0003662c       $SG8125                    000000014016062c     pjlib-x86_64-x64-vc14-debug-dynamic:config.obj
 0003:00036638       id                         0000000140160638     pjlib-x86_64-x64-vc14-debug-dynamic:config.obj
 0003:00036640       $SG8233                    0000000140160640     pjlib-x86_64-x64-vc14-debug-dynamic:config.obj
 0003:00036660       $SG8235                    0000000140160660     pjlib-x86_64-x64-vc14-debug-dynamic:config.obj
 0003:00036678       $SG8237                    0000000140160678     pjlib-x86_64-x64-vc14-debug-dynamic:config.obj
 0003:00036698       $SG8239                    0000000140160698     pjlib-x86_64-x64-vc14-debug-dynamic:config.obj
 0003:000366a0       $SG8240                    00000001401606a0     pjlib-x86_64-x64-vc14-debug-dynamic:config.obj
 0003:000366c0       $SG8242                    00000001401606c0     pjlib-x86_64-x64-vc14-debug-dynamic:config.obj
 0003:000366e0       $SG8244                    00000001401606e0     pjlib-x86_64-x64-vc14-debug-dynamic:config.obj
 0003:000366e8       $SG8245                    00000001401606e8     pjlib-x86_64-x64-vc14-debug-dynamic:config.obj
 0003:00036708       $SG8247                    0000000140160708     pjlib-x86_64-x64-vc14-debug-dynamic:config.obj
 0003:00036710       $SG8248                    0000000140160710     pjlib-x86_64-x64-vc14-debug-dynamic:config.obj
 0003:00036740       $SG8250                    0000000140160740     pjlib-x86_64-x64-vc14-debug-dynamic:config.obj
 0003:00036750       $SG8251                    0000000140160750     pjlib-x86_64-x64-vc14-debug-dynamic:config.obj
 0003:00036770       $SG8253                    0000000140160770     pjlib-x86_64-x64-vc14-debug-dynamic:config.obj
 0003:00036790       $SG8255                    0000000140160790     pjlib-x86_64-x64-vc14-debug-dynamic:config.obj
 0003:000367b0       $SG8257                    00000001401607b0     pjlib-x86_64-x64-vc14-debug-dynamic:config.obj
 0003:000367d0       $SG8259                    00000001401607d0     pjlib-x86_64-x64-vc14-debug-dynamic:config.obj
 0003:000367f0       $SG8261                    00000001401607f0     pjlib-x86_64-x64-vc14-debug-dynamic:config.obj
 0003:00036810       $SG8263                    0000000140160810     pjlib-x86_64-x64-vc14-debug-dynamic:config.obj
 0003:00036830       $SG8265                    0000000140160830     pjlib-x86_64-x64-vc14-debug-dynamic:config.obj
 0003:00036850       $SG8267                    0000000140160850     pjlib-x86_64-x64-vc14-debug-dynamic:config.obj
 0003:00036870       $SG8269                    0000000140160870     pjlib-x86_64-x64-vc14-debug-dynamic:config.obj
 0003:00036890       $SG8271                    0000000140160890     pjlib-x86_64-x64-vc14-debug-dynamic:config.obj
 0003:000368b0       $SG8273                    00000001401608b0     pjlib-x86_64-x64-vc14-debug-dynamic:config.obj
 0003:000368d0       $SG8275                    00000001401608d0     pjlib-x86_64-x64-vc14-debug-dynamic:config.obj
 0003:000368f0       $SG8277                    00000001401608f0     pjlib-x86_64-x64-vc14-debug-dynamic:config.obj
 0003:00036910       $SG8279                    0000000140160910     pjlib-x86_64-x64-vc14-debug-dynamic:config.obj
 0003:00036930       $SG8281                    0000000140160930     pjlib-x86_64-x64-vc14-debug-dynamic:config.obj
 0003:00036950       $SG8283                    0000000140160950     pjlib-x86_64-x64-vc14-debug-dynamic:config.obj
 0003:00036970       $SG8285                    0000000140160970     pjlib-x86_64-x64-vc14-debug-dynamic:config.obj
 0003:00036990       $SG8287                    0000000140160990     pjlib-x86_64-x64-vc14-debug-dynamic:config.obj
 0003:000369b0       $SG8289                    00000001401609b0     pjlib-x86_64-x64-vc14-debug-dynamic:config.obj
 0003:000369d0       $SG8291                    00000001401609d0     pjlib-x86_64-x64-vc14-debug-dynamic:config.obj
 0003:000369f0       $SG8293                    00000001401609f0     pjlib-x86_64-x64-vc14-debug-dynamic:config.obj
 0003:00036a10       $SG8295                    0000000140160a10     pjlib-x86_64-x64-vc14-debug-dynamic:config.obj
 0003:00036a30       $SG8297                    0000000140160a30     pjlib-x86_64-x64-vc14-debug-dynamic:config.obj
 0003:00036a50       $SG8299                    0000000140160a50     pjlib-x86_64-x64-vc14-debug-dynamic:config.obj
 0003:00036a70       $SG8301                    0000000140160a70     pjlib-x86_64-x64-vc14-debug-dynamic:config.obj
 0003:00036a90       $SG8303                    0000000140160a90     pjlib-x86_64-x64-vc14-debug-dynamic:config.obj
 0003:00036ba0       $SG11287                   0000000140160ba0     pjlib-x86_64-x64-vc14-debug-dynamic:log_writer_stdout.obj
 0003:00036c24       $SG11290                   0000000140160c24     pjlib-x86_64-x64-vc14-debug-dynamic:log_writer_stdout.obj
 0003:00036c28       $SG11291                   0000000140160c28     pjlib-x86_64-x64-vc14-debug-dynamic:log_writer_stdout.obj
 0003:00036c50       tls                        0000000140160c50     pjlib-x86_64-x64-vc14-debug-dynamic:pool_buf.obj
 0003:00036c60       $SG8543                    0000000140160c60     pjlib-x86_64-x64-vc14-debug-dynamic:pool_buf.obj
 0003:00036d58       $SG8544                    0000000140160d58     pjlib-x86_64-x64-vc14-debug-dynamic:pool_buf.obj
 0003:00036d80       $SG8566                    0000000140160d80     pjlib-x86_64-x64-vc14-debug-dynamic:pool_buf.obj
 0003:00036e78       $SG8567                    0000000140160e78     pjlib-x86_64-x64-vc14-debug-dynamic:pool_buf.obj
 0003:00036f30       $SG14661                   0000000140160f30     pjlib-x86_64-x64-vc14-debug-dynamic:pool_policy_malloc.obj
 0003:00036fc0       $SG14675                   0000000140160fc0     pjlib-x86_64-x64-vc14-debug-dynamic:pool_policy_malloc.obj
 0003:00037050       $SG14685                   0000000140161050     pjlib-x86_64-x64-vc14-debug-dynamic:pool_policy_malloc.obj
 0003:00037130       $SG62196                   0000000140161130     pjlib-x86_64-x64-vc14-debug-dynamic:ip_helper_win32.obj
 0003:00037140       $SG62211                   0000000140161140     pjlib-x86_64-x64-vc14-debug-dynamic:ip_helper_win32.obj
 0003:00037150       $SG62229                   0000000140161150     pjlib-x86_64-x64-vc14-debug-dynamic:ip_helper_win32.obj
 0003:00037168       $SG62239                   0000000140161168     pjlib-x86_64-x64-vc14-debug-dynamic:ip_helper_win32.obj
 0003:00037178       $SG62253                   0000000140161178     pjlib-x86_64-x64-vc14-debug-dynamic:ip_helper_win32.obj
 0003:00037190       $SG62282                   0000000140161190     pjlib-x86_64-x64-vc14-debug-dynamic:ip_helper_win32.obj
 0003:00037290       $SG62283                   0000000140161290     pjlib-x86_64-x64-vc14-debug-dynamic:ip_helper_win32.obj
 0003:000372b0       $SG62354                   00000001401612b0     pjlib-x86_64-x64-vc14-debug-dynamic:ip_helper_win32.obj
 0003:000373b0       $SG62355                   00000001401613b0     pjlib-x86_64-x64-vc14-debug-dynamic:ip_helper_win32.obj
 0003:000373d0       $SG62357                   00000001401613d0     pjlib-x86_64-x64-vc14-debug-dynamic:ip_helper_win32.obj
 0003:000374d0       $SG62358                   00000001401614d0     pjlib-x86_64-x64-vc14-debug-dynamic:ip_helper_win32.obj
 0003:00037540       $SG62401                   0000000140161540     pjlib-x86_64-x64-vc14-debug-dynamic:ip_helper_win32.obj
 0003:00037640       $SG62402                   0000000140161640     pjlib-x86_64-x64-vc14-debug-dynamic:ip_helper_win32.obj
 0003:00037770       $SG59800                   0000000140161770     pjlib-x86_64-x64-vc14-debug-dynamic:addr_resolv_sock.obj
 0003:00037880       $SG59801                   0000000140161880     pjlib-x86_64-x64-vc14-debug-dynamic:addr_resolv_sock.obj
 0003:000378d0       $SG59830                   00000001401618d0     pjlib-x86_64-x64-vc14-debug-dynamic:addr_resolv_sock.obj
 0003:000379d8       $SG59831                   00000001401619d8     pjlib-x86_64-x64-vc14-debug-dynamic:addr_resolv_sock.obj
 0003:00037a80       $SG54821                   0000000140161a80     pjlib-x86_64-x64-vc14-debug-dynamic:sock_select.obj
 0003:00037b00       $SG54851                   0000000140161b00     pjlib-x86_64-x64-vc14-debug-dynamic:sock_select.obj
 0003:00037b80       $SG54887                   0000000140161b80     pjlib-x86_64-x64-vc14-debug-dynamic:sock_select.obj
 0003:00037c00       $SG54909                   0000000140161c00     pjlib-x86_64-x64-vc14-debug-dynamic:sock_select.obj
 0003:00037c80       $SG54945                   0000000140161c80     pjlib-x86_64-x64-vc14-debug-dynamic:sock_select.obj
 0003:00037d80       $SG11608                   0000000140161d80     libgsmcodec-x86_64-x64-vc14-debug-dynamic:long_term.obj
 0003:00037e88       $SG11609                   0000000140161e88     libgsmcodec-x86_64-x64-vc14-debug-dynamic:long_term.obj
 0003:00037ea0       $SG11612                   0000000140161ea0     libgsmcodec-x86_64-x64-vc14-debug-dynamic:long_term.obj
 0003:00037fa4       $SG11706                   0000000140161fa4     libgsmcodec-x86_64-x64-vc14-debug-dynamic:long_term.obj
 0003:00037fa8       $SG11613                   0000000140161fa8     libgsmcodec-x86_64-x64-vc14-debug-dynamic:long_term.obj
 0003:00037fc0       $SG11615                   0000000140161fc0     libgsmcodec-x86_64-x64-vc14-debug-dynamic:long_term.obj
 0003:000380c4       $SG11710                   00000001401620c4     libgsmcodec-x86_64-x64-vc14-debug-dynamic:long_term.obj
 0003:000380c8       $SG11616                   00000001401620c8     libgsmcodec-x86_64-x64-vc14-debug-dynamic:long_term.obj
 0003:00038100       $SG11617                   0000000140162100     libgsmcodec-x86_64-x64-vc14-debug-dynamic:long_term.obj
 0003:00038208       $SG11618                   0000000140162208     libgsmcodec-x86_64-x64-vc14-debug-dynamic:long_term.obj
 0003:00038234       $SG11708                   0000000140162234     libgsmcodec-x86_64-x64-vc14-debug-dynamic:long_term.obj
 0003:00038240       $SG11705                   0000000140162240     libgsmcodec-x86_64-x64-vc14-debug-dynamic:long_term.obj
 0003:00038348       $SG11712                   0000000140162348     libgsmcodec-x86_64-x64-vc14-debug-dynamic:long_term.obj
 0003:00038350       $SG11707                   0000000140162350     libgsmcodec-x86_64-x64-vc14-debug-dynamic:long_term.obj
 0003:00038454       $SG11714                   0000000140162454     libgsmcodec-x86_64-x64-vc14-debug-dynamic:long_term.obj
 0003:00038460       $SG11709                   0000000140162460     libgsmcodec-x86_64-x64-vc14-debug-dynamic:long_term.obj
 0003:00038564       $SG11716                   0000000140162564     libgsmcodec-x86_64-x64-vc14-debug-dynamic:long_term.obj
 0003:00038570       $SG11711                   0000000140162570     libgsmcodec-x86_64-x64-vc14-debug-dynamic:long_term.obj
 0003:00038678       $SG11749                   0000000140162678     libgsmcodec-x86_64-x64-vc14-debug-dynamic:long_term.obj
 0003:000386b0       $SG11713                   00000001401626b0     libgsmcodec-x86_64-x64-vc14-debug-dynamic:long_term.obj
 0003:000387c0       $SG11715                   00000001401627c0     libgsmcodec-x86_64-x64-vc14-debug-dynamic:long_term.obj
 0003:000388d0       $SG11748                   00000001401628d0     libgsmcodec-x86_64-x64-vc14-debug-dynamic:long_term.obj
 0003:000389e0       $SG11750                   00000001401629e0     libgsmcodec-x86_64-x64-vc14-debug-dynamic:long_term.obj
 0003:00038ae8       $SG11751                   0000000140162ae8     libgsmcodec-x86_64-x64-vc14-debug-dynamic:long_term.obj
 0003:00038dc0       $SG11640                   0000000140162dc0     libgsmcodec-x86_64-x64-vc14-debug-dynamic:lpc.obj
 0003:00038eb8       $SG11641                   0000000140162eb8     libgsmcodec-x86_64-x64-vc14-debug-dynamic:lpc.obj
 0003:00038ed0       $SG11648                   0000000140162ed0     libgsmcodec-x86_64-x64-vc14-debug-dynamic:lpc.obj
 0003:00038fc8       $SG11649                   0000000140162fc8     libgsmcodec-x86_64-x64-vc14-debug-dynamic:lpc.obj
 0003:00038ff0       $SG11720                   0000000140162ff0     libgsmcodec-x86_64-x64-vc14-debug-dynamic:lpc.obj
 0003:000390e8       $SG11721                   00000001401630e8     libgsmcodec-x86_64-x64-vc14-debug-dynamic:lpc.obj
 0003:00039110       $SG11722                   0000000140163110     libgsmcodec-x86_64-x64-vc14-debug-dynamic:lpc.obj
 0003:00039208       $SG11723                   0000000140163208     libgsmcodec-x86_64-x64-vc14-debug-dynamic:lpc.obj
 0003:00039240       $SG11725                   0000000140163240     libgsmcodec-x86_64-x64-vc14-debug-dynamic:lpc.obj
 0003:00039338       $SG11726                   0000000140163338     libgsmcodec-x86_64-x64-vc14-debug-dynamic:lpc.obj
 0003:00039350       $SG11728                   0000000140163350     libgsmcodec-x86_64-x64-vc14-debug-dynamic:lpc.obj
 0003:00039448       $SG11729                   0000000140163448     libgsmcodec-x86_64-x64-vc14-debug-dynamic:lpc.obj
 0003:00039470       $SG11748                   0000000140163470     libgsmcodec-x86_64-x64-vc14-debug-dynamic:lpc.obj
 0003:00039568       $SG11749                   0000000140163568     libgsmcodec-x86_64-x64-vc14-debug-dynamic:lpc.obj
 0003:00039580       $SG11754                   0000000140163580     libgsmcodec-x86_64-x64-vc14-debug-dynamic:lpc.obj
 0003:00039678       $SG11755                   0000000140163678     libgsmcodec-x86_64-x64-vc14-debug-dynamic:lpc.obj
 0003:000396a0       $SG11756                   00000001401636a0     libgsmcodec-x86_64-x64-vc14-debug-dynamic:lpc.obj
 0003:00039798       $SG11757                   0000000140163798     libgsmcodec-x86_64-x64-vc14-debug-dynamic:lpc.obj
 0003:000397c0       $SG11758                   00000001401637c0     libgsmcodec-x86_64-x64-vc14-debug-dynamic:lpc.obj
 0003:000398b8       $SG11759                   00000001401638b8     libgsmcodec-x86_64-x64-vc14-debug-dynamic:lpc.obj
 0003:00039b10       $SG11571                   0000000140163b10     libgsmcodec-x86_64-x64-vc14-debug-dynamic:preprocess.obj
 0003:00039c18       $SG11572                   0000000140163c18     libgsmcodec-x86_64-x64-vc14-debug-dynamic:preprocess.obj
 0003:00039c40       $SG11573                   0000000140163c40     libgsmcodec-x86_64-x64-vc14-debug-dynamic:preprocess.obj
 0003:00039d48       $SG11574                   0000000140163d48     libgsmcodec-x86_64-x64-vc14-debug-dynamic:preprocess.obj
 0003:00039d70       $SG11575                   0000000140163d70     libgsmcodec-x86_64-x64-vc14-debug-dynamic:preprocess.obj
 0003:00039e78       $SG11576                   0000000140163e78     libgsmcodec-x86_64-x64-vc14-debug-dynamic:preprocess.obj
 0003:00039f50       $SG11575                   0000000140163f50     libgsmcodec-x86_64-x64-vc14-debug-dynamic:rpe.obj
 0003:0003a048       $SG11576                   0000000140164048     libgsmcodec-x86_64-x64-vc14-debug-dynamic:rpe.obj
 0003:0003a080       $SG11577                   0000000140164080     libgsmcodec-x86_64-x64-vc14-debug-dynamic:rpe.obj
 0003:0003a178       $SG11578                   0000000140164178     libgsmcodec-x86_64-x64-vc14-debug-dynamic:rpe.obj
 0003:0003a1b0       $SG11624                   00000001401641b0     libgsmcodec-x86_64-x64-vc14-debug-dynamic:rpe.obj
 0003:0003a2a8       $SG11625                   00000001401642a8     libgsmcodec-x86_64-x64-vc14-debug-dynamic:rpe.obj
 0003:0003a2c0       $SG11627                   00000001401642c0     libgsmcodec-x86_64-x64-vc14-debug-dynamic:rpe.obj
 0003:0003a3b8       $SG11628                   00000001401643b8     libgsmcodec-x86_64-x64-vc14-debug-dynamic:rpe.obj
 0003:0003a3f0       $SG11629                   00000001401643f0     libgsmcodec-x86_64-x64-vc14-debug-dynamic:rpe.obj
 0003:0003a4e8       $SG11630                   00000001401644e8     libgsmcodec-x86_64-x64-vc14-debug-dynamic:rpe.obj
 0003:0003a520       $SG11631                   0000000140164520     libgsmcodec-x86_64-x64-vc14-debug-dynamic:rpe.obj
 0003:0003a618       $SG11632                   0000000140164618     libgsmcodec-x86_64-x64-vc14-debug-dynamic:rpe.obj
 0003:0003a650       $SG11633                   0000000140164650     libgsmcodec-x86_64-x64-vc14-debug-dynamic:rpe.obj
 0003:0003a748       $SG11634                   0000000140164748     libgsmcodec-x86_64-x64-vc14-debug-dynamic:rpe.obj
 0003:0003a780       $SG11635                   0000000140164780     libgsmcodec-x86_64-x64-vc14-debug-dynamic:rpe.obj
 0003:0003a878       $SG11636                   0000000140164878     libgsmcodec-x86_64-x64-vc14-debug-dynamic:rpe.obj
 0003:0003a8b0       $SG11668                   00000001401648b0     libgsmcodec-x86_64-x64-vc14-debug-dynamic:rpe.obj
 0003:0003a9a8       $SG11669                   00000001401649a8     libgsmcodec-x86_64-x64-vc14-debug-dynamic:rpe.obj
 0003:0003a9e0       $SG11670                   00000001401649e0     libgsmcodec-x86_64-x64-vc14-debug-dynamic:rpe.obj
 0003:0003aad8       $SG11671                   0000000140164ad8     libgsmcodec-x86_64-x64-vc14-debug-dynamic:rpe.obj
 0003:0003ab10       $SG11672                   0000000140164b10     libgsmcodec-x86_64-x64-vc14-debug-dynamic:rpe.obj
 0003:0003ac08       $SG11673                   0000000140164c08     libgsmcodec-x86_64-x64-vc14-debug-dynamic:rpe.obj
 0003:0003ac40       $SG11690                   0000000140164c40     libgsmcodec-x86_64-x64-vc14-debug-dynamic:rpe.obj
 0003:0003ad38       $SG11691                   0000000140164d38     libgsmcodec-x86_64-x64-vc14-debug-dynamic:rpe.obj
 0003:0003b030       $SG11566                   0000000140165030     libgsmcodec-x86_64-x64-vc14-debug-dynamic:add.obj
 0003:0003b128       $SG11567                   0000000140165128     libgsmcodec-x86_64-x64-vc14-debug-dynamic:add.obj
 0003:0003b170       $SG11606                   0000000140165170     libgsmcodec-x86_64-x64-vc14-debug-dynamic:add.obj
 0003:0003b268       $SG11607                   0000000140165268     libgsmcodec-x86_64-x64-vc14-debug-dynamic:add.obj
 0003:0003b280       $SG11650                   0000000140165280     libgsmcodec-x86_64-x64-vc14-debug-dynamic:add.obj
 0003:0003b378       $SG11651                   0000000140165378     libgsmcodec-x86_64-x64-vc14-debug-dynamic:add.obj
 0003:0003d754       ?eps@?1??LSF_check@@9@9    0000000140167754     libilbccodec-x86_64-x64-vc14-debug-dynamic:helpfun.obj
 0003:0003d758       ?eps2@?1??LSF_check@@9@9   0000000140167758     libilbccodec-x86_64-x64-vc14-debug-dynamic:helpfun.obj
 0003:0003d75c       ?maxlsf@?1??LSF_check@@9@9 000000014016775c     libilbccodec-x86_64-x64-vc14-debug-dynamic:helpfun.obj
 0003:0003d760       ?minlsf@?1??LSF_check@@9@9 0000000140167760     libilbccodec-x86_64-x64-vc14-debug-dynamic:helpfun.obj
 0003:0003d768       $SG13654                   0000000140167768     libspeex-x86_64-x64-vc14-debug-dynamic:bits.obj
 0003:0003d780       $SG13735                   0000000140167780     libspeex-x86_64-x64-vc14-debug-dynamic:bits.obj
 0003:0003d7a8       $SG13741                   00000001401677a8     libspeex-x86_64-x64-vc14-debug-dynamic:bits.obj
 0003:0003d7d8       $SG13742                   00000001401677d8     libspeex-x86_64-x64-vc14-debug-dynamic:bits.obj
 0003:0003d7e4       $SG13743                   00000001401677e4     libspeex-x86_64-x64-vc14-debug-dynamic:bits.obj
 0003:0003d7f0       $SG13745                   00000001401677f0     libspeex-x86_64-x64-vc14-debug-dynamic:bits.obj
 0003:0003d828       $SG13746                   0000000140167828     libspeex-x86_64-x64-vc14-debug-dynamic:bits.obj
 0003:0003d834       $SG13747                   0000000140167834     libspeex-x86_64-x64-vc14-debug-dynamic:bits.obj
 0003:0003d840       $SG13781                   0000000140167840     libspeex-x86_64-x64-vc14-debug-dynamic:bits.obj
 0003:0003d87c       $SG13783                   000000014016787c     libspeex-x86_64-x64-vc14-debug-dynamic:bits.obj
 0003:0003d888       $SG13782                   0000000140167888     libspeex-x86_64-x64-vc14-debug-dynamic:bits.obj
 0003:0003d898       $SG13785                   0000000140167898     libspeex-x86_64-x64-vc14-debug-dynamic:bits.obj
 0003:0003d8d0       $SG13786                   00000001401678d0     libspeex-x86_64-x64-vc14-debug-dynamic:bits.obj
 0003:0003d8dc       $SG13787                   00000001401678dc     libspeex-x86_64-x64-vc14-debug-dynamic:bits.obj
 0003:0003d8e8       $SG13840                   00000001401678e8     libspeex-x86_64-x64-vc14-debug-dynamic:bits.obj
 0003:0003d908       $SG13846                   0000000140167908     libspeex-x86_64-x64-vc14-debug-dynamic:bits.obj
 0003:0003d938       $SG13847                   0000000140167938     libspeex-x86_64-x64-vc14-debug-dynamic:bits.obj
 0003:0003d944       $SG13848                   0000000140167944     libspeex-x86_64-x64-vc14-debug-dynamic:bits.obj
 0003:0003d950       $SG13850                   0000000140167950     libspeex-x86_64-x64-vc14-debug-dynamic:bits.obj
 0003:0003d978       $SG13851                   0000000140167978     libspeex-x86_64-x64-vc14-debug-dynamic:bits.obj
 0003:0003d984       $SG13852                   0000000140167984     libspeex-x86_64-x64-vc14-debug-dynamic:bits.obj
 0003:0003d9f8       $SG15298                   00000001401679f8     libspeex-x86_64-x64-vc14-debug-dynamic:speex.obj
 0003:0003da18       $SG15299                   0000000140167a18     libspeex-x86_64-x64-vc14-debug-dynamic:speex.obj
 0003:0003da28       $SG15300                   0000000140167a28     libspeex-x86_64-x64-vc14-debug-dynamic:speex.obj
 0003:0003da30       $SG15322                   0000000140167a30     libspeex-x86_64-x64-vc14-debug-dynamic:speex.obj
 0003:0003da40       $SG15325                   0000000140167a40     libspeex-x86_64-x64-vc14-debug-dynamic:speex.obj
 0003:0003da60       $SG15326                   0000000140167a60     libspeex-x86_64-x64-vc14-debug-dynamic:speex.obj
 0003:0003da70       $SG15327                   0000000140167a70     libspeex-x86_64-x64-vc14-debug-dynamic:speex.obj
 0003:0003da90       $SG10573                   0000000140167a90     libspeex-x86_64-x64-vc14-debug-dynamic:modes.obj
 0003:0003daa0       $SG16136                   0000000140167aa0     libspeex-x86_64-x64-vc14-debug-dynamic:modes_wb.obj
 0003:0003dac0       $SG16178                   0000000140167ac0     libspeex-x86_64-x64-vc14-debug-dynamic:modes_wb.obj
 0003:0003dae0       $SG16175                   0000000140167ae0     libspeex-x86_64-x64-vc14-debug-dynamic:modes_wb.obj
 0003:0003db00       $SG16176                   0000000140167b00     libspeex-x86_64-x64-vc14-debug-dynamic:modes_wb.obj
 0003:0003db10       $SG16177                   0000000140167b10     libspeex-x86_64-x64-vc14-debug-dynamic:modes_wb.obj
 0003:0003db30       $SG16198                   0000000140167b30     libspeex-x86_64-x64-vc14-debug-dynamic:nb_celp.obj
 0003:0003db60       $SG16203                   0000000140167b60     libspeex-x86_64-x64-vc14-debug-dynamic:nb_celp.obj
 0003:0003db78       $SG16549                   0000000140167b78     libspeex-x86_64-x64-vc14-debug-dynamic:nb_celp.obj
 0003:0003dba0       $SG16541                   0000000140167ba0     libspeex-x86_64-x64-vc14-debug-dynamic:nb_celp.obj
 0003:0003dc28       $SG16770                   0000000140167c28     libspeex-x86_64-x64-vc14-debug-dynamic:nb_celp.obj
 0003:0003dc60       $SG16542                   0000000140167c60     libspeex-x86_64-x64-vc14-debug-dynamic:nb_celp.obj
 0003:0003dca8       $SG16563                   0000000140167ca8     libspeex-x86_64-x64-vc14-debug-dynamic:nb_celp.obj
 0003:0003dcd4       $SG16976                   0000000140167cd4     libspeex-x86_64-x64-vc14-debug-dynamic:nb_celp.obj
 0003:0003dce0       $SG16548                   0000000140167ce0     libspeex-x86_64-x64-vc14-debug-dynamic:nb_celp.obj
 0003:0003dd68       $SG16774                   0000000140167d68     libspeex-x86_64-x64-vc14-debug-dynamic:nb_celp.obj
 0003:0003dda0       $SG16562                   0000000140167da0     libspeex-x86_64-x64-vc14-debug-dynamic:nb_celp.obj
 0003:0003de28       $SG16776                   0000000140167e28     libspeex-x86_64-x64-vc14-debug-dynamic:nb_celp.obj
 0003:0003de68       $SG16787                   0000000140167e68     libspeex-x86_64-x64-vc14-debug-dynamic:nb_celp.obj
 0003:0003dea0       $SG16800                   0000000140167ea0     libspeex-x86_64-x64-vc14-debug-dynamic:nb_celp.obj
 0003:0003df28       $SG16801                   0000000140167f28     libspeex-x86_64-x64-vc14-debug-dynamic:nb_celp.obj
 0003:0003df50       $SG16819                   0000000140167f50     libspeex-x86_64-x64-vc14-debug-dynamic:nb_celp.obj
 0003:0003dfd8       $SG16820                   0000000140167fd8     libspeex-x86_64-x64-vc14-debug-dynamic:nb_celp.obj
 0003:0003e008       $SG16974                   0000000140168008     libspeex-x86_64-x64-vc14-debug-dynamic:nb_celp.obj
 0003:0003e024       $SG17067                   0000000140168024     libspeex-x86_64-x64-vc14-debug-dynamic:nb_celp.obj
 0003:0003e030       $SG16975                   0000000140168030     libspeex-x86_64-x64-vc14-debug-dynamic:nb_celp.obj
 0003:0003e040       $SG17065                   0000000140168040     libspeex-x86_64-x64-vc14-debug-dynamic:nb_celp.obj
 0003:0003e060       $SG17066                   0000000140168060     libspeex-x86_64-x64-vc14-debug-dynamic:nb_celp.obj
 0003:0003e180       $SG16317                   0000000140168180     libspeex-x86_64-x64-vc14-debug-dynamic:sb_celp.obj
 0003:0003e198       $SG16771                   0000000140168198     libspeex-x86_64-x64-vc14-debug-dynamic:sb_celp.obj
 0003:0003e1d0       $SG16930                   00000001401681d0     libspeex-x86_64-x64-vc14-debug-dynamic:sb_celp.obj
 0003:0003e1ec       $SG16932                   00000001401681ec     libspeex-x86_64-x64-vc14-debug-dynamic:sb_celp.obj
 0003:0003e1f8       $SG16931                   00000001401681f8     libspeex-x86_64-x64-vc14-debug-dynamic:sb_celp.obj
 0003:0003e208       $SG17017                   0000000140168208     libspeex-x86_64-x64-vc14-debug-dynamic:sb_celp.obj
 0003:0003e224       $SG17019                   0000000140168224     libspeex-x86_64-x64-vc14-debug-dynamic:sb_celp.obj
 0003:0003e230       $SG17018                   0000000140168230     libspeex-x86_64-x64-vc14-debug-dynamic:sb_celp.obj
 0003:0003e268       $SG13946                   0000000140168268     libspeex-x86_64-x64-vc14-debug-dynamic:speex_callbacks.obj
 0003:0003e280       $SG59990                   0000000140168280     libsrtp-x86_64-x64-vc14-debug-dynamic:srtp.obj
 0003:0003e288       $SG60015                   0000000140168288     libsrtp-x86_64-x64-vc14-debug-dynamic:srtp.obj
 0003:0003e298       $SG60022                   0000000140168298     libsrtp-x86_64-x64-vc14-debug-dynamic:srtp.obj
 0003:0003e2a4       $SG60023                   00000001401682a4     libsrtp-x86_64-x64-vc14-debug-dynamic:srtp.obj
 0003:0003e2b0       $SG60175                   00000001401682b0     libsrtp-x86_64-x64-vc14-debug-dynamic:srtp.obj
 0003:0003e2d8       $SG60349                   00000001401682d8     libsrtp-x86_64-x64-vc14-debug-dynamic:srtp.obj
 0003:0003e2f0       $SG60351                   00000001401682f0     libsrtp-x86_64-x64-vc14-debug-dynamic:srtp.obj
 0003:0003e308       $SG60353                   0000000140168308     libsrtp-x86_64-x64-vc14-debug-dynamic:srtp.obj
 0003:0003e320       $SG60355                   0000000140168320     libsrtp-x86_64-x64-vc14-debug-dynamic:srtp.obj
 0003:0003e338       $SG60357                   0000000140168338     libsrtp-x86_64-x64-vc14-debug-dynamic:srtp.obj
 0003:0003e350       $SG60361                   0000000140168350     libsrtp-x86_64-x64-vc14-debug-dynamic:srtp.obj
 0003:0003e368       $SG60364                   0000000140168368     libsrtp-x86_64-x64-vc14-debug-dynamic:srtp.obj
 0003:0003e398       $SG60368                   0000000140168398     libsrtp-x86_64-x64-vc14-debug-dynamic:srtp.obj
 0003:0003e3b0       $SG60380                   00000001401683b0     libsrtp-x86_64-x64-vc14-debug-dynamic:srtp.obj
 0003:0003e3d0       $SG60383                   00000001401683d0     libsrtp-x86_64-x64-vc14-debug-dynamic:srtp.obj
 0003:0003e408       $SG60387                   0000000140168408     libsrtp-x86_64-x64-vc14-debug-dynamic:srtp.obj
 0003:0003e428       $SG60393                   0000000140168428     libsrtp-x86_64-x64-vc14-debug-dynamic:srtp.obj
 0003:0003e440       $SG60396                   0000000140168440     libsrtp-x86_64-x64-vc14-debug-dynamic:srtp.obj
 0003:0003e458       $SG60400                   0000000140168458     libsrtp-x86_64-x64-vc14-debug-dynamic:srtp.obj
 0003:0003e490       $SG60403                   0000000140168490     libsrtp-x86_64-x64-vc14-debug-dynamic:srtp.obj
 0003:0003e4b0       $SG60406                   00000001401684b0     libsrtp-x86_64-x64-vc14-debug-dynamic:srtp.obj
 0003:0003e4d0       $SG60410                   00000001401684d0     libsrtp-x86_64-x64-vc14-debug-dynamic:srtp.obj
 0003:0003e4f0       $SG60420                   00000001401684f0     libsrtp-x86_64-x64-vc14-debug-dynamic:srtp.obj
 0003:0003e518       $SG60435                   0000000140168518     libsrtp-x86_64-x64-vc14-debug-dynamic:srtp.obj
 0003:0003e530       $SG60437                   0000000140168530     libsrtp-x86_64-x64-vc14-debug-dynamic:srtp.obj
 0003:0003e548       $SG60439                   0000000140168548     libsrtp-x86_64-x64-vc14-debug-dynamic:srtp.obj
 0003:0003e568       $SG60441                   0000000140168568     libsrtp-x86_64-x64-vc14-debug-dynamic:srtp.obj
 0003:0003e588       $SG60443                   0000000140168588     libsrtp-x86_64-x64-vc14-debug-dynamic:srtp.obj
 0003:0003e5a8       $SG60445                   00000001401685a8     libsrtp-x86_64-x64-vc14-debug-dynamic:srtp.obj
 0003:0003e5d0       srtp_event_handler         00000001401685d0     libsrtp-x86_64-x64-vc14-debug-dynamic:srtp.obj
 0003:0003e5d8       $SG60528                   00000001401685d8     libsrtp-x86_64-x64-vc14-debug-dynamic:srtp.obj
 0003:0003e5f8       $SG60530                   00000001401685f8     libsrtp-x86_64-x64-vc14-debug-dynamic:srtp.obj
 0003:0003e610       $SG60592                   0000000140168610     libsrtp-x86_64-x64-vc14-debug-dynamic:srtp.obj
 0003:0003e638       $SG60644                   0000000140168638     libsrtp-x86_64-x64-vc14-debug-dynamic:srtp.obj
 0003:0003e658       $SG60659                   0000000140168658     libsrtp-x86_64-x64-vc14-debug-dynamic:srtp.obj
 0003:0003e680       $SG60717                   0000000140168680     libsrtp-x86_64-x64-vc14-debug-dynamic:srtp.obj
 0003:0003e6a8       $SG60719                   00000001401686a8     libsrtp-x86_64-x64-vc14-debug-dynamic:srtp.obj
 0003:0003e6d0       $SG60816                   00000001401686d0     libsrtp-x86_64-x64-vc14-debug-dynamic:srtp.obj
 0003:0003e6f0       $SG60850                   00000001401686f0     libsrtp-x86_64-x64-vc14-debug-dynamic:srtp.obj
 0003:0003e718       $SG60861                   0000000140168718     libsrtp-x86_64-x64-vc14-debug-dynamic:srtp.obj
 0003:0003e738       $SG60870                   0000000140168738     libsrtp-x86_64-x64-vc14-debug-dynamic:srtp.obj
 0003:0003e760       $SG60872                   0000000140168760     libsrtp-x86_64-x64-vc14-debug-dynamic:srtp.obj
 0003:0003e780       $SG60952                   0000000140168780     libsrtp-x86_64-x64-vc14-debug-dynamic:srtp.obj
 0003:0003e7a0       $SG60960                   00000001401687a0     libsrtp-x86_64-x64-vc14-debug-dynamic:srtp.obj
 0003:0003e7d0       $SG60966                   00000001401687d0     libsrtp-x86_64-x64-vc14-debug-dynamic:srtp.obj
 0003:0003e7f8       $SG60987                   00000001401687f8     libsrtp-x86_64-x64-vc14-debug-dynamic:srtp.obj
 0003:0003e818       $SG60991                   0000000140168818     libsrtp-x86_64-x64-vc14-debug-dynamic:srtp.obj
 0003:0003e838       $SG60993                   0000000140168838     libsrtp-x86_64-x64-vc14-debug-dynamic:srtp.obj
 0003:0003e858       $SG61240                   0000000140168858     libsrtp-x86_64-x64-vc14-debug-dynamic:srtp.obj
 0003:0003e878       $SG61242                   0000000140168878     libsrtp-x86_64-x64-vc14-debug-dynamic:srtp.obj
 0003:0003e890       $SG61292                   0000000140168890     libsrtp-x86_64-x64-vc14-debug-dynamic:srtp.obj
 0003:0003e8a8       $SG61358                   00000001401688a8     libsrtp-x86_64-x64-vc14-debug-dynamic:srtp.obj
 0003:0003e8c0       $SG61448                   00000001401688c0     libsrtp-x86_64-x64-vc14-debug-dynamic:srtp.obj
 0003:0003e8d8       $SG61455                   00000001401688d8     libsrtp-x86_64-x64-vc14-debug-dynamic:srtp.obj
 0003:0003e8f8       $SG61460                   00000001401688f8     libsrtp-x86_64-x64-vc14-debug-dynamic:srtp.obj
 0003:0003e918       $SG61534                   0000000140168918     libsrtp-x86_64-x64-vc14-debug-dynamic:srtp.obj
 0003:0003e950       $SG61546                   0000000140168950     libsrtp-x86_64-x64-vc14-debug-dynamic:srtp.obj
 0003:0003e968       $SG61553                   0000000140168968     libsrtp-x86_64-x64-vc14-debug-dynamic:srtp.obj
 0003:0003e990       $SG61556                   0000000140168990     libsrtp-x86_64-x64-vc14-debug-dynamic:srtp.obj
 0003:0003e9b8       $SG61560                   00000001401689b8     libsrtp-x86_64-x64-vc14-debug-dynamic:srtp.obj
 0003:0003eb60       $SG59750                   0000000140168b60     libsrtp-x86_64-x64-vc14-debug-dynamic:alloc.obj
 0003:0003eb68       $SG59758                   0000000140168b68     libsrtp-x86_64-x64-vc14-debug-dynamic:alloc.obj
 0003:0003eb88       $SG59760                   0000000140168b88     libsrtp-x86_64-x64-vc14-debug-dynamic:alloc.obj
 0003:0003ebb8       $SG59765                   0000000140168bb8     libsrtp-x86_64-x64-vc14-debug-dynamic:alloc.obj
 0003:0003f0c0       $SG11357                   00000001401690c0     libsrtp-x86_64-x64-vc14-debug-dynamic:srtp_err.obj
 0003:0003f0e0       $SG59478                   00000001401690e0     libsrtp-x86_64-x64-vc14-debug-dynamic:cipher.obj
 0003:0003f0e8       $SG59625                   00000001401690e8     libsrtp-x86_64-x64-vc14-debug-dynamic:cipher.obj
 0003:0003f110       $SG59629                   0000000140169110     libsrtp-x86_64-x64-vc14-debug-dynamic:cipher.obj
 0003:0003f128       $SG59633                   0000000140169128     libsrtp-x86_64-x64-vc14-debug-dynamic:cipher.obj
 0003:0003f140       $SG59638                   0000000140169140     libsrtp-x86_64-x64-vc14-debug-dynamic:cipher.obj
 0003:0003f150       $SG59641                   0000000140169150     libsrtp-x86_64-x64-vc14-debug-dynamic:cipher.obj
 0003:0003f160       $SG59647                   0000000140169160     libsrtp-x86_64-x64-vc14-debug-dynamic:cipher.obj
 0003:0003f178       $SG59651                   0000000140169178     libsrtp-x86_64-x64-vc14-debug-dynamic:cipher.obj
 0003:0003f198       $SG59653                   0000000140169198     libsrtp-x86_64-x64-vc14-debug-dynamic:cipher.obj
 0003:0003f1b8       $SG59656                   00000001401691b8     libsrtp-x86_64-x64-vc14-debug-dynamic:cipher.obj
 0003:0003f1d0       $SG59658                   00000001401691d0     libsrtp-x86_64-x64-vc14-debug-dynamic:cipher.obj
 0003:0003f1e8       $SG59660                   00000001401691e8     libsrtp-x86_64-x64-vc14-debug-dynamic:cipher.obj
 0003:0003f200       $SG59664                   0000000140169200     libsrtp-x86_64-x64-vc14-debug-dynamic:cipher.obj
 0003:0003f218       $SG59670                   0000000140169218     libsrtp-x86_64-x64-vc14-debug-dynamic:cipher.obj
 0003:0003f228       $SG59673                   0000000140169228     libsrtp-x86_64-x64-vc14-debug-dynamic:cipher.obj
 0003:0003f240       $SG59677                   0000000140169240     libsrtp-x86_64-x64-vc14-debug-dynamic:cipher.obj
 0003:0003f260       $SG59679                   0000000140169260     libsrtp-x86_64-x64-vc14-debug-dynamic:cipher.obj
 0003:0003f280       $SG59682                   0000000140169280     libsrtp-x86_64-x64-vc14-debug-dynamic:cipher.obj
 0003:0003f298       $SG59684                   0000000140169298     libsrtp-x86_64-x64-vc14-debug-dynamic:cipher.obj
 0003:0003f2b0       $SG59688                   00000001401692b0     libsrtp-x86_64-x64-vc14-debug-dynamic:cipher.obj
 0003:0003f2d8       $SG59691                   00000001401692d8     libsrtp-x86_64-x64-vc14-debug-dynamic:cipher.obj
 0003:0003f2f0       $SG59701                   00000001401692f0     libsrtp-x86_64-x64-vc14-debug-dynamic:cipher.obj
 0003:0003f300       $SG59707                   0000000140169300     libsrtp-x86_64-x64-vc14-debug-dynamic:cipher.obj
 0003:0003f318       $SG59714                   0000000140169318     libsrtp-x86_64-x64-vc14-debug-dynamic:cipher.obj
 0003:0003f328       $SG59717                   0000000140169328     libsrtp-x86_64-x64-vc14-debug-dynamic:cipher.obj
 0003:0003f340       $SG59721                   0000000140169340     libsrtp-x86_64-x64-vc14-debug-dynamic:cipher.obj
 0003:0003f360       $SG59723                   0000000140169360     libsrtp-x86_64-x64-vc14-debug-dynamic:cipher.obj
 0003:0003f418       $SG59403                   0000000140169418     libsrtp-x86_64-x64-vc14-debug-dynamic:auth.obj
 0003:0003f428       $SG59433                   0000000140169428     libsrtp-x86_64-x64-vc14-debug-dynamic:auth.obj
 0003:0003f458       $SG59440                   0000000140169458     libsrtp-x86_64-x64-vc14-debug-dynamic:auth.obj
 0003:0003f468       $SG59442                   0000000140169468     libsrtp-x86_64-x64-vc14-debug-dynamic:auth.obj
 0003:0003f478       $SG59444                   0000000140169478     libsrtp-x86_64-x64-vc14-debug-dynamic:auth.obj
 0003:0003f490       $SG59446                   0000000140169490     libsrtp-x86_64-x64-vc14-debug-dynamic:auth.obj
 0003:0003f4a8       $SG59449                   00000001401694a8     libsrtp-x86_64-x64-vc14-debug-dynamic:auth.obj
 0003:0003f4c8       $SG59451                   00000001401694c8     libsrtp-x86_64-x64-vc14-debug-dynamic:auth.obj
 0003:0003f528       $SG59750                   0000000140169528     libsrtp-x86_64-x64-vc14-debug-dynamic:crypto_kernel.obj
 0003:0003f538       $SG59793                   0000000140169538     libsrtp-x86_64-x64-vc14-debug-dynamic:crypto_kernel.obj
 0003:0003f548       $SG59794                   0000000140169548     libsrtp-x86_64-x64-vc14-debug-dynamic:crypto_kernel.obj
 0003:0003f558       $SG59796                   0000000140169558     libsrtp-x86_64-x64-vc14-debug-dynamic:crypto_kernel.obj
 0003:0003f578       $SG59797                   0000000140169578     libsrtp-x86_64-x64-vc14-debug-dynamic:crypto_kernel.obj
 0003:0003f580       $SG59798                   0000000140169580     libsrtp-x86_64-x64-vc14-debug-dynamic:crypto_kernel.obj
 0003:0003f590       $SG59799                   0000000140169590     libsrtp-x86_64-x64-vc14-debug-dynamic:crypto_kernel.obj
 0003:0003f5a0       $SG59801                   00000001401695a0     libsrtp-x86_64-x64-vc14-debug-dynamic:crypto_kernel.obj
 0003:0003f5c0       $SG59802                   00000001401695c0     libsrtp-x86_64-x64-vc14-debug-dynamic:crypto_kernel.obj
 0003:0003f5c8       $SG59808                   00000001401695c8     libsrtp-x86_64-x64-vc14-debug-dynamic:crypto_kernel.obj
 0003:0003f5e0       $SG59809                   00000001401695e0     libsrtp-x86_64-x64-vc14-debug-dynamic:crypto_kernel.obj
 0003:0003f5e8       $SG59812                   00000001401695e8     libsrtp-x86_64-x64-vc14-debug-dynamic:crypto_kernel.obj
 0003:0003f5f0       $SG59813                   00000001401695f0     libsrtp-x86_64-x64-vc14-debug-dynamic:crypto_kernel.obj
 0003:0003f5f8       $SG59828                   00000001401695f8     libsrtp-x86_64-x64-vc14-debug-dynamic:crypto_kernel.obj
 0003:0003f620       $SG59830                   0000000140169620     libsrtp-x86_64-x64-vc14-debug-dynamic:crypto_kernel.obj
 0003:0003f650       $SG59832                   0000000140169650     libsrtp-x86_64-x64-vc14-debug-dynamic:crypto_kernel.obj
 0003:0003f6c0       $SG60087                   00000001401696c0     libsrtp-x86_64-x64-vc14-debug-dynamic:ekt.obj
 0003:0003f6d8       $SG60089                   00000001401696d8     libsrtp-x86_64-x64-vc14-debug-dynamic:ekt.obj
 0003:0003f6f8       $SG60091                   00000001401696f8     libsrtp-x86_64-x64-vc14-debug-dynamic:ekt.obj
 0003:0003f718       $SG60093                   0000000140169718     libsrtp-x86_64-x64-vc14-debug-dynamic:ekt.obj
 0003:0003f738       $SG60095                   0000000140169738     libsrtp-x86_64-x64-vc14-debug-dynamic:ekt.obj
 0003:0003f780       $SG59308                   0000000140169780     libsrtp-x86_64-x64-vc14-debug-dynamic:stat.obj
 0003:0003f790       $SG59318                   0000000140169790     libsrtp-x86_64-x64-vc14-debug-dynamic:stat.obj
 0003:0003f7a8       $SG59335                   00000001401697a8     libsrtp-x86_64-x64-vc14-debug-dynamic:stat.obj
 0003:0003f7c0       $SG59370                   00000001401697c0     libsrtp-x86_64-x64-vc14-debug-dynamic:stat.obj
 0003:0003f7d8       $SG59375                   00000001401697d8     libsrtp-x86_64-x64-vc14-debug-dynamic:stat.obj
 0003:0003f7f0       $SG59381                   00000001401697f0     libsrtp-x86_64-x64-vc14-debug-dynamic:stat.obj
 0003:0003f808       $SG59387                   0000000140169808     libsrtp-x86_64-x64-vc14-debug-dynamic:stat.obj
 0003:0003f820       $SG59390                   0000000140169820     libsrtp-x86_64-x64-vc14-debug-dynamic:stat.obj
 0003:0003f830       $SG59392                   0000000140169830     libsrtp-x86_64-x64-vc14-debug-dynamic:stat.obj
 0003:0003f848       $SG59394                   0000000140169848     libsrtp-x86_64-x64-vc14-debug-dynamic:stat.obj
 0003:0003f888       $SG59498                   0000000140169888     libsrtp-x86_64-x64-vc14-debug-dynamic:null_cipher.obj
 0003:0003f8b8       $SG59514                   00000001401698b8     libsrtp-x86_64-x64-vc14-debug-dynamic:null_cipher.obj
 0003:0003f8f8       $SG59519                   00000001401698f8     libsrtp-x86_64-x64-vc14-debug-dynamic:aes_icm.obj
 0003:0003f900       $SG59542                   0000000140169900     libsrtp-x86_64-x64-vc14-debug-dynamic:aes_icm.obj
 0003:0003f930       $SG59574                   0000000140169930     libsrtp-x86_64-x64-vc14-debug-dynamic:aes_icm.obj
 0003:0003f940       $SG59576                   0000000140169940     libsrtp-x86_64-x64-vc14-debug-dynamic:aes_icm.obj
 0003:0003f950       $SG59590                   0000000140169950     libsrtp-x86_64-x64-vc14-debug-dynamic:aes_icm.obj
 0003:0003f968       $SG59592                   0000000140169968     libsrtp-x86_64-x64-vc14-debug-dynamic:aes_icm.obj
 0003:0003f980       $SG59599                   0000000140169980     libsrtp-x86_64-x64-vc14-debug-dynamic:aes_icm.obj
 0003:0003f998       $SG59601                   0000000140169998     libsrtp-x86_64-x64-vc14-debug-dynamic:aes_icm.obj
 0003:0003f9b0       $SG59640                   00000001401699b0     libsrtp-x86_64-x64-vc14-debug-dynamic:aes_icm.obj
 0003:0003f9f8       $SG59425                   00000001401699f8     libsrtp-x86_64-x64-vc14-debug-dynamic:null_auth.obj
 0003:0003fa28       $SG59427                   0000000140169a28     libsrtp-x86_64-x64-vc14-debug-dynamic:null_auth.obj
 0003:0003fa78       $SG59438                   0000000140169a78     libsrtp-x86_64-x64-vc14-debug-dynamic:hmac.obj
 0003:0003fa88       $SG59456                   0000000140169a88     libsrtp-x86_64-x64-vc14-debug-dynamic:hmac.obj
 0003:0003fab8       $SG59458                   0000000140169ab8     libsrtp-x86_64-x64-vc14-debug-dynamic:hmac.obj
 0003:0003fae8       $SG59490                   0000000140169ae8     libsrtp-x86_64-x64-vc14-debug-dynamic:hmac.obj
 0003:0003faf8       $SG59509                   0000000140169af8     libsrtp-x86_64-x64-vc14-debug-dynamic:hmac.obj
 0003:0003fb08       $SG59537                   0000000140169b08     libsrtp-x86_64-x64-vc14-debug-dynamic:hmac.obj
 0003:0003fb28       $SG59539                   0000000140169b28     libsrtp-x86_64-x64-vc14-debug-dynamic:hmac.obj
 0003:0003fb78       $SG59324                   0000000140169b78     libsrtp-x86_64-x64-vc14-debug-dynamic:sha1.obj
 0003:0003fb90       $SG59404                   0000000140169b90     libsrtp-x86_64-x64-vc14-debug-dynamic:sha1.obj
 0003:0003fbb8       $SG59406                   0000000140169bb8     libsrtp-x86_64-x64-vc14-debug-dynamic:sha1.obj
 0003:0003fbe8       $SG59473                   0000000140169be8     libsrtp-x86_64-x64-vc14-debug-dynamic:sha1.obj
 0003:0003fc10       $SG59476                   0000000140169c10     libsrtp-x86_64-x64-vc14-debug-dynamic:sha1.obj
 0003:0003fcb0       ?rate_table@?1??compute_silk_rate_for_hybrid@@9@9 0000000140169cb0     opus:opus_encoder.obj
 0003:0003fd58       A_fb1_20                   0000000140169d58     opus:ana_filt_bank_1.obj
 0003:0003fd5c       A_fb1_21                   0000000140169d5c     opus:ana_filt_bank_1.obj
 0003:0003ff00       $SG25501                   0000000140169f00     encdec.obj
 0003:0003ff01       $SG25653                   0000000140169f01     encdec.obj
 0003:0003ff08       mept                       0000000140169f08     encdec.obj
 0003:0003ff10       file_msec_duration         0000000140169f10     encdec.obj
 0003:0003ff20       g722_codec_factory         0000000140169f20     pjmedia-codec-x86_64-x64-vc14-debug-dynamic:g722.obj
 0003:0003ffa0       gsm_codec_factory          0000000140169fa0     pjmedia-codec-x86_64-x64-vc14-debug-dynamic:gsm.obj
 0003:00040018       ilbc_factory               000000014016a018     pjmedia-codec-x86_64-x64-vc14-debug-dynamic:ilbc.obj
 0003:00040058       l16_factory                000000014016a058     pjmedia-codec-x86_64-x64-vc14-debug-dynamic:l16.obj
 0003:000400a0       opus_codec_factory         000000014016a0a0     pjmedia-codec-x86_64-x64-vc14-debug-dynamic:opus.obj
 0003:000400d0       ?bitrate_str@?1??generate_fmtp@@9@9 000000014016a0d0     pjmedia-codec-x86_64-x64-vc14-debug-dynamic:opus.obj
 0003:000400e0       ?clockrate_str@?1??generate_fmtp@@9@9 000000014016a0e0     pjmedia-codec-x86_64-x64-vc14-debug-dynamic:opus.obj
 0003:00040100       spx_factory                000000014016a100     pjmedia-codec-x86_64-x64-vc14-debug-dynamic:speex_codec.obj
 0003:00040220       $SG67816                   000000014016a220     pjmedia-audiodev-x86_64-x64-vc14-debug-dynamic:wmme_dev.obj
 0003:00040228       ?name@?1??get_fmt_name@@9@9 000000014016a228     pjmedia-audiodev-x86_64-x64-vc14-debug-dynamic:wmme_dev.obj
 0003:00040230       ?rec_cnt@?1??wmme_dev_thread@@9@9 000000014016a230     pjmedia-audiodev-x86_64-x64-vc14-debug-dynamic:wmme_dev.obj
 0003:00040234       ?play_cnt@?1??wmme_dev_thread@@9@9 000000014016a234     pjmedia-audiodev-x86_64-x64-vc14-debug-dynamic:wmme_dev.obj
 0003:0004023c       $SG20878                   000000014016a23c     pjmedia-x86_64-x64-vc14-debug-dynamic:endpoint.obj
 0003:0004023d       $SG21048                   000000014016a23d     pjmedia-x86_64-x64-vc14-debug-dynamic:endpoint.obj
 0003:0004023e       $SG21050                   000000014016a23e     pjmedia-x86_64-x64-vc14-debug-dynamic:endpoint.obj
 0003:0004023f       $SG21052                   000000014016a23f     pjmedia-x86_64-x64-vc14-debug-dynamic:endpoint.obj
 0003:00040240       $SG21054                   000000014016a240     pjmedia-x86_64-x64-vc14-debug-dynamic:endpoint.obj
 0003:00040241       $SG21056                   000000014016a241     pjmedia-x86_64-x64-vc14-debug-dynamic:endpoint.obj
 0003:00040250       g711_factory               000000014016a250     pjmedia-x86_64-x64-vc14-debug-dynamic:g711.obj
 0003:000402d0       aud_subsys                 000000014016a2d0     pjmedia-x86_64-x64-vc14-debug-dynamic:audiodev.obj
 0003:00040990       event_manager_instance     000000014016a990     pjmedia-x86_64-x64-vc14-debug-dynamic:event.obj
 0003:000409a0       ?ev_queue@?9??pjmedia_event_publish@@9@9 000000014016a9a0     pjmedia-x86_64-x64-vc14-debug-dynamic:event.obj
 0003:000412c0       is_initialized             000000014016b2c0     pjmedia-x86_64-x64-vc14-debug-dynamic:sdp.obj
 0003:000412c4       $SG17124                   000000014016b2c4     pjmedia-x86_64-x64-vc14-debug-dynamic:sdp.obj
 0003:000412d0       cis_buf                    000000014016b2d0     pjmedia-x86_64-x64-vc14-debug-dynamic:sdp.obj
 0003:000416d8       cs_digit                   000000014016b6d8     pjmedia-x86_64-x64-vc14-debug-dynamic:sdp.obj
 0003:000416e8       cs_token                   000000014016b6e8     pjmedia-x86_64-x64-vc14-debug-dynamic:sdp.obj
 0003:000417d0       ?msg@?3??get_libsrtp_errstr@@9@9 000000014016b7d0     pjmedia-x86_64-x64-vc14-debug-dynamic:transport_srtp.obj
 0003:000417f0       libsrtp_initialized        000000014016b7f0     pjmedia-x86_64-x64-vc14-debug-dynamic:transport_srtp.obj
 0003:000417f4       $SG23046                   000000014016b7f4     pjmedia-x86_64-x64-vc14-debug-dynamic:transport_srtp.obj
 0003:000417f5       $SG23048                   000000014016b7f5     pjmedia-x86_64-x64-vc14-debug-dynamic:transport_srtp.obj
 0003:000417f6       $SG23058                   000000014016b7f6     pjmedia-x86_64-x64-vc14-debug-dynamic:transport_srtp.obj
 0003:000417f7       $SG23060                   000000014016b7f7     pjmedia-x86_64-x64-vc14-debug-dynamic:transport_srtp.obj
 0003:00041800       initialized                000000014016b800     pjlib-x86_64-x64-vc14-debug-dynamic:os_core_win32.obj
 0003:00041804       atexit_count               000000014016b804     pjlib-x86_64-x64-vc14-debug-dynamic:os_core_win32.obj
 0003:00041808       $SG59961                   000000014016b808     pjlib-x86_64-x64-vc14-debug-dynamic:os_core_win32.obj
 0003:00041810       main_thread                000000014016b810     pjlib-x86_64-x64-vc14-debug-dynamic:os_core_win32.obj
 0003:00041910       critical_section_mutex     000000014016b910     pjlib-x86_64-x64-vc14-debug-dynamic:os_core_win32.obj
 0003:00041970       atexit_func                000000014016b970     pjlib-x86_64-x64-vc14-debug-dynamic:os_core_win32.obj
 0003:00041af0       err_msg_hnd_cnt            000000014016baf0     pjlib-x86_64-x64-vc14-debug-dynamic:errno.obj
 0003:00041b00       err_msg_hnd                000000014016bb00     pjlib-x86_64-x64-vc14-debug-dynamic:errno.obj
 0003:00041bc8       g_last_thread              000000014016bbc8     pjlib-x86_64-x64-vc14-debug-dynamic:log.obj
 0003:00041bd8       base_time                  000000014016bbd8     pjlib-x86_64-x64-vc14-debug-dynamic:os_time_win32.obj
 0003:00041bf0       ?buf@?1??pj_gethostname@@9@9 000000014016bbf0     pjlib-x86_64-x64-vc14-debug-dynamic:sock_bsd.obj
 0003:00041c70       ?hostname@?1??pj_gethostname@@9@9 000000014016bc70     pjlib-x86_64-x64-vc14-debug-dynamic:sock_bsd.obj
 0003:00041c9c       $SG60326                   000000014016bc9c     pjlib-x86_64-x64-vc14-debug-dynamic:sock_common.obj
 0003:00041c9d       $SG60330                   000000014016bc9d     pjlib-x86_64-x64-vc14-debug-dynamic:sock_common.obj
 0003:00041c9e       $SG60331                   000000014016bc9e     pjlib-x86_64-x64-vc14-debug-dynamic:sock_common.obj
 0003:00041c9f       $SG60980                   000000014016bc9f     pjlib-x86_64-x64-vc14-debug-dynamic:sock_common.obj
 0003:00041ca0       $SG60981                   000000014016bca0     pjlib-x86_64-x64-vc14-debug-dynamic:sock_common.obj
 0003:00041cb0       exception_id_names         000000014016bcb0     pjlib-x86_64-x64-vc14-debug-dynamic:except.obj
 0003:00041d30       ?unknown_name@?1??pj_exception_id_name@@9@9 000000014016bd30     pjlib-x86_64-x64-vc14-debug-dynamic:except.obj
 0003:00041d70       stack_based_factory        000000014016bd70     pjlib-x86_64-x64-vc14-debug-dynamic:pool_buf.obj
 0003:00041db8       is_initialized             000000014016bdb8     pjlib-x86_64-x64-vc14-debug-dynamic:pool_buf.obj
 0003:00041dd0       s_hDLL                     000000014016bdd0     pjlib-x86_64-x64-vc14-debug-dynamic:ip_helper_win32.obj
 0003:00041dd8       s_pfnGetIpAddrTable        000000014016bdd8     pjlib-x86_64-x64-vc14-debug-dynamic:ip_helper_win32.obj
 0003:00041de0       s_pfnGetAdapterAddresses   000000014016bde0     pjlib-x86_64-x64-vc14-debug-dynamic:ip_helper_win32.obj
 0003:00041de8       s_pfnGetIpForwardTable     000000014016bde8     pjlib-x86_64-x64-vc14-debug-dynamic:ip_helper_win32.obj
 0003:00041df0       s_pfnGetIfEntry            000000014016bdf0     pjlib-x86_64-x64-vc14-debug-dynamic:ip_helper_win32.obj
 0003:00041e00       $SG15320                   000000014016be00     libspeex-x86_64-x64-vc14-debug-dynamic:speex.obj
 0003:00041e08       srtp_log_handler           000000014016be08     libsrtp-x86_64-x64-vc14-debug-dynamic:srtp.obj
 0003:00041e10       srtp_log_handler_data      000000014016be10     libsrtp-x86_64-x64-vc14-debug-dynamic:srtp.obj
 0003:00041e48       srtp_aes_icm_128_test_case_0_nonce 000000014016be48     libsrtp-x86_64-x64-vc14-debug-dynamic:aes_icm.obj
 0003:00041e58       srtp_aes_icm_256_test_case_0_nonce 000000014016be58     libsrtp-x86_64-x64-vc14-debug-dynamic:aes_icm.obj
 0003:00041e70       GS_ExceptionRecord         000000014016be70     MSVCRTD:gs_report.obj
 0003:00041f10       GS_ContextRecord           000000014016bf10     MSVCRTD:gs_report.obj
 0003:00042508       ?is_initialized_as_dll@@3_NA 000000014016c508     MSVCRTD:utility.obj
 0003:00042509       ?module_local_atexit_table_initialized@@3_NA 000000014016c509     MSVCRTD:utility.obj
 0003:00042510       ?module_local_atexit_table@@3U_onexit_table_t@@A 000000014016c510     MSVCRTD:utility.obj
 0003:00042528       ?module_local_at_quick_exit_table@@3U_onexit_table_t@@A 000000014016c528     MSVCRTD:utility.obj
 0005:00001320       .idata$6                   0000000140175320     ole32:ole32.dll
 0005:00001370       .idata$6                   0000000140175370     ws2_32:WS2_32.dll
 0005:0000153c       .idata$6                   000000014017553c     winmm:WINMM.dll
 0005:00001a0c       .idata$6                   0000000140175a0c     kernel32:KERNEL32.dll
 0005:00001ae2       .idata$6                   0000000140175ae2     vcruntimed:VCRUNTIME140D.dll
 0005:00001e5a       .idata$6                   0000000140175e5a     ucrtd:ucrtbased.dll
 0007:00000000       s_dwExp2                   0000000140178000     libcmt:svml_dexp2_sse2.obj
 0007:00000240       s_dwInvLn                  0000000140178240     libcmt:svml_dexp2_sse2.obj
 0007:00000250       s_dwNegRS                  0000000140178250     libcmt:svml_dexp2_sse2.obj
 0007:00000260       s_dwLnHi                   0000000140178260     libcmt:svml_dexp2_sse2.obj
 0007:00000270       s_dwBias                   0000000140178270     libcmt:svml_dexp2_sse2.obj
 0007:00000280       s_dwLnLo                   0000000140178280     libcmt:svml_dexp2_sse2.obj
 0007:00000290       s_dwA4                     0000000140178290     libcmt:svml_dexp2_sse2.obj
 0007:000002a0       s_dwA5                     00000001401782a0     libcmt:svml_dexp2_sse2.obj
 0007:000002b0       s_dwA3                     00000001401782b0     libcmt:svml_dexp2_sse2.obj
 0007:000002c0       s_dwA2                     00000001401782c0     libcmt:svml_dexp2_sse2.obj
 0007:000002d0       s_dwOne                    00000001401782d0     libcmt:svml_dexp2_sse2.obj
 0007:000002e0       iAbsMask                   00000001401782e0     libcmt:svml_dexp2_sse2.obj
 0007:000002f0       dbB1                       00000001401782f0     libcmt:svml_dexp2_sse2.obj
 0007:00000300       dbB2                       0000000140178300     libcmt:svml_dexp2_sse2.obj
 0007:00000310       dbInf                      0000000140178310     libcmt:svml_dexp2_sse2.obj
 0007:00000400       s_dwExp2                   0000000140178400     libcmt:svml_dexp2_sse4.obj
 0007:00000640       s_dwInvLn                  0000000140178640     libcmt:svml_dexp2_sse4.obj
 0007:00000650       s_dwNegRS                  0000000140178650     libcmt:svml_dexp2_sse4.obj
 0007:00000660       s_dwLnHi                   0000000140178660     libcmt:svml_dexp2_sse4.obj
 0007:00000670       s_dwBias                   0000000140178670     libcmt:svml_dexp2_sse4.obj
 0007:00000680       s_dwLnLo                   0000000140178680     libcmt:svml_dexp2_sse4.obj
 0007:00000690       s_dwA4                     0000000140178690     libcmt:svml_dexp2_sse4.obj
 0007:000006a0       s_dwA5                     00000001401786a0     libcmt:svml_dexp2_sse4.obj
 0007:000006b0       s_dwA3                     00000001401786b0     libcmt:svml_dexp2_sse4.obj
 0007:000006c0       s_dwA2                     00000001401786c0     libcmt:svml_dexp2_sse4.obj
 0007:000006d0       s_dwOne                    00000001401786d0     libcmt:svml_dexp2_sse4.obj
 0007:000006e0       iAbsMask                   00000001401786e0     libcmt:svml_dexp2_sse4.obj
 0007:000006f0       dbB1                       00000001401786f0     libcmt:svml_dexp2_sse4.obj
 0007:00000700       dbB2                       0000000140178700     libcmt:svml_dexp2_sse4.obj
 0007:00000710       dbInf                      0000000140178710     libcmt:svml_dexp2_sse4.obj
 0007:00000800       _2il0floatpacket$0         0000000140178800     libcmt:svml_dfloor2_sse2.obj
 0007:00000810       _2il0floatpacket$1         0000000140178810     libcmt:svml_dfloor2_sse2.obj
 0007:00000820       _2il0floatpacket$2         0000000140178820     libcmt:svml_dfloor2_sse2.obj
