 latency

 Timestamp is 60aeb746 (Wed May 26 23:01:58 2021)

 Preferred load address is 0000000140000000

 Start         Length     Name                   Class
 0001:00000000 0004e870H .text$mn                CODE
 0001:0004e870 00001040H .text$mn$00             CODE
 0001:0004f8b0 0000108dH .text$x                 CODE
 0002:00000000 00000110H .CRT$XCA                DATA
 0002:00000110 00000110H .CRT$XCAA               DATA
 0002:00000220 00000110H .CRT$XCZ                DATA
 0002:00000330 00000110H .CRT$XIA                DATA
 0002:00000440 00000110H .CRT$XIAA               DATA
 0002:00000550 00000110H .CRT$XIAC               DATA
 0002:00000660 00000110H .CRT$XIZ                DATA
 0002:00000770 00000110H .CRT$XPA                DATA
 0002:00000880 00000110H .CRT$XPZ                DATA
 0002:00000990 00000110H .CRT$XTA                DATA
 0002:00000aa0 00000110H .CRT$XTZ                DATA
 0002:00000bb0 0000e050H .rdata                  DATA
 0002:0000ec00 00000110H .rdata$CastGuardVftablesA DATA
 0002:0000ed10 0000010cH .rdata$CastGuardVftablesC DATA
 0002:0000ee1c 000001fcH .rdata$zzzdbg           DATA
 0002:0000f018 00000110H .rtc$IAA                DATA
 0002:0000f128 00000110H .rtc$IZZ                DATA
 0002:0000f238 00000110H .rtc$TAA                DATA
 0002:0000f348 00000110H .rtc$TZZ                DATA
 0002:0000f458 000024e5H .xdata                  DATA
 0002:0001193d 00000000H .edata                  DATA
 0003:00000000 00026c20H .data                   DATA
 0003:00026c20 00002159H .bss                    DATA
 0004:00000000 00002f34H .pdata                  DATA
 0005:00000000 00000780H .idata$5                DATA
 0005:00000780 00000064H .idata$2                DATA
 0005:000007e4 00000014H .idata$3                DATA
 0005:000007f8 00000780H .idata$4                DATA
 0005:00000f78 00000af3H .idata$6                DATA
 0006:00000000 00000151H .00cfg                  DATA

  Address         Publics by Value              Rva+Base               Lib:Object

 0000:00000000       __guard_eh_cont_count      0000000000000000     <absolute>
 0000:00000000       __x64_code_ranges_to_entry_points_count 0000000000000000     <absolute>
 0000:00000000       __arm64x_extra_rfe_table   0000000000000000     <absolute>
 0000:00000000       __dynamic_value_reloc_table 0000000000000000     <absolute>
 0000:00000000       __guard_iat_table          0000000000000000     <absolute>
 0000:00000000       __guard_check_icall_a64n_fptr 0000000000000000     <absolute>
 0000:00000000       __guard_longjmp_count      0000000000000000     <absolute>
 0000:00000000       __enclave_config           0000000000000000     <absolute>
 0000:00000000       __arm64x_redirection_metadata_count 0000000000000000     <absolute>
 0000:00000000       __guard_eh_cont_table      0000000000000000     <absolute>
 0000:00000000       __guard_iat_count          0000000000000000     <absolute>
 0000:00000000       __hybrid_auxiliary_iat_copy 0000000000000000     <absolute>
 0000:00000000       __guard_longjmp_table      0000000000000000     <absolute>
 0000:00000000       __arm64x_native_entrypoint 0000000000000000     <absolute>
 0000:00000000       __guard_fids_table         0000000000000000     <absolute>
 0000:00000000       ___safe_se_handler_count   0000000000000000     <absolute>
 0000:00000000       __arm64x_extra_rfe_table_size 0000000000000000     <absolute>
 0000:00000000       __guard_fids_count         0000000000000000     <absolute>
 0000:00000000       __volatile_metadata        0000000000000000     <absolute>
 0000:00000000       __hybrid_code_map_count    0000000000000000     <absolute>
 0000:00000000       ___safe_se_handler_table   0000000000000000     <absolute>
 0000:00000000       __hybrid_code_map          0000000000000000     <absolute>
 0000:00000000       __AbsoluteZero             0000000000000000     <absolute>
 0000:00000000       __hybrid_auxiliary_iat     0000000000000000     <absolute>
 0000:00000000       __x64_code_ranges_to_entry_points 0000000000000000     <absolute>
 0000:00000000       __arm64x_redirection_metadata 0000000000000000     <absolute>
 0000:00000100       __guard_flags              0000000000000100     <absolute>
 0000:00000000       __ImageBase                0000000140000000     <linker-defined>
 0001:00002270       main                       0000000140003270 f   latency.obj
 0001:000026b0       __local_stdio_printf_options 00000001400036b0 f i latency.obj
 0001:000026c0       _vfprintf_l                00000001400036c0 f i latency.obj
 0001:00002720       printf                     0000000140003720 f i latency.obj
 0001:00002850       pjmedia_port_info_init     0000000140003850 f   pjmedia-x86_64-x64-vc14-debug-dynamic:port.obj
 0001:000029a0       pjmedia_port_info_init2    00000001400039a0 f   pjmedia-x86_64-x64-vc14-debug-dynamic:port.obj
 0001:00002a20       pjmedia_port_get_clock_src 0000000140003a20 f   pjmedia-x86_64-x64-vc14-debug-dynamic:port.obj
 0001:00002a70       pjmedia_port_get_frame     0000000140003a70 f   pjmedia-x86_64-x64-vc14-debug-dynamic:port.obj
 0001:00002b10       pjmedia_port_put_frame     0000000140003b10 f   pjmedia-x86_64-x64-vc14-debug-dynamic:port.obj
 0001:00002ba0       pjmedia_port_destroy       0000000140003ba0 f   pjmedia-x86_64-x64-vc14-debug-dynamic:port.obj
 0001:00002d40       pjmedia_strerror           0000000140003d40 f   pjmedia-x86_64-x64-vc14-debug-dynamic:errno.obj
 0001:000030b0       _snprintf                  00000001400040b0 f i pjmedia-x86_64-x64-vc14-debug-dynamic:errno.obj
 0001:00003120       _vsnprintf                 0000000140004120 f i pjmedia-x86_64-x64-vc14-debug-dynamic:errno.obj
 0001:00003170       _vsnprintf_l               0000000140004170 f i pjmedia-x86_64-x64-vc14-debug-dynamic:errno.obj
 0001:000032e0       pjmedia_wav_player_port_create 00000001400042e0 f   pjmedia-x86_64-x64-vc14-debug-dynamic:wav_player.obj
 0001:00003ad0       pjmedia_wav_player_get_info 0000000140004ad0 f   pjmedia-x86_64-x64-vc14-debug-dynamic:wav_player.obj
 0001:00003c80       pjmedia_wav_player_get_len 0000000140004c80 f   pjmedia-x86_64-x64-vc14-debug-dynamic:wav_player.obj
 0001:00003d50       pjmedia_wav_player_port_set_pos 0000000140004d50 f   pjmedia-x86_64-x64-vc14-debug-dynamic:wav_player.obj
 0001:00003ef0       pjmedia_wav_player_port_get_pos 0000000140004ef0 f   pjmedia-x86_64-x64-vc14-debug-dynamic:wav_player.obj
 0001:00004040       pjmedia_wav_player_set_eof_cb 0000000140005040 f   pjmedia-x86_64-x64-vc14-debug-dynamic:wav_player.obj
 0001:00004130       pjmedia_wav_player_set_eof_cb2 0000000140005130 f   pjmedia-x86_64-x64-vc14-debug-dynamic:wav_player.obj
 0001:000054f0       pjmedia_format_copy        00000001400064f0 f   pjmedia-x86_64-x64-vc14-debug-dynamic:format.obj
 0001:00005520       pjmedia_format_get_audio_format_detail 0000000140006520 f   pjmedia-x86_64-x64-vc14-debug-dynamic:format.obj
 0001:00005a50       pjmedia_srtp_init_lib      0000000140006a50 f   pjmedia-x86_64-x64-vc14-debug-dynamic:transport_srtp.obj
 0001:00005b20       pjmedia_srtp_setting_default 0000000140006b20 f   pjmedia-x86_64-x64-vc14-debug-dynamic:transport_srtp.obj
 0001:00005b80       pjmedia_srtp_enum_crypto   0000000140006b80 f   pjmedia-x86_64-x64-vc14-debug-dynamic:transport_srtp.obj
 0001:00005c90       pjmedia_srtp_enum_keying   0000000140006c90 f   pjmedia-x86_64-x64-vc14-debug-dynamic:transport_srtp.obj
 0001:00005d40       pjmedia_transport_srtp_create 0000000140006d40 f   pjmedia-x86_64-x64-vc14-debug-dynamic:transport_srtp.obj
 0001:000062a0       pjmedia_transport_srtp_dtls_get_fingerprint 00000001400072a0 f   pjmedia-x86_64-x64-vc14-debug-dynamic:transport_srtp.obj
 0001:000062c0       pjmedia_transport_srtp_dtls_start_nego 00000001400072c0 f   pjmedia-x86_64-x64-vc14-debug-dynamic:transport_srtp.obj
 0001:000062e0       pjmedia_transport_srtp_start 00000001400072e0 f   pjmedia-x86_64-x64-vc14-debug-dynamic:transport_srtp.obj
 0001:00006cb0       pjmedia_transport_srtp_stop 0000000140007cb0 f   pjmedia-x86_64-x64-vc14-debug-dynamic:transport_srtp.obj
 0001:00006e30       pjmedia_transport_srtp_decrypt_pkt 0000000140007e30 f   pjmedia-x86_64-x64-vc14-debug-dynamic:transport_srtp.obj
 0001:00007050       pjmedia_transport_srtp_get_member 0000000140008050 f   pjmedia-x86_64-x64-vc14-debug-dynamic:transport_srtp.obj
 0001:00008f10       get_libsrtp_errstr         0000000140009f10 f   pjmedia-x86_64-x64-vc14-debug-dynamic:transport_srtp.obj
 0001:0000bbb0       _vsprintf_l                000000014000cbb0 f i pjmedia-x86_64-x64-vc14-debug-dynamic:transport_srtp.obj
 0001:0000bc10       sprintf                    000000014000cc10 f i pjmedia-x86_64-x64-vc14-debug-dynamic:transport_srtp.obj
 0001:0000bd80       pjmedia_event_mgr_create   000000014000cd80 f   pjmedia-x86_64-x64-vc14-debug-dynamic:event.obj
 0001:0000bf20       pjmedia_event_mgr_instance 000000014000cf20 f   pjmedia-x86_64-x64-vc14-debug-dynamic:event.obj
 0001:0000bf30       pjmedia_event_mgr_set_instance 000000014000cf30 f   pjmedia-x86_64-x64-vc14-debug-dynamic:event.obj
 0001:0000bf50       pjmedia_event_mgr_destroy  000000014000cf50 f   pjmedia-x86_64-x64-vc14-debug-dynamic:event.obj
 0001:0000c060       pjmedia_event_init         000000014000d060 f   pjmedia-x86_64-x64-vc14-debug-dynamic:event.obj
 0001:0000c0e0       pjmedia_event_subscribe    000000014000d0e0 f   pjmedia-x86_64-x64-vc14-debug-dynamic:event.obj
 0001:0000c2c0       pjmedia_event_unsubscribe  000000014000d2c0 f   pjmedia-x86_64-x64-vc14-debug-dynamic:event.obj
 0001:0000c4a0       pjmedia_event_publish      000000014000d4a0 f   pjmedia-x86_64-x64-vc14-debug-dynamic:event.obj
 0001:0000cdd0       pjmedia_wave_hdr_file_to_host 000000014000ddd0 f   pjmedia-x86_64-x64-vc14-debug-dynamic:wave.obj
 0001:0000cdf0       pjmedia_wave_hdr_host_to_file 000000014000ddf0 f   pjmedia-x86_64-x64-vc14-debug-dynamic:wave.obj
 0001:0000ce30       pjmedia_sdp_attr_create    000000014000de30 f   pjmedia-x86_64-x64-vc14-debug-dynamic:sdp.obj
 0001:0000cf10       pjmedia_sdp_attr_clone     000000014000df10 f   pjmedia-x86_64-x64-vc14-debug-dynamic:sdp.obj
 0001:0000cfd0       pjmedia_sdp_attr_find      000000014000dfd0 f   pjmedia-x86_64-x64-vc14-debug-dynamic:sdp.obj
 0001:0000d0e0       pjmedia_sdp_attr_find2     000000014000e0e0 f   pjmedia-x86_64-x64-vc14-debug-dynamic:sdp.obj
 0001:0000d140       pjmedia_sdp_attr_add       000000014000e140 f   pjmedia-x86_64-x64-vc14-debug-dynamic:sdp.obj
 0001:0000d220       pjmedia_sdp_attr_remove_all 000000014000e220 f   pjmedia-x86_64-x64-vc14-debug-dynamic:sdp.obj
 0001:0000d380       pjmedia_sdp_attr_remove    000000014000e380 f   pjmedia-x86_64-x64-vc14-debug-dynamic:sdp.obj
 0001:0000d4d0       pjmedia_sdp_attr_to_rtpmap 000000014000e4d0 f   pjmedia-x86_64-x64-vc14-debug-dynamic:sdp.obj
 0001:0000d5b0       pjmedia_sdp_attr_get_rtpmap 000000014000e5b0 f   pjmedia-x86_64-x64-vc14-debug-dynamic:sdp.obj
 0001:0000d930       pjmedia_sdp_rtpmap_to_attr 000000014000e930 f   pjmedia-x86_64-x64-vc14-debug-dynamic:sdp.obj
 0001:0000dc00       pjmedia_sdp_attr_get_fmtp  000000014000ec00 f   pjmedia-x86_64-x64-vc14-debug-dynamic:sdp.obj
 0001:0000dd70       pjmedia_sdp_attr_get_rtcp  000000014000ed70 f   pjmedia-x86_64-x64-vc14-debug-dynamic:sdp.obj
 0001:0000dfa0       pjmedia_sdp_attr_create_rtcp 000000014000efa0 f   pjmedia-x86_64-x64-vc14-debug-dynamic:sdp.obj
 0001:0000e160       pjmedia_sdp_attr_get_ssrc  000000014000f160 f   pjmedia-x86_64-x64-vc14-debug-dynamic:sdp.obj
 0001:0000e380       pjmedia_sdp_attr_create_ssrc 000000014000f380 f   pjmedia-x86_64-x64-vc14-debug-dynamic:sdp.obj
 0001:0000e470       pjmedia_sdp_conn_clone     000000014000f470 f   pjmedia-x86_64-x64-vc14-debug-dynamic:sdp.obj
 0001:0000e530       pjmedia_sdp_bandw_clone    000000014000f530 f   pjmedia-x86_64-x64-vc14-debug-dynamic:sdp.obj
 0001:0000e5b0       pjmedia_sdp_media_clone    000000014000f5b0 f   pjmedia-x86_64-x64-vc14-debug-dynamic:sdp.obj
 0001:0000e8f0       pjmedia_sdp_media_find_attr 000000014000f8f0 f   pjmedia-x86_64-x64-vc14-debug-dynamic:sdp.obj
 0001:0000e980       pjmedia_sdp_media_find_attr2 000000014000f980 f   pjmedia-x86_64-x64-vc14-debug-dynamic:sdp.obj
 0001:0000ea10       pjmedia_sdp_media_add_attr 000000014000fa10 f   pjmedia-x86_64-x64-vc14-debug-dynamic:sdp.obj
 0001:0000ea50       pjmedia_sdp_media_remove_all_attr 000000014000fa50 f   pjmedia-x86_64-x64-vc14-debug-dynamic:sdp.obj
 0001:0000ea90       pjmedia_sdp_media_remove_attr 000000014000fa90 f   pjmedia-x86_64-x64-vc14-debug-dynamic:sdp.obj
 0001:0000ead0       pjmedia_sdp_transport_cmp  000000014000fad0 f   pjmedia-x86_64-x64-vc14-debug-dynamic:sdp.obj
 0001:0000eb50       pjmedia_sdp_transport_get_proto 000000014000fb50 f   pjmedia-x86_64-x64-vc14-debug-dynamic:sdp.obj
 0001:0000ed10       pjmedia_sdp_media_deactivate 000000014000fd10 f   pjmedia-x86_64-x64-vc14-debug-dynamic:sdp.obj
 0001:0000ed80       pjmedia_sdp_media_clone_deactivate 000000014000fd80 f   pjmedia-x86_64-x64-vc14-debug-dynamic:sdp.obj
 0001:0000eff0       pjmedia_sdp_parse          000000014000fff0 f   pjmedia-x86_64-x64-vc14-debug-dynamic:sdp.obj
 0001:0000f670       pjmedia_sdp_print          0000000140010670 f   pjmedia-x86_64-x64-vc14-debug-dynamic:sdp.obj
 0001:0000f6b0       pjmedia_sdp_validate       00000001400106b0 f   pjmedia-x86_64-x64-vc14-debug-dynamic:sdp.obj
 0001:0000f6e0       pjmedia_sdp_validate2      00000001400106e0 f   pjmedia-x86_64-x64-vc14-debug-dynamic:sdp.obj
 0001:0000fa20       pjmedia_sdp_session_clone  0000000140010a20 f   pjmedia-x86_64-x64-vc14-debug-dynamic:sdp.obj
 0001:0000fd60       pjmedia_sdp_session_add_attr 0000000140010d60 f   pjmedia-x86_64-x64-vc14-debug-dynamic:sdp.obj
 0001:00012b20       pjmedia_endpt_create2      0000000140013b20 f   pjmedia-x86_64-x64-vc14-debug-dynamic:endpoint.obj
 0001:00012ea0       pjmedia_endpt_destroy2     0000000140013ea0 f   pjmedia-x86_64-x64-vc14-debug-dynamic:endpoint.obj
 0001:00012f70       pjmedia_endpt_set_flag     0000000140013f70 f   pjmedia-x86_64-x64-vc14-debug-dynamic:endpoint.obj
 0001:00013000       pjmedia_endpt_get_flag     0000000140014000 f   pjmedia-x86_64-x64-vc14-debug-dynamic:endpoint.obj
 0001:00013090       pjmedia_endpt_get_ioqueue  0000000140014090 f   pjmedia-x86_64-x64-vc14-debug-dynamic:endpoint.obj
 0001:000130f0       pjmedia_endpt_get_thread_count 00000001400140f0 f   pjmedia-x86_64-x64-vc14-debug-dynamic:endpoint.obj
 0001:00013150       pjmedia_endpt_get_thread   0000000140014150 f   pjmedia-x86_64-x64-vc14-debug-dynamic:endpoint.obj
 0001:00013200       pjmedia_endpt_stop_threads 0000000140014200 f   pjmedia-x86_64-x64-vc14-debug-dynamic:endpoint.obj
 0001:000132e0       pjmedia_endpt_create_pool  00000001400142e0 f   pjmedia-x86_64-x64-vc14-debug-dynamic:endpoint.obj
 0001:00013350       pjmedia_endpt_get_codec_mgr 0000000140014350 f   pjmedia-x86_64-x64-vc14-debug-dynamic:endpoint.obj
 0001:00013370       pjmedia_endpt_create_sdp   0000000140014370 f   pjmedia-x86_64-x64-vc14-debug-dynamic:endpoint.obj
 0001:00013520       pjmedia_endpt_create_base_sdp 0000000140014520 f   pjmedia-x86_64-x64-vc14-debug-dynamic:endpoint.obj
 0001:000137b0       pjmedia_endpt_create_audio_sdp 00000001400147b0 f   pjmedia-x86_64-x64-vc14-debug-dynamic:endpoint.obj
 0001:000143c0       pjmedia_endpt_dump         00000001400153c0 f   pjmedia-x86_64-x64-vc14-debug-dynamic:endpoint.obj
 0001:000147e0       pjmedia_endpt_atexit       00000001400157e0 f   pjmedia-x86_64-x64-vc14-debug-dynamic:endpoint.obj
 0001:00015640       pjmedia_codec_param_clone  0000000140016640 f   pjmedia-x86_64-x64-vc14-debug-dynamic:codec.obj
 0001:00015800       pjmedia_codec_mgr_init     0000000140016800 f   pjmedia-x86_64-x64-vc14-debug-dynamic:codec.obj
 0001:00015910       pjmedia_codec_mgr_destroy  0000000140016910 f   pjmedia-x86_64-x64-vc14-debug-dynamic:codec.obj
 0001:00015a80       pjmedia_codec_mgr_register_factory 0000000140016a80 f   pjmedia-x86_64-x64-vc14-debug-dynamic:codec.obj
 0001:00015d40       pjmedia_codec_mgr_unregister_factory 0000000140016d40 f   pjmedia-x86_64-x64-vc14-debug-dynamic:codec.obj
 0001:00015ef0       pjmedia_codec_mgr_enum_codecs 0000000140016ef0 f   pjmedia-x86_64-x64-vc14-debug-dynamic:codec.obj
 0001:00016050       pjmedia_codec_mgr_get_codec_info 0000000140017050 f   pjmedia-x86_64-x64-vc14-debug-dynamic:codec.obj
 0001:00016160       pjmedia_codec_info_to_id   0000000140017160 f   pjmedia-x86_64-x64-vc14-debug-dynamic:codec.obj
 0001:00016250       pjmedia_codec_mgr_find_codecs_by_id 0000000140017250 f   pjmedia-x86_64-x64-vc14-debug-dynamic:codec.obj
 0001:00016400       pjmedia_codec_mgr_set_codec_priority 0000000140017400 f   pjmedia-x86_64-x64-vc14-debug-dynamic:codec.obj
 0001:00016540       pjmedia_codec_mgr_get_default_param 0000000140017540 f   pjmedia-x86_64-x64-vc14-debug-dynamic:codec.obj
 0001:000167f0       pjmedia_codec_mgr_set_default_param 00000001400177f0 f   pjmedia-x86_64-x64-vc14-debug-dynamic:codec.obj
 0001:00016ab0       pjmedia_codec_mgr_alloc_codec 0000000140017ab0 f   pjmedia-x86_64-x64-vc14-debug-dynamic:codec.obj
 0001:00016be0       pjmedia_codec_mgr_dealloc_codec 0000000140017be0 f   pjmedia-x86_64-x64-vc14-debug-dynamic:codec.obj
 0001:000174a0       pj_base64_encode           00000001400184a0 f   pjlib-util-x86_64-x64-vc14-debug-dynamic:base64.obj
 0001:000176e0       pj_base64_decode           00000001400186e0 f   pjlib-util-x86_64-x64-vc14-debug-dynamic:base64.obj
 0001:00017e20       pj_cis_buf_init            0000000140018e20 f   pjlib-util-x86_64-x64-vc14-debug-dynamic:scanner.obj
 0001:00017e60       pj_cis_init                0000000140018e60 f   pjlib-util-x86_64-x64-vc14-debug-dynamic:scanner.obj
 0001:00017f20       pj_cis_dup                 0000000140018f20 f   pjlib-util-x86_64-x64-vc14-debug-dynamic:scanner.obj
 0001:00018050       pj_cis_add_range           0000000140019050 f   pjlib-util-x86_64-x64-vc14-debug-dynamic:scanner.obj
 0001:000180f0       pj_cis_add_alpha           00000001400190f0 f   pjlib-util-x86_64-x64-vc14-debug-dynamic:scanner.obj
 0001:00018130       pj_cis_add_num             0000000140019130 f   pjlib-util-x86_64-x64-vc14-debug-dynamic:scanner.obj
 0001:00018160       pj_cis_add_str             0000000140019160 f   pjlib-util-x86_64-x64-vc14-debug-dynamic:scanner.obj
 0001:000181e0       pj_cis_add_cis             00000001400191e0 f   pjlib-util-x86_64-x64-vc14-debug-dynamic:scanner.obj
 0001:000182a0       pj_cis_del_range           00000001400192a0 f   pjlib-util-x86_64-x64-vc14-debug-dynamic:scanner.obj
 0001:00018320       pj_cis_del_str             0000000140019320 f   pjlib-util-x86_64-x64-vc14-debug-dynamic:scanner.obj
 0001:000183a0       pj_cis_invert              00000001400193a0 f   pjlib-util-x86_64-x64-vc14-debug-dynamic:scanner.obj
 0001:000184a0       pj_scan_init               00000001400194a0 f   pjlib-util-x86_64-x64-vc14-debug-dynamic:scanner.obj
 0001:00018560       pj_scan_fini               0000000140019560 f   pjlib-util-x86_64-x64-vc14-debug-dynamic:scanner.obj
 0001:00018590       pj_scan_peek               0000000140019590 f   pjlib-util-x86_64-x64-vc14-debug-dynamic:scanner.obj
 0001:00018630       pj_scan_peek_n             0000000140019630 f   pjlib-util-x86_64-x64-vc14-debug-dynamic:scanner.obj
 0001:000186b0       pj_scan_peek_until         00000001400196b0 f   pjlib-util-x86_64-x64-vc14-debug-dynamic:scanner.obj
 0001:00018760       pj_scan_get                0000000140019760 f   pjlib-util-x86_64-x64-vc14-debug-dynamic:scanner.obj
 0001:00018850       pj_scan_get_unescape       0000000140019850 f   pjlib-util-x86_64-x64-vc14-debug-dynamic:scanner.obj
 0001:00018b00       pj_scan_get_quote          0000000140019b00 f   pjlib-util-x86_64-x64-vc14-debug-dynamic:scanner.obj
 0001:00018b60       pj_scan_get_quotes         0000000140019b60 f   pjlib-util-x86_64-x64-vc14-debug-dynamic:scanner.obj
 0001:00018da0       pj_scan_get_n              0000000140019da0 f   pjlib-util-x86_64-x64-vc14-debug-dynamic:scanner.obj
 0001:00018e40       pj_scan_get_char           0000000140019e40 f   pjlib-util-x86_64-x64-vc14-debug-dynamic:scanner.obj
 0001:00018ec0       pj_scan_get_until          0000000140019ec0 f   pjlib-util-x86_64-x64-vc14-debug-dynamic:scanner.obj
 0001:00018f90       pj_scan_get_until_ch       0000000140019f90 f   pjlib-util-x86_64-x64-vc14-debug-dynamic:scanner.obj
 0001:00019050       pj_scan_get_until_chr      000000014001a050 f   pjlib-util-x86_64-x64-vc14-debug-dynamic:scanner.obj
 0001:00019130       pj_scan_advance_n          000000014001a130 f   pjlib-util-x86_64-x64-vc14-debug-dynamic:scanner.obj
 0001:000191b0       pj_scan_strcmp             000000014001a1b0 f   pjlib-util-x86_64-x64-vc14-debug-dynamic:scanner.obj
 0001:00019220       pj_scan_stricmp            000000014001a220 f   pjlib-util-x86_64-x64-vc14-debug-dynamic:scanner.obj
 0001:00019290       pj_scan_stricmp_alnum      000000014001a290 f   pjlib-util-x86_64-x64-vc14-debug-dynamic:scanner.obj
 0001:00019300       pj_scan_get_newline        000000014001a300 f   pjlib-util-x86_64-x64-vc14-debug-dynamic:scanner.obj
 0001:000193c0       pj_scan_skip_whitespace    000000014001a3c0 f   pjlib-util-x86_64-x64-vc14-debug-dynamic:scanner.obj
 0001:00019610       pj_scan_skip_line          000000014001a610 f   pjlib-util-x86_64-x64-vc14-debug-dynamic:scanner.obj
 0001:000196a0       pj_scan_save_state         000000014001a6a0 f   pjlib-util-x86_64-x64-vc14-debug-dynamic:scanner.obj
 0001:000196f0       pj_scan_restore_state      000000014001a6f0 f   pjlib-util-x86_64-x64-vc14-debug-dynamic:scanner.obj
 0001:00019fe0       pj_init                    000000014001afe0 f   pjlib-x86_64-x64-vc14-debug-dynamic:os_core_win32.obj
 0001:0001a1b0       pj_shutdown                000000014001b1b0 f   pjlib-x86_64-x64-vc14-debug-dynamic:os_core_win32.obj
 0001:0001a2f0       pj_atexit                  000000014001b2f0 f   pjlib-x86_64-x64-vc14-debug-dynamic:os_core_win32.obj
 0001:0001a340       pj_getpid                  000000014001b340 f   pjlib-x86_64-x64-vc14-debug-dynamic:os_core_win32.obj
 0001:0001a370       pj_thread_create           000000014001b370 f   pjlib-x86_64-x64-vc14-debug-dynamic:os_core_win32.obj
 0001:0001a5d0       pj_thread_register         000000014001b5d0 f   pjlib-x86_64-x64-vc14-debug-dynamic:os_core_win32.obj
 0001:0001a740       pj_thread_is_registered    000000014001b740 f   pjlib-x86_64-x64-vc14-debug-dynamic:os_core_win32.obj
 0001:0001a780       pj_thread_get_prio         000000014001b780 f   pjlib-x86_64-x64-vc14-debug-dynamic:os_core_win32.obj
 0001:0001a7b0       pj_thread_set_prio         000000014001b7b0 f   pjlib-x86_64-x64-vc14-debug-dynamic:os_core_win32.obj
 0001:0001a8b0       pj_thread_get_prio_min     000000014001b8b0 f   pjlib-x86_64-x64-vc14-debug-dynamic:os_core_win32.obj
 0001:0001a8d0       pj_thread_get_prio_max     000000014001b8d0 f   pjlib-x86_64-x64-vc14-debug-dynamic:os_core_win32.obj
 0001:0001a8f0       pj_thread_get_os_handle    000000014001b8f0 f   pjlib-x86_64-x64-vc14-debug-dynamic:os_core_win32.obj
 0001:0001a950       pj_thread_get_name         000000014001b950 f   pjlib-x86_64-x64-vc14-debug-dynamic:os_core_win32.obj
 0001:0001a9c0       pj_thread_resume           000000014001b9c0 f   pjlib-x86_64-x64-vc14-debug-dynamic:os_core_win32.obj
 0001:0001aa90       pj_thread_this             000000014001ba90 f   pjlib-x86_64-x64-vc14-debug-dynamic:os_core_win32.obj
 0001:0001aaf0       pj_thread_join             000000014001baf0 f   pjlib-x86_64-x64-vc14-debug-dynamic:os_core_win32.obj
 0001:0001ac00       pj_thread_destroy          000000014001bc00 f   pjlib-x86_64-x64-vc14-debug-dynamic:os_core_win32.obj
 0001:0001acd0       pj_thread_sleep            000000014001bcd0 f   pjlib-x86_64-x64-vc14-debug-dynamic:os_core_win32.obj
 0001:0001ad00       pj_thread_check_stack      000000014001bd00 f   pjlib-x86_64-x64-vc14-debug-dynamic:os_core_win32.obj
 0001:0001ae00       pj_thread_get_stack_max_usage 000000014001be00 f   pjlib-x86_64-x64-vc14-debug-dynamic:os_core_win32.obj
 0001:0001ae20       pj_thread_get_stack_info   000000014001be20 f   pjlib-x86_64-x64-vc14-debug-dynamic:os_core_win32.obj
 0001:0001ae90       pj_thread_local_alloc      000000014001be90 f   pjlib-x86_64-x64-vc14-debug-dynamic:os_core_win32.obj
 0001:0001af40       pj_thread_local_free       000000014001bf40 f   pjlib-x86_64-x64-vc14-debug-dynamic:os_core_win32.obj
 0001:0001af70       pj_thread_local_set        000000014001bf70 f   pjlib-x86_64-x64-vc14-debug-dynamic:os_core_win32.obj
 0001:0001b000       pj_thread_local_get        000000014001c000 f   pjlib-x86_64-x64-vc14-debug-dynamic:os_core_win32.obj
 0001:0001b020       pj_atomic_create           000000014001c020 f   pjlib-x86_64-x64-vc14-debug-dynamic:os_core_win32.obj
 0001:0001b080       pj_atomic_destroy          000000014001c080 f   pjlib-x86_64-x64-vc14-debug-dynamic:os_core_win32.obj
 0001:0001b0d0       pj_atomic_set              000000014001c0d0 f   pjlib-x86_64-x64-vc14-debug-dynamic:os_core_win32.obj
 0001:0001b140       pj_atomic_get              000000014001c140 f   pjlib-x86_64-x64-vc14-debug-dynamic:os_core_win32.obj
 0001:0001b1b0       pj_atomic_inc              000000014001c1b0 f   pjlib-x86_64-x64-vc14-debug-dynamic:os_core_win32.obj
 0001:0001b210       pj_atomic_inc_and_get      000000014001c210 f   pjlib-x86_64-x64-vc14-debug-dynamic:os_core_win32.obj
 0001:0001b250       pj_atomic_dec              000000014001c250 f   pjlib-x86_64-x64-vc14-debug-dynamic:os_core_win32.obj
 0001:0001b2b0       pj_atomic_dec_and_get      000000014001c2b0 f   pjlib-x86_64-x64-vc14-debug-dynamic:os_core_win32.obj
 0001:0001b2f0       pj_atomic_add              000000014001c2f0 f   pjlib-x86_64-x64-vc14-debug-dynamic:os_core_win32.obj
 0001:0001b350       pj_atomic_add_and_get      000000014001c350 f   pjlib-x86_64-x64-vc14-debug-dynamic:os_core_win32.obj
 0001:0001b390       pj_mutex_create            000000014001c390 f   pjlib-x86_64-x64-vc14-debug-dynamic:os_core_win32.obj
 0001:0001b450       pj_mutex_create_simple     000000014001c450 f   pjlib-x86_64-x64-vc14-debug-dynamic:os_core_win32.obj
 0001:0001b490       pj_mutex_create_recursive  000000014001c490 f   pjlib-x86_64-x64-vc14-debug-dynamic:os_core_win32.obj
 0001:0001b4d0       pj_mutex_lock              000000014001c4d0 f   pjlib-x86_64-x64-vc14-debug-dynamic:os_core_win32.obj
 0001:0001b590       pj_mutex_unlock            000000014001c590 f   pjlib-x86_64-x64-vc14-debug-dynamic:os_core_win32.obj
 0001:0001b670       pj_mutex_trylock           000000014001c670 f   pjlib-x86_64-x64-vc14-debug-dynamic:os_core_win32.obj
 0001:0001b750       pj_mutex_destroy           000000014001c750 f   pjlib-x86_64-x64-vc14-debug-dynamic:os_core_win32.obj
 0001:0001b7d0       pj_mutex_is_locked         000000014001c7d0 f   pjlib-x86_64-x64-vc14-debug-dynamic:os_core_win32.obj
 0001:0001b810       pj_rwmutex_create          000000014001c810 f   pjlib-x86_64-x64-vc14-debug-dynamic:os_core_win32.obj
 0001:0001b930       pj_rwmutex_lock_read       000000014001c930 f   pjlib-x86_64-x64-vc14-debug-dynamic:os_core_win32.obj
 0001:0001ba30       pj_rwmutex_lock_write      000000014001ca30 f   pjlib-x86_64-x64-vc14-debug-dynamic:os_core_win32.obj
 0001:0001ba90       pj_rwmutex_unlock_read     000000014001ca90 f   pjlib-x86_64-x64-vc14-debug-dynamic:os_core_win32.obj
 0001:0001bb90       pj_rwmutex_unlock_write    000000014001cb90 f   pjlib-x86_64-x64-vc14-debug-dynamic:os_core_win32.obj
 0001:0001bc20       pj_rwmutex_destroy         000000014001cc20 f   pjlib-x86_64-x64-vc14-debug-dynamic:os_core_win32.obj
 0001:0001bc90       pj_enter_critical_section  000000014001cc90 f   pjlib-x86_64-x64-vc14-debug-dynamic:os_core_win32.obj
 0001:0001bcb0       pj_leave_critical_section  000000014001ccb0 f   pjlib-x86_64-x64-vc14-debug-dynamic:os_core_win32.obj
 0001:0001bcd0       pj_sem_create              000000014001ccd0 f   pjlib-x86_64-x64-vc14-debug-dynamic:os_core_win32.obj
 0001:0001be70       pj_sem_wait                000000014001ce70 f   pjlib-x86_64-x64-vc14-debug-dynamic:os_core_win32.obj
 0001:0001bee0       pj_sem_trywait             000000014001cee0 f   pjlib-x86_64-x64-vc14-debug-dynamic:os_core_win32.obj
 0001:0001bf50       pj_sem_post                000000014001cf50 f   pjlib-x86_64-x64-vc14-debug-dynamic:os_core_win32.obj
 0001:0001c020       pj_sem_destroy             000000014001d020 f   pjlib-x86_64-x64-vc14-debug-dynamic:os_core_win32.obj
 0001:0001c0f0       pj_event_create            000000014001d0f0 f   pjlib-x86_64-x64-vc14-debug-dynamic:os_core_win32.obj
 0001:0001c2d0       pj_event_wait              000000014001d2d0 f   pjlib-x86_64-x64-vc14-debug-dynamic:os_core_win32.obj
 0001:0001c330       pj_event_trywait           000000014001d330 f   pjlib-x86_64-x64-vc14-debug-dynamic:os_core_win32.obj
 0001:0001c390       pj_event_set               000000014001d390 f   pjlib-x86_64-x64-vc14-debug-dynamic:os_core_win32.obj
 0001:0001c460       pj_event_pulse             000000014001d460 f   pjlib-x86_64-x64-vc14-debug-dynamic:os_core_win32.obj
 0001:0001c530       pj_event_reset             000000014001d530 f   pjlib-x86_64-x64-vc14-debug-dynamic:os_core_win32.obj
 0001:0001c600       pj_event_destroy           000000014001d600 f   pjlib-x86_64-x64-vc14-debug-dynamic:os_core_win32.obj
 0001:0001c6d0       pj_term_set_color          000000014001d6d0 f   pjlib-x86_64-x64-vc14-debug-dynamic:os_core_win32.obj
 0001:0001c790       pj_term_get_color          000000014001d790 f   pjlib-x86_64-x64-vc14-debug-dynamic:os_core_win32.obj
 0001:0001c7f0       pj_run_app                 000000014001d7f0 f   pjlib-x86_64-x64-vc14-debug-dynamic:os_core_win32.obj
 0001:0001c820       pj_thread_init             000000014001d820 f   pjlib-x86_64-x64-vc14-debug-dynamic:os_core_win32.obj
 0001:0001d900       pj_pool_create             000000014001e900 f   pjlib-x86_64-x64-vc14-debug-dynamic:pool.obj
 0001:0001d950       pj_pool_release            000000014001e950 f   pjlib-x86_64-x64-vc14-debug-dynamic:pool.obj
 0001:0001d990       pj_pool_safe_release       000000014001e990 f   pjlib-x86_64-x64-vc14-debug-dynamic:pool.obj
 0001:0001d9d0       pj_pool_secure_release     000000014001e9d0 f   pjlib-x86_64-x64-vc14-debug-dynamic:pool.obj
 0001:0001da80       pj_pool_getobjname         000000014001ea80 f   pjlib-x86_64-x64-vc14-debug-dynamic:pool.obj
 0001:0001daa0       pj_pool_reset              000000014001eaa0 f   pjlib-x86_64-x64-vc14-debug-dynamic:pool.obj
 0001:0001dad0       pj_pool_get_capacity       000000014001ead0 f   pjlib-x86_64-x64-vc14-debug-dynamic:pool.obj
 0001:0001daf0       pj_pool_get_used_size      000000014001eaf0 f   pjlib-x86_64-x64-vc14-debug-dynamic:pool.obj
 0001:0001db60       pj_pool_alloc              000000014001eb60 f   pjlib-x86_64-x64-vc14-debug-dynamic:pool.obj
 0001:0001dbc0       pj_pool_calloc             000000014001ebc0 f   pjlib-x86_64-x64-vc14-debug-dynamic:pool.obj
 0001:0001dc20       pj_pool_alloc_from_block   000000014001ec20 f   pjlib-x86_64-x64-vc14-debug-dynamic:pool.obj
 0001:0001dcb0       pj_pool_allocate_find      000000014001ecb0 f   pjlib-x86_64-x64-vc14-debug-dynamic:pool.obj
 0001:0001de30       pj_NO_MEMORY_EXCEPTION     000000014001ee30 f   pjlib-x86_64-x64-vc14-debug-dynamic:pool.obj
 0001:0001de40       pj_pool_create_int         000000014001ee40 f   pjlib-x86_64-x64-vc14-debug-dynamic:pool.obj
 0001:0001dfd0       pj_pool_init_int           000000014001efd0 f   pjlib-x86_64-x64-vc14-debug-dynamic:pool.obj
 0001:0001e0b0       pj_pool_destroy_int        000000014001f0b0 f   pjlib-x86_64-x64-vc14-debug-dynamic:pool.obj
 0001:0001e6b0       pj_caching_pool_init       000000014001f6b0 f   pjlib-x86_64-x64-vc14-debug-dynamic:pool_caching.obj
 0001:0001e810       pj_caching_pool_destroy    000000014001f810 f   pjlib-x86_64-x64-vc14-debug-dynamic:pool_caching.obj
 0001:0001f3c0       pj_strerror                00000001400203c0 f   pjlib-x86_64-x64-vc14-debug-dynamic:errno.obj
 0001:0001f660       pj_perror                  0000000140020660 f   pjlib-x86_64-x64-vc14-debug-dynamic:errno.obj
 0001:0001f6c0       pj_register_strerror       00000001400206c0 f   pjlib-x86_64-x64-vc14-debug-dynamic:errno.obj
 0001:0001f920       pj_errno_clear_handlers    0000000140020920 f   pjlib-x86_64-x64-vc14-debug-dynamic:errno.obj
 0001:0001f950       pj_perror_1                0000000140020950 f   pjlib-x86_64-x64-vc14-debug-dynamic:errno.obj
 0001:0001f9b0       pj_perror_2                00000001400209b0 f   pjlib-x86_64-x64-vc14-debug-dynamic:errno.obj
 0001:0001fa10       pj_perror_3                0000000140020a10 f   pjlib-x86_64-x64-vc14-debug-dynamic:errno.obj
 0001:0001fa70       pj_perror_4                0000000140020a70 f   pjlib-x86_64-x64-vc14-debug-dynamic:errno.obj
 0001:0001fad0       pj_perror_5                0000000140020ad0 f   pjlib-x86_64-x64-vc14-debug-dynamic:errno.obj
 0001:00020060       pj_log                     0000000140021060 f   pjlib-x86_64-x64-vc14-debug-dynamic:log.obj
 0001:000208d0       pj_log_set_log_func        00000001400218d0 f   pjlib-x86_64-x64-vc14-debug-dynamic:log.obj
 0001:000208f0       pj_log_get_log_func        00000001400218f0 f   pjlib-x86_64-x64-vc14-debug-dynamic:log.obj
 0001:00020900       pj_log_set_level           0000000140021900 f   pjlib-x86_64-x64-vc14-debug-dynamic:log.obj
 0001:00020920       pj_log_get_level           0000000140021920 f   pjlib-x86_64-x64-vc14-debug-dynamic:log.obj
 0001:00020930       pj_log_set_decor           0000000140021930 f   pjlib-x86_64-x64-vc14-debug-dynamic:log.obj
 0001:00020950       pj_log_get_decor           0000000140021950 f   pjlib-x86_64-x64-vc14-debug-dynamic:log.obj
 0001:00020960       pj_log_add_indent          0000000140021960 f   pjlib-x86_64-x64-vc14-debug-dynamic:log.obj
 0001:00020990       pj_log_push_indent         0000000140021990 f   pjlib-x86_64-x64-vc14-debug-dynamic:log.obj
 0001:000209b0       pj_log_pop_indent          00000001400219b0 f   pjlib-x86_64-x64-vc14-debug-dynamic:log.obj
 0001:000209d0       pj_log_set_color           00000001400219d0 f   pjlib-x86_64-x64-vc14-debug-dynamic:log.obj
 0001:00020af0       pj_log_get_color           0000000140021af0 f   pjlib-x86_64-x64-vc14-debug-dynamic:log.obj
 0001:00020b90       pj_log_init                0000000140021b90 f   pjlib-x86_64-x64-vc14-debug-dynamic:log.obj
 0001:00020c10       pj_log_1                   0000000140021c10 f   pjlib-x86_64-x64-vc14-debug-dynamic:log.obj
 0001:00020c60       pj_log_2                   0000000140021c60 f   pjlib-x86_64-x64-vc14-debug-dynamic:log.obj
 0001:00020cb0       pj_log_3                   0000000140021cb0 f   pjlib-x86_64-x64-vc14-debug-dynamic:log.obj
 0001:00020d00       pj_log_4                   0000000140021d00 f   pjlib-x86_64-x64-vc14-debug-dynamic:log.obj
 0001:00020d50       pj_log_5                   0000000140021d50 f   pjlib-x86_64-x64-vc14-debug-dynamic:log.obj
 0001:000213a0       pj_pool_factory_get_default_policy 00000001400223a0 f   pjlib-x86_64-x64-vc14-debug-dynamic:pool_policy_malloc.obj
 0001:00021530       pj_str                     0000000140022530 f   pjlib-x86_64-x64-vc14-debug-dynamic:string.obj
 0001:000215a0       pj_strassign               00000001400225a0 f   pjlib-x86_64-x64-vc14-debug-dynamic:string.obj
 0001:000215e0       pj_strcpy                  00000001400225e0 f   pjlib-x86_64-x64-vc14-debug-dynamic:string.obj
 0001:00021640       pj_strcpy2                 0000000140022640 f   pjlib-x86_64-x64-vc14-debug-dynamic:string.obj
 0001:000216c0       pj_strncpy                 00000001400226c0 f   pjlib-x86_64-x64-vc14-debug-dynamic:string.obj
 0001:00021760       pj_strncpy_with_null       0000000140022760 f   pjlib-x86_64-x64-vc14-debug-dynamic:string.obj
 0001:00021810       pj_strdup                  0000000140022810 f   pjlib-x86_64-x64-vc14-debug-dynamic:string.obj
 0001:000218a0       pj_strdup_with_null        00000001400228a0 f   pjlib-x86_64-x64-vc14-debug-dynamic:string.obj
 0001:00021940       pj_strdup2                 0000000140022940 f   pjlib-x86_64-x64-vc14-debug-dynamic:string.obj
 0001:000219f0       pj_strdup2_with_null       00000001400229f0 f   pjlib-x86_64-x64-vc14-debug-dynamic:string.obj
 0001:00021aa0       pj_strdup3                 0000000140022aa0 f   pjlib-x86_64-x64-vc14-debug-dynamic:string.obj
 0001:00021af0       pj_strcmp                  0000000140022af0 f   pjlib-x86_64-x64-vc14-debug-dynamic:string.obj
 0001:00021c20       pj_strcmp2                 0000000140022c20 f   pjlib-x86_64-x64-vc14-debug-dynamic:string.obj
 0001:00021c80       pj_strncmp                 0000000140022c80 f   pjlib-x86_64-x64-vc14-debug-dynamic:string.obj
 0001:00021d10       pj_strncmp2                0000000140022d10 f   pjlib-x86_64-x64-vc14-debug-dynamic:string.obj
 0001:00021d70       pj_stricmp                 0000000140022d70 f   pjlib-x86_64-x64-vc14-debug-dynamic:string.obj
 0001:00021ea0       pj_stricmp2                0000000140022ea0 f   pjlib-x86_64-x64-vc14-debug-dynamic:string.obj
 0001:00021f00       pj_strnicmp                0000000140022f00 f   pjlib-x86_64-x64-vc14-debug-dynamic:string.obj
 0001:00021f90       pj_strnicmp2               0000000140022f90 f   pjlib-x86_64-x64-vc14-debug-dynamic:string.obj
 0001:00021ff0       pj_strcat                  0000000140022ff0 f   pjlib-x86_64-x64-vc14-debug-dynamic:string.obj
 0001:00022060       pj_strcat2                 0000000140023060 f   pjlib-x86_64-x64-vc14-debug-dynamic:string.obj
 0001:000220f0       pj_strspn                  00000001400230f0 f   pjlib-x86_64-x64-vc14-debug-dynamic:string.obj
 0001:000221b0       pj_strspn2                 00000001400231b0 f   pjlib-x86_64-x64-vc14-debug-dynamic:string.obj
 0001:00022280       pj_strcspn                 0000000140023280 f   pjlib-x86_64-x64-vc14-debug-dynamic:string.obj
 0001:00022320       pj_strcspn2                0000000140023320 f   pjlib-x86_64-x64-vc14-debug-dynamic:string.obj
 0001:000223d0       pj_strtok                  00000001400233d0 f   pjlib-x86_64-x64-vc14-debug-dynamic:string.obj
 0001:000224f0       pj_strtok2                 00000001400234f0 f   pjlib-x86_64-x64-vc14-debug-dynamic:string.obj
 0001:00022610       pj_strstr                  0000000140023610 f   pjlib-x86_64-x64-vc14-debug-dynamic:string.obj
 0001:000226c0       pj_stristr                 00000001400236c0 f   pjlib-x86_64-x64-vc14-debug-dynamic:string.obj
 0001:00022770       pj_strltrim                0000000140023770 f   pjlib-x86_64-x64-vc14-debug-dynamic:string.obj
 0001:00022810       pj_strrtrim                0000000140023810 f   pjlib-x86_64-x64-vc14-debug-dynamic:string.obj
 0001:000228b0       pj_strtrim                 00000001400238b0 f   pjlib-x86_64-x64-vc14-debug-dynamic:string.obj
 0001:000228e0       pj_create_random_string    00000001400238e0 f   pjlib-x86_64-x64-vc14-debug-dynamic:string.obj
 0001:00022a30       pj_strtol                  0000000140023a30 f   pjlib-x86_64-x64-vc14-debug-dynamic:string.obj
 0001:00022b10       pj_strtol2                 0000000140023b10 f   pjlib-x86_64-x64-vc14-debug-dynamic:string.obj
 0001:00022d00       pj_strtoul                 0000000140023d00 f   pjlib-x86_64-x64-vc14-debug-dynamic:string.obj
 0001:00022d90       pj_strtoul2                0000000140023d90 f   pjlib-x86_64-x64-vc14-debug-dynamic:string.obj
 0001:00022f20       pj_strtoul3                0000000140023f20 f   pjlib-x86_64-x64-vc14-debug-dynamic:string.obj
 0001:00023200       pj_strtof                  0000000140024200 f   pjlib-x86_64-x64-vc14-debug-dynamic:string.obj
 0001:000233d0       pj_utoa                    00000001400243d0 f   pjlib-x86_64-x64-vc14-debug-dynamic:string.obj
 0001:00023400       pj_utoa_pad                0000000140024400 f   pjlib-x86_64-x64-vc14-debug-dynamic:string.obj
 0001:00023f50       pj_file_exists             0000000140024f50 f   pjlib-x86_64-x64-vc14-debug-dynamic:file_access_win32.obj
 0001:00023ff0       pj_file_size               0000000140024ff0 f   pjlib-x86_64-x64-vc14-debug-dynamic:file_access_win32.obj
 0001:000240b0       pj_file_delete             00000001400250b0 f   pjlib-x86_64-x64-vc14-debug-dynamic:file_access_win32.obj
 0001:00024160       pj_file_move               0000000140025160 f   pjlib-x86_64-x64-vc14-debug-dynamic:file_access_win32.obj
 0001:00024230       pj_file_getstat            0000000140025230 f   pjlib-x86_64-x64-vc14-debug-dynamic:file_access_win32.obj
 0001:00024970       pj_file_open               0000000140025970 f   pjlib-x86_64-x64-vc14-debug-dynamic:file_io_win32.obj
 0001:00024bc0       pj_file_close              0000000140025bc0 f   pjlib-x86_64-x64-vc14-debug-dynamic:file_io_win32.obj
 0001:00024c30       pj_file_write              0000000140025c30 f   pjlib-x86_64-x64-vc14-debug-dynamic:file_io_win32.obj
 0001:00024ce0       pj_file_read               0000000140025ce0 f   pjlib-x86_64-x64-vc14-debug-dynamic:file_io_win32.obj
 0001:00024d90       pj_file_setpos             0000000140025d90 f   pjlib-x86_64-x64-vc14-debug-dynamic:file_io_win32.obj
 0001:00024e80       pj_file_getpos             0000000140025e80 f   pjlib-x86_64-x64-vc14-debug-dynamic:file_io_win32.obj
 0001:00024f00       pj_file_flush              0000000140025f00 f   pjlib-x86_64-x64-vc14-debug-dynamic:file_io_win32.obj
 0001:00025200       pj_inet_ntop2              0000000140026200 f   pjlib-x86_64-x64-vc14-debug-dynamic:sock_common.obj
 0001:00025260       pj_sockaddr_print          0000000140026260 f   pjlib-x86_64-x64-vc14-debug-dynamic:sock_common.obj
 0001:00025400       pj_inet_addr               0000000140026400 f   pjlib-x86_64-x64-vc14-debug-dynamic:sock_common.obj
 0001:00025430       pj_inet_addr2              0000000140026430 f   pjlib-x86_64-x64-vc14-debug-dynamic:sock_common.obj
 0001:00025480       pj_sockaddr_in_init        0000000140026480 f   pjlib-x86_64-x64-vc14-debug-dynamic:sock_common.obj
 0001:00025530       pj_sockaddr_init           0000000140026530 f   pjlib-x86_64-x64-vc14-debug-dynamic:sock_common.obj
 0001:00025620       pj_sockaddr_cmp            0000000140026620 f   pjlib-x86_64-x64-vc14-debug-dynamic:sock_common.obj
 0001:00025730       pj_sockaddr_get_addr       0000000140026730 f   pjlib-x86_64-x64-vc14-debug-dynamic:sock_common.obj
 0001:000257f0       pj_sockaddr_has_addr       00000001400267f0 f   pjlib-x86_64-x64-vc14-debug-dynamic:sock_common.obj
 0001:000258e0       pj_sockaddr_get_addr_len   00000001400268e0 f   pjlib-x86_64-x64-vc14-debug-dynamic:sock_common.obj
 0001:000259a0       pj_sockaddr_get_len        00000001400269a0 f   pjlib-x86_64-x64-vc14-debug-dynamic:sock_common.obj
 0001:00025a60       pj_sockaddr_copy_addr      0000000140026a60 f   pjlib-x86_64-x64-vc14-debug-dynamic:sock_common.obj
 0001:00025ad0       pj_sockaddr_cp             0000000140026ad0 f   pjlib-x86_64-x64-vc14-debug-dynamic:sock_common.obj
 0001:00025b10       pj_sockaddr_synthesize     0000000140026b10 f   pjlib-x86_64-x64-vc14-debug-dynamic:sock_common.obj
 0001:00025ca0       pj_sockaddr_in_get_addr    0000000140026ca0 f   pjlib-x86_64-x64-vc14-debug-dynamic:sock_common.obj
 0001:00025cd0       pj_sockaddr_in_set_addr    0000000140026cd0 f   pjlib-x86_64-x64-vc14-debug-dynamic:sock_common.obj
 0001:00025d00       pj_sockaddr_in_set_str_addr 0000000140026d00 f   pjlib-x86_64-x64-vc14-debug-dynamic:sock_common.obj
 0001:00025eb0       pj_sockaddr_set_str_addr   0000000140026eb0 f   pjlib-x86_64-x64-vc14-debug-dynamic:sock_common.obj
 0001:00026050       pj_sockaddr_get_port       0000000140027050 f   pjlib-x86_64-x64-vc14-debug-dynamic:sock_common.obj
 0001:00026120       pj_sockaddr_in_get_port    0000000140027120 f   pjlib-x86_64-x64-vc14-debug-dynamic:sock_common.obj
 0001:00026150       pj_sockaddr_set_port       0000000140027150 f   pjlib-x86_64-x64-vc14-debug-dynamic:sock_common.obj
 0001:00026210       pj_sockaddr_in_set_port    0000000140027210 f   pjlib-x86_64-x64-vc14-debug-dynamic:sock_common.obj
 0001:00026240       pj_sockaddr_parse          0000000140027240 f   pjlib-x86_64-x64-vc14-debug-dynamic:sock_common.obj
 0001:000263c0       pj_sockaddr_parse2         00000001400273c0 f   pjlib-x86_64-x64-vc14-debug-dynamic:sock_common.obj
 0001:00026910       pj_gethostaddr             0000000140027910 f   pjlib-x86_64-x64-vc14-debug-dynamic:sock_common.obj
 0001:00026960       pj_sock_bind_random        0000000140027960 f   pjlib-x86_64-x64-vc14-debug-dynamic:sock_common.obj
 0001:00026ae0       pj_sock_setsockopt_sobuf   0000000140027ae0 f   pjlib-x86_64-x64-vc14-debug-dynamic:sock_common.obj
 0001:00026d00       pj_addr_str_print          0000000140027d00 f   pjlib-x86_64-x64-vc14-debug-dynamic:sock_common.obj
 0001:00026f90       pj_gethostip               0000000140027f90 f   pjlib-x86_64-x64-vc14-debug-dynamic:sock_common.obj
 0001:00027ae0       pj_getipinterface          0000000140028ae0 f   pjlib-x86_64-x64-vc14-debug-dynamic:sock_common.obj
 0001:00027d60       pj_getdefaultipinterface   0000000140028d60 f   pjlib-x86_64-x64-vc14-debug-dynamic:sock_common.obj
 0001:000288f0       pj_get_timestamp           00000001400298f0 f   pjlib-x86_64-x64-vc14-debug-dynamic:os_timestamp_win32.obj
 0001:00028970       pj_get_timestamp_freq      0000000140029970 f   pjlib-x86_64-x64-vc14-debug-dynamic:os_timestamp_win32.obj
 0001:00028a20       pj_array_insert            0000000140029a20 f   pjlib-x86_64-x64-vc14-debug-dynamic:array.obj
 0001:00028ae0       pj_array_erase             0000000140029ae0 f   pjlib-x86_64-x64-vc14-debug-dynamic:array.obj
 0001:00028b90       pj_array_find              0000000140029b90 f   pjlib-x86_64-x64-vc14-debug-dynamic:array.obj
 0001:00028ce0       pj_lock_create_simple_mutex 0000000140029ce0 f   pjlib-x86_64-x64-vc14-debug-dynamic:lock.obj
 0001:00028d20       pj_lock_create_recursive_mutex 0000000140029d20 f   pjlib-x86_64-x64-vc14-debug-dynamic:lock.obj
 0001:00028d60       pj_lock_create_null_mutex  0000000140029d60 f   pjlib-x86_64-x64-vc14-debug-dynamic:lock.obj
 0001:00028dd0       pj_lock_create_semaphore   0000000140029dd0 f   pjlib-x86_64-x64-vc14-debug-dynamic:lock.obj
 0001:00028ee0       pj_lock_acquire            0000000140029ee0 f   pjlib-x86_64-x64-vc14-debug-dynamic:lock.obj
 0001:00028f40       pj_lock_tryacquire         0000000140029f40 f   pjlib-x86_64-x64-vc14-debug-dynamic:lock.obj
 0001:00028fa0       pj_lock_release            0000000140029fa0 f   pjlib-x86_64-x64-vc14-debug-dynamic:lock.obj
 0001:00029000       pj_lock_destroy            000000014002a000 f   pjlib-x86_64-x64-vc14-debug-dynamic:lock.obj
 0001:00029060       pj_grp_lock_config_default 000000014002a060 f   pjlib-x86_64-x64-vc14-debug-dynamic:lock.obj
 0001:00029090       pj_grp_lock_create         000000014002a090 f   pjlib-x86_64-x64-vc14-debug-dynamic:lock.obj
 0001:00029280       pj_grp_lock_create_w_handler 000000014002a280 f   pjlib-x86_64-x64-vc14-debug-dynamic:lock.obj
 0001:000292f0       pj_grp_lock_destroy        000000014002a2f0 f   pjlib-x86_64-x64-vc14-debug-dynamic:lock.obj
 0001:00029310       pj_grp_lock_replace        000000014002a310 f   pjlib-x86_64-x64-vc14-debug-dynamic:lock.obj
 0001:000293d0       pj_grp_lock_acquire        000000014002a3d0 f   pjlib-x86_64-x64-vc14-debug-dynamic:lock.obj
 0001:000293f0       pj_grp_lock_tryacquire     000000014002a3f0 f   pjlib-x86_64-x64-vc14-debug-dynamic:lock.obj
 0001:00029410       pj_grp_lock_release        000000014002a410 f   pjlib-x86_64-x64-vc14-debug-dynamic:lock.obj
 0001:00029430       pj_grp_lock_add_handler    000000014002a430 f   pjlib-x86_64-x64-vc14-debug-dynamic:lock.obj
 0001:00029480       pj_grp_lock_del_handler    000000014002a480 f   pjlib-x86_64-x64-vc14-debug-dynamic:lock.obj
 0001:00029520       pj_grp_lock_add_ref        000000014002a520 f   pjlib-x86_64-x64-vc14-debug-dynamic:lock.obj
 0001:00029540       pj_grp_lock_dec_ref        000000014002a540 f   pjlib-x86_64-x64-vc14-debug-dynamic:lock.obj
 0001:00029560       pj_grp_lock_get_ref        000000014002a560 f   pjlib-x86_64-x64-vc14-debug-dynamic:lock.obj
 0001:00029590       pj_grp_lock_dump           000000014002a590 f   pjlib-x86_64-x64-vc14-debug-dynamic:lock.obj
 0001:000295e0       pj_grp_lock_chain_lock     000000014002a5e0 f   pjlib-x86_64-x64-vc14-debug-dynamic:lock.obj
 0001:000296d0       pj_grp_lock_unchain_lock   000000014002a6d0 f   pjlib-x86_64-x64-vc14-debug-dynamic:lock.obj
 0001:0002a3d0       pj_srand                   000000014002b3d0 f   pjlib-x86_64-x64-vc14-debug-dynamic:rand.obj
 0001:0002a400       pj_rand                    000000014002b400 f   pjlib-x86_64-x64-vc14-debug-dynamic:rand.obj
 0001:0002a4c0       pj_list_insert_before      000000014002b4c0 f   pjlib-x86_64-x64-vc14-debug-dynamic:list.obj
 0001:0002a4f0       pj_list_insert_nodes_before 000000014002b4f0 f   pjlib-x86_64-x64-vc14-debug-dynamic:list.obj
 0001:0002a520       pj_list_insert_after       000000014002b520 f   pjlib-x86_64-x64-vc14-debug-dynamic:list.obj
 0001:0002a570       pj_list_insert_nodes_after 000000014002b570 f   pjlib-x86_64-x64-vc14-debug-dynamic:list.obj
 0001:0002a5d0       pj_list_merge_first        000000014002b5d0 f   pjlib-x86_64-x64-vc14-debug-dynamic:list.obj
 0001:0002a630       pj_list_merge_last         000000014002b630 f   pjlib-x86_64-x64-vc14-debug-dynamic:list.obj
 0001:0002a690       pj_list_erase              000000014002b690 f   pjlib-x86_64-x64-vc14-debug-dynamic:list.obj
 0001:0002a6d0       pj_list_find_node          000000014002b6d0 f   pjlib-x86_64-x64-vc14-debug-dynamic:list.obj
 0001:0002a740       pj_list_search             000000014002b740 f   pjlib-x86_64-x64-vc14-debug-dynamic:list.obj
 0001:0002a7c0       pj_list_size               000000014002b7c0 f   pjlib-x86_64-x64-vc14-debug-dynamic:list.obj
 0001:0002a970       pj_exception_id_alloc      000000014002b970 f   pjlib-x86_64-x64-vc14-debug-dynamic:except.obj
 0001:0002a9f0       pj_exception_id_free       000000014002b9f0 f   pjlib-x86_64-x64-vc14-debug-dynamic:except.obj
 0001:0002aa70       pj_exception_id_name       000000014002ba70 f   pjlib-x86_64-x64-vc14-debug-dynamic:except.obj
 0001:0002ab20       pj_throw_exception_        000000014002bb20 f   pjlib-x86_64-x64-vc14-debug-dynamic:except.obj
 0001:0002abc0       pj_push_exception_handler_ 000000014002bbc0 f   pjlib-x86_64-x64-vc14-debug-dynamic:except.obj
 0001:0002ac60       pj_pop_exception_handler_  000000014002bc60 f   pjlib-x86_64-x64-vc14-debug-dynamic:except.obj
 0001:0002adf0       pj_ntohs                   000000014002bdf0 f   pjlib-x86_64-x64-vc14-debug-dynamic:sock_bsd.obj
 0001:0002ae10       pj_htons                   000000014002be10 f   pjlib-x86_64-x64-vc14-debug-dynamic:sock_bsd.obj
 0001:0002ae30       pj_ntohl                   000000014002be30 f   pjlib-x86_64-x64-vc14-debug-dynamic:sock_bsd.obj
 0001:0002ae50       pj_htonl                   000000014002be50 f   pjlib-x86_64-x64-vc14-debug-dynamic:sock_bsd.obj
 0001:0002ae70       pj_inet_ntoa               000000014002be70 f   pjlib-x86_64-x64-vc14-debug-dynamic:sock_bsd.obj
 0001:0002aeb0       pj_inet_aton               000000014002beb0 f   pjlib-x86_64-x64-vc14-debug-dynamic:sock_bsd.obj
 0001:0002afe0       pj_inet_pton               000000014002bfe0 f   pjlib-x86_64-x64-vc14-debug-dynamic:sock_bsd.obj
 0001:0002b280       pj_inet_ntop               000000014002c280 f   pjlib-x86_64-x64-vc14-debug-dynamic:sock_bsd.obj
 0001:0002b4e0       pj_gethostname             000000014002c4e0 f   pjlib-x86_64-x64-vc14-debug-dynamic:sock_bsd.obj
 0001:0002b570       pj_sock_socket             000000014002c570 f   pjlib-x86_64-x64-vc14-debug-dynamic:sock_bsd.obj
 0001:0002b710       pj_sock_close              000000014002c710 f   pjlib-x86_64-x64-vc14-debug-dynamic:sock_bsd.obj
 0001:0002b7a0       pj_sock_bind               000000014002c7a0 f   pjlib-x86_64-x64-vc14-debug-dynamic:sock_bsd.obj
 0001:0002b880       pj_sock_bind_in            000000014002c880 f   pjlib-x86_64-x64-vc14-debug-dynamic:sock_bsd.obj
 0001:0002b920       pj_sock_listen             000000014002c920 f   pjlib-x86_64-x64-vc14-debug-dynamic:sock_bsd.obj
 0001:0002b9b0       pj_sock_accept             000000014002c9b0 f   pjlib-x86_64-x64-vc14-debug-dynamic:sock_bsd.obj
 0001:0002ba90       pj_sock_connect            000000014002ca90 f   pjlib-x86_64-x64-vc14-debug-dynamic:sock_bsd.obj
 0001:0002bb30       pj_sock_getpeername        000000014002cb30 f   pjlib-x86_64-x64-vc14-debug-dynamic:sock_bsd.obj
 0001:0002bbd0       pj_sock_getsockname        000000014002cbd0 f   pjlib-x86_64-x64-vc14-debug-dynamic:sock_bsd.obj
 0001:0002bc70       pj_sock_getsockopt         000000014002cc70 f   pjlib-x86_64-x64-vc14-debug-dynamic:sock_bsd.obj
 0001:0002bd70       pj_sock_setsockopt         000000014002cd70 f   pjlib-x86_64-x64-vc14-debug-dynamic:sock_bsd.obj
 0001:0002be50       pj_sock_setsockopt_params  000000014002ce50 f   pjlib-x86_64-x64-vc14-debug-dynamic:sock_bsd.obj
 0001:0002bfa0       pj_sock_recv               000000014002cfa0 f   pjlib-x86_64-x64-vc14-debug-dynamic:sock_bsd.obj
 0001:0002c0a0       pj_sock_recvfrom           000000014002d0a0 f   pjlib-x86_64-x64-vc14-debug-dynamic:sock_bsd.obj
 0001:0002c1b0       pj_sock_send               000000014002d1b0 f   pjlib-x86_64-x64-vc14-debug-dynamic:sock_bsd.obj
 0001:0002c2a0       pj_sock_sendto             000000014002d2a0 f   pjlib-x86_64-x64-vc14-debug-dynamic:sock_bsd.obj
 0001:0002c3a0       pj_sock_shutdown           000000014002d3a0 f   pjlib-x86_64-x64-vc14-debug-dynamic:sock_bsd.obj
 0001:0002ca40       pj_gettimeofday            000000014002da40 f   pjlib-x86_64-x64-vc14-debug-dynamic:os_time_win32.obj
 0001:0002cb00       pj_time_decode             000000014002db00 f   pjlib-x86_64-x64-vc14-debug-dynamic:os_time_win32.obj
 0001:0002cc00       pj_time_encode             000000014002dc00 f   pjlib-x86_64-x64-vc14-debug-dynamic:os_time_win32.obj
 0001:0002ced0       pj_ioqueue_name            000000014002ded0 f   pjlib-x86_64-x64-vc14-debug-dynamic:ioqueue_select.obj
 0001:0002cee0       pj_ioqueue_create          000000014002dee0 f   pjlib-x86_64-x64-vc14-debug-dynamic:ioqueue_select.obj
 0001:0002d1d0       pj_ioqueue_destroy         000000014002e1d0 f   pjlib-x86_64-x64-vc14-debug-dynamic:ioqueue_select.obj
 0001:0002d310       pj_ioqueue_set_lock        000000014002e310 f   pjlib-x86_64-x64-vc14-debug-dynamic:ioqueue_select.obj
 0001:0002d3c0       pj_ioqueue_set_default_concurrency 000000014002e3c0 f   pjlib-x86_64-x64-vc14-debug-dynamic:ioqueue_select.obj
 0001:0002d420       pj_ioqueue_register_sock   000000014002e420 f   pjlib-x86_64-x64-vc14-debug-dynamic:ioqueue_select.obj
 0001:0002d480       pj_ioqueue_register_sock2  000000014002e480 f   pjlib-x86_64-x64-vc14-debug-dynamic:ioqueue_select.obj
 0001:0002d730       pj_ioqueue_unregister      000000014002e730 f   pjlib-x86_64-x64-vc14-debug-dynamic:ioqueue_select.obj
 0001:0002d940       pj_ioqueue_get_user_data   000000014002e940 f   pjlib-x86_64-x64-vc14-debug-dynamic:ioqueue_select.obj
 0001:0002d9a0       pj_ioqueue_set_user_data   000000014002e9a0 f   pjlib-x86_64-x64-vc14-debug-dynamic:ioqueue_select.obj
 0001:0002da20       pj_ioqueue_set_concurrency 000000014002ea20 f   pjlib-x86_64-x64-vc14-debug-dynamic:ioqueue_select.obj
 0001:0002dad0       pj_ioqueue_lock_key        000000014002ead0 f   pjlib-x86_64-x64-vc14-debug-dynamic:ioqueue_select.obj
 0001:0002db10       pj_ioqueue_trylock_key     000000014002eb10 f   pjlib-x86_64-x64-vc14-debug-dynamic:ioqueue_select.obj
 0001:0002db50       pj_ioqueue_unlock_key      000000014002eb50 f   pjlib-x86_64-x64-vc14-debug-dynamic:ioqueue_select.obj
 0001:0002db90       pj_ioqueue_op_key_init     000000014002eb90 f   pjlib-x86_64-x64-vc14-debug-dynamic:ioqueue_select.obj
 0001:0002dbc0       pj_ioqueue_is_pending      000000014002ebc0 f   pjlib-x86_64-x64-vc14-debug-dynamic:ioqueue_select.obj
 0001:0002dc10       pj_ioqueue_post_completion 000000014002ec10 f   pjlib-x86_64-x64-vc14-debug-dynamic:ioqueue_select.obj
 0001:0002ddf0       pj_ioqueue_accept          000000014002edf0 f   pjlib-x86_64-x64-vc14-debug-dynamic:ioqueue_select.obj
 0001:0002e040       pj_ioqueue_connect         000000014002f040 f   pjlib-x86_64-x64-vc14-debug-dynamic:ioqueue_select.obj
 0001:0002e1a0       pj_ioqueue_poll            000000014002f1a0 f   pjlib-x86_64-x64-vc14-debug-dynamic:ioqueue_select.obj
 0001:0002e780       pj_ioqueue_recv            000000014002f780 f   pjlib-x86_64-x64-vc14-debug-dynamic:ioqueue_select.obj
 0001:0002e9b0       pj_ioqueue_recvfrom        000000014002f9b0 f   pjlib-x86_64-x64-vc14-debug-dynamic:ioqueue_select.obj
 0001:0002ec20       pj_ioqueue_send            000000014002fc20 f   pjlib-x86_64-x64-vc14-debug-dynamic:ioqueue_select.obj
 0001:0002ee60       pj_ioqueue_sendto          000000014002fe60 f   pjlib-x86_64-x64-vc14-debug-dynamic:ioqueue_select.obj
 0001:0002f6d0       ioqueue_dispatch_write_event 00000001400306d0 f   pjlib-x86_64-x64-vc14-debug-dynamic:ioqueue_select.obj
 0001:0002fba0       ioqueue_dispatch_read_event 0000000140030ba0 f   pjlib-x86_64-x64-vc14-debug-dynamic:ioqueue_select.obj
 0001:0002ff40       ioqueue_dispatch_exception_event 0000000140030f40 f   pjlib-x86_64-x64-vc14-debug-dynamic:ioqueue_select.obj
 0001:00031100       pj_GUID_STRING_LENGTH      0000000140032100 f   pjlib-x86_64-x64-vc14-debug-dynamic:guid_win32.obj
 0001:00031110       pj_generate_unique_string  0000000140032110 f   pjlib-x86_64-x64-vc14-debug-dynamic:guid_win32.obj
 0001:00031310       pj_get_version             0000000140032310 f   pjlib-x86_64-x64-vc14-debug-dynamic:config.obj
 0001:00031320       pj_dump_config             0000000140032320 f   pjlib-x86_64-x64-vc14-debug-dynamic:config.obj
 0001:00031a00       pj_pool_create_on_buf      0000000140032a00 f   pjlib-x86_64-x64-vc14-debug-dynamic:pool_buf.obj
 0001:00031cf0       pj_get_os_error            0000000140032cf0 f   pjlib-x86_64-x64-vc14-debug-dynamic:os_error_win32.obj
 0001:00031d30       pj_set_os_error            0000000140032d30 f   pjlib-x86_64-x64-vc14-debug-dynamic:os_error_win32.obj
 0001:00031d70       pj_get_netos_error         0000000140032d70 f   pjlib-x86_64-x64-vc14-debug-dynamic:os_error_win32.obj
 0001:00031db0       pj_set_netos_error         0000000140032db0 f   pjlib-x86_64-x64-vc14-debug-dynamic:os_error_win32.obj
 0001:00031e30       platform_strerror          0000000140032e30 f   pjlib-x86_64-x64-vc14-debug-dynamic:os_error_win32.obj
 0001:00032170       pj_log_write               0000000140033170 f   pjlib-x86_64-x64-vc14-debug-dynamic:log_writer_stdout.obj
 0001:00032300       pj_enum_ip_interface       0000000140033300 f   pjlib-x86_64-x64-vc14-debug-dynamic:ip_helper_win32.obj
 0001:00032440       pj_enum_ip_interface2      0000000140033440 f   pjlib-x86_64-x64-vc14-debug-dynamic:ip_helper_win32.obj
 0001:000324b0       pj_enum_ip_route           00000001400334b0 f   pjlib-x86_64-x64-vc14-debug-dynamic:ip_helper_win32.obj
 0001:000333d0       pj_gethostbyname           00000001400343d0 f   pjlib-x86_64-x64-vc14-debug-dynamic:addr_resolv_sock.obj
 0001:00033540       pj_getaddrinfo             0000000140034540 f   pjlib-x86_64-x64-vc14-debug-dynamic:addr_resolv_sock.obj
 0001:00033920       pj_time_val_normalize      0000000140034920 f   pjlib-x86_64-x64-vc14-debug-dynamic:types.obj
 0001:00033a90       pj_gettickcount            0000000140034a90 f   pjlib-x86_64-x64-vc14-debug-dynamic:os_timestamp_common.obj
 0001:00033af0       pj_elapsed_time            0000000140034af0 f   pjlib-x86_64-x64-vc14-debug-dynamic:os_timestamp_common.obj
 0001:00033bb0       pj_elapsed_msec            0000000140034bb0 f   pjlib-x86_64-x64-vc14-debug-dynamic:os_timestamp_common.obj
 0001:00033be0       pj_elapsed_msec64          0000000140034be0 f   pjlib-x86_64-x64-vc14-debug-dynamic:os_timestamp_common.obj
 0001:00033c40       pj_elapsed_usec            0000000140034c40 f   pjlib-x86_64-x64-vc14-debug-dynamic:os_timestamp_common.obj
 0001:00033c70       pj_elapsed_nanosec         0000000140034c70 f   pjlib-x86_64-x64-vc14-debug-dynamic:os_timestamp_common.obj
 0001:00033d10       pj_elapsed_cycle           0000000140034d10 f   pjlib-x86_64-x64-vc14-debug-dynamic:os_timestamp_common.obj
 0001:00033fe0       PJ_FD_ZERO                 0000000140034fe0 f   pjlib-x86_64-x64-vc14-debug-dynamic:sock_select.obj
 0001:00034030       PJ_FD_COUNT                0000000140035030 f   pjlib-x86_64-x64-vc14-debug-dynamic:sock_select.obj
 0001:00034050       PJ_FD_SET                  0000000140035050 f   pjlib-x86_64-x64-vc14-debug-dynamic:sock_select.obj
 0001:00034190       PJ_FD_CLR                  0000000140035190 f   pjlib-x86_64-x64-vc14-debug-dynamic:sock_select.obj
 0001:000342f0       PJ_FD_ISSET                00000001400352f0 f   pjlib-x86_64-x64-vc14-debug-dynamic:sock_select.obj
 0001:00034350       pj_sock_select             0000000140035350 f   pjlib-x86_64-x64-vc14-debug-dynamic:sock_select.obj
 0001:000345b0       srtp_init                  00000001400355b0 f   libsrtp-x86_64-x64-vc14-debug-dynamic:srtp.obj
 0001:00034600       srtp_shutdown              0000000140035600 f   libsrtp-x86_64-x64-vc14-debug-dynamic:srtp.obj
 0001:00034630       srtp_protect               0000000140035630 f   libsrtp-x86_64-x64-vc14-debug-dynamic:srtp.obj
 0001:00034670       srtp_protect_mki           0000000140035670 f   libsrtp-x86_64-x64-vc14-debug-dynamic:srtp.obj
 0001:00035090       srtp_unprotect             0000000140036090 f   libsrtp-x86_64-x64-vc14-debug-dynamic:srtp.obj
 0001:000350d0       srtp_unprotect_mki         00000001400360d0 f   libsrtp-x86_64-x64-vc14-debug-dynamic:srtp.obj
 0001:00035be0       srtp_create                0000000140036be0 f   libsrtp-x86_64-x64-vc14-debug-dynamic:srtp.obj
 0001:00035cc0       srtp_add_stream            0000000140036cc0 f   libsrtp-x86_64-x64-vc14-debug-dynamic:srtp.obj
 0001:00035e20       srtp_remove_stream         0000000140036e20 f   libsrtp-x86_64-x64-vc14-debug-dynamic:srtp.obj
 0001:00035f00       srtp_update                0000000140036f00 f   libsrtp-x86_64-x64-vc14-debug-dynamic:srtp.obj
 0001:00035f80       srtp_update_stream         0000000140036f80 f   libsrtp-x86_64-x64-vc14-debug-dynamic:srtp.obj
 0001:00036020       srtp_crypto_policy_set_rtp_default 0000000140037020 f   libsrtp-x86_64-x64-vc14-debug-dynamic:srtp.obj
 0001:00036080       srtp_crypto_policy_set_rtcp_default 0000000140037080 f   libsrtp-x86_64-x64-vc14-debug-dynamic:srtp.obj
 0001:000360e0       srtp_crypto_policy_set_aes_cm_128_hmac_sha1_32 00000001400370e0 f   libsrtp-x86_64-x64-vc14-debug-dynamic:srtp.obj
 0001:00036140       srtp_crypto_policy_set_aes_cm_128_null_auth 0000000140037140 f   libsrtp-x86_64-x64-vc14-debug-dynamic:srtp.obj
 0001:000361a0       srtp_crypto_policy_set_null_cipher_hmac_sha1_80 00000001400371a0 f   libsrtp-x86_64-x64-vc14-debug-dynamic:srtp.obj
 0001:00036200       srtp_crypto_policy_set_null_cipher_hmac_null 0000000140037200 f   libsrtp-x86_64-x64-vc14-debug-dynamic:srtp.obj
 0001:00036260       srtp_crypto_policy_set_aes_cm_256_hmac_sha1_80 0000000140037260 f   libsrtp-x86_64-x64-vc14-debug-dynamic:srtp.obj
 0001:000362c0       srtp_crypto_policy_set_aes_cm_256_hmac_sha1_32 00000001400372c0 f   libsrtp-x86_64-x64-vc14-debug-dynamic:srtp.obj
 0001:00036320       srtp_crypto_policy_set_aes_cm_256_null_auth 0000000140037320 f   libsrtp-x86_64-x64-vc14-debug-dynamic:srtp.obj
 0001:00036380       srtp_dealloc               0000000140037380 f   libsrtp-x86_64-x64-vc14-debug-dynamic:srtp.obj
 0001:00036420       srtp_crypto_policy_set_from_profile_for_rtp 0000000140037420 f   libsrtp-x86_64-x64-vc14-debug-dynamic:srtp.obj
 0001:00036490       srtp_crypto_policy_set_from_profile_for_rtcp 0000000140037490 f   libsrtp-x86_64-x64-vc14-debug-dynamic:srtp.obj
 0001:00036500       srtp_profile_get_master_key_length 0000000140037500 f   libsrtp-x86_64-x64-vc14-debug-dynamic:srtp.obj
 0001:00036590       srtp_profile_get_master_salt_length 0000000140037590 f   libsrtp-x86_64-x64-vc14-debug-dynamic:srtp.obj
 0001:00036620       srtp_append_salt_to_key    0000000140037620 f   libsrtp-x86_64-x64-vc14-debug-dynamic:srtp.obj
 0001:00036670       srtp_protect_rtcp          0000000140037670 f   libsrtp-x86_64-x64-vc14-debug-dynamic:srtp.obj
 0001:000366b0       srtp_protect_rtcp_mki      00000001400376b0 f   libsrtp-x86_64-x64-vc14-debug-dynamic:srtp.obj
 0001:00036d80       srtp_unprotect_rtcp        0000000140037d80 f   libsrtp-x86_64-x64-vc14-debug-dynamic:srtp.obj
 0001:00036dc0       srtp_unprotect_rtcp_mki    0000000140037dc0 f   libsrtp-x86_64-x64-vc14-debug-dynamic:srtp.obj
 0001:000376a0       srtp_set_user_data         00000001400386a0 f   libsrtp-x86_64-x64-vc14-debug-dynamic:srtp.obj
 0001:000376c0       srtp_get_user_data         00000001400386c0 f   libsrtp-x86_64-x64-vc14-debug-dynamic:srtp.obj
 0001:000376e0       srtp_install_event_handler 00000001400386e0 f   libsrtp-x86_64-x64-vc14-debug-dynamic:srtp.obj
 0001:00037700       srtp_get_version_string    0000000140038700 f   libsrtp-x86_64-x64-vc14-debug-dynamic:srtp.obj
 0001:00037710       srtp_get_version           0000000140038710 f   libsrtp-x86_64-x64-vc14-debug-dynamic:srtp.obj
 0001:000377c0       srtp_set_debug_module      00000001400387c0 f   libsrtp-x86_64-x64-vc14-debug-dynamic:srtp.obj
 0001:000377f0       srtp_list_debug_modules    00000001400387f0 f   libsrtp-x86_64-x64-vc14-debug-dynamic:srtp.obj
 0001:00037810       srtp_install_log_handler   0000000140038810 f   libsrtp-x86_64-x64-vc14-debug-dynamic:srtp.obj
 0001:00037870       srtp_get_protect_trailer_length 0000000140038870 f   libsrtp-x86_64-x64-vc14-debug-dynamic:srtp.obj
 0001:00037980       srtp_get_protect_rtcp_trailer_length 0000000140038980 f   libsrtp-x86_64-x64-vc14-debug-dynamic:srtp.obj
 0001:00037ab0       srtp_set_stream_roc        0000000140038ab0 f   libsrtp-x86_64-x64-vc14-debug-dynamic:srtp.obj
 0001:00037b10       srtp_get_stream_roc        0000000140038b10 f   libsrtp-x86_64-x64-vc14-debug-dynamic:srtp.obj
 0001:00037be0       srtp_get_stream            0000000140038be0 f   libsrtp-x86_64-x64-vc14-debug-dynamic:srtp.obj
 0001:00037c30       srtp_stream_init_keys      0000000140038c30 f   libsrtp-x86_64-x64-vc14-debug-dynamic:srtp.obj
 0001:000387d0       srtp_stream_init           00000001400397d0 f   libsrtp-x86_64-x64-vc14-debug-dynamic:srtp.obj
 0001:00038c10       srtp_stream_alloc          0000000140039c10 f   libsrtp-x86_64-x64-vc14-debug-dynamic:srtp.obj
 0001:000390a0       srtp_stream_dealloc        000000014003a0a0 f   libsrtp-x86_64-x64-vc14-debug-dynamic:srtp.obj
 0001:000393d0       srtp_stream_clone          000000014003a3d0 f   libsrtp-x86_64-x64-vc14-debug-dynamic:srtp.obj
 0001:00039a00       srtp_validate_policy_master_keys 000000014003aa00 f   libsrtp-x86_64-x64-vc14-debug-dynamic:srtp.obj
 0001:00039ab0       srtp_get_session_keys_with_mki_index 000000014003aab0 f   libsrtp-x86_64-x64-vc14-debug-dynamic:srtp.obj
 0001:00039b00       srtp_inject_mki            000000014003ab00 f   libsrtp-x86_64-x64-vc14-debug-dynamic:srtp.obj
 0001:00039b60       srtp_stream_init_all_master_keys 000000014003ab60 f   libsrtp-x86_64-x64-vc14-debug-dynamic:srtp.obj
 0001:00039c50       srtp_event_reporter        000000014003ac50 f   libsrtp-x86_64-x64-vc14-debug-dynamic:srtp.obj
 0001:0003a320       srtp_get_session_keys      000000014003b320 f   libsrtp-x86_64-x64-vc14-debug-dynamic:srtp.obj
 0001:0003bf70       srtp_err_handler           000000014003cf70 f   libsrtp-x86_64-x64-vc14-debug-dynamic:srtp.obj
 0001:0003de90       __local_stdio_scanf_options 000000014003ee90 f i libsrtp-x86_64-x64-vc14-debug-dynamic:srtp.obj
 0001:0003dea0       _vsscanf_l                 000000014003eea0 f i libsrtp-x86_64-x64-vc14-debug-dynamic:srtp.obj
 0001:0003df10       sscanf                     000000014003ef10 f i libsrtp-x86_64-x64-vc14-debug-dynamic:srtp.obj
 0001:0003df80       srtp_crypto_alloc          000000014003ef80 f   libsrtp-x86_64-x64-vc14-debug-dynamic:alloc.obj
 0001:0003e000       srtp_crypto_free           000000014003f000 f   libsrtp-x86_64-x64-vc14-debug-dynamic:alloc.obj
 0001:0003e070       octet_get_weight           000000014003f070 f   libsrtp-x86_64-x64-vc14-debug-dynamic:datatypes.obj
 0001:0003e090       srtp_octet_string_hex_string 000000014003f090 f   libsrtp-x86_64-x64-vc14-debug-dynamic:datatypes.obj
 0001:0003e180       v128_bit_string            000000014003f180 f   libsrtp-x86_64-x64-vc14-debug-dynamic:datatypes.obj
 0001:0003e260       v128_hex_string            000000014003f260 f   libsrtp-x86_64-x64-vc14-debug-dynamic:datatypes.obj
 0001:0003e330       v128_copy_octet_string     000000014003f330 f   libsrtp-x86_64-x64-vc14-debug-dynamic:datatypes.obj
 0001:0003e590       v128_left_shift            000000014003f590 f   libsrtp-x86_64-x64-vc14-debug-dynamic:datatypes.obj
 0001:0003e750       v128_right_shift           000000014003f750 f   libsrtp-x86_64-x64-vc14-debug-dynamic:datatypes.obj
 0001:0003e900       octet_string_is_eq         000000014003f900 f   libsrtp-x86_64-x64-vc14-debug-dynamic:datatypes.obj
 0001:0003e9a0       srtp_cleanse               000000014003f9a0 f   libsrtp-x86_64-x64-vc14-debug-dynamic:datatypes.obj
 0001:0003ea00       octet_string_set_to_zero   000000014003fa00 f   libsrtp-x86_64-x64-vc14-debug-dynamic:datatypes.obj
 0001:0003ea30       bitvector_alloc            000000014003fa30 f   libsrtp-x86_64-x64-vc14-debug-dynamic:datatypes.obj
 0001:0003eae0       bitvector_dealloc          000000014003fae0 f   libsrtp-x86_64-x64-vc14-debug-dynamic:datatypes.obj
 0001:0003eb30       bitvector_set_to_zero      000000014003fb30 f   libsrtp-x86_64-x64-vc14-debug-dynamic:datatypes.obj
 0001:0003eb70       bitvector_left_shift       000000014003fb70 f   libsrtp-x86_64-x64-vc14-debug-dynamic:datatypes.obj
 0001:0003ed50       bitvector_bit_string       000000014003fd50 f   libsrtp-x86_64-x64-vc14-debug-dynamic:datatypes.obj
 0001:0003ee30       srtp_nibble_to_hex_char    000000014003fe30 f   libsrtp-x86_64-x64-vc14-debug-dynamic:datatypes.obj
 0001:0003f250       srtp_err_reporting_init    0000000140040250 f   libsrtp-x86_64-x64-vc14-debug-dynamic:srtp_err.obj
 0001:0003f260       srtp_install_err_report_handler 0000000140040260 f   libsrtp-x86_64-x64-vc14-debug-dynamic:srtp_err.obj
 0001:0003f270       srtp_err_report            0000000140040270 f   libsrtp-x86_64-x64-vc14-debug-dynamic:srtp_err.obj
 0001:0003f2d0       srtp_err_reporting_set_level 00000001400402d0 f   libsrtp-x86_64-x64-vc14-debug-dynamic:srtp_err.obj
 0001:0003f310       srtp_rdbx_init             0000000140040310 f   libsrtp-x86_64-x64-vc14-debug-dynamic:rdbx.obj
 0001:0003f370       srtp_rdbx_dealloc          0000000140040370 f   libsrtp-x86_64-x64-vc14-debug-dynamic:rdbx.obj
 0001:0003f3a0       srtp_rdbx_estimate_index   00000001400403a0 f   libsrtp-x86_64-x64-vc14-debug-dynamic:rdbx.obj
 0001:0003f410       srtp_rdbx_check            0000000140040410 f   libsrtp-x86_64-x64-vc14-debug-dynamic:rdbx.obj
 0001:0003f4b0       srtp_rdbx_add_index        00000001400404b0 f   libsrtp-x86_64-x64-vc14-debug-dynamic:rdbx.obj
 0001:0003f5d0       srtp_rdbx_set_roc          00000001400405d0 f   libsrtp-x86_64-x64-vc14-debug-dynamic:rdbx.obj
 0001:0003f650       srtp_rdbx_get_packet_index 0000000140040650 f   libsrtp-x86_64-x64-vc14-debug-dynamic:rdbx.obj
 0001:0003f670       srtp_rdbx_get_window_size  0000000140040670 f   libsrtp-x86_64-x64-vc14-debug-dynamic:rdbx.obj
 0001:0003f690       srtp_index_init            0000000140040690 f   libsrtp-x86_64-x64-vc14-debug-dynamic:rdbx.obj
 0001:0003f6b0       srtp_index_advance         00000001400406b0 f   libsrtp-x86_64-x64-vc14-debug-dynamic:rdbx.obj
 0001:0003f6e0       srtp_index_guess           00000001400406e0 f   libsrtp-x86_64-x64-vc14-debug-dynamic:rdbx.obj
 0001:0003f800       srtp_rdbx_get_roc          0000000140040800 f   libsrtp-x86_64-x64-vc14-debug-dynamic:rdbx.obj
 0001:0003f830       srtp_rdbx_set_roc_seq      0000000140040830 f   libsrtp-x86_64-x64-vc14-debug-dynamic:rdbx.obj
 0001:0003fa10       srtp_rdb_init              0000000140040a10 f   libsrtp-x86_64-x64-vc14-debug-dynamic:rdb.obj
 0001:0003fa90       srtp_rdb_check             0000000140040a90 f   libsrtp-x86_64-x64-vc14-debug-dynamic:rdb.obj
 0001:0003fb20       srtp_rdb_add_index         0000000140040b20 f   libsrtp-x86_64-x64-vc14-debug-dynamic:rdb.obj
 0001:0003fbf0       srtp_rdb_increment         0000000140040bf0 f   libsrtp-x86_64-x64-vc14-debug-dynamic:rdb.obj
 0001:0003fc30       srtp_rdb_get_value         0000000140040c30 f   libsrtp-x86_64-x64-vc14-debug-dynamic:rdb.obj
 0001:0003fcd0       srtp_cipher_get_key_length 0000000140040cd0 f   libsrtp-x86_64-x64-vc14-debug-dynamic:cipher.obj
 0001:0003fcf0       srtp_cipher_type_self_test 0000000140040cf0 f   libsrtp-x86_64-x64-vc14-debug-dynamic:cipher.obj
 0001:0003fd20       srtp_cipher_type_test      0000000140040d20 f   libsrtp-x86_64-x64-vc14-debug-dynamic:cipher.obj
 0001:00040b80       srtp_cipher_bits_per_second 0000000140041b80 f   libsrtp-x86_64-x64-vc14-debug-dynamic:cipher.obj
 0001:00040d00       srtp_cipher_type_alloc     0000000140041d00 f   libsrtp-x86_64-x64-vc14-debug-dynamic:cipher.obj
 0001:00040d60       srtp_cipher_dealloc        0000000140041d60 f   libsrtp-x86_64-x64-vc14-debug-dynamic:cipher.obj
 0001:00040da0       srtp_cipher_init           0000000140041da0 f   libsrtp-x86_64-x64-vc14-debug-dynamic:cipher.obj
 0001:00040e00       srtp_cipher_set_iv         0000000140041e00 f   libsrtp-x86_64-x64-vc14-debug-dynamic:cipher.obj
 0001:00040e70       srtp_cipher_output         0000000140041e70 f   libsrtp-x86_64-x64-vc14-debug-dynamic:cipher.obj
 0001:00040ec0       srtp_cipher_encrypt        0000000140041ec0 f   libsrtp-x86_64-x64-vc14-debug-dynamic:cipher.obj
 0001:00040f30       srtp_cipher_decrypt        0000000140041f30 f   libsrtp-x86_64-x64-vc14-debug-dynamic:cipher.obj
 0001:00040fa0       srtp_cipher_get_tag        0000000140041fa0 f   libsrtp-x86_64-x64-vc14-debug-dynamic:cipher.obj
 0001:00041020       srtp_cipher_set_aad        0000000140042020 f   libsrtp-x86_64-x64-vc14-debug-dynamic:cipher.obj
 0001:00041610       srtp_auth_get_key_length   0000000140042610 f   libsrtp-x86_64-x64-vc14-debug-dynamic:auth.obj
 0001:00041630       srtp_auth_get_tag_length   0000000140042630 f   libsrtp-x86_64-x64-vc14-debug-dynamic:auth.obj
 0001:00041650       srtp_auth_get_prefix_length 0000000140042650 f   libsrtp-x86_64-x64-vc14-debug-dynamic:auth.obj
 0001:00041670       srtp_auth_type_self_test   0000000140042670 f   libsrtp-x86_64-x64-vc14-debug-dynamic:auth.obj
 0001:000416a0       srtp_auth_type_test        00000001400426a0 f   libsrtp-x86_64-x64-vc14-debug-dynamic:auth.obj
 0001:00041b30       srtp_key_limit_set         0000000140042b30 f   libsrtp-x86_64-x64-vc14-debug-dynamic:key.obj
 0001:00041b70       srtp_key_limit_clone       0000000140042b70 f   libsrtp-x86_64-x64-vc14-debug-dynamic:key.obj
 0001:00041ba0       srtp_key_limit_check       0000000140042ba0 f   libsrtp-x86_64-x64-vc14-debug-dynamic:key.obj
 0001:00041bc0       srtp_key_limit_update      0000000140042bc0 f   libsrtp-x86_64-x64-vc14-debug-dynamic:key.obj
 0001:00041c70       srtp_replace_cipher_type   0000000140042c70 f   libsrtp-x86_64-x64-vc14-debug-dynamic:crypto_kernel.obj
 0001:00041ca0       srtp_replace_auth_type     0000000140042ca0 f   libsrtp-x86_64-x64-vc14-debug-dynamic:crypto_kernel.obj
 0001:00041cd0       srtp_crypto_kernel_init    0000000140042cd0 f   libsrtp-x86_64-x64-vc14-debug-dynamic:crypto_kernel.obj
 0001:00041ea0       srtp_crypto_kernel_shutdown 0000000140042ea0 f   libsrtp-x86_64-x64-vc14-debug-dynamic:crypto_kernel.obj
 0001:00041fe0       srtp_crypto_kernel_status  0000000140042fe0 f   libsrtp-x86_64-x64-vc14-debug-dynamic:crypto_kernel.obj
 0001:00042140       srtp_crypto_kernel_list_debug_modules 0000000140043140 f   libsrtp-x86_64-x64-vc14-debug-dynamic:crypto_kernel.obj
 0001:000421e0       srtp_crypto_kernel_load_cipher_type 00000001400431e0 f   libsrtp-x86_64-x64-vc14-debug-dynamic:crypto_kernel.obj
 0001:00042210       srtp_crypto_kernel_load_auth_type 0000000140043210 f   libsrtp-x86_64-x64-vc14-debug-dynamic:crypto_kernel.obj
 0001:00042240       srtp_crypto_kernel_load_debug_module 0000000140043240 f   libsrtp-x86_64-x64-vc14-debug-dynamic:crypto_kernel.obj
 0001:00042300       srtp_crypto_kernel_alloc_cipher 0000000140043300 f   libsrtp-x86_64-x64-vc14-debug-dynamic:crypto_kernel.obj
 0001:00042370       srtp_crypto_kernel_alloc_auth 0000000140043370 f   libsrtp-x86_64-x64-vc14-debug-dynamic:crypto_kernel.obj
 0001:000423e0       srtp_crypto_kernel_set_debug_module 00000001400433e0 f   libsrtp-x86_64-x64-vc14-debug-dynamic:crypto_kernel.obj
 0001:000425c0       srtp_crypto_kernel_do_load_auth_type 00000001400435c0 f   libsrtp-x86_64-x64-vc14-debug-dynamic:crypto_kernel.obj
 0001:00042720       srtp_crypto_kernel_get_cipher_type 0000000140043720 f   libsrtp-x86_64-x64-vc14-debug-dynamic:crypto_kernel.obj
 0001:00042770       srtp_crypto_kernel_get_auth_type 0000000140043770 f   libsrtp-x86_64-x64-vc14-debug-dynamic:crypto_kernel.obj
 0001:00042a90       srtp_ekt_octets_after_base_tag 0000000140043a90 f   libsrtp-x86_64-x64-vc14-debug-dynamic:ekt.obj
 0001:00042ad0       srtp_ekt_alloc             0000000140043ad0 f   libsrtp-x86_64-x64-vc14-debug-dynamic:ekt.obj
 0001:00042b10       srtp_ekt_stream_init_from_policy 0000000140043b10 f   libsrtp-x86_64-x64-vc14-debug-dynamic:ekt.obj
 0001:00042b30       srtp_stream_init_from_ekt  0000000140043b30 f   libsrtp-x86_64-x64-vc14-debug-dynamic:ekt.obj
 0001:00042c80       srtp_ekt_write_data        0000000140043c80 f   libsrtp-x86_64-x64-vc14-debug-dynamic:ekt.obj
 0001:00042f50       aes_decrypt_with_raw_key   0000000140043f50 f   libsrtp-x86_64-x64-vc14-debug-dynamic:ekt.obj
 0001:00042fd0       srtcp_ekt_trailer          0000000140043fd0 f   libsrtp-x86_64-x64-vc14-debug-dynamic:ekt.obj
 0001:00043140       stat_test_monobit          0000000140044140 f   libsrtp-x86_64-x64-vc14-debug-dynamic:stat.obj
 0001:000431f0       stat_test_poker            00000001400441f0 f   libsrtp-x86_64-x64-vc14-debug-dynamic:stat.obj
 0001:000433f0       stat_test_runs             00000001400443f0 f   libsrtp-x86_64-x64-vc14-debug-dynamic:stat.obj
 0001:000456b0       srtp_aes_expand_encryption_key 00000001400466b0 f   libsrtp-x86_64-x64-vc14-debug-dynamic:aes.obj
 0001:00045720       srtp_aes_expand_decryption_key 0000000140046720 f   libsrtp-x86_64-x64-vc14-debug-dynamic:aes.obj
 0001:00045f40       srtp_aes_encrypt           0000000140046f40 f   libsrtp-x86_64-x64-vc14-debug-dynamic:aes.obj
 0001:00046280       srtp_aes_decrypt           0000000140047280 f   libsrtp-x86_64-x64-vc14-debug-dynamic:aes.obj
 0001:000483e0       srtp_sha1_init             00000001400493e0 f   libsrtp-x86_64-x64-vc14-debug-dynamic:sha1.obj
 0001:00048470       srtp_sha1_update           0000000140049470 f   libsrtp-x86_64-x64-vc14-debug-dynamic:sha1.obj
 0001:00048620       srtp_sha1_final            0000000140049620 f   libsrtp-x86_64-x64-vc14-debug-dynamic:sha1.obj
 0001:00049220       srtp_sha1_core             000000014004a220 f   libsrtp-x86_64-x64-vc14-debug-dynamic:sha1.obj
 0001:00049e50       srtp_sha1                  000000014004ae50 f   libsrtp-x86_64-x64-vc14-debug-dynamic:sha1.obj
 0001:0004a57e       CoCreateGuid               000000014004b57e f   ole32:ole32.dll
 0001:0004a584       WSAStartup                 000000014004b584 f   ws2_32:WS2_32.dll
 0001:0004a58a       WSACleanup                 000000014004b58a f   ws2_32:WS2_32.dll
 0001:0004a590       WSAGetLastError            000000014004b590 f   ws2_32:WS2_32.dll
 0001:0004a596       accept                     000000014004b596 f   ws2_32:WS2_32.dll
 0001:0004a59c       bind                       000000014004b59c f   ws2_32:WS2_32.dll
 0001:0004a5a2       closesocket                000000014004b5a2 f   ws2_32:WS2_32.dll
 0001:0004a5a8       connect                    000000014004b5a8 f   ws2_32:WS2_32.dll
 0001:0004a5ae       getpeername                000000014004b5ae f   ws2_32:WS2_32.dll
 0001:0004a5b4       getsockname                000000014004b5b4 f   ws2_32:WS2_32.dll
 0001:0004a5ba       getsockopt                 000000014004b5ba f   ws2_32:WS2_32.dll
 0001:0004a5c0       htonl                      000000014004b5c0 f   ws2_32:WS2_32.dll
 0001:0004a5c6       htons                      000000014004b5c6 f   ws2_32:WS2_32.dll
 0001:0004a5cc       inet_addr                  000000014004b5cc f   ws2_32:WS2_32.dll
 0001:0004a5d2       inet_ntoa                  000000014004b5d2 f   ws2_32:WS2_32.dll
 0001:0004a5d8       listen                     000000014004b5d8 f   ws2_32:WS2_32.dll
 0001:0004a5de       ntohl                      000000014004b5de f   ws2_32:WS2_32.dll
 0001:0004a5e4       ntohs                      000000014004b5e4 f   ws2_32:WS2_32.dll
 0001:0004a5ea       recv                       000000014004b5ea f   ws2_32:WS2_32.dll
 0001:0004a5f0       recvfrom                   000000014004b5f0 f   ws2_32:WS2_32.dll
 0001:0004a5f6       send                       000000014004b5f6 f   ws2_32:WS2_32.dll
 0001:0004a5fc       sendto                     000000014004b5fc f   ws2_32:WS2_32.dll
 0001:0004a602       setsockopt                 000000014004b602 f   ws2_32:WS2_32.dll
 0001:0004a608       shutdown                   000000014004b608 f   ws2_32:WS2_32.dll
 0001:0004a60e       gethostname                000000014004b60e f   ws2_32:WS2_32.dll
 0001:0004a614       WSAIoctl                   000000014004b614 f   ws2_32:WS2_32.dll
 0001:0004a61a       WSASocketA                 000000014004b61a f   ws2_32:WS2_32.dll
 0001:0004a620       WSAAddressToStringA        000000014004b620 f   ws2_32:WS2_32.dll
 0001:0004a626       WSAStringToAddressA        000000014004b626 f   ws2_32:WS2_32.dll
 0001:0004a62c       ioctlsocket                000000014004b62c f   ws2_32:WS2_32.dll
 0001:0004a632       WSASetLastError            000000014004b632 f   ws2_32:WS2_32.dll
 0001:0004a638       gethostbyname              000000014004b638 f   ws2_32:WS2_32.dll
 0001:0004a63e       __WSAFDIsSet               000000014004b63e f   ws2_32:WS2_32.dll
 0001:0004a644       select                     000000014004b644 f   ws2_32:WS2_32.dll
 0001:0004a650       __GSHandlerCheck           000000014004b650 f   MSVCRTD:gshandler.obj
 0001:0004a6a0       __GSHandlerCheckCommon     000000014004b6a0 f   MSVCRTD:gshandler.obj
 0001:0004a7f0       __security_check_cookie    000000014004b7f0 f   MSVCRTD:amdsecgs.obj
 0001:0004ab70       ?configure_argv@__scrt_narrow_argv_policy@@SAHXZ 000000014004bb70 f i MSVCRTD:exe_main.obj
 0001:0004ab90       ?initialize_environment@__scrt_narrow_environment_policy@@SAHXZ 000000014004bb90 f i MSVCRTD:exe_main.obj
 0001:0004ac00       ?set_app_type@__scrt_main_policy@@SAXXZ 000000014004bc00 f i MSVCRTD:exe_main.obj
 0001:0004ac20       ?set_commode@__scrt_file_policy@@SAXXZ 000000014004bc20 f i MSVCRTD:exe_main.obj
 0001:0004ac50       ?set_fmode@__scrt_file_policy@@SAXXZ 000000014004bc50 f i MSVCRTD:exe_main.obj
 0001:0004ac70       mainCRTStartup             000000014004bc70 f   MSVCRTD:exe_main.obj
 0001:0004ac90       __raise_securityfailure    000000014004bc90 f   MSVCRTD:gs_report.obj
 0001:0004ace0       __report_gsfailure         000000014004bce0 f   MSVCRTD:gs_report.obj
 0001:0004adf0       __report_rangecheckfailure 000000014004bdf0 f   MSVCRTD:gs_report.obj
 0001:0004ae10       __report_securityfailure   000000014004be10 f   MSVCRTD:gs_report.obj
 0001:0004aee0       __report_securityfailureEx 000000014004bee0 f   MSVCRTD:gs_report.obj
 0001:0004b1f0       _alloca_probe              000000014004c1f0 f   MSVCRTD:chkstk.obj
 0001:0004b1f0       __chkstk                   000000014004c1f0 f   MSVCRTD:chkstk.obj
 0001:0004b410       NtCurrentTeb               000000014004c410 f i MSVCRTD:utility.obj
 0001:0004b420       __scrt_acquire_startup_lock 000000014004c420 f   MSVCRTD:utility.obj
 0001:0004b4a0       __scrt_dllmain_after_initialize_c 000000014004c4a0 f   MSVCRTD:utility.obj
 0001:0004b4e0       __scrt_dllmain_before_initialize_c 000000014004c4e0 f   MSVCRTD:utility.obj
 0001:0004b510       __scrt_dllmain_crt_thread_attach 000000014004c510 f   MSVCRTD:utility.obj
 0001:0004b550       __scrt_dllmain_crt_thread_detach 000000014004c550 f   MSVCRTD:utility.obj
 0001:0004b570       __scrt_dllmain_exception_filter 000000014004c570 f   MSVCRTD:utility.obj
 0001:0004b5f0       __scrt_dllmain_uninitialize_c 000000014004c5f0 f   MSVCRTD:utility.obj
 0001:0004b630       __scrt_dllmain_uninitialize_critical 000000014004c630 f   MSVCRTD:utility.obj
 0001:0004b650       __scrt_initialize_crt      000000014004c650 f   MSVCRTD:utility.obj
 0001:0004b6b0       __scrt_initialize_onexit_tables 000000014004c6b0 f   MSVCRTD:utility.obj
 0001:0004b800       __scrt_is_nonwritable_in_current_image 000000014004c800 f   MSVCRTD:utility.obj
 0001:0004b8b0       __scrt_release_startup_lock 000000014004c8b0 f   MSVCRTD:utility.obj
 0001:0004b8f0       __scrt_uninitialize_crt    000000014004c8f0 f   MSVCRTD:utility.obj
 0001:0004b940       _onexit                    000000014004c940 f   MSVCRTD:utility.obj
 0001:0004b9e0       at_quick_exit              000000014004c9e0 f   MSVCRTD:utility.obj
 0001:0004ba40       atexit                     000000014004ca40 f   MSVCRTD:utility.obj
 0001:0004bb70       __security_init_cookie     000000014004cb70 f   MSVCRTD:gs_support.obj
 0001:0004bc10       _matherr                   000000014004cc10 f   MSVCRTD:matherr.obj
 0001:0004bc20       _get_startup_argv_mode     000000014004cc20 f   MSVCRTD:argv_mode.obj
 0001:0004bc30       _get_startup_commit_mode   000000014004cc30 f   MSVCRTD:commit_mode.obj
 0001:0004bc40       _get_startup_file_mode     000000014004cc40 f   MSVCRTD:file_mode.obj
 0001:0004bc50       _get_startup_new_mode      000000014004cc50 f   MSVCRTD:new_mode.obj
 0001:0004bc60       _get_startup_thread_locale_mode 000000014004cc60 f   MSVCRTD:thread_locale.obj
 0001:0004bc70       ?__scrt_initialize_type_info@@YAXXZ 000000014004cc70 f   MSVCRTD:tncleanup.obj
 0001:0004bc90       ?__scrt_uninitialize_type_info@@YAXXZ 000000014004cc90 f   MSVCRTD:tncleanup.obj
 0001:0004bcb0       _should_initialize_environment 000000014004ccb0 f   MSVCRTD:env_mode.obj
 0001:0004bcc0       _initialize_invalid_parameter_handler 000000014004ccc0 f   MSVCRTD:invalid_parameter_handler.obj
 0001:0004bcd0       _initialize_denormal_control 000000014004ccd0 f   MSVCRTD:denormal_control.obj
 0001:0004bce0       __scrt_initialize_default_local_stdio_options 000000014004cce0 f   MSVCRTD:default_local_stdio_options.obj
 0001:0004bd40       __scrt_is_user_matherr_present 000000014004cd40 f   MSVCRTD:matherr_detection.obj
 0001:0004bd70       __scrt_get_dyn_tls_init_callback 000000014004cd70 f   MSVCRTD:dyn_tls_init.obj
 0001:0004bd80       __scrt_get_dyn_tls_dtor_callback 000000014004cd80 f   MSVCRTD:dyn_tls_dtor.obj
 0001:0004bd90       __crt_debugger_hook        000000014004cd90 f   MSVCRTD:utility_desktop.obj
 0001:0004bdb0       __scrt_fastfail            000000014004cdb0 f   MSVCRTD:utility_desktop.obj
 0001:0004bfb0       __scrt_get_show_window_mode 000000014004cfb0 f   MSVCRTD:utility_desktop.obj
 0001:0004c020       __scrt_initialize_mta      000000014004d020 f   MSVCRTD:utility_desktop.obj
 0001:0004c040       __scrt_initialize_winrt    000000014004d040 f   MSVCRTD:utility_desktop.obj
 0001:0004c050       __scrt_is_managed_app      000000014004d050 f   MSVCRTD:utility_desktop.obj
 0001:0004c120       __scrt_set_unhandled_exception_filter 000000014004d120 f   MSVCRTD:utility_desktop.obj
 0001:0004c140       __scrt_stub_for_initialize_mta 000000014004d140 f   MSVCRTD:utility_desktop.obj
 0001:0004c140       __scrt_exe_initialize_mta  000000014004d140 f   MSVCRTD:utility_desktop.obj
 0001:0004c150       __scrt_unhandled_exception_filter 000000014004d150 f   MSVCRTD:utility_desktop.obj
 0001:0004c210       _RTC_Initialize            000000014004d210 f   MSVCRTD:initsect.obj
 0001:0004c270       _RTC_Terminate             000000014004d270 f   MSVCRTD:initsect.obj
 0001:0004c2d0       _guard_check_icall_nop     000000014004d2d0 f i MSVCRTD:guard_support.obj
 0001:0004c2e0       ReadNoFence64              000000014004d2e0 f i MSVCRTD:guard_support.obj
 0001:0004c310       ReadPointerNoFence         000000014004d310 f i MSVCRTD:guard_support.obj
 0001:0004c330       __castguard_check_failure_debugbreak 000000014004d330 f i MSVCRTD:guard_support.obj
 0001:0004c360       __castguard_check_failure_fastfail 000000014004d360 f i MSVCRTD:guard_support.obj
 0001:0004c390       __castguard_check_failure_nop 000000014004d390 f i MSVCRTD:guard_support.obj
 0001:0004c3a0       __castguard_check_failure_os_handled 000000014004d3a0 f i MSVCRTD:guard_support.obj
 0001:0004c490       __castguard_slow_path_check_debugbreak 000000014004d490 f i MSVCRTD:guard_support.obj
 0001:0004c4e0       __castguard_slow_path_check_fastfail 000000014004d4e0 f i MSVCRTD:guard_support.obj
 0001:0004c540       __castguard_slow_path_check_nop 000000014004d540 f i MSVCRTD:guard_support.obj
 0001:0004c560       __castguard_slow_path_check_os_handled 000000014004d560 f i MSVCRTD:guard_support.obj
 0001:0004c670       _guard_icall_checks_enforced 000000014004d670 f i MSVCRTD:guard_support.obj
 0001:0004c6c0       _guard_rf_checks_enforced  000000014004d6c0 f i MSVCRTD:guard_support.obj
 0001:0004c6d0       __isa_available_init       000000014004d6d0 f   MSVCRTD:cpu_disp.obj
 0001:0004cb50       __scrt_is_ucrt_dll_in_use  000000014004db50 f   MSVCRTD:ucrt_detection.obj
 0001:0004cb80       GetStdHandle               000000014004db80 f   kernel32:KERNEL32.dll
 0001:0004cb86       CloseHandle                000000014004db86 f   kernel32:KERNEL32.dll
 0001:0004cb8c       GetLastError               000000014004db8c f   kernel32:KERNEL32.dll
 0001:0004cb92       InitializeCriticalSection  000000014004db92 f   kernel32:KERNEL32.dll
 0001:0004cb98       EnterCriticalSection       000000014004db98 f   kernel32:KERNEL32.dll
 0001:0004cb9e       LeaveCriticalSection       000000014004db9e f   kernel32:KERNEL32.dll
 0001:0004cba4       TryEnterCriticalSection    000000014004dba4 f   kernel32:KERNEL32.dll
 0001:0004cbaa       DeleteCriticalSection      000000014004dbaa f   kernel32:KERNEL32.dll
 0001:0004cbb0       SetEvent                   000000014004dbb0 f   kernel32:KERNEL32.dll
 0001:0004cbb6       ResetEvent                 000000014004dbb6 f   kernel32:KERNEL32.dll
 0001:0004cbbc       ReleaseSemaphore           000000014004dbbc f   kernel32:KERNEL32.dll
 0001:0004cbc2       WaitForSingleObject        000000014004dbc2 f   kernel32:KERNEL32.dll
 0001:0004cbc8       CreateEventA               000000014004dbc8 f   kernel32:KERNEL32.dll
 0001:0004cbce       Sleep                      000000014004dbce f   kernel32:KERNEL32.dll
 0001:0004cbd4       GetCurrentProcessId        000000014004dbd4 f   kernel32:KERNEL32.dll
 0001:0004cbda       CreateThread               000000014004dbda f   kernel32:KERNEL32.dll
 0001:0004cbe0       GetCurrentThread           000000014004dbe0 f   kernel32:KERNEL32.dll
 0001:0004cbe6       GetCurrentThreadId         000000014004dbe6 f   kernel32:KERNEL32.dll
 0001:0004cbec       SetThreadPriority          000000014004dbec f   kernel32:KERNEL32.dll
 0001:0004cbf2       GetThreadPriority          000000014004dbf2 f   kernel32:KERNEL32.dll
 0001:0004cbf8       ResumeThread               000000014004dbf8 f   kernel32:KERNEL32.dll
 0001:0004cbfe       TlsAlloc                   000000014004dbfe f   kernel32:KERNEL32.dll
 0001:0004cc04       TlsGetValue                000000014004dc04 f   kernel32:KERNEL32.dll
 0001:0004cc0a       TlsSetValue                000000014004dc0a f   kernel32:KERNEL32.dll
 0001:0004cc10       TlsFree                    000000014004dc10 f   kernel32:KERNEL32.dll
 0001:0004cc16       PulseEvent                 000000014004dc16 f   kernel32:KERNEL32.dll
 0001:0004cc1c       CreateSemaphoreA           000000014004dc1c f   kernel32:KERNEL32.dll
 0001:0004cc22       GetConsoleScreenBufferInfo 000000014004dc22 f   kernel32:KERNEL32.dll
 0001:0004cc28       SetConsoleTextAttribute    000000014004dc28 f   kernel32:KERNEL32.dll
 0001:0004cc2e       CreateFileA                000000014004dc2e f   kernel32:KERNEL32.dll
 0001:0004cc34       DeleteFileA                000000014004dc34 f   kernel32:KERNEL32.dll
 0001:0004cc3a       FileTimeToLocalFileTime    000000014004dc3a f   kernel32:KERNEL32.dll
 0001:0004cc40       GetFileSize                000000014004dc40 f   kernel32:KERNEL32.dll
 0001:0004cc46       GetFileTime                000000014004dc46 f   kernel32:KERNEL32.dll
 0001:0004cc4c       MoveFileExA                000000014004dc4c f   kernel32:KERNEL32.dll
 0001:0004cc52       FileTimeToSystemTime       000000014004dc52 f   kernel32:KERNEL32.dll
 0001:0004cc58       FlushFileBuffers           000000014004dc58 f   kernel32:KERNEL32.dll
 0001:0004cc5e       ReadFile                   000000014004dc5e f   kernel32:KERNEL32.dll
 0001:0004cc64       SetFilePointer             000000014004dc64 f   kernel32:KERNEL32.dll
 0001:0004cc6a       WriteFile                  000000014004dc6a f   kernel32:KERNEL32.dll
 0001:0004cc70       QueryPerformanceCounter    000000014004dc70 f   kernel32:KERNEL32.dll
 0001:0004cc76       QueryPerformanceFrequency  000000014004dc76 f   kernel32:KERNEL32.dll
 0001:0004cc7c       GetLocalTime               000000014004dc7c f   kernel32:KERNEL32.dll
 0001:0004cc82       SystemTimeToFileTime       000000014004dc82 f   kernel32:KERNEL32.dll
 0001:0004cc88       SetLastError               000000014004dc88 f   kernel32:KERNEL32.dll
 0001:0004cc8e       FormatMessageA             000000014004dc8e f   kernel32:KERNEL32.dll
 0001:0004cc94       FreeLibrary                000000014004dc94 f   kernel32:KERNEL32.dll
 0001:0004cc9a       GetProcAddress             000000014004dc9a f   kernel32:KERNEL32.dll
 0001:0004cca0       LoadLibraryA               000000014004dca0 f   kernel32:KERNEL32.dll
 0001:0004cca6       RtlCaptureContext          000000014004dca6 f   kernel32:KERNEL32.dll
 0001:0004ccac       RtlLookupFunctionEntry     000000014004dcac f   kernel32:KERNEL32.dll
 0001:0004ccb2       RtlVirtualUnwind           000000014004dcb2 f   kernel32:KERNEL32.dll
 0001:0004ccb8       UnhandledExceptionFilter   000000014004dcb8 f   kernel32:KERNEL32.dll
 0001:0004ccbe       SetUnhandledExceptionFilter 000000014004dcbe f   kernel32:KERNEL32.dll
 0001:0004ccc4       GetCurrentProcess          000000014004dcc4 f   kernel32:KERNEL32.dll
 0001:0004ccca       TerminateProcess           000000014004dcca f   kernel32:KERNEL32.dll
 0001:0004ccd0       IsProcessorFeaturePresent  000000014004dcd0 f   kernel32:KERNEL32.dll
 0001:0004ccd6       GetSystemTimeAsFileTime    000000014004dcd6 f   kernel32:KERNEL32.dll
 0001:0004ccdc       InitializeSListHead        000000014004dcdc f   kernel32:KERNEL32.dll
 0001:0004cce2       IsDebuggerPresent          000000014004dce2 f   kernel32:KERNEL32.dll
 0001:0004cce8       GetStartupInfoW            000000014004dce8 f   kernel32:KERNEL32.dll
 0001:0004ccee       GetModuleHandleW           000000014004dcee f   kernel32:KERNEL32.dll
 0001:0004ccf4       memcpy                     000000014004dcf4 f   vcruntimed:VCRUNTIME140D.dll
 0001:0004ccfa       memset                     000000014004dcfa f   vcruntimed:VCRUNTIME140D.dll
 0001:0004cd00       memmove                    000000014004dd00 f   vcruntimed:VCRUNTIME140D.dll
 0001:0004cd06       memchr                     000000014004dd06 f   vcruntimed:VCRUNTIME140D.dll
 0001:0004cd0c       strchr                     000000014004dd0c f   vcruntimed:VCRUNTIME140D.dll
 0001:0004cd12       memcmp                     000000014004dd12 f   vcruntimed:VCRUNTIME140D.dll
 0001:0004cd18       longjmp                    000000014004dd18 f   vcruntimed:VCRUNTIME140D.dll
 0001:0004cd1e       __C_specific_handler       000000014004dd1e f   vcruntimed:VCRUNTIME140D.dll
 0001:0004cd24       __intrinsic_setjmp         000000014004dd24 f   vcruntimed:VCRUNTIME140D.dll
 0001:0004cd24       _setjmp                    000000014004dd24 f   vcruntimed:VCRUNTIME140D.dll
 0001:0004cd2a       __std_type_info_destroy_list 000000014004dd2a f   vcruntimed:VCRUNTIME140D.dll
 0001:0004cd30       __current_exception        000000014004dd30 f   vcruntimed:VCRUNTIME140D.dll
 0001:0004cd36       __current_exception_context 000000014004dd36 f   vcruntimed:VCRUNTIME140D.dll
 0001:0004cd3c       __acrt_iob_func            000000014004dd3c f   ucrtd:ucrtbased.dll
 0001:0004cd42       puts                       000000014004dd42 f   ucrtd:ucrtbased.dll
 0001:0004cd48       __stdio_common_vfprintf    000000014004dd48 f   ucrtd:ucrtbased.dll
 0001:0004cd4e       abs                        000000014004dd4e f   ucrtd:ucrtbased.dll
 0001:0004cd54       _wassert                   000000014004dd54 f   ucrtd:ucrtbased.dll
 0001:0004cd5a       strlen                     000000014004dd5a f   ucrtd:ucrtbased.dll
 0001:0004cd60       __stdio_common_vsprintf    000000014004dd60 f   ucrtd:ucrtbased.dll
 0001:0004cd66       strncpy                    000000014004dd66 f   ucrtd:ucrtbased.dll
 0001:0004cd6c       isdigit                    000000014004dd6c f   ucrtd:ucrtbased.dll
 0001:0004cd72       _stricmp                   000000014004dd72 f   ucrtd:ucrtbased.dll
 0001:0004cd78       isxdigit                   000000014004dd78 f   ucrtd:ucrtbased.dll
 0001:0004cd7e       strncmp                    000000014004dd7e f   ucrtd:ucrtbased.dll
 0001:0004cd84       _strnicmp                  000000014004dd84 f   ucrtd:ucrtbased.dll
 0001:0004cd8a       strcpy                     000000014004dd8a f   ucrtd:ucrtbased.dll
 0001:0004cd90       free                       000000014004dd90 f   ucrtd:ucrtbased.dll
 0001:0004cd96       malloc                     000000014004dd96 f   ucrtd:ucrtbased.dll
 0001:0004cd9c       isspace                    000000014004dd9c f   ucrtd:ucrtbased.dll
 0001:0004cda2       srand                      000000014004dda2 f   ucrtd:ucrtbased.dll
 0001:0004cda8       rand                       000000014004dda8 f   ucrtd:ucrtbased.dll
 0001:0004cdae       fmod                       000000014004ddae f   ucrtd:ucrtbased.dll
 0001:0004cdb4       __stdio_common_vsscanf     000000014004ddb4 f   ucrtd:ucrtbased.dll
 0001:0004cdba       clock                      000000014004ddba f   ucrtd:ucrtbased.dll
 0001:0004cdc0       exit                       000000014004ddc0 f   ucrtd:ucrtbased.dll
 0001:0004cdc6       _seh_filter_exe            000000014004ddc6 f   ucrtd:ucrtbased.dll
 0001:0004cdcc       _set_app_type              000000014004ddcc f   ucrtd:ucrtbased.dll
 0001:0004cdd2       __setusermatherr           000000014004ddd2 f   ucrtd:ucrtbased.dll
 0001:0004cdd8       _configure_narrow_argv     000000014004ddd8 f   ucrtd:ucrtbased.dll
 0001:0004cdde       _initialize_narrow_environment 000000014004ddde f   ucrtd:ucrtbased.dll
 0001:0004cde4       _get_initial_narrow_environment 000000014004dde4 f   ucrtd:ucrtbased.dll
 0001:0004cdea       _initterm                  000000014004ddea f   ucrtd:ucrtbased.dll
 0001:0004cdf0       _initterm_e                000000014004ddf0 f   ucrtd:ucrtbased.dll
 0001:0004cdf6       _exit                      000000014004ddf6 f   ucrtd:ucrtbased.dll
 0001:0004cdfc       _set_fmode                 000000014004ddfc f   ucrtd:ucrtbased.dll
 0001:0004ce02       __p___argc                 000000014004de02 f   ucrtd:ucrtbased.dll
 0001:0004ce08       __p___argv                 000000014004de08 f   ucrtd:ucrtbased.dll
 0001:0004ce0e       _cexit                     000000014004de0e f   ucrtd:ucrtbased.dll
 0001:0004ce14       _c_exit                    000000014004de14 f   ucrtd:ucrtbased.dll
 0001:0004ce1a       _register_thread_local_exe_atexit_callback 000000014004de1a f   ucrtd:ucrtbased.dll
 0001:0004ce20       _configthreadlocale        000000014004de20 f   ucrtd:ucrtbased.dll
 0001:0004ce26       _set_new_mode              000000014004de26 f   ucrtd:ucrtbased.dll
 0001:0004ce2c       __p__commode               000000014004de2c f   ucrtd:ucrtbased.dll
 0001:0004ce32       _seh_filter_dll            000000014004de32 f   ucrtd:ucrtbased.dll
 0001:0004ce38       _initialize_onexit_table   000000014004de38 f   ucrtd:ucrtbased.dll
 0001:0004ce3e       _register_onexit_function  000000014004de3e f   ucrtd:ucrtbased.dll
 0001:0004ce44       _execute_onexit_table      000000014004de44 f   ucrtd:ucrtbased.dll
 0001:0004ce4a       _crt_atexit                000000014004de4a f   ucrtd:ucrtbased.dll
 0001:0004ce50       _crt_at_quick_exit         000000014004de50 f   ucrtd:ucrtbased.dll
 0001:0004ce56       terminate                  000000014004de56 f   ucrtd:ucrtbased.dll
 0001:0004ce60       __vcrt_initialize          000000014004de60 f   MSVCRTD:ucrt_stubs.obj
 0001:0004ce60       __acrt_initialize          000000014004de60 f   MSVCRTD:ucrt_stubs.obj
 0001:0004ce60       __scrt_stub_for_acrt_initialize 000000014004de60 f   MSVCRTD:ucrt_stubs.obj
 0001:0004ce70       __scrt_stub_for_acrt_thread_attach 000000014004de70 f   MSVCRTD:ucrt_stubs.obj
 0001:0004ce70       __acrt_thread_attach       000000014004de70 f   MSVCRTD:ucrt_stubs.obj
 0001:0004ce70       __vcrt_thread_attach       000000014004de70 f   MSVCRTD:ucrt_stubs.obj
 0001:0004ce80       __scrt_stub_for_acrt_thread_detach 000000014004de80 f   MSVCRTD:ucrt_stubs.obj
 0001:0004ce80       __acrt_thread_detach       000000014004de80 f   MSVCRTD:ucrt_stubs.obj
 0001:0004ce80       __vcrt_thread_detach       000000014004de80 f   MSVCRTD:ucrt_stubs.obj
 0001:0004ce90       __vcrt_uninitialize        000000014004de90 f   MSVCRTD:ucrt_stubs.obj
 0001:0004ce90       __scrt_stub_for_acrt_uninitialize 000000014004de90 f   MSVCRTD:ucrt_stubs.obj
 0001:0004ce90       __acrt_uninitialize        000000014004de90 f   MSVCRTD:ucrt_stubs.obj
 0001:0004cea0       __vcrt_uninitialize_critical 000000014004dea0 f   MSVCRTD:ucrt_stubs.obj
 0001:0004cea0       __scrt_stub_for_acrt_uninitialize_critical 000000014004dea0 f   MSVCRTD:ucrt_stubs.obj
 0001:0004cea0       __acrt_uninitialize_critical 000000014004dea0 f   MSVCRTD:ucrt_stubs.obj
 0001:0004ceb0       _is_c_termination_complete 000000014004deb0 f   MSVCRTD:ucrt_stubs.obj
 0001:0004ceb0       __scrt_stub_for_is_c_termination_complete 000000014004deb0 f   MSVCRTD:ucrt_stubs.obj
 0001:0004e880       _guard_dispatch_icall_nop  000000014004f880 f   MSVCRTD:guard_dispatch.obj
 0001:0004e8a0       _guard_xfg_dispatch_icall_nop 000000014004f8a0 f   MSVCRTD:guard_xfg_dispatch.obj
 0002:00000000       __xc_a                     0000000140052000     MSVCRTD:initializers.obj
 0002:00000220       __xc_z                     0000000140052220     MSVCRTD:initializers.obj
 0002:00000330       __xi_a                     0000000140052330     MSVCRTD:initializers.obj
 0002:00000660       __xi_z                     0000000140052660     MSVCRTD:initializers.obj
 0002:00000770       __xp_a                     0000000140052770     MSVCRTD:initializers.obj
 0002:00000880       __xp_z                     0000000140052880     MSVCRTD:initializers.obj
 0002:00000990       __xt_a                     0000000140052990     MSVCRTD:initializers.obj
 0002:00000aa0       __xt_z                     0000000140052aa0     MSVCRTD:initializers.obj
 0002:000013f0       pjmedia_linear2ulaw_tab    00000001400533f0     pjmedia-x86_64-x64-vc14-debug-dynamic:alaw_ulaw_table.obj
 0002:000053f0       pjmedia_linear2alaw_tab    00000001400573f0     pjmedia-x86_64-x64-vc14-debug-dynamic:alaw_ulaw_table.obj
 0002:000093f0       pjmedia_ulaw2linear_tab    000000014005b3f0     pjmedia-x86_64-x64-vc14-debug-dynamic:alaw_ulaw_table.obj
 0002:000095f0       pjmedia_alaw2linear_tab    000000014005b5f0     pjmedia-x86_64-x64-vc14-debug-dynamic:alaw_ulaw_table.obj
 0002:0000b4ec       __real@00000000            000000014005d4ec     pjlib-x86_64-x64-vc14-debug-dynamic:string.obj
 0002:0000b4f0       __real@3f800000            000000014005d4f0     pjlib-x86_64-x64-vc14-debug-dynamic:string.obj
 0002:0000b4f4       __real@41200000            000000014005d4f4     pjlib-x86_64-x64-vc14-debug-dynamic:string.obj
 0002:0000b4f8       PJ_AF_UNSPEC               000000014005d4f8     pjlib-x86_64-x64-vc14-debug-dynamic:sock_bsd.obj
 0002:0000b4fc       PJ_AF_UNIX                 000000014005d4fc     pjlib-x86_64-x64-vc14-debug-dynamic:sock_bsd.obj
 0002:0000b500       PJ_AF_INET                 000000014005d500     pjlib-x86_64-x64-vc14-debug-dynamic:sock_bsd.obj
 0002:0000b504       PJ_AF_INET6                000000014005d504     pjlib-x86_64-x64-vc14-debug-dynamic:sock_bsd.obj
 0002:0000b508       PJ_AF_PACKET               000000014005d508     pjlib-x86_64-x64-vc14-debug-dynamic:sock_bsd.obj
 0002:0000b50c       PJ_AF_IRDA                 000000014005d50c     pjlib-x86_64-x64-vc14-debug-dynamic:sock_bsd.obj
 0002:0000b510       PJ_SOCK_STREAM             000000014005d510     pjlib-x86_64-x64-vc14-debug-dynamic:sock_bsd.obj
 0002:0000b514       PJ_SOCK_DGRAM              000000014005d514     pjlib-x86_64-x64-vc14-debug-dynamic:sock_bsd.obj
 0002:0000b518       PJ_SOCK_RAW                000000014005d518     pjlib-x86_64-x64-vc14-debug-dynamic:sock_bsd.obj
 0002:0000b51c       PJ_SOCK_RDM                000000014005d51c     pjlib-x86_64-x64-vc14-debug-dynamic:sock_bsd.obj
 0002:0000b520       PJ_SOL_SOCKET              000000014005d520     pjlib-x86_64-x64-vc14-debug-dynamic:sock_bsd.obj
 0002:0000b524       PJ_SOL_IP                  000000014005d524     pjlib-x86_64-x64-vc14-debug-dynamic:sock_bsd.obj
 0002:0000b528       PJ_SOL_TCP                 000000014005d528     pjlib-x86_64-x64-vc14-debug-dynamic:sock_bsd.obj
 0002:0000b52c       PJ_SOL_UDP                 000000014005d52c     pjlib-x86_64-x64-vc14-debug-dynamic:sock_bsd.obj
 0002:0000b530       PJ_SOL_IPV6                000000014005d530     pjlib-x86_64-x64-vc14-debug-dynamic:sock_bsd.obj
 0002:0000b534       PJ_IP_TOS                  000000014005d534     pjlib-x86_64-x64-vc14-debug-dynamic:sock_bsd.obj
 0002:0000b538       PJ_IPTOS_LOWDELAY          000000014005d538     pjlib-x86_64-x64-vc14-debug-dynamic:sock_bsd.obj
 0002:0000b53c       PJ_IPTOS_THROUGHPUT        000000014005d53c     pjlib-x86_64-x64-vc14-debug-dynamic:sock_bsd.obj
 0002:0000b540       PJ_IPTOS_RELIABILITY       000000014005d540     pjlib-x86_64-x64-vc14-debug-dynamic:sock_bsd.obj
 0002:0000b544       PJ_IPTOS_MINCOST           000000014005d544     pjlib-x86_64-x64-vc14-debug-dynamic:sock_bsd.obj
 0002:0000b548       PJ_IPV6_TCLASS             000000014005d548     pjlib-x86_64-x64-vc14-debug-dynamic:sock_bsd.obj
 0002:0000b54c       PJ_SO_TYPE                 000000014005d54c     pjlib-x86_64-x64-vc14-debug-dynamic:sock_bsd.obj
 0002:0000b550       PJ_SO_RCVBUF               000000014005d550     pjlib-x86_64-x64-vc14-debug-dynamic:sock_bsd.obj
 0002:0000b554       PJ_SO_SNDBUF               000000014005d554     pjlib-x86_64-x64-vc14-debug-dynamic:sock_bsd.obj
 0002:0000b558       PJ_TCP_NODELAY             000000014005d558     pjlib-x86_64-x64-vc14-debug-dynamic:sock_bsd.obj
 0002:0000b55c       PJ_SO_REUSEADDR            000000014005d55c     pjlib-x86_64-x64-vc14-debug-dynamic:sock_bsd.obj
 0002:0000b560       PJ_SO_NOSIGPIPE            000000014005d560     pjlib-x86_64-x64-vc14-debug-dynamic:sock_bsd.obj
 0002:0000b564       PJ_SO_PRIORITY             000000014005d564     pjlib-x86_64-x64-vc14-debug-dynamic:sock_bsd.obj
 0002:0000b568       PJ_IP_MULTICAST_IF         000000014005d568     pjlib-x86_64-x64-vc14-debug-dynamic:sock_bsd.obj
 0002:0000b56c       PJ_IP_MULTICAST_TTL        000000014005d56c     pjlib-x86_64-x64-vc14-debug-dynamic:sock_bsd.obj
 0002:0000b570       PJ_IP_MULTICAST_LOOP       000000014005d570     pjlib-x86_64-x64-vc14-debug-dynamic:sock_bsd.obj
 0002:0000b574       PJ_IP_ADD_MEMBERSHIP       000000014005d574     pjlib-x86_64-x64-vc14-debug-dynamic:sock_bsd.obj
 0002:0000b578       PJ_IP_DROP_MEMBERSHIP      000000014005d578     pjlib-x86_64-x64-vc14-debug-dynamic:sock_bsd.obj
 0002:0000b57c       PJ_MSG_OOB                 000000014005d57c     pjlib-x86_64-x64-vc14-debug-dynamic:sock_bsd.obj
 0002:0000b580       PJ_MSG_PEEK                000000014005d580     pjlib-x86_64-x64-vc14-debug-dynamic:sock_bsd.obj
 0002:0000b584       PJ_MSG_DONTROUTE           000000014005d584     pjlib-x86_64-x64-vc14-debug-dynamic:sock_bsd.obj
 0002:0000b5a4       PJ_GUID_STRING_LENGTH      000000014005d5a4     pjlib-x86_64-x64-vc14-debug-dynamic:guid_win32.obj
 0002:0000b970       __real@0000000000000000    000000014005d970     pjlib-x86_64-x64-vc14-debug-dynamic:os_timestamp_common.obj
 0002:0000b980       __real@3ff0000000000000    000000014005d980     pjlib-x86_64-x64-vc14-debug-dynamic:os_timestamp_common.obj
 0002:0000b990       __real@408f400000000000    000000014005d990     pjlib-x86_64-x64-vc14-debug-dynamic:os_timestamp_common.obj
 0002:0000b9a0       __real@412e848000000000    000000014005d9a0     pjlib-x86_64-x64-vc14-debug-dynamic:os_timestamp_common.obj
 0002:0000b9b0       __real@41cdcd6500000000    000000014005d9b0     pjlib-x86_64-x64-vc14-debug-dynamic:os_timestamp_common.obj
 0002:0000b9c0       __real@43e0000000000000    000000014005d9c0     pjlib-x86_64-x64-vc14-debug-dynamic:os_timestamp_common.obj
 0002:0000b9d0       __real@3f6a36e2eb1c432d    000000014005d9d0     libsrtp-x86_64-x64-vc14-debug-dynamic:stat.obj
 0002:0000b9e0       __real@400147ae147ae148    000000014005d9e0     libsrtp-x86_64-x64-vc14-debug-dynamic:stat.obj
 0002:0000b9f0       __real@404715c28f5c28f6    000000014005d9f0     libsrtp-x86_64-x64-vc14-debug-dynamic:stat.obj
 0002:0000ba00       __real@40b3880000000000    000000014005da00     libsrtp-x86_64-x64-vc14-debug-dynamic:stat.obj
 0002:0000ba80       srtp_null_cipher           000000014005da80     libsrtp-x86_64-x64-vc14-debug-dynamic:null_cipher.obj
 0002:0000bb00       srtp_aes_icm_128           000000014005db00     libsrtp-x86_64-x64-vc14-debug-dynamic:aes_icm.obj
 0002:0000bb60       srtp_aes_icm_256           000000014005db60     libsrtp-x86_64-x64-vc14-debug-dynamic:aes_icm.obj
 0002:0000be70       srtp_null_auth             000000014005de70     libsrtp-x86_64-x64-vc14-debug-dynamic:null_auth.obj
 0002:0000bf80       srtp_hmac                  000000014005df80     libsrtp-x86_64-x64-vc14-debug-dynamic:hmac.obj
 0002:0000e920       _load_config_used          0000000140060920     MSVCRTD:loadcfg.obj
 0002:0000ec00       __CastGuardVftablesStart   0000000140060c00     MSVCRTD:guard_support.obj
 0002:0000ed10       __CastGuardVftablesEnd     0000000140060d10     MSVCRTD:guard_support.obj
 0002:0000f018       __rtc_iaa                  0000000140061018     MSVCRTD:initsect.obj
 0002:0000f128       __rtc_izz                  0000000140061128     MSVCRTD:initsect.obj
 0002:0000f238       __rtc_taa                  0000000140061238     MSVCRTD:initsect.obj
 0002:0000f348       __rtc_tzz                  0000000140061348     MSVCRTD:initsect.obj
 0003:0000c33c       pjmedia_add_rtpmap_for_static_pt 000000014007033c     pjmedia-x86_64-x64-vc14-debug-dynamic:endpoint.obj
 0003:0000c35c       pjmedia_add_bandwidth_tias_in_sdp 000000014007035c     pjmedia-x86_64-x64-vc14-debug-dynamic:endpoint.obj
 0003:00018680       pj_pool_factory_default_policy 000000014007c680     pjlib-x86_64-x64-vc14-debug-dynamic:pool_policy_malloc.obj
 0003:00022dc8       PJ_VERSION                 0000000140086dc8     pjlib-x86_64-x64-vc14-debug-dynamic:config.obj
 0003:00025070       mod_srtp                   0000000140089070     libsrtp-x86_64-x64-vc14-debug-dynamic:srtp.obj
 0003:00025950       mod_alloc                  0000000140089950     libsrtp-x86_64-x64-vc14-debug-dynamic:alloc.obj
 0003:000259f0       octet_weight               00000001400899f0     libsrtp-x86_64-x64-vc14-debug-dynamic:datatypes.obj
 0003:00025ed0       srtp_mod_cipher            0000000140089ed0     libsrtp-x86_64-x64-vc14-debug-dynamic:cipher.obj
 0003:00026208       srtp_mod_auth              000000014008a208     libsrtp-x86_64-x64-vc14-debug-dynamic:auth.obj
 0003:00026318       srtp_mod_crypto_kernel     000000014008a318     libsrtp-x86_64-x64-vc14-debug-dynamic:crypto_kernel.obj
 0003:00026570       mod_stat                   000000014008a570     libsrtp-x86_64-x64-vc14-debug-dynamic:stat.obj
 0003:000266e8       srtp_mod_aes_icm           000000014008a6e8     libsrtp-x86_64-x64-vc14-debug-dynamic:aes_icm.obj
 0003:00026868       srtp_mod_hmac              000000014008a868     libsrtp-x86_64-x64-vc14-debug-dynamic:hmac.obj
 0003:00026968       srtp_mod_sha1              000000014008a968     libsrtp-x86_64-x64-vc14-debug-dynamic:sha1.obj
 0003:00026980       SHA_K0                     000000014008a980     libsrtp-x86_64-x64-vc14-debug-dynamic:sha1.obj
 0003:00026984       SHA_K1                     000000014008a984     libsrtp-x86_64-x64-vc14-debug-dynamic:sha1.obj
 0003:00026988       SHA_K2                     000000014008a988     libsrtp-x86_64-x64-vc14-debug-dynamic:sha1.obj
 0003:0002698c       SHA_K3                     000000014008a98c     libsrtp-x86_64-x64-vc14-debug-dynamic:sha1.obj
 0003:00026a70       __security_cookie_complement 000000014008aa70     MSVCRTD:gs_cookie.obj
 0003:00026a78       __security_cookie          000000014008aa78     MSVCRTD:gs_cookie.obj
 0003:00026a90       _fltused                   000000014008aa90     MSVCRTD:fltused.obj
 0003:00026a94       __scrt_native_dllmain_reason 000000014008aa94     MSVCRTD:utility.obj
 0003:00026a98       __scrt_default_matherr     000000014008aa98     MSVCRTD:matherr.obj
 0003:00026aa0       __isa_available            000000014008aaa0     MSVCRTD:cpu_disp.obj
 0003:00026aa4       __isa_enabled              000000014008aaa4     MSVCRTD:cpu_disp.obj
 0003:00026aa8       __memcpy_nt_iters          000000014008aaa8     MSVCRTD:cpu_disp.obj
 0003:00026ab0       __memset_nt_iters          000000014008aab0     MSVCRTD:cpu_disp.obj
 0003:00026ac0       __scrt_ucrt_dll_is_in_use  000000014008aac0     MSVCRTD:ucrt_stubs.obj
 0003:000280a4       err_level                  000000014008c0a4     libsrtp-x86_64-x64-vc14-debug-dynamic:srtp_err.obj
 0003:000280a8       crypto_kernel              000000014008c0a8     libsrtp-x86_64-x64-vc14-debug-dynamic:crypto_kernel.obj
 0003:00028788       __scrt_current_native_startup_state 000000014008c788     MSVCRTD:utility.obj
 0003:00028790       __scrt_native_startup_lock 000000014008c790     MSVCRTD:utility.obj
 0003:000287e0       ?__type_info_root_node@@3U__type_info_node@@A 000000014008c7e0     MSVCRTD:tncleanup.obj
 0003:000287f8       ?_OptionsStorage@?1??__local_stdio_printf_options@@9@4_KA 000000014008c7f8     MSVCRTD:default_local_stdio_options.obj
 0003:00028808       ?_OptionsStorage@?1??__local_stdio_scanf_options@@9@4_KA 000000014008c808     MSVCRTD:default_local_stdio_options.obj
 0003:00028814       __scrt_debugger_hook_flag  000000014008c814     MSVCRTD:utility_desktop.obj
 0003:00028818       __castguard_check_failure_os_handled_fptr 000000014008c818     MSVCRTD:guard_support.obj
 0003:00028824       __favor                    000000014008c824     MSVCRTD:cpu_disp.obj
 0003:00028828       ?_OptionsStorage@?1??__local_stdio_printf_options@@9@9 000000014008c828     <common>
 0003:0002883c       PJ_NO_MEMORY_EXCEPTION     000000014008c83c     <common>
 0003:00028860       bit_string                 000000014008c860     <common>
 0003:00028d38       ?_OptionsStorage@?1??__local_stdio_scanf_options@@9@9 000000014008cd38     <common>
 0003:00028d50       __dyn_tls_dtor_callback    000000014008cd50     <common>
 0003:00028d68       __dyn_tls_init_callback    000000014008cd68     <common>
 0005:00000000       __imp_SetLastError         0000000140090000     kernel32:KERNEL32.dll
 0005:00000008       __imp_GetModuleHandleW     0000000140090008     kernel32:KERNEL32.dll
 0005:00000010       __imp_GetStartupInfoW      0000000140090010     kernel32:KERNEL32.dll
 0005:00000018       __imp_IsDebuggerPresent    0000000140090018     kernel32:KERNEL32.dll
 0005:00000020       __imp_InitializeSListHead  0000000140090020     kernel32:KERNEL32.dll
 0005:00000028       __imp_GetSystemTimeAsFileTime 0000000140090028     kernel32:KERNEL32.dll
 0005:00000030       __imp_IsProcessorFeaturePresent 0000000140090030     kernel32:KERNEL32.dll
 0005:00000038       __imp_TerminateProcess     0000000140090038     kernel32:KERNEL32.dll
 0005:00000040       __imp_GetCurrentProcess    0000000140090040     kernel32:KERNEL32.dll
 0005:00000048       __imp_SetUnhandledExceptionFilter 0000000140090048     kernel32:KERNEL32.dll
 0005:00000050       __imp_UnhandledExceptionFilter 0000000140090050     kernel32:KERNEL32.dll
 0005:00000058       __imp_RtlVirtualUnwind     0000000140090058     kernel32:KERNEL32.dll
 0005:00000060       __imp_RtlLookupFunctionEntry 0000000140090060     kernel32:KERNEL32.dll
 0005:00000068       __imp_RtlCaptureContext    0000000140090068     kernel32:KERNEL32.dll
 0005:00000070       __imp_LoadLibraryA         0000000140090070     kernel32:KERNEL32.dll
 0005:00000078       __imp_GetProcAddress       0000000140090078     kernel32:KERNEL32.dll
 0005:00000080       __imp_FreeLibrary          0000000140090080     kernel32:KERNEL32.dll
 0005:00000088       __imp_FormatMessageA       0000000140090088     kernel32:KERNEL32.dll
 0005:00000090       __imp_SystemTimeToFileTime 0000000140090090     kernel32:KERNEL32.dll
 0005:00000098       __imp_GetLocalTime         0000000140090098     kernel32:KERNEL32.dll
 0005:000000a0       __imp_QueryPerformanceFrequency 00000001400900a0     kernel32:KERNEL32.dll
 0005:000000a8       __imp_QueryPerformanceCounter 00000001400900a8     kernel32:KERNEL32.dll
 0005:000000b0       __imp_WriteFile            00000001400900b0     kernel32:KERNEL32.dll
 0005:000000b8       __imp_SetFilePointer       00000001400900b8     kernel32:KERNEL32.dll
 0005:000000c0       __imp_ReadFile             00000001400900c0     kernel32:KERNEL32.dll
 0005:000000c8       __imp_FlushFileBuffers     00000001400900c8     kernel32:KERNEL32.dll
 0005:000000d0       __imp_FileTimeToSystemTime 00000001400900d0     kernel32:KERNEL32.dll
 0005:000000d8       __imp_MoveFileExA          00000001400900d8     kernel32:KERNEL32.dll
 0005:000000e0       __imp_GetFileTime          00000001400900e0     kernel32:KERNEL32.dll
 0005:000000e8       __imp_GetFileSize          00000001400900e8     kernel32:KERNEL32.dll
 0005:000000f0       __imp_FileTimeToLocalFileTime 00000001400900f0     kernel32:KERNEL32.dll
 0005:000000f8       __imp_DeleteFileA          00000001400900f8     kernel32:KERNEL32.dll
 0005:00000100       __imp_CreateFileA          0000000140090100     kernel32:KERNEL32.dll
 0005:00000108       __imp_SetConsoleTextAttribute 0000000140090108     kernel32:KERNEL32.dll
 0005:00000110       __imp_GetConsoleScreenBufferInfo 0000000140090110     kernel32:KERNEL32.dll
 0005:00000118       __imp_CreateSemaphoreA     0000000140090118     kernel32:KERNEL32.dll
 0005:00000120       __imp_GetStdHandle         0000000140090120     kernel32:KERNEL32.dll
 0005:00000128       __imp_CloseHandle          0000000140090128     kernel32:KERNEL32.dll
 0005:00000130       __imp_GetLastError         0000000140090130     kernel32:KERNEL32.dll
 0005:00000138       __imp_InitializeCriticalSection 0000000140090138     kernel32:KERNEL32.dll
 0005:00000140       __imp_EnterCriticalSection 0000000140090140     kernel32:KERNEL32.dll
 0005:00000148       __imp_LeaveCriticalSection 0000000140090148     kernel32:KERNEL32.dll
 0005:00000150       __imp_TryEnterCriticalSection 0000000140090150     kernel32:KERNEL32.dll
 0005:00000158       __imp_DeleteCriticalSection 0000000140090158     kernel32:KERNEL32.dll
 0005:00000160       __imp_SetEvent             0000000140090160     kernel32:KERNEL32.dll
 0005:00000168       __imp_ResetEvent           0000000140090168     kernel32:KERNEL32.dll
 0005:00000170       __imp_ReleaseSemaphore     0000000140090170     kernel32:KERNEL32.dll
 0005:00000178       __imp_WaitForSingleObject  0000000140090178     kernel32:KERNEL32.dll
 0005:00000180       __imp_CreateEventA         0000000140090180     kernel32:KERNEL32.dll
 0005:00000188       __imp_Sleep                0000000140090188     kernel32:KERNEL32.dll
 0005:00000190       __imp_GetCurrentProcessId  0000000140090190     kernel32:KERNEL32.dll
 0005:00000198       __imp_CreateThread         0000000140090198     kernel32:KERNEL32.dll
 0005:000001a0       __imp_GetCurrentThread     00000001400901a0     kernel32:KERNEL32.dll
 0005:000001a8       __imp_GetCurrentThreadId   00000001400901a8     kernel32:KERNEL32.dll
 0005:000001b0       __imp_SetThreadPriority    00000001400901b0     kernel32:KERNEL32.dll
 0005:000001b8       __imp_GetThreadPriority    00000001400901b8     kernel32:KERNEL32.dll
 0005:000001c0       __imp_ResumeThread         00000001400901c0     kernel32:KERNEL32.dll
 0005:000001c8       __imp_TlsAlloc             00000001400901c8     kernel32:KERNEL32.dll
 0005:000001d0       __imp_TlsGetValue          00000001400901d0     kernel32:KERNEL32.dll
 0005:000001d8       __imp_TlsSetValue          00000001400901d8     kernel32:KERNEL32.dll
 0005:000001e0       __imp_TlsFree              00000001400901e0     kernel32:KERNEL32.dll
 0005:000001e8       __imp_PulseEvent           00000001400901e8     kernel32:KERNEL32.dll
 0005:000001f0       \177KERNEL32_NULL_THUNK_DATA 00000001400901f0     kernel32:KERNEL32.dll
 0005:000002a8       __imp___intrinsic_setjmp   00000001400902a8     vcruntimed:VCRUNTIME140D.dll
 0005:000002b0       __imp___C_specific_handler 00000001400902b0     vcruntimed:VCRUNTIME140D.dll
 0005:000002b8       __imp_longjmp              00000001400902b8     vcruntimed:VCRUNTIME140D.dll
 0005:000002c0       __imp_memcmp               00000001400902c0     vcruntimed:VCRUNTIME140D.dll
 0005:000002c8       __imp_strchr               00000001400902c8     vcruntimed:VCRUNTIME140D.dll
 0005:000002d0       __imp_memchr               00000001400902d0     vcruntimed:VCRUNTIME140D.dll
 0005:000002d8       __imp_memmove              00000001400902d8     vcruntimed:VCRUNTIME140D.dll
 0005:000002e0       __imp_memset               00000001400902e0     vcruntimed:VCRUNTIME140D.dll
 0005:000002e8       __imp_memcpy               00000001400902e8     vcruntimed:VCRUNTIME140D.dll
 0005:000002f0       __imp___current_exception_context 00000001400902f0     vcruntimed:VCRUNTIME140D.dll
 0005:000002f8       __imp___std_type_info_destroy_list 00000001400902f8     vcruntimed:VCRUNTIME140D.dll
 0005:00000300       __imp___current_exception  0000000140090300     vcruntimed:VCRUNTIME140D.dll
 0005:00000308       \177VCRUNTIME140D_NULL_THUNK_DATA 0000000140090308     vcruntimed:VCRUNTIME140D.dll
 0005:00000370       __imp_send                 0000000140090370     ws2_32:WS2_32.dll
 0005:00000378       __imp_recvfrom             0000000140090378     ws2_32:WS2_32.dll
 0005:00000380       __imp_recv                 0000000140090380     ws2_32:WS2_32.dll
 0005:00000388       __imp_ntohs                0000000140090388     ws2_32:WS2_32.dll
 0005:00000390       __imp_setsockopt           0000000140090390     ws2_32:WS2_32.dll
 0005:00000398       __imp_ntohl                0000000140090398     ws2_32:WS2_32.dll
 0005:000003a0       __imp_listen               00000001400903a0     ws2_32:WS2_32.dll
 0005:000003a8       __imp_inet_ntoa            00000001400903a8     ws2_32:WS2_32.dll
 0005:000003b0       __imp_inet_addr            00000001400903b0     ws2_32:WS2_32.dll
 0005:000003b8       __imp_shutdown             00000001400903b8     ws2_32:WS2_32.dll
 0005:000003c0       __imp_htonl                00000001400903c0     ws2_32:WS2_32.dll
 0005:000003c8       __imp_getsockopt           00000001400903c8     ws2_32:WS2_32.dll
 0005:000003d0       __imp_getsockname          00000001400903d0     ws2_32:WS2_32.dll
 0005:000003d8       __imp_getpeername          00000001400903d8     ws2_32:WS2_32.dll
 0005:000003e0       __imp_connect              00000001400903e0     ws2_32:WS2_32.dll
 0005:000003e8       __imp_closesocket          00000001400903e8     ws2_32:WS2_32.dll
 0005:000003f0       __imp_bind                 00000001400903f0     ws2_32:WS2_32.dll
 0005:000003f8       __imp_accept               00000001400903f8     ws2_32:WS2_32.dll
 0005:00000400       __imp_WSAGetLastError      0000000140090400     ws2_32:WS2_32.dll
 0005:00000408       __imp_WSACleanup           0000000140090408     ws2_32:WS2_32.dll
 0005:00000410       __imp_WSAStartup           0000000140090410     ws2_32:WS2_32.dll
 0005:00000418       __imp_sendto               0000000140090418     ws2_32:WS2_32.dll
 0005:00000420       __imp_gethostname          0000000140090420     ws2_32:WS2_32.dll
 0005:00000428       __imp_WSAIoctl             0000000140090428     ws2_32:WS2_32.dll
 0005:00000430       __imp_WSASocketA           0000000140090430     ws2_32:WS2_32.dll
 0005:00000438       __imp_WSAAddressToStringA  0000000140090438     ws2_32:WS2_32.dll
 0005:00000440       __imp_WSAStringToAddressA  0000000140090440     ws2_32:WS2_32.dll
 0005:00000448       __imp_ioctlsocket          0000000140090448     ws2_32:WS2_32.dll
 0005:00000450       __imp_WSASetLastError      0000000140090450     ws2_32:WS2_32.dll
 0005:00000458       __imp_gethostbyname        0000000140090458     ws2_32:WS2_32.dll
 0005:00000460       __imp___WSAFDIsSet         0000000140090460     ws2_32:WS2_32.dll
 0005:00000468       __imp_select               0000000140090468     ws2_32:WS2_32.dll
 0005:00000470       __imp_htons                0000000140090470     ws2_32:WS2_32.dll
 0005:00000478       \177WS2_32_NULL_THUNK_DATA 0000000140090478     ws2_32:WS2_32.dll
 0005:00000500       __imp_CoCreateGuid         0000000140090500     ole32:ole32.dll
 0005:00000508       \177ole32_NULL_THUNK_DATA  0000000140090508     ole32:ole32.dll
 0005:00000560       __imp___acrt_iob_func      0000000140090560     ucrtd:ucrtbased.dll
 0005:00000568       __imp_puts                 0000000140090568     ucrtd:ucrtbased.dll
 0005:00000570       __imp___stdio_common_vfprintf 0000000140090570     ucrtd:ucrtbased.dll
 0005:00000578       __imp_abs                  0000000140090578     ucrtd:ucrtbased.dll
 0005:00000580       __imp__wassert             0000000140090580     ucrtd:ucrtbased.dll
 0005:00000588       __imp_strlen               0000000140090588     ucrtd:ucrtbased.dll
 0005:00000590       __imp___stdio_common_vsprintf 0000000140090590     ucrtd:ucrtbased.dll
 0005:00000598       __imp_strncpy              0000000140090598     ucrtd:ucrtbased.dll
 0005:000005a0       __imp_isdigit              00000001400905a0     ucrtd:ucrtbased.dll
 0005:000005a8       __imp__stricmp             00000001400905a8     ucrtd:ucrtbased.dll
 0005:000005b0       __imp_isxdigit             00000001400905b0     ucrtd:ucrtbased.dll
 0005:000005b8       __imp_strncmp              00000001400905b8     ucrtd:ucrtbased.dll
 0005:000005c0       __imp__strnicmp            00000001400905c0     ucrtd:ucrtbased.dll
 0005:000005c8       __imp_strcpy               00000001400905c8     ucrtd:ucrtbased.dll
 0005:000005d0       __imp_free                 00000001400905d0     ucrtd:ucrtbased.dll
 0005:000005d8       __imp_malloc               00000001400905d8     ucrtd:ucrtbased.dll
 0005:000005e0       __imp_isspace              00000001400905e0     ucrtd:ucrtbased.dll
 0005:000005e8       __imp_srand                00000001400905e8     ucrtd:ucrtbased.dll
 0005:000005f0       __imp_rand                 00000001400905f0     ucrtd:ucrtbased.dll
 0005:000005f8       __imp_fmod                 00000001400905f8     ucrtd:ucrtbased.dll
 0005:00000600       __imp___stdio_common_vsscanf 0000000140090600     ucrtd:ucrtbased.dll
 0005:00000608       __imp_clock                0000000140090608     ucrtd:ucrtbased.dll
 0005:00000610       __imp_exit                 0000000140090610     ucrtd:ucrtbased.dll
 0005:00000618       __imp__seh_filter_exe      0000000140090618     ucrtd:ucrtbased.dll
 0005:00000620       __imp__set_app_type        0000000140090620     ucrtd:ucrtbased.dll
 0005:00000628       __imp___setusermatherr     0000000140090628     ucrtd:ucrtbased.dll
 0005:00000630       __imp__configure_narrow_argv 0000000140090630     ucrtd:ucrtbased.dll
 0005:00000638       __imp__initialize_narrow_environment 0000000140090638     ucrtd:ucrtbased.dll
 0005:00000640       __imp__get_initial_narrow_environment 0000000140090640     ucrtd:ucrtbased.dll
 0005:00000648       __imp__initterm            0000000140090648     ucrtd:ucrtbased.dll
 0005:00000650       __imp__initterm_e          0000000140090650     ucrtd:ucrtbased.dll
 0005:00000658       __imp__exit                0000000140090658     ucrtd:ucrtbased.dll
 0005:00000660       __imp__set_fmode           0000000140090660     ucrtd:ucrtbased.dll
 0005:00000668       __imp___p___argc           0000000140090668     ucrtd:ucrtbased.dll
 0005:00000670       __imp___p___argv           0000000140090670     ucrtd:ucrtbased.dll
 0005:00000678       __imp__cexit               0000000140090678     ucrtd:ucrtbased.dll
 0005:00000680       __imp__c_exit              0000000140090680     ucrtd:ucrtbased.dll
 0005:00000688       __imp__register_thread_local_exe_atexit_callback 0000000140090688     ucrtd:ucrtbased.dll
 0005:00000690       __imp__configthreadlocale  0000000140090690     ucrtd:ucrtbased.dll
 0005:00000698       __imp__set_new_mode        0000000140090698     ucrtd:ucrtbased.dll
 0005:000006a0       __imp___p__commode         00000001400906a0     ucrtd:ucrtbased.dll
 0005:000006a8       __imp__seh_filter_dll      00000001400906a8     ucrtd:ucrtbased.dll
 0005:000006b0       __imp__initialize_onexit_table 00000001400906b0     ucrtd:ucrtbased.dll
 0005:000006b8       __imp__register_onexit_function 00000001400906b8     ucrtd:ucrtbased.dll
 0005:000006c0       __imp__execute_onexit_table 00000001400906c0     ucrtd:ucrtbased.dll
 0005:000006c8       __imp__crt_atexit          00000001400906c8     ucrtd:ucrtbased.dll
 0005:000006d0       __imp__crt_at_quick_exit   00000001400906d0     ucrtd:ucrtbased.dll
 0005:000006d8       __imp_terminate            00000001400906d8     ucrtd:ucrtbased.dll
 0005:000006e0       \177ucrtbased_NULL_THUNK_DATA 00000001400906e0     ucrtd:ucrtbased.dll
 0005:00000780       __IMPORT_DESCRIPTOR_ole32  0000000140090780     ole32:ole32.dll
 0005:00000794       __IMPORT_DESCRIPTOR_WS2_32 0000000140090794     ws2_32:WS2_32.dll
 0005:000007a8       __IMPORT_DESCRIPTOR_KERNEL32 00000001400907a8     kernel32:KERNEL32.dll
 0005:000007bc       __IMPORT_DESCRIPTOR_VCRUNTIME140D 00000001400907bc     vcruntimed:VCRUNTIME140D.dll
 0005:000007d0       __IMPORT_DESCRIPTOR_ucrtbased 00000001400907d0     ucrtd:ucrtbased.dll
 0005:000007e4       __NULL_IMPORT_DESCRIPTOR   00000001400907e4     ole32:ole32.dll
 0006:00000000       __guard_check_icall_fptr   0000000140092000     MSVCRTD:guard_support.obj
 0006:00000010       __guard_xfg_check_icall_fptr 0000000140092010     MSVCRTD:guard_support.obj
 0006:00000020       __guard_dispatch_icall_fptr 0000000140092020     MSVCRTD:guard_support.obj
 0006:00000030       __guard_xfg_dispatch_icall_fptr 0000000140092030     MSVCRTD:guard_support.obj
 0006:00000040       __guard_xfg_table_dispatch_icall_fptr 0000000140092040     MSVCRTD:guard_support.obj

 entry point at        0001:00000848

 Static symbols

 0000:fff6e000       _volmd                     0000000140000000     latency.obj
 0000:fff6e000       _volmd                     0000000140000000     pjlib-util-x86_64-x64-vc14-debug-dynamic:base64.obj
 0000:fff6e000       _volmd                     0000000140000000     pjlib-x86_64-x64-vc14-debug-dynamic:addr_resolv_sock.obj
 0002:fffae000       $unwind$_snprintf          0000000140000000     pjlib-x86_64-x64-vc14-debug-dynamic:errno.obj
 0002:fffae000       $unwind$_vsnprintf         0000000140000000     pjlib-x86_64-x64-vc14-debug-dynamic:errno.obj
 0002:fffae000       $unwind$_vsnprintf_l       0000000140000000     pjlib-x86_64-x64-vc14-debug-dynamic:errno.obj
 0000:fff6e000       _volmd                     0000000140000000     pjlib-x86_64-x64-vc14-debug-dynamic:errno.obj
 0002:fffae000       $unwind$_snprintf          0000000140000000     pjlib-x86_64-x64-vc14-debug-dynamic:except.obj
 0002:fffae000       $unwind$_vsnprintf         0000000140000000     pjlib-x86_64-x64-vc14-debug-dynamic:except.obj
 0002:fffae000       $unwind$_vsnprintf_l       0000000140000000     pjlib-x86_64-x64-vc14-debug-dynamic:except.obj
 0000:fff6e000       _volmd                     0000000140000000     pjlib-x86_64-x64-vc14-debug-dynamic:file_access_win32.obj
 0000:fff6e000       _volmd                     0000000140000000     pjlib-x86_64-x64-vc14-debug-dynamic:guid_win32.obj
 0000:fff6e000       _volmd                     0000000140000000     pjlib-x86_64-x64-vc14-debug-dynamic:ioqueue_select.obj
 0000:fff6e000       _volmd                     0000000140000000     pjlib-x86_64-x64-vc14-debug-dynamic:ip_helper_win32.obj
 0002:fffae000       $unwind$_snprintf          0000000140000000     pjlib-x86_64-x64-vc14-debug-dynamic:log.obj
 0002:fffae000       $unwind$_vsnprintf         0000000140000000     pjlib-x86_64-x64-vc14-debug-dynamic:log.obj
 0002:fffae000       $unwind$_vsnprintf_l       0000000140000000     pjlib-x86_64-x64-vc14-debug-dynamic:log.obj
 0000:fff6e000       _volmd                     0000000140000000     pjlib-x86_64-x64-vc14-debug-dynamic:log.obj
 0002:fffae000       $unwind$_vfprintf_l        0000000140000000     pjlib-x86_64-x64-vc14-debug-dynamic:log_writer_stdout.obj
 0002:fffae000       $unwind$printf             0000000140000000     pjlib-x86_64-x64-vc14-debug-dynamic:log_writer_stdout.obj
 0002:fffae000       $unwind$_snprintf          0000000140000000     pjlib-x86_64-x64-vc14-debug-dynamic:os_core_win32.obj
 0002:fffae000       $unwind$_vsnprintf         0000000140000000     pjlib-x86_64-x64-vc14-debug-dynamic:os_core_win32.obj
 0002:fffae000       $unwind$_vsnprintf_l       0000000140000000     pjlib-x86_64-x64-vc14-debug-dynamic:os_core_win32.obj
 0000:fff6e000       _volmd                     0000000140000000     pjlib-x86_64-x64-vc14-debug-dynamic:os_core_win32.obj
 0002:fffae000       $unwind$_snprintf          0000000140000000     pjlib-x86_64-x64-vc14-debug-dynamic:os_error_win32.obj
 0002:fffae000       $unwind$_vsnprintf         0000000140000000     pjlib-x86_64-x64-vc14-debug-dynamic:os_error_win32.obj
 0002:fffae000       $unwind$_vsnprintf_l       0000000140000000     pjlib-x86_64-x64-vc14-debug-dynamic:os_error_win32.obj
 0000:fff6e000       _volmd                     0000000140000000     pjlib-x86_64-x64-vc14-debug-dynamic:os_time_win32.obj
 0002:fffae000       $unwind$_snprintf          0000000140000000     pjlib-x86_64-x64-vc14-debug-dynamic:pool.obj
 0002:fffae000       $unwind$_vsnprintf         0000000140000000     pjlib-x86_64-x64-vc14-debug-dynamic:pool.obj
 0002:fffae000       $unwind$_vsnprintf_l       0000000140000000     pjlib-x86_64-x64-vc14-debug-dynamic:pool.obj
 0000:fff6e000       _volmd                     0000000140000000     pjlib-x86_64-x64-vc14-debug-dynamic:pool.obj
 0000:fff6e000       _volmd                     0000000140000000     pjlib-x86_64-x64-vc14-debug-dynamic:sock_bsd.obj
 0002:fffae000       $unwind$_snprintf          0000000140000000     pjlib-x86_64-x64-vc14-debug-dynamic:sock_common.obj
 0002:fffae000       $unwind$_vsnprintf         0000000140000000     pjlib-x86_64-x64-vc14-debug-dynamic:sock_common.obj
 0002:fffae000       $unwind$_vsnprintf_l       0000000140000000     pjlib-x86_64-x64-vc14-debug-dynamic:sock_common.obj
 0000:fff6e000       _volmd                     0000000140000000     pjlib-x86_64-x64-vc14-debug-dynamic:sock_common.obj
 0002:fffae000       $unwind$_snprintf          0000000140000000     pjmedia-x86_64-x64-vc14-debug-dynamic:codec.obj
 0002:fffae000       $unwind$_vsnprintf         0000000140000000     pjmedia-x86_64-x64-vc14-debug-dynamic:codec.obj
 0002:fffae000       $unwind$_vsnprintf_l       0000000140000000     pjmedia-x86_64-x64-vc14-debug-dynamic:codec.obj
 0000:fff6e000       _volmd                     0000000140000000     pjmedia-x86_64-x64-vc14-debug-dynamic:codec.obj
 0002:fffae000       $unwind$_snprintf          0000000140000000     pjmedia-x86_64-x64-vc14-debug-dynamic:endpoint.obj
 0002:fffae000       $unwind$_vsnprintf         0000000140000000     pjmedia-x86_64-x64-vc14-debug-dynamic:endpoint.obj
 0002:fffae000       $unwind$_vsnprintf_l       0000000140000000     pjmedia-x86_64-x64-vc14-debug-dynamic:endpoint.obj
 0002:fffae000       $unwind$_vsprintf_l        0000000140000000     pjmedia-x86_64-x64-vc14-debug-dynamic:endpoint.obj
 0002:fffae000       $unwind$sprintf            0000000140000000     pjmedia-x86_64-x64-vc14-debug-dynamic:endpoint.obj
 0000:fff6e000       _volmd                     0000000140000000     pjmedia-x86_64-x64-vc14-debug-dynamic:endpoint.obj
 0000:fff6e000       _volmd                     0000000140000000     pjmedia-x86_64-x64-vc14-debug-dynamic:event.obj
 0002:fffae000       $unwind$_snprintf          0000000140000000     pjmedia-x86_64-x64-vc14-debug-dynamic:sdp.obj
 0002:fffae000       $unwind$_vsnprintf         0000000140000000     pjmedia-x86_64-x64-vc14-debug-dynamic:sdp.obj
 0002:fffae000       $unwind$_vsnprintf_l       0000000140000000     pjmedia-x86_64-x64-vc14-debug-dynamic:sdp.obj
 0000:fff6e000       _volmd                     0000000140000000     pjmedia-x86_64-x64-vc14-debug-dynamic:sdp.obj
 0002:fffae000       $unwind$_snprintf          0000000140000000     pjmedia-x86_64-x64-vc14-debug-dynamic:transport_srtp.obj
 0002:fffae000       $unwind$_vsnprintf         0000000140000000     pjmedia-x86_64-x64-vc14-debug-dynamic:transport_srtp.obj
 0002:fffae000       $unwind$_vsnprintf_l       0000000140000000     pjmedia-x86_64-x64-vc14-debug-dynamic:transport_srtp.obj
 0000:fff6e000       _volmd                     0000000140000000     pjmedia-x86_64-x64-vc14-debug-dynamic:transport_srtp.obj
 0000:fff6e000       _volmd                     0000000140000000     pjmedia-x86_64-x64-vc14-debug-dynamic:wav_player.obj
 0000:fff6e000       _volmd                     0000000140000000     libsrtp-x86_64-x64-vc14-debug-dynamic:aes.obj
 0000:fff6e000       _volmd                     0000000140000000     libsrtp-x86_64-x64-vc14-debug-dynamic:aes_icm.obj
 0000:fff6e000       _volmd                     0000000140000000     libsrtp-x86_64-x64-vc14-debug-dynamic:auth.obj
 0000:fff6e000       _volmd                     0000000140000000     libsrtp-x86_64-x64-vc14-debug-dynamic:cipher.obj
 0000:fff6e000       _volmd                     0000000140000000     libsrtp-x86_64-x64-vc14-debug-dynamic:datatypes.obj
 0000:fff6e000       _volmd                     0000000140000000     libsrtp-x86_64-x64-vc14-debug-dynamic:ekt.obj
 0000:fff6e000       _volmd                     0000000140000000     libsrtp-x86_64-x64-vc14-debug-dynamic:hmac.obj
 0000:fff6e000       _volmd                     0000000140000000     libsrtp-x86_64-x64-vc14-debug-dynamic:sha1.obj
 0000:fff6e000       _volmd                     0000000140000000     libsrtp-x86_64-x64-vc14-debug-dynamic:srtp.obj
 0000:fff6e000       _volmd                     0000000140000000     libsrtp-x86_64-x64-vc14-debug-dynamic:stat.obj
 0000:fff6e000       _volmd                     0000000140000000     MSVCRTD:cpu_disp.obj
 0000:fff6e000       __guard_ehcont_?__scrt_common_main_seh@@YAHXZ 0000000140000000     MSVCRTD:exe_main.obj
 0000:fff6e000       __guard_fids_?pre_c_initialization@@YAHXZ 0000000140000000     MSVCRTD:exe_main.obj
 0000:fff6e000       __guard_fids__             0000000140000000     MSVCRTD:exe_main.obj
 0000:fff6e000       _volmd                     0000000140000000     MSVCRTD:gs_report.obj
 0000:fff6e000       _volmd                     0000000140000000     MSVCRTD:gs_report.obj
 0000:fff6e000       _volmd                     0000000140000000     MSVCRTD:gs_report.obj
 0000:fff6e000       __guard_fids__             0000000140000000     MSVCRTD:guard_support.obj
 0000:fff6e000       __guard_fids__             0000000140000000     MSVCRTD:guard_support.obj
 0000:fff6e000       __guard_fids__guard_icall_checks_enforced 0000000140000000     MSVCRTD:guard_support.obj
 0000:fff6e000       _volmd                     0000000140000000     MSVCRTD:guard_support.obj
 0000:fff6e000       _volmd                     0000000140000000     MSVCRTD:guard_support.obj
 0000:fff6e000       _volmd                     0000000140000000     MSVCRTD:guard_support.obj
 0002:fffae000       $unwind$?configure_argv@__scrt_narrow_argv_policy@@SAHXZ 0000000140000000     MSVCRTD:utility.obj
 0002:fffae000       $unwind$?initialize_environment@__scrt_narrow_environment_policy@@SAHXZ 0000000140000000     MSVCRTD:utility.obj
 0000:fff6e000       __guard_ehcont___scrt_is_nonwritable_in_current_image 0000000140000000     MSVCRTD:utility.obj
 0000:fff6e000       _volmd                     0000000140000000     MSVCRTD:utility.obj
 0000:fff6e000       _volmd                     0000000140000000     MSVCRTD:utility.obj
 0000:fff6e000       _volmd                     0000000140000000     MSVCRTD:utility.obj
 0000:fff6e000       __guard_fids___scrt_set_unhandled_exception_filter 0000000140000000     MSVCRTD:utility_desktop.obj
 0000:fff6e000       _volmd                     0000000140000000     MSVCRTD:utility_desktop.obj
 0000:fff6c000       .debug$S                   0000000140000000     vcruntimed:VCRUNTIME140D.dll
 0000:fff6c000       .debug$S                   0000000140000000     vcruntimed:VCRUNTIME140D.dll
 0000:fff6c000       .debug$S                   0000000140000000     vcruntimed:VCRUNTIME140D.dll
 0000:fff6c000       .debug$S                   0000000140000000     vcruntimed:VCRUNTIME140D.dll
 0000:fff6c000       .debug$S                   0000000140000000     vcruntimed:VCRUNTIME140D.dll
 0000:fff6c000       .debug$S                   0000000140000000     vcruntimed:VCRUNTIME140D.dll
 0000:fff6c000       .debug$S                   0000000140000000     vcruntimed:VCRUNTIME140D.dll
 0000:fff6c000       .debug$S                   0000000140000000     vcruntimed:VCRUNTIME140D.dll
 0000:fff6c000       .debug$S                   0000000140000000     vcruntimed:VCRUNTIME140D.dll
 0000:fff6c000       .debug$S                   0000000140000000     vcruntimed:VCRUNTIME140D.dll
 0000:fff6c000       .debug$S                   0000000140000000     vcruntimed:VCRUNTIME140D.dll
 0000:fff6c000       .debug$S                   0000000140000000     vcruntimed:VCRUNTIME140D.dll
 0000:fff6c000       .debug$S                   0000000140000000     ucrtd:ucrtbased.dll
 0000:fff6c000       .debug$S                   0000000140000000     ucrtd:ucrtbased.dll
 0000:fff6c000       .debug$S                   0000000140000000     ucrtd:ucrtbased.dll
 0000:fff6c000       .debug$S                   0000000140000000     ucrtd:ucrtbased.dll
 0000:fff6c000       .debug$S                   0000000140000000     ucrtd:ucrtbased.dll
 0000:fff6c000       .debug$S                   0000000140000000     ucrtd:ucrtbased.dll
 0000:fff6c000       .debug$S                   0000000140000000     ucrtd:ucrtbased.dll
 0000:fff6c000       .debug$S                   0000000140000000     ucrtd:ucrtbased.dll
 0000:fff6c000       .debug$S                   0000000140000000     ucrtd:ucrtbased.dll
 0000:fff6c000       .debug$S                   0000000140000000     ucrtd:ucrtbased.dll
 0000:fff6c000       .debug$S                   0000000140000000     ucrtd:ucrtbased.dll
 0000:fff6c000       .debug$S                   0000000140000000     ucrtd:ucrtbased.dll
 0000:fff6c000       .debug$S                   0000000140000000     ucrtd:ucrtbased.dll
 0000:fff6c000       .debug$S                   0000000140000000     ucrtd:ucrtbased.dll
 0000:fff6c000       .debug$S                   0000000140000000     ucrtd:ucrtbased.dll
 0000:fff6c000       .debug$S                   0000000140000000     ucrtd:ucrtbased.dll
 0000:fff6c000       .debug$S                   0000000140000000     ucrtd:ucrtbased.dll
 0000:fff6c000       .debug$S                   0000000140000000     ucrtd:ucrtbased.dll
 0000:fff6c000       .debug$S                   0000000140000000     ucrtd:ucrtbased.dll
 0000:fff6c000       .debug$S                   0000000140000000     ucrtd:ucrtbased.dll
 0000:fff6c000       .debug$S                   0000000140000000     ucrtd:ucrtbased.dll
 0000:fff6c000       .debug$S                   0000000140000000     ucrtd:ucrtbased.dll
 0000:fff6c000       .debug$S                   0000000140000000     ucrtd:ucrtbased.dll
 0000:fff6c000       .debug$S                   0000000140000000     ucrtd:ucrtbased.dll
 0000:fff6c000       .debug$S                   0000000140000000     ucrtd:ucrtbased.dll
 0000:fff6c000       .debug$S                   0000000140000000     ucrtd:ucrtbased.dll
 0000:fff6c000       .debug$S                   0000000140000000     ucrtd:ucrtbased.dll
 0000:fff6c000       .debug$S                   0000000140000000     ucrtd:ucrtbased.dll
 0000:fff6c000       .debug$S                   0000000140000000     ucrtd:ucrtbased.dll
 0000:fff6c000       .debug$S                   0000000140000000     ucrtd:ucrtbased.dll
 0000:fff6c000       .debug$S                   0000000140000000     ucrtd:ucrtbased.dll
 0000:fff6c000       .debug$S                   0000000140000000     ucrtd:ucrtbased.dll
 0000:fff6c000       .debug$S                   0000000140000000     ucrtd:ucrtbased.dll
 0000:fff6c000       .debug$S                   0000000140000000     ucrtd:ucrtbased.dll
 0000:fff6c000       .debug$S                   0000000140000000     ucrtd:ucrtbased.dll
 0000:fff6c000       .debug$S                   0000000140000000     ucrtd:ucrtbased.dll
 0000:fff6c000       .debug$S                   0000000140000000     ucrtd:ucrtbased.dll
 0000:fff6c000       .debug$S                   0000000140000000     ucrtd:ucrtbased.dll
 0000:fff6c000       .debug$S                   0000000140000000     ucrtd:ucrtbased.dll
 0000:fff6c000       .debug$S                   0000000140000000     ucrtd:ucrtbased.dll
 0000:fff6c000       .debug$S                   0000000140000000     ucrtd:ucrtbased.dll
 0000:fff6c000       .debug$S                   0000000140000000     ucrtd:ucrtbased.dll
 0000:fff6c000       .debug$S                   0000000140000000     ucrtd:ucrtbased.dll
 0000:fff6c000       .debug$S                   0000000140000000     ucrtd:ucrtbased.dll
 0000:fff6c000       .debug$S                   0000000140000000     ucrtd:ucrtbased.dll
 0000:fff6c000       .debug$S                   0000000140000000     ucrtd:ucrtbased.dll
 0000:fff6c000       .debug$S                   0000000140000000     ucrtd:ucrtbased.dll
 0000:fff6c000       .debug$S                   0000000140000000     ucrtd:ucrtbased.dll
 0000:fff6c000       .debug$S                   0000000140000000     kernel32:KERNEL32.dll
 0000:fff6c000       .debug$S                   0000000140000000     kernel32:KERNEL32.dll
 0000:fff6c000       .debug$S                   0000000140000000     kernel32:KERNEL32.dll
 0000:fff6c000       .debug$S                   0000000140000000     kernel32:KERNEL32.dll
 0000:fff6c000       .debug$S                   0000000140000000     kernel32:KERNEL32.dll
 0000:fff6c000       .debug$S                   0000000140000000     kernel32:KERNEL32.dll
 0000:fff6c000       .debug$S                   0000000140000000     kernel32:KERNEL32.dll
 0000:fff6c000       .debug$S                   0000000140000000     kernel32:KERNEL32.dll
 0000:fff6c000       .debug$S                   0000000140000000     kernel32:KERNEL32.dll
 0000:fff6c000       .debug$S                   0000000140000000     kernel32:KERNEL32.dll
 0000:fff6c000       .debug$S                   0000000140000000     kernel32:KERNEL32.dll
 0000:fff6c000       .debug$S                   0000000140000000     kernel32:KERNEL32.dll
 0000:fff6c000       .debug$S                   0000000140000000     kernel32:KERNEL32.dll
 0000:fff6c000       .debug$S                   0000000140000000     kernel32:KERNEL32.dll
 0000:fff6c000       .debug$S                   0000000140000000     kernel32:KERNEL32.dll
 0000:fff6c000       .debug$S                   0000000140000000     kernel32:KERNEL32.dll
 0000:fff6c000       .debug$S                   0000000140000000     kernel32:KERNEL32.dll
 0000:fff6c000       .debug$S                   0000000140000000     kernel32:KERNEL32.dll
 0000:fff6c000       .debug$S                   0000000140000000     kernel32:KERNEL32.dll
 0000:fff6c000       .debug$S                   0000000140000000     kernel32:KERNEL32.dll
 0000:fff6c000       .debug$S                   0000000140000000     kernel32:KERNEL32.dll
 0000:fff6c000       .debug$S                   0000000140000000     kernel32:KERNEL32.dll
 0000:fff6c000       .debug$S                   0000000140000000     kernel32:KERNEL32.dll
 0000:fff6c000       .debug$S                   0000000140000000     kernel32:KERNEL32.dll
 0000:fff6c000       .debug$S                   0000000140000000     kernel32:KERNEL32.dll
 0000:fff6c000       .debug$S                   0000000140000000     kernel32:KERNEL32.dll
 0000:fff6c000       .debug$S                   0000000140000000     kernel32:KERNEL32.dll
 0000:fff6c000       .debug$S                   0000000140000000     kernel32:KERNEL32.dll
 0000:fff6c000       .debug$S                   0000000140000000     kernel32:KERNEL32.dll
 0000:fff6c000       .debug$S                   0000000140000000     kernel32:KERNEL32.dll
 0000:fff6c000       .debug$S                   0000000140000000     kernel32:KERNEL32.dll
 0000:fff6c000       .debug$S                   0000000140000000     kernel32:KERNEL32.dll
 0000:fff6c000       .debug$S                   0000000140000000     kernel32:KERNEL32.dll
 0000:fff6c000       .debug$S                   0000000140000000     kernel32:KERNEL32.dll
 0000:fff6c000       .debug$S                   0000000140000000     kernel32:KERNEL32.dll
 0000:fff6c000       .debug$S                   0000000140000000     kernel32:KERNEL32.dll
 0000:fff6c000       .debug$S                   0000000140000000     kernel32:KERNEL32.dll
 0000:fff6c000       .debug$S                   0000000140000000     kernel32:KERNEL32.dll
 0000:fff6c000       .debug$S                   0000000140000000     kernel32:KERNEL32.dll
 0000:fff6c000       .debug$S                   0000000140000000     kernel32:KERNEL32.dll
 0000:fff6c000       .debug$S                   0000000140000000     kernel32:KERNEL32.dll
 0000:fff6c000       .debug$S                   0000000140000000     kernel32:KERNEL32.dll
 0000:fff6c000       .debug$S                   0000000140000000     kernel32:KERNEL32.dll
 0000:fff6c000       .debug$S                   0000000140000000     kernel32:KERNEL32.dll
 0000:fff6c000       .debug$S                   0000000140000000     kernel32:KERNEL32.dll
 0000:fff6c000       .debug$S                   0000000140000000     kernel32:KERNEL32.dll
 0000:fff6c000       .debug$S                   0000000140000000     kernel32:KERNEL32.dll
 0000:fff6c000       .debug$S                   0000000140000000     kernel32:KERNEL32.dll
 0000:fff6c000       .debug$S                   0000000140000000     kernel32:KERNEL32.dll
 0000:fff6c000       .debug$S                   0000000140000000     kernel32:KERNEL32.dll
 0000:fff6c000       .debug$S                   0000000140000000     kernel32:KERNEL32.dll
 0000:fff6c000       .debug$S                   0000000140000000     kernel32:KERNEL32.dll
 0000:fff6c000       .debug$S                   0000000140000000     kernel32:KERNEL32.dll
 0000:fff6c000       .debug$S                   0000000140000000     kernel32:KERNEL32.dll
 0000:fff6c000       .debug$S                   0000000140000000     kernel32:KERNEL32.dll
 0000:fff6c000       .debug$S                   0000000140000000     kernel32:KERNEL32.dll
 0000:fff6c000       .debug$S                   0000000140000000     kernel32:KERNEL32.dll
 0000:fff6c000       .debug$S                   0000000140000000     kernel32:KERNEL32.dll
 0000:fff6c000       .debug$S                   0000000140000000     kernel32:KERNEL32.dll
 0000:fff6c000       .debug$S                   0000000140000000     kernel32:KERNEL32.dll
 0000:fff6c000       .debug$S                   0000000140000000     kernel32:KERNEL32.dll
 0000:fff6c000       .debug$S                   0000000140000000     kernel32:KERNEL32.dll
 0000:fff6c000       .debug$S                   0000000140000000     ole32:ole32.dll
 0000:fff6c000       .debug$S                   0000000140000000     ws2_32:WS2_32.dll
 0000:fff6c000       .debug$S                   0000000140000000     ws2_32:WS2_32.dll
 0000:fff6c000       .debug$S                   0000000140000000     ws2_32:WS2_32.dll
 0000:fff6c000       .debug$S                   0000000140000000     ws2_32:WS2_32.dll
 0000:fff6c000       .debug$S                   0000000140000000     ws2_32:WS2_32.dll
 0000:fff6c000       .debug$S                   0000000140000000     ws2_32:WS2_32.dll
 0000:fff6c000       .debug$S                   0000000140000000     ws2_32:WS2_32.dll
 0000:fff6c000       .debug$S                   0000000140000000     ws2_32:WS2_32.dll
 0000:fff6c000       .debug$S                   0000000140000000     ws2_32:WS2_32.dll
 0000:fff6c000       .debug$S                   0000000140000000     ws2_32:WS2_32.dll
 0000:fff6c000       .debug$S                   0000000140000000     ws2_32:WS2_32.dll
 0000:fff6c000       .debug$S                   0000000140000000     ws2_32:WS2_32.dll
 0000:fff6c000       .debug$S                   0000000140000000     ws2_32:WS2_32.dll
 0000:fff6c000       .debug$S                   0000000140000000     ws2_32:WS2_32.dll
 0000:fff6c000       .debug$S                   0000000140000000     ws2_32:WS2_32.dll
 0000:fff6c000       .debug$S                   0000000140000000     ws2_32:WS2_32.dll
 0000:fff6c000       .debug$S                   0000000140000000     ws2_32:WS2_32.dll
 0000:fff6c000       .debug$S                   0000000140000000     ws2_32:WS2_32.dll
 0000:fff6c000       .debug$S                   0000000140000000     ws2_32:WS2_32.dll
 0000:fff6c000       .debug$S                   0000000140000000     ws2_32:WS2_32.dll
 0000:fff6c000       .debug$S                   0000000140000000     ws2_32:WS2_32.dll
 0000:fff6c000       .debug$S                   0000000140000000     ws2_32:WS2_32.dll
 0000:fff6c000       .debug$S                   0000000140000000     ws2_32:WS2_32.dll
 0000:fff6c000       .debug$S                   0000000140000000     ws2_32:WS2_32.dll
 0000:fff6c000       .debug$S                   0000000140000000     ws2_32:WS2_32.dll
 0000:fff6c000       .debug$S                   0000000140000000     ws2_32:WS2_32.dll
 0000:fff6c000       .debug$S                   0000000140000000     ws2_32:WS2_32.dll
 0000:fff6c000       .debug$S                   0000000140000000     ws2_32:WS2_32.dll
 0000:fff6c000       .debug$S                   0000000140000000     ws2_32:WS2_32.dll
 0000:fff6c000       .debug$S                   0000000140000000     ws2_32:WS2_32.dll
 0000:fff6c000       .debug$S                   0000000140000000     ws2_32:WS2_32.dll
 0000:fff6c000       .debug$S                   0000000140000000     ws2_32:WS2_32.dll
 0000:fff6c000       .debug$S                   0000000140000000     ws2_32:WS2_32.dll
 0000:fff6e004       __guard_fids__             0000000140000004     MSVCRTD:exe_main.obj
 0000:fff6e008       _volmd                     0000000140000008     pjlib-x86_64-x64-vc14-debug-dynamic:os_core_win32.obj
 0000:fff6e008       _volmd                     0000000140000008     libsrtp-x86_64-x64-vc14-debug-dynamic:datatypes.obj
 0000:fff6e008       __guard_fids__             0000000140000008     MSVCRTD:exe_main.obj
 0000:fff6e00c       _volmd                     000000014000000c     latency.obj
 0000:fff6e00c       _volmd                     000000014000000c     pjlib-x86_64-x64-vc14-debug-dynamic:ip_helper_win32.obj
 0000:fff6e00c       _volmd                     000000014000000c     pjlib-x86_64-x64-vc14-debug-dynamic:os_time_win32.obj
 0000:fff6e00c       _volmd                     000000014000000c     pjlib-x86_64-x64-vc14-debug-dynamic:sock_bsd.obj
 0000:fff6e00c       _volmd                     000000014000000c     pjlib-x86_64-x64-vc14-debug-dynamic:sock_common.obj
 0000:fff6e00c       _volmd                     000000014000000c     pjmedia-x86_64-x64-vc14-debug-dynamic:codec.obj
 0000:fff6e00c       _volmd                     000000014000000c     pjmedia-x86_64-x64-vc14-debug-dynamic:endpoint.obj
 0000:fff6e00c       _volmd                     000000014000000c     pjmedia-x86_64-x64-vc14-debug-dynamic:sdp.obj
 0000:fff6e00c       _volmd                     000000014000000c     pjmedia-x86_64-x64-vc14-debug-dynamic:transport_srtp.obj
 0000:fff6e00c       _volmd                     000000014000000c     pjmedia-x86_64-x64-vc14-debug-dynamic:wav_player.obj
 0000:fff6e00c       _volmd                     000000014000000c     libsrtp-x86_64-x64-vc14-debug-dynamic:cipher.obj
 0000:fff6e00c       _volmd                     000000014000000c     libsrtp-x86_64-x64-vc14-debug-dynamic:ekt.obj
 0000:fff6e00c       _volmd                     000000014000000c     libsrtp-x86_64-x64-vc14-debug-dynamic:hmac.obj
 0000:fff6e00c       _volmd                     000000014000000c     libsrtp-x86_64-x64-vc14-debug-dynamic:sha1.obj
 0000:fff6e00c       _volmd                     000000014000000c     libsrtp-x86_64-x64-vc14-debug-dynamic:srtp.obj
 0000:fff6e00c       _volmd                     000000014000000c     libsrtp-x86_64-x64-vc14-debug-dynamic:stat.obj
 0000:fff6e010       _volmd                     0000000140000010     pjlib-x86_64-x64-vc14-debug-dynamic:os_core_win32.obj
 0000:fff6e018       _volmd                     0000000140000018     pjlib-x86_64-x64-vc14-debug-dynamic:ip_helper_win32.obj
 0000:fff6e018       _volmd                     0000000140000018     pjlib-x86_64-x64-vc14-debug-dynamic:os_core_win32.obj
 0000:fff6e018       _volmd                     0000000140000018     pjlib-x86_64-x64-vc14-debug-dynamic:os_time_win32.obj
 0000:fff6e018       _volmd                     0000000140000018     pjlib-x86_64-x64-vc14-debug-dynamic:sock_bsd.obj
 0000:fff6e018       _volmd                     0000000140000018     pjlib-x86_64-x64-vc14-debug-dynamic:sock_common.obj
 0000:fff6e018       _volmd                     0000000140000018     pjmedia-x86_64-x64-vc14-debug-dynamic:codec.obj
 0000:fff6e018       _volmd                     0000000140000018     pjmedia-x86_64-x64-vc14-debug-dynamic:endpoint.obj
 0000:fff6e018       _volmd                     0000000140000018     pjmedia-x86_64-x64-vc14-debug-dynamic:sdp.obj
 0000:fff6e018       _volmd                     0000000140000018     pjmedia-x86_64-x64-vc14-debug-dynamic:transport_srtp.obj
 0000:fff6e018       _volmd                     0000000140000018     libsrtp-x86_64-x64-vc14-debug-dynamic:sha1.obj
 0000:fff6e018       _volmd                     0000000140000018     libsrtp-x86_64-x64-vc14-debug-dynamic:srtp.obj
 0000:fff6e020       _volmd                     0000000140000020     pjlib-x86_64-x64-vc14-debug-dynamic:os_core_win32.obj
 0000:fff6e024       _volmd                     0000000140000024     pjlib-x86_64-x64-vc14-debug-dynamic:os_time_win32.obj
 0000:fff6e024       _volmd                     0000000140000024     pjlib-x86_64-x64-vc14-debug-dynamic:sock_bsd.obj
 0000:fff6e024       _volmd                     0000000140000024     pjlib-x86_64-x64-vc14-debug-dynamic:sock_common.obj
 0000:fff6e024       _volmd                     0000000140000024     pjmedia-x86_64-x64-vc14-debug-dynamic:codec.obj
 0000:fff6e024       _volmd                     0000000140000024     pjmedia-x86_64-x64-vc14-debug-dynamic:endpoint.obj
 0000:fff6e024       _volmd                     0000000140000024     pjmedia-x86_64-x64-vc14-debug-dynamic:sdp.obj
 0000:fff6e024       _volmd                     0000000140000024     pjmedia-x86_64-x64-vc14-debug-dynamic:transport_srtp.obj
 0000:fff6e024       _volmd                     0000000140000024     libsrtp-x86_64-x64-vc14-debug-dynamic:srtp.obj
 0000:fff6e028       _volmd                     0000000140000028     pjlib-x86_64-x64-vc14-debug-dynamic:os_core_win32.obj
 0000:fff6e030       _volmd                     0000000140000030     pjlib-x86_64-x64-vc14-debug-dynamic:sock_common.obj
 0000:fff6e030       _volmd                     0000000140000030     pjmedia-x86_64-x64-vc14-debug-dynamic:sdp.obj
 0000:fff6e030       _volmd                     0000000140000030     pjmedia-x86_64-x64-vc14-debug-dynamic:transport_srtp.obj
 0000:fff6e030       _volmd                     0000000140000030     libsrtp-x86_64-x64-vc14-debug-dynamic:srtp.obj
 0000:fff6e034       _volmd                     0000000140000034     pjlib-x86_64-x64-vc14-debug-dynamic:os_core_win32.obj
 0000:fff6e03c       _volmd                     000000014000003c     pjlib-x86_64-x64-vc14-debug-dynamic:sock_common.obj
 0000:fff6e03c       _volmd                     000000014000003c     pjmedia-x86_64-x64-vc14-debug-dynamic:sdp.obj
 0000:fff6e03c       _volmd                     000000014000003c     libsrtp-x86_64-x64-vc14-debug-dynamic:srtp.obj
 0000:fff6e048       _volmd                     0000000140000048     pjlib-x86_64-x64-vc14-debug-dynamic:sock_common.obj
 0000:fff6e048       _volmd                     0000000140000048     libsrtp-x86_64-x64-vc14-debug-dynamic:srtp.obj
 0000:fff6e054       _volmd                     0000000140000054     pjlib-x86_64-x64-vc14-debug-dynamic:sock_common.obj
 0000:fff6e054       _volmd                     0000000140000054     libsrtp-x86_64-x64-vc14-debug-dynamic:srtp.obj
 0000:fff6e060       _volmd                     0000000140000060     pjlib-x86_64-x64-vc14-debug-dynamic:sock_common.obj
 0000:fff6e060       _volmd                     0000000140000060     libsrtp-x86_64-x64-vc14-debug-dynamic:srtp.obj
 0000:fff6e06c       _volmd                     000000014000006c     pjlib-x86_64-x64-vc14-debug-dynamic:sock_common.obj
 0000:fff6e06c       _volmd                     000000014000006c     libsrtp-x86_64-x64-vc14-debug-dynamic:srtp.obj
 0000:fff6e078       _volmd                     0000000140000078     libsrtp-x86_64-x64-vc14-debug-dynamic:srtp.obj
 0000:fff6e084       _volmd                     0000000140000084     libsrtp-x86_64-x64-vc14-debug-dynamic:srtp.obj
 0000:fff6e090       _volmd                     0000000140000090     libsrtp-x86_64-x64-vc14-debug-dynamic:srtp.obj
 0000:fff6e09c       _volmd                     000000014000009c     libsrtp-x86_64-x64-vc14-debug-dynamic:srtp.obj
 0000:fff6e0a8       _volmd                     00000001400000a8     libsrtp-x86_64-x64-vc14-debug-dynamic:srtp.obj
 0001:00001c50       PJMEDIA_SPF                0000000140002c50 f   latency.obj
 0001:00001c90       PJMEDIA_AFD_SPF            0000000140002c90 f   latency.obj
 0001:00001cd0       pj_memcpy                  0000000140002cd0 f   latency.obj
 0001:00001d10       pjmedia_copy_samples       0000000140002d10 f   latency.obj
 0001:00001d50       PJMEDIA_PIA_SRATE          0000000140002d50 f   latency.obj
 0001:00001da0       PJMEDIA_PIA_SPF            0000000140002da0 f   latency.obj
 0001:00001e00       app_perror                 0000000140002e00 f   latency.obj
 0001:00001e90       calculate_latency          0000000140002e90 f   latency.obj
 0001:00002790       pjmedia_format_init_audio  0000000140003790 f   pjmedia-x86_64-x64-vc14-debug-dynamic:port.obj
 0001:00002820       pj_bzero                   0000000140003820 f   pjmedia-x86_64-x64-vc14-debug-dynamic:port.obj
 0001:00003210       pj_pool_zalloc             0000000140004210 f   pjmedia-x86_64-x64-vc14-debug-dynamic:wav_player.obj
 0001:00003240       pj_bzero                   0000000140004240 f   pjmedia-x86_64-x64-vc14-debug-dynamic:wav_player.obj
 0001:00003270       pj_memset                  0000000140004270 f   pjmedia-x86_64-x64-vc14-debug-dynamic:wav_player.obj
 0001:000032a0       pj_memcpy                  00000001400042a0 f   pjmedia-x86_64-x64-vc14-debug-dynamic:wav_player.obj
 0001:00004200       file_get_frame             0000000140005200 f   pjmedia-x86_64-x64-vc14-debug-dynamic:wav_player.obj
 0001:000049c0       file_on_destroy            00000001400059c0 f   pjmedia-x86_64-x64-vc14-debug-dynamic:wav_player.obj
 0001:00004a50       create_file_port           0000000140005a50 f   pjmedia-x86_64-x64-vc14-debug-dynamic:wav_player.obj
 0001:00004b10       fill_buffer                0000000140005b10 f   pjmedia-x86_64-x64-vc14-debug-dynamic:wav_player.obj
 0001:00004da0       file_on_event              0000000140005da0 f   pjmedia-x86_64-x64-vc14-debug-dynamic:wav_player.obj
 0001:00005590       pj_memcpy                  0000000140006590 f   pjmedia-x86_64-x64-vc14-debug-dynamic:format.obj
 0001:000055f0       pj_strset                  00000001400065f0 f   pjmedia-x86_64-x64-vc14-debug-dynamic:transport_srtp.obj
 0001:00005630       pj_bzero                   0000000140006630 f   pjmedia-x86_64-x64-vc14-debug-dynamic:transport_srtp.obj
 0001:00005660       pj_memcpy                  0000000140006660 f   pjmedia-x86_64-x64-vc14-debug-dynamic:transport_srtp.obj
 0001:000056a0       pj_memmove                 00000001400066a0 f   pjmedia-x86_64-x64-vc14-debug-dynamic:transport_srtp.obj
 0001:000056e0       pjmedia_transport_get_info 00000001400066e0 f   pjmedia-x86_64-x64-vc14-debug-dynamic:transport_srtp.obj
 0001:00005740       pjmedia_transport_attach2  0000000140006740 f   pjmedia-x86_64-x64-vc14-debug-dynamic:transport_srtp.obj
 0001:000057f0       pjmedia_transport_detach   00000001400067f0 f   pjmedia-x86_64-x64-vc14-debug-dynamic:transport_srtp.obj
 0001:00005820       pjmedia_transport_send_rtp 0000000140006820 f   pjmedia-x86_64-x64-vc14-debug-dynamic:transport_srtp.obj
 0001:00005860       pjmedia_transport_send_rtcp2 0000000140006860 f   pjmedia-x86_64-x64-vc14-debug-dynamic:transport_srtp.obj
 0001:000058b0       pjmedia_transport_media_create 00000001400068b0 f   pjmedia-x86_64-x64-vc14-debug-dynamic:transport_srtp.obj
 0001:00005900       pjmedia_transport_encode_sdp 0000000140006900 f   pjmedia-x86_64-x64-vc14-debug-dynamic:transport_srtp.obj
 0001:00005950       pjmedia_transport_media_start 0000000140006950 f   pjmedia-x86_64-x64-vc14-debug-dynamic:transport_srtp.obj
 0001:000059a0       pjmedia_transport_media_stop 00000001400069a0 f   pjmedia-x86_64-x64-vc14-debug-dynamic:transport_srtp.obj
 0001:000059d0       pjmedia_transport_close    00000001400069d0 f   pjmedia-x86_64-x64-vc14-debug-dynamic:transport_srtp.obj
 0001:00005a10       pjmedia_transport_simulate_lost 0000000140006a10 f   pjmedia-x86_64-x64-vc14-debug-dynamic:transport_srtp.obj
 0001:000070b0       pj_pool_zalloc             00000001400080b0 f   pjmedia-x86_64-x64-vc14-debug-dynamic:transport_srtp.obj
 0001:000070e0       pj_isdigit                 00000001400080e0 f   pjmedia-x86_64-x64-vc14-debug-dynamic:transport_srtp.obj
 0001:00007100       srtp_rtp_cb                0000000140008100 f   pjmedia-x86_64-x64-vc14-debug-dynamic:transport_srtp.obj
 0001:000075c0       srtp_rtcp_cb               00000001400085c0 f   pjmedia-x86_64-x64-vc14-debug-dynamic:transport_srtp.obj
 0001:00007770       transport_get_info         0000000140008770 f   pjmedia-x86_64-x64-vc14-debug-dynamic:transport_srtp.obj
 0001:000079c0       transport_detach           00000001400089c0 f   pjmedia-x86_64-x64-vc14-debug-dynamic:transport_srtp.obj
 0001:00007ab0       transport_send_rtp         0000000140008ab0 f   pjmedia-x86_64-x64-vc14-debug-dynamic:transport_srtp.obj
 0001:00007bf0       transport_send_rtcp        0000000140008bf0 f   pjmedia-x86_64-x64-vc14-debug-dynamic:transport_srtp.obj
 0001:00007c30       transport_send_rtcp2       0000000140008c30 f   pjmedia-x86_64-x64-vc14-debug-dynamic:transport_srtp.obj
 0001:00007da0       transport_media_create     0000000140008da0 f   pjmedia-x86_64-x64-vc14-debug-dynamic:transport_srtp.obj
 0001:000080c0       transport_encode_sdp       00000001400090c0 f   pjmedia-x86_64-x64-vc14-debug-dynamic:transport_srtp.obj
 0001:00008490       transport_media_start      0000000140009490 f   pjmedia-x86_64-x64-vc14-debug-dynamic:transport_srtp.obj
 0001:000086e0       transport_media_stop       00000001400096e0 f   pjmedia-x86_64-x64-vc14-debug-dynamic:transport_srtp.obj
 0001:000087e0       transport_simulate_lost    00000001400097e0 f   pjmedia-x86_64-x64-vc14-debug-dynamic:transport_srtp.obj
 0001:00008860       transport_destroy          0000000140009860 f   pjmedia-x86_64-x64-vc14-debug-dynamic:transport_srtp.obj
 0001:00008970       transport_attach2          0000000140009970 f   pjmedia-x86_64-x64-vc14-debug-dynamic:transport_srtp.obj
 0001:00008be0       get_crypto_idx             0000000140009be0 f   pjmedia-x86_64-x64-vc14-debug-dynamic:transport_srtp.obj
 0001:00008c60       srtp_crypto_empty          0000000140009c60 f   pjmedia-x86_64-x64-vc14-debug-dynamic:transport_srtp.obj
 0001:00008ca0       srtp_crypto_cmp            0000000140009ca0 f   pjmedia-x86_64-x64-vc14-debug-dynamic:transport_srtp.obj
 0001:00008d30       start_srtp                 0000000140009d30 f   pjmedia-x86_64-x64-vc14-debug-dynamic:transport_srtp.obj
 0001:00008f70       sdes_media_create          0000000140009f70 f   pjmedia-x86_64-x64-vc14-debug-dynamic:transport_srtp.obj
 0001:00009060       sdes_encode_sdp            000000014000a060 f   pjmedia-x86_64-x64-vc14-debug-dynamic:transport_srtp.obj
 0001:00009810       sdes_media_start           000000014000a810 f   pjmedia-x86_64-x64-vc14-debug-dynamic:transport_srtp.obj
 0001:00009c40       sdes_media_stop            000000014000ac40 f   pjmedia-x86_64-x64-vc14-debug-dynamic:transport_srtp.obj
 0001:00009c50       sdes_create                000000014000ac50 f   pjmedia-x86_64-x64-vc14-debug-dynamic:transport_srtp.obj
 0001:00009d30       generate_crypto_attr_value 000000014000ad30 f   pjmedia-x86_64-x64-vc14-debug-dynamic:transport_srtp.obj
 0001:0000a160       parse_attr_crypto          000000014000b160 f   pjmedia-x86_64-x64-vc14-debug-dynamic:transport_srtp.obj
 0001:0000a580       fill_local_crypto          000000014000b580 f   pjmedia-x86_64-x64-vc14-debug-dynamic:transport_srtp.obj
 0001:0000a700       pjmedia_srtp_deinit_lib    000000014000b700 f   pjmedia-x86_64-x64-vc14-debug-dynamic:transport_srtp.obj
 0001:0000bc80       pj_list_init               000000014000cc80 f   pjmedia-x86_64-x64-vc14-debug-dynamic:event.obj
 0001:0000bcb0       pj_list_push_back          000000014000ccb0 f   pjmedia-x86_64-x64-vc14-debug-dynamic:event.obj
 0001:0000bce0       pj_pool_zalloc             000000014000cce0 f   pjmedia-x86_64-x64-vc14-debug-dynamic:event.obj
 0001:0000bd10       pj_bzero                   000000014000cd10 f   pjmedia-x86_64-x64-vc14-debug-dynamic:event.obj
 0001:0000bd40       pj_memcpy                  000000014000cd40 f   pjmedia-x86_64-x64-vc14-debug-dynamic:event.obj
 0001:0000c6b0       event_queue_add_event      000000014000d6b0 f   pjmedia-x86_64-x64-vc14-debug-dynamic:event.obj
 0001:0000c7c0       event_mgr_distribute_events 000000014000d7c0 f   pjmedia-x86_64-x64-vc14-debug-dynamic:event.obj
 0001:0000c930       event_worker_thread        000000014000d930 f   pjmedia-x86_64-x64-vc14-debug-dynamic:event.obj
 0001:0000cd10       pjmedia_fourcc_name        000000014000dd10 f   pjmedia-x86_64-x64-vc14-debug-dynamic:event.obj
 0001:0000ce20       wave_hdr_swap_bytes        000000014000de20 f   pjmedia-x86_64-x64-vc14-debug-dynamic:wave.obj
 0001:0000f5c4       $LN73                      00000001400105c4     pjmedia-x86_64-x64-vc14-debug-dynamic:sdp.obj
 0001:0000f5f0       $LN72                      00000001400105f0     pjmedia-x86_64-x64-vc14-debug-dynamic:sdp.obj
 0001:0000fda0       pj_scan_get_col            0000000140010da0 f   pjmedia-x86_64-x64-vc14-debug-dynamic:sdp.obj
 0001:0000fdd0       pj_strset                  0000000140010dd0 f   pjmedia-x86_64-x64-vc14-debug-dynamic:sdp.obj
 0001:0000fe10       pj_bzero                   0000000140010e10 f   pjmedia-x86_64-x64-vc14-debug-dynamic:sdp.obj
 0001:0000fe40       pj_memcpy                  0000000140010e40 f   pjmedia-x86_64-x64-vc14-debug-dynamic:sdp.obj
 0001:0000fe80       pj_pool_zalloc             0000000140010e80 f   pjmedia-x86_64-x64-vc14-debug-dynamic:sdp.obj
 0001:0000feb0       pj_isdigit                 0000000140010eb0 f   pjmedia-x86_64-x64-vc14-debug-dynamic:sdp.obj
 0001:0000fed0       parse_version              0000000140010ed0 f   pjmedia-x86_64-x64-vc14-debug-dynamic:sdp.obj
 0001:0000ff40       parse_origin               0000000140010f40 f   pjmedia-x86_64-x64-vc14-debug-dynamic:sdp.obj
 0001:00010090       parse_time                 0000000140011090 f   pjmedia-x86_64-x64-vc14-debug-dynamic:sdp.obj
 0001:00010160       parse_generic_line         0000000140011160 f   pjmedia-x86_64-x64-vc14-debug-dynamic:sdp.obj
 0001:000101e0       parse_connection_info      00000001400111e0 f   pjmedia-x86_64-x64-vc14-debug-dynamic:sdp.obj
 0001:00010290       parse_bandwidth_info       0000000140011290 f   pjmedia-x86_64-x64-vc14-debug-dynamic:sdp.obj
 0001:00010320       parse_attr                 0000000140011320 f   pjmedia-x86_64-x64-vc14-debug-dynamic:sdp.obj
 0001:00010490       parse_media                0000000140011490 f   pjmedia-x86_64-x64-vc14-debug-dynamic:sdp.obj
 0001:000106b0       on_scanner_error           00000001400116b0 f   pjmedia-x86_64-x64-vc14-debug-dynamic:sdp.obj
 0001:000106d0       init_sdp_parser            00000001400116d0 f   pjmedia-x86_64-x64-vc14-debug-dynamic:sdp.obj
 0001:00010780       print_connection_info      0000000140011780 f   pjmedia-x86_64-x64-vc14-debug-dynamic:sdp.obj
 0001:00010830       print_bandw                0000000140011830 f   pjmedia-x86_64-x64-vc14-debug-dynamic:sdp.obj
 0001:00010950       print_attr                 0000000140011950 f   pjmedia-x86_64-x64-vc14-debug-dynamic:sdp.obj
 0001:00010aa0       print_media_desc           0000000140011aa0 f   pjmedia-x86_64-x64-vc14-debug-dynamic:sdp.obj
 0001:00010e60       print_session              0000000140011e60 f   pjmedia-x86_64-x64-vc14-debug-dynamic:sdp.obj
 0001:00011460       apply_media_direction      0000000140012460 f   pjmedia-x86_64-x64-vc14-debug-dynamic:sdp.obj
 0001:00011700       validate_sdp_conn          0000000140012700 f   pjmedia-x86_64-x64-vc14-debug-dynamic:sdp.obj
 0001:00012a10       pj_scan_is_eof             0000000140013a10 f   pjmedia-x86_64-x64-vc14-debug-dynamic:sdp.obj
 0001:00012a60       pj_list_init               0000000140013a60 f   pjmedia-x86_64-x64-vc14-debug-dynamic:endpoint.obj
 0001:00012a90       pj_list_push_back          0000000140013a90 f   pjmedia-x86_64-x64-vc14-debug-dynamic:endpoint.obj
 0001:00012ac0       pj_pool_zalloc             0000000140013ac0 f   pjmedia-x86_64-x64-vc14-debug-dynamic:endpoint.obj
 0001:00012af0       pj_bzero                   0000000140013af0 f   pjmedia-x86_64-x64-vc14-debug-dynamic:endpoint.obj
 0001:000148a0       worker_proc                00000001400158a0 f   pjmedia-x86_64-x64-vc14-debug-dynamic:endpoint.obj
 0001:00014900       init_sdp_media             0000000140015900 f   pjmedia-x86_64-x64-vc14-debug-dynamic:endpoint.obj
 0001:00014be0       good_number                0000000140015be0 f   pjmedia-x86_64-x64-vc14-debug-dynamic:endpoint.obj
 0001:00015540       pj_list_init               0000000140016540 f   pjmedia-x86_64-x64-vc14-debug-dynamic:codec.obj
 0001:00015570       pj_list_push_back          0000000140016570 f   pjmedia-x86_64-x64-vc14-debug-dynamic:codec.obj
 0001:000155a0       pj_pool_zalloc             00000001400165a0 f   pjmedia-x86_64-x64-vc14-debug-dynamic:codec.obj
 0001:000155d0       pj_bzero                   00000001400165d0 f   pjmedia-x86_64-x64-vc14-debug-dynamic:codec.obj
 0001:00015600       pj_memcpy                  0000000140016600 f   pjmedia-x86_64-x64-vc14-debug-dynamic:codec.obj
 0001:00016c60       sort_codecs                0000000140017c60 f   pjmedia-x86_64-x64-vc14-debug-dynamic:codec.obj
 0001:00016d80       swap_codec                 0000000140017d80 f   pjmedia-x86_64-x64-vc14-debug-dynamic:codec.obj
 0001:00017a40       base256to64                0000000140018a40 f   pjlib-util-x86_64-x64-vc14-debug-dynamic:base64.obj
 0001:00017d60       base256_char               0000000140018d60 f   pjlib-util-x86_64-x64-vc14-debug-dynamic:base64.obj
 0001:00019740       pj_isxdigit                000000014001a740 f   pjlib-util-x86_64-x64-vc14-debug-dynamic:scanner.obj
 0001:00019760       pj_hex_digit_to_val        000000014001a760 f   pjlib-util-x86_64-x64-vc14-debug-dynamic:scanner.obj
 0001:000197b0       pj_strset                  000000014001a7b0 f   pjlib-util-x86_64-x64-vc14-debug-dynamic:scanner.obj
 0001:000197f0       pj_strset3                 000000014001a7f0 f   pjlib-util-x86_64-x64-vc14-debug-dynamic:scanner.obj
 0001:00019840       pj_bzero                   000000014001a840 f   pjlib-util-x86_64-x64-vc14-debug-dynamic:scanner.obj
 0001:00019870       pj_memmove                 000000014001a870 f   pjlib-util-x86_64-x64-vc14-debug-dynamic:scanner.obj
 0001:000198b0       pj_scan_syntax_err         000000014001a8b0 f   pjlib-util-x86_64-x64-vc14-debug-dynamic:scanner.obj
 0001:00019f80       pj_cis_match               000000014001af80 f   pjlib-util-x86_64-x64-vc14-debug-dynamic:scanner.obj
 0001:0001c870       pj_strlen                  000000014001d870 f   pjlib-x86_64-x64-vc14-debug-dynamic:os_core_win32.obj
 0001:0001c890       pj_bzero                   000000014001d890 f   pjlib-x86_64-x64-vc14-debug-dynamic:os_core_win32.obj
 0001:0001c8c0       init_mutex                 000000014001d8c0 f   pjlib-x86_64-x64-vc14-debug-dynamic:os_core_win32.obj
 0001:0001c9a0       thread_main                000000014001d9a0 f   pjlib-x86_64-x64-vc14-debug-dynamic:os_core_win32.obj
 0001:0001ca80       pj_sem_wait_for            000000014001da80 f   pjlib-x86_64-x64-vc14-debug-dynamic:os_core_win32.obj
 0001:0001cb90       pj_event_wait_for          000000014001db90 f   pjlib-x86_64-x64-vc14-debug-dynamic:os_core_win32.obj
 0001:0001cca0       pj_color_to_os_attr        000000014001dca0 f   pjlib-x86_64-x64-vc14-debug-dynamic:os_core_win32.obj
 0001:0001cd20       os_attr_to_pj_color        000000014001dd20 f   pjlib-x86_64-x64-vc14-debug-dynamic:os_core_win32.obj
 0001:0001e130       pj_bzero                   000000014001f130 f   pjlib-x86_64-x64-vc14-debug-dynamic:pool.obj
 0001:0001e160       pj_pool_create_block       000000014001f160 f   pjlib-x86_64-x64-vc14-debug-dynamic:pool.obj
 0001:0001e290       reset_pool                 000000014001f290 f   pjlib-x86_64-x64-vc14-debug-dynamic:pool.obj
 0001:0001e640       pj_list_init               000000014001f640 f   pjlib-x86_64-x64-vc14-debug-dynamic:pool.obj
 0001:0001e670       pj_list_empty              000000014001f670 f   pjlib-x86_64-x64-vc14-debug-dynamic:pool_caching.obj
 0001:0001e970       pj_bzero                   000000014001f970 f   pjlib-x86_64-x64-vc14-debug-dynamic:pool_caching.obj
 0001:0001e9a0       pj_memcpy                  000000014001f9a0 f   pjlib-x86_64-x64-vc14-debug-dynamic:pool_caching.obj
 0001:0001e9e0       cpool_create_pool          000000014001f9e0 f   pjlib-x86_64-x64-vc14-debug-dynamic:pool_caching.obj
 0001:0001ec50       cpool_release_pool         000000014001fc50 f   pjlib-x86_64-x64-vc14-debug-dynamic:pool_caching.obj
 0001:0001ee20       cpool_dump_status          000000014001fe20 f   pjlib-x86_64-x64-vc14-debug-dynamic:pool_caching.obj
 0001:0001f050       cpool_on_block_alloc       0000000140020050 f   pjlib-x86_64-x64-vc14-debug-dynamic:pool_caching.obj
 0001:0001f0b0       cpool_on_block_free        00000001400200b0 f   pjlib-x86_64-x64-vc14-debug-dynamic:pool_caching.obj
 0001:0001f390       pj_list_init               0000000140020390 f   pjlib-x86_64-x64-vc14-debug-dynamic:pool_caching.obj
 0001:0001fb30       pj_bzero                   0000000140020b30 f   pjlib-x86_64-x64-vc14-debug-dynamic:errno.obj
 0001:0001fb60       pj_memcpy                  0000000140020b60 f   pjlib-x86_64-x64-vc14-debug-dynamic:errno.obj
 0001:0001fba0       pjlib_error                0000000140020ba0 f   pjlib-x86_64-x64-vc14-debug-dynamic:errno.obj
 0001:0001fcb0       invoke_log                 0000000140020cb0 f   pjlib-x86_64-x64-vc14-debug-dynamic:errno.obj
 0001:0001fd00       pj_perror_imp              0000000140020d00 f   pjlib-x86_64-x64-vc14-debug-dynamic:errno.obj
 0001:00020a6c       $LN15                      0000000140021a6c     pjlib-x86_64-x64-vc14-debug-dynamic:log.obj
 0001:00020a90       $LN14                      0000000140021a90     pjlib-x86_64-x64-vc14-debug-dynamic:log.obj
 0001:00020b60       $LN13                      0000000140021b60     pjlib-x86_64-x64-vc14-debug-dynamic:log.obj
 0001:00020da0       pj_memset                  0000000140021da0 f   pjlib-x86_64-x64-vc14-debug-dynamic:log.obj
 0001:00020dd0       logging_shutdown           0000000140021dd0 f   pjlib-x86_64-x64-vc14-debug-dynamic:log.obj
 0001:00020e20       log_set_indent             0000000140021e20 f   pjlib-x86_64-x64-vc14-debug-dynamic:log.obj
 0001:00020e60       log_get_raw_indent         0000000140021e60 f   pjlib-x86_64-x64-vc14-debug-dynamic:log.obj
 0001:00020e80       log_get_indent             0000000140021e80 f   pjlib-x86_64-x64-vc14-debug-dynamic:log.obj
 0001:00020ec0       suspend_logging            0000000140021ec0 f   pjlib-x86_64-x64-vc14-debug-dynamic:log.obj
 0001:00020f10       resume_logging             0000000140021f10 f   pjlib-x86_64-x64-vc14-debug-dynamic:log.obj
 0001:00020f60       is_logging_suspended       0000000140021f60 f   pjlib-x86_64-x64-vc14-debug-dynamic:log.obj
 0001:000213b0       default_block_alloc        00000001400223b0 f   pjlib-x86_64-x64-vc14-debug-dynamic:pool_policy_malloc.obj
 0001:00021450       default_block_free         0000000140022450 f   pjlib-x86_64-x64-vc14-debug-dynamic:pool_policy_malloc.obj
 0001:000214b0       default_pool_callback      00000001400224b0 f   pjlib-x86_64-x64-vc14-debug-dynamic:pool_policy_malloc.obj
 0001:00023530       pj_memcpy                  0000000140024530 f   pjlib-x86_64-x64-vc14-debug-dynamic:string.obj
 0001:00023570       pj_memcmp                  0000000140024570 f   pjlib-x86_64-x64-vc14-debug-dynamic:string.obj
 0001:000235b0       pj_memchr                  00000001400245b0 f   pjlib-x86_64-x64-vc14-debug-dynamic:string.obj
 0001:000235e0       pj_isdigit                 00000001400245e0 f   pjlib-x86_64-x64-vc14-debug-dynamic:string.obj
 0001:00023600       pj_isspace                 0000000140024600 f   pjlib-x86_64-x64-vc14-debug-dynamic:string.obj
 0001:00023620       pj_isxdigit                0000000140024620 f   pjlib-x86_64-x64-vc14-debug-dynamic:string.obj
 0001:00023640       pj_val_to_hex_digit        0000000140024640 f   pjlib-x86_64-x64-vc14-debug-dynamic:string.obj
 0001:000236a0       pj_hex_digit_to_val        00000001400246a0 f   pjlib-x86_64-x64-vc14-debug-dynamic:string.obj
 0001:000244c0       pj_bzero                   00000001400254c0 f   pjlib-x86_64-x64-vc14-debug-dynamic:file_access_win32.obj
 0001:000244f0       get_file_size              00000001400254f0 f   pjlib-x86_64-x64-vc14-debug-dynamic:file_access_win32.obj
 0001:000245b0       create_file                00000001400255b0 f   pjlib-x86_64-x64-vc14-debug-dynamic:file_access_win32.obj
 0001:00024610       file_time_to_time_val      0000000140025610 f   pjlib-x86_64-x64-vc14-debug-dynamic:file_access_win32.obj
 0001:00024f80       set_file_pointer           0000000140025f80 f   pjlib-x86_64-x64-vc14-debug-dynamic:file_io_win32.obj
 0001:00026e70       pj_isdigit                 0000000140027e70 f   pjlib-x86_64-x64-vc14-debug-dynamic:sock_common.obj
 0001:00026e90       pj_strchr                  0000000140027e90 f   pjlib-x86_64-x64-vc14-debug-dynamic:sock_common.obj
 0001:00026ee0       pj_bzero                   0000000140027ee0 f   pjlib-x86_64-x64-vc14-debug-dynamic:sock_common.obj
 0001:00026f10       pj_memcpy                  0000000140027f10 f   pjlib-x86_64-x64-vc14-debug-dynamic:sock_common.obj
 0001:00026f50       pj_memcmp                  0000000140027f50 f   pjlib-x86_64-x64-vc14-debug-dynamic:sock_common.obj
 0001:00028c20       pj_memmove                 0000000140029c20 f   pjlib-x86_64-x64-vc14-debug-dynamic:array.obj
 0001:00029790       pj_list_push_back          000000014002a790 f   pjlib-x86_64-x64-vc14-debug-dynamic:lock.obj
 0001:000297c0       pj_pool_zalloc             000000014002a7c0 f   pjlib-x86_64-x64-vc14-debug-dynamic:lock.obj
 0001:000297f0       pj_bzero                   000000014002a7f0 f   pjlib-x86_64-x64-vc14-debug-dynamic:lock.obj
 0001:00029820       pj_memcpy                  000000014002a820 f   pjlib-x86_64-x64-vc14-debug-dynamic:lock.obj
 0001:00029860       create_mutex_lock          000000014002a860 f   pjlib-x86_64-x64-vc14-debug-dynamic:lock.obj
 0001:00029950       null_op                    000000014002a950 f   pjlib-x86_64-x64-vc14-debug-dynamic:lock.obj
 0001:00029960       grp_lock_set_owner_thread  000000014002a960 f   pjlib-x86_64-x64-vc14-debug-dynamic:lock.obj
 0001:000299e0       grp_lock_unset_owner_thread 000000014002a9e0 f   pjlib-x86_64-x64-vc14-debug-dynamic:lock.obj
 0001:00029a90       grp_lock_acquire           000000014002aa90 f   pjlib-x86_64-x64-vc14-debug-dynamic:lock.obj
 0001:00029b30       grp_lock_tryacquire        000000014002ab30 f   pjlib-x86_64-x64-vc14-debug-dynamic:lock.obj
 0001:00029c20       grp_lock_release           000000014002ac20 f   pjlib-x86_64-x64-vc14-debug-dynamic:lock.obj
 0001:00029c90       grp_lock_add_handler       000000014002ac90 f   pjlib-x86_64-x64-vc14-debug-dynamic:lock.obj
 0001:00029d40       grp_lock_destroy           000000014002ad40 f   pjlib-x86_64-x64-vc14-debug-dynamic:lock.obj
 0001:00029e80       grp_lock_add_ref           000000014002ae80 f   pjlib-x86_64-x64-vc14-debug-dynamic:lock.obj
 0001:00029eb0       grp_lock_dec_ref           000000014002aeb0 f   pjlib-x86_64-x64-vc14-debug-dynamic:lock.obj
 0001:0002a3a0       pj_list_init               000000014002b3a0 f   pjlib-x86_64-x64-vc14-debug-dynamic:lock.obj
 0001:0002a440       platform_rand              000000014002b440 f   pjlib-x86_64-x64-vc14-debug-dynamic:rand.obj
 0001:0002a480       pj_list_empty              000000014002b480 f   pjlib-x86_64-x64-vc14-debug-dynamic:list.obj
 0001:0002a820       pj_link_node               000000014002b820 f   pjlib-x86_64-x64-vc14-debug-dynamic:list.obj
 0001:0002a940       pj_list_init               000000014002b940 f   pjlib-x86_64-x64-vc14-debug-dynamic:list.obj
 0001:0002acb0       exception_cleanup          000000014002bcb0 f   pjlib-x86_64-x64-vc14-debug-dynamic:except.obj
 0001:0002c430       pj_bzero                   000000014002d430 f   pjlib-x86_64-x64-vc14-debug-dynamic:sock_bsd.obj
 0001:0002c460       pj_memcpy                  000000014002d460 f   pjlib-x86_64-x64-vc14-debug-dynamic:sock_bsd.obj
 0001:0002cd10       pj_bzero                   000000014002dd10 f   pjlib-x86_64-x64-vc14-debug-dynamic:os_time_win32.obj
 0001:0002cd40       get_base_time              000000014002dd40 f   pjlib-x86_64-x64-vc14-debug-dynamic:os_time_win32.obj
 0001:0002f130       pj_list_empty              0000000140030130 f   pjlib-x86_64-x64-vc14-debug-dynamic:ioqueue_select.obj
 0001:0002f170       pj_list_push_back          0000000140030170 f   pjlib-x86_64-x64-vc14-debug-dynamic:ioqueue_select.obj
 0001:0002f1a0       pj_bzero                   00000001400301a0 f   pjlib-x86_64-x64-vc14-debug-dynamic:ioqueue_select.obj
 0001:0002f1d0       pj_memcpy                  00000001400301d0 f   pjlib-x86_64-x64-vc14-debug-dynamic:ioqueue_select.obj
 0001:0002f210       ioqueue_add_to_set         0000000140030210 f   pjlib-x86_64-x64-vc14-debug-dynamic:ioqueue_select.obj
 0001:0002f2e0       ioqueue_remove_from_set    00000001400302e0 f   pjlib-x86_64-x64-vc14-debug-dynamic:ioqueue_select.obj
 0001:0002f3b0       ioqueue_init               00000001400303b0 f   pjlib-x86_64-x64-vc14-debug-dynamic:ioqueue_select.obj
 0001:0002f3e0       ioqueue_destroy            00000001400303e0 f   pjlib-x86_64-x64-vc14-debug-dynamic:ioqueue_select.obj
 0001:0002f430       ioqueue_init_key           0000000140030430 f   pjlib-x86_64-x64-vc14-debug-dynamic:ioqueue_select.obj
 0001:0002f5d0       key_has_pending_write      00000001400305d0 f   pjlib-x86_64-x64-vc14-debug-dynamic:ioqueue_select.obj
 0001:0002f620       key_has_pending_read       0000000140030620 f   pjlib-x86_64-x64-vc14-debug-dynamic:ioqueue_select.obj
 0001:0002f660       key_has_pending_accept     0000000140030660 f   pjlib-x86_64-x64-vc14-debug-dynamic:ioqueue_select.obj
 0001:0002f6b0       key_has_pending_connect    00000001400306b0 f   pjlib-x86_64-x64-vc14-debug-dynamic:ioqueue_select.obj
 0001:000300e0       scan_closing_keys          00000001400310e0 f   pjlib-x86_64-x64-vc14-debug-dynamic:ioqueue_select.obj
 0001:000301f0       rescan_fdset               00000001400311f0 f   pjlib-x86_64-x64-vc14-debug-dynamic:ioqueue_select.obj
 0001:00030210       increment_counter          0000000140031210 f   pjlib-x86_64-x64-vc14-debug-dynamic:ioqueue_select.obj
 0001:00030270       decrement_counter          0000000140031270 f   pjlib-x86_64-x64-vc14-debug-dynamic:ioqueue_select.obj
 0001:000310d0       pj_list_init               00000001400320d0 f   pjlib-x86_64-x64-vc14-debug-dynamic:ioqueue_select.obj
 0001:00031170       hex2digit                  0000000140032170 f   pjlib-x86_64-x64-vc14-debug-dynamic:guid_win32.obj
 0001:000311e0       guid_to_str                00000001400321e0 f   pjlib-x86_64-x64-vc14-debug-dynamic:guid_win32.obj
 0001:00031b30       stack_alloc                0000000140032b30 f   pjlib-x86_64-x64-vc14-debug-dynamic:pool_buf.obj
 0001:00031be0       pool_buf_cleanup           0000000140032be0 f   pjlib-x86_64-x64-vc14-debug-dynamic:pool_buf.obj
 0001:00031c20       pool_buf_initialize        0000000140032c20 f   pjlib-x86_64-x64-vc14-debug-dynamic:pool_buf.obj
 0001:00031df0       pj_memcpy                  0000000140032df0 f   pjlib-x86_64-x64-vc14-debug-dynamic:os_error_win32.obj
 0001:000321e0       term_set_color             00000001400331e0 f   pjlib-x86_64-x64-vc14-debug-dynamic:log_writer_stdout.obj
 0001:00032210       term_restore_color         0000000140033210 f   pjlib-x86_64-x64-vc14-debug-dynamic:log_writer_stdout.obj
 0001:00032260       pj_bzero                   0000000140033260 f   pjlib-x86_64-x64-vc14-debug-dynamic:ip_helper_win32.obj
 0001:00032290       pj_memcpy                  0000000140033290 f   pjlib-x86_64-x64-vc14-debug-dynamic:ip_helper_win32.obj
 0001:000322d0       pj_enum_ip_option_default  00000001400332d0 f   pjlib-x86_64-x64-vc14-debug-dynamic:ip_helper_win32.obj
 0001:000327c0       unload_iphlp_module        00000001400337c0 f   pjlib-x86_64-x64-vc14-debug-dynamic:ip_helper_win32.obj
 0001:00032820       GetIpHlpApiProc            0000000140033820 f   pjlib-x86_64-x64-vc14-debug-dynamic:ip_helper_win32.obj
 0001:00032890       MyGetIpAddrTable           0000000140033890 f   pjlib-x86_64-x64-vc14-debug-dynamic:ip_helper_win32.obj
 0001:00032900       MyGetAdapterAddresses      0000000140033900 f   pjlib-x86_64-x64-vc14-debug-dynamic:ip_helper_win32.obj
 0001:00032980       MyGetIfEntry               0000000140033980 f   pjlib-x86_64-x64-vc14-debug-dynamic:ip_helper_win32.obj
 0001:000329d0       MyGetIpForwardTable        00000001400339d0 f   pjlib-x86_64-x64-vc14-debug-dynamic:ip_helper_win32.obj
 0001:00032a40       enum_ipv4_interface        0000000140033a40 f   pjlib-x86_64-x64-vc14-debug-dynamic:ip_helper_win32.obj
 0001:00032d60       enum_ipv4_ipv6_interface   0000000140033d60 f   pjlib-x86_64-x64-vc14-debug-dynamic:ip_helper_win32.obj
 0001:000337b0       pj_bzero                   00000001400347b0 f   pjlib-x86_64-x64-vc14-debug-dynamic:addr_resolv_sock.obj
 0001:000337e0       pj_memcpy                  00000001400347e0 f   pjlib-x86_64-x64-vc14-debug-dynamic:addr_resolv_sock.obj
 0001:00033d40       get_elapsed                0000000140034d40 f   pjlib-x86_64-x64-vc14-debug-dynamic:os_timestamp_common.obj
 0001:00033d70       elapsed_msec               0000000140034d70 f   pjlib-x86_64-x64-vc14-debug-dynamic:os_timestamp_common.obj
 0001:00033e10       elapsed_usec               0000000140034e10 f   pjlib-x86_64-x64-vc14-debug-dynamic:os_timestamp_common.obj
 0001:00033fb0       pj_set_timestamp32         0000000140034fb0 f   pjlib-x86_64-x64-vc14-debug-dynamic:os_timestamp_common.obj
 0001:00036568       $LN12                      0000000140037568     libsrtp-x86_64-x64-vc14-debug-dynamic:srtp.obj
 0001:000365f8       $LN12                      00000001400375f8     libsrtp-x86_64-x64-vc14-debug-dynamic:srtp.obj
 0001:00037b80       be64_to_cpu                0000000140038b80 f   libsrtp-x86_64-x64-vc14-debug-dynamic:srtp.obj
 0001:000389c0       srtp_validate_rtp_header   00000001400399c0 f   libsrtp-x86_64-x64-vc14-debug-dynamic:srtp.obj
 0001:00038ab0       srtp_stream_free           0000000140039ab0 f   libsrtp-x86_64-x64-vc14-debug-dynamic:srtp.obj
 0001:00039790       srtp_kdf_init              000000014003a790 f   libsrtp-x86_64-x64-vc14-debug-dynamic:srtp.obj
 0001:00039850       srtp_kdf_generate          000000014003a850 f   libsrtp-x86_64-x64-vc14-debug-dynamic:srtp.obj
 0001:00039950       srtp_kdf_clear             000000014003a950 f   libsrtp-x86_64-x64-vc14-debug-dynamic:srtp.obj
 0001:00039990       base_key_length            000000014003a990 f   libsrtp-x86_64-x64-vc14-debug-dynamic:srtp.obj
 0001:00039d10       srtp_protect_extension_header 000000014003ad10 f   libsrtp-x86_64-x64-vc14-debug-dynamic:srtp.obj
 0001:00039d90       srtp_process_header_encryption 000000014003ad90 f   libsrtp-x86_64-x64-vc14-debug-dynamic:srtp.obj
 0001:0003a100       srtp_calc_aead_iv          000000014003b100 f   libsrtp-x86_64-x64-vc14-debug-dynamic:srtp.obj
 0001:0003a4e0       srtp_estimate_index        000000014003b4e0 f   libsrtp-x86_64-x64-vc14-debug-dynamic:srtp.obj
 0001:0003a5b0       srtp_get_est_pkt_index     000000014003b5b0 f   libsrtp-x86_64-x64-vc14-debug-dynamic:srtp.obj
 0001:0003a680       srtp_protect_aead          000000014003b680 f   libsrtp-x86_64-x64-vc14-debug-dynamic:srtp.obj
 0001:0003aba0       srtp_unprotect_aead        000000014003bba0 f   libsrtp-x86_64-x64-vc14-debug-dynamic:srtp.obj
 0001:0003b0d0       update_template_streams    000000014003c0d0 f   libsrtp-x86_64-x64-vc14-debug-dynamic:srtp.obj
 0001:0003b3b0       update_stream              000000014003c3b0 f   libsrtp-x86_64-x64-vc14-debug-dynamic:srtp.obj
 0001:0003b500       srtp_calc_aead_iv_srtcp    000000014003c500 f   libsrtp-x86_64-x64-vc14-debug-dynamic:srtp.obj
 0001:0003b710       srtp_protect_rtcp_aead     000000014003c710 f   libsrtp-x86_64-x64-vc14-debug-dynamic:srtp.obj
 0001:0003bb10       srtp_unprotect_rtcp_aead   000000014003cb10 f   libsrtp-x86_64-x64-vc14-debug-dynamic:srtp.obj
 0001:000410a0       srtp_cipher_rand           00000001400420a0 f   libsrtp-x86_64-x64-vc14-debug-dynamic:cipher.obj
 0001:00042460       srtp_crypto_kernel_do_load_cipher_type 0000000140043460 f   libsrtp-x86_64-x64-vc14-debug-dynamic:crypto_kernel.obj
 0001:00042e90       srtcp_packet_get_ekt_spi   0000000140043e90 f   libsrtp-x86_64-x64-vc14-debug-dynamic:ekt.obj
 0001:00042ed0       srtcp_packet_get_ekt_roc   0000000140043ed0 f   libsrtp-x86_64-x64-vc14-debug-dynamic:ekt.obj
 0001:00042f10       srtcp_packet_get_emk_location 0000000140043f10 f   libsrtp-x86_64-x64-vc14-debug-dynamic:ekt.obj
 0001:00043a30       srtp_null_cipher_alloc     0000000140044a30 f   libsrtp-x86_64-x64-vc14-debug-dynamic:null_cipher.obj
 0001:00043af0       srtp_null_cipher_dealloc   0000000140044af0 f   libsrtp-x86_64-x64-vc14-debug-dynamic:null_cipher.obj
 0001:00043b20       srtp_null_cipher_init      0000000140044b20 f   libsrtp-x86_64-x64-vc14-debug-dynamic:null_cipher.obj
 0001:00043b60       srtp_null_cipher_set_iv    0000000140044b60 f   libsrtp-x86_64-x64-vc14-debug-dynamic:null_cipher.obj
 0001:00043b80       srtp_null_cipher_encrypt   0000000140044b80 f   libsrtp-x86_64-x64-vc14-debug-dynamic:null_cipher.obj
 0001:00043bf0       srtp_aes_icm_alloc         0000000140044bf0 f   libsrtp-x86_64-x64-vc14-debug-dynamic:aes_icm.obj
 0001:00043d50       srtp_aes_icm_dealloc       0000000140044d50 f   libsrtp-x86_64-x64-vc14-debug-dynamic:aes_icm.obj
 0001:00043db0       srtp_aes_icm_context_init  0000000140044db0 f   libsrtp-x86_64-x64-vc14-debug-dynamic:aes_icm.obj
 0001:000440a0       srtp_aes_icm_set_iv        00000001400450a0 f   libsrtp-x86_64-x64-vc14-debug-dynamic:aes_icm.obj
 0001:00044230       srtp_aes_icm_advance       0000000140045230 f   libsrtp-x86_64-x64-vc14-debug-dynamic:aes_icm.obj
 0001:000443c0       srtp_aes_icm_encrypt       00000001400453c0 f   libsrtp-x86_64-x64-vc14-debug-dynamic:aes_icm.obj
 0001:00044e50       srtp_null_auth_alloc       0000000140045e50 f   libsrtp-x86_64-x64-vc14-debug-dynamic:null_auth.obj
 0001:00044f40       srtp_null_auth_dealloc     0000000140045f40 f   libsrtp-x86_64-x64-vc14-debug-dynamic:null_auth.obj
 0001:00044f70       srtp_null_auth_init        0000000140045f70 f   libsrtp-x86_64-x64-vc14-debug-dynamic:null_auth.obj
 0001:00044f90       srtp_null_auth_compute     0000000140045f90 f   libsrtp-x86_64-x64-vc14-debug-dynamic:null_auth.obj
 0001:00044fb0       srtp_null_auth_update      0000000140045fb0 f   libsrtp-x86_64-x64-vc14-debug-dynamic:null_auth.obj
 0001:00044fd0       srtp_null_auth_start       0000000140045fd0 f   libsrtp-x86_64-x64-vc14-debug-dynamic:null_auth.obj
 0001:00045040       srtp_hmac_alloc            0000000140046040 f   libsrtp-x86_64-x64-vc14-debug-dynamic:hmac.obj
 0001:00045150       srtp_hmac_dealloc          0000000140046150 f   libsrtp-x86_64-x64-vc14-debug-dynamic:hmac.obj
 0001:00045180       srtp_hmac_init             0000000140046180 f   libsrtp-x86_64-x64-vc14-debug-dynamic:hmac.obj
 0001:00045300       srtp_hmac_start            0000000140046300 f   libsrtp-x86_64-x64-vc14-debug-dynamic:hmac.obj
 0001:00045350       srtp_hmac_update           0000000140046350 f   libsrtp-x86_64-x64-vc14-debug-dynamic:hmac.obj
 0001:000453d0       srtp_hmac_compute          00000001400463d0 f   libsrtp-x86_64-x64-vc14-debug-dynamic:hmac.obj
 0001:000465c0       aes_128_expand_encryption_key 00000001400475c0 f   libsrtp-x86_64-x64-vc14-debug-dynamic:aes.obj
 0001:00046950       aes_256_expand_encryption_key 0000000140047950 f   libsrtp-x86_64-x64-vc14-debug-dynamic:aes.obj
 0001:00046e60       aes_round                  0000000140047e60 f   libsrtp-x86_64-x64-vc14-debug-dynamic:aes.obj
 0001:00047100       aes_inv_round              0000000140048100 f   libsrtp-x86_64-x64-vc14-debug-dynamic:aes.obj
 0001:000473a0       aes_final_round            00000001400483a0 f   libsrtp-x86_64-x64-vc14-debug-dynamic:aes.obj
 0001:00047740       aes_inv_final_round        0000000140048740 f   libsrtp-x86_64-x64-vc14-debug-dynamic:aes.obj
 0001:0004a7e0       $$000000                   000000014004b7e0     MSVCRTD:amdsecgs.obj
 0001:0004a820       ?pre_c_initialization@@YAHXZ 000000014004b820 f   MSVCRTD:exe_main.obj
 0001:0004a900       ?post_pgo_initialization@@YAHXZ 000000014004b900 f   MSVCRTD:exe_main.obj
 0001:0004a920       ?pre_cpp_initialization@@YAXXZ 000000014004b920 f   MSVCRTD:exe_main.obj
 0001:0004a940       ?__scrt_common_main@@YAHXZ 000000014004b940 f   MSVCRTD:exe_main.obj
 0001:0004a960       ?__scrt_common_main_seh@@YAHXZ 000000014004b960 f   MSVCRTD:exe_main.obj
 0001:0004abb0       ?invoke_main@@YAHXZ        000000014004bbb0 f   MSVCRTD:exe_main.obj
 0001:0004b040       capture_current_context    000000014004c040 f   MSVCRTD:gs_report.obj
 0001:0004b100       capture_previous_context   000000014004c100 f   MSVCRTD:gs_report.obj
 0001:0004b1e0       $$000000                   000000014004c1e0     MSVCRTD:chkstk.obj
 0001:0004b260       ?find_pe_section@@YAPEAU_IMAGE_SECTION_HEADER@@QEAE_K@Z 000000014004c260 f   MSVCRTD:utility.obj
 0001:0004b360       ?is_potentially_valid_image_base@@YA_NQEAX@Z 000000014004c360 f   MSVCRTD:utility.obj
 0001:0004ba80       __get_entropy              000000014004ca80 f   MSVCRTD:gs_support.obj
 0001:0004c400       __castguard_compat_check   000000014004d400 f   MSVCRTD:guard_support.obj
 0001:0004c5e0       __castguard_slow_path_compat_check 000000014004d5e0 f   MSVCRTD:guard_support.obj
 0001:0004e870       $$000000                   000000014004f870     MSVCRTD:guard_dispatch.obj
 0001:0004e890       $$000000                   000000014004f890     MSVCRTD:guard_xfg_dispatch.obj
 0001:0004f8b0       ?filt$0@?0??__scrt_common_main_seh@@YAHXZ@4HA 00000001400508b0 f   MSVCRTD:exe_main.obj
 0001:0004f8f0       __scrt_is_nonwritable_in_current_image$filt$0 00000001400508f0 f   MSVCRTD:utility.obj
 0002:00000110       ?pre_cpp_initializer@@3P6AXXZEA 0000000140052110     MSVCRTD:exe_main.obj
 0002:00000440       ?pre_c_initializer@@3P6AHXZEA 0000000140052440     MSVCRTD:exe_main.obj
 0002:00000550       ?post_pgo_initializer@@3P6AHXZEA 0000000140052550     MSVCRTD:exe_main.obj
 0002:00000bb0       err_str                    0000000140052bb0     pjmedia-x86_64-x64-vc14-debug-dynamic:errno.obj
 0002:000013a8       ID_RTP_AVP                 00000001400533a8     pjmedia-x86_64-x64-vc14-debug-dynamic:transport_srtp.obj
 0002:000013b8       ID_RTP_SAVP                00000001400533b8     pjmedia-x86_64-x64-vc14-debug-dynamic:transport_srtp.obj
 0002:000013c8       ID_CRYPTO                  00000001400533c8     pjmedia-x86_64-x64-vc14-debug-dynamic:transport_srtp.obj
 0002:0000b258       STR_IN                     000000014005d258     pjmedia-x86_64-x64-vc14-debug-dynamic:endpoint.obj
 0002:0000b268       STR_IP4                    000000014005d268     pjmedia-x86_64-x64-vc14-debug-dynamic:endpoint.obj
 0002:0000b278       STR_IP6                    000000014005d278     pjmedia-x86_64-x64-vc14-debug-dynamic:endpoint.obj
 0002:0000b288       STR_RTP_AVP                000000014005d288     pjmedia-x86_64-x64-vc14-debug-dynamic:endpoint.obj
 0002:0000b298       STR_SDP_NAME               000000014005d298     pjmedia-x86_64-x64-vc14-debug-dynamic:endpoint.obj
 0002:0000b2a8       STR_SENDRECV               000000014005d2a8     pjmedia-x86_64-x64-vc14-debug-dynamic:endpoint.obj
 0002:0000b2d0       base64_char                000000014005d2d0     pjlib-util-x86_64-x64-vc14-debug-dynamic:base64.obj
 0002:0000b320       err_str                    000000014005d320     pjlib-x86_64-x64-vc14-debug-dynamic:errno.obj
 0002:0000b5b0       gaErrorList                000000014005d5b0     pjlib-x86_64-x64-vc14-debug-dynamic:os_error_win32.obj
 0002:0000ba10       srtp_null_cipher_description 000000014005da10     libsrtp-x86_64-x64-vc14-debug-dynamic:null_cipher.obj
 0002:0000ba20       srtp_null_cipher_test_0    000000014005da20     libsrtp-x86_64-x64-vc14-debug-dynamic:null_cipher.obj
 0002:0000bbb8       srtp_aes_icm_128_description 000000014005dbb8     libsrtp-x86_64-x64-vc14-debug-dynamic:aes_icm.obj
 0002:0000bbd8       srtp_aes_icm_256_description 000000014005dbd8     libsrtp-x86_64-x64-vc14-debug-dynamic:aes_icm.obj
 0002:0000bbf8       srtp_aes_icm_128_test_case_0_key 000000014005dbf8     libsrtp-x86_64-x64-vc14-debug-dynamic:aes_icm.obj
 0002:0000bc18       srtp_aes_icm_128_test_case_0_plaintext 000000014005dc18     libsrtp-x86_64-x64-vc14-debug-dynamic:aes_icm.obj
 0002:0000bc38       srtp_aes_icm_128_test_case_0_ciphertext 000000014005dc38     libsrtp-x86_64-x64-vc14-debug-dynamic:aes_icm.obj
 0002:0000bc60       srtp_aes_icm_128_test_case_0 000000014005dc60     libsrtp-x86_64-x64-vc14-debug-dynamic:aes_icm.obj
 0002:0000bcb8       srtp_aes_icm_256_test_case_0_key 000000014005dcb8     libsrtp-x86_64-x64-vc14-debug-dynamic:aes_icm.obj
 0002:0000bce8       srtp_aes_icm_256_test_case_0_plaintext 000000014005dce8     libsrtp-x86_64-x64-vc14-debug-dynamic:aes_icm.obj
 0002:0000bd08       srtp_aes_icm_256_test_case_0_ciphertext 000000014005dd08     libsrtp-x86_64-x64-vc14-debug-dynamic:aes_icm.obj
 0002:0000bd30       srtp_aes_icm_256_test_case_0 000000014005dd30     libsrtp-x86_64-x64-vc14-debug-dynamic:aes_icm.obj
 0002:0000be10       srtp_null_auth_test_case_0 000000014005de10     libsrtp-x86_64-x64-vc14-debug-dynamic:null_auth.obj
 0002:0000be48       srtp_null_auth_description 000000014005de48     libsrtp-x86_64-x64-vc14-debug-dynamic:null_auth.obj
 0002:0000bee0       srtp_hmac_test_case_0_key  000000014005dee0     libsrtp-x86_64-x64-vc14-debug-dynamic:hmac.obj
 0002:0000bef8       srtp_hmac_test_case_0_data 000000014005def8     libsrtp-x86_64-x64-vc14-debug-dynamic:hmac.obj
 0002:0000bf00       srtp_hmac_test_case_0_tag  000000014005df00     libsrtp-x86_64-x64-vc14-debug-dynamic:hmac.obj
 0002:0000bf18       srtp_hmac_test_case_0      000000014005df18     libsrtp-x86_64-x64-vc14-debug-dynamic:hmac.obj
 0002:0000bf50       srtp_hmac_description      000000014005df50     libsrtp-x86_64-x64-vc14-debug-dynamic:hmac.obj
 0002:0000c000       T0                         000000014005e000     libsrtp-x86_64-x64-vc14-debug-dynamic:aes.obj
 0002:0000c400       T1                         000000014005e400     libsrtp-x86_64-x64-vc14-debug-dynamic:aes.obj
 0002:0000c800       T2                         000000014005e800     libsrtp-x86_64-x64-vc14-debug-dynamic:aes.obj
 0002:0000cc00       T3                         000000014005ec00     libsrtp-x86_64-x64-vc14-debug-dynamic:aes.obj
 0002:0000d000       U0                         000000014005f000     libsrtp-x86_64-x64-vc14-debug-dynamic:aes.obj
 0002:0000d400       U1                         000000014005f400     libsrtp-x86_64-x64-vc14-debug-dynamic:aes.obj
 0002:0000d800       U2                         000000014005f800     libsrtp-x86_64-x64-vc14-debug-dynamic:aes.obj
 0002:0000dc00       U3                         000000014005fc00     libsrtp-x86_64-x64-vc14-debug-dynamic:aes.obj
 0002:0000e000       aes_sbox                   0000000140060000     libsrtp-x86_64-x64-vc14-debug-dynamic:aes.obj
 0002:0000e100       aes_inv_sbox               0000000140060100     libsrtp-x86_64-x64-vc14-debug-dynamic:aes.obj
 0002:0000e8d0       GS_ExceptionPointers       00000001400608d0     MSVCRTD:gs_report.obj
 0002:0000f458       $unwind$PJMEDIA_AFD_SPF    0000000140061458     latency.obj
 0002:0000f460       $unwind$pj_memcpy          0000000140061460     latency.obj
 0002:0000f468       $unwind$pjmedia_copy_samples 0000000140061468     latency.obj
 0002:0000f470       $unwind$PJMEDIA_PIA_SRATE  0000000140061470     latency.obj
 0002:0000f478       $unwind$PJMEDIA_PIA_SPF    0000000140061478     latency.obj
 0002:0000f480       $unwind$app_perror         0000000140061480     latency.obj
 0002:0000f490       $unwind$calculate_latency  0000000140061490     latency.obj
 0002:0000f498       $unwind$main               0000000140061498     latency.obj
 0002:0000f4b0       $unwind$_vfprintf_l        00000001400614b0     latency.obj
 0002:0000f4b8       $unwind$printf             00000001400614b8     latency.obj
 0002:0000f4c0       $unwind$pj_bzero           00000001400614c0     pjmedia-x86_64-x64-vc14-debug-dynamic:port.obj
 0002:0000f4c8       $unwind$pjmedia_port_info_init 00000001400614c8     pjmedia-x86_64-x64-vc14-debug-dynamic:port.obj
 0002:0000f4d4       $unwind$pjmedia_port_info_init2 00000001400614d4     pjmedia-x86_64-x64-vc14-debug-dynamic:port.obj
 0002:0000f4e0       $unwind$pjmedia_port_get_clock_src 00000001400614e0     pjmedia-x86_64-x64-vc14-debug-dynamic:port.obj
 0002:0000f4e8       $unwind$pjmedia_port_get_frame 00000001400614e8     pjmedia-x86_64-x64-vc14-debug-dynamic:port.obj
 0002:0000f4f0       $unwind$pjmedia_port_put_frame 00000001400614f0     pjmedia-x86_64-x64-vc14-debug-dynamic:port.obj
 0002:0000f4f8       $unwind$pjmedia_port_destroy 00000001400614f8     pjmedia-x86_64-x64-vc14-debug-dynamic:port.obj
 0002:0000f508       $unwind$pjmedia_strerror   0000000140061508     pjmedia-x86_64-x64-vc14-debug-dynamic:errno.obj
 0002:0000f518       $unwind$_vsnprintf_l       0000000140061518     pjmedia-x86_64-x64-vc14-debug-dynamic:errno.obj
 0002:0000f520       $unwind$_vsnprintf         0000000140061520     pjmedia-x86_64-x64-vc14-debug-dynamic:errno.obj
 0002:0000f528       $unwind$_snprintf          0000000140061528     pjmedia-x86_64-x64-vc14-debug-dynamic:errno.obj
 0002:0000f530       $unwind$pj_pool_zalloc     0000000140061530     pjmedia-x86_64-x64-vc14-debug-dynamic:wav_player.obj
 0002:0000f538       $unwind$pj_bzero           0000000140061538     pjmedia-x86_64-x64-vc14-debug-dynamic:wav_player.obj
 0002:0000f540       $unwind$pj_memset          0000000140061540     pjmedia-x86_64-x64-vc14-debug-dynamic:wav_player.obj
 0002:0000f548       $unwind$pj_memcpy          0000000140061548     pjmedia-x86_64-x64-vc14-debug-dynamic:wav_player.obj
 0002:0000f550       $unwind$pjmedia_wav_player_port_create 0000000140061550     pjmedia-x86_64-x64-vc14-debug-dynamic:wav_player.obj
 0002:0000f560       $unwind$pjmedia_wav_player_get_info 0000000140061560     pjmedia-x86_64-x64-vc14-debug-dynamic:wav_player.obj
 0002:0000f568       $unwind$pjmedia_wav_player_get_len 0000000140061568     pjmedia-x86_64-x64-vc14-debug-dynamic:wav_player.obj
 0002:0000f570       $unwind$pjmedia_wav_player_port_set_pos 0000000140061570     pjmedia-x86_64-x64-vc14-debug-dynamic:wav_player.obj
 0002:0000f578       $unwind$pjmedia_wav_player_port_get_pos 0000000140061578     pjmedia-x86_64-x64-vc14-debug-dynamic:wav_player.obj
 0002:0000f580       $unwind$pjmedia_wav_player_set_eof_cb 0000000140061580     pjmedia-x86_64-x64-vc14-debug-dynamic:wav_player.obj
 0002:0000f588       $unwind$pjmedia_wav_player_set_eof_cb2 0000000140061588     pjmedia-x86_64-x64-vc14-debug-dynamic:wav_player.obj
 0002:0000f590       $unwind$file_get_frame     0000000140061590     pjmedia-x86_64-x64-vc14-debug-dynamic:wav_player.obj
 0002:0000f5a0       $unwind$file_on_destroy    00000001400615a0     pjmedia-x86_64-x64-vc14-debug-dynamic:wav_player.obj
 0002:0000f5a8       $unwind$create_file_port   00000001400615a8     pjmedia-x86_64-x64-vc14-debug-dynamic:wav_player.obj
 0002:0000f5b4       $unwind$fill_buffer        00000001400615b4     pjmedia-x86_64-x64-vc14-debug-dynamic:wav_player.obj
 0002:0000f5bc       $unwind$file_on_event      00000001400615bc     pjmedia-x86_64-x64-vc14-debug-dynamic:wav_player.obj
 0002:0000f5d4       $unwind$pjmedia_format_copy 00000001400615d4     pjmedia-x86_64-x64-vc14-debug-dynamic:format.obj
 0002:0000f5dc       $unwind$pjmedia_format_get_audio_format_detail 00000001400615dc     pjmedia-x86_64-x64-vc14-debug-dynamic:format.obj
 0002:0000f5e4       $unwind$pj_memcpy          00000001400615e4     pjmedia-x86_64-x64-vc14-debug-dynamic:format.obj
 0002:0000f5f0       $unwind$_vsprintf_l        00000001400615f0     pjmedia-x86_64-x64-vc14-debug-dynamic:transport_srtp.obj
 0002:0000f5f8       $unwind$sprintf            00000001400615f8     pjmedia-x86_64-x64-vc14-debug-dynamic:transport_srtp.obj
 0002:0000f600       $unwind$pj_bzero           0000000140061600     pjmedia-x86_64-x64-vc14-debug-dynamic:transport_srtp.obj
 0002:0000f608       $unwind$pj_memcpy          0000000140061608     pjmedia-x86_64-x64-vc14-debug-dynamic:transport_srtp.obj
 0002:0000f610       $unwind$pj_memmove         0000000140061610     pjmedia-x86_64-x64-vc14-debug-dynamic:transport_srtp.obj
 0002:0000f618       $unwind$pjmedia_transport_get_info 0000000140061618     pjmedia-x86_64-x64-vc14-debug-dynamic:transport_srtp.obj
 0002:0000f620       $unwind$pjmedia_transport_attach2 0000000140061620     pjmedia-x86_64-x64-vc14-debug-dynamic:transport_srtp.obj
 0002:0000f628       $unwind$pjmedia_transport_detach 0000000140061628     pjmedia-x86_64-x64-vc14-debug-dynamic:transport_srtp.obj
 0002:0000f630       $unwind$pjmedia_transport_send_rtp 0000000140061630     pjmedia-x86_64-x64-vc14-debug-dynamic:transport_srtp.obj
 0002:0000f638       $unwind$pjmedia_transport_send_rtcp2 0000000140061638     pjmedia-x86_64-x64-vc14-debug-dynamic:transport_srtp.obj
 0002:0000f640       $unwind$pjmedia_transport_media_create 0000000140061640     pjmedia-x86_64-x64-vc14-debug-dynamic:transport_srtp.obj
 0002:0000f648       $unwind$pjmedia_transport_encode_sdp 0000000140061648     pjmedia-x86_64-x64-vc14-debug-dynamic:transport_srtp.obj
 0002:0000f650       $unwind$pjmedia_transport_media_start 0000000140061650     pjmedia-x86_64-x64-vc14-debug-dynamic:transport_srtp.obj
 0002:0000f658       $unwind$pjmedia_transport_media_stop 0000000140061658     pjmedia-x86_64-x64-vc14-debug-dynamic:transport_srtp.obj
 0002:0000f660       $unwind$pjmedia_transport_close 0000000140061660     pjmedia-x86_64-x64-vc14-debug-dynamic:transport_srtp.obj
 0002:0000f668       $unwind$pjmedia_transport_simulate_lost 0000000140061668     pjmedia-x86_64-x64-vc14-debug-dynamic:transport_srtp.obj
 0002:0000f670       $unwind$pjmedia_srtp_init_lib 0000000140061670     pjmedia-x86_64-x64-vc14-debug-dynamic:transport_srtp.obj
 0002:0000f678       $unwind$pjmedia_srtp_setting_default 0000000140061678     pjmedia-x86_64-x64-vc14-debug-dynamic:transport_srtp.obj
 0002:0000f680       $unwind$pjmedia_srtp_enum_crypto 0000000140061680     pjmedia-x86_64-x64-vc14-debug-dynamic:transport_srtp.obj
 0002:0000f68c       $unwind$pjmedia_srtp_enum_keying 000000014006168c     pjmedia-x86_64-x64-vc14-debug-dynamic:transport_srtp.obj
 0002:0000f694       $unwind$pjmedia_transport_srtp_create 0000000140061694     pjmedia-x86_64-x64-vc14-debug-dynamic:transport_srtp.obj
 0002:0000f6a0       $unwind$pjmedia_transport_srtp_start 00000001400616a0     pjmedia-x86_64-x64-vc14-debug-dynamic:transport_srtp.obj
 0002:0000f6b4       $unwind$pjmedia_transport_srtp_stop 00000001400616b4     pjmedia-x86_64-x64-vc14-debug-dynamic:transport_srtp.obj
 0002:0000f6bc       $unwind$pjmedia_transport_srtp_decrypt_pkt 00000001400616bc     pjmedia-x86_64-x64-vc14-debug-dynamic:transport_srtp.obj
 0002:0000f6c4       $unwind$pjmedia_transport_srtp_get_member 00000001400616c4     pjmedia-x86_64-x64-vc14-debug-dynamic:transport_srtp.obj
 0002:0000f6cc       $unwind$pj_pool_zalloc     00000001400616cc     pjmedia-x86_64-x64-vc14-debug-dynamic:transport_srtp.obj
 0002:0000f6d4       $unwind$pj_isdigit         00000001400616d4     pjmedia-x86_64-x64-vc14-debug-dynamic:transport_srtp.obj
 0002:0000f6dc       $unwind$srtp_rtp_cb        00000001400616dc     pjmedia-x86_64-x64-vc14-debug-dynamic:transport_srtp.obj
 0002:0000f6e8       $unwind$srtp_rtcp_cb       00000001400616e8     pjmedia-x86_64-x64-vc14-debug-dynamic:transport_srtp.obj
 0002:0000f6f0       $unwind$transport_get_info 00000001400616f0     pjmedia-x86_64-x64-vc14-debug-dynamic:transport_srtp.obj
 0002:0000f6fc       $unwind$transport_detach   00000001400616fc     pjmedia-x86_64-x64-vc14-debug-dynamic:transport_srtp.obj
 0002:0000f704       $unwind$transport_send_rtp 0000000140061704     pjmedia-x86_64-x64-vc14-debug-dynamic:transport_srtp.obj
 0002:0000f70c       $unwind$transport_send_rtcp 000000014006170c     pjmedia-x86_64-x64-vc14-debug-dynamic:transport_srtp.obj
 0002:0000f714       $unwind$transport_send_rtcp2 0000000140061714     pjmedia-x86_64-x64-vc14-debug-dynamic:transport_srtp.obj
 0002:0000f71c       $unwind$transport_media_create 000000014006171c     pjmedia-x86_64-x64-vc14-debug-dynamic:transport_srtp.obj
 0002:0000f724       $unwind$transport_encode_sdp 0000000140061724     pjmedia-x86_64-x64-vc14-debug-dynamic:transport_srtp.obj
 0002:0000f72c       $unwind$transport_media_start 000000014006172c     pjmedia-x86_64-x64-vc14-debug-dynamic:transport_srtp.obj
 0002:0000f734       $unwind$transport_media_stop 0000000140061734     pjmedia-x86_64-x64-vc14-debug-dynamic:transport_srtp.obj
 0002:0000f73c       $unwind$transport_simulate_lost 000000014006173c     pjmedia-x86_64-x64-vc14-debug-dynamic:transport_srtp.obj
 0002:0000f744       $unwind$transport_destroy  0000000140061744     pjmedia-x86_64-x64-vc14-debug-dynamic:transport_srtp.obj
 0002:0000f74c       $unwind$transport_attach2  000000014006174c     pjmedia-x86_64-x64-vc14-debug-dynamic:transport_srtp.obj
 0002:0000f760       $unwind$get_crypto_idx     0000000140061760     pjmedia-x86_64-x64-vc14-debug-dynamic:transport_srtp.obj
 0002:0000f768       $unwind$srtp_crypto_empty  0000000140061768     pjmedia-x86_64-x64-vc14-debug-dynamic:transport_srtp.obj
 0002:0000f770       $unwind$srtp_crypto_cmp    0000000140061770     pjmedia-x86_64-x64-vc14-debug-dynamic:transport_srtp.obj
 0002:0000f778       $unwind$start_srtp         0000000140061778     pjmedia-x86_64-x64-vc14-debug-dynamic:transport_srtp.obj
 0002:0000f780       $unwind$get_libsrtp_errstr 0000000140061780     pjmedia-x86_64-x64-vc14-debug-dynamic:transport_srtp.obj
 0002:0000f788       $unwind$sdes_media_create  0000000140061788     pjmedia-x86_64-x64-vc14-debug-dynamic:transport_srtp.obj
 0002:0000f790       $unwind$sdes_encode_sdp    0000000140061790     pjmedia-x86_64-x64-vc14-debug-dynamic:transport_srtp.obj
 0002:0000f7a4       $unwind$sdes_media_start   00000001400617a4     pjmedia-x86_64-x64-vc14-debug-dynamic:transport_srtp.obj
 0002:0000f7b8       $unwind$sdes_create        00000001400617b8     pjmedia-x86_64-x64-vc14-debug-dynamic:transport_srtp.obj
 0002:0000f7c0       $unwind$generate_crypto_attr_value 00000001400617c0     pjmedia-x86_64-x64-vc14-debug-dynamic:transport_srtp.obj
 0002:0000f7d0       $unwind$parse_attr_crypto  00000001400617d0     pjmedia-x86_64-x64-vc14-debug-dynamic:transport_srtp.obj
 0002:0000f7dc       $unwind$fill_local_crypto  00000001400617dc     pjmedia-x86_64-x64-vc14-debug-dynamic:transport_srtp.obj
 0002:0000f7e8       $unwind$pjmedia_srtp_deinit_lib 00000001400617e8     pjmedia-x86_64-x64-vc14-debug-dynamic:transport_srtp.obj
 0002:0000f824       $unwind$pj_list_push_back  0000000140061824     pjmedia-x86_64-x64-vc14-debug-dynamic:event.obj
 0002:0000f82c       $unwind$pj_pool_zalloc     000000014006182c     pjmedia-x86_64-x64-vc14-debug-dynamic:event.obj
 0002:0000f834       $unwind$pj_bzero           0000000140061834     pjmedia-x86_64-x64-vc14-debug-dynamic:event.obj
 0002:0000f83c       $unwind$pj_memcpy          000000014006183c     pjmedia-x86_64-x64-vc14-debug-dynamic:event.obj
 0002:0000f844       $unwind$pjmedia_event_mgr_create 0000000140061844     pjmedia-x86_64-x64-vc14-debug-dynamic:event.obj
 0002:0000f84c       $unwind$pjmedia_event_mgr_destroy 000000014006184c     pjmedia-x86_64-x64-vc14-debug-dynamic:event.obj
 0002:0000f854       $unwind$pjmedia_event_init 0000000140061854     pjmedia-x86_64-x64-vc14-debug-dynamic:event.obj
 0002:0000f85c       $unwind$pjmedia_event_subscribe 000000014006185c     pjmedia-x86_64-x64-vc14-debug-dynamic:event.obj
 0002:0000f864       $unwind$pjmedia_event_unsubscribe 0000000140061864     pjmedia-x86_64-x64-vc14-debug-dynamic:event.obj
 0002:0000f86c       $unwind$pjmedia_event_publish 000000014006186c     pjmedia-x86_64-x64-vc14-debug-dynamic:event.obj
 0002:0000f874       $unwind$event_queue_add_event 0000000140061874     pjmedia-x86_64-x64-vc14-debug-dynamic:event.obj
 0002:0000f884       $unwind$event_mgr_distribute_events 0000000140061884     pjmedia-x86_64-x64-vc14-debug-dynamic:event.obj
 0002:0000f88c       $unwind$event_worker_thread 000000014006188c     pjmedia-x86_64-x64-vc14-debug-dynamic:event.obj
 0002:0000f8a0       $unwind$pjmedia_wave_hdr_file_to_host 00000001400618a0     pjmedia-x86_64-x64-vc14-debug-dynamic:wave.obj
 0002:0000f8a8       $unwind$pjmedia_wave_hdr_host_to_file 00000001400618a8     pjmedia-x86_64-x64-vc14-debug-dynamic:wave.obj
 0002:0000f8b4       $unwind$pjmedia_sdp_attr_create 00000001400618b4     pjmedia-x86_64-x64-vc14-debug-dynamic:sdp.obj
 0002:0000f8bc       $unwind$pjmedia_sdp_attr_clone 00000001400618bc     pjmedia-x86_64-x64-vc14-debug-dynamic:sdp.obj
 0002:0000f8c4       $unwind$pjmedia_sdp_attr_find 00000001400618c4     pjmedia-x86_64-x64-vc14-debug-dynamic:sdp.obj
 0002:0000f8cc       $unwind$pjmedia_sdp_attr_find2 00000001400618cc     pjmedia-x86_64-x64-vc14-debug-dynamic:sdp.obj
 0002:0000f8d4       $unwind$pjmedia_sdp_attr_add 00000001400618d4     pjmedia-x86_64-x64-vc14-debug-dynamic:sdp.obj
 0002:0000f8dc       $unwind$pjmedia_sdp_attr_remove_all 00000001400618dc     pjmedia-x86_64-x64-vc14-debug-dynamic:sdp.obj
 0002:0000f8e4       $unwind$pjmedia_sdp_attr_remove 00000001400618e4     pjmedia-x86_64-x64-vc14-debug-dynamic:sdp.obj
 0002:0000f8ec       $unwind$pjmedia_sdp_attr_to_rtpmap 00000001400618ec     pjmedia-x86_64-x64-vc14-debug-dynamic:sdp.obj
 0002:0000f8f4       $unwind$pjmedia_sdp_attr_get_rtpmap 00000001400618f4     pjmedia-x86_64-x64-vc14-debug-dynamic:sdp.obj
 0002:0000f904       $unwind$pjmedia_sdp_rtpmap_to_attr 0000000140061904     pjmedia-x86_64-x64-vc14-debug-dynamic:sdp.obj
 0002:0000f914       $unwind$pjmedia_sdp_attr_get_fmtp 0000000140061914     pjmedia-x86_64-x64-vc14-debug-dynamic:sdp.obj
 0002:0000f920       $unwind$pjmedia_sdp_attr_get_rtcp 0000000140061920     pjmedia-x86_64-x64-vc14-debug-dynamic:sdp.obj
 0002:0000f930       $unwind$pjmedia_sdp_attr_create_rtcp 0000000140061930     pjmedia-x86_64-x64-vc14-debug-dynamic:sdp.obj
 0002:0000f944       $unwind$pjmedia_sdp_attr_get_ssrc 0000000140061944     pjmedia-x86_64-x64-vc14-debug-dynamic:sdp.obj
 0002:0000f954       $unwind$pjmedia_sdp_attr_create_ssrc 0000000140061954     pjmedia-x86_64-x64-vc14-debug-dynamic:sdp.obj
 0002:0000f960       $unwind$pjmedia_sdp_conn_clone 0000000140061960     pjmedia-x86_64-x64-vc14-debug-dynamic:sdp.obj
 0002:0000f968       $unwind$pjmedia_sdp_bandw_clone 0000000140061968     pjmedia-x86_64-x64-vc14-debug-dynamic:sdp.obj
 0002:0000f970       $unwind$pjmedia_sdp_media_clone 0000000140061970     pjmedia-x86_64-x64-vc14-debug-dynamic:sdp.obj
 0002:0000f978       $unwind$pjmedia_sdp_media_find_attr 0000000140061978     pjmedia-x86_64-x64-vc14-debug-dynamic:sdp.obj
 0002:0000f980       $unwind$pjmedia_sdp_media_find_attr2 0000000140061980     pjmedia-x86_64-x64-vc14-debug-dynamic:sdp.obj
 0002:0000f988       $unwind$pjmedia_sdp_media_add_attr 0000000140061988     pjmedia-x86_64-x64-vc14-debug-dynamic:sdp.obj
 0002:0000f990       $unwind$pjmedia_sdp_media_remove_all_attr 0000000140061990     pjmedia-x86_64-x64-vc14-debug-dynamic:sdp.obj
 0002:0000f998       $unwind$pjmedia_sdp_media_remove_attr 0000000140061998     pjmedia-x86_64-x64-vc14-debug-dynamic:sdp.obj
 0002:0000f9a0       $unwind$pjmedia_sdp_transport_cmp 00000001400619a0     pjmedia-x86_64-x64-vc14-debug-dynamic:sdp.obj
 0002:0000f9a8       $unwind$pjmedia_sdp_transport_get_proto 00000001400619a8     pjmedia-x86_64-x64-vc14-debug-dynamic:sdp.obj
 0002:0000f9b0       $unwind$pjmedia_sdp_media_deactivate 00000001400619b0     pjmedia-x86_64-x64-vc14-debug-dynamic:sdp.obj
 0002:0000f9b8       $unwind$pjmedia_sdp_media_clone_deactivate 00000001400619b8     pjmedia-x86_64-x64-vc14-debug-dynamic:sdp.obj
 0002:0000f9c0       $unwind$pjmedia_sdp_parse  00000001400619c0     pjmedia-x86_64-x64-vc14-debug-dynamic:sdp.obj
 0002:0000f9d0       $unwind$pjmedia_sdp_print  00000001400619d0     pjmedia-x86_64-x64-vc14-debug-dynamic:sdp.obj
 0002:0000f9d8       $unwind$pjmedia_sdp_validate 00000001400619d8     pjmedia-x86_64-x64-vc14-debug-dynamic:sdp.obj
 0002:0000f9e0       $unwind$pjmedia_sdp_validate2 00000001400619e0     pjmedia-x86_64-x64-vc14-debug-dynamic:sdp.obj
 0002:0000f9e8       $unwind$pjmedia_sdp_session_clone 00000001400619e8     pjmedia-x86_64-x64-vc14-debug-dynamic:sdp.obj
 0002:0000f9f0       $unwind$pjmedia_sdp_session_add_attr 00000001400619f0     pjmedia-x86_64-x64-vc14-debug-dynamic:sdp.obj
 0002:0000f9f8       $unwind$pj_bzero           00000001400619f8     pjmedia-x86_64-x64-vc14-debug-dynamic:sdp.obj
 0002:0000fa00       $unwind$pj_memcpy          0000000140061a00     pjmedia-x86_64-x64-vc14-debug-dynamic:sdp.obj
 0002:0000fa08       $unwind$pj_pool_zalloc     0000000140061a08     pjmedia-x86_64-x64-vc14-debug-dynamic:sdp.obj
 0002:0000fa10       $unwind$pj_isdigit         0000000140061a10     pjmedia-x86_64-x64-vc14-debug-dynamic:sdp.obj
 0002:0000fa18       $unwind$parse_version      0000000140061a18     pjmedia-x86_64-x64-vc14-debug-dynamic:sdp.obj
 0002:0000fa20       $unwind$parse_origin       0000000140061a20     pjmedia-x86_64-x64-vc14-debug-dynamic:sdp.obj
 0002:0000fa28       $unwind$parse_time         0000000140061a28     pjmedia-x86_64-x64-vc14-debug-dynamic:sdp.obj
 0002:0000fa30       $unwind$parse_generic_line 0000000140061a30     pjmedia-x86_64-x64-vc14-debug-dynamic:sdp.obj
 0002:0000fa38       $unwind$parse_connection_info 0000000140061a38     pjmedia-x86_64-x64-vc14-debug-dynamic:sdp.obj
 0002:0000fa40       $unwind$parse_bandwidth_info 0000000140061a40     pjmedia-x86_64-x64-vc14-debug-dynamic:sdp.obj
 0002:0000fa48       $unwind$parse_attr         0000000140061a48     pjmedia-x86_64-x64-vc14-debug-dynamic:sdp.obj
 0002:0000fa50       $unwind$parse_media        0000000140061a50     pjmedia-x86_64-x64-vc14-debug-dynamic:sdp.obj
 0002:0000fa5c       $unwind$on_scanner_error   0000000140061a5c     pjmedia-x86_64-x64-vc14-debug-dynamic:sdp.obj
 0002:0000fa64       $unwind$init_sdp_parser    0000000140061a64     pjmedia-x86_64-x64-vc14-debug-dynamic:sdp.obj
 0002:0000fa6c       $unwind$print_connection_info 0000000140061a6c     pjmedia-x86_64-x64-vc14-debug-dynamic:sdp.obj
 0002:0000fa74       $unwind$print_bandw        0000000140061a74     pjmedia-x86_64-x64-vc14-debug-dynamic:sdp.obj
 0002:0000fa7c       $unwind$print_attr         0000000140061a7c     pjmedia-x86_64-x64-vc14-debug-dynamic:sdp.obj
 0002:0000fa84       $unwind$print_media_desc   0000000140061a84     pjmedia-x86_64-x64-vc14-debug-dynamic:sdp.obj
 0002:0000fa8c       $unwind$print_session      0000000140061a8c     pjmedia-x86_64-x64-vc14-debug-dynamic:sdp.obj
 0002:0000fa94       $unwind$apply_media_direction 0000000140061a94     pjmedia-x86_64-x64-vc14-debug-dynamic:sdp.obj
 0002:0000fa9c       $unwind$validate_sdp_conn  0000000140061a9c     pjmedia-x86_64-x64-vc14-debug-dynamic:sdp.obj
 0002:0000fad8       $unwind$pj_scan_is_eof     0000000140061ad8     pjmedia-x86_64-x64-vc14-debug-dynamic:sdp.obj
 0002:0000fae0       $unwind$pj_list_push_back  0000000140061ae0     pjmedia-x86_64-x64-vc14-debug-dynamic:endpoint.obj
 0002:0000fae8       $unwind$pj_pool_zalloc     0000000140061ae8     pjmedia-x86_64-x64-vc14-debug-dynamic:endpoint.obj
 0002:0000faf0       $unwind$pj_bzero           0000000140061af0     pjmedia-x86_64-x64-vc14-debug-dynamic:endpoint.obj
 0002:0000faf8       $unwind$pjmedia_endpt_create2 0000000140061af8     pjmedia-x86_64-x64-vc14-debug-dynamic:endpoint.obj
 0002:0000fb00       $unwind$pjmedia_endpt_destroy2 0000000140061b00     pjmedia-x86_64-x64-vc14-debug-dynamic:endpoint.obj
 0002:0000fb08       $unwind$pjmedia_endpt_set_flag 0000000140061b08     pjmedia-x86_64-x64-vc14-debug-dynamic:endpoint.obj
 0002:0000fb10       $unwind$pjmedia_endpt_get_flag 0000000140061b10     pjmedia-x86_64-x64-vc14-debug-dynamic:endpoint.obj
 0002:0000fb18       $unwind$pjmedia_endpt_get_ioqueue 0000000140061b18     pjmedia-x86_64-x64-vc14-debug-dynamic:endpoint.obj
 0002:0000fb20       $unwind$pjmedia_endpt_get_thread_count 0000000140061b20     pjmedia-x86_64-x64-vc14-debug-dynamic:endpoint.obj
 0002:0000fb28       $unwind$pjmedia_endpt_get_thread 0000000140061b28     pjmedia-x86_64-x64-vc14-debug-dynamic:endpoint.obj
 0002:0000fb30       $unwind$pjmedia_endpt_stop_threads 0000000140061b30     pjmedia-x86_64-x64-vc14-debug-dynamic:endpoint.obj
 0002:0000fb38       $unwind$pjmedia_endpt_create_pool 0000000140061b38     pjmedia-x86_64-x64-vc14-debug-dynamic:endpoint.obj
 0002:0000fb40       $unwind$pjmedia_endpt_create_sdp 0000000140061b40     pjmedia-x86_64-x64-vc14-debug-dynamic:endpoint.obj
 0002:0000fb48       $unwind$pjmedia_endpt_create_base_sdp 0000000140061b48     pjmedia-x86_64-x64-vc14-debug-dynamic:endpoint.obj
 0002:0000fb5c       $unwind$pjmedia_endpt_create_audio_sdp 0000000140061b5c     pjmedia-x86_64-x64-vc14-debug-dynamic:endpoint.obj
 0002:0000fb70       $unwind$pjmedia_endpt_dump 0000000140061b70     pjmedia-x86_64-x64-vc14-debug-dynamic:endpoint.obj
 0002:0000fb80       $unwind$pjmedia_endpt_atexit 0000000140061b80     pjmedia-x86_64-x64-vc14-debug-dynamic:endpoint.obj
 0002:0000fb88       $unwind$worker_proc        0000000140061b88     pjmedia-x86_64-x64-vc14-debug-dynamic:endpoint.obj
 0002:0000fb90       $unwind$init_sdp_media     0000000140061b90     pjmedia-x86_64-x64-vc14-debug-dynamic:endpoint.obj
 0002:0000fba4       $unwind$good_number        0000000140061ba4     pjmedia-x86_64-x64-vc14-debug-dynamic:endpoint.obj
 0002:0000fbc0       $unwind$pj_list_push_back  0000000140061bc0     pjmedia-x86_64-x64-vc14-debug-dynamic:codec.obj
 0002:0000fbc8       $unwind$pj_pool_zalloc     0000000140061bc8     pjmedia-x86_64-x64-vc14-debug-dynamic:codec.obj
 0002:0000fbd0       $unwind$pj_bzero           0000000140061bd0     pjmedia-x86_64-x64-vc14-debug-dynamic:codec.obj
 0002:0000fbd8       $unwind$pj_memcpy          0000000140061bd8     pjmedia-x86_64-x64-vc14-debug-dynamic:codec.obj
 0002:0000fbe0       $unwind$pjmedia_codec_param_clone 0000000140061be0     pjmedia-x86_64-x64-vc14-debug-dynamic:codec.obj
 0002:0000fbe8       $unwind$pjmedia_codec_mgr_init 0000000140061be8     pjmedia-x86_64-x64-vc14-debug-dynamic:codec.obj
 0002:0000fbf0       $unwind$pjmedia_codec_mgr_destroy 0000000140061bf0     pjmedia-x86_64-x64-vc14-debug-dynamic:codec.obj
 0002:0000fbf8       $unwind$pjmedia_codec_mgr_register_factory 0000000140061bf8     pjmedia-x86_64-x64-vc14-debug-dynamic:codec.obj
 0002:0000fc08       $unwind$pjmedia_codec_mgr_unregister_factory 0000000140061c08     pjmedia-x86_64-x64-vc14-debug-dynamic:codec.obj
 0002:0000fc10       $unwind$pjmedia_codec_mgr_enum_codecs 0000000140061c10     pjmedia-x86_64-x64-vc14-debug-dynamic:codec.obj
 0002:0000fc18       $unwind$pjmedia_codec_mgr_get_codec_info 0000000140061c18     pjmedia-x86_64-x64-vc14-debug-dynamic:codec.obj
 0002:0000fc20       $unwind$pjmedia_codec_info_to_id 0000000140061c20     pjmedia-x86_64-x64-vc14-debug-dynamic:codec.obj
 0002:0000fc28       $unwind$pjmedia_codec_mgr_find_codecs_by_id 0000000140061c28     pjmedia-x86_64-x64-vc14-debug-dynamic:codec.obj
 0002:0000fc30       $unwind$pjmedia_codec_mgr_set_codec_priority 0000000140061c30     pjmedia-x86_64-x64-vc14-debug-dynamic:codec.obj
 0002:0000fc38       $unwind$pjmedia_codec_mgr_get_default_param 0000000140061c38     pjmedia-x86_64-x64-vc14-debug-dynamic:codec.obj
 0002:0000fc48       $unwind$pjmedia_codec_mgr_set_default_param 0000000140061c48     pjmedia-x86_64-x64-vc14-debug-dynamic:codec.obj
 0002:0000fc58       $unwind$pjmedia_codec_mgr_alloc_codec 0000000140061c58     pjmedia-x86_64-x64-vc14-debug-dynamic:codec.obj
 0002:0000fc60       $unwind$pjmedia_codec_mgr_dealloc_codec 0000000140061c60     pjmedia-x86_64-x64-vc14-debug-dynamic:codec.obj
 0002:0000fc68       $unwind$sort_codecs        0000000140061c68     pjmedia-x86_64-x64-vc14-debug-dynamic:codec.obj
 0002:0000fc70       $unwind$swap_codec         0000000140061c70     pjmedia-x86_64-x64-vc14-debug-dynamic:codec.obj
 0002:0000fc94       $unwind$pj_base64_encode   0000000140061c94     pjlib-util-x86_64-x64-vc14-debug-dynamic:base64.obj
 0002:0000fc9c       $unwind$pj_base64_decode   0000000140061c9c     pjlib-util-x86_64-x64-vc14-debug-dynamic:base64.obj
 0002:0000fcac       $unwind$base256to64        0000000140061cac     pjlib-util-x86_64-x64-vc14-debug-dynamic:base64.obj
 0002:0000fcb8       $unwind$pj_cis_buf_init    0000000140061cb8     pjlib-util-x86_64-x64-vc14-debug-dynamic:scanner.obj
 0002:0000fcc0       $unwind$pj_cis_init        0000000140061cc0     pjlib-util-x86_64-x64-vc14-debug-dynamic:scanner.obj
 0002:0000fcc8       $unwind$pj_cis_dup         0000000140061cc8     pjlib-util-x86_64-x64-vc14-debug-dynamic:scanner.obj
 0002:0000fcd0       $unwind$pj_cis_add_range   0000000140061cd0     pjlib-util-x86_64-x64-vc14-debug-dynamic:scanner.obj
 0002:0000fcd8       $unwind$pj_cis_add_alpha   0000000140061cd8     pjlib-util-x86_64-x64-vc14-debug-dynamic:scanner.obj
 0002:0000fce0       $unwind$pj_cis_add_num     0000000140061ce0     pjlib-util-x86_64-x64-vc14-debug-dynamic:scanner.obj
 0002:0000fce8       $unwind$pj_cis_add_str     0000000140061ce8     pjlib-util-x86_64-x64-vc14-debug-dynamic:scanner.obj
 0002:0000fcf0       $unwind$pj_cis_add_cis     0000000140061cf0     pjlib-util-x86_64-x64-vc14-debug-dynamic:scanner.obj
 0002:0000fcf8       $unwind$pj_cis_del_range   0000000140061cf8     pjlib-util-x86_64-x64-vc14-debug-dynamic:scanner.obj
 0002:0000fd00       $unwind$pj_cis_del_str     0000000140061d00     pjlib-util-x86_64-x64-vc14-debug-dynamic:scanner.obj
 0002:0000fd08       $unwind$pj_cis_invert      0000000140061d08     pjlib-util-x86_64-x64-vc14-debug-dynamic:scanner.obj
 0002:0000fd10       $unwind$pj_scan_init       0000000140061d10     pjlib-util-x86_64-x64-vc14-debug-dynamic:scanner.obj
 0002:0000fd18       $unwind$pj_scan_fini       0000000140061d18     pjlib-util-x86_64-x64-vc14-debug-dynamic:scanner.obj
 0002:0000fd20       $unwind$pj_scan_peek       0000000140061d20     pjlib-util-x86_64-x64-vc14-debug-dynamic:scanner.obj
 0002:0000fd28       $unwind$pj_scan_peek_n     0000000140061d28     pjlib-util-x86_64-x64-vc14-debug-dynamic:scanner.obj
 0002:0000fd30       $unwind$pj_scan_peek_until 0000000140061d30     pjlib-util-x86_64-x64-vc14-debug-dynamic:scanner.obj
 0002:0000fd38       $unwind$pj_scan_get        0000000140061d38     pjlib-util-x86_64-x64-vc14-debug-dynamic:scanner.obj
 0002:0000fd40       $unwind$pj_scan_get_unescape 0000000140061d40     pjlib-util-x86_64-x64-vc14-debug-dynamic:scanner.obj
 0002:0000fd48       $unwind$pj_scan_get_quote  0000000140061d48     pjlib-util-x86_64-x64-vc14-debug-dynamic:scanner.obj
 0002:0000fd50       $unwind$pj_scan_get_quotes 0000000140061d50     pjlib-util-x86_64-x64-vc14-debug-dynamic:scanner.obj
 0002:0000fd58       $unwind$pj_scan_get_n      0000000140061d58     pjlib-util-x86_64-x64-vc14-debug-dynamic:scanner.obj
 0002:0000fd60       $unwind$pj_scan_get_char   0000000140061d60     pjlib-util-x86_64-x64-vc14-debug-dynamic:scanner.obj
 0002:0000fd68       $unwind$pj_scan_get_until  0000000140061d68     pjlib-util-x86_64-x64-vc14-debug-dynamic:scanner.obj
 0002:0000fd70       $unwind$pj_scan_get_until_ch 0000000140061d70     pjlib-util-x86_64-x64-vc14-debug-dynamic:scanner.obj
 0002:0000fd78       $unwind$pj_scan_get_until_chr 0000000140061d78     pjlib-util-x86_64-x64-vc14-debug-dynamic:scanner.obj
 0002:0000fd80       $unwind$pj_scan_advance_n  0000000140061d80     pjlib-util-x86_64-x64-vc14-debug-dynamic:scanner.obj
 0002:0000fd88       $unwind$pj_scan_strcmp     0000000140061d88     pjlib-util-x86_64-x64-vc14-debug-dynamic:scanner.obj
 0002:0000fd90       $unwind$pj_scan_stricmp    0000000140061d90     pjlib-util-x86_64-x64-vc14-debug-dynamic:scanner.obj
 0002:0000fd98       $unwind$pj_scan_stricmp_alnum 0000000140061d98     pjlib-util-x86_64-x64-vc14-debug-dynamic:scanner.obj
 0002:0000fda0       $unwind$pj_scan_get_newline 0000000140061da0     pjlib-util-x86_64-x64-vc14-debug-dynamic:scanner.obj
 0002:0000fda8       $unwind$pj_scan_skip_whitespace 0000000140061da8     pjlib-util-x86_64-x64-vc14-debug-dynamic:scanner.obj
 0002:0000fdb0       $unwind$pj_scan_skip_line  0000000140061db0     pjlib-util-x86_64-x64-vc14-debug-dynamic:scanner.obj
 0002:0000fdb8       $unwind$pj_isxdigit        0000000140061db8     pjlib-util-x86_64-x64-vc14-debug-dynamic:scanner.obj
 0002:0000fdc0       $unwind$pj_bzero           0000000140061dc0     pjlib-util-x86_64-x64-vc14-debug-dynamic:scanner.obj
 0002:0000fdc8       $unwind$pj_memmove         0000000140061dc8     pjlib-util-x86_64-x64-vc14-debug-dynamic:scanner.obj
 0002:0000fdd0       $unwind$pj_scan_syntax_err 0000000140061dd0     pjlib-util-x86_64-x64-vc14-debug-dynamic:scanner.obj
 0002:0000fdf4       $unwind$pj_cis_match       0000000140061df4     pjlib-util-x86_64-x64-vc14-debug-dynamic:scanner.obj
 0002:0000fdfc       $unwind$pj_init            0000000140061dfc     pjlib-x86_64-x64-vc14-debug-dynamic:os_core_win32.obj
 0002:0000fe0c       $unwind$pj_shutdown        0000000140061e0c     pjlib-x86_64-x64-vc14-debug-dynamic:os_core_win32.obj
 0002:0000fe14       $unwind$pj_getpid          0000000140061e14     pjlib-x86_64-x64-vc14-debug-dynamic:os_core_win32.obj
 0002:0000fe1c       $unwind$pj_thread_create   0000000140061e1c     pjlib-x86_64-x64-vc14-debug-dynamic:os_core_win32.obj
 0002:0000fe24       $unwind$pj_thread_register 0000000140061e24     pjlib-x86_64-x64-vc14-debug-dynamic:os_core_win32.obj
 0002:0000fe30       $unwind$pj_thread_is_registered 0000000140061e30     pjlib-x86_64-x64-vc14-debug-dynamic:os_core_win32.obj
 0002:0000fe38       $unwind$pj_thread_get_prio 0000000140061e38     pjlib-x86_64-x64-vc14-debug-dynamic:os_core_win32.obj
 0002:0000fe40       $unwind$pj_thread_set_prio 0000000140061e40     pjlib-x86_64-x64-vc14-debug-dynamic:os_core_win32.obj
 0002:0000fe48       $unwind$pj_thread_get_os_handle 0000000140061e48     pjlib-x86_64-x64-vc14-debug-dynamic:os_core_win32.obj
 0002:0000fe50       $unwind$pj_thread_get_name 0000000140061e50     pjlib-x86_64-x64-vc14-debug-dynamic:os_core_win32.obj
 0002:0000fe58       $unwind$pj_thread_resume   0000000140061e58     pjlib-x86_64-x64-vc14-debug-dynamic:os_core_win32.obj
 0002:0000fe60       $unwind$pj_thread_this     0000000140061e60     pjlib-x86_64-x64-vc14-debug-dynamic:os_core_win32.obj
 0002:0000fe68       $unwind$pj_thread_join     0000000140061e68     pjlib-x86_64-x64-vc14-debug-dynamic:os_core_win32.obj
 0002:0000fe70       $unwind$pj_thread_destroy  0000000140061e70     pjlib-x86_64-x64-vc14-debug-dynamic:os_core_win32.obj
 0002:0000fe78       $unwind$pj_thread_sleep    0000000140061e78     pjlib-x86_64-x64-vc14-debug-dynamic:os_core_win32.obj
 0002:0000fe80       $unwind$pj_thread_check_stack 0000000140061e80     pjlib-x86_64-x64-vc14-debug-dynamic:os_core_win32.obj
 0002:0000fe88       $unwind$pj_thread_get_stack_info 0000000140061e88     pjlib-x86_64-x64-vc14-debug-dynamic:os_core_win32.obj
 0002:0000fe90       $unwind$pj_thread_local_alloc 0000000140061e90     pjlib-x86_64-x64-vc14-debug-dynamic:os_core_win32.obj
 0002:0000fe98       $unwind$pj_thread_local_free 0000000140061e98     pjlib-x86_64-x64-vc14-debug-dynamic:os_core_win32.obj
 0002:0000fea0       $unwind$pj_thread_local_set 0000000140061ea0     pjlib-x86_64-x64-vc14-debug-dynamic:os_core_win32.obj
 0002:0000fea8       $unwind$pj_thread_local_get 0000000140061ea8     pjlib-x86_64-x64-vc14-debug-dynamic:os_core_win32.obj
 0002:0000feb0       $unwind$pj_atomic_create   0000000140061eb0     pjlib-x86_64-x64-vc14-debug-dynamic:os_core_win32.obj
 0002:0000feb8       $unwind$pj_atomic_destroy  0000000140061eb8     pjlib-x86_64-x64-vc14-debug-dynamic:os_core_win32.obj
 0002:0000fec0       $unwind$pj_atomic_set      0000000140061ec0     pjlib-x86_64-x64-vc14-debug-dynamic:os_core_win32.obj
 0002:0000fec8       $unwind$pj_atomic_get      0000000140061ec8     pjlib-x86_64-x64-vc14-debug-dynamic:os_core_win32.obj
 0002:0000fed0       $unwind$pj_atomic_inc      0000000140061ed0     pjlib-x86_64-x64-vc14-debug-dynamic:os_core_win32.obj
 0002:0000fed8       $unwind$pj_atomic_inc_and_get 0000000140061ed8     pjlib-x86_64-x64-vc14-debug-dynamic:os_core_win32.obj
 0002:0000fee0       $unwind$pj_atomic_dec      0000000140061ee0     pjlib-x86_64-x64-vc14-debug-dynamic:os_core_win32.obj
 0002:0000fee8       $unwind$pj_atomic_dec_and_get 0000000140061ee8     pjlib-x86_64-x64-vc14-debug-dynamic:os_core_win32.obj
 0002:0000fef0       $unwind$pj_atomic_add      0000000140061ef0     pjlib-x86_64-x64-vc14-debug-dynamic:os_core_win32.obj
 0002:0000fef8       $unwind$pj_atomic_add_and_get 0000000140061ef8     pjlib-x86_64-x64-vc14-debug-dynamic:os_core_win32.obj
 0002:0000ff00       $unwind$pj_mutex_create    0000000140061f00     pjlib-x86_64-x64-vc14-debug-dynamic:os_core_win32.obj
 0002:0000ff08       $unwind$pj_mutex_create_simple 0000000140061f08     pjlib-x86_64-x64-vc14-debug-dynamic:os_core_win32.obj
 0002:0000ff10       $unwind$pj_mutex_create_recursive 0000000140061f10     pjlib-x86_64-x64-vc14-debug-dynamic:os_core_win32.obj
 0002:0000ff18       $unwind$pj_mutex_lock      0000000140061f18     pjlib-x86_64-x64-vc14-debug-dynamic:os_core_win32.obj
 0002:0000ff20       $unwind$pj_mutex_unlock    0000000140061f20     pjlib-x86_64-x64-vc14-debug-dynamic:os_core_win32.obj
 0002:0000ff28       $unwind$pj_mutex_trylock   0000000140061f28     pjlib-x86_64-x64-vc14-debug-dynamic:os_core_win32.obj
 0002:0000ff30       $unwind$pj_mutex_destroy   0000000140061f30     pjlib-x86_64-x64-vc14-debug-dynamic:os_core_win32.obj
 0002:0000ff38       $unwind$pj_mutex_is_locked 0000000140061f38     pjlib-x86_64-x64-vc14-debug-dynamic:os_core_win32.obj
 0002:0000ff40       $unwind$pj_rwmutex_create  0000000140061f40     pjlib-x86_64-x64-vc14-debug-dynamic:os_core_win32.obj
 0002:0000ff48       $unwind$pj_rwmutex_lock_read 0000000140061f48     pjlib-x86_64-x64-vc14-debug-dynamic:os_core_win32.obj
 0002:0000ff50       $unwind$pj_rwmutex_lock_write 0000000140061f50     pjlib-x86_64-x64-vc14-debug-dynamic:os_core_win32.obj
 0002:0000ff58       $unwind$pj_rwmutex_unlock_read 0000000140061f58     pjlib-x86_64-x64-vc14-debug-dynamic:os_core_win32.obj
 0002:0000ff60       $unwind$pj_rwmutex_unlock_write 0000000140061f60     pjlib-x86_64-x64-vc14-debug-dynamic:os_core_win32.obj
 0002:0000ff68       $unwind$pj_rwmutex_destroy 0000000140061f68     pjlib-x86_64-x64-vc14-debug-dynamic:os_core_win32.obj
 0002:0000ff70       $unwind$pj_enter_critical_section 0000000140061f70     pjlib-x86_64-x64-vc14-debug-dynamic:os_core_win32.obj
 0002:0000ff78       $unwind$pj_leave_critical_section 0000000140061f78     pjlib-x86_64-x64-vc14-debug-dynamic:os_core_win32.obj
 0002:0000ff80       $unwind$pj_sem_create      0000000140061f80     pjlib-x86_64-x64-vc14-debug-dynamic:os_core_win32.obj
 0002:0000ff88       $unwind$pj_sem_wait        0000000140061f88     pjlib-x86_64-x64-vc14-debug-dynamic:os_core_win32.obj
 0002:0000ff90       $unwind$pj_sem_trywait     0000000140061f90     pjlib-x86_64-x64-vc14-debug-dynamic:os_core_win32.obj
 0002:0000ff98       $unwind$pj_sem_post        0000000140061f98     pjlib-x86_64-x64-vc14-debug-dynamic:os_core_win32.obj
 0002:0000ffa0       $unwind$pj_sem_destroy     0000000140061fa0     pjlib-x86_64-x64-vc14-debug-dynamic:os_core_win32.obj
 0002:0000ffa8       $unwind$pj_event_create    0000000140061fa8     pjlib-x86_64-x64-vc14-debug-dynamic:os_core_win32.obj
 0002:0000ffb0       $unwind$pj_event_wait      0000000140061fb0     pjlib-x86_64-x64-vc14-debug-dynamic:os_core_win32.obj
 0002:0000ffb8       $unwind$pj_event_trywait   0000000140061fb8     pjlib-x86_64-x64-vc14-debug-dynamic:os_core_win32.obj
 0002:0000ffc0       $unwind$pj_event_set       0000000140061fc0     pjlib-x86_64-x64-vc14-debug-dynamic:os_core_win32.obj
 0002:0000ffc8       $unwind$pj_event_pulse     0000000140061fc8     pjlib-x86_64-x64-vc14-debug-dynamic:os_core_win32.obj
 0002:0000ffd0       $unwind$pj_event_reset     0000000140061fd0     pjlib-x86_64-x64-vc14-debug-dynamic:os_core_win32.obj
 0002:0000ffd8       $unwind$pj_event_destroy   0000000140061fd8     pjlib-x86_64-x64-vc14-debug-dynamic:os_core_win32.obj
 0002:0000ffe0       $unwind$pj_term_set_color  0000000140061fe0     pjlib-x86_64-x64-vc14-debug-dynamic:os_core_win32.obj
 0002:0000ffe8       $unwind$pj_term_get_color  0000000140061fe8     pjlib-x86_64-x64-vc14-debug-dynamic:os_core_win32.obj
 0002:0000fff8       $unwind$pj_run_app         0000000140061ff8     pjlib-x86_64-x64-vc14-debug-dynamic:os_core_win32.obj
 0002:00010000       $unwind$pj_thread_init     0000000140062000     pjlib-x86_64-x64-vc14-debug-dynamic:os_core_win32.obj
 0002:00010008       $unwind$pj_bzero           0000000140062008     pjlib-x86_64-x64-vc14-debug-dynamic:os_core_win32.obj
 0002:00010010       $unwind$init_mutex         0000000140062010     pjlib-x86_64-x64-vc14-debug-dynamic:os_core_win32.obj
 0002:00010018       $unwind$thread_main        0000000140062018     pjlib-x86_64-x64-vc14-debug-dynamic:os_core_win32.obj
 0002:00010020       $unwind$pj_sem_wait_for    0000000140062020     pjlib-x86_64-x64-vc14-debug-dynamic:os_core_win32.obj
 0002:00010028       $unwind$pj_event_wait_for  0000000140062028     pjlib-x86_64-x64-vc14-debug-dynamic:os_core_win32.obj
 0002:00010030       $unwind$pj_color_to_os_attr 0000000140062030     pjlib-x86_64-x64-vc14-debug-dynamic:os_core_win32.obj
 0002:00010038       $unwind$os_attr_to_pj_color 0000000140062038     pjlib-x86_64-x64-vc14-debug-dynamic:os_core_win32.obj
 0002:0001007c       $unwind$pj_pool_create     000000014006207c     pjlib-x86_64-x64-vc14-debug-dynamic:pool.obj
 0002:00010084       $unwind$pj_pool_release    0000000140062084     pjlib-x86_64-x64-vc14-debug-dynamic:pool.obj
 0002:0001008c       $unwind$pj_pool_safe_release 000000014006208c     pjlib-x86_64-x64-vc14-debug-dynamic:pool.obj
 0002:00010094       $unwind$pj_pool_secure_release 0000000140062094     pjlib-x86_64-x64-vc14-debug-dynamic:pool.obj
 0002:0001009c       $unwind$pj_pool_reset      000000014006209c     pjlib-x86_64-x64-vc14-debug-dynamic:pool.obj
 0002:000100a4       $unwind$pj_pool_get_used_size 00000001400620a4     pjlib-x86_64-x64-vc14-debug-dynamic:pool.obj
 0002:000100ac       $unwind$pj_pool_alloc      00000001400620ac     pjlib-x86_64-x64-vc14-debug-dynamic:pool.obj
 0002:000100b4       $unwind$pj_pool_calloc     00000001400620b4     pjlib-x86_64-x64-vc14-debug-dynamic:pool.obj
 0002:000100bc       $unwind$pj_pool_alloc_from_block 00000001400620bc     pjlib-x86_64-x64-vc14-debug-dynamic:pool.obj
 0002:000100c4       $unwind$pj_pool_allocate_find 00000001400620c4     pjlib-x86_64-x64-vc14-debug-dynamic:pool.obj
 0002:000100cc       $unwind$pj_pool_create_int 00000001400620cc     pjlib-x86_64-x64-vc14-debug-dynamic:pool.obj
 0002:000100d4       $unwind$pj_pool_init_int   00000001400620d4     pjlib-x86_64-x64-vc14-debug-dynamic:pool.obj
 0002:000100dc       $unwind$pj_pool_destroy_int 00000001400620dc     pjlib-x86_64-x64-vc14-debug-dynamic:pool.obj
 0002:000100e4       $unwind$pj_bzero           00000001400620e4     pjlib-x86_64-x64-vc14-debug-dynamic:pool.obj
 0002:000100ec       $unwind$pj_pool_create_block 00000001400620ec     pjlib-x86_64-x64-vc14-debug-dynamic:pool.obj
 0002:000100f4       $unwind$reset_pool         00000001400620f4     pjlib-x86_64-x64-vc14-debug-dynamic:pool.obj
 0002:00010108       $unwind$pj_list_empty      0000000140062108     pjlib-x86_64-x64-vc14-debug-dynamic:pool_caching.obj
 0002:00010110       $unwind$pj_caching_pool_init 0000000140062110     pjlib-x86_64-x64-vc14-debug-dynamic:pool_caching.obj
 0002:00010118       $unwind$pj_caching_pool_destroy 0000000140062118     pjlib-x86_64-x64-vc14-debug-dynamic:pool_caching.obj
 0002:00010120       $unwind$pj_bzero           0000000140062120     pjlib-x86_64-x64-vc14-debug-dynamic:pool_caching.obj
 0002:00010128       $unwind$pj_memcpy          0000000140062128     pjlib-x86_64-x64-vc14-debug-dynamic:pool_caching.obj
 0002:00010130       $unwind$cpool_create_pool  0000000140062130     pjlib-x86_64-x64-vc14-debug-dynamic:pool_caching.obj
 0002:00010138       $unwind$cpool_release_pool 0000000140062138     pjlib-x86_64-x64-vc14-debug-dynamic:pool_caching.obj
 0002:00010140       $unwind$cpool_dump_status  0000000140062140     pjlib-x86_64-x64-vc14-debug-dynamic:pool_caching.obj
 0002:00010148       $unwind$cpool_on_block_alloc 0000000140062148     pjlib-x86_64-x64-vc14-debug-dynamic:pool_caching.obj
 0002:00010150       $unwind$cpool_on_block_free 0000000140062150     pjlib-x86_64-x64-vc14-debug-dynamic:pool_caching.obj
 0002:00010160       $unwind$pj_strerror        0000000140062160     pjlib-x86_64-x64-vc14-debug-dynamic:errno.obj
 0002:0001016c       $unwind$pj_perror          000000014006216c     pjlib-x86_64-x64-vc14-debug-dynamic:errno.obj
 0002:00010174       $unwind$pj_register_strerror 0000000140062174     pjlib-x86_64-x64-vc14-debug-dynamic:errno.obj
 0002:0001017c       $unwind$pj_errno_clear_handlers 000000014006217c     pjlib-x86_64-x64-vc14-debug-dynamic:errno.obj
 0002:00010184       $unwind$pj_perror_1        0000000140062184     pjlib-x86_64-x64-vc14-debug-dynamic:errno.obj
 0002:0001018c       $unwind$pj_perror_2        000000014006218c     pjlib-x86_64-x64-vc14-debug-dynamic:errno.obj
 0002:00010194       $unwind$pj_perror_3        0000000140062194     pjlib-x86_64-x64-vc14-debug-dynamic:errno.obj
 0002:0001019c       $unwind$pj_perror_4        000000014006219c     pjlib-x86_64-x64-vc14-debug-dynamic:errno.obj
 0002:000101a4       $unwind$pj_perror_5        00000001400621a4     pjlib-x86_64-x64-vc14-debug-dynamic:errno.obj
 0002:000101ac       $unwind$pj_bzero           00000001400621ac     pjlib-x86_64-x64-vc14-debug-dynamic:errno.obj
 0002:000101b4       $unwind$pj_memcpy          00000001400621b4     pjlib-x86_64-x64-vc14-debug-dynamic:errno.obj
 0002:000101bc       $unwind$pjlib_error        00000001400621bc     pjlib-x86_64-x64-vc14-debug-dynamic:errno.obj
 0002:000101c4       $unwind$invoke_log         00000001400621c4     pjlib-x86_64-x64-vc14-debug-dynamic:errno.obj
 0002:000101cc       $unwind$pj_perror_imp      00000001400621cc     pjlib-x86_64-x64-vc14-debug-dynamic:errno.obj
 0002:000101e8       $unwind$pj_log             00000001400621e8     pjlib-x86_64-x64-vc14-debug-dynamic:log.obj
 0002:000101f8       $unwind$pj_log_add_indent  00000001400621f8     pjlib-x86_64-x64-vc14-debug-dynamic:log.obj
 0002:00010200       $unwind$pj_log_push_indent 0000000140062200     pjlib-x86_64-x64-vc14-debug-dynamic:log.obj
 0002:00010208       $unwind$pj_log_pop_indent  0000000140062208     pjlib-x86_64-x64-vc14-debug-dynamic:log.obj
 0002:00010210       $unwind$pj_log_set_color   0000000140062210     pjlib-x86_64-x64-vc14-debug-dynamic:log.obj
 0002:00010218       $unwind$pj_log_get_color   0000000140062218     pjlib-x86_64-x64-vc14-debug-dynamic:log.obj
 0002:00010220       $unwind$pj_log_init        0000000140062220     pjlib-x86_64-x64-vc14-debug-dynamic:log.obj
 0002:00010228       $unwind$pj_log_1           0000000140062228     pjlib-x86_64-x64-vc14-debug-dynamic:log.obj
 0002:00010230       $unwind$pj_log_2           0000000140062230     pjlib-x86_64-x64-vc14-debug-dynamic:log.obj
 0002:00010238       $unwind$pj_log_3           0000000140062238     pjlib-x86_64-x64-vc14-debug-dynamic:log.obj
 0002:00010240       $unwind$pj_log_4           0000000140062240     pjlib-x86_64-x64-vc14-debug-dynamic:log.obj
 0002:00010248       $unwind$pj_log_5           0000000140062248     pjlib-x86_64-x64-vc14-debug-dynamic:log.obj
 0002:00010250       $unwind$pj_memset          0000000140062250     pjlib-x86_64-x64-vc14-debug-dynamic:log.obj
 0002:00010258       $unwind$logging_shutdown   0000000140062258     pjlib-x86_64-x64-vc14-debug-dynamic:log.obj
 0002:00010260       $unwind$log_set_indent     0000000140062260     pjlib-x86_64-x64-vc14-debug-dynamic:log.obj
 0002:00010268       $unwind$log_get_raw_indent 0000000140062268     pjlib-x86_64-x64-vc14-debug-dynamic:log.obj
 0002:00010270       $unwind$log_get_indent     0000000140062270     pjlib-x86_64-x64-vc14-debug-dynamic:log.obj
 0002:00010278       $unwind$suspend_logging    0000000140062278     pjlib-x86_64-x64-vc14-debug-dynamic:log.obj
 0002:00010280       $unwind$resume_logging     0000000140062280     pjlib-x86_64-x64-vc14-debug-dynamic:log.obj
 0002:00010288       $unwind$is_logging_suspended 0000000140062288     pjlib-x86_64-x64-vc14-debug-dynamic:log.obj
 0002:000102a0       $unwind$default_block_alloc 00000001400622a0     pjlib-x86_64-x64-vc14-debug-dynamic:pool_policy_malloc.obj
 0002:000102a8       $unwind$default_block_free 00000001400622a8     pjlib-x86_64-x64-vc14-debug-dynamic:pool_policy_malloc.obj
 0002:000102b0       $unwind$default_pool_callback 00000001400622b0     pjlib-x86_64-x64-vc14-debug-dynamic:pool_policy_malloc.obj
 0002:000102bc       $unwind$pj_str             00000001400622bc     pjlib-x86_64-x64-vc14-debug-dynamic:string.obj
 0002:000102c8       $unwind$pj_strcpy          00000001400622c8     pjlib-x86_64-x64-vc14-debug-dynamic:string.obj
 0002:000102d0       $unwind$pj_strcpy2         00000001400622d0     pjlib-x86_64-x64-vc14-debug-dynamic:string.obj
 0002:000102d8       $unwind$pj_strncpy         00000001400622d8     pjlib-x86_64-x64-vc14-debug-dynamic:string.obj
 0002:000102e0       $unwind$pj_strncpy_with_null 00000001400622e0     pjlib-x86_64-x64-vc14-debug-dynamic:string.obj
 0002:000102e8       $unwind$pj_strdup          00000001400622e8     pjlib-x86_64-x64-vc14-debug-dynamic:string.obj
 0002:000102f0       $unwind$pj_strdup_with_null 00000001400622f0     pjlib-x86_64-x64-vc14-debug-dynamic:string.obj
 0002:000102f8       $unwind$pj_strdup2         00000001400622f8     pjlib-x86_64-x64-vc14-debug-dynamic:string.obj
 0002:00010300       $unwind$pj_strdup2_with_null 0000000140062300     pjlib-x86_64-x64-vc14-debug-dynamic:string.obj
 0002:00010308       $unwind$pj_strdup3         0000000140062308     pjlib-x86_64-x64-vc14-debug-dynamic:string.obj
 0002:00010314       $unwind$pj_strcmp          0000000140062314     pjlib-x86_64-x64-vc14-debug-dynamic:string.obj
 0002:0001031c       $unwind$pj_strcmp2         000000014006231c     pjlib-x86_64-x64-vc14-debug-dynamic:string.obj
 0002:00010324       $unwind$pj_strncmp         0000000140062324     pjlib-x86_64-x64-vc14-debug-dynamic:string.obj
 0002:0001032c       $unwind$pj_strncmp2        000000014006232c     pjlib-x86_64-x64-vc14-debug-dynamic:string.obj
 0002:00010334       $unwind$pj_stricmp         0000000140062334     pjlib-x86_64-x64-vc14-debug-dynamic:string.obj
 0002:0001033c       $unwind$pj_stricmp2        000000014006233c     pjlib-x86_64-x64-vc14-debug-dynamic:string.obj
 0002:00010344       $unwind$pj_strnicmp        0000000140062344     pjlib-x86_64-x64-vc14-debug-dynamic:string.obj
 0002:0001034c       $unwind$pj_strnicmp2       000000014006234c     pjlib-x86_64-x64-vc14-debug-dynamic:string.obj
 0002:00010354       $unwind$pj_strcat          0000000140062354     pjlib-x86_64-x64-vc14-debug-dynamic:string.obj
 0002:0001035c       $unwind$pj_strcat2         000000014006235c     pjlib-x86_64-x64-vc14-debug-dynamic:string.obj
 0002:00010364       $unwind$pj_strspn          0000000140062364     pjlib-x86_64-x64-vc14-debug-dynamic:string.obj
 0002:0001036c       $unwind$pj_strspn2         000000014006236c     pjlib-x86_64-x64-vc14-debug-dynamic:string.obj
 0002:00010374       $unwind$pj_strcspn         0000000140062374     pjlib-x86_64-x64-vc14-debug-dynamic:string.obj
 0002:0001037c       $unwind$pj_strcspn2        000000014006237c     pjlib-x86_64-x64-vc14-debug-dynamic:string.obj
 0002:00010384       $unwind$pj_strtok          0000000140062384     pjlib-x86_64-x64-vc14-debug-dynamic:string.obj
 0002:0001038c       $unwind$pj_strtok2         000000014006238c     pjlib-x86_64-x64-vc14-debug-dynamic:string.obj
 0002:00010394       $unwind$pj_strstr          0000000140062394     pjlib-x86_64-x64-vc14-debug-dynamic:string.obj
 0002:0001039c       $unwind$pj_stristr         000000014006239c     pjlib-x86_64-x64-vc14-debug-dynamic:string.obj
 0002:000103a4       $unwind$pj_strltrim        00000001400623a4     pjlib-x86_64-x64-vc14-debug-dynamic:string.obj
 0002:000103ac       $unwind$pj_strrtrim        00000001400623ac     pjlib-x86_64-x64-vc14-debug-dynamic:string.obj
 0002:000103b4       $unwind$pj_strtrim         00000001400623b4     pjlib-x86_64-x64-vc14-debug-dynamic:string.obj
 0002:000103bc       $unwind$pj_create_random_string 00000001400623bc     pjlib-x86_64-x64-vc14-debug-dynamic:string.obj
 0002:000103c4       $unwind$pj_strtol          00000001400623c4     pjlib-x86_64-x64-vc14-debug-dynamic:string.obj
 0002:000103cc       $unwind$pj_strtol2         00000001400623cc     pjlib-x86_64-x64-vc14-debug-dynamic:string.obj
 0002:000103d8       $unwind$pj_strtoul         00000001400623d8     pjlib-x86_64-x64-vc14-debug-dynamic:string.obj
 0002:000103e0       $unwind$pj_strtoul2        00000001400623e0     pjlib-x86_64-x64-vc14-debug-dynamic:string.obj
 0002:000103e8       $unwind$pj_strtoul3        00000001400623e8     pjlib-x86_64-x64-vc14-debug-dynamic:string.obj
 0002:000103f4       $unwind$pj_strtof          00000001400623f4     pjlib-x86_64-x64-vc14-debug-dynamic:string.obj
 0002:000103fc       $unwind$pj_utoa            00000001400623fc     pjlib-x86_64-x64-vc14-debug-dynamic:string.obj
 0002:00010404       $unwind$pj_utoa_pad        0000000140062404     pjlib-x86_64-x64-vc14-debug-dynamic:string.obj
 0002:0001040c       $unwind$pj_memcpy          000000014006240c     pjlib-x86_64-x64-vc14-debug-dynamic:string.obj
 0002:00010414       $unwind$pj_memcmp          0000000140062414     pjlib-x86_64-x64-vc14-debug-dynamic:string.obj
 0002:0001041c       $unwind$pj_memchr          000000014006241c     pjlib-x86_64-x64-vc14-debug-dynamic:string.obj
 0002:00010424       $unwind$pj_isdigit         0000000140062424     pjlib-x86_64-x64-vc14-debug-dynamic:string.obj
 0002:0001042c       $unwind$pj_isspace         000000014006242c     pjlib-x86_64-x64-vc14-debug-dynamic:string.obj
 0002:00010434       $unwind$pj_isxdigit        0000000140062434     pjlib-x86_64-x64-vc14-debug-dynamic:string.obj
 0002:00010464       $unwind$pj_file_exists     0000000140062464     pjlib-x86_64-x64-vc14-debug-dynamic:file_access_win32.obj
 0002:0001046c       $unwind$pj_file_size       000000014006246c     pjlib-x86_64-x64-vc14-debug-dynamic:file_access_win32.obj
 0002:00010474       $unwind$pj_file_delete     0000000140062474     pjlib-x86_64-x64-vc14-debug-dynamic:file_access_win32.obj
 0002:0001047c       $unwind$pj_file_move       000000014006247c     pjlib-x86_64-x64-vc14-debug-dynamic:file_access_win32.obj
 0002:00010484       $unwind$pj_file_getstat    0000000140062484     pjlib-x86_64-x64-vc14-debug-dynamic:file_access_win32.obj
 0002:0001048c       $unwind$pj_bzero           000000014006248c     pjlib-x86_64-x64-vc14-debug-dynamic:file_access_win32.obj
 0002:00010494       $unwind$get_file_size      0000000140062494     pjlib-x86_64-x64-vc14-debug-dynamic:file_access_win32.obj
 0002:0001049c       $unwind$create_file        000000014006249c     pjlib-x86_64-x64-vc14-debug-dynamic:file_access_win32.obj
 0002:000104a4       $unwind$file_time_to_time_val 00000001400624a4     pjlib-x86_64-x64-vc14-debug-dynamic:file_access_win32.obj
 0002:000104bc       $unwind$pj_file_open       00000001400624bc     pjlib-x86_64-x64-vc14-debug-dynamic:file_io_win32.obj
 0002:000104c4       $unwind$pj_file_close      00000001400624c4     pjlib-x86_64-x64-vc14-debug-dynamic:file_io_win32.obj
 0002:000104cc       $unwind$pj_file_write      00000001400624cc     pjlib-x86_64-x64-vc14-debug-dynamic:file_io_win32.obj
 0002:000104d4       $unwind$pj_file_read       00000001400624d4     pjlib-x86_64-x64-vc14-debug-dynamic:file_io_win32.obj
 0002:000104dc       $unwind$pj_file_setpos     00000001400624dc     pjlib-x86_64-x64-vc14-debug-dynamic:file_io_win32.obj
 0002:000104e4       $unwind$pj_file_getpos     00000001400624e4     pjlib-x86_64-x64-vc14-debug-dynamic:file_io_win32.obj
 0002:000104ec       $unwind$pj_file_flush      00000001400624ec     pjlib-x86_64-x64-vc14-debug-dynamic:file_io_win32.obj
 0002:000104f4       $unwind$set_file_pointer   00000001400624f4     pjlib-x86_64-x64-vc14-debug-dynamic:file_io_win32.obj
 0002:00010504       $unwind$pj_inet_ntop2      0000000140062504     pjlib-x86_64-x64-vc14-debug-dynamic:sock_common.obj
 0002:0001050c       $unwind$pj_sockaddr_print  000000014006250c     pjlib-x86_64-x64-vc14-debug-dynamic:sock_common.obj
 0002:0001051c       $unwind$pj_inet_addr       000000014006251c     pjlib-x86_64-x64-vc14-debug-dynamic:sock_common.obj
 0002:00010524       $unwind$pj_inet_addr2      0000000140062524     pjlib-x86_64-x64-vc14-debug-dynamic:sock_common.obj
 0002:00010530       $unwind$pj_sockaddr_in_init 0000000140062530     pjlib-x86_64-x64-vc14-debug-dynamic:sock_common.obj
 0002:00010538       $unwind$pj_sockaddr_init   0000000140062538     pjlib-x86_64-x64-vc14-debug-dynamic:sock_common.obj
 0002:00010540       $unwind$pj_sockaddr_cmp    0000000140062540     pjlib-x86_64-x64-vc14-debug-dynamic:sock_common.obj
 0002:00010548       $unwind$pj_sockaddr_get_addr 0000000140062548     pjlib-x86_64-x64-vc14-debug-dynamic:sock_common.obj
 0002:00010550       $unwind$pj_sockaddr_has_addr 0000000140062550     pjlib-x86_64-x64-vc14-debug-dynamic:sock_common.obj
 0002:00010560       $unwind$pj_sockaddr_get_addr_len 0000000140062560     pjlib-x86_64-x64-vc14-debug-dynamic:sock_common.obj
 0002:00010568       $unwind$pj_sockaddr_get_len 0000000140062568     pjlib-x86_64-x64-vc14-debug-dynamic:sock_common.obj
 0002:00010570       $unwind$pj_sockaddr_copy_addr 0000000140062570     pjlib-x86_64-x64-vc14-debug-dynamic:sock_common.obj
 0002:00010578       $unwind$pj_sockaddr_cp     0000000140062578     pjlib-x86_64-x64-vc14-debug-dynamic:sock_common.obj
 0002:00010580       $unwind$pj_sockaddr_synthesize 0000000140062580     pjlib-x86_64-x64-vc14-debug-dynamic:sock_common.obj
 0002:00010594       $unwind$pj_sockaddr_in_get_addr 0000000140062594     pjlib-x86_64-x64-vc14-debug-dynamic:sock_common.obj
 0002:0001059c       $unwind$pj_sockaddr_in_set_addr 000000014006259c     pjlib-x86_64-x64-vc14-debug-dynamic:sock_common.obj
 0002:000105a4       $unwind$pj_sockaddr_in_set_str_addr 00000001400625a4     pjlib-x86_64-x64-vc14-debug-dynamic:sock_common.obj
 0002:000105b4       $unwind$pj_sockaddr_set_str_addr 00000001400625b4     pjlib-x86_64-x64-vc14-debug-dynamic:sock_common.obj
 0002:000105c4       $unwind$pj_sockaddr_get_port 00000001400625c4     pjlib-x86_64-x64-vc14-debug-dynamic:sock_common.obj
 0002:000105cc       $unwind$pj_sockaddr_in_get_port 00000001400625cc     pjlib-x86_64-x64-vc14-debug-dynamic:sock_common.obj
 0002:000105d4       $unwind$pj_sockaddr_set_port 00000001400625d4     pjlib-x86_64-x64-vc14-debug-dynamic:sock_common.obj
 0002:000105dc       $unwind$pj_sockaddr_in_set_port 00000001400625dc     pjlib-x86_64-x64-vc14-debug-dynamic:sock_common.obj
 0002:000105e4       $unwind$pj_sockaddr_parse  00000001400625e4     pjlib-x86_64-x64-vc14-debug-dynamic:sock_common.obj
 0002:000105ec       $unwind$pj_sockaddr_parse2 00000001400625ec     pjlib-x86_64-x64-vc14-debug-dynamic:sock_common.obj
 0002:000105f8       $unwind$pj_gethostaddr     00000001400625f8     pjlib-x86_64-x64-vc14-debug-dynamic:sock_common.obj
 0002:00010608       $unwind$pj_sock_bind_random 0000000140062608     pjlib-x86_64-x64-vc14-debug-dynamic:sock_common.obj
 0002:00010618       $unwind$pj_sock_setsockopt_sobuf 0000000140062618     pjlib-x86_64-x64-vc14-debug-dynamic:sock_common.obj
 0002:00010620       $unwind$pj_addr_str_print  0000000140062620     pjlib-x86_64-x64-vc14-debug-dynamic:sock_common.obj
 0002:00010630       $unwind$pj_isdigit         0000000140062630     pjlib-x86_64-x64-vc14-debug-dynamic:sock_common.obj
 0002:00010638       $unwind$pj_strchr          0000000140062638     pjlib-x86_64-x64-vc14-debug-dynamic:sock_common.obj
 0002:00010640       $unwind$pj_bzero           0000000140062640     pjlib-x86_64-x64-vc14-debug-dynamic:sock_common.obj
 0002:00010648       $unwind$pj_memcpy          0000000140062648     pjlib-x86_64-x64-vc14-debug-dynamic:sock_common.obj
 0002:00010650       $unwind$pj_memcmp          0000000140062650     pjlib-x86_64-x64-vc14-debug-dynamic:sock_common.obj
 0002:00010658       $unwind$pj_gethostip       0000000140062658     pjlib-x86_64-x64-vc14-debug-dynamic:sock_common.obj
 0002:00010668       $unwind$pj_getipinterface  0000000140062668     pjlib-x86_64-x64-vc14-debug-dynamic:sock_common.obj
 0002:0001067c       $unwind$pj_getdefaultipinterface 000000014006267c     pjlib-x86_64-x64-vc14-debug-dynamic:sock_common.obj
 0002:000106b0       $unwind$pj_get_timestamp   00000001400626b0     pjlib-x86_64-x64-vc14-debug-dynamic:os_timestamp_win32.obj
 0002:000106b8       $unwind$pj_get_timestamp_freq 00000001400626b8     pjlib-x86_64-x64-vc14-debug-dynamic:os_timestamp_win32.obj
 0002:000106c4       $unwind$pj_array_insert    00000001400626c4     pjlib-x86_64-x64-vc14-debug-dynamic:array.obj
 0002:000106cc       $unwind$pj_array_erase     00000001400626cc     pjlib-x86_64-x64-vc14-debug-dynamic:array.obj
 0002:000106d4       $unwind$pj_array_find      00000001400626d4     pjlib-x86_64-x64-vc14-debug-dynamic:array.obj
 0002:000106dc       $unwind$pj_memmove         00000001400626dc     pjlib-x86_64-x64-vc14-debug-dynamic:array.obj
 0002:000106e8       $unwind$pj_lock_create_simple_mutex 00000001400626e8     pjlib-x86_64-x64-vc14-debug-dynamic:lock.obj
 0002:000106f0       $unwind$pj_lock_create_recursive_mutex 00000001400626f0     pjlib-x86_64-x64-vc14-debug-dynamic:lock.obj
 0002:000106f8       $unwind$pj_lock_create_null_mutex 00000001400626f8     pjlib-x86_64-x64-vc14-debug-dynamic:lock.obj
 0002:00010700       $unwind$pj_lock_create_semaphore 0000000140062700     pjlib-x86_64-x64-vc14-debug-dynamic:lock.obj
 0002:00010708       $unwind$pj_lock_acquire    0000000140062708     pjlib-x86_64-x64-vc14-debug-dynamic:lock.obj
 0002:00010710       $unwind$pj_lock_tryacquire 0000000140062710     pjlib-x86_64-x64-vc14-debug-dynamic:lock.obj
 0002:00010718       $unwind$pj_lock_release    0000000140062718     pjlib-x86_64-x64-vc14-debug-dynamic:lock.obj
 0002:00010720       $unwind$pj_lock_destroy    0000000140062720     pjlib-x86_64-x64-vc14-debug-dynamic:lock.obj
 0002:00010728       $unwind$pj_grp_lock_config_default 0000000140062728     pjlib-x86_64-x64-vc14-debug-dynamic:lock.obj
 0002:00010730       $unwind$pj_grp_lock_create 0000000140062730     pjlib-x86_64-x64-vc14-debug-dynamic:lock.obj
 0002:00010738       $unwind$pj_grp_lock_create_w_handler 0000000140062738     pjlib-x86_64-x64-vc14-debug-dynamic:lock.obj
 0002:00010740       $unwind$pj_grp_lock_destroy 0000000140062740     pjlib-x86_64-x64-vc14-debug-dynamic:lock.obj
 0002:00010748       $unwind$pj_grp_lock_replace 0000000140062748     pjlib-x86_64-x64-vc14-debug-dynamic:lock.obj
 0002:00010750       $unwind$pj_grp_lock_acquire 0000000140062750     pjlib-x86_64-x64-vc14-debug-dynamic:lock.obj
 0002:00010758       $unwind$pj_grp_lock_tryacquire 0000000140062758     pjlib-x86_64-x64-vc14-debug-dynamic:lock.obj
 0002:00010760       $unwind$pj_grp_lock_release 0000000140062760     pjlib-x86_64-x64-vc14-debug-dynamic:lock.obj
 0002:00010768       $unwind$pj_grp_lock_add_handler 0000000140062768     pjlib-x86_64-x64-vc14-debug-dynamic:lock.obj
 0002:00010770       $unwind$pj_grp_lock_del_handler 0000000140062770     pjlib-x86_64-x64-vc14-debug-dynamic:lock.obj
 0002:00010778       $unwind$pj_grp_lock_add_ref 0000000140062778     pjlib-x86_64-x64-vc14-debug-dynamic:lock.obj
 0002:00010780       $unwind$pj_grp_lock_dec_ref 0000000140062780     pjlib-x86_64-x64-vc14-debug-dynamic:lock.obj
 0002:00010788       $unwind$pj_grp_lock_get_ref 0000000140062788     pjlib-x86_64-x64-vc14-debug-dynamic:lock.obj
 0002:00010790       $unwind$pj_grp_lock_dump   0000000140062790     pjlib-x86_64-x64-vc14-debug-dynamic:lock.obj
 0002:00010798       $unwind$pj_grp_lock_chain_lock 0000000140062798     pjlib-x86_64-x64-vc14-debug-dynamic:lock.obj
 0002:000107a0       $unwind$pj_grp_lock_unchain_lock 00000001400627a0     pjlib-x86_64-x64-vc14-debug-dynamic:lock.obj
 0002:000107a8       $unwind$pj_list_push_back  00000001400627a8     pjlib-x86_64-x64-vc14-debug-dynamic:lock.obj
 0002:000107b0       $unwind$pj_pool_zalloc     00000001400627b0     pjlib-x86_64-x64-vc14-debug-dynamic:lock.obj
 0002:000107b8       $unwind$pj_bzero           00000001400627b8     pjlib-x86_64-x64-vc14-debug-dynamic:lock.obj
 0002:000107c0       $unwind$pj_memcpy          00000001400627c0     pjlib-x86_64-x64-vc14-debug-dynamic:lock.obj
 0002:000107c8       $unwind$create_mutex_lock  00000001400627c8     pjlib-x86_64-x64-vc14-debug-dynamic:lock.obj
 0002:000107d0       $unwind$grp_lock_set_owner_thread 00000001400627d0     pjlib-x86_64-x64-vc14-debug-dynamic:lock.obj
 0002:000107d8       $unwind$grp_lock_unset_owner_thread 00000001400627d8     pjlib-x86_64-x64-vc14-debug-dynamic:lock.obj
 0002:000107e0       $unwind$grp_lock_acquire   00000001400627e0     pjlib-x86_64-x64-vc14-debug-dynamic:lock.obj
 0002:000107e8       $unwind$grp_lock_tryacquire 00000001400627e8     pjlib-x86_64-x64-vc14-debug-dynamic:lock.obj
 0002:000107f0       $unwind$grp_lock_release   00000001400627f0     pjlib-x86_64-x64-vc14-debug-dynamic:lock.obj
 0002:000107f8       $unwind$grp_lock_add_handler 00000001400627f8     pjlib-x86_64-x64-vc14-debug-dynamic:lock.obj
 0002:00010800       $unwind$grp_lock_destroy   0000000140062800     pjlib-x86_64-x64-vc14-debug-dynamic:lock.obj
 0002:00010808       $unwind$grp_lock_add_ref   0000000140062808     pjlib-x86_64-x64-vc14-debug-dynamic:lock.obj
 0002:00010810       $unwind$grp_lock_dec_ref   0000000140062810     pjlib-x86_64-x64-vc14-debug-dynamic:lock.obj
 0002:00010838       $unwind$pj_srand           0000000140062838     pjlib-x86_64-x64-vc14-debug-dynamic:rand.obj
 0002:00010840       $unwind$pj_rand            0000000140062840     pjlib-x86_64-x64-vc14-debug-dynamic:rand.obj
 0002:0001084c       $unwind$platform_rand      000000014006284c     pjlib-x86_64-x64-vc14-debug-dynamic:rand.obj
 0002:00010854       $unwind$pj_list_empty      0000000140062854     pjlib-x86_64-x64-vc14-debug-dynamic:list.obj
 0002:0001085c       $unwind$pj_list_insert_before 000000014006285c     pjlib-x86_64-x64-vc14-debug-dynamic:list.obj
 0002:00010864       $unwind$pj_list_insert_nodes_before 0000000140062864     pjlib-x86_64-x64-vc14-debug-dynamic:list.obj
 0002:0001086c       $unwind$pj_list_insert_nodes_after 000000014006286c     pjlib-x86_64-x64-vc14-debug-dynamic:list.obj
 0002:00010874       $unwind$pj_list_merge_first 0000000140062874     pjlib-x86_64-x64-vc14-debug-dynamic:list.obj
 0002:0001087c       $unwind$pj_list_merge_last 000000014006287c     pjlib-x86_64-x64-vc14-debug-dynamic:list.obj
 0002:00010884       $unwind$pj_list_erase      0000000140062884     pjlib-x86_64-x64-vc14-debug-dynamic:list.obj
 0002:0001088c       $unwind$pj_list_find_node  000000014006288c     pjlib-x86_64-x64-vc14-debug-dynamic:list.obj
 0002:00010894       $unwind$pj_list_search     0000000140062894     pjlib-x86_64-x64-vc14-debug-dynamic:list.obj
 0002:0001089c       $unwind$pj_list_size       000000014006289c     pjlib-x86_64-x64-vc14-debug-dynamic:list.obj
 0002:000108ac       $unwind$pj_exception_id_alloc 00000001400628ac     pjlib-x86_64-x64-vc14-debug-dynamic:except.obj
 0002:000108b4       $unwind$pj_exception_id_free 00000001400628b4     pjlib-x86_64-x64-vc14-debug-dynamic:except.obj
 0002:000108bc       $unwind$pj_exception_id_name 00000001400628bc     pjlib-x86_64-x64-vc14-debug-dynamic:except.obj
 0002:000108c4       $unwind$pj_throw_exception_ 00000001400628c4     pjlib-x86_64-x64-vc14-debug-dynamic:except.obj
 0002:000108cc       $unwind$pj_push_exception_handler_ 00000001400628cc     pjlib-x86_64-x64-vc14-debug-dynamic:except.obj
 0002:000108d4       $unwind$pj_pop_exception_handler_ 00000001400628d4     pjlib-x86_64-x64-vc14-debug-dynamic:except.obj
 0002:000108dc       $unwind$exception_cleanup  00000001400628dc     pjlib-x86_64-x64-vc14-debug-dynamic:except.obj
 0002:000108ec       $unwind$pj_ntohs           00000001400628ec     pjlib-x86_64-x64-vc14-debug-dynamic:sock_bsd.obj
 0002:000108f4       $unwind$pj_htons           00000001400628f4     pjlib-x86_64-x64-vc14-debug-dynamic:sock_bsd.obj
 0002:000108fc       $unwind$pj_ntohl           00000001400628fc     pjlib-x86_64-x64-vc14-debug-dynamic:sock_bsd.obj
 0002:00010904       $unwind$pj_htonl           0000000140062904     pjlib-x86_64-x64-vc14-debug-dynamic:sock_bsd.obj
 0002:0001090c       $unwind$pj_inet_ntoa       000000014006290c     pjlib-x86_64-x64-vc14-debug-dynamic:sock_bsd.obj
 0002:00010914       $unwind$pj_inet_aton       0000000140062914     pjlib-x86_64-x64-vc14-debug-dynamic:sock_bsd.obj
 0002:00010924       $unwind$pj_inet_pton       0000000140062924     pjlib-x86_64-x64-vc14-debug-dynamic:sock_bsd.obj
 0002:00010934       $unwind$pj_inet_ntop       0000000140062934     pjlib-x86_64-x64-vc14-debug-dynamic:sock_bsd.obj
 0002:00010944       $unwind$pj_gethostname     0000000140062944     pjlib-x86_64-x64-vc14-debug-dynamic:sock_bsd.obj
 0002:0001094c       $unwind$pj_sock_socket     000000014006294c     pjlib-x86_64-x64-vc14-debug-dynamic:sock_bsd.obj
 0002:00010954       $unwind$pj_sock_close      0000000140062954     pjlib-x86_64-x64-vc14-debug-dynamic:sock_bsd.obj
 0002:0001095c       $unwind$pj_sock_bind       000000014006295c     pjlib-x86_64-x64-vc14-debug-dynamic:sock_bsd.obj
 0002:00010964       $unwind$pj_sock_bind_in    0000000140062964     pjlib-x86_64-x64-vc14-debug-dynamic:sock_bsd.obj
 0002:00010974       $unwind$pj_sock_listen     0000000140062974     pjlib-x86_64-x64-vc14-debug-dynamic:sock_bsd.obj
 0002:0001097c       $unwind$pj_sock_accept     000000014006297c     pjlib-x86_64-x64-vc14-debug-dynamic:sock_bsd.obj
 0002:00010984       $unwind$pj_sock_connect    0000000140062984     pjlib-x86_64-x64-vc14-debug-dynamic:sock_bsd.obj
 0002:0001098c       $unwind$pj_sock_getpeername 000000014006298c     pjlib-x86_64-x64-vc14-debug-dynamic:sock_bsd.obj
 0002:00010994       $unwind$pj_sock_getsockname 0000000140062994     pjlib-x86_64-x64-vc14-debug-dynamic:sock_bsd.obj
 0002:0001099c       $unwind$pj_sock_getsockopt 000000014006299c     pjlib-x86_64-x64-vc14-debug-dynamic:sock_bsd.obj
 0002:000109a4       $unwind$pj_sock_setsockopt 00000001400629a4     pjlib-x86_64-x64-vc14-debug-dynamic:sock_bsd.obj
 0002:000109ac       $unwind$pj_sock_setsockopt_params 00000001400629ac     pjlib-x86_64-x64-vc14-debug-dynamic:sock_bsd.obj
 0002:000109b4       $unwind$pj_sock_recv       00000001400629b4     pjlib-x86_64-x64-vc14-debug-dynamic:sock_bsd.obj
 0002:000109bc       $unwind$pj_sock_recvfrom   00000001400629bc     pjlib-x86_64-x64-vc14-debug-dynamic:sock_bsd.obj
 0002:000109c4       $unwind$pj_sock_send       00000001400629c4     pjlib-x86_64-x64-vc14-debug-dynamic:sock_bsd.obj
 0002:000109cc       $unwind$pj_sock_sendto     00000001400629cc     pjlib-x86_64-x64-vc14-debug-dynamic:sock_bsd.obj
 0002:000109d4       $unwind$pj_sock_shutdown   00000001400629d4     pjlib-x86_64-x64-vc14-debug-dynamic:sock_bsd.obj
 0002:000109dc       $unwind$pj_bzero           00000001400629dc     pjlib-x86_64-x64-vc14-debug-dynamic:sock_bsd.obj
 0002:000109e4       $unwind$pj_memcpy          00000001400629e4     pjlib-x86_64-x64-vc14-debug-dynamic:sock_bsd.obj
 0002:00010a08       $unwind$pj_gettimeofday    0000000140062a08     pjlib-x86_64-x64-vc14-debug-dynamic:os_time_win32.obj
 0002:00010a18       $unwind$pj_time_decode     0000000140062a18     pjlib-x86_64-x64-vc14-debug-dynamic:os_time_win32.obj
 0002:00010a28       $unwind$pj_time_encode     0000000140062a28     pjlib-x86_64-x64-vc14-debug-dynamic:os_time_win32.obj
 0002:00010a38       $unwind$pj_bzero           0000000140062a38     pjlib-x86_64-x64-vc14-debug-dynamic:os_time_win32.obj
 0002:00010a40       $unwind$get_base_time      0000000140062a40     pjlib-x86_64-x64-vc14-debug-dynamic:os_time_win32.obj
 0002:00010a58       $unwind$pj_ioqueue_create  0000000140062a58     pjlib-x86_64-x64-vc14-debug-dynamic:ioqueue_select.obj
 0002:00010a60       $unwind$pj_ioqueue_destroy 0000000140062a60     pjlib-x86_64-x64-vc14-debug-dynamic:ioqueue_select.obj
 0002:00010a68       $unwind$pj_ioqueue_set_lock 0000000140062a68     pjlib-x86_64-x64-vc14-debug-dynamic:ioqueue_select.obj
 0002:00010a70       $unwind$pj_ioqueue_set_default_concurrency 0000000140062a70     pjlib-x86_64-x64-vc14-debug-dynamic:ioqueue_select.obj
 0002:00010a78       $unwind$pj_ioqueue_register_sock 0000000140062a78     pjlib-x86_64-x64-vc14-debug-dynamic:ioqueue_select.obj
 0002:00010a80       $unwind$pj_ioqueue_register_sock2 0000000140062a80     pjlib-x86_64-x64-vc14-debug-dynamic:ioqueue_select.obj
 0002:00010a88       $unwind$pj_ioqueue_unregister 0000000140062a88     pjlib-x86_64-x64-vc14-debug-dynamic:ioqueue_select.obj
 0002:00010a90       $unwind$pj_ioqueue_get_user_data 0000000140062a90     pjlib-x86_64-x64-vc14-debug-dynamic:ioqueue_select.obj
 0002:00010a98       $unwind$pj_ioqueue_set_user_data 0000000140062a98     pjlib-x86_64-x64-vc14-debug-dynamic:ioqueue_select.obj
 0002:00010aa0       $unwind$pj_ioqueue_set_concurrency 0000000140062aa0     pjlib-x86_64-x64-vc14-debug-dynamic:ioqueue_select.obj
 0002:00010aa8       $unwind$pj_ioqueue_lock_key 0000000140062aa8     pjlib-x86_64-x64-vc14-debug-dynamic:ioqueue_select.obj
 0002:00010ab0       $unwind$pj_ioqueue_trylock_key 0000000140062ab0     pjlib-x86_64-x64-vc14-debug-dynamic:ioqueue_select.obj
 0002:00010ab8       $unwind$pj_ioqueue_unlock_key 0000000140062ab8     pjlib-x86_64-x64-vc14-debug-dynamic:ioqueue_select.obj
 0002:00010ac0       $unwind$pj_ioqueue_op_key_init 0000000140062ac0     pjlib-x86_64-x64-vc14-debug-dynamic:ioqueue_select.obj
 0002:00010ac8       $unwind$pj_ioqueue_is_pending 0000000140062ac8     pjlib-x86_64-x64-vc14-debug-dynamic:ioqueue_select.obj
 0002:00010ad0       $unwind$pj_ioqueue_post_completion 0000000140062ad0     pjlib-x86_64-x64-vc14-debug-dynamic:ioqueue_select.obj
 0002:00010ad8       $unwind$pj_ioqueue_accept  0000000140062ad8     pjlib-x86_64-x64-vc14-debug-dynamic:ioqueue_select.obj
 0002:00010ae0       $unwind$pj_ioqueue_connect 0000000140062ae0     pjlib-x86_64-x64-vc14-debug-dynamic:ioqueue_select.obj
 0002:00010ae8       $unwind$pj_ioqueue_poll    0000000140062ae8     pjlib-x86_64-x64-vc14-debug-dynamic:ioqueue_select.obj
 0002:00010af8       $unwind$pj_ioqueue_recv    0000000140062af8     pjlib-x86_64-x64-vc14-debug-dynamic:ioqueue_select.obj
 0002:00010b00       $unwind$pj_ioqueue_recvfrom 0000000140062b00     pjlib-x86_64-x64-vc14-debug-dynamic:ioqueue_select.obj
 0002:00010b08       $unwind$pj_ioqueue_send    0000000140062b08     pjlib-x86_64-x64-vc14-debug-dynamic:ioqueue_select.obj
 0002:00010b10       $unwind$pj_ioqueue_sendto  0000000140062b10     pjlib-x86_64-x64-vc14-debug-dynamic:ioqueue_select.obj
 0002:00010b18       $unwind$pj_list_empty      0000000140062b18     pjlib-x86_64-x64-vc14-debug-dynamic:ioqueue_select.obj
 0002:00010b20       $unwind$pj_list_push_back  0000000140062b20     pjlib-x86_64-x64-vc14-debug-dynamic:ioqueue_select.obj
 0002:00010b28       $unwind$pj_bzero           0000000140062b28     pjlib-x86_64-x64-vc14-debug-dynamic:ioqueue_select.obj
 0002:00010b30       $unwind$pj_memcpy          0000000140062b30     pjlib-x86_64-x64-vc14-debug-dynamic:ioqueue_select.obj
 0002:00010b38       $unwind$ioqueue_add_to_set 0000000140062b38     pjlib-x86_64-x64-vc14-debug-dynamic:ioqueue_select.obj
 0002:00010b40       $unwind$ioqueue_remove_from_set 0000000140062b40     pjlib-x86_64-x64-vc14-debug-dynamic:ioqueue_select.obj
 0002:00010b48       $unwind$ioqueue_destroy    0000000140062b48     pjlib-x86_64-x64-vc14-debug-dynamic:ioqueue_select.obj
 0002:00010b50       $unwind$ioqueue_init_key   0000000140062b50     pjlib-x86_64-x64-vc14-debug-dynamic:ioqueue_select.obj
 0002:00010b58       $unwind$key_has_pending_write 0000000140062b58     pjlib-x86_64-x64-vc14-debug-dynamic:ioqueue_select.obj
 0002:00010b60       $unwind$key_has_pending_read 0000000140062b60     pjlib-x86_64-x64-vc14-debug-dynamic:ioqueue_select.obj
 0002:00010b68       $unwind$key_has_pending_accept 0000000140062b68     pjlib-x86_64-x64-vc14-debug-dynamic:ioqueue_select.obj
 0002:00010b70       $unwind$ioqueue_dispatch_write_event 0000000140062b70     pjlib-x86_64-x64-vc14-debug-dynamic:ioqueue_select.obj
 0002:00010b78       $unwind$ioqueue_dispatch_read_event 0000000140062b78     pjlib-x86_64-x64-vc14-debug-dynamic:ioqueue_select.obj
 0002:00010b80       $unwind$ioqueue_dispatch_exception_event 0000000140062b80     pjlib-x86_64-x64-vc14-debug-dynamic:ioqueue_select.obj
 0002:00010b88       $unwind$scan_closing_keys  0000000140062b88     pjlib-x86_64-x64-vc14-debug-dynamic:ioqueue_select.obj
 0002:00010b90       $unwind$increment_counter  0000000140062b90     pjlib-x86_64-x64-vc14-debug-dynamic:ioqueue_select.obj
 0002:00010b98       $unwind$decrement_counter  0000000140062b98     pjlib-x86_64-x64-vc14-debug-dynamic:ioqueue_select.obj
 0002:00010bc0       $unwind$pj_generate_unique_string 0000000140062bc0     pjlib-x86_64-x64-vc14-debug-dynamic:guid_win32.obj
 0002:00010bd0       $unwind$guid_to_str        0000000140062bd0     pjlib-x86_64-x64-vc14-debug-dynamic:guid_win32.obj
 0002:00010bdc       $unwind$pj_dump_config     0000000140062bdc     pjlib-x86_64-x64-vc14-debug-dynamic:config.obj
 0002:00010be4       $unwind$pj_pool_create_on_buf 0000000140062be4     pjlib-x86_64-x64-vc14-debug-dynamic:pool_buf.obj
 0002:00010bec       $unwind$stack_alloc        0000000140062bec     pjlib-x86_64-x64-vc14-debug-dynamic:pool_buf.obj
 0002:00010bf4       $unwind$pool_buf_cleanup   0000000140062bf4     pjlib-x86_64-x64-vc14-debug-dynamic:pool_buf.obj
 0002:00010bfc       $unwind$pool_buf_initialize 0000000140062bfc     pjlib-x86_64-x64-vc14-debug-dynamic:pool_buf.obj
 0002:00010c08       $unwind$pj_get_os_error    0000000140062c08     pjlib-x86_64-x64-vc14-debug-dynamic:os_error_win32.obj
 0002:00010c10       $unwind$pj_set_os_error    0000000140062c10     pjlib-x86_64-x64-vc14-debug-dynamic:os_error_win32.obj
 0002:00010c18       $unwind$pj_get_netos_error 0000000140062c18     pjlib-x86_64-x64-vc14-debug-dynamic:os_error_win32.obj
 0002:00010c20       $unwind$pj_set_netos_error 0000000140062c20     pjlib-x86_64-x64-vc14-debug-dynamic:os_error_win32.obj
 0002:00010c28       $unwind$pj_memcpy          0000000140062c28     pjlib-x86_64-x64-vc14-debug-dynamic:os_error_win32.obj
 0002:00010c30       $unwind$platform_strerror  0000000140062c30     pjlib-x86_64-x64-vc14-debug-dynamic:os_error_win32.obj
 0002:00010c3c       $unwind$pj_log_write       0000000140062c3c     pjlib-x86_64-x64-vc14-debug-dynamic:log_writer_stdout.obj
 0002:00010c44       $unwind$term_set_color     0000000140062c44     pjlib-x86_64-x64-vc14-debug-dynamic:log_writer_stdout.obj
 0002:00010c4c       $unwind$term_restore_color 0000000140062c4c     pjlib-x86_64-x64-vc14-debug-dynamic:log_writer_stdout.obj
 0002:00010c58       $unwind$pj_bzero           0000000140062c58     pjlib-x86_64-x64-vc14-debug-dynamic:ip_helper_win32.obj
 0002:00010c60       $unwind$pj_memcpy          0000000140062c60     pjlib-x86_64-x64-vc14-debug-dynamic:ip_helper_win32.obj
 0002:00010c68       $unwind$pj_enum_ip_option_default 0000000140062c68     pjlib-x86_64-x64-vc14-debug-dynamic:ip_helper_win32.obj
 0002:00010c70       $unwind$pj_enum_ip_interface 0000000140062c70     pjlib-x86_64-x64-vc14-debug-dynamic:ip_helper_win32.obj
 0002:00010c78       $unwind$pj_enum_ip_interface2 0000000140062c78     pjlib-x86_64-x64-vc14-debug-dynamic:ip_helper_win32.obj
 0002:00010c80       $unwind$pj_enum_ip_route   0000000140062c80     pjlib-x86_64-x64-vc14-debug-dynamic:ip_helper_win32.obj
 0002:00010c90       $unwind$unload_iphlp_module 0000000140062c90     pjlib-x86_64-x64-vc14-debug-dynamic:ip_helper_win32.obj
 0002:00010c98       $unwind$GetIpHlpApiProc    0000000140062c98     pjlib-x86_64-x64-vc14-debug-dynamic:ip_helper_win32.obj
 0002:00010ca0       $unwind$MyGetIpAddrTable   0000000140062ca0     pjlib-x86_64-x64-vc14-debug-dynamic:ip_helper_win32.obj
 0002:00010ca8       $unwind$MyGetAdapterAddresses 0000000140062ca8     pjlib-x86_64-x64-vc14-debug-dynamic:ip_helper_win32.obj
 0002:00010cb0       $unwind$MyGetIfEntry       0000000140062cb0     pjlib-x86_64-x64-vc14-debug-dynamic:ip_helper_win32.obj
 0002:00010cb8       $unwind$MyGetIpForwardTable 0000000140062cb8     pjlib-x86_64-x64-vc14-debug-dynamic:ip_helper_win32.obj
 0002:00010cc0       $unwind$enum_ipv4_interface 0000000140062cc0     pjlib-x86_64-x64-vc14-debug-dynamic:ip_helper_win32.obj
 0002:00010cd0       $unwind$enum_ipv4_ipv6_interface 0000000140062cd0     pjlib-x86_64-x64-vc14-debug-dynamic:ip_helper_win32.obj
 0002:00010cf0       $unwind$pj_gethostbyname   0000000140062cf0     pjlib-x86_64-x64-vc14-debug-dynamic:addr_resolv_sock.obj
 0002:00010d00       $unwind$pj_getaddrinfo     0000000140062d00     pjlib-x86_64-x64-vc14-debug-dynamic:addr_resolv_sock.obj
 0002:00010d08       $unwind$pj_bzero           0000000140062d08     pjlib-x86_64-x64-vc14-debug-dynamic:addr_resolv_sock.obj
 0002:00010d10       $unwind$pj_memcpy          0000000140062d10     pjlib-x86_64-x64-vc14-debug-dynamic:addr_resolv_sock.obj
 0002:00010d1c       $unwind$pj_time_val_normalize 0000000140062d1c     pjlib-x86_64-x64-vc14-debug-dynamic:types.obj
 0002:00010d24       $unwind$pj_gettickcount    0000000140062d24     pjlib-x86_64-x64-vc14-debug-dynamic:os_timestamp_common.obj
 0002:00010d2c       $unwind$pj_elapsed_time    0000000140062d2c     pjlib-x86_64-x64-vc14-debug-dynamic:os_timestamp_common.obj
 0002:00010d34       $unwind$pj_elapsed_msec    0000000140062d34     pjlib-x86_64-x64-vc14-debug-dynamic:os_timestamp_common.obj
 0002:00010d3c       $unwind$pj_elapsed_msec64  0000000140062d3c     pjlib-x86_64-x64-vc14-debug-dynamic:os_timestamp_common.obj
 0002:00010d44       $unwind$pj_elapsed_usec    0000000140062d44     pjlib-x86_64-x64-vc14-debug-dynamic:os_timestamp_common.obj
 0002:00010d4c       $unwind$pj_elapsed_nanosec 0000000140062d4c     pjlib-x86_64-x64-vc14-debug-dynamic:os_timestamp_common.obj
 0002:00010d54       $unwind$elapsed_msec       0000000140062d54     pjlib-x86_64-x64-vc14-debug-dynamic:os_timestamp_common.obj
 0002:00010d5c       $unwind$elapsed_usec       0000000140062d5c     pjlib-x86_64-x64-vc14-debug-dynamic:os_timestamp_common.obj
 0002:00010d6c       $unwind$PJ_FD_ZERO         0000000140062d6c     pjlib-x86_64-x64-vc14-debug-dynamic:sock_select.obj
 0002:00010d74       $unwind$PJ_FD_SET          0000000140062d74     pjlib-x86_64-x64-vc14-debug-dynamic:sock_select.obj
 0002:00010d7c       $unwind$PJ_FD_CLR          0000000140062d7c     pjlib-x86_64-x64-vc14-debug-dynamic:sock_select.obj
 0002:00010d84       $unwind$PJ_FD_ISSET        0000000140062d84     pjlib-x86_64-x64-vc14-debug-dynamic:sock_select.obj
 0002:00010d8c       $unwind$pj_sock_select     0000000140062d8c     pjlib-x86_64-x64-vc14-debug-dynamic:sock_select.obj
 0002:00010d98       $unwind$srtp_init          0000000140062d98     libsrtp-x86_64-x64-vc14-debug-dynamic:srtp.obj
 0002:00010da0       $unwind$srtp_shutdown      0000000140062da0     libsrtp-x86_64-x64-vc14-debug-dynamic:srtp.obj
 0002:00010da8       $unwind$srtp_protect       0000000140062da8     libsrtp-x86_64-x64-vc14-debug-dynamic:srtp.obj
 0002:00010db0       $unwind$srtp_protect_mki   0000000140062db0     libsrtp-x86_64-x64-vc14-debug-dynamic:srtp.obj
 0002:00010dc0       $unwind$srtp_unprotect     0000000140062dc0     libsrtp-x86_64-x64-vc14-debug-dynamic:srtp.obj
 0002:00010dc8       $unwind$srtp_unprotect_mki 0000000140062dc8     libsrtp-x86_64-x64-vc14-debug-dynamic:srtp.obj
 0002:00010dd8       $unwind$srtp_create        0000000140062dd8     libsrtp-x86_64-x64-vc14-debug-dynamic:srtp.obj
 0002:00010de0       $unwind$srtp_add_stream    0000000140062de0     libsrtp-x86_64-x64-vc14-debug-dynamic:srtp.obj
 0002:00010de8       $unwind$srtp_remove_stream 0000000140062de8     libsrtp-x86_64-x64-vc14-debug-dynamic:srtp.obj
 0002:00010df0       $unwind$srtp_update        0000000140062df0     libsrtp-x86_64-x64-vc14-debug-dynamic:srtp.obj
 0002:00010df8       $unwind$srtp_update_stream 0000000140062df8     libsrtp-x86_64-x64-vc14-debug-dynamic:srtp.obj
 0002:00010e00       $unwind$srtp_dealloc       0000000140062e00     libsrtp-x86_64-x64-vc14-debug-dynamic:srtp.obj
 0002:00010e08       $unwind$srtp_crypto_policy_set_from_profile_for_rtp 0000000140062e08     libsrtp-x86_64-x64-vc14-debug-dynamic:srtp.obj
 0002:00010e10       $unwind$srtp_crypto_policy_set_from_profile_for_rtcp 0000000140062e10     libsrtp-x86_64-x64-vc14-debug-dynamic:srtp.obj
 0002:00010e18       $unwind$srtp_profile_get_master_key_length 0000000140062e18     libsrtp-x86_64-x64-vc14-debug-dynamic:srtp.obj
 0002:00010e20       $unwind$srtp_profile_get_master_salt_length 0000000140062e20     libsrtp-x86_64-x64-vc14-debug-dynamic:srtp.obj
 0002:00010e28       $unwind$srtp_append_salt_to_key 0000000140062e28     libsrtp-x86_64-x64-vc14-debug-dynamic:srtp.obj
 0002:00010e30       $unwind$srtp_protect_rtcp  0000000140062e30     libsrtp-x86_64-x64-vc14-debug-dynamic:srtp.obj
 0002:00010e38       $unwind$srtp_protect_rtcp_mki 0000000140062e38     libsrtp-x86_64-x64-vc14-debug-dynamic:srtp.obj
 0002:00010e48       $unwind$srtp_unprotect_rtcp 0000000140062e48     libsrtp-x86_64-x64-vc14-debug-dynamic:srtp.obj
 0002:00010e50       $unwind$srtp_unprotect_rtcp_mki 0000000140062e50     libsrtp-x86_64-x64-vc14-debug-dynamic:srtp.obj
 0002:00010e60       $unwind$srtp_get_version   0000000140062e60     libsrtp-x86_64-x64-vc14-debug-dynamic:srtp.obj
 0002:00010e68       $unwind$srtp_set_debug_module 0000000140062e68     libsrtp-x86_64-x64-vc14-debug-dynamic:srtp.obj
 0002:00010e70       $unwind$srtp_list_debug_modules 0000000140062e70     libsrtp-x86_64-x64-vc14-debug-dynamic:srtp.obj
 0002:00010e78       $unwind$srtp_install_log_handler 0000000140062e78     libsrtp-x86_64-x64-vc14-debug-dynamic:srtp.obj
 0002:00010e80       $unwind$srtp_get_protect_trailer_length 0000000140062e80     libsrtp-x86_64-x64-vc14-debug-dynamic:srtp.obj
 0002:00010e88       $unwind$srtp_get_protect_rtcp_trailer_length 0000000140062e88     libsrtp-x86_64-x64-vc14-debug-dynamic:srtp.obj
 0002:00010e90       $unwind$srtp_set_stream_roc 0000000140062e90     libsrtp-x86_64-x64-vc14-debug-dynamic:srtp.obj
 0002:00010e98       $unwind$srtp_get_stream_roc 0000000140062e98     libsrtp-x86_64-x64-vc14-debug-dynamic:srtp.obj
 0002:00010ea0       $unwind$be64_to_cpu        0000000140062ea0     libsrtp-x86_64-x64-vc14-debug-dynamic:srtp.obj
 0002:00010ea8       $unwind$srtp_get_stream    0000000140062ea8     libsrtp-x86_64-x64-vc14-debug-dynamic:srtp.obj
 0002:00010eb0       $unwind$srtp_stream_init_keys 0000000140062eb0     libsrtp-x86_64-x64-vc14-debug-dynamic:srtp.obj
 0002:00010ec0       $unwind$srtp_stream_init   0000000140062ec0     libsrtp-x86_64-x64-vc14-debug-dynamic:srtp.obj
 0002:00010ec8       $unwind$srtp_validate_rtp_header 0000000140062ec8     libsrtp-x86_64-x64-vc14-debug-dynamic:srtp.obj
 0002:00010ed0       $unwind$srtp_stream_free   0000000140062ed0     libsrtp-x86_64-x64-vc14-debug-dynamic:srtp.obj
 0002:00010ed8       $unwind$srtp_stream_alloc  0000000140062ed8     libsrtp-x86_64-x64-vc14-debug-dynamic:srtp.obj
 0002:00010ee0       $unwind$srtp_stream_dealloc 0000000140062ee0     libsrtp-x86_64-x64-vc14-debug-dynamic:srtp.obj
 0002:00010ee8       $unwind$srtp_stream_clone  0000000140062ee8     libsrtp-x86_64-x64-vc14-debug-dynamic:srtp.obj
 0002:00010ef0       $unwind$srtp_kdf_init      0000000140062ef0     libsrtp-x86_64-x64-vc14-debug-dynamic:srtp.obj
 0002:00010ef8       $unwind$srtp_kdf_generate  0000000140062ef8     libsrtp-x86_64-x64-vc14-debug-dynamic:srtp.obj
 0002:00010f08       $unwind$srtp_kdf_clear     0000000140062f08     libsrtp-x86_64-x64-vc14-debug-dynamic:srtp.obj
 0002:00010f10       $unwind$base_key_length    0000000140062f10     libsrtp-x86_64-x64-vc14-debug-dynamic:srtp.obj
 0002:00010f18       $unwind$srtp_validate_policy_master_keys 0000000140062f18     libsrtp-x86_64-x64-vc14-debug-dynamic:srtp.obj
 0002:00010f20       $unwind$srtp_inject_mki    0000000140062f20     libsrtp-x86_64-x64-vc14-debug-dynamic:srtp.obj
 0002:00010f28       $unwind$srtp_stream_init_all_master_keys 0000000140062f28     libsrtp-x86_64-x64-vc14-debug-dynamic:srtp.obj
 0002:00010f30       $unwind$srtp_event_reporter 0000000140062f30     libsrtp-x86_64-x64-vc14-debug-dynamic:srtp.obj
 0002:00010f38       $unwind$srtp_protect_extension_header 0000000140062f38     libsrtp-x86_64-x64-vc14-debug-dynamic:srtp.obj
 0002:00010f40       $unwind$srtp_process_header_encryption 0000000140062f40     libsrtp-x86_64-x64-vc14-debug-dynamic:srtp.obj
 0002:00010f50       $unwind$srtp_calc_aead_iv  0000000140062f50     libsrtp-x86_64-x64-vc14-debug-dynamic:srtp.obj
 0002:00010f60       $unwind$srtp_get_session_keys 0000000140062f60     libsrtp-x86_64-x64-vc14-debug-dynamic:srtp.obj
 0002:00010f68       $unwind$srtp_get_est_pkt_index 0000000140062f68     libsrtp-x86_64-x64-vc14-debug-dynamic:srtp.obj
 0002:00010f70       $unwind$srtp_protect_aead  0000000140062f70     libsrtp-x86_64-x64-vc14-debug-dynamic:srtp.obj
 0002:00010f80       $unwind$srtp_unprotect_aead 0000000140062f80     libsrtp-x86_64-x64-vc14-debug-dynamic:srtp.obj
 0002:00010f90       $unwind$update_template_streams 0000000140062f90     libsrtp-x86_64-x64-vc14-debug-dynamic:srtp.obj
 0002:00010fa4       $unwind$update_stream      0000000140062fa4     libsrtp-x86_64-x64-vc14-debug-dynamic:srtp.obj
 0002:00010fb8       $unwind$srtp_calc_aead_iv_srtcp 0000000140062fb8     libsrtp-x86_64-x64-vc14-debug-dynamic:srtp.obj
 0002:00010fc8       $unwind$srtp_protect_rtcp_aead 0000000140062fc8     libsrtp-x86_64-x64-vc14-debug-dynamic:srtp.obj
 0002:00010fd8       $unwind$srtp_unprotect_rtcp_aead 0000000140062fd8     libsrtp-x86_64-x64-vc14-debug-dynamic:srtp.obj
 0002:00010fe8       $unwind$srtp_err_handler   0000000140062fe8     libsrtp-x86_64-x64-vc14-debug-dynamic:srtp.obj
 0002:0001102c       $unwind$_vsscanf_l         000000014006302c     libsrtp-x86_64-x64-vc14-debug-dynamic:srtp.obj
 0002:00011034       $unwind$sscanf             0000000140063034     libsrtp-x86_64-x64-vc14-debug-dynamic:srtp.obj
 0002:0001103c       $unwind$srtp_crypto_alloc  000000014006303c     libsrtp-x86_64-x64-vc14-debug-dynamic:alloc.obj
 0002:00011044       $unwind$srtp_crypto_free   0000000140063044     libsrtp-x86_64-x64-vc14-debug-dynamic:alloc.obj
 0002:00011050       $unwind$srtp_octet_string_hex_string 0000000140063050     libsrtp-x86_64-x64-vc14-debug-dynamic:datatypes.obj
 0002:00011058       $unwind$v128_bit_string    0000000140063058     libsrtp-x86_64-x64-vc14-debug-dynamic:datatypes.obj
 0002:00011060       $unwind$v128_hex_string    0000000140063060     libsrtp-x86_64-x64-vc14-debug-dynamic:datatypes.obj
 0002:00011068       $unwind$v128_left_shift    0000000140063068     libsrtp-x86_64-x64-vc14-debug-dynamic:datatypes.obj
 0002:00011070       $unwind$v128_right_shift   0000000140063070     libsrtp-x86_64-x64-vc14-debug-dynamic:datatypes.obj
 0002:00011078       $unwind$octet_string_is_eq 0000000140063078     libsrtp-x86_64-x64-vc14-debug-dynamic:datatypes.obj
 0002:00011080       $unwind$srtp_cleanse       0000000140063080     libsrtp-x86_64-x64-vc14-debug-dynamic:datatypes.obj
 0002:00011088       $unwind$octet_string_set_to_zero 0000000140063088     libsrtp-x86_64-x64-vc14-debug-dynamic:datatypes.obj
 0002:00011090       $unwind$bitvector_alloc    0000000140063090     libsrtp-x86_64-x64-vc14-debug-dynamic:datatypes.obj
 0002:00011098       $unwind$bitvector_dealloc  0000000140063098     libsrtp-x86_64-x64-vc14-debug-dynamic:datatypes.obj
 0002:000110a0       $unwind$bitvector_set_to_zero 00000001400630a0     libsrtp-x86_64-x64-vc14-debug-dynamic:datatypes.obj
 0002:000110a8       $unwind$bitvector_left_shift 00000001400630a8     libsrtp-x86_64-x64-vc14-debug-dynamic:datatypes.obj
 0002:000110b0       $unwind$bitvector_bit_string 00000001400630b0     libsrtp-x86_64-x64-vc14-debug-dynamic:datatypes.obj
 0002:000110b8       $unwind$srtp_nibble_to_hex_char 00000001400630b8     libsrtp-x86_64-x64-vc14-debug-dynamic:datatypes.obj
 0002:000110d4       $unwind$srtp_err_report    00000001400630d4     libsrtp-x86_64-x64-vc14-debug-dynamic:srtp_err.obj
 0002:000110dc       $unwind$srtp_rdbx_init     00000001400630dc     libsrtp-x86_64-x64-vc14-debug-dynamic:rdbx.obj
 0002:000110e4       $unwind$srtp_rdbx_dealloc  00000001400630e4     libsrtp-x86_64-x64-vc14-debug-dynamic:rdbx.obj
 0002:000110ec       $unwind$srtp_rdbx_estimate_index 00000001400630ec     libsrtp-x86_64-x64-vc14-debug-dynamic:rdbx.obj
 0002:000110f4       $unwind$srtp_rdbx_check    00000001400630f4     libsrtp-x86_64-x64-vc14-debug-dynamic:rdbx.obj
 0002:000110fc       $unwind$srtp_rdbx_add_index 00000001400630fc     libsrtp-x86_64-x64-vc14-debug-dynamic:rdbx.obj
 0002:00011104       $unwind$srtp_rdbx_set_roc  0000000140063104     libsrtp-x86_64-x64-vc14-debug-dynamic:rdbx.obj
 0002:0001110c       $unwind$srtp_index_guess   000000014006310c     libsrtp-x86_64-x64-vc14-debug-dynamic:rdbx.obj
 0002:00011114       $unwind$srtp_rdbx_get_roc  0000000140063114     libsrtp-x86_64-x64-vc14-debug-dynamic:rdbx.obj
 0002:0001111c       $unwind$srtp_rdbx_set_roc_seq 000000014006311c     libsrtp-x86_64-x64-vc14-debug-dynamic:rdbx.obj
 0002:0001112c       $unwind$srtp_rdb_add_index 000000014006312c     libsrtp-x86_64-x64-vc14-debug-dynamic:rdb.obj
 0002:00011134       $unwind$srtp_cipher_type_self_test 0000000140063134     libsrtp-x86_64-x64-vc14-debug-dynamic:cipher.obj
 0002:0001113c       $unwind$srtp_cipher_type_test 000000014006313c     libsrtp-x86_64-x64-vc14-debug-dynamic:cipher.obj
 0002:0001114c       $unwind$srtp_cipher_bits_per_second 000000014006314c     libsrtp-x86_64-x64-vc14-debug-dynamic:cipher.obj
 0002:0001115c       $unwind$srtp_cipher_type_alloc 000000014006315c     libsrtp-x86_64-x64-vc14-debug-dynamic:cipher.obj
 0002:00011164       $unwind$srtp_cipher_dealloc 0000000140063164     libsrtp-x86_64-x64-vc14-debug-dynamic:cipher.obj
 0002:0001116c       $unwind$srtp_cipher_init   000000014006316c     libsrtp-x86_64-x64-vc14-debug-dynamic:cipher.obj
 0002:00011174       $unwind$srtp_cipher_set_iv 0000000140063174     libsrtp-x86_64-x64-vc14-debug-dynamic:cipher.obj
 0002:0001117c       $unwind$srtp_cipher_output 000000014006317c     libsrtp-x86_64-x64-vc14-debug-dynamic:cipher.obj
 0002:00011184       $unwind$srtp_cipher_encrypt 0000000140063184     libsrtp-x86_64-x64-vc14-debug-dynamic:cipher.obj
 0002:0001118c       $unwind$srtp_cipher_decrypt 000000014006318c     libsrtp-x86_64-x64-vc14-debug-dynamic:cipher.obj
 0002:00011194       $unwind$srtp_cipher_get_tag 0000000140063194     libsrtp-x86_64-x64-vc14-debug-dynamic:cipher.obj
 0002:0001119c       $unwind$srtp_cipher_set_aad 000000014006319c     libsrtp-x86_64-x64-vc14-debug-dynamic:cipher.obj
 0002:000111a4       $unwind$srtp_cipher_rand   00000001400631a4     libsrtp-x86_64-x64-vc14-debug-dynamic:cipher.obj
 0002:000111b8       $unwind$srtp_auth_type_self_test 00000001400631b8     libsrtp-x86_64-x64-vc14-debug-dynamic:auth.obj
 0002:000111c0       $unwind$srtp_auth_type_test 00000001400631c0     libsrtp-x86_64-x64-vc14-debug-dynamic:auth.obj
 0002:000111d4       $unwind$srtp_replace_cipher_type 00000001400631d4     libsrtp-x86_64-x64-vc14-debug-dynamic:crypto_kernel.obj
 0002:000111dc       $unwind$srtp_replace_auth_type 00000001400631dc     libsrtp-x86_64-x64-vc14-debug-dynamic:crypto_kernel.obj
 0002:000111e4       $unwind$srtp_crypto_kernel_init 00000001400631e4     libsrtp-x86_64-x64-vc14-debug-dynamic:crypto_kernel.obj
 0002:000111ec       $unwind$srtp_crypto_kernel_shutdown 00000001400631ec     libsrtp-x86_64-x64-vc14-debug-dynamic:crypto_kernel.obj
 0002:000111f4       $unwind$srtp_crypto_kernel_status 00000001400631f4     libsrtp-x86_64-x64-vc14-debug-dynamic:crypto_kernel.obj
 0002:000111fc       $unwind$srtp_crypto_kernel_list_debug_modules 00000001400631fc     libsrtp-x86_64-x64-vc14-debug-dynamic:crypto_kernel.obj
 0002:00011204       $unwind$srtp_crypto_kernel_load_cipher_type 0000000140063204     libsrtp-x86_64-x64-vc14-debug-dynamic:crypto_kernel.obj
 0002:0001120c       $unwind$srtp_crypto_kernel_load_auth_type 000000014006320c     libsrtp-x86_64-x64-vc14-debug-dynamic:crypto_kernel.obj
 0002:00011214       $unwind$srtp_crypto_kernel_load_debug_module 0000000140063214     libsrtp-x86_64-x64-vc14-debug-dynamic:crypto_kernel.obj
 0002:0001121c       $unwind$srtp_crypto_kernel_alloc_cipher 000000014006321c     libsrtp-x86_64-x64-vc14-debug-dynamic:crypto_kernel.obj
 0002:00011224       $unwind$srtp_crypto_kernel_alloc_auth 0000000140063224     libsrtp-x86_64-x64-vc14-debug-dynamic:crypto_kernel.obj
 0002:0001122c       $unwind$srtp_crypto_kernel_set_debug_module 000000014006322c     libsrtp-x86_64-x64-vc14-debug-dynamic:crypto_kernel.obj
 0002:00011234       $unwind$srtp_crypto_kernel_do_load_cipher_type 0000000140063234     libsrtp-x86_64-x64-vc14-debug-dynamic:crypto_kernel.obj
 0002:0001123c       $unwind$srtp_crypto_kernel_do_load_auth_type 000000014006323c     libsrtp-x86_64-x64-vc14-debug-dynamic:crypto_kernel.obj
 0002:00011244       $unwind$srtp_crypto_kernel_get_cipher_type 0000000140063244     libsrtp-x86_64-x64-vc14-debug-dynamic:crypto_kernel.obj
 0002:0001124c       $unwind$srtp_crypto_kernel_get_auth_type 000000014006324c     libsrtp-x86_64-x64-vc14-debug-dynamic:crypto_kernel.obj
 0002:00011260       $unwind$srtp_ekt_octets_after_base_tag 0000000140063260     libsrtp-x86_64-x64-vc14-debug-dynamic:ekt.obj
 0002:00011268       $unwind$srtp_stream_init_from_ekt 0000000140063268     libsrtp-x86_64-x64-vc14-debug-dynamic:ekt.obj
 0002:00011278       $unwind$srtp_ekt_write_data 0000000140063278     libsrtp-x86_64-x64-vc14-debug-dynamic:ekt.obj
 0002:00011280       $unwind$srtcp_packet_get_ekt_spi 0000000140063280     libsrtp-x86_64-x64-vc14-debug-dynamic:ekt.obj
 0002:00011288       $unwind$srtcp_packet_get_ekt_roc 0000000140063288     libsrtp-x86_64-x64-vc14-debug-dynamic:ekt.obj
 0002:00011290       $unwind$srtcp_packet_get_emk_location 0000000140063290     libsrtp-x86_64-x64-vc14-debug-dynamic:ekt.obj
 0002:00011298       $unwind$aes_decrypt_with_raw_key 0000000140063298     libsrtp-x86_64-x64-vc14-debug-dynamic:ekt.obj
 0002:000112b0       $unwind$stat_test_monobit  00000001400632b0     libsrtp-x86_64-x64-vc14-debug-dynamic:stat.obj
 0002:000112b8       $unwind$stat_test_poker    00000001400632b8     libsrtp-x86_64-x64-vc14-debug-dynamic:stat.obj
 0002:000112c8       $unwind$stat_test_runs     00000001400632c8     libsrtp-x86_64-x64-vc14-debug-dynamic:stat.obj
 0002:000112dc       $unwind$srtp_null_cipher_alloc 00000001400632dc     libsrtp-x86_64-x64-vc14-debug-dynamic:null_cipher.obj
 0002:000112e4       $unwind$srtp_null_cipher_dealloc 00000001400632e4     libsrtp-x86_64-x64-vc14-debug-dynamic:null_cipher.obj
 0002:000112ec       $unwind$srtp_null_cipher_init 00000001400632ec     libsrtp-x86_64-x64-vc14-debug-dynamic:null_cipher.obj
 0002:000112f8       $unwind$srtp_aes_icm_alloc 00000001400632f8     libsrtp-x86_64-x64-vc14-debug-dynamic:aes_icm.obj
 0002:00011300       $unwind$srtp_aes_icm_dealloc 0000000140063300     libsrtp-x86_64-x64-vc14-debug-dynamic:aes_icm.obj
 0002:00011308       $unwind$srtp_aes_icm_context_init 0000000140063308     libsrtp-x86_64-x64-vc14-debug-dynamic:aes_icm.obj
 0002:00011310       $unwind$srtp_aes_icm_set_iv 0000000140063310     libsrtp-x86_64-x64-vc14-debug-dynamic:aes_icm.obj
 0002:00011320       $unwind$srtp_aes_icm_advance 0000000140063320     libsrtp-x86_64-x64-vc14-debug-dynamic:aes_icm.obj
 0002:00011328       $unwind$srtp_aes_icm_encrypt 0000000140063328     libsrtp-x86_64-x64-vc14-debug-dynamic:aes_icm.obj
 0002:00011338       $unwind$srtp_null_auth_alloc 0000000140063338     libsrtp-x86_64-x64-vc14-debug-dynamic:null_auth.obj
 0002:00011340       $unwind$srtp_null_auth_dealloc 0000000140063340     libsrtp-x86_64-x64-vc14-debug-dynamic:null_auth.obj
 0002:0001134c       $unwind$srtp_hmac_alloc    000000014006334c     libsrtp-x86_64-x64-vc14-debug-dynamic:hmac.obj
 0002:00011354       $unwind$srtp_hmac_dealloc  0000000140063354     libsrtp-x86_64-x64-vc14-debug-dynamic:hmac.obj
 0002:0001135c       $unwind$srtp_hmac_init     000000014006335c     libsrtp-x86_64-x64-vc14-debug-dynamic:hmac.obj
 0002:0001136c       $unwind$srtp_hmac_start    000000014006336c     libsrtp-x86_64-x64-vc14-debug-dynamic:hmac.obj
 0002:00011374       $unwind$srtp_hmac_update   0000000140063374     libsrtp-x86_64-x64-vc14-debug-dynamic:hmac.obj
 0002:0001137c       $unwind$srtp_hmac_compute  000000014006337c     libsrtp-x86_64-x64-vc14-debug-dynamic:hmac.obj
 0002:00011394       $unwind$srtp_aes_expand_encryption_key 0000000140063394     libsrtp-x86_64-x64-vc14-debug-dynamic:aes.obj
 0002:0001139c       $unwind$srtp_aes_expand_decryption_key 000000014006339c     libsrtp-x86_64-x64-vc14-debug-dynamic:aes.obj
 0002:000113ac       $unwind$srtp_aes_encrypt   00000001400633ac     libsrtp-x86_64-x64-vc14-debug-dynamic:aes.obj
 0002:000113b4       $unwind$srtp_aes_decrypt   00000001400633b4     libsrtp-x86_64-x64-vc14-debug-dynamic:aes.obj
 0002:000113bc       $unwind$aes_128_expand_encryption_key 00000001400633bc     libsrtp-x86_64-x64-vc14-debug-dynamic:aes.obj
 0002:000113c4       $unwind$aes_256_expand_encryption_key 00000001400633c4     libsrtp-x86_64-x64-vc14-debug-dynamic:aes.obj
 0002:000113cc       $unwind$aes_round          00000001400633cc     libsrtp-x86_64-x64-vc14-debug-dynamic:aes.obj
 0002:000113d4       $unwind$aes_inv_round      00000001400633d4     libsrtp-x86_64-x64-vc14-debug-dynamic:aes.obj
 0002:000113dc       $unwind$aes_final_round    00000001400633dc     libsrtp-x86_64-x64-vc14-debug-dynamic:aes.obj
 0002:000113e4       $unwind$aes_inv_final_round 00000001400633e4     libsrtp-x86_64-x64-vc14-debug-dynamic:aes.obj
 0002:000113f4       $unwind$srtp_sha1_update   00000001400633f4     libsrtp-x86_64-x64-vc14-debug-dynamic:sha1.obj
 0002:000113fc       $unwind$srtp_sha1_final    00000001400633fc     libsrtp-x86_64-x64-vc14-debug-dynamic:sha1.obj
 0002:0001140c       $unwind$srtp_sha1_core     000000014006340c     libsrtp-x86_64-x64-vc14-debug-dynamic:sha1.obj
 0002:0001141c       $unwind$srtp_sha1          000000014006341c     libsrtp-x86_64-x64-vc14-debug-dynamic:sha1.obj
 0002:00011434       $unwind$__GSHandlerCheckCommon 0000000140063434     MSVCRTD:gshandler.obj
 0002:0001143c       $unwind$__GSHandlerCheck   000000014006343c     MSVCRTD:gshandler.obj
 0002:00011448       $xdatasym                  0000000140063448     MSVCRTD:amdsecgs.obj
 0002:0001144c       $unwind$?configure_argv@__scrt_narrow_argv_policy@@SAHXZ 000000014006344c     MSVCRTD:exe_main.obj
 0002:00011454       $unwind$?initialize_environment@__scrt_narrow_environment_policy@@SAHXZ 0000000140063454     MSVCRTD:exe_main.obj
 0002:0001145c       $unwind$?set_app_type@__scrt_main_policy@@SAXXZ 000000014006345c     MSVCRTD:exe_main.obj
 0002:00011464       $unwind$?set_fmode@__scrt_file_policy@@SAXXZ 0000000140063464     MSVCRTD:exe_main.obj
 0002:0001146c       $unwind$?set_commode@__scrt_file_policy@@SAXXZ 000000014006346c     MSVCRTD:exe_main.obj
 0002:00011474       $unwind$?invoke_main@@YAHXZ 0000000140063474     MSVCRTD:exe_main.obj
 0002:0001147c       $unwind$?pre_c_initialization@@YAHXZ 000000014006347c     MSVCRTD:exe_main.obj
 0002:00011484       $unwind$?post_pgo_initialization@@YAHXZ 0000000140063484     MSVCRTD:exe_main.obj
 0002:0001148c       $unwind$?pre_cpp_initialization@@YAXXZ 000000014006348c     MSVCRTD:exe_main.obj
 0002:00011494       $unwind$?__scrt_common_main_seh@@YAHXZ 0000000140063494     MSVCRTD:exe_main.obj
 0002:000114b8       $unwind$?filt$0@?0??__scrt_common_main_seh@@YAHXZ@4HA 00000001400634b8     MSVCRTD:exe_main.obj
 0002:000114c0       $unwind$?__scrt_common_main@@YAHXZ 00000001400634c0     MSVCRTD:exe_main.obj
 0002:000114c8       $unwind$mainCRTStartup     00000001400634c8     MSVCRTD:exe_main.obj
 0002:000114d0       $unwind$__report_securityfailure 00000001400634d0     MSVCRTD:gs_report.obj
 0002:000114d8       $unwind$__report_securityfailureEx 00000001400634d8     MSVCRTD:gs_report.obj
 0002:000114e0       $unwind$__report_rangecheckfailure 00000001400634e0     MSVCRTD:gs_report.obj
 0002:000114e8       $unwind$__report_gsfailure 00000001400634e8     MSVCRTD:gs_report.obj
 0002:000114f0       $unwind$capture_current_context 00000001400634f0     MSVCRTD:gs_report.obj
 0002:000114f8       $unwind$capture_previous_context 00000001400634f8     MSVCRTD:gs_report.obj
 0002:00011500       $unwind$__raise_securityfailure 0000000140063500     MSVCRTD:gs_report.obj
 0002:00011508       $xdatasym                  0000000140063508     MSVCRTD:chkstk.obj
 0002:00011510       $unwind$atexit             0000000140063510     MSVCRTD:utility.obj
 0002:00011518       $unwind$_onexit            0000000140063518     MSVCRTD:utility.obj
 0002:00011520       $unwind$at_quick_exit      0000000140063520     MSVCRTD:utility.obj
 0002:00011528       $unwind$__scrt_is_nonwritable_in_current_image 0000000140063528     MSVCRTD:utility.obj
 0002:0001154c       $unwind$__scrt_is_nonwritable_in_current_image$filt$0 000000014006354c     MSVCRTD:utility.obj
 0002:00011554       $unwind$__scrt_acquire_startup_lock 0000000140063554     MSVCRTD:utility.obj
 0002:0001155c       $unwind$__scrt_release_startup_lock 000000014006355c     MSVCRTD:utility.obj
 0002:00011564       $unwind$__scrt_initialize_crt 0000000140063564     MSVCRTD:utility.obj
 0002:0001156c       $unwind$__scrt_uninitialize_crt 000000014006356c     MSVCRTD:utility.obj
 0002:00011574       $unwind$__scrt_initialize_onexit_tables 0000000140063574     MSVCRTD:utility.obj
 0002:00011584       $unwind$__scrt_dllmain_exception_filter 0000000140063584     MSVCRTD:utility.obj
 0002:0001158c       $unwind$__scrt_dllmain_before_initialize_c 000000014006358c     MSVCRTD:utility.obj
 0002:00011594       $unwind$__scrt_dllmain_after_initialize_c 0000000140063594     MSVCRTD:utility.obj
 0002:0001159c       $unwind$__scrt_dllmain_uninitialize_c 000000014006359c     MSVCRTD:utility.obj
 0002:000115a4       $unwind$__scrt_dllmain_uninitialize_critical 00000001400635a4     MSVCRTD:utility.obj
 0002:000115ac       $unwind$__scrt_dllmain_crt_thread_attach 00000001400635ac     MSVCRTD:utility.obj
 0002:000115b4       $unwind$__scrt_dllmain_crt_thread_detach 00000001400635b4     MSVCRTD:utility.obj
 0002:000115bc       $unwind$?is_potentially_valid_image_base@@YA_NQEAX@Z 00000001400635bc     MSVCRTD:utility.obj
 0002:000115c4       $unwind$?find_pe_section@@YAPEAU_IMAGE_SECTION_HEADER@@QEAE_K@Z 00000001400635c4     MSVCRTD:utility.obj
 0002:000115cc       $unwind$__security_init_cookie 00000001400635cc     MSVCRTD:gs_support.obj
 0002:000115d4       $unwind$__get_entropy      00000001400635d4     MSVCRTD:gs_support.obj
 0002:000115dc       $unwind$?__scrt_initialize_type_info@@YAXXZ 00000001400635dc     MSVCRTD:tncleanup.obj
 0002:000115e4       $unwind$?__scrt_uninitialize_type_info@@YAXXZ 00000001400635e4     MSVCRTD:tncleanup.obj
 0002:000115ec       $unwind$__scrt_initialize_default_local_stdio_options 00000001400635ec     MSVCRTD:default_local_stdio_options.obj
 0002:000115f4       $unwind$__scrt_is_user_matherr_present 00000001400635f4     MSVCRTD:matherr_detection.obj
 0002:000115fc       $unwind$__scrt_get_show_window_mode 00000001400635fc     MSVCRTD:utility_desktop.obj
 0002:0001160c       $unwind$__scrt_is_managed_app 000000014006360c     MSVCRTD:utility_desktop.obj
 0002:00011614       $unwind$__scrt_initialize_mta 0000000140063614     MSVCRTD:utility_desktop.obj
 0002:0001161c       $unwind$__scrt_set_unhandled_exception_filter 000000014006361c     MSVCRTD:utility_desktop.obj
 0002:00011624       $unwind$__scrt_fastfail    0000000140063624     MSVCRTD:utility_desktop.obj
 0002:00011634       $unwind$__scrt_unhandled_exception_filter 0000000140063634     MSVCRTD:utility_desktop.obj
 0002:0001163c       $unwind$_RTC_Initialize    000000014006363c     MSVCRTD:initsect.obj
 0002:0001164c       $unwind$_RTC_Terminate     000000014006364c     MSVCRTD:initsect.obj
 0002:0001165c       $unwind$ReadNoFence64      000000014006365c     MSVCRTD:guard_support.obj
 0002:00011664       $unwind$ReadPointerNoFence 0000000140063664     MSVCRTD:guard_support.obj
 0002:0001166c       $unwind$_guard_icall_checks_enforced 000000014006366c     MSVCRTD:guard_support.obj
 0002:00011674       $unwind$__castguard_compat_check 0000000140063674     MSVCRTD:guard_support.obj
 0002:0001167c       $unwind$__castguard_check_failure_debugbreak 000000014006367c     MSVCRTD:guard_support.obj
 0002:00011684       $unwind$__castguard_check_failure_fastfail 0000000140063684     MSVCRTD:guard_support.obj
 0002:0001168c       $unwind$__castguard_check_failure_os_handled 000000014006368c     MSVCRTD:guard_support.obj
 0002:00011694       $unwind$__castguard_slow_path_compat_check 0000000140063694     MSVCRTD:guard_support.obj
 0002:0001169c       $unwind$__castguard_slow_path_check_debugbreak 000000014006369c     MSVCRTD:guard_support.obj
 0002:000116a4       $unwind$__castguard_slow_path_check_fastfail 00000001400636a4     MSVCRTD:guard_support.obj
 0002:000116ac       $unwind$__castguard_slow_path_check_os_handled 00000001400636ac     MSVCRTD:guard_support.obj
 0002:000116b4       $unwind$__isa_available_init 00000001400636b4     MSVCRTD:cpu_disp.obj
 0002:000116c8       $unwind$__scrt_is_ucrt_dll_in_use 00000001400636c8     MSVCRTD:ucrt_detection.obj
 0002:000116d0       $xdatasym                  00000001400636d0     MSVCRTD:guard_dispatch.obj
 0002:000116d8       $xdatasym                  00000001400636d8     MSVCRTD:guard_xfg_dispatch.obj
 0003:00000000       $SG16363                   0000000140064000     latency.obj
 0003:00000100       $SG16364                   0000000140064100     latency.obj
 0003:000001b0       $SG16395                   00000001400641b0     latency.obj
 0003:000002b0       $SG16396                   00000001400642b0     latency.obj
 0003:00000360       $SG25271                   0000000140064360     latency.obj
 0003:00000374       $SG25349                   0000000140064374     latency.obj
 0003:00000378       $SG25308                   0000000140064378     latency.obj
 0003:00000390       $SG25313                   0000000140064390     latency.obj
 0003:000003a8       $SG25314                   00000001400643a8     latency.obj
 0003:000003c0       $SG25315                   00000001400643c0     latency.obj
 0003:000003d8       $SG25316                   00000001400643d8     latency.obj
 0003:000003f0       $SG25344                   00000001400643f0     latency.obj
 0003:00000410       $SG25345                   0000000140064410     latency.obj
 0003:00000428       $SG25347                   0000000140064428     latency.obj
 0003:00000460       $SG25348                   0000000140064460     latency.obj
 0003:00000490       $SG25350                   0000000140064490     latency.obj
 0003:000004c8       $SG25351                   00000001400644c8     latency.obj
 0003:000004f8       $SG25353                   00000001400644f8     latency.obj
 0003:00000508       $SG25356                   0000000140064508     latency.obj
 0003:00000540       $SG25357                   0000000140064540     latency.obj
 0003:00000680       $SG19013                   0000000140064680     pjmedia-x86_64-x64-vc14-debug-dynamic:port.obj
 0003:00000778       $SG19014                   0000000140064778     pjmedia-x86_64-x64-vc14-debug-dynamic:port.obj
 0003:000007b0       $SG19046                   00000001400647b0     pjmedia-x86_64-x64-vc14-debug-dynamic:port.obj
 0003:000008a8       $SG19047                   00000001400648a8     pjmedia-x86_64-x64-vc14-debug-dynamic:port.obj
 0003:000008d0       $SG19062                   00000001400648d0     pjmedia-x86_64-x64-vc14-debug-dynamic:port.obj
 0003:000009c8       $SG19063                   00000001400649c8     pjmedia-x86_64-x64-vc14-debug-dynamic:port.obj
 0003:000009f0       $SG19076                   00000001400649f0     pjmedia-x86_64-x64-vc14-debug-dynamic:port.obj
 0003:00000ae8       $SG19077                   0000000140064ae8     pjmedia-x86_64-x64-vc14-debug-dynamic:port.obj
 0003:00000be0       $SG14621                   0000000140064be0     pjmedia-x86_64-x64-vc14-debug-dynamic:errno.obj
 0003:00000c10       $SG14622                   0000000140064c10     pjmedia-x86_64-x64-vc14-debug-dynamic:errno.obj
 0003:00000c40       $SG14623                   0000000140064c40     pjmedia-x86_64-x64-vc14-debug-dynamic:errno.obj
 0003:00000c70       $SG14624                   0000000140064c70     pjmedia-x86_64-x64-vc14-debug-dynamic:errno.obj
 0003:00000ca0       $SG14625                   0000000140064ca0     pjmedia-x86_64-x64-vc14-debug-dynamic:errno.obj
 0003:00000cd0       $SG14626                   0000000140064cd0     pjmedia-x86_64-x64-vc14-debug-dynamic:errno.obj
 0003:00000d08       $SG14627                   0000000140064d08     pjmedia-x86_64-x64-vc14-debug-dynamic:errno.obj
 0003:00000d40       $SG14628                   0000000140064d40     pjmedia-x86_64-x64-vc14-debug-dynamic:errno.obj
 0003:00000d80       $SG14629                   0000000140064d80     pjmedia-x86_64-x64-vc14-debug-dynamic:errno.obj
 0003:00000db0       $SG14630                   0000000140064db0     pjmedia-x86_64-x64-vc14-debug-dynamic:errno.obj
 0003:00000de8       $SG14631                   0000000140064de8     pjmedia-x86_64-x64-vc14-debug-dynamic:errno.obj
 0003:00000e30       $SG14632                   0000000140064e30     pjmedia-x86_64-x64-vc14-debug-dynamic:errno.obj
 0003:00000e80       $SG14633                   0000000140064e80     pjmedia-x86_64-x64-vc14-debug-dynamic:errno.obj
 0003:00000eb0       $SG14634                   0000000140064eb0     pjmedia-x86_64-x64-vc14-debug-dynamic:errno.obj
 0003:00000ef0       $SG14635                   0000000140064ef0     pjmedia-x86_64-x64-vc14-debug-dynamic:errno.obj
 0003:00000f30       $SG14636                   0000000140064f30     pjmedia-x86_64-x64-vc14-debug-dynamic:errno.obj
 0003:00000f68       $SG14637                   0000000140064f68     pjmedia-x86_64-x64-vc14-debug-dynamic:errno.obj
 0003:00000fa0       $SG14638                   0000000140064fa0     pjmedia-x86_64-x64-vc14-debug-dynamic:errno.obj
 0003:00000fe0       $SG14639                   0000000140064fe0     pjmedia-x86_64-x64-vc14-debug-dynamic:errno.obj
 0003:00001018       $SG14640                   0000000140065018     pjmedia-x86_64-x64-vc14-debug-dynamic:errno.obj
 0003:00001050       $SG14641                   0000000140065050     pjmedia-x86_64-x64-vc14-debug-dynamic:errno.obj
 0003:000010a0       $SG14642                   00000001400650a0     pjmedia-x86_64-x64-vc14-debug-dynamic:errno.obj
 0003:000010e8       $SG14643                   00000001400650e8     pjmedia-x86_64-x64-vc14-debug-dynamic:errno.obj
 0003:00001128       $SG14644                   0000000140065128     pjmedia-x86_64-x64-vc14-debug-dynamic:errno.obj
 0003:00001170       $SG14645                   0000000140065170     pjmedia-x86_64-x64-vc14-debug-dynamic:errno.obj
 0003:000011c0       $SG14646                   00000001400651c0     pjmedia-x86_64-x64-vc14-debug-dynamic:errno.obj
 0003:00001210       $SG14647                   0000000140065210     pjmedia-x86_64-x64-vc14-debug-dynamic:errno.obj
 0003:00001260       $SG14648                   0000000140065260     pjmedia-x86_64-x64-vc14-debug-dynamic:errno.obj
 0003:000012b0       $SG14649                   00000001400652b0     pjmedia-x86_64-x64-vc14-debug-dynamic:errno.obj
 0003:000012f8       $SG14650                   00000001400652f8     pjmedia-x86_64-x64-vc14-debug-dynamic:errno.obj
 0003:00001340       $SG14651                   0000000140065340     pjmedia-x86_64-x64-vc14-debug-dynamic:errno.obj
 0003:00001390       $SG14652                   0000000140065390     pjmedia-x86_64-x64-vc14-debug-dynamic:errno.obj
 0003:000013e0       $SG14653                   00000001400653e0     pjmedia-x86_64-x64-vc14-debug-dynamic:errno.obj
 0003:00001420       $SG14654                   0000000140065420     pjmedia-x86_64-x64-vc14-debug-dynamic:errno.obj
 0003:00001470       $SG14655                   0000000140065470     pjmedia-x86_64-x64-vc14-debug-dynamic:errno.obj
 0003:000014c0       $SG14656                   00000001400654c0     pjmedia-x86_64-x64-vc14-debug-dynamic:errno.obj
 0003:00001508       $SG14657                   0000000140065508     pjmedia-x86_64-x64-vc14-debug-dynamic:errno.obj
 0003:00001548       $SG14658                   0000000140065548     pjmedia-x86_64-x64-vc14-debug-dynamic:errno.obj
 0003:00001580       $SG14659                   0000000140065580     pjmedia-x86_64-x64-vc14-debug-dynamic:errno.obj
 0003:000015c0       $SG14660                   00000001400655c0     pjmedia-x86_64-x64-vc14-debug-dynamic:errno.obj
 0003:00001600       $SG14661                   0000000140065600     pjmedia-x86_64-x64-vc14-debug-dynamic:errno.obj
 0003:00001640       $SG14662                   0000000140065640     pjmedia-x86_64-x64-vc14-debug-dynamic:errno.obj
 0003:00001680       $SG14663                   0000000140065680     pjmedia-x86_64-x64-vc14-debug-dynamic:errno.obj
 0003:000016b8       $SG14664                   00000001400656b8     pjmedia-x86_64-x64-vc14-debug-dynamic:errno.obj
 0003:000016f8       $SG14665                   00000001400656f8     pjmedia-x86_64-x64-vc14-debug-dynamic:errno.obj
 0003:00001730       $SG14666                   0000000140065730     pjmedia-x86_64-x64-vc14-debug-dynamic:errno.obj
 0003:00001760       $SG14667                   0000000140065760     pjmedia-x86_64-x64-vc14-debug-dynamic:errno.obj
 0003:00001798       $SG14668                   0000000140065798     pjmedia-x86_64-x64-vc14-debug-dynamic:errno.obj
 0003:000017d0       $SG14669                   00000001400657d0     pjmedia-x86_64-x64-vc14-debug-dynamic:errno.obj
 0003:00001808       $SG14670                   0000000140065808     pjmedia-x86_64-x64-vc14-debug-dynamic:errno.obj
 0003:00001840       $SG14671                   0000000140065840     pjmedia-x86_64-x64-vc14-debug-dynamic:errno.obj
 0003:00001878       $SG14672                   0000000140065878     pjmedia-x86_64-x64-vc14-debug-dynamic:errno.obj
 0003:000018b0       $SG14673                   00000001400658b0     pjmedia-x86_64-x64-vc14-debug-dynamic:errno.obj
 0003:000018f0       $SG14674                   00000001400658f0     pjmedia-x86_64-x64-vc14-debug-dynamic:errno.obj
 0003:00001928       $SG14675                   0000000140065928     pjmedia-x86_64-x64-vc14-debug-dynamic:errno.obj
 0003:00001968       $SG14676                   0000000140065968     pjmedia-x86_64-x64-vc14-debug-dynamic:errno.obj
 0003:00001998       $SG14677                   0000000140065998     pjmedia-x86_64-x64-vc14-debug-dynamic:errno.obj
 0003:000019d8       $SG14678                   00000001400659d8     pjmedia-x86_64-x64-vc14-debug-dynamic:errno.obj
 0003:00001a08       $SG14679                   0000000140065a08     pjmedia-x86_64-x64-vc14-debug-dynamic:errno.obj
 0003:00001a40       $SG14680                   0000000140065a40     pjmedia-x86_64-x64-vc14-debug-dynamic:errno.obj
 0003:00001a70       $SG14681                   0000000140065a70     pjmedia-x86_64-x64-vc14-debug-dynamic:errno.obj
 0003:00001ab0       $SG14682                   0000000140065ab0     pjmedia-x86_64-x64-vc14-debug-dynamic:errno.obj
 0003:00001ad0       $SG14683                   0000000140065ad0     pjmedia-x86_64-x64-vc14-debug-dynamic:errno.obj
 0003:00001b08       $SG14684                   0000000140065b08     pjmedia-x86_64-x64-vc14-debug-dynamic:errno.obj
 0003:00001b30       $SG14685                   0000000140065b30     pjmedia-x86_64-x64-vc14-debug-dynamic:errno.obj
 0003:00001b70       $SG14686                   0000000140065b70     pjmedia-x86_64-x64-vc14-debug-dynamic:errno.obj
 0003:00001ba0       $SG14687                   0000000140065ba0     pjmedia-x86_64-x64-vc14-debug-dynamic:errno.obj
 0003:00001bd8       $SG14688                   0000000140065bd8     pjmedia-x86_64-x64-vc14-debug-dynamic:errno.obj
 0003:00001c10       $SG14689                   0000000140065c10     pjmedia-x86_64-x64-vc14-debug-dynamic:errno.obj
 0003:00001c40       $SG14690                   0000000140065c40     pjmedia-x86_64-x64-vc14-debug-dynamic:errno.obj
 0003:00001c78       $SG14691                   0000000140065c78     pjmedia-x86_64-x64-vc14-debug-dynamic:errno.obj
 0003:00001cb0       $SG14692                   0000000140065cb0     pjmedia-x86_64-x64-vc14-debug-dynamic:errno.obj
 0003:00001cf0       $SG14693                   0000000140065cf0     pjmedia-x86_64-x64-vc14-debug-dynamic:errno.obj
 0003:00001d38       $SG14694                   0000000140065d38     pjmedia-x86_64-x64-vc14-debug-dynamic:errno.obj
 0003:00001d68       $SG14695                   0000000140065d68     pjmedia-x86_64-x64-vc14-debug-dynamic:errno.obj
 0003:00001da0       $SG14696                   0000000140065da0     pjmedia-x86_64-x64-vc14-debug-dynamic:errno.obj
 0003:00001de0       $SG14697                   0000000140065de0     pjmedia-x86_64-x64-vc14-debug-dynamic:errno.obj
 0003:00001e30       $SG14698                   0000000140065e30     pjmedia-x86_64-x64-vc14-debug-dynamic:errno.obj
 0003:00001e70       $SG14699                   0000000140065e70     pjmedia-x86_64-x64-vc14-debug-dynamic:errno.obj
 0003:00001eb0       $SG14700                   0000000140065eb0     pjmedia-x86_64-x64-vc14-debug-dynamic:errno.obj
 0003:00001f00       $SG14701                   0000000140065f00     pjmedia-x86_64-x64-vc14-debug-dynamic:errno.obj
 0003:00001f48       $SG14702                   0000000140065f48     pjmedia-x86_64-x64-vc14-debug-dynamic:errno.obj
 0003:00001f78       $SG14703                   0000000140065f78     pjmedia-x86_64-x64-vc14-debug-dynamic:errno.obj
 0003:00001fb0       $SG14704                   0000000140065fb0     pjmedia-x86_64-x64-vc14-debug-dynamic:errno.obj
 0003:00001fe0       $SG14705                   0000000140065fe0     pjmedia-x86_64-x64-vc14-debug-dynamic:errno.obj
 0003:00002020       $SG14706                   0000000140066020     pjmedia-x86_64-x64-vc14-debug-dynamic:errno.obj
 0003:00002050       $SG14707                   0000000140066050     pjmedia-x86_64-x64-vc14-debug-dynamic:errno.obj
 0003:00002088       $SG14708                   0000000140066088     pjmedia-x86_64-x64-vc14-debug-dynamic:errno.obj
 0003:000020c0       $SG14709                   00000001400660c0     pjmedia-x86_64-x64-vc14-debug-dynamic:errno.obj
 0003:000020f0       $SG14710                   00000001400660f0     pjmedia-x86_64-x64-vc14-debug-dynamic:errno.obj
 0003:00002140       $SG14711                   0000000140066140     pjmedia-x86_64-x64-vc14-debug-dynamic:errno.obj
 0003:00002190       $SG14712                   0000000140066190     pjmedia-x86_64-x64-vc14-debug-dynamic:errno.obj
 0003:000021d8       $SG14713                   00000001400661d8     pjmedia-x86_64-x64-vc14-debug-dynamic:errno.obj
 0003:00002218       $SG14714                   0000000140066218     pjmedia-x86_64-x64-vc14-debug-dynamic:errno.obj
 0003:00002258       $SG14715                   0000000140066258     pjmedia-x86_64-x64-vc14-debug-dynamic:errno.obj
 0003:00002298       $SG14716                   0000000140066298     pjmedia-x86_64-x64-vc14-debug-dynamic:errno.obj
 0003:000022d8       $SG14717                   00000001400662d8     pjmedia-x86_64-x64-vc14-debug-dynamic:errno.obj
 0003:00002310       $SG14718                   0000000140066310     pjmedia-x86_64-x64-vc14-debug-dynamic:errno.obj
 0003:00002358       $SG14719                   0000000140066358     pjmedia-x86_64-x64-vc14-debug-dynamic:errno.obj
 0003:000023a0       $SG14720                   00000001400663a0     pjmedia-x86_64-x64-vc14-debug-dynamic:errno.obj
 0003:000023f0       $SG14721                   00000001400663f0     pjmedia-x86_64-x64-vc14-debug-dynamic:errno.obj
 0003:00002440       $SG14722                   0000000140066440     pjmedia-x86_64-x64-vc14-debug-dynamic:errno.obj
 0003:00002490       $SG14723                   0000000140066490     pjmedia-x86_64-x64-vc14-debug-dynamic:errno.obj
 0003:000024e0       $SG14724                   00000001400664e0     pjmedia-x86_64-x64-vc14-debug-dynamic:errno.obj
 0003:00002540       $SG14725                   0000000140066540     pjmedia-x86_64-x64-vc14-debug-dynamic:errno.obj
 0003:00002580       $SG14726                   0000000140066580     pjmedia-x86_64-x64-vc14-debug-dynamic:errno.obj
 0003:000025c8       $SG14755                   00000001400665c8     pjmedia-x86_64-x64-vc14-debug-dynamic:errno.obj
 0003:00002b20       $SG19324                   0000000140066b20     pjmedia-x86_64-x64-vc14-debug-dynamic:wav_player.obj
 0003:00002b30       $SG19406                   0000000140066b30     pjmedia-x86_64-x64-vc14-debug-dynamic:wav_player.obj
 0003:00002c38       $SG19407                   0000000140066c38     pjmedia-x86_64-x64-vc14-debug-dynamic:wav_player.obj
 0003:00002c70       $SG19419                   0000000140066c70     pjmedia-x86_64-x64-vc14-debug-dynamic:wav_player.obj
 0003:00002ca8       $SG19420                   0000000140066ca8     pjmedia-x86_64-x64-vc14-debug-dynamic:wav_player.obj
 0003:00002cc0       $SG19443                   0000000140066cc0     pjmedia-x86_64-x64-vc14-debug-dynamic:wav_player.obj
 0003:00002d10       $SG19444                   0000000140066d10     pjmedia-x86_64-x64-vc14-debug-dynamic:wav_player.obj
 0003:00002d20       $SG19467                   0000000140066d20     pjmedia-x86_64-x64-vc14-debug-dynamic:wav_player.obj
 0003:00002e28       $SG19468                   0000000140066e28     pjmedia-x86_64-x64-vc14-debug-dynamic:wav_player.obj
 0003:00002e50       $SG19470                   0000000140066e50     pjmedia-x86_64-x64-vc14-debug-dynamic:wav_player.obj
 0003:00002f60       $SG19471                   0000000140066f60     pjmedia-x86_64-x64-vc14-debug-dynamic:wav_player.obj
 0003:00002fe0       $SG19478                   0000000140066fe0     pjmedia-x86_64-x64-vc14-debug-dynamic:wav_player.obj
 0003:00003000       $SG19479                   0000000140067000     pjmedia-x86_64-x64-vc14-debug-dynamic:wav_player.obj
 0003:00003108       $SG19480                   0000000140067108     pjmedia-x86_64-x64-vc14-debug-dynamic:wav_player.obj
 0003:00003140       $SG19499                   0000000140067140     pjmedia-x86_64-x64-vc14-debug-dynamic:wav_player.obj
 0003:00003248       $SG19500                   0000000140067248     pjmedia-x86_64-x64-vc14-debug-dynamic:wav_player.obj
 0003:00003260       $SG19502                   0000000140067260     pjmedia-x86_64-x64-vc14-debug-dynamic:wav_player.obj
 0003:00003370       $SG19503                   0000000140067370     pjmedia-x86_64-x64-vc14-debug-dynamic:wav_player.obj
 0003:000033f0       $SG19528                   00000001400673f0     pjmedia-x86_64-x64-vc14-debug-dynamic:wav_player.obj
 0003:000034f8       $SG19529                   00000001400674f8     pjmedia-x86_64-x64-vc14-debug-dynamic:wav_player.obj
 0003:00003510       $SG19531                   0000000140067510     pjmedia-x86_64-x64-vc14-debug-dynamic:wav_player.obj
 0003:00003620       $SG19532                   0000000140067620     pjmedia-x86_64-x64-vc14-debug-dynamic:wav_player.obj
 0003:000036a0       $SG19534                   00000001400676a0     pjmedia-x86_64-x64-vc14-debug-dynamic:wav_player.obj
 0003:000037a8       $SG19535                   00000001400677a8     pjmedia-x86_64-x64-vc14-debug-dynamic:wav_player.obj
 0003:000037e0       $SG19555                   00000001400677e0     pjmedia-x86_64-x64-vc14-debug-dynamic:wav_player.obj
 0003:000038e8       $SG19556                   00000001400678e8     pjmedia-x86_64-x64-vc14-debug-dynamic:wav_player.obj
 0003:00003900       $SG19558                   0000000140067900     pjmedia-x86_64-x64-vc14-debug-dynamic:wav_player.obj
 0003:00003a10       $SG19559                   0000000140067a10     pjmedia-x86_64-x64-vc14-debug-dynamic:wav_player.obj
 0003:00003a90       $SG19591                   0000000140067a90     pjmedia-x86_64-x64-vc14-debug-dynamic:wav_player.obj
 0003:00003b98       $SG19592                   0000000140067b98     pjmedia-x86_64-x64-vc14-debug-dynamic:wav_player.obj
 0003:00003bb0       $SG19594                   0000000140067bb0     pjmedia-x86_64-x64-vc14-debug-dynamic:wav_player.obj
 0003:00003cc0       $SG19595                   0000000140067cc0     pjmedia-x86_64-x64-vc14-debug-dynamic:wav_player.obj
 0003:00003d40       $SG19597                   0000000140067d40     pjmedia-x86_64-x64-vc14-debug-dynamic:wav_player.obj
 0003:00003da0       $SG19598                   0000000140067da0     pjmedia-x86_64-x64-vc14-debug-dynamic:wav_player.obj
 0003:00003db0       $SG19623                   0000000140067db0     pjmedia-x86_64-x64-vc14-debug-dynamic:wav_player.obj
 0003:00003eb8       $SG19624                   0000000140067eb8     pjmedia-x86_64-x64-vc14-debug-dynamic:wav_player.obj
 0003:00003ed0       $SG19626                   0000000140067ed0     pjmedia-x86_64-x64-vc14-debug-dynamic:wav_player.obj
 0003:00003fe0       $SG19627                   0000000140067fe0     pjmedia-x86_64-x64-vc14-debug-dynamic:wav_player.obj
 0003:00004060       $SG19689                   0000000140068060     pjmedia-x86_64-x64-vc14-debug-dynamic:wav_player.obj
 0003:00004170       $SG19690                   0000000140068170     pjmedia-x86_64-x64-vc14-debug-dynamic:wav_player.obj
 0003:00004200       $SG19691                   0000000140068200     pjmedia-x86_64-x64-vc14-debug-dynamic:wav_player.obj
 0003:00004308       $SG19692                   0000000140068308     pjmedia-x86_64-x64-vc14-debug-dynamic:wav_player.obj
 0003:00004348       $SG19695                   0000000140068348     pjmedia-x86_64-x64-vc14-debug-dynamic:wav_player.obj
 0003:00004360       $SG19696                   0000000140068360     pjmedia-x86_64-x64-vc14-debug-dynamic:wav_player.obj
 0003:00004370       $SG19707                   0000000140068370     pjmedia-x86_64-x64-vc14-debug-dynamic:wav_player.obj
 0003:00004390       $SG19708                   0000000140068390     pjmedia-x86_64-x64-vc14-debug-dynamic:wav_player.obj
 0003:000043a0       $SG19711                   00000001400683a0     pjmedia-x86_64-x64-vc14-debug-dynamic:wav_player.obj
 0003:000044b0       $SG19712                   00000001400684b0     pjmedia-x86_64-x64-vc14-debug-dynamic:wav_player.obj
 0003:00004570       $SG19736                   0000000140068570     pjmedia-x86_64-x64-vc14-debug-dynamic:wav_player.obj
 0003:00004680       $SG19737                   0000000140068680     pjmedia-x86_64-x64-vc14-debug-dynamic:wav_player.obj
 0003:00004ca0       $SG15010                   0000000140068ca0     pjmedia-x86_64-x64-vc14-debug-dynamic:format.obj
 0003:00004cc0       $SG15011                   0000000140068cc0     pjmedia-x86_64-x64-vc14-debug-dynamic:format.obj
 0003:00004dc0       $SG15012                   0000000140068dc0     pjmedia-x86_64-x64-vc14-debug-dynamic:format.obj
 0003:00004e70       $SG22126                   0000000140068e70     pjmedia-x86_64-x64-vc14-debug-dynamic:transport_srtp.obj
 0003:00004e78       $SG22128                   0000000140068e78     pjmedia-x86_64-x64-vc14-debug-dynamic:transport_srtp.obj
 0003:00004e84       $SG22130                   0000000140068e84     pjmedia-x86_64-x64-vc14-debug-dynamic:transport_srtp.obj
 0003:00004e8c       $SG22153                   0000000140068e8c     pjmedia-x86_64-x64-vc14-debug-dynamic:transport_srtp.obj
 0003:00004e94       $SG22329                   0000000140068e94     pjmedia-x86_64-x64-vc14-debug-dynamic:transport_srtp.obj
 0003:00004e98       $SG22154                   0000000140068e98     pjmedia-x86_64-x64-vc14-debug-dynamic:transport_srtp.obj
 0003:00004eb0       $SG22155                   0000000140068eb0     pjmedia-x86_64-x64-vc14-debug-dynamic:transport_srtp.obj
 0003:00004ec8       $SG22156                   0000000140068ec8     pjmedia-x86_64-x64-vc14-debug-dynamic:transport_srtp.obj
 0003:00004ee0       $SG22157                   0000000140068ee0     pjmedia-x86_64-x64-vc14-debug-dynamic:transport_srtp.obj
 0003:00004ef8       $SG22330                   0000000140068ef8     pjmedia-x86_64-x64-vc14-debug-dynamic:transport_srtp.obj
 0003:00004f10       $SG22331                   0000000140068f10     pjmedia-x86_64-x64-vc14-debug-dynamic:transport_srtp.obj
 0003:00004f28       $SG22332                   0000000140068f28     pjmedia-x86_64-x64-vc14-debug-dynamic:transport_srtp.obj
 0003:00004f48       $SG22333                   0000000140068f48     pjmedia-x86_64-x64-vc14-debug-dynamic:transport_srtp.obj
 0003:00004f68       $SG22334                   0000000140068f68     pjmedia-x86_64-x64-vc14-debug-dynamic:transport_srtp.obj
 0003:00004f80       $SG22335                   0000000140068f80     pjmedia-x86_64-x64-vc14-debug-dynamic:transport_srtp.obj
 0003:00004fa8       $SG22336                   0000000140068fa8     pjmedia-x86_64-x64-vc14-debug-dynamic:transport_srtp.obj
 0003:00004fc0       $SG22337                   0000000140068fc0     pjmedia-x86_64-x64-vc14-debug-dynamic:transport_srtp.obj
 0003:00004fd0       $SG22338                   0000000140068fd0     pjmedia-x86_64-x64-vc14-debug-dynamic:transport_srtp.obj
 0003:00004ff0       $SG22339                   0000000140068ff0     pjmedia-x86_64-x64-vc14-debug-dynamic:transport_srtp.obj
 0003:00005018       $SG22340                   0000000140069018     pjmedia-x86_64-x64-vc14-debug-dynamic:transport_srtp.obj
 0003:00005038       $SG22341                   0000000140069038     pjmedia-x86_64-x64-vc14-debug-dynamic:transport_srtp.obj
 0003:00005050       $SG22342                   0000000140069050     pjmedia-x86_64-x64-vc14-debug-dynamic:transport_srtp.obj
 0003:00005070       $SG22343                   0000000140069070     pjmedia-x86_64-x64-vc14-debug-dynamic:transport_srtp.obj
 0003:00005098       $SG22344                   0000000140069098     pjmedia-x86_64-x64-vc14-debug-dynamic:transport_srtp.obj
 0003:000050b0       $SG22345                   00000001400690b0     pjmedia-x86_64-x64-vc14-debug-dynamic:transport_srtp.obj
 0003:000050c8       $SG22346                   00000001400690c8     pjmedia-x86_64-x64-vc14-debug-dynamic:transport_srtp.obj
 0003:000050e8       $SG22347                   00000001400690e8     pjmedia-x86_64-x64-vc14-debug-dynamic:transport_srtp.obj
 0003:00005100       $SG22348                   0000000140069100     pjmedia-x86_64-x64-vc14-debug-dynamic:transport_srtp.obj
 0003:00005118       $SG22349                   0000000140069118     pjmedia-x86_64-x64-vc14-debug-dynamic:transport_srtp.obj
 0003:00005130       $SG22350                   0000000140069130     pjmedia-x86_64-x64-vc14-debug-dynamic:transport_srtp.obj
 0003:00005148       $SG22351                   0000000140069148     pjmedia-x86_64-x64-vc14-debug-dynamic:transport_srtp.obj
 0003:00005160       $SG22352                   0000000140069160     pjmedia-x86_64-x64-vc14-debug-dynamic:transport_srtp.obj
 0003:00005180       $SG22353                   0000000140069180     pjmedia-x86_64-x64-vc14-debug-dynamic:transport_srtp.obj
 0003:00005198       $SG22423                   0000000140069198     pjmedia-x86_64-x64-vc14-debug-dynamic:transport_srtp.obj
 0003:000051a0       crypto_suites              00000001400691a0     pjmedia-x86_64-x64-vc14-debug-dynamic:transport_srtp.obj
 0003:000052b8       $SG22486                   00000001400692b8     pjmedia-x86_64-x64-vc14-debug-dynamic:transport_srtp.obj
 0003:000052d0       transport_srtp_op          00000001400692d0     pjmedia-x86_64-x64-vc14-debug-dynamic:transport_srtp.obj
 0003:00005338       $SG22491                   0000000140069338     pjmedia-x86_64-x64-vc14-debug-dynamic:transport_srtp.obj
 0003:00005360       ?liberr@?1??get_libsrtp_errstr@@9@9 0000000140069360     pjmedia-x86_64-x64-vc14-debug-dynamic:transport_srtp.obj
 0003:00005428       $SG22356                   0000000140069428     pjmedia-x86_64-x64-vc14-debug-dynamic:transport_srtp.obj
 0003:00005448       $SG22492                   0000000140069448     pjmedia-x86_64-x64-vc14-debug-dynamic:transport_srtp.obj
 0003:00005460       sdes_op                    0000000140069460     pjmedia-x86_64-x64-vc14-debug-dynamic:transport_srtp.obj
 0003:000054c8       $SG22425                   00000001400694c8     pjmedia-x86_64-x64-vc14-debug-dynamic:transport_srtp.obj
 0003:000054e8       $SG22496                   00000001400694e8     pjmedia-x86_64-x64-vc14-debug-dynamic:transport_srtp.obj
 0003:000054f8       $SG22540                   00000001400694f8     pjmedia-x86_64-x64-vc14-debug-dynamic:transport_srtp.obj
 0003:00005500       $SG22482                   0000000140069500     pjmedia-x86_64-x64-vc14-debug-dynamic:transport_srtp.obj
 0003:00005618       $SG22543                   0000000140069618     pjmedia-x86_64-x64-vc14-debug-dynamic:transport_srtp.obj
 0003:00005638       $SG22544                   0000000140069638     pjmedia-x86_64-x64-vc14-debug-dynamic:transport_srtp.obj
 0003:00005650       $SG22483                   0000000140069650     pjmedia-x86_64-x64-vc14-debug-dynamic:transport_srtp.obj
 0003:000056a8       $SG22549                   00000001400696a8     pjmedia-x86_64-x64-vc14-debug-dynamic:transport_srtp.obj
 0003:000056d0       $SG22485                   00000001400696d0     pjmedia-x86_64-x64-vc14-debug-dynamic:transport_srtp.obj
 0003:00005718       $SG22550                   0000000140069718     pjmedia-x86_64-x64-vc14-debug-dynamic:transport_srtp.obj
 0003:00005730       $SG22494                   0000000140069730     pjmedia-x86_64-x64-vc14-debug-dynamic:transport_srtp.obj
 0003:00005848       $SG22551                   0000000140069848     pjmedia-x86_64-x64-vc14-debug-dynamic:transport_srtp.obj
 0003:00005850       $SG22495                   0000000140069850     pjmedia-x86_64-x64-vc14-debug-dynamic:transport_srtp.obj
 0003:000058bc       $SG22561                   00000001400698bc     pjmedia-x86_64-x64-vc14-debug-dynamic:transport_srtp.obj
 0003:000058c0       $SG22554                   00000001400698c0     pjmedia-x86_64-x64-vc14-debug-dynamic:transport_srtp.obj
 0003:000058e8       $SG22555                   00000001400698e8     pjmedia-x86_64-x64-vc14-debug-dynamic:transport_srtp.obj
 0003:000058fc       $SG22557                   00000001400698fc     pjmedia-x86_64-x64-vc14-debug-dynamic:transport_srtp.obj
 0003:00005908       $SG22559                   0000000140069908     pjmedia-x86_64-x64-vc14-debug-dynamic:transport_srtp.obj
 0003:00005940       $SG22560                   0000000140069940     pjmedia-x86_64-x64-vc14-debug-dynamic:transport_srtp.obj
 0003:00005958       $SG22564                   0000000140069958     pjmedia-x86_64-x64-vc14-debug-dynamic:transport_srtp.obj
 0003:00005978       $SG22565                   0000000140069978     pjmedia-x86_64-x64-vc14-debug-dynamic:transport_srtp.obj
 0003:00005990       $SG22568                   0000000140069990     pjmedia-x86_64-x64-vc14-debug-dynamic:transport_srtp.obj
 0003:000059a0       $SG22569                   00000001400699a0     pjmedia-x86_64-x64-vc14-debug-dynamic:transport_srtp.obj
 0003:000059b8       $SG22571                   00000001400699b8     pjmedia-x86_64-x64-vc14-debug-dynamic:transport_srtp.obj
 0003:000059e0       $SG22572                   00000001400699e0     pjmedia-x86_64-x64-vc14-debug-dynamic:transport_srtp.obj
 0003:000059f8       $SG22673                   00000001400699f8     pjmedia-x86_64-x64-vc14-debug-dynamic:transport_srtp.obj
 0003:00005a20       $SG22672                   0000000140069a20     pjmedia-x86_64-x64-vc14-debug-dynamic:transport_srtp.obj
 0003:00005b38       $SG22821                   0000000140069b38     pjmedia-x86_64-x64-vc14-debug-dynamic:transport_srtp.obj
 0003:00005b60       $SG22822                   0000000140069b60     pjmedia-x86_64-x64-vc14-debug-dynamic:transport_srtp.obj
 0003:00005b78       $SG22824                   0000000140069b78     pjmedia-x86_64-x64-vc14-debug-dynamic:transport_srtp.obj
 0003:00005ba0       $SG22825                   0000000140069ba0     pjmedia-x86_64-x64-vc14-debug-dynamic:transport_srtp.obj
 0003:00005bb8       $SG22837                   0000000140069bb8     pjmedia-x86_64-x64-vc14-debug-dynamic:transport_srtp.obj
 0003:00005be0       $SG22838                   0000000140069be0     pjmedia-x86_64-x64-vc14-debug-dynamic:transport_srtp.obj
 0003:00005bf8       $SG22867                   0000000140069bf8     pjmedia-x86_64-x64-vc14-debug-dynamic:transport_srtp.obj
 0003:00005c00       $SG22866                   0000000140069c00     pjmedia-x86_64-x64-vc14-debug-dynamic:transport_srtp.obj
 0003:00005d10       $SG22885                   0000000140069d10     pjmedia-x86_64-x64-vc14-debug-dynamic:transport_srtp.obj
 0003:00005e20       $SG22886                   0000000140069e20     pjmedia-x86_64-x64-vc14-debug-dynamic:transport_srtp.obj
 0003:00005e40       $SG22901                   0000000140069e40     pjmedia-x86_64-x64-vc14-debug-dynamic:transport_srtp.obj
 0003:00005f50       $SG22902                   0000000140069f50     pjmedia-x86_64-x64-vc14-debug-dynamic:transport_srtp.obj
 0003:00005f70       $SG22941                   0000000140069f70     pjmedia-x86_64-x64-vc14-debug-dynamic:transport_srtp.obj
 0003:00006080       $SG22942                   000000014006a080     pjmedia-x86_64-x64-vc14-debug-dynamic:transport_srtp.obj
 0003:000060a8       $SG22947                   000000014006a0a8     pjmedia-x86_64-x64-vc14-debug-dynamic:transport_srtp.obj
 0003:000060b0       $SG23013                   000000014006a0b0     pjmedia-x86_64-x64-vc14-debug-dynamic:transport_srtp.obj
 0003:000061c0       $SG23014                   000000014006a1c0     pjmedia-x86_64-x64-vc14-debug-dynamic:transport_srtp.obj
 0003:000061e0       $SG23041                   000000014006a1e0     pjmedia-x86_64-x64-vc14-debug-dynamic:transport_srtp.obj
 0003:000061f8       $SG23043                   000000014006a1f8     pjmedia-x86_64-x64-vc14-debug-dynamic:transport_srtp.obj
 0003:00006208       $SG23047                   000000014006a208     pjmedia-x86_64-x64-vc14-debug-dynamic:transport_srtp.obj
 0003:00006210       $SG23049                   000000014006a210     pjmedia-x86_64-x64-vc14-debug-dynamic:transport_srtp.obj
 0003:00006218       $SG23050                   000000014006a218     pjmedia-x86_64-x64-vc14-debug-dynamic:transport_srtp.obj
 0003:00006228       $SG23053                   000000014006a228     pjmedia-x86_64-x64-vc14-debug-dynamic:transport_srtp.obj
 0003:00006240       $SG23055                   000000014006a240     pjmedia-x86_64-x64-vc14-debug-dynamic:transport_srtp.obj
 0003:00006250       $SG23059                   000000014006a250     pjmedia-x86_64-x64-vc14-debug-dynamic:transport_srtp.obj
 0003:00006258       $SG23061                   000000014006a258     pjmedia-x86_64-x64-vc14-debug-dynamic:transport_srtp.obj
 0003:00006260       $SG23062                   000000014006a260     pjmedia-x86_64-x64-vc14-debug-dynamic:transport_srtp.obj
 0003:00006270       $SG23081                   000000014006a270     pjmedia-x86_64-x64-vc14-debug-dynamic:transport_srtp.obj
 0003:00006380       $SG23082                   000000014006a380     pjmedia-x86_64-x64-vc14-debug-dynamic:transport_srtp.obj
 0003:00006390       $SG23086                   000000014006a390     pjmedia-x86_64-x64-vc14-debug-dynamic:transport_srtp.obj
 0003:000063b8       $SG23089                   000000014006a3b8     pjmedia-x86_64-x64-vc14-debug-dynamic:transport_srtp.obj
 0003:000063e0       $SG23105                   000000014006a3e0     pjmedia-x86_64-x64-vc14-debug-dynamic:transport_srtp.obj
 0003:000063f0       $SG23110                   000000014006a3f0     pjmedia-x86_64-x64-vc14-debug-dynamic:transport_srtp.obj
 0003:000063f8       $SG23111                   000000014006a3f8     pjmedia-x86_64-x64-vc14-debug-dynamic:transport_srtp.obj
 0003:00006408       $SG23112                   000000014006a408     pjmedia-x86_64-x64-vc14-debug-dynamic:transport_srtp.obj
 0003:00006430       $SG23125                   000000014006a430     pjmedia-x86_64-x64-vc14-debug-dynamic:transport_srtp.obj
 0003:0000653c       $SG23126                   000000014006a53c     pjmedia-x86_64-x64-vc14-debug-dynamic:transport_srtp.obj
 0003:00006548       $SG23162                   000000014006a548     pjmedia-x86_64-x64-vc14-debug-dynamic:transport_srtp.obj
 0003:00006560       $SG23161                   000000014006a560     pjmedia-x86_64-x64-vc14-debug-dynamic:transport_srtp.obj
 0003:00006670       $SG23164                   000000014006a670     pjmedia-x86_64-x64-vc14-debug-dynamic:transport_srtp.obj
 0003:00006780       $SG23165                   000000014006a780     pjmedia-x86_64-x64-vc14-debug-dynamic:transport_srtp.obj
 0003:000067b8       $SG23188                   000000014006a7b8     pjmedia-x86_64-x64-vc14-debug-dynamic:transport_srtp.obj
 0003:000067d0       $SG23187                   000000014006a7d0     pjmedia-x86_64-x64-vc14-debug-dynamic:transport_srtp.obj
 0003:000068e0       $SG23209                   000000014006a8e0     pjmedia-x86_64-x64-vc14-debug-dynamic:transport_srtp.obj
 0003:000069ec       $SG23210                   000000014006a9ec     pjmedia-x86_64-x64-vc14-debug-dynamic:transport_srtp.obj
 0003:000069f4       $SG23277                   000000014006a9f4     pjmedia-x86_64-x64-vc14-debug-dynamic:transport_srtp.obj
 0003:00006a00       $SG23276                   000000014006aa00     pjmedia-x86_64-x64-vc14-debug-dynamic:transport_srtp.obj
 0003:00006b10       $SG23294                   000000014006ab10     pjmedia-x86_64-x64-vc14-debug-dynamic:transport_srtp.obj
 0003:00006c1c       $SG23295                   000000014006ac1c     pjmedia-x86_64-x64-vc14-debug-dynamic:transport_srtp.obj
 0003:00006c28       $SG23353                   000000014006ac28     pjmedia-x86_64-x64-vc14-debug-dynamic:transport_srtp.obj
 0003:00006c64       $SG23446                   000000014006ac64     pjmedia-x86_64-x64-vc14-debug-dynamic:transport_srtp.obj
 0003:00006c70       $SG23352                   000000014006ac70     pjmedia-x86_64-x64-vc14-debug-dynamic:transport_srtp.obj
 0003:00006d80       $SG23364                   000000014006ad80     pjmedia-x86_64-x64-vc14-debug-dynamic:transport_srtp.obj
 0003:00006da0       $SG23369                   000000014006ada0     pjmedia-x86_64-x64-vc14-debug-dynamic:transport_srtp.obj
 0003:00006dd0       $SG23405                   000000014006add0     pjmedia-x86_64-x64-vc14-debug-dynamic:transport_srtp.obj
 0003:00006ee0       $SG23406                   000000014006aee0     pjmedia-x86_64-x64-vc14-debug-dynamic:transport_srtp.obj
 0003:00006f20       $SG23412                   000000014006af20     pjmedia-x86_64-x64-vc14-debug-dynamic:transport_srtp.obj
 0003:00006f50       $SG23445                   000000014006af50     pjmedia-x86_64-x64-vc14-debug-dynamic:transport_srtp.obj
 0003:00007060       $SG23492                   000000014006b060     pjmedia-x86_64-x64-vc14-debug-dynamic:transport_srtp.obj
 0003:00007170       $SG23493                   000000014006b170     pjmedia-x86_64-x64-vc14-debug-dynamic:transport_srtp.obj
 0003:000071a8       $SG23506                   000000014006b1a8     pjmedia-x86_64-x64-vc14-debug-dynamic:transport_srtp.obj
 0003:000071b0       $SG23503                   000000014006b1b0     pjmedia-x86_64-x64-vc14-debug-dynamic:transport_srtp.obj
 0003:000072c0       $SG23504                   000000014006b2c0     pjmedia-x86_64-x64-vc14-debug-dynamic:transport_srtp.obj
 0003:000072f0       $SG23507                   000000014006b2f0     pjmedia-x86_64-x64-vc14-debug-dynamic:transport_srtp.obj
 0003:00007300       $SG23508                   000000014006b300     pjmedia-x86_64-x64-vc14-debug-dynamic:transport_srtp.obj
 0003:00007320       $SG23536                   000000014006b320     pjmedia-x86_64-x64-vc14-debug-dynamic:transport_srtp.obj
 0003:0000742c       $SG23537                   000000014006b42c     pjmedia-x86_64-x64-vc14-debug-dynamic:transport_srtp.obj
 0003:00007438       $SG23539                   000000014006b438     pjmedia-x86_64-x64-vc14-debug-dynamic:transport_srtp.obj
 0003:00007464       $SG23565                   000000014006b464     pjmedia-x86_64-x64-vc14-debug-dynamic:transport_srtp.obj
 0003:00007470       $SG23538                   000000014006b470     pjmedia-x86_64-x64-vc14-debug-dynamic:transport_srtp.obj
 0003:00007580       $SG23564                   000000014006b580     pjmedia-x86_64-x64-vc14-debug-dynamic:transport_srtp.obj
 0003:00007690       $SG23567                   000000014006b690     pjmedia-x86_64-x64-vc14-debug-dynamic:transport_srtp.obj
 0003:000076c0       $SG23603                   000000014006b6c0     pjmedia-x86_64-x64-vc14-debug-dynamic:transport_srtp.obj
 0003:000077d0       $SG23604                   000000014006b7d0     pjmedia-x86_64-x64-vc14-debug-dynamic:transport_srtp.obj
 0003:00007810       $SG23606                   000000014006b810     pjmedia-x86_64-x64-vc14-debug-dynamic:transport_srtp.obj
 0003:00007920       $SG23607                   000000014006b920     pjmedia-x86_64-x64-vc14-debug-dynamic:transport_srtp.obj
 0003:00007950       $SG23608                   000000014006b950     pjmedia-x86_64-x64-vc14-debug-dynamic:transport_srtp.obj
 0003:00007a60       $SG23609                   000000014006ba60     pjmedia-x86_64-x64-vc14-debug-dynamic:transport_srtp.obj
 0003:00007aa0       $SG23616                   000000014006baa0     pjmedia-x86_64-x64-vc14-debug-dynamic:transport_srtp.obj
 0003:000083b0       $SG18771                   000000014006c3b0     pjmedia-x86_64-x64-vc14-debug-dynamic:event.obj
 0003:000083e8       $SG18772                   000000014006c3e8     pjmedia-x86_64-x64-vc14-debug-dynamic:event.obj
 0003:000083f0       $SG18819                   000000014006c3f0     pjmedia-x86_64-x64-vc14-debug-dynamic:event.obj
 0003:000083f8       $SG18821                   000000014006c3f8     pjmedia-x86_64-x64-vc14-debug-dynamic:event.obj
 0003:00008400       $SG18823                   000000014006c400     pjmedia-x86_64-x64-vc14-debug-dynamic:event.obj
 0003:00008410       $SG18825                   000000014006c410     pjmedia-x86_64-x64-vc14-debug-dynamic:event.obj
 0003:0000841c       $SG18893                   000000014006c41c     pjmedia-x86_64-x64-vc14-debug-dynamic:event.obj
 0003:00008428       $SG18849                   000000014006c428     pjmedia-x86_64-x64-vc14-debug-dynamic:event.obj
 0003:00008450       $SG18848                   000000014006c450     pjmedia-x86_64-x64-vc14-debug-dynamic:event.obj
 0003:00008550       $SG18892                   000000014006c550     pjmedia-x86_64-x64-vc14-debug-dynamic:event.obj
 0003:00008650       $SG18896                   000000014006c650     pjmedia-x86_64-x64-vc14-debug-dynamic:event.obj
 0003:00008750       $SG18897                   000000014006c750     pjmedia-x86_64-x64-vc14-debug-dynamic:event.obj
 0003:00008758       $SG18926                   000000014006c758     pjmedia-x86_64-x64-vc14-debug-dynamic:event.obj
 0003:00008760       $SG18925                   000000014006c760     pjmedia-x86_64-x64-vc14-debug-dynamic:event.obj
 0003:00008860       $SG18929                   000000014006c860     pjmedia-x86_64-x64-vc14-debug-dynamic:event.obj
 0003:00008960       $SG18930                   000000014006c960     pjmedia-x86_64-x64-vc14-debug-dynamic:event.obj
 0003:00008968       $SG18971                   000000014006c968     pjmedia-x86_64-x64-vc14-debug-dynamic:event.obj
 0003:00008970       $SG18966                   000000014006c970     pjmedia-x86_64-x64-vc14-debug-dynamic:event.obj
 0003:00008a70       $SG18967                   000000014006ca70     pjmedia-x86_64-x64-vc14-debug-dynamic:event.obj
 0003:00008a90       $SG18970                   000000014006ca90     pjmedia-x86_64-x64-vc14-debug-dynamic:event.obj
 0003:00008d20       $SG16712                   000000014006cd20     pjmedia-x86_64-x64-vc14-debug-dynamic:sdp.obj
 0003:00008d40       $SG16732                   000000014006cd40     pjmedia-x86_64-x64-vc14-debug-dynamic:sdp.obj
 0003:00008e38       $SG16733                   000000014006ce38     pjmedia-x86_64-x64-vc14-debug-dynamic:sdp.obj
 0003:00008e58       $SG16753                   000000014006ce58     pjmedia-x86_64-x64-vc14-debug-dynamic:sdp.obj
 0003:00008e70       $SG16752                   000000014006ce70     pjmedia-x86_64-x64-vc14-debug-dynamic:sdp.obj
 0003:00008f68       $SG16783                   000000014006cf68     pjmedia-x86_64-x64-vc14-debug-dynamic:sdp.obj
 0003:00008f90       $SG16782                   000000014006cf90     pjmedia-x86_64-x64-vc14-debug-dynamic:sdp.obj
 0003:00009088       $SG16820                   000000014006d088     pjmedia-x86_64-x64-vc14-debug-dynamic:sdp.obj
 0003:000090c0       $SG16819                   000000014006d0c0     pjmedia-x86_64-x64-vc14-debug-dynamic:sdp.obj
 0003:000091b8       $SG16823                   000000014006d1b8     pjmedia-x86_64-x64-vc14-debug-dynamic:sdp.obj
 0003:000091e0       $SG16822                   000000014006d1e0     pjmedia-x86_64-x64-vc14-debug-dynamic:sdp.obj
 0003:000092d8       $SG16852                   000000014006d2d8     pjmedia-x86_64-x64-vc14-debug-dynamic:sdp.obj
 0003:00009310       $SG16851                   000000014006d310     pjmedia-x86_64-x64-vc14-debug-dynamic:sdp.obj
 0003:00009408       $SG16884                   000000014006d408     pjmedia-x86_64-x64-vc14-debug-dynamic:sdp.obj
 0003:00009440       $SG16854                   000000014006d440     pjmedia-x86_64-x64-vc14-debug-dynamic:sdp.obj
 0003:00009538       $SG16855                   000000014006d538     pjmedia-x86_64-x64-vc14-debug-dynamic:sdp.obj
 0003:00009564       $SG16911                   000000014006d564     pjmedia-x86_64-x64-vc14-debug-dynamic:sdp.obj
 0003:00009570       $SG16883                   000000014006d570     pjmedia-x86_64-x64-vc14-debug-dynamic:sdp.obj
 0003:00009668       $SG16912                   000000014006d668     pjmedia-x86_64-x64-vc14-debug-dynamic:sdp.obj
 0003:00009670       $SG16886                   000000014006d670     pjmedia-x86_64-x64-vc14-debug-dynamic:sdp.obj
 0003:00009768       $SG16887                   000000014006d768     pjmedia-x86_64-x64-vc14-debug-dynamic:sdp.obj
 0003:00009798       $SG16917                   000000014006d798     pjmedia-x86_64-x64-vc14-debug-dynamic:sdp.obj
 0003:000097b0       $SG16913                   000000014006d7b0     pjmedia-x86_64-x64-vc14-debug-dynamic:sdp.obj
 0003:000098a8       $SG16919                   000000014006d8a8     pjmedia-x86_64-x64-vc14-debug-dynamic:sdp.obj
 0003:000098d0       $SG16914                   000000014006d8d0     pjmedia-x86_64-x64-vc14-debug-dynamic:sdp.obj
 0003:00009920       $SG16918                   000000014006d920     pjmedia-x86_64-x64-vc14-debug-dynamic:sdp.obj
 0003:00009a18       $SG16946                   000000014006da18     pjmedia-x86_64-x64-vc14-debug-dynamic:sdp.obj
 0003:00009a20       $SG16947                   000000014006da20     pjmedia-x86_64-x64-vc14-debug-dynamic:sdp.obj
 0003:00009a28       $SG16970                   000000014006da28     pjmedia-x86_64-x64-vc14-debug-dynamic:sdp.obj
 0003:00009a30       $SG16948                   000000014006da30     pjmedia-x86_64-x64-vc14-debug-dynamic:sdp.obj
 0003:00009b28       $SG16971                   000000014006db28     pjmedia-x86_64-x64-vc14-debug-dynamic:sdp.obj
 0003:00009b30       $SG16949                   000000014006db30     pjmedia-x86_64-x64-vc14-debug-dynamic:sdp.obj
 0003:00009b78       $SG16980                   000000014006db78     pjmedia-x86_64-x64-vc14-debug-dynamic:sdp.obj
 0003:00009b80       $SG16972                   000000014006db80     pjmedia-x86_64-x64-vc14-debug-dynamic:sdp.obj
 0003:00009c78       $SG16996                   000000014006dc78     pjmedia-x86_64-x64-vc14-debug-dynamic:sdp.obj
 0003:00009c80       $SG16973                   000000014006dc80     pjmedia-x86_64-x64-vc14-debug-dynamic:sdp.obj
 0003:00009cc8       $SG16999                   000000014006dcc8     pjmedia-x86_64-x64-vc14-debug-dynamic:sdp.obj
 0003:00009cd8       $SG17002                   000000014006dcd8     pjmedia-x86_64-x64-vc14-debug-dynamic:sdp.obj
 0003:00009ce8       $SG17003                   000000014006dce8     pjmedia-x86_64-x64-vc14-debug-dynamic:sdp.obj
 0003:00009d08       $SG17005                   000000014006dd08     pjmedia-x86_64-x64-vc14-debug-dynamic:sdp.obj
 0003:00009d44       $SG17024                   000000014006dd44     pjmedia-x86_64-x64-vc14-debug-dynamic:sdp.obj
 0003:00009d50       $SG17004                   000000014006dd50     pjmedia-x86_64-x64-vc14-debug-dynamic:sdp.obj
 0003:00009e48       $SG17025                   000000014006de48     pjmedia-x86_64-x64-vc14-debug-dynamic:sdp.obj
 0003:00009e50       $SG17026                   000000014006de50     pjmedia-x86_64-x64-vc14-debug-dynamic:sdp.obj
 0003:00009f48       $SG17034                   000000014006df48     pjmedia-x86_64-x64-vc14-debug-dynamic:sdp.obj
 0003:00009f50       $SG17027                   000000014006df50     pjmedia-x86_64-x64-vc14-debug-dynamic:sdp.obj
 0003:00009f98       $SG17049                   000000014006df98     pjmedia-x86_64-x64-vc14-debug-dynamic:sdp.obj
 0003:00009fa0       $SG17050                   000000014006dfa0     pjmedia-x86_64-x64-vc14-debug-dynamic:sdp.obj
 0003:00009fb0       $SG17072                   000000014006dfb0     pjmedia-x86_64-x64-vc14-debug-dynamic:sdp.obj
 0003:0000a0a8       $SG17073                   000000014006e0a8     pjmedia-x86_64-x64-vc14-debug-dynamic:sdp.obj
 0003:0000a0e0       $SG17075                   000000014006e0e0     pjmedia-x86_64-x64-vc14-debug-dynamic:sdp.obj
 0003:0000a1d8       $SG17076                   000000014006e1d8     pjmedia-x86_64-x64-vc14-debug-dynamic:sdp.obj
 0003:0000a1f0       $SG17113                   000000014006e1f0     pjmedia-x86_64-x64-vc14-debug-dynamic:sdp.obj
 0003:0000a2e8       $SG17114                   000000014006e2e8     pjmedia-x86_64-x64-vc14-debug-dynamic:sdp.obj
 0003:0000a320       $SG17117                   000000014006e320     pjmedia-x86_64-x64-vc14-debug-dynamic:sdp.obj
 0003:0000a418       $SG17121                   000000014006e418     pjmedia-x86_64-x64-vc14-debug-dynamic:sdp.obj
 0003:0000a440       $SG17118                   000000014006e440     pjmedia-x86_64-x64-vc14-debug-dynamic:sdp.obj
 0003:0000a498       $SG17122                   000000014006e498     pjmedia-x86_64-x64-vc14-debug-dynamic:sdp.obj
 0003:0000a4a0       $SG17120                   000000014006e4a0     pjmedia-x86_64-x64-vc14-debug-dynamic:sdp.obj
 0003:0000a598       $SG17123                   000000014006e598     pjmedia-x86_64-x64-vc14-debug-dynamic:sdp.obj
 0003:0000a59c       $SG17414                   000000014006e59c     pjmedia-x86_64-x64-vc14-debug-dynamic:sdp.obj
 0003:0000a5a0       $SG17125                   000000014006e5a0     pjmedia-x86_64-x64-vc14-debug-dynamic:sdp.obj
 0003:0000a5b4       $SG17483                   000000014006e5b4     pjmedia-x86_64-x64-vc14-debug-dynamic:sdp.obj
 0003:0000a5b8       $SG17140                   000000014006e5b8     pjmedia-x86_64-x64-vc14-debug-dynamic:sdp.obj
 0003:0000a5d0       $SG17277                   000000014006e5d0     pjmedia-x86_64-x64-vc14-debug-dynamic:sdp.obj
 0003:0000a6c8       $SG17278                   000000014006e6c8     pjmedia-x86_64-x64-vc14-debug-dynamic:sdp.obj
 0003:0000a6f0       $SG17282                   000000014006e6f0     pjmedia-x86_64-x64-vc14-debug-dynamic:sdp.obj
 0003:0000a7e8       $SG17283                   000000014006e7e8     pjmedia-x86_64-x64-vc14-debug-dynamic:sdp.obj
 0003:0000a818       $SG17286                   000000014006e818     pjmedia-x86_64-x64-vc14-debug-dynamic:sdp.obj
 0003:0000a850       $SG17285                   000000014006e850     pjmedia-x86_64-x64-vc14-debug-dynamic:sdp.obj
 0003:0000a948       $SG17289                   000000014006e948     pjmedia-x86_64-x64-vc14-debug-dynamic:sdp.obj
 0003:0000a980       $SG17288                   000000014006e980     pjmedia-x86_64-x64-vc14-debug-dynamic:sdp.obj
 0003:0000aa78       $SG17306                   000000014006ea78     pjmedia-x86_64-x64-vc14-debug-dynamic:sdp.obj
 0003:0000aa90       $SG17305                   000000014006ea90     pjmedia-x86_64-x64-vc14-debug-dynamic:sdp.obj
 0003:0000ab88       $SG17323                   000000014006eb88     pjmedia-x86_64-x64-vc14-debug-dynamic:sdp.obj
 0003:0000aba0       $SG17322                   000000014006eba0     pjmedia-x86_64-x64-vc14-debug-dynamic:sdp.obj
 0003:0000ac98       $SG17371                   000000014006ec98     pjmedia-x86_64-x64-vc14-debug-dynamic:sdp.obj
 0003:0000aca0       $SG17395                   000000014006eca0     pjmedia-x86_64-x64-vc14-debug-dynamic:sdp.obj
 0003:0000aca8       $SG17405                   000000014006eca8     pjmedia-x86_64-x64-vc14-debug-dynamic:sdp.obj
 0003:0000acb0       $SG17423                   000000014006ecb0     pjmedia-x86_64-x64-vc14-debug-dynamic:sdp.obj
 0003:0000acb8       $SG17432                   000000014006ecb8     pjmedia-x86_64-x64-vc14-debug-dynamic:sdp.obj
 0003:0000acc0       $SG17453                   000000014006ecc0     pjmedia-x86_64-x64-vc14-debug-dynamic:sdp.obj
 0003:0000acc8       $SG17458                   000000014006ecc8     pjmedia-x86_64-x64-vc14-debug-dynamic:sdp.obj
 0003:0000ad00       $SG17459                   000000014006ed00     pjmedia-x86_64-x64-vc14-debug-dynamic:sdp.obj
 0003:0000ad08       $SG17507                   000000014006ed08     pjmedia-x86_64-x64-vc14-debug-dynamic:sdp.obj
 0003:0000ad14       $SG17600                   000000014006ed14     pjmedia-x86_64-x64-vc14-debug-dynamic:sdp.obj
 0003:0000ad1c       $SG17716                   000000014006ed1c     pjmedia-x86_64-x64-vc14-debug-dynamic:sdp.obj
 0003:0000ad20       $SG17509                   000000014006ed20     pjmedia-x86_64-x64-vc14-debug-dynamic:sdp.obj
 0003:0000ad2c       $SG17604                   000000014006ed2c     pjmedia-x86_64-x64-vc14-debug-dynamic:sdp.obj
 0003:0000ad34       $SG17718                   000000014006ed34     pjmedia-x86_64-x64-vc14-debug-dynamic:sdp.obj
 0003:0000ad38       $SG17511                   000000014006ed38     pjmedia-x86_64-x64-vc14-debug-dynamic:sdp.obj
 0003:0000ad44       $SG17615                   000000014006ed44     pjmedia-x86_64-x64-vc14-debug-dynamic:sdp.obj
 0003:0000ad4c       $SG17719                   000000014006ed4c     pjmedia-x86_64-x64-vc14-debug-dynamic:sdp.obj
 0003:0000ad50       $SG17513                   000000014006ed50     pjmedia-x86_64-x64-vc14-debug-dynamic:sdp.obj
 0003:0000ad60       $SG17586                   000000014006ed60     pjmedia-x86_64-x64-vc14-debug-dynamic:sdp.obj
 0003:0000ae58       $SG17587                   000000014006ee58     pjmedia-x86_64-x64-vc14-debug-dynamic:sdp.obj
 0003:0000ae88       $SG17599                   000000014006ee88     pjmedia-x86_64-x64-vc14-debug-dynamic:sdp.obj
 0003:0000aebc       $SG17786                   000000014006eebc     pjmedia-x86_64-x64-vc14-debug-dynamic:sdp.obj
 0003:0000aec0       $SG17603                   000000014006eec0     pjmedia-x86_64-x64-vc14-debug-dynamic:sdp.obj
 0003:0000aef8       $SG17614                   000000014006eef8     pjmedia-x86_64-x64-vc14-debug-dynamic:sdp.obj
 0003:0000af20       $SG17625                   000000014006ef20     pjmedia-x86_64-x64-vc14-debug-dynamic:sdp.obj
 0003:0000af54       $SG17626                   000000014006ef54     pjmedia-x86_64-x64-vc14-debug-dynamic:sdp.obj
 0003:0000af5c       $SG17782                   000000014006ef5c     pjmedia-x86_64-x64-vc14-debug-dynamic:sdp.obj
 0003:0000af64       $SG17788                   000000014006ef64     pjmedia-x86_64-x64-vc14-debug-dynamic:sdp.obj
 0003:0000af68       $SG17629                   000000014006ef68     pjmedia-x86_64-x64-vc14-debug-dynamic:sdp.obj
 0003:0000afa0       $SG17630                   000000014006efa0     pjmedia-x86_64-x64-vc14-debug-dynamic:sdp.obj
 0003:0000afa8       $SG17634                   000000014006efa8     pjmedia-x86_64-x64-vc14-debug-dynamic:sdp.obj
 0003:0000afcc       $SG17635                   000000014006efcc     pjmedia-x86_64-x64-vc14-debug-dynamic:sdp.obj
 0003:0000afd8       $SG17689                   000000014006efd8     pjmedia-x86_64-x64-vc14-debug-dynamic:sdp.obj
 0003:0000aff0       $SG17636                   000000014006eff0     pjmedia-x86_64-x64-vc14-debug-dynamic:sdp.obj
 0003:0000b0e8       $SG17637                   000000014006f0e8     pjmedia-x86_64-x64-vc14-debug-dynamic:sdp.obj
 0003:0000b128       $SG17692                   000000014006f128     pjmedia-x86_64-x64-vc14-debug-dynamic:sdp.obj
 0003:0000b150       $SG17688                   000000014006f150     pjmedia-x86_64-x64-vc14-debug-dynamic:sdp.obj
 0003:0000b248       $SG17696                   000000014006f248     pjmedia-x86_64-x64-vc14-debug-dynamic:sdp.obj
 0003:0000b280       $SG17691                   000000014006f280     pjmedia-x86_64-x64-vc14-debug-dynamic:sdp.obj
 0003:0000b378       $SG17789                   000000014006f378     pjmedia-x86_64-x64-vc14-debug-dynamic:sdp.obj
 0003:0000b380       $SG17695                   000000014006f380     pjmedia-x86_64-x64-vc14-debug-dynamic:sdp.obj
 0003:0000b478       $SG17830                   000000014006f478     pjmedia-x86_64-x64-vc14-debug-dynamic:sdp.obj
 0003:0000b480       $SG17829                   000000014006f480     pjmedia-x86_64-x64-vc14-debug-dynamic:sdp.obj
 0003:0000b578       $SG17831                   000000014006f578     pjmedia-x86_64-x64-vc14-debug-dynamic:sdp.obj
 0003:0000b57c       $SG17835                   000000014006f57c     pjmedia-x86_64-x64-vc14-debug-dynamic:sdp.obj
 0003:0000b580       $SG17837                   000000014006f580     pjmedia-x86_64-x64-vc14-debug-dynamic:sdp.obj
 0003:0000b584       $SG17839                   000000014006f584     pjmedia-x86_64-x64-vc14-debug-dynamic:sdp.obj
 0003:0000b58c       $SG17841                   000000014006f58c     pjmedia-x86_64-x64-vc14-debug-dynamic:sdp.obj
 0003:0000b594       $SG17843                   000000014006f594     pjmedia-x86_64-x64-vc14-debug-dynamic:sdp.obj
 0003:0000b59c       $SG17845                   000000014006f59c     pjmedia-x86_64-x64-vc14-debug-dynamic:sdp.obj
 0003:0000b5a0       $SG17848                   000000014006f5a0     pjmedia-x86_64-x64-vc14-debug-dynamic:sdp.obj
 0003:0000b5b0       $SG17850                   000000014006f5b0     pjmedia-x86_64-x64-vc14-debug-dynamic:sdp.obj
 0003:0000b5c0       $SG17863                   000000014006f5c0     pjmedia-x86_64-x64-vc14-debug-dynamic:sdp.obj
 0003:0000b6b8       $SG17864                   000000014006f6b8     pjmedia-x86_64-x64-vc14-debug-dynamic:sdp.obj
 0003:0000b6c0       $SG17904                   000000014006f6c0     pjmedia-x86_64-x64-vc14-debug-dynamic:sdp.obj
 0003:0000b7b8       $SG17905                   000000014006f7b8     pjmedia-x86_64-x64-vc14-debug-dynamic:sdp.obj
 0003:0000b7d0       $SG17908                   000000014006f7d0     pjmedia-x86_64-x64-vc14-debug-dynamic:sdp.obj
 0003:0000b8c8       $SG17909                   000000014006f8c8     pjmedia-x86_64-x64-vc14-debug-dynamic:sdp.obj
 0003:0000b8f8       $SG17912                   000000014006f8f8     pjmedia-x86_64-x64-vc14-debug-dynamic:sdp.obj
 0003:0000b930       $SG17911                   000000014006f930     pjmedia-x86_64-x64-vc14-debug-dynamic:sdp.obj
 0003:0000c330       $SG20510                   0000000140070330     pjmedia-x86_64-x64-vc14-debug-dynamic:endpoint.obj
 0003:0000c334       $SG20512                   0000000140070334     pjmedia-x86_64-x64-vc14-debug-dynamic:endpoint.obj
 0003:0000c338       $SG20514                   0000000140070338     pjmedia-x86_64-x64-vc14-debug-dynamic:endpoint.obj
 0003:0000c340       $SG20516                   0000000140070340     pjmedia-x86_64-x64-vc14-debug-dynamic:endpoint.obj
 0003:0000c348       $SG20518                   0000000140070348     pjmedia-x86_64-x64-vc14-debug-dynamic:endpoint.obj
 0003:0000c350       $SG20520                   0000000140070350     pjmedia-x86_64-x64-vc14-debug-dynamic:endpoint.obj
 0003:0000c360       $SG20580                   0000000140070360     pjmedia-x86_64-x64-vc14-debug-dynamic:endpoint.obj
 0003:0000c460       $SG20581                   0000000140070460     pjmedia-x86_64-x64-vc14-debug-dynamic:endpoint.obj
 0003:0000c490       $SG20584                   0000000140070490     pjmedia-x86_64-x64-vc14-debug-dynamic:endpoint.obj
 0003:0000c590       $SG20585                   0000000140070590     pjmedia-x86_64-x64-vc14-debug-dynamic:endpoint.obj
 0003:0000c5b0       $SG20587                   00000001400705b0     pjmedia-x86_64-x64-vc14-debug-dynamic:endpoint.obj
 0003:0000c6b0       $SG20588                   00000001400706b0     pjmedia-x86_64-x64-vc14-debug-dynamic:endpoint.obj
 0003:0000c6d4       $SG20882                   00000001400706d4     pjmedia-x86_64-x64-vc14-debug-dynamic:endpoint.obj
 0003:0000c6d8       $SG20589                   00000001400706d8     pjmedia-x86_64-x64-vc14-debug-dynamic:endpoint.obj
 0003:0000c6e0       $SG20596                   00000001400706e0     pjmedia-x86_64-x64-vc14-debug-dynamic:endpoint.obj
 0003:0000c72c       $SG20884                   000000014007072c     pjmedia-x86_64-x64-vc14-debug-dynamic:endpoint.obj
 0003:0000c730       $SG20597                   0000000140070730     pjmedia-x86_64-x64-vc14-debug-dynamic:endpoint.obj
 0003:0000c73c       $SG20598                   000000014007073c     pjmedia-x86_64-x64-vc14-debug-dynamic:endpoint.obj
 0003:0000c748       $SG20631                   0000000140070748     pjmedia-x86_64-x64-vc14-debug-dynamic:endpoint.obj
 0003:0000c754       $SG20857                   0000000140070754     pjmedia-x86_64-x64-vc14-debug-dynamic:endpoint.obj
 0003:0000c760       $SG20630                   0000000140070760     pjmedia-x86_64-x64-vc14-debug-dynamic:endpoint.obj
 0003:0000c860       $SG20650                   0000000140070860     pjmedia-x86_64-x64-vc14-debug-dynamic:endpoint.obj
 0003:0000c960       $SG20651                   0000000140070960     pjmedia-x86_64-x64-vc14-debug-dynamic:endpoint.obj
 0003:0000c970       $SG20664                   0000000140070970     pjmedia-x86_64-x64-vc14-debug-dynamic:endpoint.obj
 0003:0000ca70       $SG20665                   0000000140070a70     pjmedia-x86_64-x64-vc14-debug-dynamic:endpoint.obj
 0003:0000ca80       $SG20675                   0000000140070a80     pjmedia-x86_64-x64-vc14-debug-dynamic:endpoint.obj
 0003:0000cb80       $SG20676                   0000000140070b80     pjmedia-x86_64-x64-vc14-debug-dynamic:endpoint.obj
 0003:0000cb90       $SG20695                   0000000140070b90     pjmedia-x86_64-x64-vc14-debug-dynamic:endpoint.obj
 0003:0000cc90       $SG20696                   0000000140070c90     pjmedia-x86_64-x64-vc14-debug-dynamic:endpoint.obj
 0003:0000cca0       $SG20698                   0000000140070ca0     pjmedia-x86_64-x64-vc14-debug-dynamic:endpoint.obj
 0003:0000cda0       $SG20699                   0000000140070da0     pjmedia-x86_64-x64-vc14-debug-dynamic:endpoint.obj
 0003:0000cdd4       $SG20885                   0000000140070dd4     pjmedia-x86_64-x64-vc14-debug-dynamic:endpoint.obj
 0003:0000cdd8       $SG20889                   0000000140070dd8     pjmedia-x86_64-x64-vc14-debug-dynamic:endpoint.obj
 0003:0000cde0       $SG20714                   0000000140070de0     pjmedia-x86_64-x64-vc14-debug-dynamic:endpoint.obj
 0003:0000cee0       $SG20715                   0000000140070ee0     pjmedia-x86_64-x64-vc14-debug-dynamic:endpoint.obj
 0003:0000cef0       $SG20738                   0000000140070ef0     pjmedia-x86_64-x64-vc14-debug-dynamic:endpoint.obj
 0003:0000cff0       $SG20739                   0000000140070ff0     pjmedia-x86_64-x64-vc14-debug-dynamic:endpoint.obj
 0003:0000d020       $SG20763                   0000000140071020     pjmedia-x86_64-x64-vc14-debug-dynamic:endpoint.obj
 0003:0000d120       $SG20764                   0000000140071120     pjmedia-x86_64-x64-vc14-debug-dynamic:endpoint.obj
 0003:0000d1b4       $SG20890                   00000001400711b4     pjmedia-x86_64-x64-vc14-debug-dynamic:endpoint.obj
 0003:0000d1c0       $SG20859                   00000001400711c0     pjmedia-x86_64-x64-vc14-debug-dynamic:endpoint.obj
 0003:0000d2c0       $SG20860                   00000001400712c0     pjmedia-x86_64-x64-vc14-debug-dynamic:endpoint.obj
 0003:0000d304       $SG20907                   0000000140071304     pjmedia-x86_64-x64-vc14-debug-dynamic:endpoint.obj
 0003:0000d308       $SG20869                   0000000140071308     pjmedia-x86_64-x64-vc14-debug-dynamic:endpoint.obj
 0003:0000d344       $SG20942                   0000000140071344     pjmedia-x86_64-x64-vc14-debug-dynamic:endpoint.obj
 0003:0000d348       $SG20870                   0000000140071348     pjmedia-x86_64-x64-vc14-debug-dynamic:endpoint.obj
 0003:0000d358       $SG20905                   0000000140071358     pjmedia-x86_64-x64-vc14-debug-dynamic:endpoint.obj
 0003:0000d398       $SG20908                   0000000140071398     pjmedia-x86_64-x64-vc14-debug-dynamic:endpoint.obj
 0003:0000d3a0       $SG20876                   00000001400713a0     pjmedia-x86_64-x64-vc14-debug-dynamic:endpoint.obj
 0003:0000d4a0       $SG20877                   00000001400714a0     pjmedia-x86_64-x64-vc14-debug-dynamic:endpoint.obj
 0003:0000d4dc       $SG20995                   00000001400714dc     pjmedia-x86_64-x64-vc14-debug-dynamic:endpoint.obj
 0003:0000d4e0       $SG20888                   00000001400714e0     pjmedia-x86_64-x64-vc14-debug-dynamic:endpoint.obj
 0003:0000d4ec       $SG20998                   00000001400714ec     pjmedia-x86_64-x64-vc14-debug-dynamic:endpoint.obj
 0003:0000d4f8       $SG20906                   00000001400714f8     pjmedia-x86_64-x64-vc14-debug-dynamic:endpoint.obj
 0003:0000d508       $SG20909                   0000000140071508     pjmedia-x86_64-x64-vc14-debug-dynamic:endpoint.obj
 0003:0000d520       $SG20910                   0000000140071520     pjmedia-x86_64-x64-vc14-debug-dynamic:endpoint.obj
 0003:0000d528       $SG20911                   0000000140071528     pjmedia-x86_64-x64-vc14-debug-dynamic:endpoint.obj
 0003:0000d530       $SG20914                   0000000140071530     pjmedia-x86_64-x64-vc14-debug-dynamic:endpoint.obj
 0003:0000d538       $SG20941                   0000000140071538     pjmedia-x86_64-x64-vc14-debug-dynamic:endpoint.obj
 0003:0000d568       $SG20947                   0000000140071568     pjmedia-x86_64-x64-vc14-debug-dynamic:endpoint.obj
 0003:0000d580       $SG20940                   0000000140071580     pjmedia-x86_64-x64-vc14-debug-dynamic:endpoint.obj
 0003:0000d680       $SG20948                   0000000140071680     pjmedia-x86_64-x64-vc14-debug-dynamic:endpoint.obj
 0003:0000d780       $SG20949                   0000000140071780     pjmedia-x86_64-x64-vc14-debug-dynamic:endpoint.obj
 0003:0000d7b4       $SG21040                   00000001400717b4     pjmedia-x86_64-x64-vc14-debug-dynamic:endpoint.obj
 0003:0000d7c0       $SG20980                   00000001400717c0     pjmedia-x86_64-x64-vc14-debug-dynamic:endpoint.obj
 0003:0000d8c0       $SG20981                   00000001400718c0     pjmedia-x86_64-x64-vc14-debug-dynamic:endpoint.obj
 0003:0000d910       $SG20983                   0000000140071910     pjmedia-x86_64-x64-vc14-debug-dynamic:endpoint.obj
 0003:0000da10       $SG20984                   0000000140071a10     pjmedia-x86_64-x64-vc14-debug-dynamic:endpoint.obj
 0003:0000da30       $SG20999                   0000000140071a30     pjmedia-x86_64-x64-vc14-debug-dynamic:endpoint.obj
 0003:0000da40       $SG21030                   0000000140071a40     pjmedia-x86_64-x64-vc14-debug-dynamic:endpoint.obj
 0003:0000da60       $SG21031                   0000000140071a60     pjmedia-x86_64-x64-vc14-debug-dynamic:endpoint.obj
 0003:0000da70       $SG21034                   0000000140071a70     pjmedia-x86_64-x64-vc14-debug-dynamic:endpoint.obj
 0003:0000da90       $SG21035                   0000000140071a90     pjmedia-x86_64-x64-vc14-debug-dynamic:endpoint.obj
 0003:0000daa0       $SG21037                   0000000140071aa0     pjmedia-x86_64-x64-vc14-debug-dynamic:endpoint.obj
 0003:0000dac8       $SG21038                   0000000140071ac8     pjmedia-x86_64-x64-vc14-debug-dynamic:endpoint.obj
 0003:0000dad4       $SG21042                   0000000140071ad4     pjmedia-x86_64-x64-vc14-debug-dynamic:endpoint.obj
 0003:0000dae0       $SG21044                   0000000140071ae0     pjmedia-x86_64-x64-vc14-debug-dynamic:endpoint.obj
 0003:0000daf0       $SG21047                   0000000140071af0     pjmedia-x86_64-x64-vc14-debug-dynamic:endpoint.obj
 0003:0000dafc       $SG21049                   0000000140071afc     pjmedia-x86_64-x64-vc14-debug-dynamic:endpoint.obj
 0003:0000db04       $SG21051                   0000000140071b04     pjmedia-x86_64-x64-vc14-debug-dynamic:endpoint.obj
 0003:0000db0c       $SG21053                   0000000140071b0c     pjmedia-x86_64-x64-vc14-debug-dynamic:endpoint.obj
 0003:0000db14       $SG21055                   0000000140071b14     pjmedia-x86_64-x64-vc14-debug-dynamic:endpoint.obj
 0003:0000db20       $SG21057                   0000000140071b20     pjmedia-x86_64-x64-vc14-debug-dynamic:endpoint.obj
 0003:0000db60       $SG21058                   0000000140071b60     pjmedia-x86_64-x64-vc14-debug-dynamic:endpoint.obj
 0003:0000db70       $SG21074                   0000000140071b70     pjmedia-x86_64-x64-vc14-debug-dynamic:endpoint.obj
 0003:0000dc70       $SG21075                   0000000140071c70     pjmedia-x86_64-x64-vc14-debug-dynamic:endpoint.obj
 0003:0000e1a0       $SG19404                   00000001400721a0     pjmedia-x86_64-x64-vc14-debug-dynamic:codec.obj
 0003:0000e2a0       $SG19405                   00000001400722a0     pjmedia-x86_64-x64-vc14-debug-dynamic:codec.obj
 0003:0000e2b8       $SG19422                   00000001400722b8     pjmedia-x86_64-x64-vc14-debug-dynamic:codec.obj
 0003:0000e2d0       $SG19421                   00000001400722d0     pjmedia-x86_64-x64-vc14-debug-dynamic:codec.obj
 0003:0000e3d0       $SG19423                   00000001400723d0     pjmedia-x86_64-x64-vc14-debug-dynamic:codec.obj
 0003:0000e3e0       $SG19424                   00000001400723e0     pjmedia-x86_64-x64-vc14-debug-dynamic:codec.obj
 0003:0000e3f0       $SG19446                   00000001400723f0     pjmedia-x86_64-x64-vc14-debug-dynamic:codec.obj
 0003:0000e4f0       $SG19447                   00000001400724f0     pjmedia-x86_64-x64-vc14-debug-dynamic:codec.obj
 0003:0000e4f8       $SG19731                   00000001400724f8     pjmedia-x86_64-x64-vc14-debug-dynamic:codec.obj
 0003:0000e530       $SG19449                   0000000140072530     pjmedia-x86_64-x64-vc14-debug-dynamic:codec.obj
 0003:0000e630       $SG19450                   0000000140072630     pjmedia-x86_64-x64-vc14-debug-dynamic:codec.obj
 0003:0000e670       $SG19481                   0000000140072670     pjmedia-x86_64-x64-vc14-debug-dynamic:codec.obj
 0003:0000e770       $SG19482                   0000000140072770     pjmedia-x86_64-x64-vc14-debug-dynamic:codec.obj
 0003:0000e790       $SG19484                   0000000140072790     pjmedia-x86_64-x64-vc14-debug-dynamic:codec.obj
 0003:0000e890       $SG19485                   0000000140072890     pjmedia-x86_64-x64-vc14-debug-dynamic:codec.obj
 0003:0000e8d8       $SG19770                   00000001400728d8     pjmedia-x86_64-x64-vc14-debug-dynamic:codec.obj
 0003:0000e8f0       $SG19506                   00000001400728f0     pjmedia-x86_64-x64-vc14-debug-dynamic:codec.obj
 0003:0000e9f0       $SG19507                   00000001400729f0     pjmedia-x86_64-x64-vc14-debug-dynamic:codec.obj
 0003:0000ea10       $SG19512                   0000000140072a10     pjmedia-x86_64-x64-vc14-debug-dynamic:codec.obj
 0003:0000eb10       $SG19513                   0000000140072b10     pjmedia-x86_64-x64-vc14-debug-dynamic:codec.obj
 0003:0000eb50       $SG19538                   0000000140072b50     pjmedia-x86_64-x64-vc14-debug-dynamic:codec.obj
 0003:0000ec50       $SG19539                   0000000140072c50     pjmedia-x86_64-x64-vc14-debug-dynamic:codec.obj
 0003:0000ec80       $SG19560                   0000000140072c80     pjmedia-x86_64-x64-vc14-debug-dynamic:codec.obj
 0003:0000ed80       $SG19561                   0000000140072d80     pjmedia-x86_64-x64-vc14-debug-dynamic:codec.obj
 0003:0000edc8       $SG19669                   0000000140072dc8     pjmedia-x86_64-x64-vc14-debug-dynamic:codec.obj
 0003:0000edf0       $SG19582                   0000000140072df0     pjmedia-x86_64-x64-vc14-debug-dynamic:codec.obj
 0003:0000eef0       $SG19583                   0000000140072ef0     pjmedia-x86_64-x64-vc14-debug-dynamic:codec.obj
 0003:0000ef20       $SG19584                   0000000140072f20     pjmedia-x86_64-x64-vc14-debug-dynamic:codec.obj
 0003:0000ef30       $SG19610                   0000000140072f30     pjmedia-x86_64-x64-vc14-debug-dynamic:codec.obj
 0003:0000f030       $SG19611                   0000000140073030     pjmedia-x86_64-x64-vc14-debug-dynamic:codec.obj
 0003:0000f080       $SG19668                   0000000140073080     pjmedia-x86_64-x64-vc14-debug-dynamic:codec.obj
 0003:0000f180       $SG19692                   0000000140073180     pjmedia-x86_64-x64-vc14-debug-dynamic:codec.obj
 0003:0000f280       $SG19693                   0000000140073280     pjmedia-x86_64-x64-vc14-debug-dynamic:codec.obj
 0003:0000f2b0       $SG19725                   00000001400732b0     pjmedia-x86_64-x64-vc14-debug-dynamic:codec.obj
 0003:0000f3b0       $SG19726                   00000001400733b0     pjmedia-x86_64-x64-vc14-debug-dynamic:codec.obj
 0003:0000f3e0       $SG19730                   00000001400733e0     pjmedia-x86_64-x64-vc14-debug-dynamic:codec.obj
 0003:0000f4e0       $SG19769                   00000001400734e0     pjmedia-x86_64-x64-vc14-debug-dynamic:codec.obj
 0003:0000f5e0       $SG19775                   00000001400735e0     pjmedia-x86_64-x64-vc14-debug-dynamic:codec.obj
 0003:0000f6e0       $SG19776                   00000001400736e0     pjmedia-x86_64-x64-vc14-debug-dynamic:codec.obj
 0003:0000f710       $SG19793                   0000000140073710     pjmedia-x86_64-x64-vc14-debug-dynamic:codec.obj
 0003:0000f810       $SG19794                   0000000140073810     pjmedia-x86_64-x64-vc14-debug-dynamic:codec.obj
 0003:0000fcb0       $SG8053                    0000000140073cb0     pjlib-util-x86_64-x64-vc14-debug-dynamic:base64.obj
 0003:0000fdb8       $SG8054                    0000000140073db8     pjlib-util-x86_64-x64-vc14-debug-dynamic:base64.obj
 0003:0000fdf0       $SG8056                    0000000140073df0     pjlib-util-x86_64-x64-vc14-debug-dynamic:base64.obj
 0003:0000ff00       $SG8057                    0000000140073f00     pjlib-util-x86_64-x64-vc14-debug-dynamic:base64.obj
 0003:0000ff50       $SG8106                    0000000140073f50     pjlib-util-x86_64-x64-vc14-debug-dynamic:base64.obj
 0003:00010058       $SG8107                    0000000140074058     pjlib-util-x86_64-x64-vc14-debug-dynamic:base64.obj
 0003:00010090       $SG8109                    0000000140074090     pjlib-util-x86_64-x64-vc14-debug-dynamic:base64.obj
 0003:00010198       $SG8110                    0000000140074198     pjlib-util-x86_64-x64-vc14-debug-dynamic:base64.obj
 0003:000101d0       $SG8115                    00000001400741d0     pjlib-util-x86_64-x64-vc14-debug-dynamic:base64.obj
 0003:000102d8       $SG8116                    00000001400742d8     pjlib-util-x86_64-x64-vc14-debug-dynamic:base64.obj
 0003:00010440       $SG15294                   0000000140074440     pjlib-util-x86_64-x64-vc14-debug-dynamic:scanner.obj
 0003:00010550       $SG15295                   0000000140074550     pjlib-util-x86_64-x64-vc14-debug-dynamic:scanner.obj
 0003:00010570       $SG15363                   0000000140074570     pjlib-util-x86_64-x64-vc14-debug-dynamic:scanner.obj
 0003:00010600       $SG15369                   0000000140074600     pjlib-util-x86_64-x64-vc14-debug-dynamic:scanner.obj
 0003:00010690       $SG15454                   0000000140074690     pjlib-util-x86_64-x64-vc14-debug-dynamic:scanner.obj
 0003:000107a0       $SG15455                   00000001400747a0     pjlib-util-x86_64-x64-vc14-debug-dynamic:scanner.obj
 0003:000107d0       $SG15479                   00000001400747d0     pjlib-util-x86_64-x64-vc14-debug-dynamic:scanner.obj
 0003:000108e0       $SG15480                   00000001400748e0     pjlib-util-x86_64-x64-vc14-debug-dynamic:scanner.obj
 0003:00010910       $SG15481                   0000000140074910     pjlib-util-x86_64-x64-vc14-debug-dynamic:scanner.obj
 0003:00010a20       $SG15482                   0000000140074a20     pjlib-util-x86_64-x64-vc14-debug-dynamic:scanner.obj
 0003:00010a60       $SG15532                   0000000140074a60     pjlib-util-x86_64-x64-vc14-debug-dynamic:scanner.obj
 0003:00010b70       $SG15533                   0000000140074b70     pjlib-util-x86_64-x64-vc14-debug-dynamic:scanner.obj
 0003:00010d00       thread_tls_id              0000000140074d00     pjlib-x86_64-x64-vc14-debug-dynamic:os_core_win32.obj
 0003:00010d04       $SG59757                   0000000140074d04     pjlib-x86_64-x64-vc14-debug-dynamic:os_core_win32.obj
 0003:00010d10       $SG59758                   0000000140074d10     pjlib-x86_64-x64-vc14-debug-dynamic:os_core_win32.obj
 0003:00010d20       $SG59762                   0000000140074d20     pjlib-x86_64-x64-vc14-debug-dynamic:os_core_win32.obj
 0003:00010e1c       $SG59960                   0000000140074e1c     pjlib-x86_64-x64-vc14-debug-dynamic:os_core_win32.obj
 0003:00010e20       $SG59763                   0000000140074e20     pjlib-x86_64-x64-vc14-debug-dynamic:os_core_win32.obj
 0003:00010e44       $SG59976                   0000000140074e44     pjlib-x86_64-x64-vc14-debug-dynamic:os_core_win32.obj
 0003:00010e48       $SG59765                   0000000140074e48     pjlib-x86_64-x64-vc14-debug-dynamic:os_core_win32.obj
 0003:00010e68       $SG59766                   0000000140074e68     pjlib-x86_64-x64-vc14-debug-dynamic:os_core_win32.obj
 0003:00010e78       $SG59788                   0000000140074e78     pjlib-x86_64-x64-vc14-debug-dynamic:os_core_win32.obj
 0003:00010ea0       $SG59784                   0000000140074ea0     pjlib-x86_64-x64-vc14-debug-dynamic:os_core_win32.obj
 0003:00010f9c       $SG60007                   0000000140074f9c     pjlib-x86_64-x64-vc14-debug-dynamic:os_core_win32.obj
 0003:00010fa0       $SG59785                   0000000140074fa0     pjlib-x86_64-x64-vc14-debug-dynamic:os_core_win32.obj
 0003:00010fc0       $SG59793                   0000000140074fc0     pjlib-x86_64-x64-vc14-debug-dynamic:os_core_win32.obj
 0003:00011040       $SG59815                   0000000140075040     pjlib-x86_64-x64-vc14-debug-dynamic:os_core_win32.obj
 0003:0001113c       $SG60027                   000000014007513c     pjlib-x86_64-x64-vc14-debug-dynamic:os_core_win32.obj
 0003:00011140       $SG59816                   0000000140075140     pjlib-x86_64-x64-vc14-debug-dynamic:os_core_win32.obj
 0003:00011150       $SG59819                   0000000140075150     pjlib-x86_64-x64-vc14-debug-dynamic:os_core_win32.obj
 0003:00011250       $SG59820                   0000000140075250     pjlib-x86_64-x64-vc14-debug-dynamic:os_core_win32.obj
 0003:00011280       $SG59840                   0000000140075280     pjlib-x86_64-x64-vc14-debug-dynamic:os_core_win32.obj
 0003:00011380       $SG59841                   0000000140075380     pjlib-x86_64-x64-vc14-debug-dynamic:os_core_win32.obj
 0003:00011390       $SG59863                   0000000140075390     pjlib-x86_64-x64-vc14-debug-dynamic:os_core_win32.obj
 0003:000113b0       $SG59864                   00000001400753b0     pjlib-x86_64-x64-vc14-debug-dynamic:os_core_win32.obj
 0003:000114b0       $SG59865                   00000001400754b0     pjlib-x86_64-x64-vc14-debug-dynamic:os_core_win32.obj
 0003:000114f8       $SG59869                   00000001400754f8     pjlib-x86_64-x64-vc14-debug-dynamic:os_core_win32.obj
 0003:00011500       $SG59876                   0000000140075500     pjlib-x86_64-x64-vc14-debug-dynamic:os_core_win32.obj
 0003:00011508       $SG59897                   0000000140075508     pjlib-x86_64-x64-vc14-debug-dynamic:os_core_win32.obj
 0003:00011530       $SG59898                   0000000140075530     pjlib-x86_64-x64-vc14-debug-dynamic:os_core_win32.obj
 0003:00011630       $SG59899                   0000000140075630     pjlib-x86_64-x64-vc14-debug-dynamic:os_core_win32.obj
 0003:00011680       $SG59903                   0000000140075680     pjlib-x86_64-x64-vc14-debug-dynamic:os_core_win32.obj
 0003:000116a8       $SG59938                   00000001400756a8     pjlib-x86_64-x64-vc14-debug-dynamic:os_core_win32.obj
 0003:000116e0       $SG59934                   00000001400756e0     pjlib-x86_64-x64-vc14-debug-dynamic:os_core_win32.obj
 0003:00011760       $SG59937                   0000000140075760     pjlib-x86_64-x64-vc14-debug-dynamic:os_core_win32.obj
 0003:0001185c       $SG59942                   000000014007585c     pjlib-x86_64-x64-vc14-debug-dynamic:os_core_win32.obj
 0003:00011868       $SG60049                   0000000140075868     pjlib-x86_64-x64-vc14-debug-dynamic:os_core_win32.obj
 0003:00011878       $SG60050                   0000000140075878     pjlib-x86_64-x64-vc14-debug-dynamic:os_core_win32.obj
 0003:00011890       $SG59957                   0000000140075890     pjlib-x86_64-x64-vc14-debug-dynamic:os_core_win32.obj
 0003:00011910       $SG59959                   0000000140075910     pjlib-x86_64-x64-vc14-debug-dynamic:os_core_win32.obj
 0003:00011a10       $SG59973                   0000000140075a10     pjlib-x86_64-x64-vc14-debug-dynamic:os_core_win32.obj
 0003:00011a90       $SG59975                   0000000140075a90     pjlib-x86_64-x64-vc14-debug-dynamic:os_core_win32.obj
 0003:00011b90       $SG59986                   0000000140075b90     pjlib-x86_64-x64-vc14-debug-dynamic:os_core_win32.obj
 0003:00011c20       $SG59987                   0000000140075c20     pjlib-x86_64-x64-vc14-debug-dynamic:os_core_win32.obj
 0003:00011d20       $SG59988                   0000000140075d20     pjlib-x86_64-x64-vc14-debug-dynamic:os_core_win32.obj
 0003:00011e50       $SG60004                   0000000140075e50     pjlib-x86_64-x64-vc14-debug-dynamic:os_core_win32.obj
 0003:00011ed0       $SG60006                   0000000140075ed0     pjlib-x86_64-x64-vc14-debug-dynamic:os_core_win32.obj
 0003:00011fd0       $SG60024                   0000000140075fd0     pjlib-x86_64-x64-vc14-debug-dynamic:os_core_win32.obj
 0003:00012050       $SG60026                   0000000140076050     pjlib-x86_64-x64-vc14-debug-dynamic:os_core_win32.obj
 0003:00012150       $SG60033                   0000000140076150     pjlib-x86_64-x64-vc14-debug-dynamic:os_core_win32.obj
 0003:000121d0       $SG60048                   00000001400761d0     pjlib-x86_64-x64-vc14-debug-dynamic:os_core_win32.obj
 0003:000122d0       $SG60051                   00000001400762d0     pjlib-x86_64-x64-vc14-debug-dynamic:os_core_win32.obj
 0003:000123d0       $SG60052                   00000001400763d0     pjlib-x86_64-x64-vc14-debug-dynamic:os_core_win32.obj
 0003:00012448       $SG60067                   0000000140076448     pjlib-x86_64-x64-vc14-debug-dynamic:os_core_win32.obj
 0003:00012458       $SG60089                   0000000140076458     pjlib-x86_64-x64-vc14-debug-dynamic:os_core_win32.obj
 0003:00012460       $SG60066                   0000000140076460     pjlib-x86_64-x64-vc14-debug-dynamic:os_core_win32.obj
 0003:00012560       $SG60088                   0000000140076560     pjlib-x86_64-x64-vc14-debug-dynamic:os_core_win32.obj
 0003:00012660       $SG60100                   0000000140076660     pjlib-x86_64-x64-vc14-debug-dynamic:os_core_win32.obj
 0003:000126e0       $SG60101                   00000001400766e0     pjlib-x86_64-x64-vc14-debug-dynamic:os_core_win32.obj
 0003:000127e0       $SG60102                   00000001400767e0     pjlib-x86_64-x64-vc14-debug-dynamic:os_core_win32.obj
 0003:000127f8       $SG60115                   00000001400767f8     pjlib-x86_64-x64-vc14-debug-dynamic:os_core_win32.obj
 0003:00012810       $SG60112                   0000000140076810     pjlib-x86_64-x64-vc14-debug-dynamic:os_core_win32.obj
 0003:00012890       $SG60114                   0000000140076890     pjlib-x86_64-x64-vc14-debug-dynamic:os_core_win32.obj
 0003:00012990       $SG60119                   0000000140076990     pjlib-x86_64-x64-vc14-debug-dynamic:os_core_win32.obj
 0003:00012a10       $SG60128                   0000000140076a10     pjlib-x86_64-x64-vc14-debug-dynamic:os_core_win32.obj
 0003:00012b10       $SG60129                   0000000140076b10     pjlib-x86_64-x64-vc14-debug-dynamic:os_core_win32.obj
 0003:00012b28       $SG60144                   0000000140076b28     pjlib-x86_64-x64-vc14-debug-dynamic:os_core_win32.obj
 0003:00012b40       $SG60134                   0000000140076b40     pjlib-x86_64-x64-vc14-debug-dynamic:os_core_win32.obj
 0003:00012bc0       $SG60143                   0000000140076bc0     pjlib-x86_64-x64-vc14-debug-dynamic:os_core_win32.obj
 0003:00012cc0       $SG60156                   0000000140076cc0     pjlib-x86_64-x64-vc14-debug-dynamic:os_core_win32.obj
 0003:00012dc0       $SG60157                   0000000140076dc0     pjlib-x86_64-x64-vc14-debug-dynamic:os_core_win32.obj
 0003:00012dd8       $SG60205                   0000000140076dd8     pjlib-x86_64-x64-vc14-debug-dynamic:os_core_win32.obj
 0003:00012de0       $SG60177                   0000000140076de0     pjlib-x86_64-x64-vc14-debug-dynamic:os_core_win32.obj
 0003:00012ee0       $SG60178                   0000000140076ee0     pjlib-x86_64-x64-vc14-debug-dynamic:os_core_win32.obj
 0003:00012f10       $SG60184                   0000000140076f10     pjlib-x86_64-x64-vc14-debug-dynamic:os_core_win32.obj
 0003:00012f90       $SG60203                   0000000140076f90     pjlib-x86_64-x64-vc14-debug-dynamic:os_core_win32.obj
 0003:00013010       $SG60228                   0000000140077010     pjlib-x86_64-x64-vc14-debug-dynamic:os_core_win32.obj
 0003:00013110       $SG60229                   0000000140077110     pjlib-x86_64-x64-vc14-debug-dynamic:os_core_win32.obj
 0003:00013134       $SG60480                   0000000140077134     pjlib-x86_64-x64-vc14-debug-dynamic:os_core_win32.obj
 0003:00013140       $SG60261                   0000000140077140     pjlib-x86_64-x64-vc14-debug-dynamic:os_core_win32.obj
 0003:000131c0       $SG60263                   00000001400771c0     pjlib-x86_64-x64-vc14-debug-dynamic:os_core_win32.obj
 0003:000132c0       $SG60264                   00000001400772c0     pjlib-x86_64-x64-vc14-debug-dynamic:os_core_win32.obj
 0003:000132d0       $SG60283                   00000001400772d0     pjlib-x86_64-x64-vc14-debug-dynamic:os_core_win32.obj
 0003:00013350       $SG60285                   0000000140077350     pjlib-x86_64-x64-vc14-debug-dynamic:os_core_win32.obj
 0003:00013450       $SG60286                   0000000140077450     pjlib-x86_64-x64-vc14-debug-dynamic:os_core_win32.obj
 0003:00013460       $SG60287                   0000000140077460     pjlib-x86_64-x64-vc14-debug-dynamic:os_core_win32.obj
 0003:00013560       $SG60288                   0000000140077560     pjlib-x86_64-x64-vc14-debug-dynamic:os_core_win32.obj
 0003:000135a8       $SG60312                   00000001400775a8     pjlib-x86_64-x64-vc14-debug-dynamic:os_core_win32.obj
 0003:000135b4       $SG60611                   00000001400775b4     pjlib-x86_64-x64-vc14-debug-dynamic:os_core_win32.obj
 0003:000135c0       $SG60309                   00000001400775c0     pjlib-x86_64-x64-vc14-debug-dynamic:os_core_win32.obj
 0003:00013640       $SG60311                   0000000140077640     pjlib-x86_64-x64-vc14-debug-dynamic:os_core_win32.obj
 0003:00013740       $SG60329                   0000000140077740     pjlib-x86_64-x64-vc14-debug-dynamic:os_core_win32.obj
 0003:000137c0       $SG60331                   00000001400777c0     pjlib-x86_64-x64-vc14-debug-dynamic:os_core_win32.obj
 0003:000138c0       $SG60332                   00000001400778c0     pjlib-x86_64-x64-vc14-debug-dynamic:os_core_win32.obj
 0003:000138d0       $SG60360                   00000001400778d0     pjlib-x86_64-x64-vc14-debug-dynamic:os_core_win32.obj
 0003:000139c8       $SG60361                   00000001400779c8     pjlib-x86_64-x64-vc14-debug-dynamic:os_core_win32.obj
 0003:000139e8       $SG60419                   00000001400779e8     pjlib-x86_64-x64-vc14-debug-dynamic:os_core_win32.obj
 0003:00013a20       $SG60378                   0000000140077a20     pjlib-x86_64-x64-vc14-debug-dynamic:os_core_win32.obj
 0003:00013b18       $SG60379                   0000000140077b18     pjlib-x86_64-x64-vc14-debug-dynamic:os_core_win32.obj
 0003:00013b28       $SG60381                   0000000140077b28     pjlib-x86_64-x64-vc14-debug-dynamic:os_core_win32.obj
 0003:00013b48       $SG60435                   0000000140077b48     pjlib-x86_64-x64-vc14-debug-dynamic:os_core_win32.obj
 0003:00013b80       $SG60382                   0000000140077b80     pjlib-x86_64-x64-vc14-debug-dynamic:os_core_win32.obj
 0003:00013c78       $SG60415                   0000000140077c78     pjlib-x86_64-x64-vc14-debug-dynamic:os_core_win32.obj
 0003:00013c98       $SG60477                   0000000140077c98     pjlib-x86_64-x64-vc14-debug-dynamic:os_core_win32.obj
 0003:00013cb8       $SG60510                   0000000140077cb8     pjlib-x86_64-x64-vc14-debug-dynamic:os_core_win32.obj
 0003:00013cc0       $SG60383                   0000000140077cc0     pjlib-x86_64-x64-vc14-debug-dynamic:os_core_win32.obj
 0003:00013d10       $SG60384                   0000000140077d10     pjlib-x86_64-x64-vc14-debug-dynamic:os_core_win32.obj
 0003:00013e08       $SG60531                   0000000140077e08     pjlib-x86_64-x64-vc14-debug-dynamic:os_core_win32.obj
 0003:00013e10       $SG60385                   0000000140077e10     pjlib-x86_64-x64-vc14-debug-dynamic:os_core_win32.obj
 0003:00013e58       $SG60543                   0000000140077e58     pjlib-x86_64-x64-vc14-debug-dynamic:os_core_win32.obj
 0003:00013e60       $SG60396                   0000000140077e60     pjlib-x86_64-x64-vc14-debug-dynamic:os_core_win32.obj
 0003:00013f58       $SG60397                   0000000140077f58     pjlib-x86_64-x64-vc14-debug-dynamic:os_core_win32.obj
 0003:00013f68       $SG60559                   0000000140077f68     pjlib-x86_64-x64-vc14-debug-dynamic:os_core_win32.obj
 0003:00013f70       $SG60412                   0000000140077f70     pjlib-x86_64-x64-vc14-debug-dynamic:os_core_win32.obj
 0003:00014068       $SG60413                   0000000140078068     pjlib-x86_64-x64-vc14-debug-dynamic:os_core_win32.obj
 0003:00014078       $SG60577                   0000000140078078     pjlib-x86_64-x64-vc14-debug-dynamic:os_core_win32.obj
 0003:00014080       $SG60416                   0000000140078080     pjlib-x86_64-x64-vc14-debug-dynamic:os_core_win32.obj
 0003:00014178       $SG60607                   0000000140078178     pjlib-x86_64-x64-vc14-debug-dynamic:os_core_win32.obj
 0003:000141a0       $SG60417                   00000001400781a0     pjlib-x86_64-x64-vc14-debug-dynamic:os_core_win32.obj
 0003:000141f0       $SG60418                   00000001400781f0     pjlib-x86_64-x64-vc14-debug-dynamic:os_core_win32.obj
 0003:000142f0       $SG60432                   00000001400782f0     pjlib-x86_64-x64-vc14-debug-dynamic:os_core_win32.obj
 0003:000143e8       $SG60433                   00000001400783e8     pjlib-x86_64-x64-vc14-debug-dynamic:os_core_win32.obj
 0003:00014400       $SG60434                   0000000140078400     pjlib-x86_64-x64-vc14-debug-dynamic:os_core_win32.obj
 0003:00014500       $SG60445                   0000000140078500     pjlib-x86_64-x64-vc14-debug-dynamic:os_core_win32.obj
 0003:000145f8       $SG60446                   00000001400785f8     pjlib-x86_64-x64-vc14-debug-dynamic:os_core_win32.obj
 0003:00014610       $SG60473                   0000000140078610     pjlib-x86_64-x64-vc14-debug-dynamic:os_core_win32.obj
 0003:00014690       $SG60476                   0000000140078690     pjlib-x86_64-x64-vc14-debug-dynamic:os_core_win32.obj
 0003:00014790       $SG60507                   0000000140078790     pjlib-x86_64-x64-vc14-debug-dynamic:os_core_win32.obj
 0003:00014810       $SG60509                   0000000140078810     pjlib-x86_64-x64-vc14-debug-dynamic:os_core_win32.obj
 0003:00014910       $SG60528                   0000000140078910     pjlib-x86_64-x64-vc14-debug-dynamic:os_core_win32.obj
 0003:00014990       $SG60530                   0000000140078990     pjlib-x86_64-x64-vc14-debug-dynamic:os_core_win32.obj
 0003:00014a90       $SG60540                   0000000140078a90     pjlib-x86_64-x64-vc14-debug-dynamic:os_core_win32.obj
 0003:00014b10       $SG60542                   0000000140078b10     pjlib-x86_64-x64-vc14-debug-dynamic:os_core_win32.obj
 0003:00014c10       $SG60556                   0000000140078c10     pjlib-x86_64-x64-vc14-debug-dynamic:os_core_win32.obj
 0003:00014c90       $SG60558                   0000000140078c90     pjlib-x86_64-x64-vc14-debug-dynamic:os_core_win32.obj
 0003:00014d90       $SG60574                   0000000140078d90     pjlib-x86_64-x64-vc14-debug-dynamic:os_core_win32.obj
 0003:00014e10       $SG60576                   0000000140078e10     pjlib-x86_64-x64-vc14-debug-dynamic:os_core_win32.obj
 0003:00014f10       $SG60603                   0000000140078f10     pjlib-x86_64-x64-vc14-debug-dynamic:os_core_win32.obj
 0003:00014f90       $SG60606                   0000000140078f90     pjlib-x86_64-x64-vc14-debug-dynamic:os_core_win32.obj
 0003:00015090       $SG60638                   0000000140079090     pjlib-x86_64-x64-vc14-debug-dynamic:os_core_win32.obj
 0003:00015110       $SG60640                   0000000140079110     pjlib-x86_64-x64-vc14-debug-dynamic:os_core_win32.obj
 0003:00015210       $SG60641                   0000000140079210     pjlib-x86_64-x64-vc14-debug-dynamic:os_core_win32.obj
 0003:00015220       $SG60660                   0000000140079220     pjlib-x86_64-x64-vc14-debug-dynamic:os_core_win32.obj
 0003:00015320       $SG60661                   0000000140079320     pjlib-x86_64-x64-vc14-debug-dynamic:os_core_win32.obj
 0003:00015330       $SG60671                   0000000140079330     pjlib-x86_64-x64-vc14-debug-dynamic:os_core_win32.obj
 0003:00015430       $SG60672                   0000000140079430     pjlib-x86_64-x64-vc14-debug-dynamic:os_core_win32.obj
 0003:00015440       $SG60684                   0000000140079440     pjlib-x86_64-x64-vc14-debug-dynamic:os_core_win32.obj
 0003:000154c0       $SG60686                   00000001400794c0     pjlib-x86_64-x64-vc14-debug-dynamic:os_core_win32.obj
 0003:000155c0       $SG60687                   00000001400795c0     pjlib-x86_64-x64-vc14-debug-dynamic:os_core_win32.obj
 0003:000155d0       $SG60702                   00000001400795d0     pjlib-x86_64-x64-vc14-debug-dynamic:os_core_win32.obj
 0003:00015650       $SG60704                   0000000140079650     pjlib-x86_64-x64-vc14-debug-dynamic:os_core_win32.obj
 0003:00015750       $SG60705                   0000000140079750     pjlib-x86_64-x64-vc14-debug-dynamic:os_core_win32.obj
 0003:00015760       $SG60720                   0000000140079760     pjlib-x86_64-x64-vc14-debug-dynamic:os_core_win32.obj
 0003:000157e0       $SG60722                   00000001400797e0     pjlib-x86_64-x64-vc14-debug-dynamic:os_core_win32.obj
 0003:000158e0       $SG60723                   00000001400798e0     pjlib-x86_64-x64-vc14-debug-dynamic:os_core_win32.obj
 0003:000158f0       $SG60738                   00000001400798f0     pjlib-x86_64-x64-vc14-debug-dynamic:os_core_win32.obj
 0003:00015970       $SG60740                   0000000140079970     pjlib-x86_64-x64-vc14-debug-dynamic:os_core_win32.obj
 0003:00015a70       $SG60741                   0000000140079a70     pjlib-x86_64-x64-vc14-debug-dynamic:os_core_win32.obj
 0003:00015a80       $SG60769                   0000000140079a80     pjlib-x86_64-x64-vc14-debug-dynamic:os_core_win32.obj
 0003:00015b00       $SG60774                   0000000140079b00     pjlib-x86_64-x64-vc14-debug-dynamic:os_core_win32.obj
 0003:00016b30       $SG14684                   000000014007ab30     pjlib-x86_64-x64-vc14-debug-dynamic:pool.obj
 0003:00016bb0       $SG14685                   000000014007abb0     pjlib-x86_64-x64-vc14-debug-dynamic:pool.obj
 0003:00016ca0       $SG14686                   000000014007aca0     pjlib-x86_64-x64-vc14-debug-dynamic:pool.obj
 0003:00016ce0       $SG14717                   000000014007ace0     pjlib-x86_64-x64-vc14-debug-dynamic:pool.obj
 0003:00016d60       $SG14725                   000000014007ad60     pjlib-x86_64-x64-vc14-debug-dynamic:pool.obj
 0003:00016e50       $SG14726                   000000014007ae50     pjlib-x86_64-x64-vc14-debug-dynamic:pool.obj
 0003:00016e80       $SG14738                   000000014007ae80     pjlib-x86_64-x64-vc14-debug-dynamic:pool.obj
 0003:00016f00       $SG14778                   000000014007af00     pjlib-x86_64-x64-vc14-debug-dynamic:pool.obj
 0003:00016f80       $SG14780                   000000014007af80     pjlib-x86_64-x64-vc14-debug-dynamic:pool.obj
 0003:00017070       $SG14781                   000000014007b070     pjlib-x86_64-x64-vc14-debug-dynamic:pool.obj
 0003:000170e0       $SG14796                   000000014007b0e0     pjlib-x86_64-x64-vc14-debug-dynamic:pool.obj
 0003:00017290       pool_sizes                 000000014007b290     pjlib-x86_64-x64-vc14-debug-dynamic:pool_caching.obj
 0003:00017310       $SG14694                   000000014007b310     pjlib-x86_64-x64-vc14-debug-dynamic:pool_caching.obj
 0003:00017390       $SG14696                   000000014007b390     pjlib-x86_64-x64-vc14-debug-dynamic:pool_caching.obj
 0003:000173a0       $SG14697                   000000014007b3a0     pjlib-x86_64-x64-vc14-debug-dynamic:pool_caching.obj
 0003:000173b0       $SG14721                   000000014007b3b0     pjlib-x86_64-x64-vc14-debug-dynamic:pool_caching.obj
 0003:00017430       $SG14723                   000000014007b430     pjlib-x86_64-x64-vc14-debug-dynamic:pool_caching.obj
 0003:00017468       $SG14725                   000000014007b468     pjlib-x86_64-x64-vc14-debug-dynamic:pool_caching.obj
 0003:00017480       $SG14755                   000000014007b480     pjlib-x86_64-x64-vc14-debug-dynamic:pool_caching.obj
 0003:00017500       $SG14789                   000000014007b500     pjlib-x86_64-x64-vc14-debug-dynamic:pool_caching.obj
 0003:00017580       $SG14790                   000000014007b580     pjlib-x86_64-x64-vc14-debug-dynamic:pool_caching.obj
 0003:00017680       $SG14791                   000000014007b680     pjlib-x86_64-x64-vc14-debug-dynamic:pool_caching.obj
 0003:000176a0       $SG14797                   000000014007b6a0     pjlib-x86_64-x64-vc14-debug-dynamic:pool_caching.obj
 0003:000177a0       $SG14798                   000000014007b7a0     pjlib-x86_64-x64-vc14-debug-dynamic:pool_caching.obj
 0003:000177b0       $SG14831                   000000014007b7b0     pjlib-x86_64-x64-vc14-debug-dynamic:pool_caching.obj
 0003:000177c8       $SG14832                   000000014007b7c8     pjlib-x86_64-x64-vc14-debug-dynamic:pool_caching.obj
 0003:000177d8       $SG14834                   000000014007b7d8     pjlib-x86_64-x64-vc14-debug-dynamic:pool_caching.obj
 0003:00017808       $SG14835                   000000014007b808     pjlib-x86_64-x64-vc14-debug-dynamic:pool_caching.obj
 0003:00017818       $SG14838                   000000014007b818     pjlib-x86_64-x64-vc14-debug-dynamic:pool_caching.obj
 0003:00017838       $SG14839                   000000014007b838     pjlib-x86_64-x64-vc14-debug-dynamic:pool_caching.obj
 0003:00017848       $SG14841                   000000014007b848     pjlib-x86_64-x64-vc14-debug-dynamic:pool_caching.obj
 0003:00017868       $SG14842                   000000014007b868     pjlib-x86_64-x64-vc14-debug-dynamic:pool_caching.obj
 0003:00017878       $SG14845                   000000014007b878     pjlib-x86_64-x64-vc14-debug-dynamic:pool_caching.obj
 0003:000178a0       $SG14846                   000000014007b8a0     pjlib-x86_64-x64-vc14-debug-dynamic:pool_caching.obj
 0003:000179f0       $SG13958                   000000014007b9f0     pjlib-x86_64-x64-vc14-debug-dynamic:errno.obj
 0003:00017a10       $SG13959                   000000014007ba10     pjlib-x86_64-x64-vc14-debug-dynamic:errno.obj
 0003:00017a30       $SG13960                   000000014007ba30     pjlib-x86_64-x64-vc14-debug-dynamic:errno.obj
 0003:00017a60       $SG13961                   000000014007ba60     pjlib-x86_64-x64-vc14-debug-dynamic:errno.obj
 0003:00017a88       $SG13962                   000000014007ba88     pjlib-x86_64-x64-vc14-debug-dynamic:errno.obj
 0003:00017aa8       $SG13963                   000000014007baa8     pjlib-x86_64-x64-vc14-debug-dynamic:errno.obj
 0003:00017ac8       $SG13964                   000000014007bac8     pjlib-x86_64-x64-vc14-debug-dynamic:errno.obj
 0003:00017ae8       $SG13965                   000000014007bae8     pjlib-x86_64-x64-vc14-debug-dynamic:errno.obj
 0003:00017b00       $SG13966                   000000014007bb00     pjlib-x86_64-x64-vc14-debug-dynamic:errno.obj
 0003:00017b28       $SG13967                   000000014007bb28     pjlib-x86_64-x64-vc14-debug-dynamic:errno.obj
 0003:00017b60       $SG13968                   000000014007bb60     pjlib-x86_64-x64-vc14-debug-dynamic:errno.obj
 0003:00017b80       $SG13969                   000000014007bb80     pjlib-x86_64-x64-vc14-debug-dynamic:errno.obj
 0003:00017bb0       $SG13970                   000000014007bbb0     pjlib-x86_64-x64-vc14-debug-dynamic:errno.obj
 0003:00017bd8       $SG13971                   000000014007bbd8     pjlib-x86_64-x64-vc14-debug-dynamic:errno.obj
 0003:00017c00       $SG13972                   000000014007bc00     pjlib-x86_64-x64-vc14-debug-dynamic:errno.obj
 0003:00017c28       $SG13973                   000000014007bc28     pjlib-x86_64-x64-vc14-debug-dynamic:errno.obj
 0003:00017c40       $SG13974                   000000014007bc40     pjlib-x86_64-x64-vc14-debug-dynamic:errno.obj
 0003:00017c60       $SG13975                   000000014007bc60     pjlib-x86_64-x64-vc14-debug-dynamic:errno.obj
 0003:00017c98       $SG13976                   000000014007bc98     pjlib-x86_64-x64-vc14-debug-dynamic:errno.obj
 0003:00017cc0       $SG13977                   000000014007bcc0     pjlib-x86_64-x64-vc14-debug-dynamic:errno.obj
 0003:00017cd8       $SG13978                   000000014007bcd8     pjlib-x86_64-x64-vc14-debug-dynamic:errno.obj
 0003:00017d00       $SG13979                   000000014007bd00     pjlib-x86_64-x64-vc14-debug-dynamic:errno.obj
 0003:00017d30       $SG13980                   000000014007bd30     pjlib-x86_64-x64-vc14-debug-dynamic:errno.obj
 0003:00017d58       $SG13981                   000000014007bd58     pjlib-x86_64-x64-vc14-debug-dynamic:errno.obj
 0003:00017d80       $SG14001                   000000014007bd80     pjlib-x86_64-x64-vc14-debug-dynamic:errno.obj
 0003:00017da0       $SG14033                   000000014007bda0     pjlib-x86_64-x64-vc14-debug-dynamic:errno.obj
 0003:00017e90       $SG14034                   000000014007be90     pjlib-x86_64-x64-vc14-debug-dynamic:errno.obj
 0003:00017eb8       $SG14068                   000000014007beb8     pjlib-x86_64-x64-vc14-debug-dynamic:errno.obj
 0003:00017ec0       $SG14036                   000000014007bec0     pjlib-x86_64-x64-vc14-debug-dynamic:errno.obj
 0003:00017fb0       $SG14037                   000000014007bfb0     pjlib-x86_64-x64-vc14-debug-dynamic:errno.obj
 0003:00018030       $SG14039                   000000014007c030     pjlib-x86_64-x64-vc14-debug-dynamic:errno.obj
 0003:00018120       $SG14040                   000000014007c120     pjlib-x86_64-x64-vc14-debug-dynamic:errno.obj
 0003:00018180       $SG14064                   000000014007c180     pjlib-x86_64-x64-vc14-debug-dynamic:errno.obj
 0003:00018270       $SG14065                   000000014007c270     pjlib-x86_64-x64-vc14-debug-dynamic:errno.obj
 0003:00018290       $SG14071                   000000014007c290     pjlib-x86_64-x64-vc14-debug-dynamic:errno.obj
 0003:000182a4       $SG14111                   000000014007c2a4     pjlib-x86_64-x64-vc14-debug-dynamic:errno.obj
 0003:000182b0       $SG14077                   000000014007c2b0     pjlib-x86_64-x64-vc14-debug-dynamic:errno.obj
 0003:000182c4       $SG14112                   000000014007c2c4     pjlib-x86_64-x64-vc14-debug-dynamic:errno.obj
 0003:00018490       $SG14389                   000000014007c490     pjlib-x86_64-x64-vc14-debug-dynamic:log.obj
 0003:00018498       $SG14390                   000000014007c498     pjlib-x86_64-x64-vc14-debug-dynamic:log.obj
 0003:000184a0       $SG14391                   000000014007c4a0     pjlib-x86_64-x64-vc14-debug-dynamic:log.obj
 0003:000184a8       $SG14392                   000000014007c4a8     pjlib-x86_64-x64-vc14-debug-dynamic:log.obj
 0003:000184b0       $SG14393                   000000014007c4b0     pjlib-x86_64-x64-vc14-debug-dynamic:log.obj
 0003:000184b8       $SG14394                   000000014007c4b8     pjlib-x86_64-x64-vc14-debug-dynamic:log.obj
 0003:000184c0       $SG14395                   000000014007c4c0     pjlib-x86_64-x64-vc14-debug-dynamic:log.obj
 0003:000184c8       $SG14397                   000000014007c4c8     pjlib-x86_64-x64-vc14-debug-dynamic:log.obj
 0003:000184cc       $SG14398                   000000014007c4cc     pjlib-x86_64-x64-vc14-debug-dynamic:log.obj
 0003:000184d0       $SG14399                   000000014007c4d0     pjlib-x86_64-x64-vc14-debug-dynamic:log.obj
 0003:000184d4       $SG14400                   000000014007c4d4     pjlib-x86_64-x64-vc14-debug-dynamic:log.obj
 0003:000184d8       $SG14401                   000000014007c4d8     pjlib-x86_64-x64-vc14-debug-dynamic:log.obj
 0003:000184dc       $SG14402                   000000014007c4dc     pjlib-x86_64-x64-vc14-debug-dynamic:log.obj
 0003:000184e0       $SG14403                   000000014007c4e0     pjlib-x86_64-x64-vc14-debug-dynamic:log.obj
 0003:000184e4       pj_log_max_level           000000014007c4e4     pjlib-x86_64-x64-vc14-debug-dynamic:log.obj
 0003:000184e8       thread_suspended_tls_id    000000014007c4e8     pjlib-x86_64-x64-vc14-debug-dynamic:log.obj
 0003:000184ec       thread_indent_tls_id       000000014007c4ec     pjlib-x86_64-x64-vc14-debug-dynamic:log.obj
 0003:000184f0       log_writer                 000000014007c4f0     pjlib-x86_64-x64-vc14-debug-dynamic:log.obj
 0003:000184f8       log_decor                  000000014007c4f8     pjlib-x86_64-x64-vc14-debug-dynamic:log.obj
 0003:000184fc       PJ_LOG_COLOR_0             000000014007c4fc     pjlib-x86_64-x64-vc14-debug-dynamic:log.obj
 0003:00018500       PJ_LOG_COLOR_1             000000014007c500     pjlib-x86_64-x64-vc14-debug-dynamic:log.obj
 0003:00018504       PJ_LOG_COLOR_2             000000014007c504     pjlib-x86_64-x64-vc14-debug-dynamic:log.obj
 0003:00018508       PJ_LOG_COLOR_3             000000014007c508     pjlib-x86_64-x64-vc14-debug-dynamic:log.obj
 0003:0001850c       PJ_LOG_COLOR_4             000000014007c50c     pjlib-x86_64-x64-vc14-debug-dynamic:log.obj
 0003:00018510       PJ_LOG_COLOR_5             000000014007c510     pjlib-x86_64-x64-vc14-debug-dynamic:log.obj
 0003:00018514       PJ_LOG_COLOR_6             000000014007c514     pjlib-x86_64-x64-vc14-debug-dynamic:log.obj
 0003:00018518       PJ_LOG_COLOR_77            000000014007c518     pjlib-x86_64-x64-vc14-debug-dynamic:log.obj
 0003:00018520       ?ltexts@?2??pj_log@@9@9    000000014007c520     pjlib-x86_64-x64-vc14-debug-dynamic:log.obj
 0003:00018558       ?wdays@?3??pj_log@@9@9     000000014007c558     pjlib-x86_64-x64-vc14-debug-dynamic:log.obj
 0003:00018590       $SG14385                   000000014007c590     pjlib-x86_64-x64-vc14-debug-dynamic:log.obj
 0003:00018608       $SG14427                   000000014007c608     pjlib-x86_64-x64-vc14-debug-dynamic:log.obj
 0003:000186a0       $SG14661                   000000014007c6a0     pjlib-x86_64-x64-vc14-debug-dynamic:pool_policy_malloc.obj
 0003:00018730       $SG14675                   000000014007c730     pjlib-x86_64-x64-vc14-debug-dynamic:pool_policy_malloc.obj
 0003:000187c0       $SG14685                   000000014007c7c0     pjlib-x86_64-x64-vc14-debug-dynamic:pool_policy_malloc.obj
 0003:000188a0       $SG14474                   000000014007c8a0     pjlib-x86_64-x64-vc14-debug-dynamic:string.obj
 0003:000188b8       $SG14475                   000000014007c8b8     pjlib-x86_64-x64-vc14-debug-dynamic:string.obj
 0003:000188d0       $SG15132                   000000014007c8d0     pjlib-x86_64-x64-vc14-debug-dynamic:string.obj
 0003:000189d0       $SG15133                   000000014007c9d0     pjlib-x86_64-x64-vc14-debug-dynamic:string.obj
 0003:000189f0       $SG15145                   000000014007c9f0     pjlib-x86_64-x64-vc14-debug-dynamic:string.obj
 0003:00018af0       $SG15146                   000000014007caf0     pjlib-x86_64-x64-vc14-debug-dynamic:string.obj
 0003:00018b00       $SG15407                   000000014007cb00     pjlib-x86_64-x64-vc14-debug-dynamic:string.obj
 0003:00018b78       $SG15408                   000000014007cb78     pjlib-x86_64-x64-vc14-debug-dynamic:string.obj
 0003:00018b90       $SG15414                   000000014007cb90     pjlib-x86_64-x64-vc14-debug-dynamic:string.obj
 0003:00018c10       $SG15428                   000000014007cc10     pjlib-x86_64-x64-vc14-debug-dynamic:string.obj
 0003:00018c90       $SG15448                   000000014007cc90     pjlib-x86_64-x64-vc14-debug-dynamic:string.obj
 0003:00018d10       $SG15470                   000000014007cd10     pjlib-x86_64-x64-vc14-debug-dynamic:string.obj
 0003:00018d88       $SG15477                   000000014007cd88     pjlib-x86_64-x64-vc14-debug-dynamic:string.obj
 0003:00018da0       $SG15478                   000000014007cda0     pjlib-x86_64-x64-vc14-debug-dynamic:string.obj
 0003:00018e90       $SG15479                   000000014007ce90     pjlib-x86_64-x64-vc14-debug-dynamic:string.obj
 0003:00018ec0       $SG15504                   000000014007cec0     pjlib-x86_64-x64-vc14-debug-dynamic:string.obj
 0003:00018f38       $SG15521                   000000014007cf38     pjlib-x86_64-x64-vc14-debug-dynamic:string.obj
 0003:00018f50       $SG15522                   000000014007cf50     pjlib-x86_64-x64-vc14-debug-dynamic:string.obj
 0003:00019040       $SG15523                   000000014007d040     pjlib-x86_64-x64-vc14-debug-dynamic:string.obj
 0003:00019070       $SG15577                   000000014007d070     pjlib-x86_64-x64-vc14-debug-dynamic:string.obj
 0003:00019290       $SG57815                   000000014007d290     pjlib-x86_64-x64-vc14-debug-dynamic:file_access_win32.obj
 0003:00019398       $SG57816                   000000014007d398     pjlib-x86_64-x64-vc14-debug-dynamic:file_access_win32.obj
 0003:000193d0       $SG57836                   000000014007d3d0     pjlib-x86_64-x64-vc14-debug-dynamic:file_access_win32.obj
 0003:000194d8       $SG57837                   000000014007d4d8     pjlib-x86_64-x64-vc14-debug-dynamic:file_access_win32.obj
 0003:00019510       $SG57851                   000000014007d510     pjlib-x86_64-x64-vc14-debug-dynamic:file_access_win32.obj
 0003:00019618       $SG57852                   000000014007d618     pjlib-x86_64-x64-vc14-debug-dynamic:file_access_win32.obj
 0003:00019650       $SG57873                   000000014007d650     pjlib-x86_64-x64-vc14-debug-dynamic:file_access_win32.obj
 0003:00019760       $SG57874                   000000014007d760     pjlib-x86_64-x64-vc14-debug-dynamic:file_access_win32.obj
 0003:000197c0       $SG57913                   000000014007d7c0     pjlib-x86_64-x64-vc14-debug-dynamic:file_access_win32.obj
 0003:000198d0       $SG57914                   000000014007d8d0     pjlib-x86_64-x64-vc14-debug-dynamic:file_access_win32.obj
 0003:00019a80       $SG57087                   000000014007da80     pjlib-x86_64-x64-vc14-debug-dynamic:file_io_win32.obj
 0003:00019b80       $SG57088                   000000014007db80     pjlib-x86_64-x64-vc14-debug-dynamic:file_io_win32.obj
 0003:00019bb0       $SG57095                   000000014007dbb0     pjlib-x86_64-x64-vc14-debug-dynamic:file_io_win32.obj
 0003:00019bd0       $SG57096                   000000014007dbd0     pjlib-x86_64-x64-vc14-debug-dynamic:file_io_win32.obj
 0003:00019cd0       $SG57097                   000000014007dcd0     pjlib-x86_64-x64-vc14-debug-dynamic:file_io_win32.obj
 0003:00019d08       $SG57146                   000000014007dd08     pjlib-x86_64-x64-vc14-debug-dynamic:file_io_win32.obj
 0003:00019d30       $SG57147                   000000014007dd30     pjlib-x86_64-x64-vc14-debug-dynamic:file_io_win32.obj
 0003:00019e30       $SG57148                   000000014007de30     pjlib-x86_64-x64-vc14-debug-dynamic:file_io_win32.obj
 0003:00019f40       $SG60332                   000000014007df40     pjlib-x86_64-x64-vc14-debug-dynamic:sock_common.obj
 0003:00019f44       $SG60333                   000000014007df44     pjlib-x86_64-x64-vc14-debug-dynamic:sock_common.obj
 0003:00019f48       $SG60336                   000000014007df48     pjlib-x86_64-x64-vc14-debug-dynamic:sock_common.obj
 0003:00019f4c       $SG60978                   000000014007df4c     pjlib-x86_64-x64-vc14-debug-dynamic:sock_common.obj
 0003:00019f50       $SG60337                   000000014007df50     pjlib-x86_64-x64-vc14-debug-dynamic:sock_common.obj
 0003:00019f60       $SG60353                   000000014007df60     pjlib-x86_64-x64-vc14-debug-dynamic:sock_common.obj
 0003:00019fe0       $SG60355                   000000014007dfe0     pjlib-x86_64-x64-vc14-debug-dynamic:sock_common.obj
 0003:0001a0d8       $SG60559                   000000014007e0d8     pjlib-x86_64-x64-vc14-debug-dynamic:sock_common.obj
 0003:0001a0f0       $SG60356                   000000014007e0f0     pjlib-x86_64-x64-vc14-debug-dynamic:sock_common.obj
 0003:0001a138       $SG60871                   000000014007e138     pjlib-x86_64-x64-vc14-debug-dynamic:sock_common.obj
 0003:0001a140       $SG60379                   000000014007e140     pjlib-x86_64-x64-vc14-debug-dynamic:sock_common.obj
 0003:0001a238       $SG60380                   000000014007e238     pjlib-x86_64-x64-vc14-debug-dynamic:sock_common.obj
 0003:0001a258       $SG60872                   000000014007e258     pjlib-x86_64-x64-vc14-debug-dynamic:sock_common.obj
 0003:0001a260       $SG60399                   000000014007e260     pjlib-x86_64-x64-vc14-debug-dynamic:sock_common.obj
 0003:0001a358       $SG60400                   000000014007e358     pjlib-x86_64-x64-vc14-debug-dynamic:sock_common.obj
 0003:0001a368       $SG60420                   000000014007e368     pjlib-x86_64-x64-vc14-debug-dynamic:sock_common.obj
 0003:0001a388       $SG60888                   000000014007e388     pjlib-x86_64-x64-vc14-debug-dynamic:sock_common.obj
 0003:0001a390       $SG60419                   000000014007e390     pjlib-x86_64-x64-vc14-debug-dynamic:sock_common.obj
 0003:0001a488       $SG60889                   000000014007e488     pjlib-x86_64-x64-vc14-debug-dynamic:sock_common.obj
 0003:0001a490       $SG60462                   000000014007e490     pjlib-x86_64-x64-vc14-debug-dynamic:sock_common.obj
 0003:0001a588       $SG60979                   000000014007e588     pjlib-x86_64-x64-vc14-debug-dynamic:sock_common.obj
 0003:0001a590       $SG60463                   000000014007e590     pjlib-x86_64-x64-vc14-debug-dynamic:sock_common.obj
 0003:0001a620       $SG60491                   000000014007e620     pjlib-x86_64-x64-vc14-debug-dynamic:sock_common.obj
 0003:0001a720       $SG60492                   000000014007e720     pjlib-x86_64-x64-vc14-debug-dynamic:sock_common.obj
 0003:0001a7b0       $SG60506                   000000014007e7b0     pjlib-x86_64-x64-vc14-debug-dynamic:sock_common.obj
 0003:0001a8b0       $SG60507                   000000014007e8b0     pjlib-x86_64-x64-vc14-debug-dynamic:sock_common.obj
 0003:0001a940       $SG60521                   000000014007e940     pjlib-x86_64-x64-vc14-debug-dynamic:sock_common.obj
 0003:0001aa40       $SG60522                   000000014007ea40     pjlib-x86_64-x64-vc14-debug-dynamic:sock_common.obj
 0003:0001aad0       $SG60558                   000000014007ead0     pjlib-x86_64-x64-vc14-debug-dynamic:sock_common.obj
 0003:0001abd0       $SG60579                   000000014007ebd0     pjlib-x86_64-x64-vc14-debug-dynamic:sock_common.obj
 0003:0001acd0       $SG60580                   000000014007ecd0     pjlib-x86_64-x64-vc14-debug-dynamic:sock_common.obj
 0003:0001ad20       $SG60648                   000000014007ed20     pjlib-x86_64-x64-vc14-debug-dynamic:sock_common.obj
 0003:0001ae20       $SG60649                   000000014007ee20     pjlib-x86_64-x64-vc14-debug-dynamic:sock_common.obj
 0003:0001aee0       $SG60712                   000000014007eee0     pjlib-x86_64-x64-vc14-debug-dynamic:sock_common.obj
 0003:0001afd8       $SG60713                   000000014007efd8     pjlib-x86_64-x64-vc14-debug-dynamic:sock_common.obj
 0003:0001aff0       $SG60715                   000000014007eff0     pjlib-x86_64-x64-vc14-debug-dynamic:sock_common.obj
 0003:0001b0f0       $SG60716                   000000014007f0f0     pjlib-x86_64-x64-vc14-debug-dynamic:sock_common.obj
 0003:0001b160       $SG60718                   000000014007f160     pjlib-x86_64-x64-vc14-debug-dynamic:sock_common.obj
 0003:0001b258       $SG60719                   000000014007f258     pjlib-x86_64-x64-vc14-debug-dynamic:sock_common.obj
 0003:0001b280       $SG60821                   000000014007f280     pjlib-x86_64-x64-vc14-debug-dynamic:sock_common.obj
 0003:0001b380       $SG60822                   000000014007f380     pjlib-x86_64-x64-vc14-debug-dynamic:sock_common.obj
 0003:0001b3e0       $SG60913                   000000014007f3e0     pjlib-x86_64-x64-vc14-debug-dynamic:sock_common.obj
 0003:0001b460       $SG60915                   000000014007f460     pjlib-x86_64-x64-vc14-debug-dynamic:sock_common.obj
 0003:0001b558       $SG60916                   000000014007f558     pjlib-x86_64-x64-vc14-debug-dynamic:sock_common.obj
 0003:0001b570       $SG60945                   000000014007f570     pjlib-x86_64-x64-vc14-debug-dynamic:sock_common.obj
 0003:0001b5f0       $SG60948                   000000014007f5f0     pjlib-x86_64-x64-vc14-debug-dynamic:sock_common.obj
 0003:0001b6f0       $SG60949                   000000014007f6f0     pjlib-x86_64-x64-vc14-debug-dynamic:sock_common.obj
 0003:0001b7b8       $SG60984                   000000014007f7b8     pjlib-x86_64-x64-vc14-debug-dynamic:sock_common.obj
 0003:0001b7c8       $SG60985                   000000014007f7c8     pjlib-x86_64-x64-vc14-debug-dynamic:sock_common.obj
 0003:0001bcc0       $SG13893                   000000014007fcc0     pjlib-x86_64-x64-vc14-debug-dynamic:array.obj
 0003:0001bdb0       $SG13894                   000000014007fdb0     pjlib-x86_64-x64-vc14-debug-dynamic:array.obj
 0003:0001be00       mutex_lock_template        000000014007fe00     pjlib-x86_64-x64-vc14-debug-dynamic:lock.obj
 0003:0001be28       null_lock_template         000000014007fe28     pjlib-x86_64-x64-vc14-debug-dynamic:lock.obj
 0003:0001be50       $SG14806                   000000014007fe50     pjlib-x86_64-x64-vc14-debug-dynamic:lock.obj
 0003:0001bf40       $SG14807                   000000014007ff40     pjlib-x86_64-x64-vc14-debug-dynamic:lock.obj
 0003:0001bf60       $SG14846                   000000014007ff60     pjlib-x86_64-x64-vc14-debug-dynamic:lock.obj
 0003:0001c050       $SG14847                   0000000140080050     pjlib-x86_64-x64-vc14-debug-dynamic:lock.obj
 0003:0001c060       sem_lock_template          0000000140080060     pjlib-x86_64-x64-vc14-debug-dynamic:lock.obj
 0003:0001c088       $SG14894                   0000000140080088     pjlib-x86_64-x64-vc14-debug-dynamic:lock.obj
 0003:0001c0b0       $SG14878                   00000001400800b0     pjlib-x86_64-x64-vc14-debug-dynamic:lock.obj
 0003:0001c1a0       $SG14879                   00000001400801a0     pjlib-x86_64-x64-vc14-debug-dynamic:lock.obj
 0003:0001c1c0       $SG14893                   00000001400801c0     pjlib-x86_64-x64-vc14-debug-dynamic:lock.obj
 0003:0001c2b0       $SG14906                   00000001400802b0     pjlib-x86_64-x64-vc14-debug-dynamic:lock.obj
 0003:0001c3a0       $SG14907                   00000001400803a0     pjlib-x86_64-x64-vc14-debug-dynamic:lock.obj
 0003:0001c3c8       $SG14920                   00000001400803c8     pjlib-x86_64-x64-vc14-debug-dynamic:lock.obj
 0003:0001c3f0       $SG14919                   00000001400803f0     pjlib-x86_64-x64-vc14-debug-dynamic:lock.obj
 0003:0001c4e0       $SG14932                   00000001400804e0     pjlib-x86_64-x64-vc14-debug-dynamic:lock.obj
 0003:0001c5d0       $SG14933                   00000001400805d0     pjlib-x86_64-x64-vc14-debug-dynamic:lock.obj
 0003:0001c5f8       $SG15088                   00000001400805f8     pjlib-x86_64-x64-vc14-debug-dynamic:lock.obj
 0003:0001c620       $SG14966                   0000000140080620     pjlib-x86_64-x64-vc14-debug-dynamic:lock.obj
 0003:0001c710       $SG14967                   0000000140080710     pjlib-x86_64-x64-vc14-debug-dynamic:lock.obj
 0003:0001c754       $SG15089                   0000000140080754     pjlib-x86_64-x64-vc14-debug-dynamic:lock.obj
 0003:0001c760       $SG14977                   0000000140080760     pjlib-x86_64-x64-vc14-debug-dynamic:lock.obj
 0003:0001c850       $SG14978                   0000000140080850     pjlib-x86_64-x64-vc14-debug-dynamic:lock.obj
 0003:0001c898       $SG15169                   0000000140080898     pjlib-x86_64-x64-vc14-debug-dynamic:lock.obj
 0003:0001c8a8       $SG15219                   00000001400808a8     pjlib-x86_64-x64-vc14-debug-dynamic:lock.obj
 0003:0001c8b0       $SG14979                   00000001400808b0     pjlib-x86_64-x64-vc14-debug-dynamic:lock.obj
 0003:0001c9a0       $SG14980                   00000001400809a0     pjlib-x86_64-x64-vc14-debug-dynamic:lock.obj
 0003:0001c9d0       $SG14993                   00000001400809d0     pjlib-x86_64-x64-vc14-debug-dynamic:lock.obj
 0003:0001cac0       $SG14994                   0000000140080ac0     pjlib-x86_64-x64-vc14-debug-dynamic:lock.obj
 0003:0001cb10       $SG15009                   0000000140080b10     pjlib-x86_64-x64-vc14-debug-dynamic:lock.obj
 0003:0001cc00       $SG15010                   0000000140080c00     pjlib-x86_64-x64-vc14-debug-dynamic:lock.obj
 0003:0001cc50       $SG15087                   0000000140080c50     pjlib-x86_64-x64-vc14-debug-dynamic:lock.obj
 0003:0001cd40       $SG15168                   0000000140080d40     pjlib-x86_64-x64-vc14-debug-dynamic:lock.obj
 0003:0001ce30       $SG15218                   0000000140080e30     pjlib-x86_64-x64-vc14-debug-dynamic:lock.obj
 0003:0001d190       $SG9824                    0000000140081190     pjlib-x86_64-x64-vc14-debug-dynamic:rand.obj
 0003:0001d210       $SG9827                    0000000140081210     pjlib-x86_64-x64-vc14-debug-dynamic:rand.obj
 0003:0001d2c0       thread_local_id            00000001400812c0     pjlib-x86_64-x64-vc14-debug-dynamic:except.obj
 0003:0001d2c8       $SG14453                   00000001400812c8     pjlib-x86_64-x64-vc14-debug-dynamic:except.obj
 0003:0001d2f0       $SG14454                   00000001400812f0     pjlib-x86_64-x64-vc14-debug-dynamic:except.obj
 0003:0001d300       $SG14455                   0000000140081300     pjlib-x86_64-x64-vc14-debug-dynamic:except.obj
 0003:0001d3f0       $SG14456                   00000001400813f0     pjlib-x86_64-x64-vc14-debug-dynamic:except.obj
 0003:0001d420       $SG14475                   0000000140081420     pjlib-x86_64-x64-vc14-debug-dynamic:except.obj
 0003:0001d510       $SG14476                   0000000140081510     pjlib-x86_64-x64-vc14-debug-dynamic:except.obj
 0003:0001d540       $SG14505                   0000000140081540     pjlib-x86_64-x64-vc14-debug-dynamic:except.obj
 0003:0001d630       $SG14506                   0000000140081630     pjlib-x86_64-x64-vc14-debug-dynamic:except.obj
 0003:0001d650       $SG14520                   0000000140081650     pjlib-x86_64-x64-vc14-debug-dynamic:except.obj
 0003:0001d740       $SG14521                   0000000140081740     pjlib-x86_64-x64-vc14-debug-dynamic:except.obj
 0003:0001d760       $SG14522                   0000000140081760     pjlib-x86_64-x64-vc14-debug-dynamic:except.obj
 0003:0001d770       $SG14524                   0000000140081770     pjlib-x86_64-x64-vc14-debug-dynamic:except.obj
 0003:0001d870       $SG60234                   0000000140081870     pjlib-x86_64-x64-vc14-debug-dynamic:sock_bsd.obj
 0003:0001d968       $SG60235                   0000000140081968     pjlib-x86_64-x64-vc14-debug-dynamic:sock_bsd.obj
 0003:0001d998       $SG60274                   0000000140081998     pjlib-x86_64-x64-vc14-debug-dynamic:sock_bsd.obj
 0003:0001d9c8       $SG60283                   00000001400819c8     pjlib-x86_64-x64-vc14-debug-dynamic:sock_bsd.obj
 0003:0001d9e0       $SG60269                   00000001400819e0     pjlib-x86_64-x64-vc14-debug-dynamic:sock_bsd.obj
 0003:0001dad8       $SG60285                   0000000140081ad8     pjlib-x86_64-x64-vc14-debug-dynamic:sock_bsd.obj
 0003:0001db00       $SG60270                   0000000140081b00     pjlib-x86_64-x64-vc14-debug-dynamic:sock_bsd.obj
 0003:0001db48       $SG60320                   0000000140081b48     pjlib-x86_64-x64-vc14-debug-dynamic:sock_bsd.obj
 0003:0001db70       $SG60273                   0000000140081b70     pjlib-x86_64-x64-vc14-debug-dynamic:sock_bsd.obj
 0003:0001dc68       $SG60330                   0000000140081c68     pjlib-x86_64-x64-vc14-debug-dynamic:sock_bsd.obj
 0003:0001dc88       $SG60332                   0000000140081c88     pjlib-x86_64-x64-vc14-debug-dynamic:sock_bsd.obj
 0003:0001dcc8       $SG60382                   0000000140081cc8     pjlib-x86_64-x64-vc14-debug-dynamic:sock_bsd.obj
 0003:0001dcf0       $SG60284                   0000000140081cf0     pjlib-x86_64-x64-vc14-debug-dynamic:sock_bsd.obj
 0003:0001dde8       $SG60471                   0000000140081de8     pjlib-x86_64-x64-vc14-debug-dynamic:sock_bsd.obj
 0003:0001ddf0       $SG60319                   0000000140081df0     pjlib-x86_64-x64-vc14-debug-dynamic:sock_bsd.obj
 0003:0001dee8       $SG60498                   0000000140081ee8     pjlib-x86_64-x64-vc14-debug-dynamic:sock_bsd.obj
 0003:0001def0       $SG60322                   0000000140081ef0     pjlib-x86_64-x64-vc14-debug-dynamic:sock_bsd.obj
 0003:0001dfe8       $SG60521                   0000000140081fe8     pjlib-x86_64-x64-vc14-debug-dynamic:sock_bsd.obj
 0003:0001e000       $SG60323                   0000000140082000     pjlib-x86_64-x64-vc14-debug-dynamic:sock_bsd.obj
 0003:0001e048       $SG60550                   0000000140082048     pjlib-x86_64-x64-vc14-debug-dynamic:sock_bsd.obj
 0003:0001e060       $SG60331                   0000000140082060     pjlib-x86_64-x64-vc14-debug-dynamic:sock_bsd.obj
 0003:0001e158       $SG60576                   0000000140082158     pjlib-x86_64-x64-vc14-debug-dynamic:sock_bsd.obj
 0003:0001e180       $SG60342                   0000000140082180     pjlib-x86_64-x64-vc14-debug-dynamic:sock_bsd.obj
 0003:0001e200       $SG60379                   0000000140082200     pjlib-x86_64-x64-vc14-debug-dynamic:sock_bsd.obj
 0003:0001e280       $SG60381                   0000000140082280     pjlib-x86_64-x64-vc14-debug-dynamic:sock_bsd.obj
 0003:0001e378       $SG60620                   0000000140082378     pjlib-x86_64-x64-vc14-debug-dynamic:sock_bsd.obj
 0003:0001e388       $SG60622                   0000000140082388     pjlib-x86_64-x64-vc14-debug-dynamic:sock_bsd.obj
 0003:0001e3b0       $SG60404                   00000001400823b0     pjlib-x86_64-x64-vc14-debug-dynamic:sock_bsd.obj
 0003:0001e430       $SG60407                   0000000140082430     pjlib-x86_64-x64-vc14-debug-dynamic:sock_bsd.obj
 0003:0001e528       $SG60623                   0000000140082528     pjlib-x86_64-x64-vc14-debug-dynamic:sock_bsd.obj
 0003:0001e538       $SG60672                   0000000140082538     pjlib-x86_64-x64-vc14-debug-dynamic:sock_bsd.obj
 0003:0001e570       $SG60408                   0000000140082570     pjlib-x86_64-x64-vc14-debug-dynamic:sock_bsd.obj
 0003:0001e5d0       $SG60420                   00000001400825d0     pjlib-x86_64-x64-vc14-debug-dynamic:sock_bsd.obj
 0003:0001e650       $SG60425                   0000000140082650     pjlib-x86_64-x64-vc14-debug-dynamic:sock_bsd.obj
 0003:0001e6d0       $SG60437                   00000001400826d0     pjlib-x86_64-x64-vc14-debug-dynamic:sock_bsd.obj
 0003:0001e750       $SG60449                   0000000140082750     pjlib-x86_64-x64-vc14-debug-dynamic:sock_bsd.obj
 0003:0001e7d0       $SG60468                   00000001400827d0     pjlib-x86_64-x64-vc14-debug-dynamic:sock_bsd.obj
 0003:0001e850       $SG60470                   0000000140082850     pjlib-x86_64-x64-vc14-debug-dynamic:sock_bsd.obj
 0003:0001e950       $SG60495                   0000000140082950     pjlib-x86_64-x64-vc14-debug-dynamic:sock_bsd.obj
 0003:0001e9d0       $SG60497                   00000001400829d0     pjlib-x86_64-x64-vc14-debug-dynamic:sock_bsd.obj
 0003:0001ead0       $SG60517                   0000000140082ad0     pjlib-x86_64-x64-vc14-debug-dynamic:sock_bsd.obj
 0003:0001eb50       $SG60520                   0000000140082b50     pjlib-x86_64-x64-vc14-debug-dynamic:sock_bsd.obj
 0003:0001ec50       $SG60546                   0000000140082c50     pjlib-x86_64-x64-vc14-debug-dynamic:sock_bsd.obj
 0003:0001ecd0       $SG60549                   0000000140082cd0     pjlib-x86_64-x64-vc14-debug-dynamic:sock_bsd.obj
 0003:0001edd0       $SG60572                   0000000140082dd0     pjlib-x86_64-x64-vc14-debug-dynamic:sock_bsd.obj
 0003:0001ee50       $SG60575                   0000000140082e50     pjlib-x86_64-x64-vc14-debug-dynamic:sock_bsd.obj
 0003:0001ef50       $SG60593                   0000000140082f50     pjlib-x86_64-x64-vc14-debug-dynamic:sock_bsd.obj
 0003:0001efd0       $SG60617                   0000000140082fd0     pjlib-x86_64-x64-vc14-debug-dynamic:sock_bsd.obj
 0003:0001f050       $SG60619                   0000000140083050     pjlib-x86_64-x64-vc14-debug-dynamic:sock_bsd.obj
 0003:0001f150       $SG60632                   0000000140083150     pjlib-x86_64-x64-vc14-debug-dynamic:sock_bsd.obj
 0003:0001f1d0       $SG60640                   00000001400831d0     pjlib-x86_64-x64-vc14-debug-dynamic:sock_bsd.obj
 0003:0001f250       $SG60648                   0000000140083250     pjlib-x86_64-x64-vc14-debug-dynamic:sock_bsd.obj
 0003:0001f2d0       $SG60669                   00000001400832d0     pjlib-x86_64-x64-vc14-debug-dynamic:sock_bsd.obj
 0003:0001f350       $SG60671                   0000000140083350     pjlib-x86_64-x64-vc14-debug-dynamic:sock_bsd.obj
 0003:0001f9e0       $SG61111                   00000001400839e0     pjlib-x86_64-x64-vc14-debug-dynamic:ioqueue_select.obj
 0003:0001fae8       $SG61112                   0000000140083ae8     pjlib-x86_64-x64-vc14-debug-dynamic:ioqueue_select.obj
 0003:0001fb08       $SG61137                   0000000140083b08     pjlib-x86_64-x64-vc14-debug-dynamic:ioqueue_select.obj
 0003:0001fb30       $SG61136                   0000000140083b30     pjlib-x86_64-x64-vc14-debug-dynamic:ioqueue_select.obj
 0003:0001fc38       $SG61154                   0000000140083c38     pjlib-x86_64-x64-vc14-debug-dynamic:ioqueue_select.obj
 0003:0001fc60       $SG61153                   0000000140083c60     pjlib-x86_64-x64-vc14-debug-dynamic:ioqueue_select.obj
 0003:0001fd68       $SG61169                   0000000140083d68     pjlib-x86_64-x64-vc14-debug-dynamic:ioqueue_select.obj
 0003:0001fd70       $SG61168                   0000000140083d70     pjlib-x86_64-x64-vc14-debug-dynamic:ioqueue_select.obj
 0003:0001fe78       $SG61231                   0000000140083e78     pjlib-x86_64-x64-vc14-debug-dynamic:ioqueue_select.obj
 0003:0001fe90       $SG61232                   0000000140083e90     pjlib-x86_64-x64-vc14-debug-dynamic:ioqueue_select.obj
 0003:0001ff98       $SG61233                   0000000140083f98     pjlib-x86_64-x64-vc14-debug-dynamic:ioqueue_select.obj
 0003:0001ffd0       $SG61236                   0000000140083fd0     pjlib-x86_64-x64-vc14-debug-dynamic:ioqueue_select.obj
 0003:000200d8       $SG61237                   00000001400840d8     pjlib-x86_64-x64-vc14-debug-dynamic:ioqueue_select.obj
 0003:000200f0       $SG61280                   00000001400840f0     pjlib-x86_64-x64-vc14-debug-dynamic:ioqueue_select.obj
 0003:000201f8       $SG61523                   00000001400841f8     pjlib-x86_64-x64-vc14-debug-dynamic:ioqueue_select.obj
 0003:00020230       $SG61281                   0000000140084230     pjlib-x86_64-x64-vc14-debug-dynamic:ioqueue_select.obj
 0003:00020274       $SG61658                   0000000140084274     pjlib-x86_64-x64-vc14-debug-dynamic:ioqueue_select.obj
 0003:00020280       $SG61339                   0000000140084280     pjlib-x86_64-x64-vc14-debug-dynamic:ioqueue_select.obj
 0003:00020388       $SG61634                   0000000140084388     pjlib-x86_64-x64-vc14-debug-dynamic:ioqueue_select.obj
 0003:00020390       $SG61340                   0000000140084390     pjlib-x86_64-x64-vc14-debug-dynamic:ioqueue_select.obj
 0003:000203d4       $SG61717                   00000001400843d4     pjlib-x86_64-x64-vc14-debug-dynamic:ioqueue_select.obj
 0003:000203e0       $SG61341                   00000001400843e0     pjlib-x86_64-x64-vc14-debug-dynamic:ioqueue_select.obj
 0003:00020468       $SG61551                   0000000140084468     pjlib-x86_64-x64-vc14-debug-dynamic:ioqueue_select.obj
 0003:00020498       $SG61637                   0000000140084498     pjlib-x86_64-x64-vc14-debug-dynamic:ioqueue_select.obj
 0003:000204b0       $SG61344                   00000001400844b0     pjlib-x86_64-x64-vc14-debug-dynamic:ioqueue_select.obj
 0003:000205b8       $SG61721                   00000001400845b8     pjlib-x86_64-x64-vc14-debug-dynamic:ioqueue_select.obj
 0003:000205d8       $SG61722                   00000001400845d8     pjlib-x86_64-x64-vc14-debug-dynamic:ioqueue_select.obj
 0003:000205e0       $SG61345                   00000001400845e0     pjlib-x86_64-x64-vc14-debug-dynamic:ioqueue_select.obj
 0003:00020624       $SG61782                   0000000140084624     pjlib-x86_64-x64-vc14-debug-dynamic:ioqueue_select.obj
 0003:00020630       $SG61386                   0000000140084630     pjlib-x86_64-x64-vc14-debug-dynamic:ioqueue_select.obj
 0003:00020738       $SG61740                   0000000140084738     pjlib-x86_64-x64-vc14-debug-dynamic:ioqueue_select.obj
 0003:00020748       $SG61817                   0000000140084748     pjlib-x86_64-x64-vc14-debug-dynamic:ioqueue_select.obj
 0003:00020770       $SG61387                   0000000140084770     pjlib-x86_64-x64-vc14-debug-dynamic:ioqueue_select.obj
 0003:000207b4       $SG61871                   00000001400847b4     pjlib-x86_64-x64-vc14-debug-dynamic:ioqueue_select.obj
 0003:000207b8       $SG61839                   00000001400847b8     pjlib-x86_64-x64-vc14-debug-dynamic:ioqueue_select.obj
 0003:000207c0       $SG61388                   00000001400847c0     pjlib-x86_64-x64-vc14-debug-dynamic:ioqueue_select.obj
 0003:00020848       $SG61616                   0000000140084848     pjlib-x86_64-x64-vc14-debug-dynamic:ioqueue_select.obj
 0003:00020878       $SG61891                   0000000140084878     pjlib-x86_64-x64-vc14-debug-dynamic:ioqueue_select.obj
 0003:00020880       $SG61391                   0000000140084880     pjlib-x86_64-x64-vc14-debug-dynamic:ioqueue_select.obj
 0003:00020988       $SG61903                   0000000140084988     pjlib-x86_64-x64-vc14-debug-dynamic:ioqueue_select.obj
 0003:000209a8       $SG61973                   00000001400849a8     pjlib-x86_64-x64-vc14-debug-dynamic:ioqueue_select.obj
 0003:000209d0       $SG61392                   00000001400849d0     pjlib-x86_64-x64-vc14-debug-dynamic:ioqueue_select.obj
 0003:00020a20       $SG61427                   0000000140084a20     pjlib-x86_64-x64-vc14-debug-dynamic:ioqueue_select.obj
 0003:00020b30       $SG61428                   0000000140084b30     pjlib-x86_64-x64-vc14-debug-dynamic:ioqueue_select.obj
 0003:00020b70       $SG61429                   0000000140084b70     pjlib-x86_64-x64-vc14-debug-dynamic:ioqueue_select.obj
 0003:00020c00       $SG61481                   0000000140084c00     pjlib-x86_64-x64-vc14-debug-dynamic:ioqueue_select.obj
 0003:00020d10       $SG61482                   0000000140084d10     pjlib-x86_64-x64-vc14-debug-dynamic:ioqueue_select.obj
 0003:00020d50       $SG61483                   0000000140084d50     pjlib-x86_64-x64-vc14-debug-dynamic:ioqueue_select.obj
 0003:00020de0       $SG61490                   0000000140084de0     pjlib-x86_64-x64-vc14-debug-dynamic:ioqueue_select.obj
 0003:00020ef0       $SG61491                   0000000140084ef0     pjlib-x86_64-x64-vc14-debug-dynamic:ioqueue_select.obj
 0003:00020f40       $SG61522                   0000000140084f40     pjlib-x86_64-x64-vc14-debug-dynamic:ioqueue_select.obj
 0003:00021050       $SG61526                   0000000140085050     pjlib-x86_64-x64-vc14-debug-dynamic:ioqueue_select.obj
 0003:00021160       $SG61527                   0000000140085160     pjlib-x86_64-x64-vc14-debug-dynamic:ioqueue_select.obj
 0003:000211b0       $SG61550                   00000001400851b0     pjlib-x86_64-x64-vc14-debug-dynamic:ioqueue_select.obj
 0003:000212c0       $SG61615                   00000001400852c0     pjlib-x86_64-x64-vc14-debug-dynamic:ioqueue_select.obj
 0003:000213d0       $SG61633                   00000001400853d0     pjlib-x86_64-x64-vc14-debug-dynamic:ioqueue_select.obj
 0003:000214e0       $SG61636                   00000001400854e0     pjlib-x86_64-x64-vc14-debug-dynamic:ioqueue_select.obj
 0003:000215f0       $SG61712                   00000001400855f0     pjlib-x86_64-x64-vc14-debug-dynamic:ioqueue_select.obj
 0003:000216f0       $SG61713                   00000001400856f0     pjlib-x86_64-x64-vc14-debug-dynamic:ioqueue_select.obj
 0003:00021790       $SG61739                   0000000140085790     pjlib-x86_64-x64-vc14-debug-dynamic:ioqueue_select.obj
 0003:00021890       $SG61777                   0000000140085890     pjlib-x86_64-x64-vc14-debug-dynamic:ioqueue_select.obj
 0003:00021990       $SG61778                   0000000140085990     pjlib-x86_64-x64-vc14-debug-dynamic:ioqueue_select.obj
 0003:000219f0       $SG61781                   00000001400859f0     pjlib-x86_64-x64-vc14-debug-dynamic:ioqueue_select.obj
 0003:00021a50       $SG61784                   0000000140085a50     pjlib-x86_64-x64-vc14-debug-dynamic:ioqueue_select.obj
 0003:00021b50       $SG61785                   0000000140085b50     pjlib-x86_64-x64-vc14-debug-dynamic:ioqueue_select.obj
 0003:00021ba0       $SG61816                   0000000140085ba0     pjlib-x86_64-x64-vc14-debug-dynamic:ioqueue_select.obj
 0003:00021ca0       $SG61838                   0000000140085ca0     pjlib-x86_64-x64-vc14-debug-dynamic:ioqueue_select.obj
 0003:00021da0       $SG61843                   0000000140085da0     pjlib-x86_64-x64-vc14-debug-dynamic:ioqueue_select.obj
 0003:00021dd0       $SG61844                   0000000140085dd0     pjlib-x86_64-x64-vc14-debug-dynamic:ioqueue_select.obj
 0003:00021ed0       $SG61845                   0000000140085ed0     pjlib-x86_64-x64-vc14-debug-dynamic:ioqueue_select.obj
 0003:00021f28       $SG61847                   0000000140085f28     pjlib-x86_64-x64-vc14-debug-dynamic:ioqueue_select.obj
 0003:00021f58       $SG61848                   0000000140085f58     pjlib-x86_64-x64-vc14-debug-dynamic:ioqueue_select.obj
 0003:00021f70       $SG61870                   0000000140085f70     pjlib-x86_64-x64-vc14-debug-dynamic:ioqueue_select.obj
 0003:00022070       $SG61890                   0000000140086070     pjlib-x86_64-x64-vc14-debug-dynamic:ioqueue_select.obj
 0003:00022170       $SG61902                   0000000140086170     pjlib-x86_64-x64-vc14-debug-dynamic:ioqueue_select.obj
 0003:00022270       $SG61949                   0000000140086270     pjlib-x86_64-x64-vc14-debug-dynamic:ioqueue_select.obj
 0003:00022370       $SG61950                   0000000140086370     pjlib-x86_64-x64-vc14-debug-dynamic:ioqueue_select.obj
 0003:00022380       $SG61971                   0000000140086380     pjlib-x86_64-x64-vc14-debug-dynamic:ioqueue_select.obj
 0003:00022390       $SG61972                   0000000140086390     pjlib-x86_64-x64-vc14-debug-dynamic:ioqueue_select.obj
 0003:00022d20       ?hex@?1??hex2digit@@9@9    0000000140086d20     pjlib-x86_64-x64-vc14-debug-dynamic:guid_win32.obj
 0003:00022d30       $SG90277                   0000000140086d30     pjlib-x86_64-x64-vc14-debug-dynamic:guid_win32.obj
 0003:00022dd0       $SG8120                    0000000140086dd0     pjlib-x86_64-x64-vc14-debug-dynamic:config.obj
 0003:00022ddc       $SG8125                    0000000140086ddc     pjlib-x86_64-x64-vc14-debug-dynamic:config.obj
 0003:00022de8       id                         0000000140086de8     pjlib-x86_64-x64-vc14-debug-dynamic:config.obj
 0003:00022df0       $SG8233                    0000000140086df0     pjlib-x86_64-x64-vc14-debug-dynamic:config.obj
 0003:00022e10       $SG8235                    0000000140086e10     pjlib-x86_64-x64-vc14-debug-dynamic:config.obj
 0003:00022e28       $SG8237                    0000000140086e28     pjlib-x86_64-x64-vc14-debug-dynamic:config.obj
 0003:00022e48       $SG8239                    0000000140086e48     pjlib-x86_64-x64-vc14-debug-dynamic:config.obj
 0003:00022e50       $SG8240                    0000000140086e50     pjlib-x86_64-x64-vc14-debug-dynamic:config.obj
 0003:00022e70       $SG8242                    0000000140086e70     pjlib-x86_64-x64-vc14-debug-dynamic:config.obj
 0003:00022e90       $SG8244                    0000000140086e90     pjlib-x86_64-x64-vc14-debug-dynamic:config.obj
 0003:00022e98       $SG8245                    0000000140086e98     pjlib-x86_64-x64-vc14-debug-dynamic:config.obj
 0003:00022eb8       $SG8247                    0000000140086eb8     pjlib-x86_64-x64-vc14-debug-dynamic:config.obj
 0003:00022ec0       $SG8248                    0000000140086ec0     pjlib-x86_64-x64-vc14-debug-dynamic:config.obj
 0003:00022ef0       $SG8250                    0000000140086ef0     pjlib-x86_64-x64-vc14-debug-dynamic:config.obj
 0003:00022f00       $SG8251                    0000000140086f00     pjlib-x86_64-x64-vc14-debug-dynamic:config.obj
 0003:00022f20       $SG8253                    0000000140086f20     pjlib-x86_64-x64-vc14-debug-dynamic:config.obj
 0003:00022f40       $SG8255                    0000000140086f40     pjlib-x86_64-x64-vc14-debug-dynamic:config.obj
 0003:00022f60       $SG8257                    0000000140086f60     pjlib-x86_64-x64-vc14-debug-dynamic:config.obj
 0003:00022f80       $SG8259                    0000000140086f80     pjlib-x86_64-x64-vc14-debug-dynamic:config.obj
 0003:00022fa0       $SG8261                    0000000140086fa0     pjlib-x86_64-x64-vc14-debug-dynamic:config.obj
 0003:00022fc0       $SG8263                    0000000140086fc0     pjlib-x86_64-x64-vc14-debug-dynamic:config.obj
 0003:00022fe0       $SG8265                    0000000140086fe0     pjlib-x86_64-x64-vc14-debug-dynamic:config.obj
 0003:00023000       $SG8267                    0000000140087000     pjlib-x86_64-x64-vc14-debug-dynamic:config.obj
 0003:00023020       $SG8269                    0000000140087020     pjlib-x86_64-x64-vc14-debug-dynamic:config.obj
 0003:00023040       $SG8271                    0000000140087040     pjlib-x86_64-x64-vc14-debug-dynamic:config.obj
 0003:00023060       $SG8273                    0000000140087060     pjlib-x86_64-x64-vc14-debug-dynamic:config.obj
 0003:00023080       $SG8275                    0000000140087080     pjlib-x86_64-x64-vc14-debug-dynamic:config.obj
 0003:000230a0       $SG8277                    00000001400870a0     pjlib-x86_64-x64-vc14-debug-dynamic:config.obj
 0003:000230c0       $SG8279                    00000001400870c0     pjlib-x86_64-x64-vc14-debug-dynamic:config.obj
 0003:000230e0       $SG8281                    00000001400870e0     pjlib-x86_64-x64-vc14-debug-dynamic:config.obj
 0003:00023100       $SG8283                    0000000140087100     pjlib-x86_64-x64-vc14-debug-dynamic:config.obj
 0003:00023120       $SG8285                    0000000140087120     pjlib-x86_64-x64-vc14-debug-dynamic:config.obj
 0003:00023140       $SG8287                    0000000140087140     pjlib-x86_64-x64-vc14-debug-dynamic:config.obj
 0003:00023160       $SG8289                    0000000140087160     pjlib-x86_64-x64-vc14-debug-dynamic:config.obj
 0003:00023180       $SG8291                    0000000140087180     pjlib-x86_64-x64-vc14-debug-dynamic:config.obj
 0003:000231a0       $SG8293                    00000001400871a0     pjlib-x86_64-x64-vc14-debug-dynamic:config.obj
 0003:000231c0       $SG8295                    00000001400871c0     pjlib-x86_64-x64-vc14-debug-dynamic:config.obj
 0003:000231e0       $SG8297                    00000001400871e0     pjlib-x86_64-x64-vc14-debug-dynamic:config.obj
 0003:00023200       $SG8299                    0000000140087200     pjlib-x86_64-x64-vc14-debug-dynamic:config.obj
 0003:00023220       $SG8301                    0000000140087220     pjlib-x86_64-x64-vc14-debug-dynamic:config.obj
 0003:00023240       $SG8303                    0000000140087240     pjlib-x86_64-x64-vc14-debug-dynamic:config.obj
 0003:00023350       tls                        0000000140087350     pjlib-x86_64-x64-vc14-debug-dynamic:pool_buf.obj
 0003:00023360       $SG8543                    0000000140087360     pjlib-x86_64-x64-vc14-debug-dynamic:pool_buf.obj
 0003:00023458       $SG8544                    0000000140087458     pjlib-x86_64-x64-vc14-debug-dynamic:pool_buf.obj
 0003:00023480       $SG8566                    0000000140087480     pjlib-x86_64-x64-vc14-debug-dynamic:pool_buf.obj
 0003:00023578       $SG8567                    0000000140087578     pjlib-x86_64-x64-vc14-debug-dynamic:pool_buf.obj
 0003:00023610       $SG58824                   0000000140087610     pjlib-x86_64-x64-vc14-debug-dynamic:os_error_win32.obj
 0003:00023638       $SG58825                   0000000140087638     pjlib-x86_64-x64-vc14-debug-dynamic:os_error_win32.obj
 0003:00023658       $SG58826                   0000000140087658     pjlib-x86_64-x64-vc14-debug-dynamic:os_error_win32.obj
 0003:00023678       $SG58827                   0000000140087678     pjlib-x86_64-x64-vc14-debug-dynamic:os_error_win32.obj
 0003:00023690       $SG58828                   0000000140087690     pjlib-x86_64-x64-vc14-debug-dynamic:os_error_win32.obj
 0003:000236b0       $SG58829                   00000001400876b0     pjlib-x86_64-x64-vc14-debug-dynamic:os_error_win32.obj
 0003:000236d8       $SG58830                   00000001400876d8     pjlib-x86_64-x64-vc14-debug-dynamic:os_error_win32.obj
 0003:00023700       $SG58831                   0000000140087700     pjlib-x86_64-x64-vc14-debug-dynamic:os_error_win32.obj
 0003:00023730       $SG58832                   0000000140087730     pjlib-x86_64-x64-vc14-debug-dynamic:os_error_win32.obj
 0003:00023760       $SG58833                   0000000140087760     pjlib-x86_64-x64-vc14-debug-dynamic:os_error_win32.obj
 0003:00023790       $SG58834                   0000000140087790     pjlib-x86_64-x64-vc14-debug-dynamic:os_error_win32.obj
 0003:000237c0       $SG58835                   00000001400877c0     pjlib-x86_64-x64-vc14-debug-dynamic:os_error_win32.obj
 0003:000237e0       $SG58836                   00000001400877e0     pjlib-x86_64-x64-vc14-debug-dynamic:os_error_win32.obj
 0003:00023810       $SG58837                   0000000140087810     pjlib-x86_64-x64-vc14-debug-dynamic:os_error_win32.obj
 0003:00023838       $SG58838                   0000000140087838     pjlib-x86_64-x64-vc14-debug-dynamic:os_error_win32.obj
 0003:00023868       $SG58839                   0000000140087868     pjlib-x86_64-x64-vc14-debug-dynamic:os_error_win32.obj
 0003:00023898       $SG58840                   0000000140087898     pjlib-x86_64-x64-vc14-debug-dynamic:os_error_win32.obj
 0003:000238d0       $SG58841                   00000001400878d0     pjlib-x86_64-x64-vc14-debug-dynamic:os_error_win32.obj
 0003:00023900       $SG58842                   0000000140087900     pjlib-x86_64-x64-vc14-debug-dynamic:os_error_win32.obj
 0003:00023930       $SG58843                   0000000140087930     pjlib-x86_64-x64-vc14-debug-dynamic:os_error_win32.obj
 0003:00023958       $SG58844                   0000000140087958     pjlib-x86_64-x64-vc14-debug-dynamic:os_error_win32.obj
 0003:00023990       $SG58845                   0000000140087990     pjlib-x86_64-x64-vc14-debug-dynamic:os_error_win32.obj
 0003:000239b0       $SG58846                   00000001400879b0     pjlib-x86_64-x64-vc14-debug-dynamic:os_error_win32.obj
 0003:000239d8       $SG58847                   00000001400879d8     pjlib-x86_64-x64-vc14-debug-dynamic:os_error_win32.obj
 0003:00023a00       $SG58848                   0000000140087a00     pjlib-x86_64-x64-vc14-debug-dynamic:os_error_win32.obj
 0003:00023a38       $SG58849                   0000000140087a38     pjlib-x86_64-x64-vc14-debug-dynamic:os_error_win32.obj
 0003:00023a68       $SG58850                   0000000140087a68     pjlib-x86_64-x64-vc14-debug-dynamic:os_error_win32.obj
 0003:00023a90       $SG58851                   0000000140087a90     pjlib-x86_64-x64-vc14-debug-dynamic:os_error_win32.obj
 0003:00023ac0       $SG58852                   0000000140087ac0     pjlib-x86_64-x64-vc14-debug-dynamic:os_error_win32.obj
 0003:00023ae8       $SG58853                   0000000140087ae8     pjlib-x86_64-x64-vc14-debug-dynamic:os_error_win32.obj
 0003:00023b18       $SG58854                   0000000140087b18     pjlib-x86_64-x64-vc14-debug-dynamic:os_error_win32.obj
 0003:00023b50       $SG58855                   0000000140087b50     pjlib-x86_64-x64-vc14-debug-dynamic:os_error_win32.obj
 0003:00023b78       $SG58856                   0000000140087b78     pjlib-x86_64-x64-vc14-debug-dynamic:os_error_win32.obj
 0003:00023ba0       $SG58857                   0000000140087ba0     pjlib-x86_64-x64-vc14-debug-dynamic:os_error_win32.obj
 0003:00023bd0       $SG58858                   0000000140087bd0     pjlib-x86_64-x64-vc14-debug-dynamic:os_error_win32.obj
 0003:00023bf8       $SG58859                   0000000140087bf8     pjlib-x86_64-x64-vc14-debug-dynamic:os_error_win32.obj
 0003:00023c18       $SG58860                   0000000140087c18     pjlib-x86_64-x64-vc14-debug-dynamic:os_error_win32.obj
 0003:00023c40       $SG58861                   0000000140087c40     pjlib-x86_64-x64-vc14-debug-dynamic:os_error_win32.obj
 0003:00023c68       $SG58862                   0000000140087c68     pjlib-x86_64-x64-vc14-debug-dynamic:os_error_win32.obj
 0003:00023c90       $SG58863                   0000000140087c90     pjlib-x86_64-x64-vc14-debug-dynamic:os_error_win32.obj
 0003:00023cb0       $SG58864                   0000000140087cb0     pjlib-x86_64-x64-vc14-debug-dynamic:os_error_win32.obj
 0003:00023cd0       $SG58865                   0000000140087cd0     pjlib-x86_64-x64-vc14-debug-dynamic:os_error_win32.obj
 0003:00023cf8       $SG58866                   0000000140087cf8     pjlib-x86_64-x64-vc14-debug-dynamic:os_error_win32.obj
 0003:00023d28       $SG58867                   0000000140087d28     pjlib-x86_64-x64-vc14-debug-dynamic:os_error_win32.obj
 0003:00023d58       $SG58868                   0000000140087d58     pjlib-x86_64-x64-vc14-debug-dynamic:os_error_win32.obj
 0003:00023d90       $SG58869                   0000000140087d90     pjlib-x86_64-x64-vc14-debug-dynamic:os_error_win32.obj
 0003:00023dc0       $SG58870                   0000000140087dc0     pjlib-x86_64-x64-vc14-debug-dynamic:os_error_win32.obj
 0003:00023df0       $SG58871                   0000000140087df0     pjlib-x86_64-x64-vc14-debug-dynamic:os_error_win32.obj
 0003:00023e18       $SG58872                   0000000140087e18     pjlib-x86_64-x64-vc14-debug-dynamic:os_error_win32.obj
 0003:00023e50       $SG58912                   0000000140087e50     pjlib-x86_64-x64-vc14-debug-dynamic:os_error_win32.obj
 0003:00023f50       $SG58913                   0000000140087f50     pjlib-x86_64-x64-vc14-debug-dynamic:os_error_win32.obj
 0003:00023f80       $SG58914                   0000000140087f80     pjlib-x86_64-x64-vc14-debug-dynamic:os_error_win32.obj
 0003:00024080       $SG58915                   0000000140088080     pjlib-x86_64-x64-vc14-debug-dynamic:os_error_win32.obj
 0003:000240a0       $SG58923                   00000001400880a0     pjlib-x86_64-x64-vc14-debug-dynamic:os_error_win32.obj
 0003:000242e0       $SG11287                   00000001400882e0     pjlib-x86_64-x64-vc14-debug-dynamic:log_writer_stdout.obj
 0003:00024364       $SG11290                   0000000140088364     pjlib-x86_64-x64-vc14-debug-dynamic:log_writer_stdout.obj
 0003:00024368       $SG11291                   0000000140088368     pjlib-x86_64-x64-vc14-debug-dynamic:log_writer_stdout.obj
 0003:00024390       $SG62196                   0000000140088390     pjlib-x86_64-x64-vc14-debug-dynamic:ip_helper_win32.obj
 0003:000243a0       $SG62211                   00000001400883a0     pjlib-x86_64-x64-vc14-debug-dynamic:ip_helper_win32.obj
 0003:000243b0       $SG62229                   00000001400883b0     pjlib-x86_64-x64-vc14-debug-dynamic:ip_helper_win32.obj
 0003:000243c8       $SG62239                   00000001400883c8     pjlib-x86_64-x64-vc14-debug-dynamic:ip_helper_win32.obj
 0003:000243d8       $SG62253                   00000001400883d8     pjlib-x86_64-x64-vc14-debug-dynamic:ip_helper_win32.obj
 0003:000243f0       $SG62282                   00000001400883f0     pjlib-x86_64-x64-vc14-debug-dynamic:ip_helper_win32.obj
 0003:000244f0       $SG62283                   00000001400884f0     pjlib-x86_64-x64-vc14-debug-dynamic:ip_helper_win32.obj
 0003:00024510       $SG62354                   0000000140088510     pjlib-x86_64-x64-vc14-debug-dynamic:ip_helper_win32.obj
 0003:00024610       $SG62355                   0000000140088610     pjlib-x86_64-x64-vc14-debug-dynamic:ip_helper_win32.obj
 0003:00024630       $SG62357                   0000000140088630     pjlib-x86_64-x64-vc14-debug-dynamic:ip_helper_win32.obj
 0003:00024730       $SG62358                   0000000140088730     pjlib-x86_64-x64-vc14-debug-dynamic:ip_helper_win32.obj
 0003:000247a0       $SG62401                   00000001400887a0     pjlib-x86_64-x64-vc14-debug-dynamic:ip_helper_win32.obj
 0003:000248a0       $SG62402                   00000001400888a0     pjlib-x86_64-x64-vc14-debug-dynamic:ip_helper_win32.obj
 0003:000249d0       $SG59800                   00000001400889d0     pjlib-x86_64-x64-vc14-debug-dynamic:addr_resolv_sock.obj
 0003:00024ae0       $SG59801                   0000000140088ae0     pjlib-x86_64-x64-vc14-debug-dynamic:addr_resolv_sock.obj
 0003:00024b30       $SG59830                   0000000140088b30     pjlib-x86_64-x64-vc14-debug-dynamic:addr_resolv_sock.obj
 0003:00024c38       $SG59831                   0000000140088c38     pjlib-x86_64-x64-vc14-debug-dynamic:addr_resolv_sock.obj
 0003:00024ce0       $SG8212                    0000000140088ce0     pjlib-x86_64-x64-vc14-debug-dynamic:types.obj
 0003:00024d70       $SG54821                   0000000140088d70     pjlib-x86_64-x64-vc14-debug-dynamic:sock_select.obj
 0003:00024df0       $SG54851                   0000000140088df0     pjlib-x86_64-x64-vc14-debug-dynamic:sock_select.obj
 0003:00024e70       $SG54887                   0000000140088e70     pjlib-x86_64-x64-vc14-debug-dynamic:sock_select.obj
 0003:00024ef0       $SG54909                   0000000140088ef0     pjlib-x86_64-x64-vc14-debug-dynamic:sock_select.obj
 0003:00024f70       $SG54945                   0000000140088f70     pjlib-x86_64-x64-vc14-debug-dynamic:sock_select.obj
 0003:00025080       $SG59990                   0000000140089080     libsrtp-x86_64-x64-vc14-debug-dynamic:srtp.obj
 0003:00025088       $SG60015                   0000000140089088     libsrtp-x86_64-x64-vc14-debug-dynamic:srtp.obj
 0003:00025098       $SG60022                   0000000140089098     libsrtp-x86_64-x64-vc14-debug-dynamic:srtp.obj
 0003:000250a4       $SG60023                   00000001400890a4     libsrtp-x86_64-x64-vc14-debug-dynamic:srtp.obj
 0003:000250b0       $SG60175                   00000001400890b0     libsrtp-x86_64-x64-vc14-debug-dynamic:srtp.obj
 0003:000250d8       $SG60349                   00000001400890d8     libsrtp-x86_64-x64-vc14-debug-dynamic:srtp.obj
 0003:000250f0       $SG60351                   00000001400890f0     libsrtp-x86_64-x64-vc14-debug-dynamic:srtp.obj
 0003:00025108       $SG60353                   0000000140089108     libsrtp-x86_64-x64-vc14-debug-dynamic:srtp.obj
 0003:00025120       $SG60355                   0000000140089120     libsrtp-x86_64-x64-vc14-debug-dynamic:srtp.obj
 0003:00025138       $SG60357                   0000000140089138     libsrtp-x86_64-x64-vc14-debug-dynamic:srtp.obj
 0003:00025150       $SG60361                   0000000140089150     libsrtp-x86_64-x64-vc14-debug-dynamic:srtp.obj
 0003:00025168       $SG60364                   0000000140089168     libsrtp-x86_64-x64-vc14-debug-dynamic:srtp.obj
 0003:00025198       $SG60368                   0000000140089198     libsrtp-x86_64-x64-vc14-debug-dynamic:srtp.obj
 0003:000251b0       $SG60380                   00000001400891b0     libsrtp-x86_64-x64-vc14-debug-dynamic:srtp.obj
 0003:000251d0       $SG60383                   00000001400891d0     libsrtp-x86_64-x64-vc14-debug-dynamic:srtp.obj
 0003:00025208       $SG60387                   0000000140089208     libsrtp-x86_64-x64-vc14-debug-dynamic:srtp.obj
 0003:00025228       $SG60393                   0000000140089228     libsrtp-x86_64-x64-vc14-debug-dynamic:srtp.obj
 0003:00025240       $SG60396                   0000000140089240     libsrtp-x86_64-x64-vc14-debug-dynamic:srtp.obj
 0003:00025258       $SG60400                   0000000140089258     libsrtp-x86_64-x64-vc14-debug-dynamic:srtp.obj
 0003:00025290       $SG60403                   0000000140089290     libsrtp-x86_64-x64-vc14-debug-dynamic:srtp.obj
 0003:000252b0       $SG60406                   00000001400892b0     libsrtp-x86_64-x64-vc14-debug-dynamic:srtp.obj
 0003:000252d0       $SG60410                   00000001400892d0     libsrtp-x86_64-x64-vc14-debug-dynamic:srtp.obj
 0003:000252f0       $SG60420                   00000001400892f0     libsrtp-x86_64-x64-vc14-debug-dynamic:srtp.obj
 0003:00025318       $SG60435                   0000000140089318     libsrtp-x86_64-x64-vc14-debug-dynamic:srtp.obj
 0003:00025330       $SG60437                   0000000140089330     libsrtp-x86_64-x64-vc14-debug-dynamic:srtp.obj
 0003:00025348       $SG60439                   0000000140089348     libsrtp-x86_64-x64-vc14-debug-dynamic:srtp.obj
 0003:00025368       $SG60441                   0000000140089368     libsrtp-x86_64-x64-vc14-debug-dynamic:srtp.obj
 0003:00025388       $SG60443                   0000000140089388     libsrtp-x86_64-x64-vc14-debug-dynamic:srtp.obj
 0003:000253a8       $SG60445                   00000001400893a8     libsrtp-x86_64-x64-vc14-debug-dynamic:srtp.obj
 0003:000253d0       srtp_event_handler         00000001400893d0     libsrtp-x86_64-x64-vc14-debug-dynamic:srtp.obj
 0003:000253d8       $SG60528                   00000001400893d8     libsrtp-x86_64-x64-vc14-debug-dynamic:srtp.obj
 0003:000253f8       $SG60530                   00000001400893f8     libsrtp-x86_64-x64-vc14-debug-dynamic:srtp.obj
 0003:00025410       $SG60592                   0000000140089410     libsrtp-x86_64-x64-vc14-debug-dynamic:srtp.obj
 0003:00025438       $SG60644                   0000000140089438     libsrtp-x86_64-x64-vc14-debug-dynamic:srtp.obj
 0003:00025458       $SG60659                   0000000140089458     libsrtp-x86_64-x64-vc14-debug-dynamic:srtp.obj
 0003:00025480       $SG60717                   0000000140089480     libsrtp-x86_64-x64-vc14-debug-dynamic:srtp.obj
 0003:000254a8       $SG60719                   00000001400894a8     libsrtp-x86_64-x64-vc14-debug-dynamic:srtp.obj
 0003:000254d0       $SG60816                   00000001400894d0     libsrtp-x86_64-x64-vc14-debug-dynamic:srtp.obj
 0003:000254f0       $SG60850                   00000001400894f0     libsrtp-x86_64-x64-vc14-debug-dynamic:srtp.obj
 0003:00025518       $SG60861                   0000000140089518     libsrtp-x86_64-x64-vc14-debug-dynamic:srtp.obj
 0003:00025538       $SG60870                   0000000140089538     libsrtp-x86_64-x64-vc14-debug-dynamic:srtp.obj
 0003:00025560       $SG60872                   0000000140089560     libsrtp-x86_64-x64-vc14-debug-dynamic:srtp.obj
 0003:00025580       $SG60952                   0000000140089580     libsrtp-x86_64-x64-vc14-debug-dynamic:srtp.obj
 0003:000255a0       $SG60960                   00000001400895a0     libsrtp-x86_64-x64-vc14-debug-dynamic:srtp.obj
 0003:000255d0       $SG60966                   00000001400895d0     libsrtp-x86_64-x64-vc14-debug-dynamic:srtp.obj
 0003:000255f8       $SG60987                   00000001400895f8     libsrtp-x86_64-x64-vc14-debug-dynamic:srtp.obj
 0003:00025618       $SG60991                   0000000140089618     libsrtp-x86_64-x64-vc14-debug-dynamic:srtp.obj
 0003:00025638       $SG60993                   0000000140089638     libsrtp-x86_64-x64-vc14-debug-dynamic:srtp.obj
 0003:00025658       $SG61240                   0000000140089658     libsrtp-x86_64-x64-vc14-debug-dynamic:srtp.obj
 0003:00025678       $SG61242                   0000000140089678     libsrtp-x86_64-x64-vc14-debug-dynamic:srtp.obj
 0003:00025690       $SG61292                   0000000140089690     libsrtp-x86_64-x64-vc14-debug-dynamic:srtp.obj
 0003:000256a8       $SG61358                   00000001400896a8     libsrtp-x86_64-x64-vc14-debug-dynamic:srtp.obj
 0003:000256c0       $SG61448                   00000001400896c0     libsrtp-x86_64-x64-vc14-debug-dynamic:srtp.obj
 0003:000256d8       $SG61455                   00000001400896d8     libsrtp-x86_64-x64-vc14-debug-dynamic:srtp.obj
 0003:000256f8       $SG61460                   00000001400896f8     libsrtp-x86_64-x64-vc14-debug-dynamic:srtp.obj
 0003:00025718       $SG61534                   0000000140089718     libsrtp-x86_64-x64-vc14-debug-dynamic:srtp.obj
 0003:00025750       $SG61546                   0000000140089750     libsrtp-x86_64-x64-vc14-debug-dynamic:srtp.obj
 0003:00025768       $SG61553                   0000000140089768     libsrtp-x86_64-x64-vc14-debug-dynamic:srtp.obj
 0003:00025790       $SG61556                   0000000140089790     libsrtp-x86_64-x64-vc14-debug-dynamic:srtp.obj
 0003:000257b8       $SG61560                   00000001400897b8     libsrtp-x86_64-x64-vc14-debug-dynamic:srtp.obj
 0003:00025960       $SG59750                   0000000140089960     libsrtp-x86_64-x64-vc14-debug-dynamic:alloc.obj
 0003:00025968       $SG59758                   0000000140089968     libsrtp-x86_64-x64-vc14-debug-dynamic:alloc.obj
 0003:00025988       $SG59760                   0000000140089988     libsrtp-x86_64-x64-vc14-debug-dynamic:alloc.obj
 0003:000259b8       $SG59765                   00000001400899b8     libsrtp-x86_64-x64-vc14-debug-dynamic:alloc.obj
 0003:00025ec0       $SG11357                   0000000140089ec0     libsrtp-x86_64-x64-vc14-debug-dynamic:srtp_err.obj
 0003:00025ee0       $SG59478                   0000000140089ee0     libsrtp-x86_64-x64-vc14-debug-dynamic:cipher.obj
 0003:00025ee8       $SG59625                   0000000140089ee8     libsrtp-x86_64-x64-vc14-debug-dynamic:cipher.obj
 0003:00025f10       $SG59629                   0000000140089f10     libsrtp-x86_64-x64-vc14-debug-dynamic:cipher.obj
 0003:00025f28       $SG59633                   0000000140089f28     libsrtp-x86_64-x64-vc14-debug-dynamic:cipher.obj
 0003:00025f40       $SG59638                   0000000140089f40     libsrtp-x86_64-x64-vc14-debug-dynamic:cipher.obj
 0003:00025f50       $SG59641                   0000000140089f50     libsrtp-x86_64-x64-vc14-debug-dynamic:cipher.obj
 0003:00025f60       $SG59647                   0000000140089f60     libsrtp-x86_64-x64-vc14-debug-dynamic:cipher.obj
 0003:00025f78       $SG59651                   0000000140089f78     libsrtp-x86_64-x64-vc14-debug-dynamic:cipher.obj
 0003:00025f98       $SG59653                   0000000140089f98     libsrtp-x86_64-x64-vc14-debug-dynamic:cipher.obj
 0003:00025fb8       $SG59656                   0000000140089fb8     libsrtp-x86_64-x64-vc14-debug-dynamic:cipher.obj
 0003:00025fd0       $SG59658                   0000000140089fd0     libsrtp-x86_64-x64-vc14-debug-dynamic:cipher.obj
 0003:00025fe8       $SG59660                   0000000140089fe8     libsrtp-x86_64-x64-vc14-debug-dynamic:cipher.obj
 0003:00026000       $SG59664                   000000014008a000     libsrtp-x86_64-x64-vc14-debug-dynamic:cipher.obj
 0003:00026018       $SG59670                   000000014008a018     libsrtp-x86_64-x64-vc14-debug-dynamic:cipher.obj
 0003:00026028       $SG59673                   000000014008a028     libsrtp-x86_64-x64-vc14-debug-dynamic:cipher.obj
 0003:00026040       $SG59677                   000000014008a040     libsrtp-x86_64-x64-vc14-debug-dynamic:cipher.obj
 0003:00026060       $SG59679                   000000014008a060     libsrtp-x86_64-x64-vc14-debug-dynamic:cipher.obj
 0003:00026080       $SG59682                   000000014008a080     libsrtp-x86_64-x64-vc14-debug-dynamic:cipher.obj
 0003:00026098       $SG59684                   000000014008a098     libsrtp-x86_64-x64-vc14-debug-dynamic:cipher.obj
 0003:000260b0       $SG59688                   000000014008a0b0     libsrtp-x86_64-x64-vc14-debug-dynamic:cipher.obj
 0003:000260d8       $SG59691                   000000014008a0d8     libsrtp-x86_64-x64-vc14-debug-dynamic:cipher.obj
 0003:000260f0       $SG59701                   000000014008a0f0     libsrtp-x86_64-x64-vc14-debug-dynamic:cipher.obj
 0003:00026100       $SG59707                   000000014008a100     libsrtp-x86_64-x64-vc14-debug-dynamic:cipher.obj
 0003:00026118       $SG59714                   000000014008a118     libsrtp-x86_64-x64-vc14-debug-dynamic:cipher.obj
 0003:00026128       $SG59717                   000000014008a128     libsrtp-x86_64-x64-vc14-debug-dynamic:cipher.obj
 0003:00026140       $SG59721                   000000014008a140     libsrtp-x86_64-x64-vc14-debug-dynamic:cipher.obj
 0003:00026160       $SG59723                   000000014008a160     libsrtp-x86_64-x64-vc14-debug-dynamic:cipher.obj
 0003:00026218       $SG59403                   000000014008a218     libsrtp-x86_64-x64-vc14-debug-dynamic:auth.obj
 0003:00026228       $SG59433                   000000014008a228     libsrtp-x86_64-x64-vc14-debug-dynamic:auth.obj
 0003:00026258       $SG59440                   000000014008a258     libsrtp-x86_64-x64-vc14-debug-dynamic:auth.obj
 0003:00026268       $SG59442                   000000014008a268     libsrtp-x86_64-x64-vc14-debug-dynamic:auth.obj
 0003:00026278       $SG59444                   000000014008a278     libsrtp-x86_64-x64-vc14-debug-dynamic:auth.obj
 0003:00026290       $SG59446                   000000014008a290     libsrtp-x86_64-x64-vc14-debug-dynamic:auth.obj
 0003:000262a8       $SG59449                   000000014008a2a8     libsrtp-x86_64-x64-vc14-debug-dynamic:auth.obj
 0003:000262c8       $SG59451                   000000014008a2c8     libsrtp-x86_64-x64-vc14-debug-dynamic:auth.obj
 0003:00026328       $SG59750                   000000014008a328     libsrtp-x86_64-x64-vc14-debug-dynamic:crypto_kernel.obj
 0003:00026338       $SG59793                   000000014008a338     libsrtp-x86_64-x64-vc14-debug-dynamic:crypto_kernel.obj
 0003:00026348       $SG59794                   000000014008a348     libsrtp-x86_64-x64-vc14-debug-dynamic:crypto_kernel.obj
 0003:00026358       $SG59796                   000000014008a358     libsrtp-x86_64-x64-vc14-debug-dynamic:crypto_kernel.obj
 0003:00026378       $SG59797                   000000014008a378     libsrtp-x86_64-x64-vc14-debug-dynamic:crypto_kernel.obj
 0003:00026380       $SG59798                   000000014008a380     libsrtp-x86_64-x64-vc14-debug-dynamic:crypto_kernel.obj
 0003:00026390       $SG59799                   000000014008a390     libsrtp-x86_64-x64-vc14-debug-dynamic:crypto_kernel.obj
 0003:000263a0       $SG59801                   000000014008a3a0     libsrtp-x86_64-x64-vc14-debug-dynamic:crypto_kernel.obj
 0003:000263c0       $SG59802                   000000014008a3c0     libsrtp-x86_64-x64-vc14-debug-dynamic:crypto_kernel.obj
 0003:000263c8       $SG59808                   000000014008a3c8     libsrtp-x86_64-x64-vc14-debug-dynamic:crypto_kernel.obj
 0003:000263e0       $SG59809                   000000014008a3e0     libsrtp-x86_64-x64-vc14-debug-dynamic:crypto_kernel.obj
 0003:000263e8       $SG59812                   000000014008a3e8     libsrtp-x86_64-x64-vc14-debug-dynamic:crypto_kernel.obj
 0003:000263f0       $SG59813                   000000014008a3f0     libsrtp-x86_64-x64-vc14-debug-dynamic:crypto_kernel.obj
 0003:000263f8       $SG59828                   000000014008a3f8     libsrtp-x86_64-x64-vc14-debug-dynamic:crypto_kernel.obj
 0003:00026420       $SG59830                   000000014008a420     libsrtp-x86_64-x64-vc14-debug-dynamic:crypto_kernel.obj
 0003:00026450       $SG59832                   000000014008a450     libsrtp-x86_64-x64-vc14-debug-dynamic:crypto_kernel.obj
 0003:000264c0       $SG60087                   000000014008a4c0     libsrtp-x86_64-x64-vc14-debug-dynamic:ekt.obj
 0003:000264d8       $SG60089                   000000014008a4d8     libsrtp-x86_64-x64-vc14-debug-dynamic:ekt.obj
 0003:000264f8       $SG60091                   000000014008a4f8     libsrtp-x86_64-x64-vc14-debug-dynamic:ekt.obj
 0003:00026518       $SG60093                   000000014008a518     libsrtp-x86_64-x64-vc14-debug-dynamic:ekt.obj
 0003:00026538       $SG60095                   000000014008a538     libsrtp-x86_64-x64-vc14-debug-dynamic:ekt.obj
 0003:00026580       $SG59308                   000000014008a580     libsrtp-x86_64-x64-vc14-debug-dynamic:stat.obj
 0003:00026590       $SG59318                   000000014008a590     libsrtp-x86_64-x64-vc14-debug-dynamic:stat.obj
 0003:000265a8       $SG59335                   000000014008a5a8     libsrtp-x86_64-x64-vc14-debug-dynamic:stat.obj
 0003:000265c0       $SG59370                   000000014008a5c0     libsrtp-x86_64-x64-vc14-debug-dynamic:stat.obj
 0003:000265d8       $SG59375                   000000014008a5d8     libsrtp-x86_64-x64-vc14-debug-dynamic:stat.obj
 0003:000265f0       $SG59381                   000000014008a5f0     libsrtp-x86_64-x64-vc14-debug-dynamic:stat.obj
 0003:00026608       $SG59387                   000000014008a608     libsrtp-x86_64-x64-vc14-debug-dynamic:stat.obj
 0003:00026620       $SG59390                   000000014008a620     libsrtp-x86_64-x64-vc14-debug-dynamic:stat.obj
 0003:00026630       $SG59392                   000000014008a630     libsrtp-x86_64-x64-vc14-debug-dynamic:stat.obj
 0003:00026648       $SG59394                   000000014008a648     libsrtp-x86_64-x64-vc14-debug-dynamic:stat.obj
 0003:00026688       $SG59498                   000000014008a688     libsrtp-x86_64-x64-vc14-debug-dynamic:null_cipher.obj
 0003:000266b8       $SG59514                   000000014008a6b8     libsrtp-x86_64-x64-vc14-debug-dynamic:null_cipher.obj
 0003:000266f8       $SG59519                   000000014008a6f8     libsrtp-x86_64-x64-vc14-debug-dynamic:aes_icm.obj
 0003:00026700       $SG59542                   000000014008a700     libsrtp-x86_64-x64-vc14-debug-dynamic:aes_icm.obj
 0003:00026730       $SG59574                   000000014008a730     libsrtp-x86_64-x64-vc14-debug-dynamic:aes_icm.obj
 0003:00026740       $SG59576                   000000014008a740     libsrtp-x86_64-x64-vc14-debug-dynamic:aes_icm.obj
 0003:00026750       $SG59590                   000000014008a750     libsrtp-x86_64-x64-vc14-debug-dynamic:aes_icm.obj
 0003:00026768       $SG59592                   000000014008a768     libsrtp-x86_64-x64-vc14-debug-dynamic:aes_icm.obj
 0003:00026780       $SG59599                   000000014008a780     libsrtp-x86_64-x64-vc14-debug-dynamic:aes_icm.obj
 0003:00026798       $SG59601                   000000014008a798     libsrtp-x86_64-x64-vc14-debug-dynamic:aes_icm.obj
 0003:000267b0       $SG59640                   000000014008a7b0     libsrtp-x86_64-x64-vc14-debug-dynamic:aes_icm.obj
 0003:000267f8       $SG59425                   000000014008a7f8     libsrtp-x86_64-x64-vc14-debug-dynamic:null_auth.obj
 0003:00026828       $SG59427                   000000014008a828     libsrtp-x86_64-x64-vc14-debug-dynamic:null_auth.obj
 0003:00026878       $SG59438                   000000014008a878     libsrtp-x86_64-x64-vc14-debug-dynamic:hmac.obj
 0003:00026888       $SG59456                   000000014008a888     libsrtp-x86_64-x64-vc14-debug-dynamic:hmac.obj
 0003:000268b8       $SG59458                   000000014008a8b8     libsrtp-x86_64-x64-vc14-debug-dynamic:hmac.obj
 0003:000268e8       $SG59490                   000000014008a8e8     libsrtp-x86_64-x64-vc14-debug-dynamic:hmac.obj
 0003:000268f8       $SG59509                   000000014008a8f8     libsrtp-x86_64-x64-vc14-debug-dynamic:hmac.obj
 0003:00026908       $SG59537                   000000014008a908     libsrtp-x86_64-x64-vc14-debug-dynamic:hmac.obj
 0003:00026928       $SG59539                   000000014008a928     libsrtp-x86_64-x64-vc14-debug-dynamic:hmac.obj
 0003:00026978       $SG59324                   000000014008a978     libsrtp-x86_64-x64-vc14-debug-dynamic:sha1.obj
 0003:00026990       $SG59404                   000000014008a990     libsrtp-x86_64-x64-vc14-debug-dynamic:sha1.obj
 0003:000269b8       $SG59406                   000000014008a9b8     libsrtp-x86_64-x64-vc14-debug-dynamic:sha1.obj
 0003:000269e8       $SG59473                   000000014008a9e8     libsrtp-x86_64-x64-vc14-debug-dynamic:sha1.obj
 0003:00026a10       $SG59476                   000000014008aa10     libsrtp-x86_64-x64-vc14-debug-dynamic:sha1.obj
 0003:00026c20       ?msg@?3??get_libsrtp_errstr@@9@9 000000014008ac20     pjmedia-x86_64-x64-vc14-debug-dynamic:transport_srtp.obj
 0003:00026c40       libsrtp_initialized        000000014008ac40     pjmedia-x86_64-x64-vc14-debug-dynamic:transport_srtp.obj
 0003:00026c44       $SG23046                   000000014008ac44     pjmedia-x86_64-x64-vc14-debug-dynamic:transport_srtp.obj
 0003:00026c45       $SG23048                   000000014008ac45     pjmedia-x86_64-x64-vc14-debug-dynamic:transport_srtp.obj
 0003:00026c46       $SG23058                   000000014008ac46     pjmedia-x86_64-x64-vc14-debug-dynamic:transport_srtp.obj
 0003:00026c47       $SG23060                   000000014008ac47     pjmedia-x86_64-x64-vc14-debug-dynamic:transport_srtp.obj
 0003:00026c50       event_manager_instance     000000014008ac50     pjmedia-x86_64-x64-vc14-debug-dynamic:event.obj
 0003:00026c60       ?ev_queue@?9??pjmedia_event_publish@@9@9 000000014008ac60     pjmedia-x86_64-x64-vc14-debug-dynamic:event.obj
 0003:00027580       is_initialized             000000014008b580     pjmedia-x86_64-x64-vc14-debug-dynamic:sdp.obj
 0003:00027584       $SG17124                   000000014008b584     pjmedia-x86_64-x64-vc14-debug-dynamic:sdp.obj
 0003:00027590       cis_buf                    000000014008b590     pjmedia-x86_64-x64-vc14-debug-dynamic:sdp.obj
 0003:00027998       cs_digit                   000000014008b998     pjmedia-x86_64-x64-vc14-debug-dynamic:sdp.obj
 0003:000279a8       cs_token                   000000014008b9a8     pjmedia-x86_64-x64-vc14-debug-dynamic:sdp.obj
 0003:00027a90       $SG20878                   000000014008ba90     pjmedia-x86_64-x64-vc14-debug-dynamic:endpoint.obj
 0003:00027a91       $SG21048                   000000014008ba91     pjmedia-x86_64-x64-vc14-debug-dynamic:endpoint.obj
 0003:00027a92       $SG21050                   000000014008ba92     pjmedia-x86_64-x64-vc14-debug-dynamic:endpoint.obj
 0003:00027a93       $SG21052                   000000014008ba93     pjmedia-x86_64-x64-vc14-debug-dynamic:endpoint.obj
 0003:00027a94       $SG21054                   000000014008ba94     pjmedia-x86_64-x64-vc14-debug-dynamic:endpoint.obj
 0003:00027a95       $SG21056                   000000014008ba95     pjmedia-x86_64-x64-vc14-debug-dynamic:endpoint.obj
 0003:00027aa0       initialized                000000014008baa0     pjlib-x86_64-x64-vc14-debug-dynamic:os_core_win32.obj
 0003:00027aa4       atexit_count               000000014008baa4     pjlib-x86_64-x64-vc14-debug-dynamic:os_core_win32.obj
 0003:00027aa8       $SG59961                   000000014008baa8     pjlib-x86_64-x64-vc14-debug-dynamic:os_core_win32.obj
 0003:00027ab0       main_thread                000000014008bab0     pjlib-x86_64-x64-vc14-debug-dynamic:os_core_win32.obj
 0003:00027bb0       critical_section_mutex     000000014008bbb0     pjlib-x86_64-x64-vc14-debug-dynamic:os_core_win32.obj
 0003:00027c10       atexit_func                000000014008bc10     pjlib-x86_64-x64-vc14-debug-dynamic:os_core_win32.obj
 0003:00027d90       err_msg_hnd_cnt            000000014008bd90     pjlib-x86_64-x64-vc14-debug-dynamic:errno.obj
 0003:00027da0       err_msg_hnd                000000014008bda0     pjlib-x86_64-x64-vc14-debug-dynamic:errno.obj
 0003:00027e68       g_last_thread              000000014008be68     pjlib-x86_64-x64-vc14-debug-dynamic:log.obj
 0003:00027e71       $SG60326                   000000014008be71     pjlib-x86_64-x64-vc14-debug-dynamic:sock_common.obj
 0003:00027e72       $SG60330                   000000014008be72     pjlib-x86_64-x64-vc14-debug-dynamic:sock_common.obj
 0003:00027e73       $SG60331                   000000014008be73     pjlib-x86_64-x64-vc14-debug-dynamic:sock_common.obj
 0003:00027e74       $SG60980                   000000014008be74     pjlib-x86_64-x64-vc14-debug-dynamic:sock_common.obj
 0003:00027e75       $SG60981                   000000014008be75     pjlib-x86_64-x64-vc14-debug-dynamic:sock_common.obj
 0003:00027e80       exception_id_names         000000014008be80     pjlib-x86_64-x64-vc14-debug-dynamic:except.obj
 0003:00027f00       ?unknown_name@?1??pj_exception_id_name@@9@9 000000014008bf00     pjlib-x86_64-x64-vc14-debug-dynamic:except.obj
 0003:00027f40       ?buf@?1??pj_gethostname@@9@9 000000014008bf40     pjlib-x86_64-x64-vc14-debug-dynamic:sock_bsd.obj
 0003:00027fc0       ?hostname@?1??pj_gethostname@@9@9 000000014008bfc0     pjlib-x86_64-x64-vc14-debug-dynamic:sock_bsd.obj
 0003:00027ff0       base_time                  000000014008bff0     pjlib-x86_64-x64-vc14-debug-dynamic:os_time_win32.obj
 0003:00028000       stack_based_factory        000000014008c000     pjlib-x86_64-x64-vc14-debug-dynamic:pool_buf.obj
 0003:00028048       is_initialized             000000014008c048     pjlib-x86_64-x64-vc14-debug-dynamic:pool_buf.obj
 0003:00028060       s_hDLL                     000000014008c060     pjlib-x86_64-x64-vc14-debug-dynamic:ip_helper_win32.obj
 0003:00028068       s_pfnGetIpAddrTable        000000014008c068     pjlib-x86_64-x64-vc14-debug-dynamic:ip_helper_win32.obj
 0003:00028070       s_pfnGetAdapterAddresses   000000014008c070     pjlib-x86_64-x64-vc14-debug-dynamic:ip_helper_win32.obj
 0003:00028078       s_pfnGetIpForwardTable     000000014008c078     pjlib-x86_64-x64-vc14-debug-dynamic:ip_helper_win32.obj
 0003:00028080       s_pfnGetIfEntry            000000014008c080     pjlib-x86_64-x64-vc14-debug-dynamic:ip_helper_win32.obj
 0003:00028090       srtp_log_handler           000000014008c090     libsrtp-x86_64-x64-vc14-debug-dynamic:srtp.obj
 0003:00028098       srtp_log_handler_data      000000014008c098     libsrtp-x86_64-x64-vc14-debug-dynamic:srtp.obj
 0003:000280d0       srtp_aes_icm_128_test_case_0_nonce 000000014008c0d0     libsrtp-x86_64-x64-vc14-debug-dynamic:aes_icm.obj
 0003:000280e0       srtp_aes_icm_256_test_case_0_nonce 000000014008c0e0     libsrtp-x86_64-x64-vc14-debug-dynamic:aes_icm.obj
 0003:00028100       GS_ExceptionRecord         000000014008c100     MSVCRTD:gs_report.obj
 0003:000281a0       GS_ContextRecord           000000014008c1a0     MSVCRTD:gs_report.obj
 0003:00028798       ?is_initialized_as_dll@@3_NA 000000014008c798     MSVCRTD:utility.obj
 0003:00028799       ?module_local_atexit_table_initialized@@3_NA 000000014008c799     MSVCRTD:utility.obj
 0003:000287a0       ?module_local_atexit_table@@3U_onexit_table_t@@A 000000014008c7a0     MSVCRTD:utility.obj
 0003:000287b8       ?module_local_at_quick_exit_table@@3U_onexit_table_t@@A 000000014008c7b8     MSVCRTD:utility.obj
 0005:00000f88       .idata$6                   0000000140090f88     ole32:ole32.dll
 0005:00000fd8       .idata$6                   0000000140090fd8     ws2_32:WS2_32.dll
 0005:00001490       .idata$6                   0000000140091490     kernel32:KERNEL32.dll
 0005:00001566       .idata$6                   0000000140091566     vcruntimed:VCRUNTIME140D.dll
 0005:00001876       .idata$6                   0000000140091876     ucrtd:ucrtbased.dll
