 sipecho

 Timestamp is 60aeb74b (Wed May 26 23:02:03 2021)

 Preferred load address is 0000000140000000

 Start         Length     Name                   Class
 0001:00000000 0009dec0H .text$mn                CODE
 0001:0009dec0 00001040H .text$mn$00             CODE
 0001:0009ef00 0000108dH .text$x                 CODE
 0002:00000000 00000110H .CRT$XCA                DATA
 0002:00000110 00000110H .CRT$XCAA               DATA
 0002:00000220 00000110H .CRT$XCZ                DATA
 0002:00000330 00000110H .CRT$XIA                DATA
 0002:00000440 00000110H .CRT$XIAA               DATA
 0002:00000550 00000110H .CRT$XIAC               DATA
 0002:00000660 00000110H .CRT$XIZ                DATA
 0002:00000770 00000110H .CRT$XPA                DATA
 0002:00000880 00000110H .CRT$XPZ                DATA
 0002:00000990 00000110H .CRT$XTA                DATA
 0002:00000aa0 00000110H .CRT$XTZ                DATA
 0002:00000bb0 00001d50H .rdata                  DATA
 0002:00002900 00000110H .rdata$CastGuardVftablesA DATA
 0002:00002a10 0000010cH .rdata$CastGuardVftablesC DATA
 0002:00002b1c 000001fcH .rdata$zzzdbg           DATA
 0002:00002d18 00000110H .rtc$IAA                DATA
 0002:00002e28 00000110H .rtc$IZZ                DATA
 0002:00002f38 00000110H .rtc$TAA                DATA
 0002:00003048 00000110H .rtc$TZZ                DATA
 0002:00003158 00003fa5H .xdata                  DATA
 0002:000070fd 00000000H .edata                  DATA
 0003:00000000 0005ee10H .data                   DATA
 0003:0005ee10 00007961H .bss                    DATA
 0004:00000000 00005328H .pdata                  DATA
 0005:00000000 00000740H .idata$5                DATA
 0005:00000740 00000064H .idata$2                DATA
 0005:000007a4 00000014H .idata$3                DATA
 0005:000007b8 00000740H .idata$4                DATA
 0005:00000ef8 00000a55H .idata$6                DATA
 0006:00000000 00000151H .00cfg                  DATA

  Address         Publics by Value              Rva+Base               Lib:Object

 0000:00000000       __guard_longjmp_count      0000000000000000     <absolute>
 0000:00000000       __arm64x_extra_rfe_table_size 0000000000000000     <absolute>
 0000:00000000       __guard_eh_cont_table      0000000000000000     <absolute>
 0000:00000000       __volatile_metadata        0000000000000000     <absolute>
 0000:00000000       __arm64x_native_entrypoint 0000000000000000     <absolute>
 0000:00000000       __arm64x_redirection_metadata 0000000000000000     <absolute>
 0000:00000000       ___safe_se_handler_table   0000000000000000     <absolute>
 0000:00000000       __guard_check_icall_a64n_fptr 0000000000000000     <absolute>
 0000:00000000       __enclave_config           0000000000000000     <absolute>
 0000:00000000       __hybrid_code_map          0000000000000000     <absolute>
 0000:00000000       __x64_code_ranges_to_entry_points_count 0000000000000000     <absolute>
 0000:00000000       __hybrid_auxiliary_iat_copy 0000000000000000     <absolute>
 0000:00000000       __arm64x_redirection_metadata_count 0000000000000000     <absolute>
 0000:00000000       __guard_iat_table          0000000000000000     <absolute>
 0000:00000000       __guard_longjmp_table      0000000000000000     <absolute>
 0000:00000000       __hybrid_code_map_count    0000000000000000     <absolute>
 0000:00000000       __hybrid_auxiliary_iat     0000000000000000     <absolute>
 0000:00000000       __x64_code_ranges_to_entry_points 0000000000000000     <absolute>
 0000:00000000       ___safe_se_handler_count   0000000000000000     <absolute>
 0000:00000000       __guard_fids_table         0000000000000000     <absolute>
 0000:00000000       __guard_fids_count         0000000000000000     <absolute>
 0000:00000000       __guard_iat_count          0000000000000000     <absolute>
 0000:00000000       __guard_eh_cont_count      0000000000000000     <absolute>
 0000:00000000       __AbsoluteZero             0000000000000000     <absolute>
 0000:00000000       __arm64x_extra_rfe_table   0000000000000000     <absolute>
 0000:00000000       __dynamic_value_reloc_table 0000000000000000     <absolute>
 0000:00000100       __guard_flags              0000000000000100     <absolute>
 0000:00000000       __ImageBase                0000000140000000     <linker-defined>
 0001:00002810       get_snd_options            0000000140003810 f   sipecho.obj
 0001:00002c80       dump_pool_usage            0000000140003c80 f   sipecho.obj
 0001:00004290       main                       0000000140005290 f   sipecho.obj
 0001:00005000       __local_stdio_printf_options 0000000140006000 f i sipecho.obj
 0001:00005010       _vfprintf_l                0000000140006010 f i sipecho.obj
 0001:00005070       _vsnprintf_l               0000000140006070 f i sipecho.obj
 0001:00005110       _vsprintf_l                0000000140006110 f i sipecho.obj
 0001:00005170       printf                     0000000140006170 f i sipecho.obj
 0001:000051e0       sprintf                    00000001400061e0 f i sipecho.obj
 0001:000053f0       pjsip_inv_usage_init       00000001400063f0 f   pjsip-ua-x86_64-x64-vc14-debug-dynamic:sip_inv.obj
 0001:00005540       pjsip_inv_usage_instance   0000000140006540 f   pjsip-ua-x86_64-x64-vc14-debug-dynamic:sip_inv.obj
 0001:00005550       pjsip_inv_create_uac       0000000140006550 f   pjsip-ua-x86_64-x64-vc14-debug-dynamic:sip_inv.obj
 0001:00005850       pjsip_inv_verify_request   0000000140006850 f   pjsip-ua-x86_64-x64-vc14-debug-dynamic:sip_inv.obj
 0001:000058c0       pjsip_inv_verify_request2  00000001400068c0 f   pjsip-ua-x86_64-x64-vc14-debug-dynamic:sip_inv.obj
 0001:00005930       pjsip_inv_verify_request3  0000000140006930 f   pjsip-ua-x86_64-x64-vc14-debug-dynamic:sip_inv.obj
 0001:00006d20       pjsip_inv_create_uas       0000000140007d20 f   pjsip-ua-x86_64-x64-vc14-debug-dynamic:sip_inv.obj
 0001:000071f0       pjsip_inv_add_ref          00000001400081f0 f   pjsip-ua-x86_64-x64-vc14-debug-dynamic:sip_inv.obj
 0001:00007270       pjsip_inv_dec_ref          0000000140008270 f   pjsip-ua-x86_64-x64-vc14-debug-dynamic:sip_inv.obj
 0001:00007330       pjsip_inv_terminate        0000000140008330 f   pjsip-ua-x86_64-x64-vc14-debug-dynamic:sip_inv.obj
 0001:00007460       pjsip_inv_uac_restart      0000000140008460 f   pjsip-ua-x86_64-x64-vc14-debug-dynamic:sip_inv.obj
 0001:00007550       pjsip_inv_process_redirect 0000000140008550 f   pjsip-ua-x86_64-x64-vc14-debug-dynamic:sip_inv.obj
 0001:00007a60       pjsip_inv_invite           0000000140008a60 f   pjsip-ua-x86_64-x64-vc14-debug-dynamic:sip_inv.obj
 0001:00007f00       pjsip_inv_initial_answer   0000000140008f00 f   pjsip-ua-x86_64-x64-vc14-debug-dynamic:sip_inv.obj
 0001:00008180       pjsip_inv_answer           0000000140009180 f   pjsip-ua-x86_64-x64-vc14-debug-dynamic:sip_inv.obj
 0001:000083b0       pjsip_inv_set_local_sdp    00000001400093b0 f   pjsip-ua-x86_64-x64-vc14-debug-dynamic:sip_inv.obj
 0001:000084f0       pjsip_inv_set_sdp_answer   00000001400094f0 f   pjsip-ua-x86_64-x64-vc14-debug-dynamic:sip_inv.obj
 0001:000085a0       pjsip_inv_end_session      00000001400095a0 f   pjsip-ua-x86_64-x64-vc14-debug-dynamic:sip_inv.obj
 0001:000088c0       pjsip_inv_cancel_reinvite  00000001400098c0 f   pjsip-ua-x86_64-x64-vc14-debug-dynamic:sip_inv.obj
 0001:00008a60       pjsip_inv_reinvite         0000000140009a60 f   pjsip-ua-x86_64-x64-vc14-debug-dynamic:sip_inv.obj
 0001:00008d60       pjsip_inv_update           0000000140009d60 f   pjsip-ua-x86_64-x64-vc14-debug-dynamic:sip_inv.obj
 0001:00009190       pjsip_inv_create_ack       000000014000a190 f   pjsip-ua-x86_64-x64-vc14-debug-dynamic:sip_inv.obj
 0001:00009330       pjsip_inv_send_msg         000000014000a330 f   pjsip-ua-x86_64-x64-vc14-debug-dynamic:sip_inv.obj
 0001:00009670       pjsip_dlg_get_inv_session  000000014000a670 f   pjsip-ua-x86_64-x64-vc14-debug-dynamic:sip_inv.obj
 0001:00009690       pjsip_inv_state_name       000000014000a690 f   pjsip-ua-x86_64-x64-vc14-debug-dynamic:sip_inv.obj
 0001:00009700       pjsip_create_sdp_body      000000014000a700 f   pjsip-ua-x86_64-x64-vc14-debug-dynamic:sip_inv.obj
 0001:00009800       pjsip_rdata_get_sdp_info   000000014000a800 f   pjsip-ua-x86_64-x64-vc14-debug-dynamic:sip_inv.obj
 0001:000120d0       _snprintf                  00000001400130d0 f i pjsip-ua-x86_64-x64-vc14-debug-dynamic:sip_inv.obj
 0001:00012140       _vsnprintf                 0000000140013140 f i pjsip-ua-x86_64-x64-vc14-debug-dynamic:sip_inv.obj
 0001:000122a0       pjsip_get_prack_method     00000001400132a0 f   pjsip-ua-x86_64-x64-vc14-debug-dynamic:sip_100rel.obj
 0001:000122b0       pjsip_100rel_init_module   00000001400132b0 f   pjsip-ua-x86_64-x64-vc14-debug-dynamic:sip_100rel.obj
 0001:000122f0       pjsip_100rel_attach        00000001400132f0 f   pjsip-ua-x86_64-x64-vc14-debug-dynamic:sip_100rel.obj
 0001:000123c0       pjsip_100rel_is_reliable   00000001400133c0 f   pjsip-ua-x86_64-x64-vc14-debug-dynamic:sip_100rel.obj
 0001:00012470       pjsip_100rel_create_prack  0000000140013470 f   pjsip-ua-x86_64-x64-vc14-debug-dynamic:sip_100rel.obj
 0001:000129a0       pjsip_100rel_send_prack    00000001400139a0 f   pjsip-ua-x86_64-x64-vc14-debug-dynamic:sip_100rel.obj
 0001:00012a40       pjsip_100rel_on_rx_prack   0000000140013a40 f   pjsip-ua-x86_64-x64-vc14-debug-dynamic:sip_100rel.obj
 0001:00012dc0       pjsip_100rel_tx_response   0000000140013dc0 f   pjsip-ua-x86_64-x64-vc14-debug-dynamic:sip_100rel.obj
 0001:000135a0       pjsip_100rel_end_session   00000001400145a0 f   pjsip-ua-x86_64-x64-vc14-debug-dynamic:sip_100rel.obj
 0001:00014430       pjsip_timer_init_module    0000000140015430 f   pjsip-ua-x86_64-x64-vc14-debug-dynamic:sip_timer.obj
 0001:00014590       pjsip_timer_setting_default 0000000140015590 f   pjsip-ua-x86_64-x64-vc14-debug-dynamic:sip_timer.obj
 0001:000145d0       pjsip_timer_init_session   00000001400155d0 f   pjsip-ua-x86_64-x64-vc14-debug-dynamic:sip_timer.obj
 0001:00014760       pjsip_sess_expires_hdr_create 0000000140015760 f   pjsip-ua-x86_64-x64-vc14-debug-dynamic:sip_timer.obj
 0001:00014830       pjsip_min_se_hdr_create    0000000140015830 f   pjsip-ua-x86_64-x64-vc14-debug-dynamic:sip_timer.obj
 0001:000148e0       pjsip_timer_update_req     00000001400158e0 f   pjsip-ua-x86_64-x64-vc14-debug-dynamic:sip_timer.obj
 0001:00014a70       pjsip_timer_process_resp   0000000140015a70 f   pjsip-ua-x86_64-x64-vc14-debug-dynamic:sip_timer.obj
 0001:000151d0       pjsip_timer_handle_refresh_error 00000001400161d0 f   pjsip-ua-x86_64-x64-vc14-debug-dynamic:sip_timer.obj
 0001:000154e0       pjsip_timer_process_req    00000001400164e0 f   pjsip-ua-x86_64-x64-vc14-debug-dynamic:sip_timer.obj
 0001:000159a0       pjsip_timer_update_resp    00000001400169a0 f   pjsip-ua-x86_64-x64-vc14-debug-dynamic:sip_timer.obj
 0001:00015c20       pjsip_timer_end_session    0000000140016c20 f   pjsip-ua-x86_64-x64-vc14-debug-dynamic:sip_timer.obj
 0001:00017d00       pjsip_get_invite_method    0000000140018d00 f   pjsip-core-x86_64-x64-vc14-debug-dynamic:sip_msg.obj
 0001:00017d10       pjsip_get_cancel_method    0000000140018d10 f   pjsip-core-x86_64-x64-vc14-debug-dynamic:sip_msg.obj
 0001:00017d20       pjsip_get_ack_method       0000000140018d20 f   pjsip-core-x86_64-x64-vc14-debug-dynamic:sip_msg.obj
 0001:00017d30       pjsip_get_bye_method       0000000140018d30 f   pjsip-core-x86_64-x64-vc14-debug-dynamic:sip_msg.obj
 0001:00017d40       pjsip_get_register_method  0000000140018d40 f   pjsip-core-x86_64-x64-vc14-debug-dynamic:sip_msg.obj
 0001:00017d50       pjsip_get_options_method   0000000140018d50 f   pjsip-core-x86_64-x64-vc14-debug-dynamic:sip_msg.obj
 0001:00017d60       pjsip_method_init          0000000140018d60 f   pjsip-core-x86_64-x64-vc14-debug-dynamic:sip_msg.obj
 0001:00017da0       pjsip_method_init_np       0000000140018da0 f   pjsip-core-x86_64-x64-vc14-debug-dynamic:sip_msg.obj
 0001:00017e70       pjsip_method_set           0000000140018e70 f   pjsip-core-x86_64-x64-vc14-debug-dynamic:sip_msg.obj
 0001:00017ee0       pjsip_method_copy          0000000140018ee0 f   pjsip-core-x86_64-x64-vc14-debug-dynamic:sip_msg.obj
 0001:00017f60       pjsip_method_cmp           0000000140018f60 f   pjsip-core-x86_64-x64-vc14-debug-dynamic:sip_msg.obj
 0001:00017fe0       pjsip_hdr_clone            0000000140018fe0 f   pjsip-core-x86_64-x64-vc14-debug-dynamic:sip_msg.obj
 0001:00018020       pjsip_hdr_shallow_clone    0000000140019020 f   pjsip-core-x86_64-x64-vc14-debug-dynamic:sip_msg.obj
 0001:00018060       pjsip_hdr_print_on         0000000140019060 f   pjsip-core-x86_64-x64-vc14-debug-dynamic:sip_msg.obj
 0001:000180f0       pjsip_get_status_text      00000001400190f0 f   pjsip-core-x86_64-x64-vc14-debug-dynamic:sip_msg.obj
 0001:00018170       pjsip_media_type_init      0000000140019170 f   pjsip-core-x86_64-x64-vc14-debug-dynamic:sip_msg.obj
 0001:000181f0       pjsip_media_type_init2     00000001400191f0 f   pjsip-core-x86_64-x64-vc14-debug-dynamic:sip_msg.obj
 0001:000182b0       pjsip_media_type_cmp       00000001400192b0 f   pjsip-core-x86_64-x64-vc14-debug-dynamic:sip_msg.obj
 0001:000183b0       pjsip_media_type_cp        00000001400193b0 f   pjsip-core-x86_64-x64-vc14-debug-dynamic:sip_msg.obj
 0001:00018480       pjsip_media_type_print     0000000140019480 f   pjsip-core-x86_64-x64-vc14-debug-dynamic:sip_msg.obj
 0001:000184b0       pjsip_print_text_body      00000001400194b0 f   pjsip-core-x86_64-x64-vc14-debug-dynamic:sip_msg.obj
 0001:00018510       pjsip_clone_text_data      0000000140019510 f   pjsip-core-x86_64-x64-vc14-debug-dynamic:sip_msg.obj
 0001:00018580       pjsip_msg_body_copy        0000000140019580 f   pjsip-core-x86_64-x64-vc14-debug-dynamic:sip_msg.obj
 0001:00018660       pjsip_msg_body_clone       0000000140019660 f   pjsip-core-x86_64-x64-vc14-debug-dynamic:sip_msg.obj
 0001:00018700       pjsip_msg_body_create      0000000140019700 f   pjsip-core-x86_64-x64-vc14-debug-dynamic:sip_msg.obj
 0001:00018890       pjsip_msg_create           0000000140019890 f   pjsip-core-x86_64-x64-vc14-debug-dynamic:sip_msg.obj
 0001:000188f0       pjsip_msg_clone            00000001400198f0 f   pjsip-core-x86_64-x64-vc14-debug-dynamic:sip_msg.obj
 0001:00018a20       pjsip_msg_find_hdr         0000000140019a20 f   pjsip-core-x86_64-x64-vc14-debug-dynamic:sip_msg.obj
 0001:00018aa0       pjsip_msg_find_hdr_by_name 0000000140019aa0 f   pjsip-core-x86_64-x64-vc14-debug-dynamic:sip_msg.obj
 0001:00018b30       pjsip_msg_find_hdr_by_names 0000000140019b30 f   pjsip-core-x86_64-x64-vc14-debug-dynamic:sip_msg.obj
 0001:00018bf0       pjsip_msg_find_remove_hdr  0000000140019bf0 f   pjsip-core-x86_64-x64-vc14-debug-dynamic:sip_msg.obj
 0001:00018c70       pjsip_msg_print            0000000140019c70 f   pjsip-core-x86_64-x64-vc14-debug-dynamic:sip_msg.obj
 0001:00019410       pjsip_generic_string_hdr_create 000000014001a410 f   pjsip-core-x86_64-x64-vc14-debug-dynamic:sip_msg.obj
 0001:00019460       pjsip_generic_string_hdr_init 000000014001a460 f   pjsip-core-x86_64-x64-vc14-debug-dynamic:sip_msg.obj
 0001:00019500       pjsip_generic_string_hdr_init2 000000014001a500 f   pjsip-core-x86_64-x64-vc14-debug-dynamic:sip_msg.obj
 0001:000195b0       pjsip_generic_int_hdr_create 000000014001a5b0 f   pjsip-core-x86_64-x64-vc14-debug-dynamic:sip_msg.obj
 0001:00019600       pjsip_generic_int_hdr_init 000000014001a600 f   pjsip-core-x86_64-x64-vc14-debug-dynamic:sip_msg.obj
 0001:000196a0       pjsip_generic_array_hdr_create 000000014001a6a0 f   pjsip-core-x86_64-x64-vc14-debug-dynamic:sip_msg.obj
 0001:000196f0       pjsip_generic_array_hdr_init 000000014001a6f0 f   pjsip-core-x86_64-x64-vc14-debug-dynamic:sip_msg.obj
 0001:00019780       pjsip_accept_hdr_create    000000014001a780 f   pjsip-core-x86_64-x64-vc14-debug-dynamic:sip_msg.obj
 0001:000197c0       pjsip_accept_hdr_init      000000014001a7c0 f   pjsip-core-x86_64-x64-vc14-debug-dynamic:sip_msg.obj
 0001:00019810       pjsip_allow_hdr_create     000000014001a810 f   pjsip-core-x86_64-x64-vc14-debug-dynamic:sip_msg.obj
 0001:00019850       pjsip_allow_hdr_init       000000014001a850 f   pjsip-core-x86_64-x64-vc14-debug-dynamic:sip_msg.obj
 0001:000198a0       pjsip_cid_hdr_create       000000014001a8a0 f   pjsip-core-x86_64-x64-vc14-debug-dynamic:sip_msg.obj
 0001:000198e0       pjsip_cid_hdr_init         000000014001a8e0 f   pjsip-core-x86_64-x64-vc14-debug-dynamic:sip_msg.obj
 0001:00019920       pjsip_clen_hdr_create      000000014001a920 f   pjsip-core-x86_64-x64-vc14-debug-dynamic:sip_msg.obj
 0001:00019960       pjsip_clen_hdr_init        000000014001a960 f   pjsip-core-x86_64-x64-vc14-debug-dynamic:sip_msg.obj
 0001:000199b0       pjsip_cseq_hdr_create      000000014001a9b0 f   pjsip-core-x86_64-x64-vc14-debug-dynamic:sip_msg.obj
 0001:000199f0       pjsip_cseq_hdr_init        000000014001a9f0 f   pjsip-core-x86_64-x64-vc14-debug-dynamic:sip_msg.obj
 0001:00019a60       pjsip_contact_hdr_create   000000014001aa60 f   pjsip-core-x86_64-x64-vc14-debug-dynamic:sip_msg.obj
 0001:00019aa0       pjsip_contact_hdr_init     000000014001aaa0 f   pjsip-core-x86_64-x64-vc14-debug-dynamic:sip_msg.obj
 0001:00019b10       pjsip_ctype_hdr_create     000000014001ab10 f   pjsip-core-x86_64-x64-vc14-debug-dynamic:sip_msg.obj
 0001:00019b50       pjsip_ctype_hdr_init       000000014001ab50 f   pjsip-core-x86_64-x64-vc14-debug-dynamic:sip_msg.obj
 0001:00019bb0       pjsip_expires_hdr_create   000000014001abb0 f   pjsip-core-x86_64-x64-vc14-debug-dynamic:sip_msg.obj
 0001:00019bf0       pjsip_expires_hdr_init     000000014001abf0 f   pjsip-core-x86_64-x64-vc14-debug-dynamic:sip_msg.obj
 0001:00019c40       pjsip_from_hdr_create      000000014001ac40 f   pjsip-core-x86_64-x64-vc14-debug-dynamic:sip_msg.obj
 0001:00019c80       pjsip_from_hdr_init        000000014001ac80 f   pjsip-core-x86_64-x64-vc14-debug-dynamic:sip_msg.obj
 0001:00019ce0       pjsip_to_hdr_create        000000014001ace0 f   pjsip-core-x86_64-x64-vc14-debug-dynamic:sip_msg.obj
 0001:00019d20       pjsip_to_hdr_init          000000014001ad20 f   pjsip-core-x86_64-x64-vc14-debug-dynamic:sip_msg.obj
 0001:00019d80       pjsip_fromto_hdr_set_from  000000014001ad80 f   pjsip-core-x86_64-x64-vc14-debug-dynamic:sip_msg.obj
 0001:00019e10       pjsip_fromto_hdr_set_to    000000014001ae10 f   pjsip-core-x86_64-x64-vc14-debug-dynamic:sip_msg.obj
 0001:00019ea0       pjsip_max_fwd_hdr_create   000000014001aea0 f   pjsip-core-x86_64-x64-vc14-debug-dynamic:sip_msg.obj
 0001:00019ee0       pjsip_max_fwd_hdr_init     000000014001aee0 f   pjsip-core-x86_64-x64-vc14-debug-dynamic:sip_msg.obj
 0001:00019f30       pjsip_min_expires_hdr_create 000000014001af30 f   pjsip-core-x86_64-x64-vc14-debug-dynamic:sip_msg.obj
 0001:00019f70       pjsip_min_expires_hdr_init 000000014001af70 f   pjsip-core-x86_64-x64-vc14-debug-dynamic:sip_msg.obj
 0001:00019fc0       pjsip_rr_hdr_create        000000014001afc0 f   pjsip-core-x86_64-x64-vc14-debug-dynamic:sip_msg.obj
 0001:0001a000       pjsip_rr_hdr_init          000000014001b000 f   pjsip-core-x86_64-x64-vc14-debug-dynamic:sip_msg.obj
 0001:0001a060       pjsip_route_hdr_create     000000014001b060 f   pjsip-core-x86_64-x64-vc14-debug-dynamic:sip_msg.obj
 0001:0001a0a0       pjsip_route_hdr_init       000000014001b0a0 f   pjsip-core-x86_64-x64-vc14-debug-dynamic:sip_msg.obj
 0001:0001a100       pjsip_routing_hdr_set_rr   000000014001b100 f   pjsip-core-x86_64-x64-vc14-debug-dynamic:sip_msg.obj
 0001:0001a180       pjsip_routing_hdr_set_route 000000014001b180 f   pjsip-core-x86_64-x64-vc14-debug-dynamic:sip_msg.obj
 0001:0001a200       pjsip_require_hdr_create   000000014001b200 f   pjsip-core-x86_64-x64-vc14-debug-dynamic:sip_msg.obj
 0001:0001a240       pjsip_require_hdr_init     000000014001b240 f   pjsip-core-x86_64-x64-vc14-debug-dynamic:sip_msg.obj
 0001:0001a290       pjsip_retry_after_hdr_create 000000014001b290 f   pjsip-core-x86_64-x64-vc14-debug-dynamic:sip_msg.obj
 0001:0001a2d0       pjsip_retry_after_hdr_init 000000014001b2d0 f   pjsip-core-x86_64-x64-vc14-debug-dynamic:sip_msg.obj
 0001:0001a340       pjsip_supported_hdr_create 000000014001b340 f   pjsip-core-x86_64-x64-vc14-debug-dynamic:sip_msg.obj
 0001:0001a380       pjsip_supported_hdr_init   000000014001b380 f   pjsip-core-x86_64-x64-vc14-debug-dynamic:sip_msg.obj
 0001:0001a3d0       pjsip_unsupported_hdr_create 000000014001b3d0 f   pjsip-core-x86_64-x64-vc14-debug-dynamic:sip_msg.obj
 0001:0001a410       pjsip_unsupported_hdr_init 000000014001b410 f   pjsip-core-x86_64-x64-vc14-debug-dynamic:sip_msg.obj
 0001:0001a460       pjsip_via_hdr_create       000000014001b460 f   pjsip-core-x86_64-x64-vc14-debug-dynamic:sip_msg.obj
 0001:0001a4a0       pjsip_via_hdr_init         000000014001b4a0 f   pjsip-core-x86_64-x64-vc14-debug-dynamic:sip_msg.obj
 0001:0001a520       pjsip_warning_hdr_create   000000014001b520 f   pjsip-core-x86_64-x64-vc14-debug-dynamic:sip_msg.obj
 0001:0001a600       pjsip_warning_hdr_create_from_status 000000014001b600 f   pjsip-core-x86_64-x64-vc14-debug-dynamic:sip_msg.obj
 0001:0001fba0       pjsip_transport_register_type 0000000140020ba0 f   pjsip-core-x86_64-x64-vc14-debug-dynamic:sip_transport.obj
 0001:0001fe00       pjsip_transport_get_type_from_name 0000000140020e00 f   pjsip-core-x86_64-x64-vc14-debug-dynamic:sip_transport.obj
 0001:0001feb0       pjsip_transport_get_type_from_flag 0000000140020eb0 f   pjsip-core-x86_64-x64-vc14-debug-dynamic:sip_transport.obj
 0001:0001ff40       pjsip_transport_type_get_af 0000000140020f40 f   pjsip-core-x86_64-x64-vc14-debug-dynamic:sip_transport.obj
 0001:0001ff70       pjsip_transport_get_flag_from_type 0000000140020f70 f   pjsip-core-x86_64-x64-vc14-debug-dynamic:sip_transport.obj
 0001:0001ff90       pjsip_transport_get_default_port_for_type 0000000140020f90 f   pjsip-core-x86_64-x64-vc14-debug-dynamic:sip_transport.obj
 0001:0001ffb0       pjsip_transport_get_type_name 0000000140020fb0 f   pjsip-core-x86_64-x64-vc14-debug-dynamic:sip_transport.obj
 0001:0001ffd0       pjsip_transport_get_type_desc 0000000140020fd0 f   pjsip-core-x86_64-x64-vc14-debug-dynamic:sip_transport.obj
 0001:0001fff0       pjsip_tpselector_add_ref   0000000140020ff0 f   pjsip-core-x86_64-x64-vc14-debug-dynamic:sip_transport.obj
 0001:00020040       pjsip_tpselector_dec_ref   0000000140021040 f   pjsip-core-x86_64-x64-vc14-debug-dynamic:sip_transport.obj
 0001:00020090       pjsip_rx_data_get_info     0000000140021090 f   pjsip-core-x86_64-x64-vc14-debug-dynamic:sip_transport.obj
 0001:00020190       pjsip_rx_data_clone        0000000140021190 f   pjsip-core-x86_64-x64-vc14-debug-dynamic:sip_transport.obj
 0001:000205d0       pjsip_rx_data_free_cloned  00000001400215d0 f   pjsip-core-x86_64-x64-vc14-debug-dynamic:sip_transport.obj
 0001:00020640       pjsip_tx_data_create       0000000140021640 f   pjsip-core-x86_64-x64-vc14-debug-dynamic:sip_transport.obj
 0001:00020830       pjsip_tx_data_add_ref      0000000140021830 f   pjsip-core-x86_64-x64-vc14-debug-dynamic:sip_transport.obj
 0001:00020860       pjsip_tx_data_dec_ref      0000000140021860 f   pjsip-core-x86_64-x64-vc14-debug-dynamic:sip_transport.obj
 0001:00020920       pjsip_tx_data_encode       0000000140021920 f   pjsip-core-x86_64-x64-vc14-debug-dynamic:sip_transport.obj
 0001:00020af0       pjsip_tx_data_is_valid     0000000140021af0 f   pjsip-core-x86_64-x64-vc14-debug-dynamic:sip_transport.obj
 0001:00020b40       pjsip_tx_data_invalidate_msg 0000000140021b40 f   pjsip-core-x86_64-x64-vc14-debug-dynamic:sip_transport.obj
 0001:00020b80       pjsip_tx_data_get_info     0000000140021b80 f   pjsip-core-x86_64-x64-vc14-debug-dynamic:sip_transport.obj
 0001:00020c60       pjsip_tx_data_set_transport 0000000140021c60 f   pjsip-core-x86_64-x64-vc14-debug-dynamic:sip_transport.obj
 0001:00020d30       pjsip_tx_data_clone        0000000140021d30 f   pjsip-core-x86_64-x64-vc14-debug-dynamic:sip_transport.obj
 0001:00020ee0       pjsip_transport_register   0000000140021ee0 f   pjsip-core-x86_64-x64-vc14-debug-dynamic:sip_transport.obj
 0001:000210e0       pjsip_transport_shutdown   00000001400220e0 f   pjsip-core-x86_64-x64-vc14-debug-dynamic:sip_transport.obj
 0001:00021100       pjsip_transport_shutdown2  0000000140022100 f   pjsip-core-x86_64-x64-vc14-debug-dynamic:sip_transport.obj
 0001:00021290       pjsip_transport_destroy    0000000140022290 f   pjsip-core-x86_64-x64-vc14-debug-dynamic:sip_transport.obj
 0001:00021350       pjsip_transport_add_ref    0000000140022350 f   pjsip-core-x86_64-x64-vc14-debug-dynamic:sip_transport.obj
 0001:000214c0       pjsip_transport_dec_ref    00000001400224c0 f   pjsip-core-x86_64-x64-vc14-debug-dynamic:sip_transport.obj
 0001:00021750       pjsip_tpmgr_receive_packet 0000000140022750 f   pjsip-core-x86_64-x64-vc14-debug-dynamic:sip_transport.obj
 0001:00022160       pjsip_tpmgr_register_tpfactory 0000000140023160 f   pjsip-core-x86_64-x64-vc14-debug-dynamic:sip_transport.obj
 0001:00022220       pjsip_tpmgr_unregister_tpfactory 0000000140023220 f   pjsip-core-x86_64-x64-vc14-debug-dynamic:sip_transport.obj
 0001:000222a0       pjsip_tpmgr_create         00000001400232a0 f   pjsip-core-x86_64-x64-vc14-debug-dynamic:sip_transport.obj
 0001:00022580       pjsip_tpmgr_find_local_addr 0000000140023580 f   pjsip-core-x86_64-x64-vc14-debug-dynamic:sip_transport.obj
 0001:00022630       pjsip_tpmgr_fla2_param_default 0000000140023630 f   pjsip-core-x86_64-x64-vc14-debug-dynamic:sip_transport.obj
 0001:00022660       pjsip_tpmgr_find_local_addr2 0000000140023660 f   pjsip-core-x86_64-x64-vc14-debug-dynamic:sip_transport.obj
 0001:00022cd0       pjsip_tpmgr_get_transport_count 0000000140023cd0 f   pjsip-core-x86_64-x64-vc14-debug-dynamic:sip_transport.obj
 0001:00022d80       pjsip_tpmgr_destroy        0000000140023d80 f   pjsip-core-x86_64-x64-vc14-debug-dynamic:sip_transport.obj
 0001:00023000       pjsip_tpmgr_dump_transports 0000000140024000 f   pjsip-core-x86_64-x64-vc14-debug-dynamic:sip_transport.obj
 0001:00023350       pjsip_tpmgr_acquire_transport 0000000140024350 f   pjsip-core-x86_64-x64-vc14-debug-dynamic:sip_transport.obj
 0001:000233b0       pjsip_tpmgr_acquire_transport2 00000001400243b0 f   pjsip-core-x86_64-x64-vc14-debug-dynamic:sip_transport.obj
 0001:00023aa0       pjsip_transport_send       0000000140024aa0 f   pjsip-core-x86_64-x64-vc14-debug-dynamic:sip_transport.obj
 0001:00023d30       pjsip_tpmgr_send_raw       0000000140024d30 f   pjsip-core-x86_64-x64-vc14-debug-dynamic:sip_transport.obj
 0001:00023f50       pjsip_tpmgr_set_state_cb   0000000140024f50 f   pjsip-core-x86_64-x64-vc14-debug-dynamic:sip_transport.obj
 0001:00023fc0       pjsip_tpmgr_get_state_cb   0000000140024fc0 f   pjsip-core-x86_64-x64-vc14-debug-dynamic:sip_transport.obj
 0001:00024020       pjsip_transport_add_state_listener 0000000140025020 f   pjsip-core-x86_64-x64-vc14-debug-dynamic:sip_transport.obj
 0001:00024190       pjsip_transport_remove_state_listener 0000000140025190 f   pjsip-core-x86_64-x64-vc14-debug-dynamic:sip_transport.obj
 0001:000242f0       pjsip_tpmgr_set_drop_data_cb 00000001400252f0 f   pjsip-core-x86_64-x64-vc14-debug-dynamic:sip_transport.obj
 0001:000264a0       pjsip_endpt_create         00000001400274a0 f   pjsip-core-x86_64-x64-vc14-debug-dynamic:sip_endpoint.obj
 0001:00026950       pjsip_endpt_destroy        0000000140027950 f   pjsip-core-x86_64-x64-vc14-debug-dynamic:sip_endpoint.obj
 0001:00026b00       pjsip_endpt_name           0000000140027b00 f   pjsip-core-x86_64-x64-vc14-debug-dynamic:sip_endpoint.obj
 0001:00026b20       pjsip_endpt_handle_events  0000000140027b20 f   pjsip-core-x86_64-x64-vc14-debug-dynamic:sip_endpoint.obj
 0001:00026b50       pjsip_endpt_handle_events2 0000000140027b50 f   pjsip-core-x86_64-x64-vc14-debug-dynamic:sip_endpoint.obj
 0001:00026d30       pjsip_endpt_schedule_timer_dbg 0000000140027d30 f   pjsip-core-x86_64-x64-vc14-debug-dynamic:sip_endpoint.obj
 0001:00026d90       pjsip_endpt_schedule_timer_w_grp_lock_dbg 0000000140027d90 f   pjsip-core-x86_64-x64-vc14-debug-dynamic:sip_endpoint.obj
 0001:00026e00       pjsip_endpt_cancel_timer   0000000140027e00 f   pjsip-core-x86_64-x64-vc14-debug-dynamic:sip_endpoint.obj
 0001:00026e40       pjsip_endpt_get_timer_heap 0000000140027e40 f   pjsip-core-x86_64-x64-vc14-debug-dynamic:sip_endpoint.obj
 0001:00026e60       pjsip_endpt_register_module 0000000140027e60 f   pjsip-core-x86_64-x64-vc14-debug-dynamic:sip_endpoint.obj
 0001:00027100       pjsip_endpt_unregister_module 0000000140028100 f   pjsip-core-x86_64-x64-vc14-debug-dynamic:sip_endpoint.obj
 0001:00027340       pjsip_process_rdata_param_default 0000000140028340 f   pjsip-core-x86_64-x64-vc14-debug-dynamic:sip_endpoint.obj
 0001:00027370       pjsip_endpt_process_rx_data 0000000140028370 f   pjsip-core-x86_64-x64-vc14-debug-dynamic:sip_endpoint.obj
 0001:00027660       pjsip_endpt_create_pool    0000000140028660 f   pjsip-core-x86_64-x64-vc14-debug-dynamic:sip_endpoint.obj
 0001:000276f0       pjsip_endpt_release_pool   00000001400286f0 f   pjsip-core-x86_64-x64-vc14-debug-dynamic:sip_endpoint.obj
 0001:00027720       pjsip_endpt_create_tdata   0000000140028720 f   pjsip-core-x86_64-x64-vc14-debug-dynamic:sip_endpoint.obj
 0001:00027750       pjsip_endpt_create_resolver 0000000140028750 f   pjsip-core-x86_64-x64-vc14-debug-dynamic:sip_endpoint.obj
 0001:000277f0       pjsip_endpt_set_resolver   00000001400287f0 f   pjsip-core-x86_64-x64-vc14-debug-dynamic:sip_endpoint.obj
 0001:00027820       pjsip_endpt_set_ext_resolver 0000000140028820 f   pjsip-core-x86_64-x64-vc14-debug-dynamic:sip_endpoint.obj
 0001:00027850       pjsip_endpt_get_resolver   0000000140028850 f   pjsip-core-x86_64-x64-vc14-debug-dynamic:sip_endpoint.obj
 0001:000278b0       pjsip_endpt_resolve        00000001400288b0 f   pjsip-core-x86_64-x64-vc14-debug-dynamic:sip_endpoint.obj
 0001:00027900       pjsip_endpt_get_tpmgr      0000000140028900 f   pjsip-core-x86_64-x64-vc14-debug-dynamic:sip_endpoint.obj
 0001:00027920       pjsip_endpt_get_ioqueue    0000000140028920 f   pjsip-core-x86_64-x64-vc14-debug-dynamic:sip_endpoint.obj
 0001:00027940       pjsip_endpt_acquire_transport 0000000140028940 f   pjsip-core-x86_64-x64-vc14-debug-dynamic:sip_endpoint.obj
 0001:000279a0       pjsip_endpt_acquire_transport2 00000001400289a0 f   pjsip-core-x86_64-x64-vc14-debug-dynamic:sip_endpoint.obj
 0001:00027a00       pjsip_endpt_get_capability 0000000140028a00 f   pjsip-core-x86_64-x64-vc14-debug-dynamic:sip_endpoint.obj
 0001:00027af0       pjsip_endpt_has_capability 0000000140028af0 f   pjsip-core-x86_64-x64-vc14-debug-dynamic:sip_endpoint.obj
 0001:00027bc0       pjsip_endpt_add_capability 0000000140028bc0 f   pjsip-core-x86_64-x64-vc14-debug-dynamic:sip_endpoint.obj
 0001:00027df0       pjsip_endpt_get_request_headers 0000000140028df0 f   pjsip-core-x86_64-x64-vc14-debug-dynamic:sip_endpoint.obj
 0001:00027e10       pjsip_endpt_dump           0000000140028e10 f   pjsip-core-x86_64-x64-vc14-debug-dynamic:sip_endpoint.obj
 0001:00027f30       pjsip_endpt_atexit         0000000140028f30 f   pjsip-core-x86_64-x64-vc14-debug-dynamic:sip_endpoint.obj
 0001:00027ff0       pjsip_endpt_log_error      0000000140028ff0 f   pjsip-core-x86_64-x64-vc14-debug-dynamic:sip_endpoint.obj
 0001:00029270       pjsip_target_set_add_uri   000000014002a270 f   pjsip-core-x86_64-x64-vc14-debug-dynamic:sip_util.obj
 0001:00029400       pjsip_target_set_add_from_msg 000000014002a400 f   pjsip-core-x86_64-x64-vc14-debug-dynamic:sip_util.obj
 0001:00029530       pjsip_target_set_get_next  000000014002a530 f   pjsip-core-x86_64-x64-vc14-debug-dynamic:sip_util.obj
 0001:000295d0       pjsip_target_set_set_current 000000014002a5d0 f   pjsip-core-x86_64-x64-vc14-debug-dynamic:sip_util.obj
 0001:000296a0       pjsip_target_assign_status 000000014002a6a0 f   pjsip-core-x86_64-x64-vc14-debug-dynamic:sip_util.obj
 0001:00029760       pjsip_endpt_create_request 000000014002a760 f   pjsip-core-x86_64-x64-vc14-debug-dynamic:sip_util.obj
 0001:00029b90       pjsip_endpt_create_request_from_hdr 000000014002ab90 f   pjsip-core-x86_64-x64-vc14-debug-dynamic:sip_util.obj
 0001:00029f30       pjsip_endpt_create_response 000000014002af30 f   pjsip-core-x86_64-x64-vc14-debug-dynamic:sip_util.obj
 0001:0002a3d0       pjsip_endpt_create_ack     000000014002b3d0 f   pjsip-core-x86_64-x64-vc14-debug-dynamic:sip_util.obj
 0001:0002a7c0       pjsip_endpt_create_cancel  000000014002b7c0 f   pjsip-core-x86_64-x64-vc14-debug-dynamic:sip_util.obj
 0001:0002ac50       pjsip_get_dest_info        000000014002bc50 f   pjsip-core-x86_64-x64-vc14-debug-dynamic:sip_util.obj
 0001:0002af30       pjsip_get_request_dest     000000014002bf30 f   pjsip-core-x86_64-x64-vc14-debug-dynamic:sip_util.obj
 0001:0002b050       pjsip_process_route_set    000000014002c050 f   pjsip-core-x86_64-x64-vc14-debug-dynamic:sip_util.obj
 0001:0002b480       pjsip_restore_strict_route_set 000000014002c480 f   pjsip-core-x86_64-x64-vc14-debug-dynamic:sip_util.obj
 0001:0002b5c0       pjsip_endpt_send_request_stateless 000000014002c5c0 f   pjsip-core-x86_64-x64-vc14-debug-dynamic:sip_util.obj
 0001:0002b750       pjsip_endpt_send_raw       000000014002c750 f   pjsip-core-x86_64-x64-vc14-debug-dynamic:sip_util.obj
 0001:0002b7e0       pjsip_endpt_send_raw_to_uri 000000014002c7e0 f   pjsip-core-x86_64-x64-vc14-debug-dynamic:sip_util.obj
 0001:0002ba60       pjsip_get_response_addr    000000014002ca60 f   pjsip-core-x86_64-x64-vc14-debug-dynamic:sip_util.obj
 0001:0002be90       pjsip_endpt_send_response  000000014002ce90 f   pjsip-core-x86_64-x64-vc14-debug-dynamic:sip_util.obj
 0001:0002c040       pjsip_endpt_send_response2 000000014002d040 f   pjsip-core-x86_64-x64-vc14-debug-dynamic:sip_util.obj
 0001:0002c100       pjsip_endpt_respond_stateless 000000014002d100 f   pjsip-core-x86_64-x64-vc14-debug-dynamic:sip_util.obj
 0001:0002c3c0       pjsip_event_str            000000014002d3c0 f   pjsip-core-x86_64-x64-vc14-debug-dynamic:sip_util.obj
 0001:0002e8c0       pjsip_endpt_respond        000000014002f8c0 f   pjsip-core-x86_64-x64-vc14-debug-dynamic:sip_util_statefull.obj
 0001:0002eac0       pjsip_endpt_send_request   000000014002fac0 f   pjsip-core-x86_64-x64-vc14-debug-dynamic:sip_util_statefull.obj
 0001:0002ee00       pjsip_udp_transport_cfg_default 000000014002fe00 f   pjsip-core-x86_64-x64-vc14-debug-dynamic:sip_transport_udp.obj
 0001:0002ee60       pjsip_udp_transport_start2 000000014002fe60 f   pjsip-core-x86_64-x64-vc14-debug-dynamic:sip_transport_udp.obj
 0001:0002f0b0       pjsip_udp_transport_start  00000001400300b0 f   pjsip-core-x86_64-x64-vc14-debug-dynamic:sip_transport_udp.obj
 0001:0002f180       pjsip_udp_transport_start6 0000000140030180 f   pjsip-core-x86_64-x64-vc14-debug-dynamic:sip_transport_udp.obj
 0001:0002f250       pjsip_udp_transport_attach 0000000140030250 f   pjsip-core-x86_64-x64-vc14-debug-dynamic:sip_transport_udp.obj
 0001:0002f2a0       pjsip_udp_transport_attach2 00000001400302a0 f   pjsip-core-x86_64-x64-vc14-debug-dynamic:sip_transport_udp.obj
 0001:0002f2f0       pjsip_udp_transport_get_socket 00000001400302f0 f   pjsip-core-x86_64-x64-vc14-debug-dynamic:sip_transport_udp.obj
 0001:0002f360       pjsip_udp_transport_pause  0000000140030360 f   pjsip-core-x86_64-x64-vc14-debug-dynamic:sip_transport_udp.obj
 0001:0002f570       pjsip_udp_transport_restart 0000000140030570 f   pjsip-core-x86_64-x64-vc14-debug-dynamic:sip_transport_udp.obj
 0001:0002f5c0       pjsip_udp_transport_restart2 00000001400305c0 f   pjsip-core-x86_64-x64-vc14-debug-dynamic:sip_transport_udp.obj
 0001:00031f30       pjsip_tcp_transport_cfg_default 0000000140032f30 f   pjsip-core-x86_64-x64-vc14-debug-dynamic:sip_transport_tcp.obj
 0001:00031fb0       pjsip_tcp_transport_start  0000000140032fb0 f   pjsip-core-x86_64-x64-vc14-debug-dynamic:sip_transport_tcp.obj
 0001:00032000       pjsip_tcp_transport_start2 0000000140033000 f   pjsip-core-x86_64-x64-vc14-debug-dynamic:sip_transport_tcp.obj
 0001:000320f0       pjsip_tcp_transport_start3 00000001400330f0 f   pjsip-core-x86_64-x64-vc14-debug-dynamic:sip_transport_tcp.obj
 0001:000324a0       pjsip_tcp_transport_get_socket 00000001400334a0 f   pjsip-core-x86_64-x64-vc14-debug-dynamic:sip_transport_tcp.obj
 0001:00032510       pjsip_tcp_transport_lis_start 0000000140033510 f   pjsip-core-x86_64-x64-vc14-debug-dynamic:sip_transport_tcp.obj
 0001:00032870       pjsip_tcp_transport_restart 0000000140033870 f   pjsip-core-x86_64-x64-vc14-debug-dynamic:sip_transport_tcp.obj
 0001:000364f0       pjsip_tsx_layer_init_module 00000001400374f0 f   pjsip-core-x86_64-x64-vc14-debug-dynamic:sip_transaction.obj
 0001:00036740       pjsip_tsx_layer_instance   0000000140037740 f   pjsip-core-x86_64-x64-vc14-debug-dynamic:sip_transaction.obj
 0001:00036750       pjsip_tsx_layer_destroy    0000000140037750 f   pjsip-core-x86_64-x64-vc14-debug-dynamic:sip_transaction.obj
 0001:000367b0       pjsip_tsx_layer_get_tsx_count 00000001400377b0 f   pjsip-core-x86_64-x64-vc14-debug-dynamic:sip_transaction.obj
 0001:00036830       pjsip_tsx_layer_find_tsx   0000000140037830 f   pjsip-core-x86_64-x64-vc14-debug-dynamic:sip_transaction.obj
 0001:00036860       pjsip_tsx_layer_find_tsx2  0000000140037860 f   pjsip-core-x86_64-x64-vc14-debug-dynamic:sip_transaction.obj
 0001:00036890       pjsip_tsx_create_uac       0000000140037890 f   pjsip-core-x86_64-x64-vc14-debug-dynamic:sip_transaction.obj
 0001:000368d0       pjsip_tsx_create_uac2      00000001400378d0 f   pjsip-core-x86_64-x64-vc14-debug-dynamic:sip_transaction.obj
 0001:00036df0       pjsip_tsx_create_uas       0000000140037df0 f   pjsip-core-x86_64-x64-vc14-debug-dynamic:sip_transaction.obj
 0001:00036e30       pjsip_tsx_create_uas2      0000000140037e30 f   pjsip-core-x86_64-x64-vc14-debug-dynamic:sip_transaction.obj
 0001:000372f0       pjsip_tsx_set_transport    00000001400382f0 f   pjsip-core-x86_64-x64-vc14-debug-dynamic:sip_transaction.obj
 0001:000373c0       pjsip_tsx_recv_msg         00000001400383c0 f   pjsip-core-x86_64-x64-vc14-debug-dynamic:sip_transaction.obj
 0001:000374c0       pjsip_tsx_send_msg         00000001400384c0 f   pjsip-core-x86_64-x64-vc14-debug-dynamic:sip_transaction.obj
 0001:00037640       pjsip_tsx_retransmit_no_state 0000000140038640 f   pjsip-core-x86_64-x64-vc14-debug-dynamic:sip_transaction.obj
 0001:000376c0       pjsip_tsx_create_key       00000001400386c0 f   pjsip-core-x86_64-x64-vc14-debug-dynamic:sip_transaction.obj
 0001:00037780       pjsip_tsx_terminate        0000000140038780 f   pjsip-core-x86_64-x64-vc14-debug-dynamic:sip_transaction.obj
 0001:000378a0       pjsip_tsx_stop_retransmit  00000001400388a0 f   pjsip-core-x86_64-x64-vc14-debug-dynamic:sip_transaction.obj
 0001:000379b0       pjsip_tsx_set_timeout      00000001400389b0 f   pjsip-core-x86_64-x64-vc14-debug-dynamic:sip_transaction.obj
 0001:00037b00       pjsip_rdata_get_tsx        0000000140038b00 f   pjsip-core-x86_64-x64-vc14-debug-dynamic:sip_transaction.obj
 0001:00037b20       pjsip_tsx_layer_dump       0000000140038b20 f   pjsip-core-x86_64-x64-vc14-debug-dynamic:sip_transaction.obj
 0001:00037cc0       pjsip_tsx_state_str        0000000140038cc0 f   pjsip-core-x86_64-x64-vc14-debug-dynamic:sip_transaction.obj
 0001:00037ce0       pjsip_role_name            0000000140038ce0 f   pjsip-core-x86_64-x64-vc14-debug-dynamic:sip_transaction.obj
 0001:0003ddb0       pjsip_ua_init_module       000000014003edb0 f   pjsip-core-x86_64-x64-vc14-debug-dynamic:sip_ua_layer.obj
 0001:0003de40       pjsip_ua_instance          000000014003ee40 f   pjsip-core-x86_64-x64-vc14-debug-dynamic:sip_ua_layer.obj
 0001:0003de50       pjsip_ua_get_dlg_set_count 000000014003ee50 f   pjsip-core-x86_64-x64-vc14-debug-dynamic:sip_ua_layer.obj
 0001:0003ded0       pjsip_ua_find_dialog       000000014003eed0 f   pjsip-core-x86_64-x64-vc14-debug-dynamic:sip_ua_layer.obj
 0001:0003e0a0       pjsip_ua_destroy           000000014003f0a0 f   pjsip-core-x86_64-x64-vc14-debug-dynamic:sip_ua_layer.obj
 0001:0003e100       pjsip_ua_dump              000000014003f100 f   pjsip-core-x86_64-x64-vc14-debug-dynamic:sip_ua_layer.obj
 0001:0003e300       pjsip_ua_get_endpt         000000014003f300 f   pjsip-core-x86_64-x64-vc14-debug-dynamic:sip_ua_layer.obj
 0001:0003e350       pjsip_ua_register_dlg      000000014003f350 f   pjsip-core-x86_64-x64-vc14-debug-dynamic:sip_ua_layer.obj
 0001:0003e640       pjsip_ua_unregister_dlg    000000014003f640 f   pjsip-core-x86_64-x64-vc14-debug-dynamic:sip_ua_layer.obj
 0001:0003e880       pjsip_rdata_get_dlg        000000014003f880 f   pjsip-core-x86_64-x64-vc14-debug-dynamic:sip_ua_layer.obj
 0001:0003e8a0       pjsip_tdata_get_dlg        000000014003f8a0 f   pjsip-core-x86_64-x64-vc14-debug-dynamic:sip_ua_layer.obj
 0001:0003e8c0       pjsip_tsx_get_dlg          000000014003f8c0 f   pjsip-core-x86_64-x64-vc14-debug-dynamic:sip_ua_layer.obj
 0001:0003fd70       pjsip_method_creates_dialog 0000000140040d70 f   pjsip-core-x86_64-x64-vc14-debug-dynamic:sip_dialog.obj
 0001:0003fe80       pjsip_dlg_create_uac       0000000140040e80 f   pjsip-core-x86_64-x64-vc14-debug-dynamic:sip_dialog.obj
 0001:0003ffd0       pjsip_dlg_create_uac2      0000000140040fd0 f   pjsip-core-x86_64-x64-vc14-debug-dynamic:sip_dialog.obj
 0001:00040780       pjsip_dlg_create_uas_and_inc_lock 0000000140041780 f   pjsip-core-x86_64-x64-vc14-debug-dynamic:sip_dialog.obj
 0001:000407d0       pjsip_dlg_set_transport    00000001400417d0 f   pjsip-core-x86_64-x64-vc14-debug-dynamic:sip_dialog.obj
 0001:00040890       pjsip_dlg_set_via_sent_by  0000000140041890 f   pjsip-core-x86_64-x64-vc14-debug-dynamic:sip_dialog.obj
 0001:00040980       pjsip_dlg_fork             0000000140041980 f   pjsip-core-x86_64-x64-vc14-debug-dynamic:sip_dialog.obj
 0001:00040f00       pjsip_dlg_terminate        0000000140041f00 f   pjsip-core-x86_64-x64-vc14-debug-dynamic:sip_dialog.obj
 0001:00040fb0       pjsip_dlg_set_route_set    0000000140041fb0 f   pjsip-core-x86_64-x64-vc14-debug-dynamic:sip_dialog.obj
 0001:000410a0       pjsip_dlg_inc_session      00000001400420a0 f   pjsip-core-x86_64-x64-vc14-debug-dynamic:sip_dialog.obj
 0001:00041190       pjsip_dlg_dec_session      0000000140042190 f   pjsip-core-x86_64-x64-vc14-debug-dynamic:sip_dialog.obj
 0001:00041270       pjsip_dlg_add_usage        0000000140042270 f   pjsip-core-x86_64-x64-vc14-debug-dynamic:sip_dialog.obj
 0001:00041510       pjsip_dlg_has_usage        0000000140042510 f   pjsip-core-x86_64-x64-vc14-debug-dynamic:sip_dialog.obj
 0001:000415a0       pjsip_dlg_set_mod_data     00000001400425a0 f   pjsip-core-x86_64-x64-vc14-debug-dynamic:sip_dialog.obj
 0001:00041660       pjsip_dlg_get_mod_data     0000000140042660 f   pjsip-core-x86_64-x64-vc14-debug-dynamic:sip_dialog.obj
 0001:00041710       pjsip_dlg_inc_lock         0000000140042710 f   pjsip-core-x86_64-x64-vc14-debug-dynamic:sip_dialog.obj
 0001:00041760       pjsip_dlg_try_inc_lock     0000000140042760 f   pjsip-core-x86_64-x64-vc14-debug-dynamic:sip_dialog.obj
 0001:000417d0       pjsip_dlg_dec_lock         00000001400427d0 f   pjsip-core-x86_64-x64-vc14-debug-dynamic:sip_dialog.obj
 0001:000418d0       pjsip_dlg_get_lock         00000001400428d0 f   pjsip-core-x86_64-x64-vc14-debug-dynamic:sip_dialog.obj
 0001:00041930       pjsip_dlg_create_request   0000000140042930 f   pjsip-core-x86_64-x64-vc14-debug-dynamic:sip_dialog.obj
 0001:00041ad0       pjsip_dlg_send_request     0000000140042ad0 f   pjsip-core-x86_64-x64-vc14-debug-dynamic:sip_dialog.obj
 0001:00041eb0       pjsip_dlg_create_response  0000000140042eb0 f   pjsip-core-x86_64-x64-vc14-debug-dynamic:sip_dialog.obj
 0001:00041f70       pjsip_dlg_modify_response  0000000140042f70 f   pjsip-core-x86_64-x64-vc14-debug-dynamic:sip_dialog.obj
 0001:000421a0       pjsip_dlg_send_response    00000001400431a0 f   pjsip-core-x86_64-x64-vc14-debug-dynamic:sip_dialog.obj
 0001:00042500       pjsip_dlg_respond          0000000140043500 f   pjsip-core-x86_64-x64-vc14-debug-dynamic:sip_dialog.obj
 0001:00042760       pjsip_dlg_remote_has_cap   0000000140043760 f   pjsip-core-x86_64-x64-vc14-debug-dynamic:sip_dialog.obj
 0001:00042870       pjsip_dlg_get_remote_cap_hdr 0000000140043870 f   pjsip-core-x86_64-x64-vc14-debug-dynamic:sip_dialog.obj
 0001:000429c0       pjsip_dlg_set_remote_cap_hdr 00000001400439c0 f   pjsip-core-x86_64-x64-vc14-debug-dynamic:sip_dialog.obj
 0001:00042b70       pjsip_dlg_remove_remote_cap_hdr 0000000140043b70 f   pjsip-core-x86_64-x64-vc14-debug-dynamic:sip_dialog.obj
 0001:00042c80       pjsip_dlg_update_remote_cap 0000000140043c80 f   pjsip-core-x86_64-x64-vc14-debug-dynamic:sip_dialog.obj
 0001:00042ee0       pjsip_dlg_on_tsx_state     0000000140043ee0 f   pjsip-core-x86_64-x64-vc14-debug-dynamic:sip_dialog.obj
 0001:00043060       pjsip_dlg_on_rx_request    0000000140044060 f   pjsip-core-x86_64-x64-vc14-debug-dynamic:sip_dialog.obj
 0001:000435c0       pjsip_dlg_on_rx_response   00000001400445c0 f   pjsip-core-x86_64-x64-vc14-debug-dynamic:sip_dialog.obj
 0001:00043f20       create_uas_dialog          0000000140044f20 f   pjsip-core-x86_64-x64-vc14-debug-dynamic:sip_dialog.obj
 0001:00046710       pjsip_auth_clt_pref_dup    0000000140047710 f   pjsip-core-x86_64-x64-vc14-debug-dynamic:sip_auth_client.obj
 0001:00046770       pjsip_cred_info_dup        0000000140047770 f   pjsip-core-x86_64-x64-vc14-debug-dynamic:sip_auth_client.obj
 0001:000468a0       pjsip_cred_info_cmp        00000001400478a0 f   pjsip-core-x86_64-x64-vc14-debug-dynamic:sip_auth_client.obj
 0001:00046a10       pjsip_auth_clt_init        0000000140047a10 f   pjsip-core-x86_64-x64-vc14-debug-dynamic:sip_auth_client.obj
 0001:00046af0       pjsip_auth_clt_deinit      0000000140047af0 f   pjsip-core-x86_64-x64-vc14-debug-dynamic:sip_auth_client.obj
 0001:00046ba0       pjsip_auth_clt_clone       0000000140047ba0 f   pjsip-core-x86_64-x64-vc14-debug-dynamic:sip_auth_client.obj
 0001:00046de0       pjsip_auth_clt_set_credentials 0000000140047de0 f   pjsip-core-x86_64-x64-vc14-debug-dynamic:sip_auth_client.obj
 0001:000472d0       pjsip_auth_clt_set_prefs   00000001400482d0 f   pjsip-core-x86_64-x64-vc14-debug-dynamic:sip_auth_client.obj
 0001:00047380       pjsip_auth_clt_get_prefs   0000000140048380 f   pjsip-core-x86_64-x64-vc14-debug-dynamic:sip_auth_client.obj
 0001:00047400       pjsip_auth_clt_init_req    0000000140048400 f   pjsip-core-x86_64-x64-vc14-debug-dynamic:sip_auth_client.obj
 0001:00047870       pjsip_auth_clt_reinit_req  0000000140048870 f   pjsip-core-x86_64-x64-vc14-debug-dynamic:sip_auth_client.obj
 0001:00047d80       pjsip_auth_create_digest   0000000140048d80 f   pjsip-core-x86_64-x64-vc14-debug-dynamic:sip_auth_client.obj
 0001:0004a320       pjsip_register_hdr_parser  000000014004b320 f   pjsip-core-x86_64-x64-vc14-debug-dynamic:sip_parser.obj
 0001:0004a4a0       pjsip_register_uri_parser  000000014004b4a0 f   pjsip-core-x86_64-x64-vc14-debug-dynamic:sip_parser.obj
 0001:0004a530       pjsip_parse_uri            000000014004b530 f   pjsip-core-x86_64-x64-vc14-debug-dynamic:sip_parser.obj
 0001:0004a660       pjsip_parse_status_line    000000014004b660 f   pjsip-core-x86_64-x64-vc14-debug-dynamic:sip_parser.obj
 0001:0004a770       pjsip_parse_msg            000000014004b770 f   pjsip-core-x86_64-x64-vc14-debug-dynamic:sip_parser.obj
 0001:0004a820       pjsip_parse_rdata          000000014004b820 f   pjsip-core-x86_64-x64-vc14-debug-dynamic:sip_parser.obj
 0001:0004a8e0       pjsip_find_msg             000000014004b8e0 f   pjsip-core-x86_64-x64-vc14-debug-dynamic:sip_parser.obj
 0001:0004acc0       pjsip_parse_hdr            000000014004bcc0 f   pjsip-core-x86_64-x64-vc14-debug-dynamic:sip_parser.obj
 0001:0004ae70       pjsip_parse_headers        000000014004be70 f   pjsip-core-x86_64-x64-vc14-debug-dynamic:sip_parser.obj
 0001:0004b160       pjsip_parser_const         000000014004c160 f   pjsip-core-x86_64-x64-vc14-debug-dynamic:sip_parser.obj
 0001:0004b170       pjsip_parse_param_imp      000000014004c170 f   pjsip-core-x86_64-x64-vc14-debug-dynamic:sip_parser.obj
 0001:0004b1d0       pjsip_parse_uri_param_imp  000000014004c1d0 f   pjsip-core-x86_64-x64-vc14-debug-dynamic:sip_parser.obj
 0001:0004b230       pjsip_concat_param_imp     000000014004c230 f   pjsip-core-x86_64-x64-vc14-debug-dynamic:sip_parser.obj
 0001:0004b3b0       pjsip_parse_end_hdr_imp    000000014004c3b0 f   pjsip-core-x86_64-x64-vc14-debug-dynamic:sip_parser.obj
 0001:0004b3d0       pjsip_parse_generic_array_hdr_imp 000000014004c3d0 f   pjsip-core-x86_64-x64-vc14-debug-dynamic:sip_parser.obj
 0001:0004eab0       init_sip_parser            000000014004fab0 f   pjsip-core-x86_64-x64-vc14-debug-dynamic:sip_parser.obj
 0001:0004eaf0       deinit_sip_parser          000000014004faf0 f   pjsip-core-x86_64-x64-vc14-debug-dynamic:sip_parser.obj
 0001:000516f0       pjsip_multipart_create     00000001400526f0 f   pjsip-core-x86_64-x64-vc14-debug-dynamic:sip_multipart.obj
 0001:00051910       pjsip_multipart_create_part 0000000140052910 f   pjsip-core-x86_64-x64-vc14-debug-dynamic:sip_multipart.obj
 0001:00051950       pjsip_multipart_clone_part 0000000140052950 f   pjsip-core-x86_64-x64-vc14-debug-dynamic:sip_multipart.obj
 0001:000519f0       pjsip_multipart_add_part   00000001400529f0 f   pjsip-core-x86_64-x64-vc14-debug-dynamic:sip_multipart.obj
 0001:00051b50       pjsip_multipart_get_first_part 0000000140052b50 f   pjsip-core-x86_64-x64-vc14-debug-dynamic:sip_multipart.obj
 0001:00051c20       pjsip_multipart_get_next_part 0000000140052c20 f   pjsip-core-x86_64-x64-vc14-debug-dynamic:sip_multipart.obj
 0001:00051d60       pjsip_multipart_find_part  0000000140052d60 f   pjsip-core-x86_64-x64-vc14-debug-dynamic:sip_multipart.obj
 0001:00051e90       pjsip_multipart_parse      0000000140052e90 f   pjsip-core-x86_64-x64-vc14-debug-dynamic:sip_multipart.obj
 0001:00052480       pjsip_multipart_get_raw    0000000140053480 f   pjsip-core-x86_64-x64-vc14-debug-dynamic:sip_multipart.obj
 0001:00053ac0       pjsip_param_find           0000000140054ac0 f   pjsip-core-x86_64-x64-vc14-debug-dynamic:sip_uri.obj
 0001:00053b30       pjsip_param_cmp            0000000140054b30 f   pjsip-core-x86_64-x64-vc14-debug-dynamic:sip_uri.obj
 0001:00053c20       pjsip_param_clone          0000000140054c20 f   pjsip-core-x86_64-x64-vc14-debug-dynamic:sip_uri.obj
 0001:00053cf0       pjsip_param_shallow_clone  0000000140054cf0 f   pjsip-core-x86_64-x64-vc14-debug-dynamic:sip_uri.obj
 0001:00053da0       pjsip_param_print_on       0000000140054da0 f   pjsip-core-x86_64-x64-vc14-debug-dynamic:sip_uri.obj
 0001:00054130       pjsip_sip_uri_create       0000000140055130 f   pjsip-core-x86_64-x64-vc14-debug-dynamic:sip_uri.obj
 0001:00054170       pjsip_sip_uri_set_secure   0000000140055170 f   pjsip-core-x86_64-x64-vc14-debug-dynamic:sip_uri.obj
 0001:000541c0       pjsip_sip_uri_init         00000001400551c0 f   pjsip-core-x86_64-x64-vc14-debug-dynamic:sip_uri.obj
 0001:00054230       pjsip_sip_uri_assign       0000000140055230 f   pjsip-core-x86_64-x64-vc14-debug-dynamic:sip_uri.obj
 0001:000543c0       pjsip_name_addr_create     00000001400553c0 f   pjsip-core-x86_64-x64-vc14-debug-dynamic:sip_uri.obj
 0001:00054400       pjsip_name_addr_init       0000000140055400 f   pjsip-core-x86_64-x64-vc14-debug-dynamic:sip_uri.obj
 0001:00054450       pjsip_name_addr_assign     0000000140055450 f   pjsip-core-x86_64-x64-vc14-debug-dynamic:sip_uri.obj
 0001:000544b0       pjsip_other_uri_create     00000001400554b0 f   pjsip-core-x86_64-x64-vc14-debug-dynamic:sip_uri.obj
 0001:00056920       pjsip_resolver_create      0000000140057920 f   pjsip-core-x86_64-x64-vc14-debug-dynamic:sip_resolve.obj
 0001:000569b0       pjsip_resolver_set_resolver 00000001400579b0 f   pjsip-core-x86_64-x64-vc14-debug-dynamic:sip_resolve.obj
 0001:000569d0       pjsip_resolver_set_ext_resolver 00000001400579d0 f   pjsip-core-x86_64-x64-vc14-debug-dynamic:sip_resolve.obj
 0001:00056a50       pjsip_resolver_get_resolver 0000000140057a50 f   pjsip-core-x86_64-x64-vc14-debug-dynamic:sip_resolve.obj
 0001:00056a70       pjsip_resolver_destroy     0000000140057a70 f   pjsip-core-x86_64-x64-vc14-debug-dynamic:sip_resolve.obj
 0001:00056ab0       pjsip_resolve              0000000140057ab0 f   pjsip-core-x86_64-x64-vc14-debug-dynamic:sip_resolve.obj
 0001:000585a0       pjsip_strerror             00000001400595a0 f   pjsip-core-x86_64-x64-vc14-debug-dynamic:sip_errno.obj
 0001:00058990       pjsip_tel_uri_create       0000000140059990 f   pjsip-core-x86_64-x64-vc14-debug-dynamic:sip_tel_uri.obj
 0001:000589e0       pjsip_tel_nb_cmp           00000001400599e0 f   pjsip-core-x86_64-x64-vc14-debug-dynamic:sip_tel_uri.obj
 0001:000597d0       pjsip_tel_uri_subsys_init  000000014005a7d0 f   pjsip-core-x86_64-x64-vc14-debug-dynamic:sip_tel_uri.obj
 0001:0005a110       pjsip_authorization_hdr_create 000000014005b110 f   pjsip-core-x86_64-x64-vc14-debug-dynamic:sip_auth_msg.obj
 0001:0005a170       pjsip_proxy_authorization_hdr_create 000000014005b170 f   pjsip-core-x86_64-x64-vc14-debug-dynamic:sip_auth_msg.obj
 0001:0005a1d0       pjsip_www_authenticate_hdr_create 000000014005b1d0 f   pjsip-core-x86_64-x64-vc14-debug-dynamic:sip_auth_msg.obj
 0001:0005a230       pjsip_proxy_authenticate_hdr_create 000000014005b230 f   pjsip-core-x86_64-x64-vc14-debug-dynamic:sip_auth_msg.obj
 0001:0005d7a0       pjsip_auth_init_parser     000000014005e7a0 f   pjsip-core-x86_64-x64-vc14-debug-dynamic:sip_auth_parser.obj
 0001:0005d900       pjsip_auth_deinit_parser   000000014005e900 f   pjsip-core-x86_64-x64-vc14-debug-dynamic:sip_auth_parser.obj
 0001:0005e680       pjmedia_sdp_attr_create    000000014005f680 f   pjmedia-x86_64-x64-vc14-debug-dynamic:sdp.obj
 0001:0005e760       pjmedia_sdp_attr_clone     000000014005f760 f   pjmedia-x86_64-x64-vc14-debug-dynamic:sdp.obj
 0001:0005e820       pjmedia_sdp_attr_find      000000014005f820 f   pjmedia-x86_64-x64-vc14-debug-dynamic:sdp.obj
 0001:0005e930       pjmedia_sdp_attr_find2     000000014005f930 f   pjmedia-x86_64-x64-vc14-debug-dynamic:sdp.obj
 0001:0005e990       pjmedia_sdp_attr_add       000000014005f990 f   pjmedia-x86_64-x64-vc14-debug-dynamic:sdp.obj
 0001:0005ea70       pjmedia_sdp_attr_remove_all 000000014005fa70 f   pjmedia-x86_64-x64-vc14-debug-dynamic:sdp.obj
 0001:0005ebd0       pjmedia_sdp_attr_remove    000000014005fbd0 f   pjmedia-x86_64-x64-vc14-debug-dynamic:sdp.obj
 0001:0005ed20       pjmedia_sdp_attr_to_rtpmap 000000014005fd20 f   pjmedia-x86_64-x64-vc14-debug-dynamic:sdp.obj
 0001:0005ee00       pjmedia_sdp_attr_get_rtpmap 000000014005fe00 f   pjmedia-x86_64-x64-vc14-debug-dynamic:sdp.obj
 0001:0005f180       pjmedia_sdp_rtpmap_to_attr 0000000140060180 f   pjmedia-x86_64-x64-vc14-debug-dynamic:sdp.obj
 0001:0005f450       pjmedia_sdp_attr_get_fmtp  0000000140060450 f   pjmedia-x86_64-x64-vc14-debug-dynamic:sdp.obj
 0001:0005f5c0       pjmedia_sdp_attr_get_rtcp  00000001400605c0 f   pjmedia-x86_64-x64-vc14-debug-dynamic:sdp.obj
 0001:0005f7f0       pjmedia_sdp_attr_create_rtcp 00000001400607f0 f   pjmedia-x86_64-x64-vc14-debug-dynamic:sdp.obj
 0001:0005f9b0       pjmedia_sdp_attr_get_ssrc  00000001400609b0 f   pjmedia-x86_64-x64-vc14-debug-dynamic:sdp.obj
 0001:0005fbd0       pjmedia_sdp_attr_create_ssrc 0000000140060bd0 f   pjmedia-x86_64-x64-vc14-debug-dynamic:sdp.obj
 0001:0005fcc0       pjmedia_sdp_conn_clone     0000000140060cc0 f   pjmedia-x86_64-x64-vc14-debug-dynamic:sdp.obj
 0001:0005fd80       pjmedia_sdp_bandw_clone    0000000140060d80 f   pjmedia-x86_64-x64-vc14-debug-dynamic:sdp.obj
 0001:0005fe00       pjmedia_sdp_media_clone    0000000140060e00 f   pjmedia-x86_64-x64-vc14-debug-dynamic:sdp.obj
 0001:00060140       pjmedia_sdp_media_find_attr 0000000140061140 f   pjmedia-x86_64-x64-vc14-debug-dynamic:sdp.obj
 0001:000601d0       pjmedia_sdp_media_find_attr2 00000001400611d0 f   pjmedia-x86_64-x64-vc14-debug-dynamic:sdp.obj
 0001:00060260       pjmedia_sdp_media_add_attr 0000000140061260 f   pjmedia-x86_64-x64-vc14-debug-dynamic:sdp.obj
 0001:000602a0       pjmedia_sdp_media_remove_all_attr 00000001400612a0 f   pjmedia-x86_64-x64-vc14-debug-dynamic:sdp.obj
 0001:000602e0       pjmedia_sdp_media_remove_attr 00000001400612e0 f   pjmedia-x86_64-x64-vc14-debug-dynamic:sdp.obj
 0001:00060320       pjmedia_sdp_transport_cmp  0000000140061320 f   pjmedia-x86_64-x64-vc14-debug-dynamic:sdp.obj
 0001:000603a0       pjmedia_sdp_transport_get_proto 00000001400613a0 f   pjmedia-x86_64-x64-vc14-debug-dynamic:sdp.obj
 0001:00060560       pjmedia_sdp_media_deactivate 0000000140061560 f   pjmedia-x86_64-x64-vc14-debug-dynamic:sdp.obj
 0001:000605d0       pjmedia_sdp_media_clone_deactivate 00000001400615d0 f   pjmedia-x86_64-x64-vc14-debug-dynamic:sdp.obj
 0001:00060840       pjmedia_sdp_parse          0000000140061840 f   pjmedia-x86_64-x64-vc14-debug-dynamic:sdp.obj
 0001:00060ec0       pjmedia_sdp_print          0000000140061ec0 f   pjmedia-x86_64-x64-vc14-debug-dynamic:sdp.obj
 0001:00060f00       pjmedia_sdp_validate       0000000140061f00 f   pjmedia-x86_64-x64-vc14-debug-dynamic:sdp.obj
 0001:00060f30       pjmedia_sdp_validate2      0000000140061f30 f   pjmedia-x86_64-x64-vc14-debug-dynamic:sdp.obj
 0001:00061270       pjmedia_sdp_session_clone  0000000140062270 f   pjmedia-x86_64-x64-vc14-debug-dynamic:sdp.obj
 0001:000615b0       pjmedia_sdp_session_add_attr 00000001400625b0 f   pjmedia-x86_64-x64-vc14-debug-dynamic:sdp.obj
 0001:000642b0       pjmedia_sdp_neg_state_str  00000001400652b0 f   pjmedia-x86_64-x64-vc14-debug-dynamic:sdp_neg.obj
 0001:000642f0       pjmedia_sdp_neg_create_w_local_offer 00000001400652f0 f   pjmedia-x86_64-x64-vc14-debug-dynamic:sdp_neg.obj
 0001:00064480       pjmedia_sdp_neg_create_w_remote_offer 0000000140065480 f   pjmedia-x86_64-x64-vc14-debug-dynamic:sdp_neg.obj
 0001:00064660       pjmedia_sdp_neg_set_prefer_remote_codec_order 0000000140065660 f   pjmedia-x86_64-x64-vc14-debug-dynamic:sdp_neg.obj
 0001:000646c0       pjmedia_sdp_neg_set_answer_multiple_codecs 00000001400656c0 f   pjmedia-x86_64-x64-vc14-debug-dynamic:sdp_neg.obj
 0001:00064720       pjmedia_sdp_neg_get_state  0000000140065720 f   pjmedia-x86_64-x64-vc14-debug-dynamic:sdp_neg.obj
 0001:00064780       pjmedia_sdp_neg_get_active_local 0000000140065780 f   pjmedia-x86_64-x64-vc14-debug-dynamic:sdp_neg.obj
 0001:00064840       pjmedia_sdp_neg_get_active_remote 0000000140065840 f   pjmedia-x86_64-x64-vc14-debug-dynamic:sdp_neg.obj
 0001:00064900       pjmedia_sdp_neg_was_answer_remote 0000000140065900 f   pjmedia-x86_64-x64-vc14-debug-dynamic:sdp_neg.obj
 0001:00064960       pjmedia_sdp_neg_get_neg_remote 0000000140065960 f   pjmedia-x86_64-x64-vc14-debug-dynamic:sdp_neg.obj
 0001:00064a20       pjmedia_sdp_neg_get_neg_local 0000000140065a20 f   pjmedia-x86_64-x64-vc14-debug-dynamic:sdp_neg.obj
 0001:00064ae0       pjmedia_sdp_neg_modify_local_offer 0000000140065ae0 f   pjmedia-x86_64-x64-vc14-debug-dynamic:sdp_neg.obj
 0001:00064b20       pjmedia_sdp_neg_modify_local_offer2 0000000140065b20 f   pjmedia-x86_64-x64-vc14-debug-dynamic:sdp_neg.obj
 0001:00064fc0       pjmedia_sdp_neg_send_local_offer 0000000140065fc0 f   pjmedia-x86_64-x64-vc14-debug-dynamic:sdp_neg.obj
 0001:00065170       pjmedia_sdp_neg_set_remote_answer 0000000140066170 f   pjmedia-x86_64-x64-vc14-debug-dynamic:sdp_neg.obj
 0001:00065260       pjmedia_sdp_neg_set_remote_offer 0000000140066260 f   pjmedia-x86_64-x64-vc14-debug-dynamic:sdp_neg.obj
 0001:00065340       pjmedia_sdp_neg_set_local_answer 0000000140066340 f   pjmedia-x86_64-x64-vc14-debug-dynamic:sdp_neg.obj
 0001:00065540       pjmedia_sdp_neg_has_local_answer 0000000140066540 f   pjmedia-x86_64-x64-vc14-debug-dynamic:sdp_neg.obj
 0001:000655b0       pjmedia_sdp_neg_cancel_offer 00000001400665b0 f   pjmedia-x86_64-x64-vc14-debug-dynamic:sdp_neg.obj
 0001:000656e0       pjmedia_sdp_neg_negotiate  00000001400666e0 f   pjmedia-x86_64-x64-vc14-debug-dynamic:sdp_neg.obj
 0001:00065950       pjmedia_sdp_neg_register_fmt_match_cb 0000000140066950 f   pjmedia-x86_64-x64-vc14-debug-dynamic:sdp_neg.obj
 0001:00065ae0       pjmedia_sdp_neg_fmt_match  0000000140066ae0 f   pjmedia-x86_64-x64-vc14-debug-dynamic:sdp_neg.obj
 0001:00069150       pjlib_util_init            000000014006a150 f   pjlib-util-x86_64-x64-vc14-debug-dynamic:errno.obj
 0001:000691a0       pjlib_util_strerror        000000014006a1a0 f   pjlib-util-x86_64-x64-vc14-debug-dynamic:errno.obj
 0001:00069420       pj_getopt                  000000014006a420 f   pjlib-util-x86_64-x64-vc14-debug-dynamic:getopt.obj
 0001:00069470       pj_getopt_long             000000014006a470 f   pjlib-util-x86_64-x64-vc14-debug-dynamic:getopt.obj
 0001:0006a990       pj_cis_buf_init            000000014006b990 f   pjlib-util-x86_64-x64-vc14-debug-dynamic:scanner.obj
 0001:0006a9d0       pj_cis_init                000000014006b9d0 f   pjlib-util-x86_64-x64-vc14-debug-dynamic:scanner.obj
 0001:0006aa90       pj_cis_dup                 000000014006ba90 f   pjlib-util-x86_64-x64-vc14-debug-dynamic:scanner.obj
 0001:0006abc0       pj_cis_add_range           000000014006bbc0 f   pjlib-util-x86_64-x64-vc14-debug-dynamic:scanner.obj
 0001:0006ac60       pj_cis_add_alpha           000000014006bc60 f   pjlib-util-x86_64-x64-vc14-debug-dynamic:scanner.obj
 0001:0006aca0       pj_cis_add_num             000000014006bca0 f   pjlib-util-x86_64-x64-vc14-debug-dynamic:scanner.obj
 0001:0006acd0       pj_cis_add_str             000000014006bcd0 f   pjlib-util-x86_64-x64-vc14-debug-dynamic:scanner.obj
 0001:0006ad50       pj_cis_add_cis             000000014006bd50 f   pjlib-util-x86_64-x64-vc14-debug-dynamic:scanner.obj
 0001:0006ae10       pj_cis_del_range           000000014006be10 f   pjlib-util-x86_64-x64-vc14-debug-dynamic:scanner.obj
 0001:0006ae90       pj_cis_del_str             000000014006be90 f   pjlib-util-x86_64-x64-vc14-debug-dynamic:scanner.obj
 0001:0006af10       pj_cis_invert              000000014006bf10 f   pjlib-util-x86_64-x64-vc14-debug-dynamic:scanner.obj
 0001:0006b010       pj_scan_init               000000014006c010 f   pjlib-util-x86_64-x64-vc14-debug-dynamic:scanner.obj
 0001:0006b0d0       pj_scan_fini               000000014006c0d0 f   pjlib-util-x86_64-x64-vc14-debug-dynamic:scanner.obj
 0001:0006b100       pj_scan_peek               000000014006c100 f   pjlib-util-x86_64-x64-vc14-debug-dynamic:scanner.obj
 0001:0006b1a0       pj_scan_peek_n             000000014006c1a0 f   pjlib-util-x86_64-x64-vc14-debug-dynamic:scanner.obj
 0001:0006b220       pj_scan_peek_until         000000014006c220 f   pjlib-util-x86_64-x64-vc14-debug-dynamic:scanner.obj
 0001:0006b2d0       pj_scan_get                000000014006c2d0 f   pjlib-util-x86_64-x64-vc14-debug-dynamic:scanner.obj
 0001:0006b3c0       pj_scan_get_unescape       000000014006c3c0 f   pjlib-util-x86_64-x64-vc14-debug-dynamic:scanner.obj
 0001:0006b670       pj_scan_get_quote          000000014006c670 f   pjlib-util-x86_64-x64-vc14-debug-dynamic:scanner.obj
 0001:0006b6d0       pj_scan_get_quotes         000000014006c6d0 f   pjlib-util-x86_64-x64-vc14-debug-dynamic:scanner.obj
 0001:0006b910       pj_scan_get_n              000000014006c910 f   pjlib-util-x86_64-x64-vc14-debug-dynamic:scanner.obj
 0001:0006b9b0       pj_scan_get_char           000000014006c9b0 f   pjlib-util-x86_64-x64-vc14-debug-dynamic:scanner.obj
 0001:0006ba30       pj_scan_get_until          000000014006ca30 f   pjlib-util-x86_64-x64-vc14-debug-dynamic:scanner.obj
 0001:0006bb00       pj_scan_get_until_ch       000000014006cb00 f   pjlib-util-x86_64-x64-vc14-debug-dynamic:scanner.obj
 0001:0006bbc0       pj_scan_get_until_chr      000000014006cbc0 f   pjlib-util-x86_64-x64-vc14-debug-dynamic:scanner.obj
 0001:0006bca0       pj_scan_advance_n          000000014006cca0 f   pjlib-util-x86_64-x64-vc14-debug-dynamic:scanner.obj
 0001:0006bd20       pj_scan_strcmp             000000014006cd20 f   pjlib-util-x86_64-x64-vc14-debug-dynamic:scanner.obj
 0001:0006bd90       pj_scan_stricmp            000000014006cd90 f   pjlib-util-x86_64-x64-vc14-debug-dynamic:scanner.obj
 0001:0006be00       pj_scan_stricmp_alnum      000000014006ce00 f   pjlib-util-x86_64-x64-vc14-debug-dynamic:scanner.obj
 0001:0006be70       pj_scan_get_newline        000000014006ce70 f   pjlib-util-x86_64-x64-vc14-debug-dynamic:scanner.obj
 0001:0006bf30       pj_scan_skip_whitespace    000000014006cf30 f   pjlib-util-x86_64-x64-vc14-debug-dynamic:scanner.obj
 0001:0006c180       pj_scan_skip_line          000000014006d180 f   pjlib-util-x86_64-x64-vc14-debug-dynamic:scanner.obj
 0001:0006c210       pj_scan_save_state         000000014006d210 f   pjlib-util-x86_64-x64-vc14-debug-dynamic:scanner.obj
 0001:0006c260       pj_scan_restore_state      000000014006d260 f   pjlib-util-x86_64-x64-vc14-debug-dynamic:scanner.obj
 0001:0006cb50       pj_str_unescape            000000014006db50 f   pjlib-util-x86_64-x64-vc14-debug-dynamic:string.obj
 0001:0006cd00       pj_strcpy_unescape         000000014006dd00 f   pjlib-util-x86_64-x64-vc14-debug-dynamic:string.obj
 0001:0006ce20       pj_strncpy_escape          000000014006de20 f   pjlib-util-x86_64-x64-vc14-debug-dynamic:string.obj
 0001:0006ce90       pj_strncpy2_escape         000000014006de90 f   pjlib-util-x86_64-x64-vc14-debug-dynamic:string.obj
 0001:0006d2f0       pj_dns_settings_default    000000014006e2f0 f   pjlib-util-x86_64-x64-vc14-debug-dynamic:resolver.obj
 0001:0006d350       pj_dns_resolver_create     000000014006e350 f   pjlib-util-x86_64-x64-vc14-debug-dynamic:resolver.obj
 0001:0006d620       pj_dns_resolver_set_ns     000000014006e620 f   pjlib-util-x86_64-x64-vc14-debug-dynamic:resolver.obj
 0001:0006d890       pj_dns_resolver_get_settings 000000014006e890 f   pjlib-util-x86_64-x64-vc14-debug-dynamic:resolver.obj
 0001:0006d930       pj_dns_resolver_set_settings 000000014006e930 f   pjlib-util-x86_64-x64-vc14-debug-dynamic:resolver.obj
 0001:0006d9d0       pj_dns_resolver_handle_events 000000014006e9d0 f   pjlib-util-x86_64-x64-vc14-debug-dynamic:resolver.obj
 0001:0006da60       pj_dns_resolver_destroy    000000014006ea60 f   pjlib-util-x86_64-x64-vc14-debug-dynamic:resolver.obj
 0001:0006dcd0       pj_dns_resolver_start_query 000000014006ecd0 f   pjlib-util-x86_64-x64-vc14-debug-dynamic:resolver.obj
 0001:0006e310       pj_dns_resolver_cancel_query 000000014006f310 f   pjlib-util-x86_64-x64-vc14-debug-dynamic:resolver.obj
 0001:0006e400       pj_dns_parse_a_response    000000014006f400 f   pjlib-util-x86_64-x64-vc14-debug-dynamic:resolver.obj
 0001:0006e930       pj_dns_parse_addr_response 000000014006f930 f   pjlib-util-x86_64-x64-vc14-debug-dynamic:resolver.obj
 0001:0006ef30       pj_dns_resolver_add_entry  000000014006ff30 f   pjlib-util-x86_64-x64-vc14-debug-dynamic:resolver.obj
 0001:0006f2c0       pj_dns_resolver_get_cached_count 00000001400702c0 f   pjlib-util-x86_64-x64-vc14-debug-dynamic:resolver.obj
 0001:0006f340       pj_dns_resolver_dump       0000000140070340 f   pjlib-util-x86_64-x64-vc14-debug-dynamic:resolver.obj
 0001:00072a00       pj_md5_init                0000000140073a00 f   pjlib-util-x86_64-x64-vc14-debug-dynamic:md5.obj
 0001:00072a90       pj_md5_update              0000000140073a90 f   pjlib-util-x86_64-x64-vc14-debug-dynamic:md5.obj
 0001:00072c70       pj_md5_final               0000000140073c70 f   pjlib-util-x86_64-x64-vc14-debug-dynamic:md5.obj
 0001:00074d00       pj_dns_make_query          0000000140075d00 f   pjlib-util-x86_64-x64-vc14-debug-dynamic:dns.obj
 0001:00074fd0       pj_dns_parse_packet        0000000140075fd0 f   pjlib-util-x86_64-x64-vc14-debug-dynamic:dns.obj
 0001:000754c0       pj_dns_packet_dup          00000001400764c0 f   pjlib-util-x86_64-x64-vc14-debug-dynamic:dns.obj
 0001:00075940       pj_dns_get_type_name       0000000140076940 f   pjlib-util-x86_64-x64-vc14-debug-dynamic:dns.obj
 0001:00075a30       pj_dns_init_srv_rr         0000000140076a30 f   pjlib-util-x86_64-x64-vc14-debug-dynamic:dns.obj
 0001:00075ae0       pj_dns_init_cname_rr       0000000140076ae0 f   pjlib-util-x86_64-x64-vc14-debug-dynamic:dns.obj
 0001:00075b70       pj_dns_init_a_rr           0000000140076b70 f   pjlib-util-x86_64-x64-vc14-debug-dynamic:dns.obj
 0001:00075bf0       pj_dns_init_aaaa_rr        0000000140076bf0 f   pjlib-util-x86_64-x64-vc14-debug-dynamic:dns.obj
 0001:000774b0       pj_dns_srv_resolve         00000001400784b0 f   pjlib-util-x86_64-x64-vc14-debug-dynamic:srv_resolver.obj
 0001:00077820       pj_dns_srv_cancel_query    0000000140078820 f   pjlib-util-x86_64-x64-vc14-debug-dynamic:srv_resolver.obj
 0001:0007a2d0       pj_init                    000000014007b2d0 f   pjlib-x86_64-x64-vc14-debug-dynamic:os_core_win32.obj
 0001:0007a4a0       pj_shutdown                000000014007b4a0 f   pjlib-x86_64-x64-vc14-debug-dynamic:os_core_win32.obj
 0001:0007a5e0       pj_atexit                  000000014007b5e0 f   pjlib-x86_64-x64-vc14-debug-dynamic:os_core_win32.obj
 0001:0007a630       pj_getpid                  000000014007b630 f   pjlib-x86_64-x64-vc14-debug-dynamic:os_core_win32.obj
 0001:0007a660       pj_thread_create           000000014007b660 f   pjlib-x86_64-x64-vc14-debug-dynamic:os_core_win32.obj
 0001:0007a8c0       pj_thread_register         000000014007b8c0 f   pjlib-x86_64-x64-vc14-debug-dynamic:os_core_win32.obj
 0001:0007aa30       pj_thread_is_registered    000000014007ba30 f   pjlib-x86_64-x64-vc14-debug-dynamic:os_core_win32.obj
 0001:0007aa70       pj_thread_get_prio         000000014007ba70 f   pjlib-x86_64-x64-vc14-debug-dynamic:os_core_win32.obj
 0001:0007aaa0       pj_thread_set_prio         000000014007baa0 f   pjlib-x86_64-x64-vc14-debug-dynamic:os_core_win32.obj
 0001:0007aba0       pj_thread_get_prio_min     000000014007bba0 f   pjlib-x86_64-x64-vc14-debug-dynamic:os_core_win32.obj
 0001:0007abc0       pj_thread_get_prio_max     000000014007bbc0 f   pjlib-x86_64-x64-vc14-debug-dynamic:os_core_win32.obj
 0001:0007abe0       pj_thread_get_os_handle    000000014007bbe0 f   pjlib-x86_64-x64-vc14-debug-dynamic:os_core_win32.obj
 0001:0007ac40       pj_thread_get_name         000000014007bc40 f   pjlib-x86_64-x64-vc14-debug-dynamic:os_core_win32.obj
 0001:0007acb0       pj_thread_resume           000000014007bcb0 f   pjlib-x86_64-x64-vc14-debug-dynamic:os_core_win32.obj
 0001:0007ad80       pj_thread_this             000000014007bd80 f   pjlib-x86_64-x64-vc14-debug-dynamic:os_core_win32.obj
 0001:0007ade0       pj_thread_join             000000014007bde0 f   pjlib-x86_64-x64-vc14-debug-dynamic:os_core_win32.obj
 0001:0007aef0       pj_thread_destroy          000000014007bef0 f   pjlib-x86_64-x64-vc14-debug-dynamic:os_core_win32.obj
 0001:0007afc0       pj_thread_sleep            000000014007bfc0 f   pjlib-x86_64-x64-vc14-debug-dynamic:os_core_win32.obj
 0001:0007aff0       pj_thread_check_stack      000000014007bff0 f   pjlib-x86_64-x64-vc14-debug-dynamic:os_core_win32.obj
 0001:0007b0f0       pj_thread_get_stack_max_usage 000000014007c0f0 f   pjlib-x86_64-x64-vc14-debug-dynamic:os_core_win32.obj
 0001:0007b110       pj_thread_get_stack_info   000000014007c110 f   pjlib-x86_64-x64-vc14-debug-dynamic:os_core_win32.obj
 0001:0007b180       pj_thread_local_alloc      000000014007c180 f   pjlib-x86_64-x64-vc14-debug-dynamic:os_core_win32.obj
 0001:0007b230       pj_thread_local_free       000000014007c230 f   pjlib-x86_64-x64-vc14-debug-dynamic:os_core_win32.obj
 0001:0007b260       pj_thread_local_set        000000014007c260 f   pjlib-x86_64-x64-vc14-debug-dynamic:os_core_win32.obj
 0001:0007b2f0       pj_thread_local_get        000000014007c2f0 f   pjlib-x86_64-x64-vc14-debug-dynamic:os_core_win32.obj
 0001:0007b310       pj_atomic_create           000000014007c310 f   pjlib-x86_64-x64-vc14-debug-dynamic:os_core_win32.obj
 0001:0007b370       pj_atomic_destroy          000000014007c370 f   pjlib-x86_64-x64-vc14-debug-dynamic:os_core_win32.obj
 0001:0007b3c0       pj_atomic_set              000000014007c3c0 f   pjlib-x86_64-x64-vc14-debug-dynamic:os_core_win32.obj
 0001:0007b430       pj_atomic_get              000000014007c430 f   pjlib-x86_64-x64-vc14-debug-dynamic:os_core_win32.obj
 0001:0007b4a0       pj_atomic_inc              000000014007c4a0 f   pjlib-x86_64-x64-vc14-debug-dynamic:os_core_win32.obj
 0001:0007b500       pj_atomic_inc_and_get      000000014007c500 f   pjlib-x86_64-x64-vc14-debug-dynamic:os_core_win32.obj
 0001:0007b540       pj_atomic_dec              000000014007c540 f   pjlib-x86_64-x64-vc14-debug-dynamic:os_core_win32.obj
 0001:0007b5a0       pj_atomic_dec_and_get      000000014007c5a0 f   pjlib-x86_64-x64-vc14-debug-dynamic:os_core_win32.obj
 0001:0007b5e0       pj_atomic_add              000000014007c5e0 f   pjlib-x86_64-x64-vc14-debug-dynamic:os_core_win32.obj
 0001:0007b640       pj_atomic_add_and_get      000000014007c640 f   pjlib-x86_64-x64-vc14-debug-dynamic:os_core_win32.obj
 0001:0007b680       pj_mutex_create            000000014007c680 f   pjlib-x86_64-x64-vc14-debug-dynamic:os_core_win32.obj
 0001:0007b740       pj_mutex_create_simple     000000014007c740 f   pjlib-x86_64-x64-vc14-debug-dynamic:os_core_win32.obj
 0001:0007b780       pj_mutex_create_recursive  000000014007c780 f   pjlib-x86_64-x64-vc14-debug-dynamic:os_core_win32.obj
 0001:0007b7c0       pj_mutex_lock              000000014007c7c0 f   pjlib-x86_64-x64-vc14-debug-dynamic:os_core_win32.obj
 0001:0007b880       pj_mutex_unlock            000000014007c880 f   pjlib-x86_64-x64-vc14-debug-dynamic:os_core_win32.obj
 0001:0007b960       pj_mutex_trylock           000000014007c960 f   pjlib-x86_64-x64-vc14-debug-dynamic:os_core_win32.obj
 0001:0007ba40       pj_mutex_destroy           000000014007ca40 f   pjlib-x86_64-x64-vc14-debug-dynamic:os_core_win32.obj
 0001:0007bac0       pj_mutex_is_locked         000000014007cac0 f   pjlib-x86_64-x64-vc14-debug-dynamic:os_core_win32.obj
 0001:0007bb00       pj_rwmutex_create          000000014007cb00 f   pjlib-x86_64-x64-vc14-debug-dynamic:os_core_win32.obj
 0001:0007bc20       pj_rwmutex_lock_read       000000014007cc20 f   pjlib-x86_64-x64-vc14-debug-dynamic:os_core_win32.obj
 0001:0007bd20       pj_rwmutex_lock_write      000000014007cd20 f   pjlib-x86_64-x64-vc14-debug-dynamic:os_core_win32.obj
 0001:0007bd80       pj_rwmutex_unlock_read     000000014007cd80 f   pjlib-x86_64-x64-vc14-debug-dynamic:os_core_win32.obj
 0001:0007be80       pj_rwmutex_unlock_write    000000014007ce80 f   pjlib-x86_64-x64-vc14-debug-dynamic:os_core_win32.obj
 0001:0007bf10       pj_rwmutex_destroy         000000014007cf10 f   pjlib-x86_64-x64-vc14-debug-dynamic:os_core_win32.obj
 0001:0007bf80       pj_enter_critical_section  000000014007cf80 f   pjlib-x86_64-x64-vc14-debug-dynamic:os_core_win32.obj
 0001:0007bfa0       pj_leave_critical_section  000000014007cfa0 f   pjlib-x86_64-x64-vc14-debug-dynamic:os_core_win32.obj
 0001:0007bfc0       pj_sem_create              000000014007cfc0 f   pjlib-x86_64-x64-vc14-debug-dynamic:os_core_win32.obj
 0001:0007c160       pj_sem_wait                000000014007d160 f   pjlib-x86_64-x64-vc14-debug-dynamic:os_core_win32.obj
 0001:0007c1d0       pj_sem_trywait             000000014007d1d0 f   pjlib-x86_64-x64-vc14-debug-dynamic:os_core_win32.obj
 0001:0007c240       pj_sem_post                000000014007d240 f   pjlib-x86_64-x64-vc14-debug-dynamic:os_core_win32.obj
 0001:0007c310       pj_sem_destroy             000000014007d310 f   pjlib-x86_64-x64-vc14-debug-dynamic:os_core_win32.obj
 0001:0007c3e0       pj_event_create            000000014007d3e0 f   pjlib-x86_64-x64-vc14-debug-dynamic:os_core_win32.obj
 0001:0007c5c0       pj_event_wait              000000014007d5c0 f   pjlib-x86_64-x64-vc14-debug-dynamic:os_core_win32.obj
 0001:0007c620       pj_event_trywait           000000014007d620 f   pjlib-x86_64-x64-vc14-debug-dynamic:os_core_win32.obj
 0001:0007c680       pj_event_set               000000014007d680 f   pjlib-x86_64-x64-vc14-debug-dynamic:os_core_win32.obj
 0001:0007c750       pj_event_pulse             000000014007d750 f   pjlib-x86_64-x64-vc14-debug-dynamic:os_core_win32.obj
 0001:0007c820       pj_event_reset             000000014007d820 f   pjlib-x86_64-x64-vc14-debug-dynamic:os_core_win32.obj
 0001:0007c8f0       pj_event_destroy           000000014007d8f0 f   pjlib-x86_64-x64-vc14-debug-dynamic:os_core_win32.obj
 0001:0007c9c0       pj_term_set_color          000000014007d9c0 f   pjlib-x86_64-x64-vc14-debug-dynamic:os_core_win32.obj
 0001:0007ca80       pj_term_get_color          000000014007da80 f   pjlib-x86_64-x64-vc14-debug-dynamic:os_core_win32.obj
 0001:0007cae0       pj_run_app                 000000014007dae0 f   pjlib-x86_64-x64-vc14-debug-dynamic:os_core_win32.obj
 0001:0007cb10       pj_thread_init             000000014007db10 f   pjlib-x86_64-x64-vc14-debug-dynamic:os_core_win32.obj
 0001:0007dbf0       pj_strerror                000000014007ebf0 f   pjlib-x86_64-x64-vc14-debug-dynamic:errno.obj
 0001:0007de90       pj_perror                  000000014007ee90 f   pjlib-x86_64-x64-vc14-debug-dynamic:errno.obj
 0001:0007def0       pj_register_strerror       000000014007eef0 f   pjlib-x86_64-x64-vc14-debug-dynamic:errno.obj
 0001:0007e150       pj_errno_clear_handlers    000000014007f150 f   pjlib-x86_64-x64-vc14-debug-dynamic:errno.obj
 0001:0007e180       pj_perror_1                000000014007f180 f   pjlib-x86_64-x64-vc14-debug-dynamic:errno.obj
 0001:0007e1e0       pj_perror_2                000000014007f1e0 f   pjlib-x86_64-x64-vc14-debug-dynamic:errno.obj
 0001:0007e240       pj_perror_3                000000014007f240 f   pjlib-x86_64-x64-vc14-debug-dynamic:errno.obj
 0001:0007e2a0       pj_perror_4                000000014007f2a0 f   pjlib-x86_64-x64-vc14-debug-dynamic:errno.obj
 0001:0007e300       pj_perror_5                000000014007f300 f   pjlib-x86_64-x64-vc14-debug-dynamic:errno.obj
 0001:0007e8d0       pj_list_insert_before      000000014007f8d0 f   pjlib-x86_64-x64-vc14-debug-dynamic:list.obj
 0001:0007e900       pj_list_insert_nodes_before 000000014007f900 f   pjlib-x86_64-x64-vc14-debug-dynamic:list.obj
 0001:0007e930       pj_list_insert_after       000000014007f930 f   pjlib-x86_64-x64-vc14-debug-dynamic:list.obj
 0001:0007e980       pj_list_insert_nodes_after 000000014007f980 f   pjlib-x86_64-x64-vc14-debug-dynamic:list.obj
 0001:0007e9e0       pj_list_merge_first        000000014007f9e0 f   pjlib-x86_64-x64-vc14-debug-dynamic:list.obj
 0001:0007ea40       pj_list_merge_last         000000014007fa40 f   pjlib-x86_64-x64-vc14-debug-dynamic:list.obj
 0001:0007eaa0       pj_list_erase              000000014007faa0 f   pjlib-x86_64-x64-vc14-debug-dynamic:list.obj
 0001:0007eae0       pj_list_find_node          000000014007fae0 f   pjlib-x86_64-x64-vc14-debug-dynamic:list.obj
 0001:0007eb50       pj_list_search             000000014007fb50 f   pjlib-x86_64-x64-vc14-debug-dynamic:list.obj
 0001:0007ebd0       pj_list_size               000000014007fbd0 f   pjlib-x86_64-x64-vc14-debug-dynamic:list.obj
 0001:0007ed80       pj_inet_ntop2              000000014007fd80 f   pjlib-x86_64-x64-vc14-debug-dynamic:sock_common.obj
 0001:0007ede0       pj_sockaddr_print          000000014007fde0 f   pjlib-x86_64-x64-vc14-debug-dynamic:sock_common.obj
 0001:0007ef80       pj_inet_addr               000000014007ff80 f   pjlib-x86_64-x64-vc14-debug-dynamic:sock_common.obj
 0001:0007efb0       pj_inet_addr2              000000014007ffb0 f   pjlib-x86_64-x64-vc14-debug-dynamic:sock_common.obj
 0001:0007f000       pj_sockaddr_in_init        0000000140080000 f   pjlib-x86_64-x64-vc14-debug-dynamic:sock_common.obj
 0001:0007f0b0       pj_sockaddr_init           00000001400800b0 f   pjlib-x86_64-x64-vc14-debug-dynamic:sock_common.obj
 0001:0007f1a0       pj_sockaddr_cmp            00000001400801a0 f   pjlib-x86_64-x64-vc14-debug-dynamic:sock_common.obj
 0001:0007f2b0       pj_sockaddr_get_addr       00000001400802b0 f   pjlib-x86_64-x64-vc14-debug-dynamic:sock_common.obj
 0001:0007f370       pj_sockaddr_has_addr       0000000140080370 f   pjlib-x86_64-x64-vc14-debug-dynamic:sock_common.obj
 0001:0007f460       pj_sockaddr_get_addr_len   0000000140080460 f   pjlib-x86_64-x64-vc14-debug-dynamic:sock_common.obj
 0001:0007f520       pj_sockaddr_get_len        0000000140080520 f   pjlib-x86_64-x64-vc14-debug-dynamic:sock_common.obj
 0001:0007f5e0       pj_sockaddr_copy_addr      00000001400805e0 f   pjlib-x86_64-x64-vc14-debug-dynamic:sock_common.obj
 0001:0007f650       pj_sockaddr_cp             0000000140080650 f   pjlib-x86_64-x64-vc14-debug-dynamic:sock_common.obj
 0001:0007f690       pj_sockaddr_synthesize     0000000140080690 f   pjlib-x86_64-x64-vc14-debug-dynamic:sock_common.obj
 0001:0007f820       pj_sockaddr_in_get_addr    0000000140080820 f   pjlib-x86_64-x64-vc14-debug-dynamic:sock_common.obj
 0001:0007f850       pj_sockaddr_in_set_addr    0000000140080850 f   pjlib-x86_64-x64-vc14-debug-dynamic:sock_common.obj
 0001:0007f880       pj_sockaddr_in_set_str_addr 0000000140080880 f   pjlib-x86_64-x64-vc14-debug-dynamic:sock_common.obj
 0001:0007fa30       pj_sockaddr_set_str_addr   0000000140080a30 f   pjlib-x86_64-x64-vc14-debug-dynamic:sock_common.obj
 0001:0007fbd0       pj_sockaddr_get_port       0000000140080bd0 f   pjlib-x86_64-x64-vc14-debug-dynamic:sock_common.obj
 0001:0007fca0       pj_sockaddr_in_get_port    0000000140080ca0 f   pjlib-x86_64-x64-vc14-debug-dynamic:sock_common.obj
 0001:0007fcd0       pj_sockaddr_set_port       0000000140080cd0 f   pjlib-x86_64-x64-vc14-debug-dynamic:sock_common.obj
 0001:0007fd90       pj_sockaddr_in_set_port    0000000140080d90 f   pjlib-x86_64-x64-vc14-debug-dynamic:sock_common.obj
 0001:0007fdc0       pj_sockaddr_parse          0000000140080dc0 f   pjlib-x86_64-x64-vc14-debug-dynamic:sock_common.obj
 0001:0007ff40       pj_sockaddr_parse2         0000000140080f40 f   pjlib-x86_64-x64-vc14-debug-dynamic:sock_common.obj
 0001:00080490       pj_gethostaddr             0000000140081490 f   pjlib-x86_64-x64-vc14-debug-dynamic:sock_common.obj
 0001:000804e0       pj_sock_bind_random        00000001400814e0 f   pjlib-x86_64-x64-vc14-debug-dynamic:sock_common.obj
 0001:00080660       pj_sock_setsockopt_sobuf   0000000140081660 f   pjlib-x86_64-x64-vc14-debug-dynamic:sock_common.obj
 0001:00080880       pj_addr_str_print          0000000140081880 f   pjlib-x86_64-x64-vc14-debug-dynamic:sock_common.obj
 0001:00080b10       pj_gethostip               0000000140081b10 f   pjlib-x86_64-x64-vc14-debug-dynamic:sock_common.obj
 0001:00081660       pj_getipinterface          0000000140082660 f   pjlib-x86_64-x64-vc14-debug-dynamic:sock_common.obj
 0001:000818e0       pj_getdefaultipinterface   00000001400828e0 f   pjlib-x86_64-x64-vc14-debug-dynamic:sock_common.obj
 0001:00082470       pj_pool_create             0000000140083470 f   pjlib-x86_64-x64-vc14-debug-dynamic:pool.obj
 0001:000824c0       pj_pool_release            00000001400834c0 f   pjlib-x86_64-x64-vc14-debug-dynamic:pool.obj
 0001:00082500       pj_pool_safe_release       0000000140083500 f   pjlib-x86_64-x64-vc14-debug-dynamic:pool.obj
 0001:00082540       pj_pool_secure_release     0000000140083540 f   pjlib-x86_64-x64-vc14-debug-dynamic:pool.obj
 0001:000825f0       pj_pool_getobjname         00000001400835f0 f   pjlib-x86_64-x64-vc14-debug-dynamic:pool.obj
 0001:00082610       pj_pool_reset              0000000140083610 f   pjlib-x86_64-x64-vc14-debug-dynamic:pool.obj
 0001:00082640       pj_pool_get_capacity       0000000140083640 f   pjlib-x86_64-x64-vc14-debug-dynamic:pool.obj
 0001:00082660       pj_pool_get_used_size      0000000140083660 f   pjlib-x86_64-x64-vc14-debug-dynamic:pool.obj
 0001:000826d0       pj_pool_alloc              00000001400836d0 f   pjlib-x86_64-x64-vc14-debug-dynamic:pool.obj
 0001:00082730       pj_pool_calloc             0000000140083730 f   pjlib-x86_64-x64-vc14-debug-dynamic:pool.obj
 0001:00082790       pj_pool_alloc_from_block   0000000140083790 f   pjlib-x86_64-x64-vc14-debug-dynamic:pool.obj
 0001:00082820       pj_pool_allocate_find      0000000140083820 f   pjlib-x86_64-x64-vc14-debug-dynamic:pool.obj
 0001:000829a0       pj_NO_MEMORY_EXCEPTION     00000001400839a0 f   pjlib-x86_64-x64-vc14-debug-dynamic:pool.obj
 0001:000829b0       pj_pool_create_int         00000001400839b0 f   pjlib-x86_64-x64-vc14-debug-dynamic:pool.obj
 0001:00082b40       pj_pool_init_int           0000000140083b40 f   pjlib-x86_64-x64-vc14-debug-dynamic:pool.obj
 0001:00082c20       pj_pool_destroy_int        0000000140083c20 f   pjlib-x86_64-x64-vc14-debug-dynamic:pool.obj
 0001:00083220       pj_caching_pool_init       0000000140084220 f   pjlib-x86_64-x64-vc14-debug-dynamic:pool_caching.obj
 0001:00083380       pj_caching_pool_destroy    0000000140084380 f   pjlib-x86_64-x64-vc14-debug-dynamic:pool_caching.obj
 0001:00083f30       pj_str                     0000000140084f30 f   pjlib-x86_64-x64-vc14-debug-dynamic:string.obj
 0001:00083fa0       pj_strassign               0000000140084fa0 f   pjlib-x86_64-x64-vc14-debug-dynamic:string.obj
 0001:00083fe0       pj_strcpy                  0000000140084fe0 f   pjlib-x86_64-x64-vc14-debug-dynamic:string.obj
 0001:00084040       pj_strcpy2                 0000000140085040 f   pjlib-x86_64-x64-vc14-debug-dynamic:string.obj
 0001:000840c0       pj_strncpy                 00000001400850c0 f   pjlib-x86_64-x64-vc14-debug-dynamic:string.obj
 0001:00084160       pj_strncpy_with_null       0000000140085160 f   pjlib-x86_64-x64-vc14-debug-dynamic:string.obj
 0001:00084210       pj_strdup                  0000000140085210 f   pjlib-x86_64-x64-vc14-debug-dynamic:string.obj
 0001:000842a0       pj_strdup_with_null        00000001400852a0 f   pjlib-x86_64-x64-vc14-debug-dynamic:string.obj
 0001:00084340       pj_strdup2                 0000000140085340 f   pjlib-x86_64-x64-vc14-debug-dynamic:string.obj
 0001:000843f0       pj_strdup2_with_null       00000001400853f0 f   pjlib-x86_64-x64-vc14-debug-dynamic:string.obj
 0001:000844a0       pj_strdup3                 00000001400854a0 f   pjlib-x86_64-x64-vc14-debug-dynamic:string.obj
 0001:000844f0       pj_strcmp                  00000001400854f0 f   pjlib-x86_64-x64-vc14-debug-dynamic:string.obj
 0001:00084620       pj_strcmp2                 0000000140085620 f   pjlib-x86_64-x64-vc14-debug-dynamic:string.obj
 0001:00084680       pj_strncmp                 0000000140085680 f   pjlib-x86_64-x64-vc14-debug-dynamic:string.obj
 0001:00084710       pj_strncmp2                0000000140085710 f   pjlib-x86_64-x64-vc14-debug-dynamic:string.obj
 0001:00084770       pj_stricmp                 0000000140085770 f   pjlib-x86_64-x64-vc14-debug-dynamic:string.obj
 0001:000848a0       pj_stricmp2                00000001400858a0 f   pjlib-x86_64-x64-vc14-debug-dynamic:string.obj
 0001:00084900       pj_strnicmp                0000000140085900 f   pjlib-x86_64-x64-vc14-debug-dynamic:string.obj
 0001:00084990       pj_strnicmp2               0000000140085990 f   pjlib-x86_64-x64-vc14-debug-dynamic:string.obj
 0001:000849f0       pj_strcat                  00000001400859f0 f   pjlib-x86_64-x64-vc14-debug-dynamic:string.obj
 0001:00084a60       pj_strcat2                 0000000140085a60 f   pjlib-x86_64-x64-vc14-debug-dynamic:string.obj
 0001:00084af0       pj_strspn                  0000000140085af0 f   pjlib-x86_64-x64-vc14-debug-dynamic:string.obj
 0001:00084bb0       pj_strspn2                 0000000140085bb0 f   pjlib-x86_64-x64-vc14-debug-dynamic:string.obj
 0001:00084c80       pj_strcspn                 0000000140085c80 f   pjlib-x86_64-x64-vc14-debug-dynamic:string.obj
 0001:00084d20       pj_strcspn2                0000000140085d20 f   pjlib-x86_64-x64-vc14-debug-dynamic:string.obj
 0001:00084dd0       pj_strtok                  0000000140085dd0 f   pjlib-x86_64-x64-vc14-debug-dynamic:string.obj
 0001:00084ef0       pj_strtok2                 0000000140085ef0 f   pjlib-x86_64-x64-vc14-debug-dynamic:string.obj
 0001:00085010       pj_strstr                  0000000140086010 f   pjlib-x86_64-x64-vc14-debug-dynamic:string.obj
 0001:000850c0       pj_stristr                 00000001400860c0 f   pjlib-x86_64-x64-vc14-debug-dynamic:string.obj
 0001:00085170       pj_strltrim                0000000140086170 f   pjlib-x86_64-x64-vc14-debug-dynamic:string.obj
 0001:00085210       pj_strrtrim                0000000140086210 f   pjlib-x86_64-x64-vc14-debug-dynamic:string.obj
 0001:000852b0       pj_strtrim                 00000001400862b0 f   pjlib-x86_64-x64-vc14-debug-dynamic:string.obj
 0001:000852e0       pj_create_random_string    00000001400862e0 f   pjlib-x86_64-x64-vc14-debug-dynamic:string.obj
 0001:00085430       pj_strtol                  0000000140086430 f   pjlib-x86_64-x64-vc14-debug-dynamic:string.obj
 0001:00085510       pj_strtol2                 0000000140086510 f   pjlib-x86_64-x64-vc14-debug-dynamic:string.obj
 0001:00085700       pj_strtoul                 0000000140086700 f   pjlib-x86_64-x64-vc14-debug-dynamic:string.obj
 0001:00085790       pj_strtoul2                0000000140086790 f   pjlib-x86_64-x64-vc14-debug-dynamic:string.obj
 0001:00085920       pj_strtoul3                0000000140086920 f   pjlib-x86_64-x64-vc14-debug-dynamic:string.obj
 0001:00085c00       pj_strtof                  0000000140086c00 f   pjlib-x86_64-x64-vc14-debug-dynamic:string.obj
 0001:00085dd0       pj_utoa                    0000000140086dd0 f   pjlib-x86_64-x64-vc14-debug-dynamic:string.obj
 0001:00085e00       pj_utoa_pad                0000000140086e00 f   pjlib-x86_64-x64-vc14-debug-dynamic:string.obj
 0001:00086950       pj_array_insert            0000000140087950 f   pjlib-x86_64-x64-vc14-debug-dynamic:array.obj
 0001:00086a10       pj_array_erase             0000000140087a10 f   pjlib-x86_64-x64-vc14-debug-dynamic:array.obj
 0001:00086ac0       pj_array_find              0000000140087ac0 f   pjlib-x86_64-x64-vc14-debug-dynamic:array.obj
 0001:00086c10       pj_log                     0000000140087c10 f   pjlib-x86_64-x64-vc14-debug-dynamic:log.obj
 0001:00087480       pj_log_set_log_func        0000000140088480 f   pjlib-x86_64-x64-vc14-debug-dynamic:log.obj
 0001:000874a0       pj_log_get_log_func        00000001400884a0 f   pjlib-x86_64-x64-vc14-debug-dynamic:log.obj
 0001:000874b0       pj_log_set_level           00000001400884b0 f   pjlib-x86_64-x64-vc14-debug-dynamic:log.obj
 0001:000874d0       pj_log_get_level           00000001400884d0 f   pjlib-x86_64-x64-vc14-debug-dynamic:log.obj
 0001:000874e0       pj_log_set_decor           00000001400884e0 f   pjlib-x86_64-x64-vc14-debug-dynamic:log.obj
 0001:00087500       pj_log_get_decor           0000000140088500 f   pjlib-x86_64-x64-vc14-debug-dynamic:log.obj
 0001:00087510       pj_log_add_indent          0000000140088510 f   pjlib-x86_64-x64-vc14-debug-dynamic:log.obj
 0001:00087540       pj_log_push_indent         0000000140088540 f   pjlib-x86_64-x64-vc14-debug-dynamic:log.obj
 0001:00087560       pj_log_pop_indent          0000000140088560 f   pjlib-x86_64-x64-vc14-debug-dynamic:log.obj
 0001:00087580       pj_log_set_color           0000000140088580 f   pjlib-x86_64-x64-vc14-debug-dynamic:log.obj
 0001:000876a0       pj_log_get_color           00000001400886a0 f   pjlib-x86_64-x64-vc14-debug-dynamic:log.obj
 0001:00087740       pj_log_init                0000000140088740 f   pjlib-x86_64-x64-vc14-debug-dynamic:log.obj
 0001:000877c0       pj_log_1                   00000001400887c0 f   pjlib-x86_64-x64-vc14-debug-dynamic:log.obj
 0001:00087810       pj_log_2                   0000000140088810 f   pjlib-x86_64-x64-vc14-debug-dynamic:log.obj
 0001:00087860       pj_log_3                   0000000140088860 f   pjlib-x86_64-x64-vc14-debug-dynamic:log.obj
 0001:000878b0       pj_log_4                   00000001400888b0 f   pjlib-x86_64-x64-vc14-debug-dynamic:log.obj
 0001:00087900       pj_log_5                   0000000140088900 f   pjlib-x86_64-x64-vc14-debug-dynamic:log.obj
 0001:00087f50       pj_ntohs                   0000000140088f50 f   pjlib-x86_64-x64-vc14-debug-dynamic:sock_bsd.obj
 0001:00087f70       pj_htons                   0000000140088f70 f   pjlib-x86_64-x64-vc14-debug-dynamic:sock_bsd.obj
 0001:00087f90       pj_ntohl                   0000000140088f90 f   pjlib-x86_64-x64-vc14-debug-dynamic:sock_bsd.obj
 0001:00087fb0       pj_htonl                   0000000140088fb0 f   pjlib-x86_64-x64-vc14-debug-dynamic:sock_bsd.obj
 0001:00087fd0       pj_inet_ntoa               0000000140088fd0 f   pjlib-x86_64-x64-vc14-debug-dynamic:sock_bsd.obj
 0001:00088010       pj_inet_aton               0000000140089010 f   pjlib-x86_64-x64-vc14-debug-dynamic:sock_bsd.obj
 0001:00088140       pj_inet_pton               0000000140089140 f   pjlib-x86_64-x64-vc14-debug-dynamic:sock_bsd.obj
 0001:000883e0       pj_inet_ntop               00000001400893e0 f   pjlib-x86_64-x64-vc14-debug-dynamic:sock_bsd.obj
 0001:00088640       pj_gethostname             0000000140089640 f   pjlib-x86_64-x64-vc14-debug-dynamic:sock_bsd.obj
 0001:000886d0       pj_sock_socket             00000001400896d0 f   pjlib-x86_64-x64-vc14-debug-dynamic:sock_bsd.obj
 0001:00088870       pj_sock_close              0000000140089870 f   pjlib-x86_64-x64-vc14-debug-dynamic:sock_bsd.obj
 0001:00088900       pj_sock_bind               0000000140089900 f   pjlib-x86_64-x64-vc14-debug-dynamic:sock_bsd.obj
 0001:000889e0       pj_sock_bind_in            00000001400899e0 f   pjlib-x86_64-x64-vc14-debug-dynamic:sock_bsd.obj
 0001:00088a80       pj_sock_listen             0000000140089a80 f   pjlib-x86_64-x64-vc14-debug-dynamic:sock_bsd.obj
 0001:00088b10       pj_sock_accept             0000000140089b10 f   pjlib-x86_64-x64-vc14-debug-dynamic:sock_bsd.obj
 0001:00088bf0       pj_sock_connect            0000000140089bf0 f   pjlib-x86_64-x64-vc14-debug-dynamic:sock_bsd.obj
 0001:00088c90       pj_sock_getpeername        0000000140089c90 f   pjlib-x86_64-x64-vc14-debug-dynamic:sock_bsd.obj
 0001:00088d30       pj_sock_getsockname        0000000140089d30 f   pjlib-x86_64-x64-vc14-debug-dynamic:sock_bsd.obj
 0001:00088dd0       pj_sock_getsockopt         0000000140089dd0 f   pjlib-x86_64-x64-vc14-debug-dynamic:sock_bsd.obj
 0001:00088ed0       pj_sock_setsockopt         0000000140089ed0 f   pjlib-x86_64-x64-vc14-debug-dynamic:sock_bsd.obj
 0001:00088fb0       pj_sock_setsockopt_params  0000000140089fb0 f   pjlib-x86_64-x64-vc14-debug-dynamic:sock_bsd.obj
 0001:00089100       pj_sock_recv               000000014008a100 f   pjlib-x86_64-x64-vc14-debug-dynamic:sock_bsd.obj
 0001:00089200       pj_sock_recvfrom           000000014008a200 f   pjlib-x86_64-x64-vc14-debug-dynamic:sock_bsd.obj
 0001:00089310       pj_sock_send               000000014008a310 f   pjlib-x86_64-x64-vc14-debug-dynamic:sock_bsd.obj
 0001:00089400       pj_sock_sendto             000000014008a400 f   pjlib-x86_64-x64-vc14-debug-dynamic:sock_bsd.obj
 0001:00089500       pj_sock_shutdown           000000014008a500 f   pjlib-x86_64-x64-vc14-debug-dynamic:sock_bsd.obj
 0001:00089ba0       pj_lock_create_simple_mutex 000000014008aba0 f   pjlib-x86_64-x64-vc14-debug-dynamic:lock.obj
 0001:00089be0       pj_lock_create_recursive_mutex 000000014008abe0 f   pjlib-x86_64-x64-vc14-debug-dynamic:lock.obj
 0001:00089c20       pj_lock_create_null_mutex  000000014008ac20 f   pjlib-x86_64-x64-vc14-debug-dynamic:lock.obj
 0001:00089c90       pj_lock_create_semaphore   000000014008ac90 f   pjlib-x86_64-x64-vc14-debug-dynamic:lock.obj
 0001:00089da0       pj_lock_acquire            000000014008ada0 f   pjlib-x86_64-x64-vc14-debug-dynamic:lock.obj
 0001:00089e00       pj_lock_tryacquire         000000014008ae00 f   pjlib-x86_64-x64-vc14-debug-dynamic:lock.obj
 0001:00089e60       pj_lock_release            000000014008ae60 f   pjlib-x86_64-x64-vc14-debug-dynamic:lock.obj
 0001:00089ec0       pj_lock_destroy            000000014008aec0 f   pjlib-x86_64-x64-vc14-debug-dynamic:lock.obj
 0001:00089f20       pj_grp_lock_config_default 000000014008af20 f   pjlib-x86_64-x64-vc14-debug-dynamic:lock.obj
 0001:00089f50       pj_grp_lock_create         000000014008af50 f   pjlib-x86_64-x64-vc14-debug-dynamic:lock.obj
 0001:0008a140       pj_grp_lock_create_w_handler 000000014008b140 f   pjlib-x86_64-x64-vc14-debug-dynamic:lock.obj
 0001:0008a1b0       pj_grp_lock_destroy        000000014008b1b0 f   pjlib-x86_64-x64-vc14-debug-dynamic:lock.obj
 0001:0008a1d0       pj_grp_lock_replace        000000014008b1d0 f   pjlib-x86_64-x64-vc14-debug-dynamic:lock.obj
 0001:0008a290       pj_grp_lock_acquire        000000014008b290 f   pjlib-x86_64-x64-vc14-debug-dynamic:lock.obj
 0001:0008a2b0       pj_grp_lock_tryacquire     000000014008b2b0 f   pjlib-x86_64-x64-vc14-debug-dynamic:lock.obj
 0001:0008a2d0       pj_grp_lock_release        000000014008b2d0 f   pjlib-x86_64-x64-vc14-debug-dynamic:lock.obj
 0001:0008a2f0       pj_grp_lock_add_handler    000000014008b2f0 f   pjlib-x86_64-x64-vc14-debug-dynamic:lock.obj
 0001:0008a340       pj_grp_lock_del_handler    000000014008b340 f   pjlib-x86_64-x64-vc14-debug-dynamic:lock.obj
 0001:0008a3e0       pj_grp_lock_add_ref        000000014008b3e0 f   pjlib-x86_64-x64-vc14-debug-dynamic:lock.obj
 0001:0008a400       pj_grp_lock_dec_ref        000000014008b400 f   pjlib-x86_64-x64-vc14-debug-dynamic:lock.obj
 0001:0008a420       pj_grp_lock_get_ref        000000014008b420 f   pjlib-x86_64-x64-vc14-debug-dynamic:lock.obj
 0001:0008a450       pj_grp_lock_dump           000000014008b450 f   pjlib-x86_64-x64-vc14-debug-dynamic:lock.obj
 0001:0008a4a0       pj_grp_lock_chain_lock     000000014008b4a0 f   pjlib-x86_64-x64-vc14-debug-dynamic:lock.obj
 0001:0008a590       pj_grp_lock_unchain_lock   000000014008b590 f   pjlib-x86_64-x64-vc14-debug-dynamic:lock.obj
 0001:0008b290       pj_srand                   000000014008c290 f   pjlib-x86_64-x64-vc14-debug-dynamic:rand.obj
 0001:0008b2c0       pj_rand                    000000014008c2c0 f   pjlib-x86_64-x64-vc14-debug-dynamic:rand.obj
 0001:0008b340       pj_time_val_normalize      000000014008c340 f   pjlib-x86_64-x64-vc14-debug-dynamic:types.obj
 0001:0008b4b0       pj_timer_heap_mem_size     000000014008c4b0 f   pjlib-x86_64-x64-vc14-debug-dynamic:timer.obj
 0001:0008b4d0       pj_timer_heap_create       000000014008c4d0 f   pjlib-x86_64-x64-vc14-debug-dynamic:timer.obj
 0001:0008b6c0       pj_timer_heap_destroy      000000014008c6c0 f   pjlib-x86_64-x64-vc14-debug-dynamic:timer.obj
 0001:0008b710       pj_timer_heap_set_lock     000000014008c710 f   pjlib-x86_64-x64-vc14-debug-dynamic:timer.obj
 0001:0008b770       pj_timer_heap_set_max_timed_out_per_poll 000000014008c770 f   pjlib-x86_64-x64-vc14-debug-dynamic:timer.obj
 0001:0008b7b0       pj_timer_entry_init        000000014008c7b0 f   pjlib-x86_64-x64-vc14-debug-dynamic:timer.obj
 0001:0008b840       pj_timer_entry_running     000000014008c840 f   pjlib-x86_64-x64-vc14-debug-dynamic:timer.obj
 0001:0008b880       pj_timer_heap_schedule_dbg 000000014008c880 f   pjlib-x86_64-x64-vc14-debug-dynamic:timer.obj
 0001:0008b8e0       pj_timer_heap_schedule_w_grp_lock_dbg 000000014008c8e0 f   pjlib-x86_64-x64-vc14-debug-dynamic:timer.obj
 0001:0008b950       pj_timer_heap_cancel       000000014008c950 f   pjlib-x86_64-x64-vc14-debug-dynamic:timer.obj
 0001:0008b980       pj_timer_heap_cancel_if_active 000000014008c980 f   pjlib-x86_64-x64-vc14-debug-dynamic:timer.obj
 0001:0008b9c0       pj_timer_heap_count        000000014008c9c0 f   pjlib-x86_64-x64-vc14-debug-dynamic:timer.obj
 0001:0008ba20       pj_timer_heap_earliest_time 000000014008ca20 f   pjlib-x86_64-x64-vc14-debug-dynamic:timer.obj
 0001:0008bab0       pj_timer_heap_poll         000000014008cab0 f   pjlib-x86_64-x64-vc14-debug-dynamic:timer.obj
 0001:0008be60       pj_timer_heap_dump         000000014008ce60 f   pjlib-x86_64-x64-vc14-debug-dynamic:timer.obj
 0001:0008d770       pj_gettimeofday            000000014008e770 f   pjlib-x86_64-x64-vc14-debug-dynamic:os_time_win32.obj
 0001:0008d830       pj_time_decode             000000014008e830 f   pjlib-x86_64-x64-vc14-debug-dynamic:os_time_win32.obj
 0001:0008d930       pj_time_encode             000000014008e930 f   pjlib-x86_64-x64-vc14-debug-dynamic:os_time_win32.obj
 0001:0008dc00       pj_ioqueue_name            000000014008ec00 f   pjlib-x86_64-x64-vc14-debug-dynamic:ioqueue_select.obj
 0001:0008dc10       pj_ioqueue_create          000000014008ec10 f   pjlib-x86_64-x64-vc14-debug-dynamic:ioqueue_select.obj
 0001:0008df00       pj_ioqueue_destroy         000000014008ef00 f   pjlib-x86_64-x64-vc14-debug-dynamic:ioqueue_select.obj
 0001:0008e040       pj_ioqueue_set_lock        000000014008f040 f   pjlib-x86_64-x64-vc14-debug-dynamic:ioqueue_select.obj
 0001:0008e0f0       pj_ioqueue_set_default_concurrency 000000014008f0f0 f   pjlib-x86_64-x64-vc14-debug-dynamic:ioqueue_select.obj
 0001:0008e150       pj_ioqueue_register_sock   000000014008f150 f   pjlib-x86_64-x64-vc14-debug-dynamic:ioqueue_select.obj
 0001:0008e1b0       pj_ioqueue_register_sock2  000000014008f1b0 f   pjlib-x86_64-x64-vc14-debug-dynamic:ioqueue_select.obj
 0001:0008e460       pj_ioqueue_unregister      000000014008f460 f   pjlib-x86_64-x64-vc14-debug-dynamic:ioqueue_select.obj
 0001:0008e670       pj_ioqueue_get_user_data   000000014008f670 f   pjlib-x86_64-x64-vc14-debug-dynamic:ioqueue_select.obj
 0001:0008e6d0       pj_ioqueue_set_user_data   000000014008f6d0 f   pjlib-x86_64-x64-vc14-debug-dynamic:ioqueue_select.obj
 0001:0008e750       pj_ioqueue_set_concurrency 000000014008f750 f   pjlib-x86_64-x64-vc14-debug-dynamic:ioqueue_select.obj
 0001:0008e800       pj_ioqueue_lock_key        000000014008f800 f   pjlib-x86_64-x64-vc14-debug-dynamic:ioqueue_select.obj
 0001:0008e840       pj_ioqueue_trylock_key     000000014008f840 f   pjlib-x86_64-x64-vc14-debug-dynamic:ioqueue_select.obj
 0001:0008e880       pj_ioqueue_unlock_key      000000014008f880 f   pjlib-x86_64-x64-vc14-debug-dynamic:ioqueue_select.obj
 0001:0008e8c0       pj_ioqueue_op_key_init     000000014008f8c0 f   pjlib-x86_64-x64-vc14-debug-dynamic:ioqueue_select.obj
 0001:0008e8f0       pj_ioqueue_is_pending      000000014008f8f0 f   pjlib-x86_64-x64-vc14-debug-dynamic:ioqueue_select.obj
 0001:0008e940       pj_ioqueue_post_completion 000000014008f940 f   pjlib-x86_64-x64-vc14-debug-dynamic:ioqueue_select.obj
 0001:0008eb20       pj_ioqueue_accept          000000014008fb20 f   pjlib-x86_64-x64-vc14-debug-dynamic:ioqueue_select.obj
 0001:0008ed70       pj_ioqueue_connect         000000014008fd70 f   pjlib-x86_64-x64-vc14-debug-dynamic:ioqueue_select.obj
 0001:0008eed0       pj_ioqueue_poll            000000014008fed0 f   pjlib-x86_64-x64-vc14-debug-dynamic:ioqueue_select.obj
 0001:0008f4b0       pj_ioqueue_recv            00000001400904b0 f   pjlib-x86_64-x64-vc14-debug-dynamic:ioqueue_select.obj
 0001:0008f6e0       pj_ioqueue_recvfrom        00000001400906e0 f   pjlib-x86_64-x64-vc14-debug-dynamic:ioqueue_select.obj
 0001:0008f950       pj_ioqueue_send            0000000140090950 f   pjlib-x86_64-x64-vc14-debug-dynamic:ioqueue_select.obj
 0001:0008fb90       pj_ioqueue_sendto          0000000140090b90 f   pjlib-x86_64-x64-vc14-debug-dynamic:ioqueue_select.obj
 0001:00090400       ioqueue_dispatch_write_event 0000000140091400 f   pjlib-x86_64-x64-vc14-debug-dynamic:ioqueue_select.obj
 0001:000908d0       ioqueue_dispatch_read_event 00000001400918d0 f   pjlib-x86_64-x64-vc14-debug-dynamic:ioqueue_select.obj
 0001:00090c70       ioqueue_dispatch_exception_event 0000000140091c70 f   pjlib-x86_64-x64-vc14-debug-dynamic:ioqueue_select.obj
 0001:00091e30       pj_exception_id_alloc      0000000140092e30 f   pjlib-x86_64-x64-vc14-debug-dynamic:except.obj
 0001:00091eb0       pj_exception_id_free       0000000140092eb0 f   pjlib-x86_64-x64-vc14-debug-dynamic:except.obj
 0001:00091f30       pj_exception_id_name       0000000140092f30 f   pjlib-x86_64-x64-vc14-debug-dynamic:except.obj
 0001:00091fe0       pj_throw_exception_        0000000140092fe0 f   pjlib-x86_64-x64-vc14-debug-dynamic:except.obj
 0001:00092080       pj_push_exception_handler_ 0000000140093080 f   pjlib-x86_64-x64-vc14-debug-dynamic:except.obj
 0001:00092120       pj_pop_exception_handler_  0000000140093120 f   pjlib-x86_64-x64-vc14-debug-dynamic:except.obj
 0001:000922b0       pj_get_timestamp           00000001400932b0 f   pjlib-x86_64-x64-vc14-debug-dynamic:os_timestamp_win32.obj
 0001:00092330       pj_get_timestamp_freq      0000000140093330 f   pjlib-x86_64-x64-vc14-debug-dynamic:os_timestamp_win32.obj
 0001:000923e0       pj_hash_calc               00000001400933e0 f   pjlib-x86_64-x64-vc14-debug-dynamic:hash.obj
 0001:000924b0       pj_hash_calc_tolower       00000001400934b0 f   pjlib-x86_64-x64-vc14-debug-dynamic:hash.obj
 0001:00092540       pj_hash_create             0000000140093540 f   pjlib-x86_64-x64-vc14-debug-dynamic:hash.obj
 0001:000925f0       pj_hash_get                00000001400935f0 f   pjlib-x86_64-x64-vc14-debug-dynamic:hash.obj
 0001:00092680       pj_hash_get_lower          0000000140093680 f   pjlib-x86_64-x64-vc14-debug-dynamic:hash.obj
 0001:00092710       pj_hash_set                0000000140093710 f   pjlib-x86_64-x64-vc14-debug-dynamic:hash.obj
 0001:00092770       pj_hash_set_lower          0000000140093770 f   pjlib-x86_64-x64-vc14-debug-dynamic:hash.obj
 0001:000927d0       pj_hash_set_np             00000001400937d0 f   pjlib-x86_64-x64-vc14-debug-dynamic:hash.obj
 0001:00092830       pj_hash_set_np_lower       0000000140093830 f   pjlib-x86_64-x64-vc14-debug-dynamic:hash.obj
 0001:00092890       pj_hash_count              0000000140093890 f   pjlib-x86_64-x64-vc14-debug-dynamic:hash.obj
 0001:000928b0       pj_hash_first              00000001400938b0 f   pjlib-x86_64-x64-vc14-debug-dynamic:hash.obj
 0001:00092960       pj_hash_next               0000000140093960 f   pjlib-x86_64-x64-vc14-debug-dynamic:hash.obj
 0001:00092a30       pj_hash_this               0000000140093a30 f   pjlib-x86_64-x64-vc14-debug-dynamic:hash.obj
 0001:000932b0       pj_get_os_error            00000001400942b0 f   pjlib-x86_64-x64-vc14-debug-dynamic:os_error_win32.obj
 0001:000932f0       pj_set_os_error            00000001400942f0 f   pjlib-x86_64-x64-vc14-debug-dynamic:os_error_win32.obj
 0001:00093330       pj_get_netos_error         0000000140094330 f   pjlib-x86_64-x64-vc14-debug-dynamic:os_error_win32.obj
 0001:00093370       pj_set_netos_error         0000000140094370 f   pjlib-x86_64-x64-vc14-debug-dynamic:os_error_win32.obj
 0001:000933f0       platform_strerror          00000001400943f0 f   pjlib-x86_64-x64-vc14-debug-dynamic:os_error_win32.obj
 0001:00093730       pj_GUID_STRING_LENGTH      0000000140094730 f   pjlib-x86_64-x64-vc14-debug-dynamic:guid_win32.obj
 0001:00093740       pj_generate_unique_string  0000000140094740 f   pjlib-x86_64-x64-vc14-debug-dynamic:guid_win32.obj
 0001:00093960       pj_generate_unique_string_lower 0000000140094960 f   pjlib-x86_64-x64-vc14-debug-dynamic:guid.obj
 0001:000939d0       pj_create_unique_string    00000001400949d0 f   pjlib-x86_64-x64-vc14-debug-dynamic:guid.obj
 0001:00093a10       pj_create_unique_string_lower 0000000140094a10 f   pjlib-x86_64-x64-vc14-debug-dynamic:guid.obj
 0001:00093ad0       pj_sock_apply_qos          0000000140094ad0 f   pjlib-x86_64-x64-vc14-debug-dynamic:sock_qos_common.obj
 0001:00093c00       pj_sock_apply_qos2         0000000140094c00 f   pjlib-x86_64-x64-vc14-debug-dynamic:sock_qos_common.obj
 0001:00093c80       pj_qos_get_params          0000000140094c80 f   pjlib-x86_64-x64-vc14-debug-dynamic:sock_qos_common.obj
 0001:00093d10       pj_qos_get_type            0000000140094d10 f   pjlib-x86_64-x64-vc14-debug-dynamic:sock_qos_common.obj
 0001:00094020       pj_activesock_cfg_default  0000000140095020 f   pjlib-x86_64-x64-vc14-debug-dynamic:activesock.obj
 0001:00094070       pj_activesock_create       0000000140095070 f   pjlib-x86_64-x64-vc14-debug-dynamic:activesock.obj
 0001:00094460       pj_activesock_create_udp   0000000140095460 f   pjlib-x86_64-x64-vc14-debug-dynamic:activesock.obj
 0001:00094610       pj_activesock_close        0000000140095610 f   pjlib-x86_64-x64-vc14-debug-dynamic:activesock.obj
 0001:000946e0       pj_activesock_set_user_data 00000001400956e0 f   pjlib-x86_64-x64-vc14-debug-dynamic:activesock.obj
 0001:00094750       pj_activesock_get_user_data 0000000140095750 f   pjlib-x86_64-x64-vc14-debug-dynamic:activesock.obj
 0001:000947b0       pj_activesock_start_read   00000001400957b0 f   pjlib-x86_64-x64-vc14-debug-dynamic:activesock.obj
 0001:000948b0       pj_activesock_start_read2  00000001400958b0 f   pjlib-x86_64-x64-vc14-debug-dynamic:activesock.obj
 0001:00094b00       pj_activesock_start_recvfrom 0000000140095b00 f   pjlib-x86_64-x64-vc14-debug-dynamic:activesock.obj
 0001:00094c00       pj_activesock_start_recvfrom2 0000000140095c00 f   pjlib-x86_64-x64-vc14-debug-dynamic:activesock.obj
 0001:00094e50       pj_activesock_send         0000000140095e50 f   pjlib-x86_64-x64-vc14-debug-dynamic:activesock.obj
 0001:00095020       pj_activesock_sendto       0000000140096020 f   pjlib-x86_64-x64-vc14-debug-dynamic:activesock.obj
 0001:00095130       pj_activesock_start_accept 0000000140096130 f   pjlib-x86_64-x64-vc14-debug-dynamic:activesock.obj
 0001:00095300       pj_activesock_start_connect 0000000140096300 f   pjlib-x86_64-x64-vc14-debug-dynamic:activesock.obj
 0001:000964e0       pj_gettickcount            00000001400974e0 f   pjlib-x86_64-x64-vc14-debug-dynamic:os_timestamp_common.obj
 0001:00096540       pj_elapsed_time            0000000140097540 f   pjlib-x86_64-x64-vc14-debug-dynamic:os_timestamp_common.obj
 0001:00096600       pj_elapsed_msec            0000000140097600 f   pjlib-x86_64-x64-vc14-debug-dynamic:os_timestamp_common.obj
 0001:00096630       pj_elapsed_msec64          0000000140097630 f   pjlib-x86_64-x64-vc14-debug-dynamic:os_timestamp_common.obj
 0001:00096690       pj_elapsed_usec            0000000140097690 f   pjlib-x86_64-x64-vc14-debug-dynamic:os_timestamp_common.obj
 0001:000966c0       pj_elapsed_nanosec         00000001400976c0 f   pjlib-x86_64-x64-vc14-debug-dynamic:os_timestamp_common.obj
 0001:00096760       pj_elapsed_cycle           0000000140097760 f   pjlib-x86_64-x64-vc14-debug-dynamic:os_timestamp_common.obj
 0001:00096a30       pj_gethostbyname           0000000140097a30 f   pjlib-x86_64-x64-vc14-debug-dynamic:addr_resolv_sock.obj
 0001:00096ba0       pj_getaddrinfo             0000000140097ba0 f   pjlib-x86_64-x64-vc14-debug-dynamic:addr_resolv_sock.obj
 0001:00096f80       pj_pool_create_on_buf      0000000140097f80 f   pjlib-x86_64-x64-vc14-debug-dynamic:pool_buf.obj
 0001:00097270       pj_get_version             0000000140098270 f   pjlib-x86_64-x64-vc14-debug-dynamic:config.obj
 0001:00097280       pj_dump_config             0000000140098280 f   pjlib-x86_64-x64-vc14-debug-dynamic:config.obj
 0001:00097a00       pj_enum_ip_interface       0000000140098a00 f   pjlib-x86_64-x64-vc14-debug-dynamic:ip_helper_win32.obj
 0001:00097b40       pj_enum_ip_interface2      0000000140098b40 f   pjlib-x86_64-x64-vc14-debug-dynamic:ip_helper_win32.obj
 0001:00097bb0       pj_enum_ip_route           0000000140098bb0 f   pjlib-x86_64-x64-vc14-debug-dynamic:ip_helper_win32.obj
 0001:00098ad0       pj_pool_factory_get_default_policy 0000000140099ad0 f   pjlib-x86_64-x64-vc14-debug-dynamic:pool_policy_malloc.obj
 0001:00098c60       pj_log_write               0000000140099c60 f   pjlib-x86_64-x64-vc14-debug-dynamic:log_writer_stdout.obj
 0001:00098d50       PJ_FD_ZERO                 0000000140099d50 f   pjlib-x86_64-x64-vc14-debug-dynamic:sock_select.obj
 0001:00098da0       PJ_FD_COUNT                0000000140099da0 f   pjlib-x86_64-x64-vc14-debug-dynamic:sock_select.obj
 0001:00098dc0       PJ_FD_SET                  0000000140099dc0 f   pjlib-x86_64-x64-vc14-debug-dynamic:sock_select.obj
 0001:00098f00       PJ_FD_CLR                  0000000140099f00 f   pjlib-x86_64-x64-vc14-debug-dynamic:sock_select.obj
 0001:00099060       PJ_FD_ISSET                000000014009a060 f   pjlib-x86_64-x64-vc14-debug-dynamic:sock_select.obj
 0001:000990c0       pj_sock_select             000000014009a0c0 f   pjlib-x86_64-x64-vc14-debug-dynamic:sock_select.obj
 0001:00099320       pj_sock_set_qos_type       000000014009a320 f   pjlib-x86_64-x64-vc14-debug-dynamic:sock_qos_bsd.obj
 0001:00099370       pj_sock_get_qos_type       000000014009a370 f   pjlib-x86_64-x64-vc14-debug-dynamic:sock_qos_bsd.obj
 0001:000993c0       pj_sock_set_qos_params     000000014009a3c0 f   pjlib-x86_64-x64-vc14-debug-dynamic:sock_qos_bsd.obj
 0001:000995d0       pj_sock_get_qos_params     000000014009a5d0 f   pjlib-x86_64-x64-vc14-debug-dynamic:sock_qos_bsd.obj
 0001:00099929       CoCreateGuid               000000014009a929 f   ole32:ole32.dll
 0001:0009992f       WSAStartup                 000000014009a92f f   ws2_32:WS2_32.dll
 0001:00099935       WSACleanup                 000000014009a935 f   ws2_32:WS2_32.dll
 0001:0009993b       WSAGetLastError            000000014009a93b f   ws2_32:WS2_32.dll
 0001:00099941       accept                     000000014009a941 f   ws2_32:WS2_32.dll
 0001:00099947       bind                       000000014009a947 f   ws2_32:WS2_32.dll
 0001:0009994d       closesocket                000000014009a94d f   ws2_32:WS2_32.dll
 0001:00099953       connect                    000000014009a953 f   ws2_32:WS2_32.dll
 0001:00099959       getpeername                000000014009a959 f   ws2_32:WS2_32.dll
 0001:0009995f       getsockname                000000014009a95f f   ws2_32:WS2_32.dll
 0001:00099965       getsockopt                 000000014009a965 f   ws2_32:WS2_32.dll
 0001:0009996b       htonl                      000000014009a96b f   ws2_32:WS2_32.dll
 0001:00099971       htons                      000000014009a971 f   ws2_32:WS2_32.dll
 0001:00099977       inet_addr                  000000014009a977 f   ws2_32:WS2_32.dll
 0001:0009997d       inet_ntoa                  000000014009a97d f   ws2_32:WS2_32.dll
 0001:00099983       listen                     000000014009a983 f   ws2_32:WS2_32.dll
 0001:00099989       ntohl                      000000014009a989 f   ws2_32:WS2_32.dll
 0001:0009998f       ntohs                      000000014009a98f f   ws2_32:WS2_32.dll
 0001:00099995       recv                       000000014009a995 f   ws2_32:WS2_32.dll
 0001:0009999b       recvfrom                   000000014009a99b f   ws2_32:WS2_32.dll
 0001:000999a1       send                       000000014009a9a1 f   ws2_32:WS2_32.dll
 0001:000999a7       sendto                     000000014009a9a7 f   ws2_32:WS2_32.dll
 0001:000999ad       setsockopt                 000000014009a9ad f   ws2_32:WS2_32.dll
 0001:000999b3       shutdown                   000000014009a9b3 f   ws2_32:WS2_32.dll
 0001:000999b9       gethostname                000000014009a9b9 f   ws2_32:WS2_32.dll
 0001:000999bf       WSAIoctl                   000000014009a9bf f   ws2_32:WS2_32.dll
 0001:000999c5       WSASocketA                 000000014009a9c5 f   ws2_32:WS2_32.dll
 0001:000999cb       WSAAddressToStringA        000000014009a9cb f   ws2_32:WS2_32.dll
 0001:000999d1       WSAStringToAddressA        000000014009a9d1 f   ws2_32:WS2_32.dll
 0001:000999d7       ioctlsocket                000000014009a9d7 f   ws2_32:WS2_32.dll
 0001:000999dd       WSASetLastError            000000014009a9dd f   ws2_32:WS2_32.dll
 0001:000999e3       gethostbyname              000000014009a9e3 f   ws2_32:WS2_32.dll
 0001:000999e9       __WSAFDIsSet               000000014009a9e9 f   ws2_32:WS2_32.dll
 0001:000999ef       select                     000000014009a9ef f   ws2_32:WS2_32.dll
 0001:00099a00       __GSHandlerCheck           000000014009aa00 f   MSVCRTD:gshandler.obj
 0001:00099a50       __GSHandlerCheckCommon     000000014009aa50 f   MSVCRTD:gshandler.obj
 0001:00099ba0       __security_check_cookie    000000014009aba0 f   MSVCRTD:amdsecgs.obj
 0001:00099f20       ?configure_argv@__scrt_narrow_argv_policy@@SAHXZ 000000014009af20 f i MSVCRTD:exe_main.obj
 0001:00099f40       ?initialize_environment@__scrt_narrow_environment_policy@@SAHXZ 000000014009af40 f i MSVCRTD:exe_main.obj
 0001:00099fb0       ?set_app_type@__scrt_main_policy@@SAXXZ 000000014009afb0 f i MSVCRTD:exe_main.obj
 0001:00099fd0       ?set_commode@__scrt_file_policy@@SAXXZ 000000014009afd0 f i MSVCRTD:exe_main.obj
 0001:0009a000       ?set_fmode@__scrt_file_policy@@SAXXZ 000000014009b000 f i MSVCRTD:exe_main.obj
 0001:0009a020       mainCRTStartup             000000014009b020 f   MSVCRTD:exe_main.obj
 0001:0009a040       __raise_securityfailure    000000014009b040 f   MSVCRTD:gs_report.obj
 0001:0009a090       __report_gsfailure         000000014009b090 f   MSVCRTD:gs_report.obj
 0001:0009a1a0       __report_rangecheckfailure 000000014009b1a0 f   MSVCRTD:gs_report.obj
 0001:0009a1c0       __report_securityfailure   000000014009b1c0 f   MSVCRTD:gs_report.obj
 0001:0009a290       __report_securityfailureEx 000000014009b290 f   MSVCRTD:gs_report.obj
 0001:0009a5a0       _alloca_probe              000000014009b5a0 f   MSVCRTD:chkstk.obj
 0001:0009a5a0       __chkstk                   000000014009b5a0 f   MSVCRTD:chkstk.obj
 0001:0009a7c0       NtCurrentTeb               000000014009b7c0 f i MSVCRTD:utility.obj
 0001:0009a7d0       __scrt_acquire_startup_lock 000000014009b7d0 f   MSVCRTD:utility.obj
 0001:0009a850       __scrt_dllmain_after_initialize_c 000000014009b850 f   MSVCRTD:utility.obj
 0001:0009a890       __scrt_dllmain_before_initialize_c 000000014009b890 f   MSVCRTD:utility.obj
 0001:0009a8c0       __scrt_dllmain_crt_thread_attach 000000014009b8c0 f   MSVCRTD:utility.obj
 0001:0009a900       __scrt_dllmain_crt_thread_detach 000000014009b900 f   MSVCRTD:utility.obj
 0001:0009a920       __scrt_dllmain_exception_filter 000000014009b920 f   MSVCRTD:utility.obj
 0001:0009a9a0       __scrt_dllmain_uninitialize_c 000000014009b9a0 f   MSVCRTD:utility.obj
 0001:0009a9e0       __scrt_dllmain_uninitialize_critical 000000014009b9e0 f   MSVCRTD:utility.obj
 0001:0009aa00       __scrt_initialize_crt      000000014009ba00 f   MSVCRTD:utility.obj
 0001:0009aa60       __scrt_initialize_onexit_tables 000000014009ba60 f   MSVCRTD:utility.obj
 0001:0009abb0       __scrt_is_nonwritable_in_current_image 000000014009bbb0 f   MSVCRTD:utility.obj
 0001:0009ac60       __scrt_release_startup_lock 000000014009bc60 f   MSVCRTD:utility.obj
 0001:0009aca0       __scrt_uninitialize_crt    000000014009bca0 f   MSVCRTD:utility.obj
 0001:0009acf0       _onexit                    000000014009bcf0 f   MSVCRTD:utility.obj
 0001:0009ad90       at_quick_exit              000000014009bd90 f   MSVCRTD:utility.obj
 0001:0009adf0       atexit                     000000014009bdf0 f   MSVCRTD:utility.obj
 0001:0009af20       __security_init_cookie     000000014009bf20 f   MSVCRTD:gs_support.obj
 0001:0009afc0       _matherr                   000000014009bfc0 f   MSVCRTD:matherr.obj
 0001:0009afd0       _get_startup_argv_mode     000000014009bfd0 f   MSVCRTD:argv_mode.obj
 0001:0009afe0       _get_startup_commit_mode   000000014009bfe0 f   MSVCRTD:commit_mode.obj
 0001:0009aff0       _get_startup_file_mode     000000014009bff0 f   MSVCRTD:file_mode.obj
 0001:0009b000       _get_startup_new_mode      000000014009c000 f   MSVCRTD:new_mode.obj
 0001:0009b010       _get_startup_thread_locale_mode 000000014009c010 f   MSVCRTD:thread_locale.obj
 0001:0009b020       ?__scrt_initialize_type_info@@YAXXZ 000000014009c020 f   MSVCRTD:tncleanup.obj
 0001:0009b040       ?__scrt_uninitialize_type_info@@YAXXZ 000000014009c040 f   MSVCRTD:tncleanup.obj
 0001:0009b060       _should_initialize_environment 000000014009c060 f   MSVCRTD:env_mode.obj
 0001:0009b070       _initialize_invalid_parameter_handler 000000014009c070 f   MSVCRTD:invalid_parameter_handler.obj
 0001:0009b080       _initialize_denormal_control 000000014009c080 f   MSVCRTD:denormal_control.obj
 0001:0009b090       __local_stdio_scanf_options 000000014009c090 f i MSVCRTD:default_local_stdio_options.obj
 0001:0009b0a0       __scrt_initialize_default_local_stdio_options 000000014009c0a0 f   MSVCRTD:default_local_stdio_options.obj
 0001:0009b100       __scrt_is_user_matherr_present 000000014009c100 f   MSVCRTD:matherr_detection.obj
 0001:0009b130       __scrt_get_dyn_tls_init_callback 000000014009c130 f   MSVCRTD:dyn_tls_init.obj
 0001:0009b140       __scrt_get_dyn_tls_dtor_callback 000000014009c140 f   MSVCRTD:dyn_tls_dtor.obj
 0001:0009b150       __crt_debugger_hook        000000014009c150 f   MSVCRTD:utility_desktop.obj
 0001:0009b170       __scrt_fastfail            000000014009c170 f   MSVCRTD:utility_desktop.obj
 0001:0009b370       __scrt_get_show_window_mode 000000014009c370 f   MSVCRTD:utility_desktop.obj
 0001:0009b3e0       __scrt_initialize_mta      000000014009c3e0 f   MSVCRTD:utility_desktop.obj
 0001:0009b400       __scrt_initialize_winrt    000000014009c400 f   MSVCRTD:utility_desktop.obj
 0001:0009b410       __scrt_is_managed_app      000000014009c410 f   MSVCRTD:utility_desktop.obj
 0001:0009b4e0       __scrt_set_unhandled_exception_filter 000000014009c4e0 f   MSVCRTD:utility_desktop.obj
 0001:0009b500       __scrt_stub_for_initialize_mta 000000014009c500 f   MSVCRTD:utility_desktop.obj
 0001:0009b500       __scrt_exe_initialize_mta  000000014009c500 f   MSVCRTD:utility_desktop.obj
 0001:0009b510       __scrt_unhandled_exception_filter 000000014009c510 f   MSVCRTD:utility_desktop.obj
 0001:0009b5d0       _RTC_Initialize            000000014009c5d0 f   MSVCRTD:initsect.obj
 0001:0009b630       _RTC_Terminate             000000014009c630 f   MSVCRTD:initsect.obj
 0001:0009b690       _guard_check_icall_nop     000000014009c690 f i MSVCRTD:guard_support.obj
 0001:0009b6a0       ReadNoFence64              000000014009c6a0 f i MSVCRTD:guard_support.obj
 0001:0009b6d0       ReadPointerNoFence         000000014009c6d0 f i MSVCRTD:guard_support.obj
 0001:0009b6f0       __castguard_check_failure_debugbreak 000000014009c6f0 f i MSVCRTD:guard_support.obj
 0001:0009b720       __castguard_check_failure_fastfail 000000014009c720 f i MSVCRTD:guard_support.obj
 0001:0009b750       __castguard_check_failure_nop 000000014009c750 f i MSVCRTD:guard_support.obj
 0001:0009b760       __castguard_check_failure_os_handled 000000014009c760 f i MSVCRTD:guard_support.obj
 0001:0009b850       __castguard_slow_path_check_debugbreak 000000014009c850 f i MSVCRTD:guard_support.obj
 0001:0009b8a0       __castguard_slow_path_check_fastfail 000000014009c8a0 f i MSVCRTD:guard_support.obj
 0001:0009b900       __castguard_slow_path_check_nop 000000014009c900 f i MSVCRTD:guard_support.obj
 0001:0009b920       __castguard_slow_path_check_os_handled 000000014009c920 f i MSVCRTD:guard_support.obj
 0001:0009ba30       _guard_icall_checks_enforced 000000014009ca30 f i MSVCRTD:guard_support.obj
 0001:0009ba80       _guard_rf_checks_enforced  000000014009ca80 f i MSVCRTD:guard_support.obj
 0001:0009ba90       __isa_available_init       000000014009ca90 f   MSVCRTD:cpu_disp.obj
 0001:0009bf10       __scrt_is_ucrt_dll_in_use  000000014009cf10 f   MSVCRTD:ucrt_detection.obj
 0001:0009bf40       GetStdHandle               000000014009cf40 f   kernel32:KERNEL32.dll
 0001:0009bf46       CloseHandle                000000014009cf46 f   kernel32:KERNEL32.dll
 0001:0009bf4c       GetLastError               000000014009cf4c f   kernel32:KERNEL32.dll
 0001:0009bf52       InitializeCriticalSection  000000014009cf52 f   kernel32:KERNEL32.dll
 0001:0009bf58       EnterCriticalSection       000000014009cf58 f   kernel32:KERNEL32.dll
 0001:0009bf5e       LeaveCriticalSection       000000014009cf5e f   kernel32:KERNEL32.dll
 0001:0009bf64       TryEnterCriticalSection    000000014009cf64 f   kernel32:KERNEL32.dll
 0001:0009bf6a       DeleteCriticalSection      000000014009cf6a f   kernel32:KERNEL32.dll
 0001:0009bf70       SetEvent                   000000014009cf70 f   kernel32:KERNEL32.dll
 0001:0009bf76       ResetEvent                 000000014009cf76 f   kernel32:KERNEL32.dll
 0001:0009bf7c       ReleaseSemaphore           000000014009cf7c f   kernel32:KERNEL32.dll
 0001:0009bf82       WaitForSingleObject        000000014009cf82 f   kernel32:KERNEL32.dll
 0001:0009bf88       CreateEventA               000000014009cf88 f   kernel32:KERNEL32.dll
 0001:0009bf8e       Sleep                      000000014009cf8e f   kernel32:KERNEL32.dll
 0001:0009bf94       GetCurrentProcessId        000000014009cf94 f   kernel32:KERNEL32.dll
 0001:0009bf9a       CreateThread               000000014009cf9a f   kernel32:KERNEL32.dll
 0001:0009bfa0       GetCurrentThread           000000014009cfa0 f   kernel32:KERNEL32.dll
 0001:0009bfa6       GetCurrentThreadId         000000014009cfa6 f   kernel32:KERNEL32.dll
 0001:0009bfac       SetThreadPriority          000000014009cfac f   kernel32:KERNEL32.dll
 0001:0009bfb2       GetThreadPriority          000000014009cfb2 f   kernel32:KERNEL32.dll
 0001:0009bfb8       ResumeThread               000000014009cfb8 f   kernel32:KERNEL32.dll
 0001:0009bfbe       TlsAlloc                   000000014009cfbe f   kernel32:KERNEL32.dll
 0001:0009bfc4       TlsGetValue                000000014009cfc4 f   kernel32:KERNEL32.dll
 0001:0009bfca       TlsSetValue                000000014009cfca f   kernel32:KERNEL32.dll
 0001:0009bfd0       TlsFree                    000000014009cfd0 f   kernel32:KERNEL32.dll
 0001:0009bfd6       PulseEvent                 000000014009cfd6 f   kernel32:KERNEL32.dll
 0001:0009bfdc       CreateSemaphoreA           000000014009cfdc f   kernel32:KERNEL32.dll
 0001:0009bfe2       GetConsoleScreenBufferInfo 000000014009cfe2 f   kernel32:KERNEL32.dll
 0001:0009bfe8       SetConsoleTextAttribute    000000014009cfe8 f   kernel32:KERNEL32.dll
 0001:0009bfee       GetLocalTime               000000014009cfee f   kernel32:KERNEL32.dll
 0001:0009bff4       FileTimeToSystemTime       000000014009cff4 f   kernel32:KERNEL32.dll
 0001:0009bffa       SystemTimeToFileTime       000000014009cffa f   kernel32:KERNEL32.dll
 0001:0009c000       QueryPerformanceCounter    000000014009d000 f   kernel32:KERNEL32.dll
 0001:0009c006       QueryPerformanceFrequency  000000014009d006 f   kernel32:KERNEL32.dll
 0001:0009c00c       SetLastError               000000014009d00c f   kernel32:KERNEL32.dll
 0001:0009c012       FormatMessageA             000000014009d012 f   kernel32:KERNEL32.dll
 0001:0009c018       FreeLibrary                000000014009d018 f   kernel32:KERNEL32.dll
 0001:0009c01e       GetProcAddress             000000014009d01e f   kernel32:KERNEL32.dll
 0001:0009c024       LoadLibraryA               000000014009d024 f   kernel32:KERNEL32.dll
 0001:0009c02a       RtlCaptureContext          000000014009d02a f   kernel32:KERNEL32.dll
 0001:0009c030       RtlLookupFunctionEntry     000000014009d030 f   kernel32:KERNEL32.dll
 0001:0009c036       RtlVirtualUnwind           000000014009d036 f   kernel32:KERNEL32.dll
 0001:0009c03c       UnhandledExceptionFilter   000000014009d03c f   kernel32:KERNEL32.dll
 0001:0009c042       SetUnhandledExceptionFilter 000000014009d042 f   kernel32:KERNEL32.dll
 0001:0009c048       GetCurrentProcess          000000014009d048 f   kernel32:KERNEL32.dll
 0001:0009c04e       TerminateProcess           000000014009d04e f   kernel32:KERNEL32.dll
 0001:0009c054       IsProcessorFeaturePresent  000000014009d054 f   kernel32:KERNEL32.dll
 0001:0009c05a       GetSystemTimeAsFileTime    000000014009d05a f   kernel32:KERNEL32.dll
 0001:0009c060       InitializeSListHead        000000014009d060 f   kernel32:KERNEL32.dll
 0001:0009c066       IsDebuggerPresent          000000014009d066 f   kernel32:KERNEL32.dll
 0001:0009c06c       GetStartupInfoW            000000014009d06c f   kernel32:KERNEL32.dll
 0001:0009c072       GetModuleHandleW           000000014009d072 f   kernel32:KERNEL32.dll
 0001:0009c078       memset                     000000014009d078 f   vcruntimed:VCRUNTIME140D.dll
 0001:0009c07e       memcpy                     000000014009d07e f   vcruntimed:VCRUNTIME140D.dll
 0001:0009c084       memchr                     000000014009d084 f   vcruntimed:VCRUNTIME140D.dll
 0001:0009c08a       memcmp                     000000014009d08a f   vcruntimed:VCRUNTIME140D.dll
 0001:0009c090       memmove                    000000014009d090 f   vcruntimed:VCRUNTIME140D.dll
 0001:0009c096       strchr                     000000014009d096 f   vcruntimed:VCRUNTIME140D.dll
 0001:0009c09c       longjmp                    000000014009d09c f   vcruntimed:VCRUNTIME140D.dll
 0001:0009c0a2       __C_specific_handler       000000014009d0a2 f   vcruntimed:VCRUNTIME140D.dll
 0001:0009c0a8       __intrinsic_setjmp         000000014009d0a8 f   vcruntimed:VCRUNTIME140D.dll
 0001:0009c0a8       _setjmp                    000000014009d0a8 f   vcruntimed:VCRUNTIME140D.dll
 0001:0009c0ae       __std_type_info_destroy_list 000000014009d0ae f   vcruntimed:VCRUNTIME140D.dll
 0001:0009c0b4       __current_exception        000000014009d0b4 f   vcruntimed:VCRUNTIME140D.dll
 0001:0009c0ba       __current_exception_context 000000014009d0ba f   vcruntimed:VCRUNTIME140D.dll
 0001:0009c0c0       __acrt_iob_func            000000014009d0c0 f   ucrtd:ucrtbased.dll
 0001:0009c0c6       fgets                      000000014009d0c6 f   ucrtd:ucrtbased.dll
 0001:0009c0cc       puts                       000000014009d0cc f   ucrtd:ucrtbased.dll
 0001:0009c0d2       __stdio_common_vfprintf    000000014009d0d2 f   ucrtd:ucrtbased.dll
 0001:0009c0d8       __stdio_common_vsprintf    000000014009d0d8 f   ucrtd:ucrtbased.dll
 0001:0009c0de       atoi                       000000014009d0de f   ucrtd:ucrtbased.dll
 0001:0009c0e4       strtol                     000000014009d0e4 f   ucrtd:ucrtbased.dll
 0001:0009c0ea       _wassert                   000000014009d0ea f   ucrtd:ucrtbased.dll
 0001:0009c0f0       strcpy                     000000014009d0f0 f   ucrtd:ucrtbased.dll
 0001:0009c0f6       strlen                     000000014009d0f6 f   ucrtd:ucrtbased.dll
 0001:0009c0fc       isdigit                    000000014009d0fc f   ucrtd:ucrtbased.dll
 0001:0009c102       strncpy                    000000014009d102 f   ucrtd:ucrtbased.dll
 0001:0009c108       toupper                    000000014009d108 f   ucrtd:ucrtbased.dll
 0001:0009c10e       strcat                     000000014009d10e f   ucrtd:ucrtbased.dll
 0001:0009c114       tolower                    000000014009d114 f   ucrtd:ucrtbased.dll
 0001:0009c11a       _strnicmp                  000000014009d11a f   ucrtd:ucrtbased.dll
 0001:0009c120       isspace                    000000014009d120 f   ucrtd:ucrtbased.dll
 0001:0009c126       strcmp                     000000014009d126 f   ucrtd:ucrtbased.dll
 0001:0009c12c       strncmp                    000000014009d12c f   ucrtd:ucrtbased.dll
 0001:0009c132       isxdigit                   000000014009d132 f   ucrtd:ucrtbased.dll
 0001:0009c138       srand                      000000014009d138 f   ucrtd:ucrtbased.dll
 0001:0009c13e       rand                       000000014009d13e f   ucrtd:ucrtbased.dll
 0001:0009c144       fmod                       000000014009d144 f   ucrtd:ucrtbased.dll
 0001:0009c14a       free                       000000014009d14a f   ucrtd:ucrtbased.dll
 0001:0009c150       malloc                     000000014009d150 f   ucrtd:ucrtbased.dll
 0001:0009c156       _seh_filter_exe            000000014009d156 f   ucrtd:ucrtbased.dll
 0001:0009c15c       _set_app_type              000000014009d15c f   ucrtd:ucrtbased.dll
 0001:0009c162       __setusermatherr           000000014009d162 f   ucrtd:ucrtbased.dll
 0001:0009c168       _configure_narrow_argv     000000014009d168 f   ucrtd:ucrtbased.dll
 0001:0009c16e       _initialize_narrow_environment 000000014009d16e f   ucrtd:ucrtbased.dll
 0001:0009c174       _get_initial_narrow_environment 000000014009d174 f   ucrtd:ucrtbased.dll
 0001:0009c17a       _initterm                  000000014009d17a f   ucrtd:ucrtbased.dll
 0001:0009c180       _initterm_e                000000014009d180 f   ucrtd:ucrtbased.dll
 0001:0009c186       exit                       000000014009d186 f   ucrtd:ucrtbased.dll
 0001:0009c18c       _exit                      000000014009d18c f   ucrtd:ucrtbased.dll
 0001:0009c192       _set_fmode                 000000014009d192 f   ucrtd:ucrtbased.dll
 0001:0009c198       __p___argc                 000000014009d198 f   ucrtd:ucrtbased.dll
 0001:0009c19e       __p___argv                 000000014009d19e f   ucrtd:ucrtbased.dll
 0001:0009c1a4       _cexit                     000000014009d1a4 f   ucrtd:ucrtbased.dll
 0001:0009c1aa       _c_exit                    000000014009d1aa f   ucrtd:ucrtbased.dll
 0001:0009c1b0       _register_thread_local_exe_atexit_callback 000000014009d1b0 f   ucrtd:ucrtbased.dll
 0001:0009c1b6       _configthreadlocale        000000014009d1b6 f   ucrtd:ucrtbased.dll
 0001:0009c1bc       _set_new_mode              000000014009d1bc f   ucrtd:ucrtbased.dll
 0001:0009c1c2       __p__commode               000000014009d1c2 f   ucrtd:ucrtbased.dll
 0001:0009c1c8       _seh_filter_dll            000000014009d1c8 f   ucrtd:ucrtbased.dll
 0001:0009c1ce       _initialize_onexit_table   000000014009d1ce f   ucrtd:ucrtbased.dll
 0001:0009c1d4       _register_onexit_function  000000014009d1d4 f   ucrtd:ucrtbased.dll
 0001:0009c1da       _execute_onexit_table      000000014009d1da f   ucrtd:ucrtbased.dll
 0001:0009c1e0       _crt_atexit                000000014009d1e0 f   ucrtd:ucrtbased.dll
 0001:0009c1e6       _crt_at_quick_exit         000000014009d1e6 f   ucrtd:ucrtbased.dll
 0001:0009c1ec       terminate                  000000014009d1ec f   ucrtd:ucrtbased.dll
 0001:0009c200       __acrt_initialize          000000014009d200 f   MSVCRTD:ucrt_stubs.obj
 0001:0009c200       __vcrt_initialize          000000014009d200 f   MSVCRTD:ucrt_stubs.obj
 0001:0009c200       __scrt_stub_for_acrt_initialize 000000014009d200 f   MSVCRTD:ucrt_stubs.obj
 0001:0009c210       __vcrt_thread_attach       000000014009d210 f   MSVCRTD:ucrt_stubs.obj
 0001:0009c210       __acrt_thread_attach       000000014009d210 f   MSVCRTD:ucrt_stubs.obj
 0001:0009c210       __scrt_stub_for_acrt_thread_attach 000000014009d210 f   MSVCRTD:ucrt_stubs.obj
 0001:0009c220       __acrt_thread_detach       000000014009d220 f   MSVCRTD:ucrt_stubs.obj
 0001:0009c220       __vcrt_thread_detach       000000014009d220 f   MSVCRTD:ucrt_stubs.obj
 0001:0009c220       __scrt_stub_for_acrt_thread_detach 000000014009d220 f   MSVCRTD:ucrt_stubs.obj
 0001:0009c230       __scrt_stub_for_acrt_uninitialize 000000014009d230 f   MSVCRTD:ucrt_stubs.obj
 0001:0009c230       __acrt_uninitialize        000000014009d230 f   MSVCRTD:ucrt_stubs.obj
 0001:0009c230       __vcrt_uninitialize        000000014009d230 f   MSVCRTD:ucrt_stubs.obj
 0001:0009c240       __acrt_uninitialize_critical 000000014009d240 f   MSVCRTD:ucrt_stubs.obj
 0001:0009c240       __vcrt_uninitialize_critical 000000014009d240 f   MSVCRTD:ucrt_stubs.obj
 0001:0009c240       __scrt_stub_for_acrt_uninitialize_critical 000000014009d240 f   MSVCRTD:ucrt_stubs.obj
 0001:0009c250       __scrt_stub_for_is_c_termination_complete 000000014009d250 f   MSVCRTD:ucrt_stubs.obj
 0001:0009c250       _is_c_termination_complete 000000014009d250 f   MSVCRTD:ucrt_stubs.obj
 0001:0009ded0       _guard_dispatch_icall_nop  000000014009eed0 f   MSVCRTD:guard_dispatch.obj
 0001:0009def0       _guard_xfg_dispatch_icall_nop 000000014009eef0 f   MSVCRTD:guard_xfg_dispatch.obj
 0002:00000000       __xc_a                     00000001400a1000     MSVCRTD:initializers.obj
 0002:00000220       __xc_z                     00000001400a1220     MSVCRTD:initializers.obj
 0002:00000330       __xi_a                     00000001400a1330     MSVCRTD:initializers.obj
 0002:00000660       __xi_z                     00000001400a1660     MSVCRTD:initializers.obj
 0002:00000770       __xp_a                     00000001400a1770     MSVCRTD:initializers.obj
 0002:00000880       __xp_z                     00000001400a1880     MSVCRTD:initializers.obj
 0002:00000990       __xt_a                     00000001400a1990     MSVCRTD:initializers.obj
 0002:00000aa0       __xt_z                     00000001400a1aa0     MSVCRTD:initializers.obj
 0002:00000c00       pjsip_prack_method         00000001400a1c00     pjsip-ua-x86_64-x64-vc14-debug-dynamic:sip_100rel.obj
 0002:00000c98       pjsip_update_method        00000001400a1c98     pjsip-ua-x86_64-x64-vc14-debug-dynamic:sip_timer.obj
 0002:00000cd0       pjsip_invite_method        00000001400a1cd0     pjsip-core-x86_64-x64-vc14-debug-dynamic:sip_msg.obj
 0002:00000ce8       pjsip_cancel_method        00000001400a1ce8     pjsip-core-x86_64-x64-vc14-debug-dynamic:sip_msg.obj
 0002:00000d00       pjsip_ack_method           00000001400a1d00     pjsip-core-x86_64-x64-vc14-debug-dynamic:sip_msg.obj
 0002:00000d18       pjsip_bye_method           00000001400a1d18     pjsip-core-x86_64-x64-vc14-debug-dynamic:sip_msg.obj
 0002:00000d30       pjsip_register_method      00000001400a1d30     pjsip-core-x86_64-x64-vc14-debug-dynamic:sip_msg.obj
 0002:00000d48       pjsip_options_method       00000001400a1d48     pjsip-core-x86_64-x64-vc14-debug-dynamic:sip_msg.obj
 0002:00000d60       pjsip_hdr_names            00000001400a1d60     pjsip-core-x86_64-x64-vc14-debug-dynamic:sip_msg.obj
 0002:00001878       pjsip_USERNAME_STR         00000001400a2878     pjsip-core-x86_64-x64-vc14-debug-dynamic:sip_auth_parser.obj
 0002:00001888       pjsip_REALM_STR            00000001400a2888     pjsip-core-x86_64-x64-vc14-debug-dynamic:sip_auth_parser.obj
 0002:00001898       pjsip_NONCE_STR            00000001400a2898     pjsip-core-x86_64-x64-vc14-debug-dynamic:sip_auth_parser.obj
 0002:000018a8       pjsip_URI_STR              00000001400a28a8     pjsip-core-x86_64-x64-vc14-debug-dynamic:sip_auth_parser.obj
 0002:000018b8       pjsip_RESPONSE_STR         00000001400a28b8     pjsip-core-x86_64-x64-vc14-debug-dynamic:sip_auth_parser.obj
 0002:000018c8       pjsip_ALGORITHM_STR        00000001400a28c8     pjsip-core-x86_64-x64-vc14-debug-dynamic:sip_auth_parser.obj
 0002:000018d8       pjsip_DOMAIN_STR           00000001400a28d8     pjsip-core-x86_64-x64-vc14-debug-dynamic:sip_auth_parser.obj
 0002:000018e8       pjsip_STALE_STR            00000001400a28e8     pjsip-core-x86_64-x64-vc14-debug-dynamic:sip_auth_parser.obj
 0002:000018f8       pjsip_QOP_STR              00000001400a28f8     pjsip-core-x86_64-x64-vc14-debug-dynamic:sip_auth_parser.obj
 0002:00001908       pjsip_CNONCE_STR           00000001400a2908     pjsip-core-x86_64-x64-vc14-debug-dynamic:sip_auth_parser.obj
 0002:00001918       pjsip_OPAQUE_STR           00000001400a2918     pjsip-core-x86_64-x64-vc14-debug-dynamic:sip_auth_parser.obj
 0002:00001928       pjsip_NC_STR               00000001400a2928     pjsip-core-x86_64-x64-vc14-debug-dynamic:sip_auth_parser.obj
 0002:00001938       pjsip_TRUE_STR             00000001400a2938     pjsip-core-x86_64-x64-vc14-debug-dynamic:sip_auth_parser.obj
 0002:00001948       pjsip_FALSE_STR            00000001400a2948     pjsip-core-x86_64-x64-vc14-debug-dynamic:sip_auth_parser.obj
 0002:00001958       pjsip_DIGEST_STR           00000001400a2958     pjsip-core-x86_64-x64-vc14-debug-dynamic:sip_auth_parser.obj
 0002:00001968       pjsip_PGP_STR              00000001400a2968     pjsip-core-x86_64-x64-vc14-debug-dynamic:sip_auth_parser.obj
 0002:00001978       pjsip_BEARER_STR           00000001400a2978     pjsip-core-x86_64-x64-vc14-debug-dynamic:sip_auth_parser.obj
 0002:00001988       pjsip_MD5_STR              00000001400a2988     pjsip-core-x86_64-x64-vc14-debug-dynamic:sip_auth_parser.obj
 0002:00001998       pjsip_AUTH_STR             00000001400a2998     pjsip-core-x86_64-x64-vc14-debug-dynamic:sip_auth_parser.obj
 0002:000019a8       pjsip_QUOTED_TRUE_STR      00000001400a29a8     pjsip-core-x86_64-x64-vc14-debug-dynamic:sip_auth_parser.obj
 0002:000019b8       pjsip_QUOTED_FALSE_STR     00000001400a29b8     pjsip-core-x86_64-x64-vc14-debug-dynamic:sip_auth_parser.obj
 0002:000019c8       pjsip_QUOTED_DIGEST_STR    00000001400a29c8     pjsip-core-x86_64-x64-vc14-debug-dynamic:sip_auth_parser.obj
 0002:000019d8       pjsip_QUOTED_PGP_STR       00000001400a29d8     pjsip-core-x86_64-x64-vc14-debug-dynamic:sip_auth_parser.obj
 0002:000019e8       pjsip_QUOTED_MD5_STR       00000001400a29e8     pjsip-core-x86_64-x64-vc14-debug-dynamic:sip_auth_parser.obj
 0002:000019f8       pjsip_QUOTED_AUTH_STR      00000001400a29f8     pjsip-core-x86_64-x64-vc14-debug-dynamic:sip_auth_parser.obj
 0002:000020ac       __real@00000000            00000001400a30ac     pjlib-x86_64-x64-vc14-debug-dynamic:string.obj
 0002:000020b0       __real@3f800000            00000001400a30b0     pjlib-x86_64-x64-vc14-debug-dynamic:string.obj
 0002:000020b4       __real@41200000            00000001400a30b4     pjlib-x86_64-x64-vc14-debug-dynamic:string.obj
 0002:000020b8       PJ_AF_UNSPEC               00000001400a30b8     pjlib-x86_64-x64-vc14-debug-dynamic:sock_bsd.obj
 0002:000020bc       PJ_AF_UNIX                 00000001400a30bc     pjlib-x86_64-x64-vc14-debug-dynamic:sock_bsd.obj
 0002:000020c0       PJ_AF_INET                 00000001400a30c0     pjlib-x86_64-x64-vc14-debug-dynamic:sock_bsd.obj
 0002:000020c4       PJ_AF_INET6                00000001400a30c4     pjlib-x86_64-x64-vc14-debug-dynamic:sock_bsd.obj
 0002:000020c8       PJ_AF_PACKET               00000001400a30c8     pjlib-x86_64-x64-vc14-debug-dynamic:sock_bsd.obj
 0002:000020cc       PJ_AF_IRDA                 00000001400a30cc     pjlib-x86_64-x64-vc14-debug-dynamic:sock_bsd.obj
 0002:000020d0       PJ_SOCK_STREAM             00000001400a30d0     pjlib-x86_64-x64-vc14-debug-dynamic:sock_bsd.obj
 0002:000020d4       PJ_SOCK_DGRAM              00000001400a30d4     pjlib-x86_64-x64-vc14-debug-dynamic:sock_bsd.obj
 0002:000020d8       PJ_SOCK_RAW                00000001400a30d8     pjlib-x86_64-x64-vc14-debug-dynamic:sock_bsd.obj
 0002:000020dc       PJ_SOCK_RDM                00000001400a30dc     pjlib-x86_64-x64-vc14-debug-dynamic:sock_bsd.obj
 0002:000020e0       PJ_SOL_SOCKET              00000001400a30e0     pjlib-x86_64-x64-vc14-debug-dynamic:sock_bsd.obj
 0002:000020e4       PJ_SOL_IP                  00000001400a30e4     pjlib-x86_64-x64-vc14-debug-dynamic:sock_bsd.obj
 0002:000020e8       PJ_SOL_TCP                 00000001400a30e8     pjlib-x86_64-x64-vc14-debug-dynamic:sock_bsd.obj
 0002:000020ec       PJ_SOL_UDP                 00000001400a30ec     pjlib-x86_64-x64-vc14-debug-dynamic:sock_bsd.obj
 0002:000020f0       PJ_SOL_IPV6                00000001400a30f0     pjlib-x86_64-x64-vc14-debug-dynamic:sock_bsd.obj
 0002:000020f4       PJ_IP_TOS                  00000001400a30f4     pjlib-x86_64-x64-vc14-debug-dynamic:sock_bsd.obj
 0002:000020f8       PJ_IPTOS_LOWDELAY          00000001400a30f8     pjlib-x86_64-x64-vc14-debug-dynamic:sock_bsd.obj
 0002:000020fc       PJ_IPTOS_THROUGHPUT        00000001400a30fc     pjlib-x86_64-x64-vc14-debug-dynamic:sock_bsd.obj
 0002:00002100       PJ_IPTOS_RELIABILITY       00000001400a3100     pjlib-x86_64-x64-vc14-debug-dynamic:sock_bsd.obj
 0002:00002104       PJ_IPTOS_MINCOST           00000001400a3104     pjlib-x86_64-x64-vc14-debug-dynamic:sock_bsd.obj
 0002:00002108       PJ_IPV6_TCLASS             00000001400a3108     pjlib-x86_64-x64-vc14-debug-dynamic:sock_bsd.obj
 0002:0000210c       PJ_SO_TYPE                 00000001400a310c     pjlib-x86_64-x64-vc14-debug-dynamic:sock_bsd.obj
 0002:00002110       PJ_SO_RCVBUF               00000001400a3110     pjlib-x86_64-x64-vc14-debug-dynamic:sock_bsd.obj
 0002:00002114       PJ_SO_SNDBUF               00000001400a3114     pjlib-x86_64-x64-vc14-debug-dynamic:sock_bsd.obj
 0002:00002118       PJ_TCP_NODELAY             00000001400a3118     pjlib-x86_64-x64-vc14-debug-dynamic:sock_bsd.obj
 0002:0000211c       PJ_SO_REUSEADDR            00000001400a311c     pjlib-x86_64-x64-vc14-debug-dynamic:sock_bsd.obj
 0002:00002120       PJ_SO_NOSIGPIPE            00000001400a3120     pjlib-x86_64-x64-vc14-debug-dynamic:sock_bsd.obj
 0002:00002124       PJ_SO_PRIORITY             00000001400a3124     pjlib-x86_64-x64-vc14-debug-dynamic:sock_bsd.obj
 0002:00002128       PJ_IP_MULTICAST_IF         00000001400a3128     pjlib-x86_64-x64-vc14-debug-dynamic:sock_bsd.obj
 0002:0000212c       PJ_IP_MULTICAST_TTL        00000001400a312c     pjlib-x86_64-x64-vc14-debug-dynamic:sock_bsd.obj
 0002:00002130       PJ_IP_MULTICAST_LOOP       00000001400a3130     pjlib-x86_64-x64-vc14-debug-dynamic:sock_bsd.obj
 0002:00002134       PJ_IP_ADD_MEMBERSHIP       00000001400a3134     pjlib-x86_64-x64-vc14-debug-dynamic:sock_bsd.obj
 0002:00002138       PJ_IP_DROP_MEMBERSHIP      00000001400a3138     pjlib-x86_64-x64-vc14-debug-dynamic:sock_bsd.obj
 0002:0000213c       PJ_MSG_OOB                 00000001400a313c     pjlib-x86_64-x64-vc14-debug-dynamic:sock_bsd.obj
 0002:00002140       PJ_MSG_PEEK                00000001400a3140     pjlib-x86_64-x64-vc14-debug-dynamic:sock_bsd.obj
 0002:00002144       PJ_MSG_DONTROUTE           00000001400a3144     pjlib-x86_64-x64-vc14-debug-dynamic:sock_bsd.obj
 0002:00002530       PJ_GUID_STRING_LENGTH      00000001400a3530     pjlib-x86_64-x64-vc14-debug-dynamic:guid_win32.obj
 0002:00002578       __real@0000000000000000    00000001400a3578     pjlib-x86_64-x64-vc14-debug-dynamic:os_timestamp_common.obj
 0002:00002588       __real@3ff0000000000000    00000001400a3588     pjlib-x86_64-x64-vc14-debug-dynamic:os_timestamp_common.obj
 0002:00002598       __real@408f400000000000    00000001400a3598     pjlib-x86_64-x64-vc14-debug-dynamic:os_timestamp_common.obj
 0002:000025a8       __real@412e848000000000    00000001400a35a8     pjlib-x86_64-x64-vc14-debug-dynamic:os_timestamp_common.obj
 0002:000025b8       __real@41cdcd6500000000    00000001400a35b8     pjlib-x86_64-x64-vc14-debug-dynamic:os_timestamp_common.obj
 0002:000025c8       __real@43e0000000000000    00000001400a35c8     pjlib-x86_64-x64-vc14-debug-dynamic:os_timestamp_common.obj
 0002:00002630       _load_config_used          00000001400a3630     MSVCRTD:loadcfg.obj
 0002:00002900       __CastGuardVftablesStart   00000001400a3900     MSVCRTD:guard_support.obj
 0002:00002a10       __CastGuardVftablesEnd     00000001400a3a10     MSVCRTD:guard_support.obj
 0002:00002d18       __rtc_iaa                  00000001400a3d18     MSVCRTD:initsect.obj
 0002:00002e28       __rtc_izz                  00000001400a3e28     MSVCRTD:initsect.obj
 0002:00002f38       __rtc_taa                  00000001400a3f38     MSVCRTD:initsect.obj
 0002:00003048       __rtc_tzz                  00000001400a4048     MSVCRTD:initsect.obj
 0003:00018f20       mod_stateful_util          00000001400c1f20     pjsip-core-x86_64-x64-vc14-debug-dynamic:sip_util_statefull.obj
 0003:00026a20       pjsip_include_allow_hdr_in_dlg 00000001400cfa20     pjsip-core-x86_64-x64-vc14-debug-dynamic:sip_dialog.obj
 0003:0002f380       PJSIP_SYN_ERR_EXCEPTION    00000001400d8380     pjsip-core-x86_64-x64-vc14-debug-dynamic:sip_parser.obj
 0003:0002f384       PJSIP_EINVAL_ERR_EXCEPTION 00000001400d8384     pjsip-core-x86_64-x64-vc14-debug-dynamic:sip_parser.obj
 0003:00036180       pjsip_sip_cfg_var          00000001400df180     pjsip-core-x86_64-x64-vc14-debug-dynamic:sip_config.obj
 0003:00043688       pj_optind                  00000001400ec688     pjlib-util-x86_64-x64-vc14-debug-dynamic:getopt.obj
 0003:0004368c       pj_optopt                  00000001400ec68c     pjlib-util-x86_64-x64-vc14-debug-dynamic:getopt.obj
 0003:0005daa8       PJ_VERSION                 0000000140106aa8     pjlib-x86_64-x64-vc14-debug-dynamic:config.obj
 0003:0005e670       pj_pool_factory_default_policy 0000000140107670     pjlib-x86_64-x64-vc14-debug-dynamic:pool_policy_malloc.obj
 0003:0005ec40       __security_cookie_complement 0000000140107c40     MSVCRTD:gs_cookie.obj
 0003:0005ec48       __security_cookie          0000000140107c48     MSVCRTD:gs_cookie.obj
 0003:0005ec54       _fltused                   0000000140107c54     MSVCRTD:fltused.obj
 0003:0005ec60       __scrt_native_dllmain_reason 0000000140107c60     MSVCRTD:utility.obj
 0003:0005ec64       __scrt_default_matherr     0000000140107c64     MSVCRTD:matherr.obj
 0003:0005ec68       __isa_available            0000000140107c68     MSVCRTD:cpu_disp.obj
 0003:0005ec6c       __isa_enabled              0000000140107c6c     MSVCRTD:cpu_disp.obj
 0003:0005ec70       __memcpy_nt_iters          0000000140107c70     MSVCRTD:cpu_disp.obj
 0003:0005ec78       __memset_nt_iters          0000000140107c78     MSVCRTD:cpu_disp.obj
 0003:0005ec90       __scrt_ucrt_dll_is_in_use  0000000140107c90     MSVCRTD:ucrt_stubs.obj
 0003:000659b0       pj_optarg                  000000014010e9b0     pjlib-util-x86_64-x64-vc14-debug-dynamic:getopt.obj
 0003:00066678       __scrt_current_native_startup_state 000000014010f678     MSVCRTD:utility.obj
 0003:00066680       __scrt_native_startup_lock 000000014010f680     MSVCRTD:utility.obj
 0003:000666d0       ?__type_info_root_node@@3U__type_info_node@@A 000000014010f6d0     MSVCRTD:tncleanup.obj
 0003:000666e8       ?_OptionsStorage@?1??__local_stdio_printf_options@@9@4_KA 000000014010f6e8     MSVCRTD:default_local_stdio_options.obj
 0003:000666f8       ?_OptionsStorage@?1??__local_stdio_scanf_options@@9@4_KA 000000014010f6f8     MSVCRTD:default_local_stdio_options.obj
 0003:00066704       __scrt_debugger_hook_flag  000000014010f704     MSVCRTD:utility_desktop.obj
 0003:00066708       __castguard_check_failure_os_handled_fptr 000000014010f708     MSVCRTD:guard_support.obj
 0003:00066714       __favor                    000000014010f714     MSVCRTD:cpu_disp.obj
 0003:00066718       ?_OptionsStorage@?1??__local_stdio_printf_options@@9@9 000000014010f718     <common>
 0003:0006672c       pjsip_dlg_lock_tls_id      000000014010f72c     <common>
 0003:00066738       PJ_NO_MEMORY_EXCEPTION     000000014010f738     <common>
 0003:00066748       __dyn_tls_dtor_callback    000000014010f748     <common>
 0003:00066760       __dyn_tls_init_callback    000000014010f760     <common>
 0005:00000000       __imp_RtlVirtualUnwind     0000000140116000     kernel32:KERNEL32.dll
 0005:00000008       __imp_GetModuleHandleW     0000000140116008     kernel32:KERNEL32.dll
 0005:00000010       __imp_GetStartupInfoW      0000000140116010     kernel32:KERNEL32.dll
 0005:00000018       __imp_IsDebuggerPresent    0000000140116018     kernel32:KERNEL32.dll
 0005:00000020       __imp_InitializeSListHead  0000000140116020     kernel32:KERNEL32.dll
 0005:00000028       __imp_GetSystemTimeAsFileTime 0000000140116028     kernel32:KERNEL32.dll
 0005:00000030       __imp_IsProcessorFeaturePresent 0000000140116030     kernel32:KERNEL32.dll
 0005:00000038       __imp_TerminateProcess     0000000140116038     kernel32:KERNEL32.dll
 0005:00000040       __imp_GetCurrentProcess    0000000140116040     kernel32:KERNEL32.dll
 0005:00000048       __imp_SetUnhandledExceptionFilter 0000000140116048     kernel32:KERNEL32.dll
 0005:00000050       __imp_UnhandledExceptionFilter 0000000140116050     kernel32:KERNEL32.dll
 0005:00000058       __imp_RtlLookupFunctionEntry 0000000140116058     kernel32:KERNEL32.dll
 0005:00000060       __imp_RtlCaptureContext    0000000140116060     kernel32:KERNEL32.dll
 0005:00000068       __imp_LoadLibraryA         0000000140116068     kernel32:KERNEL32.dll
 0005:00000070       __imp_GetProcAddress       0000000140116070     kernel32:KERNEL32.dll
 0005:00000078       __imp_FreeLibrary          0000000140116078     kernel32:KERNEL32.dll
 0005:00000080       __imp_FormatMessageA       0000000140116080     kernel32:KERNEL32.dll
 0005:00000088       __imp_SetLastError         0000000140116088     kernel32:KERNEL32.dll
 0005:00000090       __imp_QueryPerformanceFrequency 0000000140116090     kernel32:KERNEL32.dll
 0005:00000098       __imp_QueryPerformanceCounter 0000000140116098     kernel32:KERNEL32.dll
 0005:000000a0       __imp_SystemTimeToFileTime 00000001401160a0     kernel32:KERNEL32.dll
 0005:000000a8       __imp_FileTimeToSystemTime 00000001401160a8     kernel32:KERNEL32.dll
 0005:000000b0       __imp_GetLocalTime         00000001401160b0     kernel32:KERNEL32.dll
 0005:000000b8       __imp_SetConsoleTextAttribute 00000001401160b8     kernel32:KERNEL32.dll
 0005:000000c0       __imp_GetConsoleScreenBufferInfo 00000001401160c0     kernel32:KERNEL32.dll
 0005:000000c8       __imp_CreateSemaphoreA     00000001401160c8     kernel32:KERNEL32.dll
 0005:000000d0       __imp_PulseEvent           00000001401160d0     kernel32:KERNEL32.dll
 0005:000000d8       __imp_TlsFree              00000001401160d8     kernel32:KERNEL32.dll
 0005:000000e0       __imp_TlsSetValue          00000001401160e0     kernel32:KERNEL32.dll
 0005:000000e8       __imp_TlsGetValue          00000001401160e8     kernel32:KERNEL32.dll
 0005:000000f0       __imp_TlsAlloc             00000001401160f0     kernel32:KERNEL32.dll
 0005:000000f8       __imp_ResumeThread         00000001401160f8     kernel32:KERNEL32.dll
 0005:00000100       __imp_GetThreadPriority    0000000140116100     kernel32:KERNEL32.dll
 0005:00000108       __imp_SetThreadPriority    0000000140116108     kernel32:KERNEL32.dll
 0005:00000110       __imp_GetCurrentThreadId   0000000140116110     kernel32:KERNEL32.dll
 0005:00000118       __imp_GetCurrentThread     0000000140116118     kernel32:KERNEL32.dll
 0005:00000120       __imp_GetStdHandle         0000000140116120     kernel32:KERNEL32.dll
 0005:00000128       __imp_CloseHandle          0000000140116128     kernel32:KERNEL32.dll
 0005:00000130       __imp_GetLastError         0000000140116130     kernel32:KERNEL32.dll
 0005:00000138       __imp_InitializeCriticalSection 0000000140116138     kernel32:KERNEL32.dll
 0005:00000140       __imp_EnterCriticalSection 0000000140116140     kernel32:KERNEL32.dll
 0005:00000148       __imp_LeaveCriticalSection 0000000140116148     kernel32:KERNEL32.dll
 0005:00000150       __imp_TryEnterCriticalSection 0000000140116150     kernel32:KERNEL32.dll
 0005:00000158       __imp_DeleteCriticalSection 0000000140116158     kernel32:KERNEL32.dll
 0005:00000160       __imp_SetEvent             0000000140116160     kernel32:KERNEL32.dll
 0005:00000168       __imp_ResetEvent           0000000140116168     kernel32:KERNEL32.dll
 0005:00000170       __imp_ReleaseSemaphore     0000000140116170     kernel32:KERNEL32.dll
 0005:00000178       __imp_WaitForSingleObject  0000000140116178     kernel32:KERNEL32.dll
 0005:00000180       __imp_CreateEventA         0000000140116180     kernel32:KERNEL32.dll
 0005:00000188       __imp_Sleep                0000000140116188     kernel32:KERNEL32.dll
 0005:00000190       __imp_GetCurrentProcessId  0000000140116190     kernel32:KERNEL32.dll
 0005:00000198       __imp_CreateThread         0000000140116198     kernel32:KERNEL32.dll
 0005:000001a0       \177KERNEL32_NULL_THUNK_DATA 00000001401161a0     kernel32:KERNEL32.dll
 0005:00000248       __imp___intrinsic_setjmp   0000000140116248     vcruntimed:VCRUNTIME140D.dll
 0005:00000250       __imp___C_specific_handler 0000000140116250     vcruntimed:VCRUNTIME140D.dll
 0005:00000258       __imp_longjmp              0000000140116258     vcruntimed:VCRUNTIME140D.dll
 0005:00000260       __imp_strchr               0000000140116260     vcruntimed:VCRUNTIME140D.dll
 0005:00000268       __imp_memmove              0000000140116268     vcruntimed:VCRUNTIME140D.dll
 0005:00000270       __imp_memcmp               0000000140116270     vcruntimed:VCRUNTIME140D.dll
 0005:00000278       __imp_memchr               0000000140116278     vcruntimed:VCRUNTIME140D.dll
 0005:00000280       __imp_memcpy               0000000140116280     vcruntimed:VCRUNTIME140D.dll
 0005:00000288       __imp_memset               0000000140116288     vcruntimed:VCRUNTIME140D.dll
 0005:00000290       __imp___current_exception_context 0000000140116290     vcruntimed:VCRUNTIME140D.dll
 0005:00000298       __imp___current_exception  0000000140116298     vcruntimed:VCRUNTIME140D.dll
 0005:000002a0       __imp___std_type_info_destroy_list 00000001401162a0     vcruntimed:VCRUNTIME140D.dll
 0005:000002a8       \177VCRUNTIME140D_NULL_THUNK_DATA 00000001401162a8     vcruntimed:VCRUNTIME140D.dll
 0005:00000310       __imp_send                 0000000140116310     ws2_32:WS2_32.dll
 0005:00000318       __imp_recvfrom             0000000140116318     ws2_32:WS2_32.dll
 0005:00000320       __imp_recv                 0000000140116320     ws2_32:WS2_32.dll
 0005:00000328       __imp_ntohs                0000000140116328     ws2_32:WS2_32.dll
 0005:00000330       __imp_ntohl                0000000140116330     ws2_32:WS2_32.dll
 0005:00000338       __imp_listen               0000000140116338     ws2_32:WS2_32.dll
 0005:00000340       __imp_inet_ntoa            0000000140116340     ws2_32:WS2_32.dll
 0005:00000348       __imp_inet_addr            0000000140116348     ws2_32:WS2_32.dll
 0005:00000350       __imp_htons                0000000140116350     ws2_32:WS2_32.dll
 0005:00000358       __imp_setsockopt           0000000140116358     ws2_32:WS2_32.dll
 0005:00000360       __imp_getsockopt           0000000140116360     ws2_32:WS2_32.dll
 0005:00000368       __imp_shutdown             0000000140116368     ws2_32:WS2_32.dll
 0005:00000370       __imp_getsockname          0000000140116370     ws2_32:WS2_32.dll
 0005:00000378       __imp_getpeername          0000000140116378     ws2_32:WS2_32.dll
 0005:00000380       __imp_connect              0000000140116380     ws2_32:WS2_32.dll
 0005:00000388       __imp_closesocket          0000000140116388     ws2_32:WS2_32.dll
 0005:00000390       __imp_bind                 0000000140116390     ws2_32:WS2_32.dll
 0005:00000398       __imp_accept               0000000140116398     ws2_32:WS2_32.dll
 0005:000003a0       __imp_WSAGetLastError      00000001401163a0     ws2_32:WS2_32.dll
 0005:000003a8       __imp_WSACleanup           00000001401163a8     ws2_32:WS2_32.dll
 0005:000003b0       __imp_WSAStartup           00000001401163b0     ws2_32:WS2_32.dll
 0005:000003b8       __imp_sendto               00000001401163b8     ws2_32:WS2_32.dll
 0005:000003c0       __imp_gethostname          00000001401163c0     ws2_32:WS2_32.dll
 0005:000003c8       __imp_WSAIoctl             00000001401163c8     ws2_32:WS2_32.dll
 0005:000003d0       __imp_WSASocketA           00000001401163d0     ws2_32:WS2_32.dll
 0005:000003d8       __imp_WSAAddressToStringA  00000001401163d8     ws2_32:WS2_32.dll
 0005:000003e0       __imp_WSAStringToAddressA  00000001401163e0     ws2_32:WS2_32.dll
 0005:000003e8       __imp_ioctlsocket          00000001401163e8     ws2_32:WS2_32.dll
 0005:000003f0       __imp_WSASetLastError      00000001401163f0     ws2_32:WS2_32.dll
 0005:000003f8       __imp_gethostbyname        00000001401163f8     ws2_32:WS2_32.dll
 0005:00000400       __imp___WSAFDIsSet         0000000140116400     ws2_32:WS2_32.dll
 0005:00000408       __imp_select               0000000140116408     ws2_32:WS2_32.dll
 0005:00000410       __imp_htonl                0000000140116410     ws2_32:WS2_32.dll
 0005:00000418       \177WS2_32_NULL_THUNK_DATA 0000000140116418     ws2_32:WS2_32.dll
 0005:000004a0       __imp_CoCreateGuid         00000001401164a0     ole32:ole32.dll
 0005:000004a8       \177ole32_NULL_THUNK_DATA  00000001401164a8     ole32:ole32.dll
 0005:00000500       __imp___acrt_iob_func      0000000140116500     ucrtd:ucrtbased.dll
 0005:00000508       __imp_fgets                0000000140116508     ucrtd:ucrtbased.dll
 0005:00000510       __imp_puts                 0000000140116510     ucrtd:ucrtbased.dll
 0005:00000518       __imp___stdio_common_vfprintf 0000000140116518     ucrtd:ucrtbased.dll
 0005:00000520       __imp___stdio_common_vsprintf 0000000140116520     ucrtd:ucrtbased.dll
 0005:00000528       __imp_atoi                 0000000140116528     ucrtd:ucrtbased.dll
 0005:00000530       __imp_strtol               0000000140116530     ucrtd:ucrtbased.dll
 0005:00000538       __imp__wassert             0000000140116538     ucrtd:ucrtbased.dll
 0005:00000540       __imp_strcpy               0000000140116540     ucrtd:ucrtbased.dll
 0005:00000548       __imp_strlen               0000000140116548     ucrtd:ucrtbased.dll
 0005:00000550       __imp_isdigit              0000000140116550     ucrtd:ucrtbased.dll
 0005:00000558       __imp_strncpy              0000000140116558     ucrtd:ucrtbased.dll
 0005:00000560       __imp_toupper              0000000140116560     ucrtd:ucrtbased.dll
 0005:00000568       __imp_strcat               0000000140116568     ucrtd:ucrtbased.dll
 0005:00000570       __imp_tolower              0000000140116570     ucrtd:ucrtbased.dll
 0005:00000578       __imp__strnicmp            0000000140116578     ucrtd:ucrtbased.dll
 0005:00000580       __imp_isspace              0000000140116580     ucrtd:ucrtbased.dll
 0005:00000588       __imp_strcmp               0000000140116588     ucrtd:ucrtbased.dll
 0005:00000590       __imp_strncmp              0000000140116590     ucrtd:ucrtbased.dll
 0005:00000598       __imp_isxdigit             0000000140116598     ucrtd:ucrtbased.dll
 0005:000005a0       __imp_srand                00000001401165a0     ucrtd:ucrtbased.dll
 0005:000005a8       __imp_rand                 00000001401165a8     ucrtd:ucrtbased.dll
 0005:000005b0       __imp_fmod                 00000001401165b0     ucrtd:ucrtbased.dll
 0005:000005b8       __imp_free                 00000001401165b8     ucrtd:ucrtbased.dll
 0005:000005c0       __imp_malloc               00000001401165c0     ucrtd:ucrtbased.dll
 0005:000005c8       __imp__seh_filter_exe      00000001401165c8     ucrtd:ucrtbased.dll
 0005:000005d0       __imp__set_app_type        00000001401165d0     ucrtd:ucrtbased.dll
 0005:000005d8       __imp___setusermatherr     00000001401165d8     ucrtd:ucrtbased.dll
 0005:000005e0       __imp__configure_narrow_argv 00000001401165e0     ucrtd:ucrtbased.dll
 0005:000005e8       __imp__initialize_narrow_environment 00000001401165e8     ucrtd:ucrtbased.dll
 0005:000005f0       __imp__get_initial_narrow_environment 00000001401165f0     ucrtd:ucrtbased.dll
 0005:000005f8       __imp__initterm            00000001401165f8     ucrtd:ucrtbased.dll
 0005:00000600       __imp__initterm_e          0000000140116600     ucrtd:ucrtbased.dll
 0005:00000608       __imp_exit                 0000000140116608     ucrtd:ucrtbased.dll
 0005:00000610       __imp__exit                0000000140116610     ucrtd:ucrtbased.dll
 0005:00000618       __imp__set_fmode           0000000140116618     ucrtd:ucrtbased.dll
 0005:00000620       __imp___p___argc           0000000140116620     ucrtd:ucrtbased.dll
 0005:00000628       __imp___p___argv           0000000140116628     ucrtd:ucrtbased.dll
 0005:00000630       __imp__cexit               0000000140116630     ucrtd:ucrtbased.dll
 0005:00000638       __imp__c_exit              0000000140116638     ucrtd:ucrtbased.dll
 0005:00000640       __imp__register_thread_local_exe_atexit_callback 0000000140116640     ucrtd:ucrtbased.dll
 0005:00000648       __imp__configthreadlocale  0000000140116648     ucrtd:ucrtbased.dll
 0005:00000650       __imp__set_new_mode        0000000140116650     ucrtd:ucrtbased.dll
 0005:00000658       __imp___p__commode         0000000140116658     ucrtd:ucrtbased.dll
 0005:00000660       __imp__seh_filter_dll      0000000140116660     ucrtd:ucrtbased.dll
 0005:00000668       __imp__initialize_onexit_table 0000000140116668     ucrtd:ucrtbased.dll
 0005:00000670       __imp__register_onexit_function 0000000140116670     ucrtd:ucrtbased.dll
 0005:00000678       __imp__execute_onexit_table 0000000140116678     ucrtd:ucrtbased.dll
 0005:00000680       __imp__crt_atexit          0000000140116680     ucrtd:ucrtbased.dll
 0005:00000688       __imp__crt_at_quick_exit   0000000140116688     ucrtd:ucrtbased.dll
 0005:00000690       __imp_terminate            0000000140116690     ucrtd:ucrtbased.dll
 0005:00000698       \177ucrtbased_NULL_THUNK_DATA 0000000140116698     ucrtd:ucrtbased.dll
 0005:00000740       __IMPORT_DESCRIPTOR_ole32  0000000140116740     ole32:ole32.dll
 0005:00000754       __IMPORT_DESCRIPTOR_WS2_32 0000000140116754     ws2_32:WS2_32.dll
 0005:00000768       __IMPORT_DESCRIPTOR_KERNEL32 0000000140116768     kernel32:KERNEL32.dll
 0005:0000077c       __IMPORT_DESCRIPTOR_VCRUNTIME140D 000000014011677c     vcruntimed:VCRUNTIME140D.dll
 0005:00000790       __IMPORT_DESCRIPTOR_ucrtbased 0000000140116790     ucrtd:ucrtbased.dll
 0005:000007a4       __NULL_IMPORT_DESCRIPTOR   00000001401167a4     ole32:ole32.dll
 0006:00000000       __guard_check_icall_fptr   0000000140118000     MSVCRTD:guard_support.obj
 0006:00000010       __guard_xfg_check_icall_fptr 0000000140118010     MSVCRTD:guard_support.obj
 0006:00000020       __guard_dispatch_icall_fptr 0000000140118020     MSVCRTD:guard_support.obj
 0006:00000030       __guard_xfg_dispatch_icall_fptr 0000000140118030     MSVCRTD:guard_support.obj
 0006:00000040       __guard_xfg_table_dispatch_icall_fptr 0000000140118040     MSVCRTD:guard_support.obj

 entry point at        0001:00000bae

 Static symbols

 0000:ffee8000       _volmd                     0000000140000000     sipecho.obj
 0000:ffee8000       _volmd                     0000000140000000     pjlib-util-x86_64-x64-vc14-debug-dynamic:dns.obj
 0002:fff5f000       $unwind$_snprintf          0000000140000000     pjlib-util-x86_64-x64-vc14-debug-dynamic:errno.obj
 0002:fff5f000       $unwind$_vsnprintf         0000000140000000     pjlib-util-x86_64-x64-vc14-debug-dynamic:errno.obj
 0002:fff5f000       $unwind$_vsnprintf_l       0000000140000000     pjlib-util-x86_64-x64-vc14-debug-dynamic:errno.obj
 0000:ffee8000       _volmd                     0000000140000000     pjlib-util-x86_64-x64-vc14-debug-dynamic:resolver.obj
 0000:ffee8000       _volmd                     0000000140000000     pjlib-util-x86_64-x64-vc14-debug-dynamic:srv_resolver.obj
 0000:ffee8000       _volmd                     0000000140000000     pjlib-x86_64-x64-vc14-debug-dynamic:activesock.obj
 0000:ffee8000       _volmd                     0000000140000000     pjlib-x86_64-x64-vc14-debug-dynamic:addr_resolv_sock.obj
 0002:fff5f000       $unwind$_snprintf          0000000140000000     pjlib-x86_64-x64-vc14-debug-dynamic:errno.obj
 0002:fff5f000       $unwind$_vsnprintf         0000000140000000     pjlib-x86_64-x64-vc14-debug-dynamic:errno.obj
 0002:fff5f000       $unwind$_vsnprintf_l       0000000140000000     pjlib-x86_64-x64-vc14-debug-dynamic:errno.obj
 0000:ffee8000       _volmd                     0000000140000000     pjlib-x86_64-x64-vc14-debug-dynamic:errno.obj
 0002:fff5f000       $unwind$_snprintf          0000000140000000     pjlib-x86_64-x64-vc14-debug-dynamic:except.obj
 0002:fff5f000       $unwind$_vsnprintf         0000000140000000     pjlib-x86_64-x64-vc14-debug-dynamic:except.obj
 0002:fff5f000       $unwind$_vsnprintf_l       0000000140000000     pjlib-x86_64-x64-vc14-debug-dynamic:except.obj
 0000:ffee8000       _volmd                     0000000140000000     pjlib-x86_64-x64-vc14-debug-dynamic:guid_win32.obj
 0000:ffee8000       _volmd                     0000000140000000     pjlib-x86_64-x64-vc14-debug-dynamic:ioqueue_select.obj
 0000:ffee8000       _volmd                     0000000140000000     pjlib-x86_64-x64-vc14-debug-dynamic:ip_helper_win32.obj
 0002:fff5f000       $unwind$_snprintf          0000000140000000     pjlib-x86_64-x64-vc14-debug-dynamic:log.obj
 0002:fff5f000       $unwind$_vsnprintf         0000000140000000     pjlib-x86_64-x64-vc14-debug-dynamic:log.obj
 0002:fff5f000       $unwind$_vsnprintf_l       0000000140000000     pjlib-x86_64-x64-vc14-debug-dynamic:log.obj
 0000:ffee8000       _volmd                     0000000140000000     pjlib-x86_64-x64-vc14-debug-dynamic:log.obj
 0002:fff5f000       $unwind$_vfprintf_l        0000000140000000     pjlib-x86_64-x64-vc14-debug-dynamic:log_writer_stdout.obj
 0002:fff5f000       $unwind$printf             0000000140000000     pjlib-x86_64-x64-vc14-debug-dynamic:log_writer_stdout.obj
 0002:fff5f000       $unwind$_snprintf          0000000140000000     pjlib-x86_64-x64-vc14-debug-dynamic:os_core_win32.obj
 0002:fff5f000       $unwind$_vsnprintf         0000000140000000     pjlib-x86_64-x64-vc14-debug-dynamic:os_core_win32.obj
 0002:fff5f000       $unwind$_vsnprintf_l       0000000140000000     pjlib-x86_64-x64-vc14-debug-dynamic:os_core_win32.obj
 0000:ffee8000       _volmd                     0000000140000000     pjlib-x86_64-x64-vc14-debug-dynamic:os_core_win32.obj
 0002:fff5f000       $unwind$_snprintf          0000000140000000     pjlib-x86_64-x64-vc14-debug-dynamic:os_error_win32.obj
 0002:fff5f000       $unwind$_vsnprintf         0000000140000000     pjlib-x86_64-x64-vc14-debug-dynamic:os_error_win32.obj
 0002:fff5f000       $unwind$_vsnprintf_l       0000000140000000     pjlib-x86_64-x64-vc14-debug-dynamic:os_error_win32.obj
 0000:ffee8000       _volmd                     0000000140000000     pjlib-x86_64-x64-vc14-debug-dynamic:os_time_win32.obj
 0002:fff5f000       $unwind$_snprintf          0000000140000000     pjlib-x86_64-x64-vc14-debug-dynamic:pool.obj
 0002:fff5f000       $unwind$_vsnprintf         0000000140000000     pjlib-x86_64-x64-vc14-debug-dynamic:pool.obj
 0002:fff5f000       $unwind$_vsnprintf_l       0000000140000000     pjlib-x86_64-x64-vc14-debug-dynamic:pool.obj
 0000:ffee8000       _volmd                     0000000140000000     pjlib-x86_64-x64-vc14-debug-dynamic:pool.obj
 0000:ffee8000       _volmd                     0000000140000000     pjlib-x86_64-x64-vc14-debug-dynamic:sock_bsd.obj
 0002:fff5f000       $unwind$_snprintf          0000000140000000     pjlib-x86_64-x64-vc14-debug-dynamic:sock_common.obj
 0002:fff5f000       $unwind$_vsnprintf         0000000140000000     pjlib-x86_64-x64-vc14-debug-dynamic:sock_common.obj
 0002:fff5f000       $unwind$_vsnprintf_l       0000000140000000     pjlib-x86_64-x64-vc14-debug-dynamic:sock_common.obj
 0000:ffee8000       _volmd                     0000000140000000     pjlib-x86_64-x64-vc14-debug-dynamic:sock_common.obj
 0000:ffee8000       _volmd                     0000000140000000     pjlib-x86_64-x64-vc14-debug-dynamic:sock_qos_bsd.obj
 0002:fff5f000       $unwind$_snprintf          0000000140000000     pjmedia-x86_64-x64-vc14-debug-dynamic:sdp.obj
 0002:fff5f000       $unwind$_vsnprintf         0000000140000000     pjmedia-x86_64-x64-vc14-debug-dynamic:sdp.obj
 0002:fff5f000       $unwind$_vsnprintf_l       0000000140000000     pjmedia-x86_64-x64-vc14-debug-dynamic:sdp.obj
 0000:ffee8000       _volmd                     0000000140000000     pjmedia-x86_64-x64-vc14-debug-dynamic:sdp.obj
 0000:ffee8000       _volmd                     0000000140000000     pjmedia-x86_64-x64-vc14-debug-dynamic:sdp_neg.obj
 0002:fff5f000       $unwind$_snprintf          0000000140000000     pjsip-core-x86_64-x64-vc14-debug-dynamic:sip_auth_client.obj
 0002:fff5f000       $unwind$_vsnprintf         0000000140000000     pjsip-core-x86_64-x64-vc14-debug-dynamic:sip_auth_client.obj
 0002:fff5f000       $unwind$_vsnprintf_l       0000000140000000     pjsip-core-x86_64-x64-vc14-debug-dynamic:sip_auth_client.obj
 0000:ffee8000       _volmd                     0000000140000000     pjsip-core-x86_64-x64-vc14-debug-dynamic:sip_auth_client.obj
 0002:fff5f000       $unwind$_snprintf          0000000140000000     pjsip-core-x86_64-x64-vc14-debug-dynamic:sip_dialog.obj
 0002:fff5f000       $unwind$_vsnprintf         0000000140000000     pjsip-core-x86_64-x64-vc14-debug-dynamic:sip_dialog.obj
 0002:fff5f000       $unwind$_vsnprintf_l       0000000140000000     pjsip-core-x86_64-x64-vc14-debug-dynamic:sip_dialog.obj
 0000:ffee8000       _volmd                     0000000140000000     pjsip-core-x86_64-x64-vc14-debug-dynamic:sip_dialog.obj
 0002:fff5f000       $unwind$_snprintf          0000000140000000     pjsip-core-x86_64-x64-vc14-debug-dynamic:sip_endpoint.obj
 0002:fff5f000       $unwind$_vsnprintf         0000000140000000     pjsip-core-x86_64-x64-vc14-debug-dynamic:sip_endpoint.obj
 0002:fff5f000       $unwind$_vsnprintf_l       0000000140000000     pjsip-core-x86_64-x64-vc14-debug-dynamic:sip_endpoint.obj
 0000:ffee8000       _volmd                     0000000140000000     pjsip-core-x86_64-x64-vc14-debug-dynamic:sip_endpoint.obj
 0002:fff5f000       $unwind$_snprintf          0000000140000000     pjsip-core-x86_64-x64-vc14-debug-dynamic:sip_errno.obj
 0002:fff5f000       $unwind$_vsnprintf         0000000140000000     pjsip-core-x86_64-x64-vc14-debug-dynamic:sip_errno.obj
 0002:fff5f000       $unwind$_vsnprintf_l       0000000140000000     pjsip-core-x86_64-x64-vc14-debug-dynamic:sip_errno.obj
 0002:fff5f000       $unwind$_vsnprintf_l       0000000140000000     pjsip-core-x86_64-x64-vc14-debug-dynamic:sip_msg.obj
 0002:fff5f000       $unwind$_vsprintf_l        0000000140000000     pjsip-core-x86_64-x64-vc14-debug-dynamic:sip_msg.obj
 0002:fff5f000       $unwind$sprintf            0000000140000000     pjsip-core-x86_64-x64-vc14-debug-dynamic:sip_msg.obj
 0000:ffee8000       _volmd                     0000000140000000     pjsip-core-x86_64-x64-vc14-debug-dynamic:sip_msg.obj
 0000:ffee8000       _volmd                     0000000140000000     pjsip-core-x86_64-x64-vc14-debug-dynamic:sip_multipart.obj
 0000:ffee8000       _volmd                     0000000140000000     pjsip-core-x86_64-x64-vc14-debug-dynamic:sip_parser.obj
 0000:ffee8000       _volmd                     0000000140000000     pjsip-core-x86_64-x64-vc14-debug-dynamic:sip_resolve.obj
 0002:fff5f000       $unwind$_snprintf          0000000140000000     pjsip-core-x86_64-x64-vc14-debug-dynamic:sip_transaction.obj
 0002:fff5f000       $unwind$_vsnprintf         0000000140000000     pjsip-core-x86_64-x64-vc14-debug-dynamic:sip_transaction.obj
 0002:fff5f000       $unwind$_vsnprintf_l       0000000140000000     pjsip-core-x86_64-x64-vc14-debug-dynamic:sip_transaction.obj
 0000:ffee8000       _volmd                     0000000140000000     pjsip-core-x86_64-x64-vc14-debug-dynamic:sip_transaction.obj
 0002:fff5f000       $unwind$_snprintf          0000000140000000     pjsip-core-x86_64-x64-vc14-debug-dynamic:sip_transport.obj
 0002:fff5f000       $unwind$_vsnprintf         0000000140000000     pjsip-core-x86_64-x64-vc14-debug-dynamic:sip_transport.obj
 0002:fff5f000       $unwind$_vsnprintf_l       0000000140000000     pjsip-core-x86_64-x64-vc14-debug-dynamic:sip_transport.obj
 0000:ffee8000       _volmd                     0000000140000000     pjsip-core-x86_64-x64-vc14-debug-dynamic:sip_transport.obj
 0002:fff5f000       $unwind$_snprintf          0000000140000000     pjsip-core-x86_64-x64-vc14-debug-dynamic:sip_transport_tcp.obj
 0002:fff5f000       $unwind$_vsnprintf         0000000140000000     pjsip-core-x86_64-x64-vc14-debug-dynamic:sip_transport_tcp.obj
 0002:fff5f000       $unwind$_vsnprintf_l       0000000140000000     pjsip-core-x86_64-x64-vc14-debug-dynamic:sip_transport_tcp.obj
 0000:ffee8000       _volmd                     0000000140000000     pjsip-core-x86_64-x64-vc14-debug-dynamic:sip_transport_tcp.obj
 0002:fff5f000       $unwind$_snprintf          0000000140000000     pjsip-core-x86_64-x64-vc14-debug-dynamic:sip_transport_udp.obj
 0002:fff5f000       $unwind$_vsnprintf         0000000140000000     pjsip-core-x86_64-x64-vc14-debug-dynamic:sip_transport_udp.obj
 0002:fff5f000       $unwind$_vsnprintf_l       0000000140000000     pjsip-core-x86_64-x64-vc14-debug-dynamic:sip_transport_udp.obj
 0000:ffee8000       _volmd                     0000000140000000     pjsip-core-x86_64-x64-vc14-debug-dynamic:sip_transport_udp.obj
 0002:fff5f000       $unwind$_snprintf          0000000140000000     pjsip-core-x86_64-x64-vc14-debug-dynamic:sip_ua_layer.obj
 0002:fff5f000       $unwind$_vsnprintf         0000000140000000     pjsip-core-x86_64-x64-vc14-debug-dynamic:sip_ua_layer.obj
 0002:fff5f000       $unwind$_vsnprintf_l       0000000140000000     pjsip-core-x86_64-x64-vc14-debug-dynamic:sip_ua_layer.obj
 0000:ffee8000       _volmd                     0000000140000000     pjsip-core-x86_64-x64-vc14-debug-dynamic:sip_ua_layer.obj
 0000:ffee8000       _volmd                     0000000140000000     pjsip-core-x86_64-x64-vc14-debug-dynamic:sip_util.obj
 0002:fff5f000       $unwind$_snprintf          0000000140000000     pjsip-ua-x86_64-x64-vc14-debug-dynamic:sip_100rel.obj
 0002:fff5f000       $unwind$_vsnprintf         0000000140000000     pjsip-ua-x86_64-x64-vc14-debug-dynamic:sip_100rel.obj
 0002:fff5f000       $unwind$_vsnprintf_l       0000000140000000     pjsip-ua-x86_64-x64-vc14-debug-dynamic:sip_100rel.obj
 0000:ffee8000       _volmd                     0000000140000000     pjsip-ua-x86_64-x64-vc14-debug-dynamic:sip_100rel.obj
 0002:fff5f000       $unwind$_vsnprintf_l       0000000140000000     pjsip-ua-x86_64-x64-vc14-debug-dynamic:sip_inv.obj
 0000:ffee8000       _volmd                     0000000140000000     pjsip-ua-x86_64-x64-vc14-debug-dynamic:sip_inv.obj
 0000:ffee8000       _volmd                     0000000140000000     pjsip-ua-x86_64-x64-vc14-debug-dynamic:sip_timer.obj
 0000:ffee8000       _volmd                     0000000140000000     MSVCRTD:cpu_disp.obj
 0000:ffee8000       __guard_ehcont_?__scrt_common_main_seh@@YAHXZ 0000000140000000     MSVCRTD:exe_main.obj
 0000:ffee8000       __guard_fids_?pre_c_initialization@@YAHXZ 0000000140000000     MSVCRTD:exe_main.obj
 0000:ffee8000       __guard_fids__             0000000140000000     MSVCRTD:exe_main.obj
 0000:ffee8000       _volmd                     0000000140000000     MSVCRTD:gs_report.obj
 0000:ffee8000       _volmd                     0000000140000000     MSVCRTD:gs_report.obj
 0000:ffee8000       _volmd                     0000000140000000     MSVCRTD:gs_report.obj
 0000:ffee8000       __guard_fids__             0000000140000000     MSVCRTD:guard_support.obj
 0000:ffee8000       __guard_fids__             0000000140000000     MSVCRTD:guard_support.obj
 0000:ffee8000       __guard_fids__guard_icall_checks_enforced 0000000140000000     MSVCRTD:guard_support.obj
 0000:ffee8000       _volmd                     0000000140000000     MSVCRTD:guard_support.obj
 0000:ffee8000       _volmd                     0000000140000000     MSVCRTD:guard_support.obj
 0000:ffee8000       _volmd                     0000000140000000     MSVCRTD:guard_support.obj
 0002:fff5f000       $unwind$?configure_argv@__scrt_narrow_argv_policy@@SAHXZ 0000000140000000     MSVCRTD:utility.obj
 0002:fff5f000       $unwind$?initialize_environment@__scrt_narrow_environment_policy@@SAHXZ 0000000140000000     MSVCRTD:utility.obj
 0000:ffee8000       __guard_ehcont___scrt_is_nonwritable_in_current_image 0000000140000000     MSVCRTD:utility.obj
 0000:ffee8000       _volmd                     0000000140000000     MSVCRTD:utility.obj
 0000:ffee8000       _volmd                     0000000140000000     MSVCRTD:utility.obj
 0000:ffee8000       _volmd                     0000000140000000     MSVCRTD:utility.obj
 0000:ffee8000       __guard_fids___scrt_set_unhandled_exception_filter 0000000140000000     MSVCRTD:utility_desktop.obj
 0000:ffee8000       _volmd                     0000000140000000     MSVCRTD:utility_desktop.obj
 0000:ffee5000       .debug$S                   0000000140000000     vcruntimed:VCRUNTIME140D.dll
 0000:ffee5000       .debug$S                   0000000140000000     vcruntimed:VCRUNTIME140D.dll
 0000:ffee5000       .debug$S                   0000000140000000     vcruntimed:VCRUNTIME140D.dll
 0000:ffee5000       .debug$S                   0000000140000000     vcruntimed:VCRUNTIME140D.dll
 0000:ffee5000       .debug$S                   0000000140000000     vcruntimed:VCRUNTIME140D.dll
 0000:ffee5000       .debug$S                   0000000140000000     vcruntimed:VCRUNTIME140D.dll
 0000:ffee5000       .debug$S                   0000000140000000     vcruntimed:VCRUNTIME140D.dll
 0000:ffee5000       .debug$S                   0000000140000000     vcruntimed:VCRUNTIME140D.dll
 0000:ffee5000       .debug$S                   0000000140000000     vcruntimed:VCRUNTIME140D.dll
 0000:ffee5000       .debug$S                   0000000140000000     vcruntimed:VCRUNTIME140D.dll
 0000:ffee5000       .debug$S                   0000000140000000     vcruntimed:VCRUNTIME140D.dll
 0000:ffee5000       .debug$S                   0000000140000000     vcruntimed:VCRUNTIME140D.dll
 0000:ffee5000       .debug$S                   0000000140000000     ucrtd:ucrtbased.dll
 0000:ffee5000       .debug$S                   0000000140000000     ucrtd:ucrtbased.dll
 0000:ffee5000       .debug$S                   0000000140000000     ucrtd:ucrtbased.dll
 0000:ffee5000       .debug$S                   0000000140000000     ucrtd:ucrtbased.dll
 0000:ffee5000       .debug$S                   0000000140000000     ucrtd:ucrtbased.dll
 0000:ffee5000       .debug$S                   0000000140000000     ucrtd:ucrtbased.dll
 0000:ffee5000       .debug$S                   0000000140000000     ucrtd:ucrtbased.dll
 0000:ffee5000       .debug$S                   0000000140000000     ucrtd:ucrtbased.dll
 0000:ffee5000       .debug$S                   0000000140000000     ucrtd:ucrtbased.dll
 0000:ffee5000       .debug$S                   0000000140000000     ucrtd:ucrtbased.dll
 0000:ffee5000       .debug$S                   0000000140000000     ucrtd:ucrtbased.dll
 0000:ffee5000       .debug$S                   0000000140000000     ucrtd:ucrtbased.dll
 0000:ffee5000       .debug$S                   0000000140000000     ucrtd:ucrtbased.dll
 0000:ffee5000       .debug$S                   0000000140000000     ucrtd:ucrtbased.dll
 0000:ffee5000       .debug$S                   0000000140000000     ucrtd:ucrtbased.dll
 0000:ffee5000       .debug$S                   0000000140000000     ucrtd:ucrtbased.dll
 0000:ffee5000       .debug$S                   0000000140000000     ucrtd:ucrtbased.dll
 0000:ffee5000       .debug$S                   0000000140000000     ucrtd:ucrtbased.dll
 0000:ffee5000       .debug$S                   0000000140000000     ucrtd:ucrtbased.dll
 0000:ffee5000       .debug$S                   0000000140000000     ucrtd:ucrtbased.dll
 0000:ffee5000       .debug$S                   0000000140000000     ucrtd:ucrtbased.dll
 0000:ffee5000       .debug$S                   0000000140000000     ucrtd:ucrtbased.dll
 0000:ffee5000       .debug$S                   0000000140000000     ucrtd:ucrtbased.dll
 0000:ffee5000       .debug$S                   0000000140000000     ucrtd:ucrtbased.dll
 0000:ffee5000       .debug$S                   0000000140000000     ucrtd:ucrtbased.dll
 0000:ffee5000       .debug$S                   0000000140000000     ucrtd:ucrtbased.dll
 0000:ffee5000       .debug$S                   0000000140000000     ucrtd:ucrtbased.dll
 0000:ffee5000       .debug$S                   0000000140000000     ucrtd:ucrtbased.dll
 0000:ffee5000       .debug$S                   0000000140000000     ucrtd:ucrtbased.dll
 0000:ffee5000       .debug$S                   0000000140000000     ucrtd:ucrtbased.dll
 0000:ffee5000       .debug$S                   0000000140000000     ucrtd:ucrtbased.dll
 0000:ffee5000       .debug$S                   0000000140000000     ucrtd:ucrtbased.dll
 0000:ffee5000       .debug$S                   0000000140000000     ucrtd:ucrtbased.dll
 0000:ffee5000       .debug$S                   0000000140000000     ucrtd:ucrtbased.dll
 0000:ffee5000       .debug$S                   0000000140000000     ucrtd:ucrtbased.dll
 0000:ffee5000       .debug$S                   0000000140000000     ucrtd:ucrtbased.dll
 0000:ffee5000       .debug$S                   0000000140000000     ucrtd:ucrtbased.dll
 0000:ffee5000       .debug$S                   0000000140000000     ucrtd:ucrtbased.dll
 0000:ffee5000       .debug$S                   0000000140000000     ucrtd:ucrtbased.dll
 0000:ffee5000       .debug$S                   0000000140000000     ucrtd:ucrtbased.dll
 0000:ffee5000       .debug$S                   0000000140000000     ucrtd:ucrtbased.dll
 0000:ffee5000       .debug$S                   0000000140000000     ucrtd:ucrtbased.dll
 0000:ffee5000       .debug$S                   0000000140000000     ucrtd:ucrtbased.dll
 0000:ffee5000       .debug$S                   0000000140000000     ucrtd:ucrtbased.dll
 0000:ffee5000       .debug$S                   0000000140000000     ucrtd:ucrtbased.dll
 0000:ffee5000       .debug$S                   0000000140000000     ucrtd:ucrtbased.dll
 0000:ffee5000       .debug$S                   0000000140000000     ucrtd:ucrtbased.dll
 0000:ffee5000       .debug$S                   0000000140000000     ucrtd:ucrtbased.dll
 0000:ffee5000       .debug$S                   0000000140000000     ucrtd:ucrtbased.dll
 0000:ffee5000       .debug$S                   0000000140000000     ucrtd:ucrtbased.dll
 0000:ffee5000       .debug$S                   0000000140000000     ucrtd:ucrtbased.dll
 0000:ffee5000       .debug$S                   0000000140000000     kernel32:KERNEL32.dll
 0000:ffee5000       .debug$S                   0000000140000000     kernel32:KERNEL32.dll
 0000:ffee5000       .debug$S                   0000000140000000     kernel32:KERNEL32.dll
 0000:ffee5000       .debug$S                   0000000140000000     kernel32:KERNEL32.dll
 0000:ffee5000       .debug$S                   0000000140000000     kernel32:KERNEL32.dll
 0000:ffee5000       .debug$S                   0000000140000000     kernel32:KERNEL32.dll
 0000:ffee5000       .debug$S                   0000000140000000     kernel32:KERNEL32.dll
 0000:ffee5000       .debug$S                   0000000140000000     kernel32:KERNEL32.dll
 0000:ffee5000       .debug$S                   0000000140000000     kernel32:KERNEL32.dll
 0000:ffee5000       .debug$S                   0000000140000000     kernel32:KERNEL32.dll
 0000:ffee5000       .debug$S                   0000000140000000     kernel32:KERNEL32.dll
 0000:ffee5000       .debug$S                   0000000140000000     kernel32:KERNEL32.dll
 0000:ffee5000       .debug$S                   0000000140000000     kernel32:KERNEL32.dll
 0000:ffee5000       .debug$S                   0000000140000000     kernel32:KERNEL32.dll
 0000:ffee5000       .debug$S                   0000000140000000     kernel32:KERNEL32.dll
 0000:ffee5000       .debug$S                   0000000140000000     kernel32:KERNEL32.dll
 0000:ffee5000       .debug$S                   0000000140000000     kernel32:KERNEL32.dll
 0000:ffee5000       .debug$S                   0000000140000000     kernel32:KERNEL32.dll
 0000:ffee5000       .debug$S                   0000000140000000     kernel32:KERNEL32.dll
 0000:ffee5000       .debug$S                   0000000140000000     kernel32:KERNEL32.dll
 0000:ffee5000       .debug$S                   0000000140000000     kernel32:KERNEL32.dll
 0000:ffee5000       .debug$S                   0000000140000000     kernel32:KERNEL32.dll
 0000:ffee5000       .debug$S                   0000000140000000     kernel32:KERNEL32.dll
 0000:ffee5000       .debug$S                   0000000140000000     kernel32:KERNEL32.dll
 0000:ffee5000       .debug$S                   0000000140000000     kernel32:KERNEL32.dll
 0000:ffee5000       .debug$S                   0000000140000000     kernel32:KERNEL32.dll
 0000:ffee5000       .debug$S                   0000000140000000     kernel32:KERNEL32.dll
 0000:ffee5000       .debug$S                   0000000140000000     kernel32:KERNEL32.dll
 0000:ffee5000       .debug$S                   0000000140000000     kernel32:KERNEL32.dll
 0000:ffee5000       .debug$S                   0000000140000000     kernel32:KERNEL32.dll
 0000:ffee5000       .debug$S                   0000000140000000     kernel32:KERNEL32.dll
 0000:ffee5000       .debug$S                   0000000140000000     kernel32:KERNEL32.dll
 0000:ffee5000       .debug$S                   0000000140000000     kernel32:KERNEL32.dll
 0000:ffee5000       .debug$S                   0000000140000000     kernel32:KERNEL32.dll
 0000:ffee5000       .debug$S                   0000000140000000     kernel32:KERNEL32.dll
 0000:ffee5000       .debug$S                   0000000140000000     kernel32:KERNEL32.dll
 0000:ffee5000       .debug$S                   0000000140000000     kernel32:KERNEL32.dll
 0000:ffee5000       .debug$S                   0000000140000000     kernel32:KERNEL32.dll
 0000:ffee5000       .debug$S                   0000000140000000     kernel32:KERNEL32.dll
 0000:ffee5000       .debug$S                   0000000140000000     kernel32:KERNEL32.dll
 0000:ffee5000       .debug$S                   0000000140000000     kernel32:KERNEL32.dll
 0000:ffee5000       .debug$S                   0000000140000000     kernel32:KERNEL32.dll
 0000:ffee5000       .debug$S                   0000000140000000     kernel32:KERNEL32.dll
 0000:ffee5000       .debug$S                   0000000140000000     kernel32:KERNEL32.dll
 0000:ffee5000       .debug$S                   0000000140000000     kernel32:KERNEL32.dll
 0000:ffee5000       .debug$S                   0000000140000000     kernel32:KERNEL32.dll
 0000:ffee5000       .debug$S                   0000000140000000     kernel32:KERNEL32.dll
 0000:ffee5000       .debug$S                   0000000140000000     kernel32:KERNEL32.dll
 0000:ffee5000       .debug$S                   0000000140000000     kernel32:KERNEL32.dll
 0000:ffee5000       .debug$S                   0000000140000000     kernel32:KERNEL32.dll
 0000:ffee5000       .debug$S                   0000000140000000     kernel32:KERNEL32.dll
 0000:ffee5000       .debug$S                   0000000140000000     kernel32:KERNEL32.dll
 0000:ffee5000       .debug$S                   0000000140000000     ole32:ole32.dll
 0000:ffee5000       .debug$S                   0000000140000000     ws2_32:WS2_32.dll
 0000:ffee5000       .debug$S                   0000000140000000     ws2_32:WS2_32.dll
 0000:ffee5000       .debug$S                   0000000140000000     ws2_32:WS2_32.dll
 0000:ffee5000       .debug$S                   0000000140000000     ws2_32:WS2_32.dll
 0000:ffee5000       .debug$S                   0000000140000000     ws2_32:WS2_32.dll
 0000:ffee5000       .debug$S                   0000000140000000     ws2_32:WS2_32.dll
 0000:ffee5000       .debug$S                   0000000140000000     ws2_32:WS2_32.dll
 0000:ffee5000       .debug$S                   0000000140000000     ws2_32:WS2_32.dll
 0000:ffee5000       .debug$S                   0000000140000000     ws2_32:WS2_32.dll
 0000:ffee5000       .debug$S                   0000000140000000     ws2_32:WS2_32.dll
 0000:ffee5000       .debug$S                   0000000140000000     ws2_32:WS2_32.dll
 0000:ffee5000       .debug$S                   0000000140000000     ws2_32:WS2_32.dll
 0000:ffee5000       .debug$S                   0000000140000000     ws2_32:WS2_32.dll
 0000:ffee5000       .debug$S                   0000000140000000     ws2_32:WS2_32.dll
 0000:ffee5000       .debug$S                   0000000140000000     ws2_32:WS2_32.dll
 0000:ffee5000       .debug$S                   0000000140000000     ws2_32:WS2_32.dll
 0000:ffee5000       .debug$S                   0000000140000000     ws2_32:WS2_32.dll
 0000:ffee5000       .debug$S                   0000000140000000     ws2_32:WS2_32.dll
 0000:ffee5000       .debug$S                   0000000140000000     ws2_32:WS2_32.dll
 0000:ffee5000       .debug$S                   0000000140000000     ws2_32:WS2_32.dll
 0000:ffee5000       .debug$S                   0000000140000000     ws2_32:WS2_32.dll
 0000:ffee5000       .debug$S                   0000000140000000     ws2_32:WS2_32.dll
 0000:ffee5000       .debug$S                   0000000140000000     ws2_32:WS2_32.dll
 0000:ffee5000       .debug$S                   0000000140000000     ws2_32:WS2_32.dll
 0000:ffee5000       .debug$S                   0000000140000000     ws2_32:WS2_32.dll
 0000:ffee5000       .debug$S                   0000000140000000     ws2_32:WS2_32.dll
 0000:ffee5000       .debug$S                   0000000140000000     ws2_32:WS2_32.dll
 0000:ffee5000       .debug$S                   0000000140000000     ws2_32:WS2_32.dll
 0000:ffee5000       .debug$S                   0000000140000000     ws2_32:WS2_32.dll
 0000:ffee5000       .debug$S                   0000000140000000     ws2_32:WS2_32.dll
 0000:ffee5000       .debug$S                   0000000140000000     ws2_32:WS2_32.dll
 0000:ffee5000       .debug$S                   0000000140000000     ws2_32:WS2_32.dll
 0000:ffee5000       .debug$S                   0000000140000000     ws2_32:WS2_32.dll
 0000:ffee8004       __guard_fids__             0000000140000004     MSVCRTD:exe_main.obj
 0000:ffee8008       _volmd                     0000000140000008     pjlib-x86_64-x64-vc14-debug-dynamic:os_core_win32.obj
 0000:ffee8008       __guard_fids__             0000000140000008     MSVCRTD:exe_main.obj
 0000:ffee800c       _volmd                     000000014000000c     sipecho.obj
 0000:ffee800c       _volmd                     000000014000000c     pjlib-util-x86_64-x64-vc14-debug-dynamic:resolver.obj
 0000:ffee800c       _volmd                     000000014000000c     pjlib-util-x86_64-x64-vc14-debug-dynamic:srv_resolver.obj
 0000:ffee800c       _volmd                     000000014000000c     pjlib-x86_64-x64-vc14-debug-dynamic:ip_helper_win32.obj
 0000:ffee800c       _volmd                     000000014000000c     pjlib-x86_64-x64-vc14-debug-dynamic:os_time_win32.obj
 0000:ffee800c       _volmd                     000000014000000c     pjlib-x86_64-x64-vc14-debug-dynamic:sock_bsd.obj
 0000:ffee800c       _volmd                     000000014000000c     pjlib-x86_64-x64-vc14-debug-dynamic:sock_common.obj
 0000:ffee800c       _volmd                     000000014000000c     pjlib-x86_64-x64-vc14-debug-dynamic:sock_qos_bsd.obj
 0000:ffee800c       _volmd                     000000014000000c     pjmedia-x86_64-x64-vc14-debug-dynamic:sdp.obj
 0000:ffee800c       _volmd                     000000014000000c     pjmedia-x86_64-x64-vc14-debug-dynamic:sdp_neg.obj
 0000:ffee800c       _volmd                     000000014000000c     pjsip-core-x86_64-x64-vc14-debug-dynamic:sip_auth_client.obj
 0000:ffee800c       _volmd                     000000014000000c     pjsip-core-x86_64-x64-vc14-debug-dynamic:sip_dialog.obj
 0000:ffee800c       _volmd                     000000014000000c     pjsip-core-x86_64-x64-vc14-debug-dynamic:sip_endpoint.obj
 0000:ffee800c       _volmd                     000000014000000c     pjsip-core-x86_64-x64-vc14-debug-dynamic:sip_msg.obj
 0000:ffee800c       _volmd                     000000014000000c     pjsip-core-x86_64-x64-vc14-debug-dynamic:sip_parser.obj
 0000:ffee800c       _volmd                     000000014000000c     pjsip-core-x86_64-x64-vc14-debug-dynamic:sip_resolve.obj
 0000:ffee800c       _volmd                     000000014000000c     pjsip-core-x86_64-x64-vc14-debug-dynamic:sip_transaction.obj
 0000:ffee800c       _volmd                     000000014000000c     pjsip-core-x86_64-x64-vc14-debug-dynamic:sip_transport.obj
 0000:ffee800c       _volmd                     000000014000000c     pjsip-core-x86_64-x64-vc14-debug-dynamic:sip_transport_tcp.obj
 0000:ffee800c       _volmd                     000000014000000c     pjsip-core-x86_64-x64-vc14-debug-dynamic:sip_transport_udp.obj
 0000:ffee800c       _volmd                     000000014000000c     pjsip-core-x86_64-x64-vc14-debug-dynamic:sip_ua_layer.obj
 0000:ffee800c       _volmd                     000000014000000c     pjsip-core-x86_64-x64-vc14-debug-dynamic:sip_util.obj
 0000:ffee800c       _volmd                     000000014000000c     pjsip-ua-x86_64-x64-vc14-debug-dynamic:sip_100rel.obj
 0000:ffee800c       _volmd                     000000014000000c     pjsip-ua-x86_64-x64-vc14-debug-dynamic:sip_inv.obj
 0000:ffee8010       _volmd                     0000000140000010     pjlib-x86_64-x64-vc14-debug-dynamic:os_core_win32.obj
 0000:ffee8018       _volmd                     0000000140000018     sipecho.obj
 0000:ffee8018       _volmd                     0000000140000018     pjlib-util-x86_64-x64-vc14-debug-dynamic:resolver.obj
 0000:ffee8018       _volmd                     0000000140000018     pjlib-x86_64-x64-vc14-debug-dynamic:ip_helper_win32.obj
 0000:ffee8018       _volmd                     0000000140000018     pjlib-x86_64-x64-vc14-debug-dynamic:os_core_win32.obj
 0000:ffee8018       _volmd                     0000000140000018     pjlib-x86_64-x64-vc14-debug-dynamic:os_time_win32.obj
 0000:ffee8018       _volmd                     0000000140000018     pjlib-x86_64-x64-vc14-debug-dynamic:sock_bsd.obj
 0000:ffee8018       _volmd                     0000000140000018     pjlib-x86_64-x64-vc14-debug-dynamic:sock_common.obj
 0000:ffee8018       _volmd                     0000000140000018     pjmedia-x86_64-x64-vc14-debug-dynamic:sdp.obj
 0000:ffee8018       _volmd                     0000000140000018     pjmedia-x86_64-x64-vc14-debug-dynamic:sdp_neg.obj
 0000:ffee8018       _volmd                     0000000140000018     pjsip-core-x86_64-x64-vc14-debug-dynamic:sip_dialog.obj
 0000:ffee8018       _volmd                     0000000140000018     pjsip-core-x86_64-x64-vc14-debug-dynamic:sip_endpoint.obj
 0000:ffee8018       _volmd                     0000000140000018     pjsip-core-x86_64-x64-vc14-debug-dynamic:sip_parser.obj
 0000:ffee8018       _volmd                     0000000140000018     pjsip-core-x86_64-x64-vc14-debug-dynamic:sip_resolve.obj
 0000:ffee8018       _volmd                     0000000140000018     pjsip-core-x86_64-x64-vc14-debug-dynamic:sip_transaction.obj
 0000:ffee8018       _volmd                     0000000140000018     pjsip-core-x86_64-x64-vc14-debug-dynamic:sip_transport.obj
 0000:ffee8018       _volmd                     0000000140000018     pjsip-core-x86_64-x64-vc14-debug-dynamic:sip_transport_tcp.obj
 0000:ffee8018       _volmd                     0000000140000018     pjsip-core-x86_64-x64-vc14-debug-dynamic:sip_transport_udp.obj
 0000:ffee8018       _volmd                     0000000140000018     pjsip-core-x86_64-x64-vc14-debug-dynamic:sip_util.obj
 0000:ffee8018       _volmd                     0000000140000018     pjsip-ua-x86_64-x64-vc14-debug-dynamic:sip_inv.obj
 0000:ffee8020       _volmd                     0000000140000020     pjlib-x86_64-x64-vc14-debug-dynamic:os_core_win32.obj
 0000:ffee8024       _volmd                     0000000140000024     sipecho.obj
 0000:ffee8024       _volmd                     0000000140000024     pjlib-util-x86_64-x64-vc14-debug-dynamic:resolver.obj
 0000:ffee8024       _volmd                     0000000140000024     pjlib-x86_64-x64-vc14-debug-dynamic:os_time_win32.obj
 0000:ffee8024       _volmd                     0000000140000024     pjlib-x86_64-x64-vc14-debug-dynamic:sock_bsd.obj
 0000:ffee8024       _volmd                     0000000140000024     pjlib-x86_64-x64-vc14-debug-dynamic:sock_common.obj
 0000:ffee8024       _volmd                     0000000140000024     pjmedia-x86_64-x64-vc14-debug-dynamic:sdp.obj
 0000:ffee8024       _volmd                     0000000140000024     pjmedia-x86_64-x64-vc14-debug-dynamic:sdp_neg.obj
 0000:ffee8024       _volmd                     0000000140000024     pjsip-core-x86_64-x64-vc14-debug-dynamic:sip_parser.obj
 0000:ffee8024       _volmd                     0000000140000024     pjsip-core-x86_64-x64-vc14-debug-dynamic:sip_resolve.obj
 0000:ffee8024       _volmd                     0000000140000024     pjsip-core-x86_64-x64-vc14-debug-dynamic:sip_transport.obj
 0000:ffee8024       _volmd                     0000000140000024     pjsip-core-x86_64-x64-vc14-debug-dynamic:sip_transport_tcp.obj
 0000:ffee8024       _volmd                     0000000140000024     pjsip-core-x86_64-x64-vc14-debug-dynamic:sip_transport_udp.obj
 0000:ffee8024       _volmd                     0000000140000024     pjsip-core-x86_64-x64-vc14-debug-dynamic:sip_util.obj
 0000:ffee8028       _volmd                     0000000140000028     pjlib-x86_64-x64-vc14-debug-dynamic:os_core_win32.obj
 0000:ffee8030       _volmd                     0000000140000030     sipecho.obj
 0000:ffee8030       _volmd                     0000000140000030     pjlib-util-x86_64-x64-vc14-debug-dynamic:resolver.obj
 0000:ffee8030       _volmd                     0000000140000030     pjlib-x86_64-x64-vc14-debug-dynamic:sock_common.obj
 0000:ffee8030       _volmd                     0000000140000030     pjmedia-x86_64-x64-vc14-debug-dynamic:sdp.obj
 0000:ffee8030       _volmd                     0000000140000030     pjmedia-x86_64-x64-vc14-debug-dynamic:sdp_neg.obj
 0000:ffee8030       _volmd                     0000000140000030     pjsip-core-x86_64-x64-vc14-debug-dynamic:sip_parser.obj
 0000:ffee8030       _volmd                     0000000140000030     pjsip-core-x86_64-x64-vc14-debug-dynamic:sip_resolve.obj
 0000:ffee8030       _volmd                     0000000140000030     pjsip-core-x86_64-x64-vc14-debug-dynamic:sip_transport.obj
 0000:ffee8030       _volmd                     0000000140000030     pjsip-core-x86_64-x64-vc14-debug-dynamic:sip_transport_tcp.obj
 0000:ffee8030       _volmd                     0000000140000030     pjsip-core-x86_64-x64-vc14-debug-dynamic:sip_transport_udp.obj
 0000:ffee8034       _volmd                     0000000140000034     pjlib-x86_64-x64-vc14-debug-dynamic:os_core_win32.obj
 0000:ffee803c       _volmd                     000000014000003c     sipecho.obj
 0000:ffee803c       _volmd                     000000014000003c     pjlib-util-x86_64-x64-vc14-debug-dynamic:resolver.obj
 0000:ffee803c       _volmd                     000000014000003c     pjlib-x86_64-x64-vc14-debug-dynamic:sock_common.obj
 0000:ffee803c       _volmd                     000000014000003c     pjmedia-x86_64-x64-vc14-debug-dynamic:sdp.obj
 0000:ffee803c       _volmd                     000000014000003c     pjsip-core-x86_64-x64-vc14-debug-dynamic:sip_parser.obj
 0000:ffee803c       _volmd                     000000014000003c     pjsip-core-x86_64-x64-vc14-debug-dynamic:sip_transport.obj
 0000:ffee803c       _volmd                     000000014000003c     pjsip-core-x86_64-x64-vc14-debug-dynamic:sip_transport_tcp.obj
 0000:ffee803c       _volmd                     000000014000003c     pjsip-core-x86_64-x64-vc14-debug-dynamic:sip_transport_udp.obj
 0000:ffee8048       _volmd                     0000000140000048     pjlib-x86_64-x64-vc14-debug-dynamic:sock_common.obj
 0000:ffee8048       _volmd                     0000000140000048     pjsip-core-x86_64-x64-vc14-debug-dynamic:sip_parser.obj
 0000:ffee8048       _volmd                     0000000140000048     pjsip-core-x86_64-x64-vc14-debug-dynamic:sip_transport.obj
 0000:ffee8048       _volmd                     0000000140000048     pjsip-core-x86_64-x64-vc14-debug-dynamic:sip_transport_tcp.obj
 0000:ffee8048       _volmd                     0000000140000048     pjsip-core-x86_64-x64-vc14-debug-dynamic:sip_transport_udp.obj
 0000:ffee8054       _volmd                     0000000140000054     pjlib-x86_64-x64-vc14-debug-dynamic:sock_common.obj
 0000:ffee8054       _volmd                     0000000140000054     pjsip-core-x86_64-x64-vc14-debug-dynamic:sip_parser.obj
 0000:ffee8054       _volmd                     0000000140000054     pjsip-core-x86_64-x64-vc14-debug-dynamic:sip_transport.obj
 0000:ffee8054       _volmd                     0000000140000054     pjsip-core-x86_64-x64-vc14-debug-dynamic:sip_transport_tcp.obj
 0000:ffee8054       _volmd                     0000000140000054     pjsip-core-x86_64-x64-vc14-debug-dynamic:sip_transport_udp.obj
 0000:ffee8060       _volmd                     0000000140000060     pjlib-x86_64-x64-vc14-debug-dynamic:sock_common.obj
 0000:ffee8060       _volmd                     0000000140000060     pjsip-core-x86_64-x64-vc14-debug-dynamic:sip_transport.obj
 0000:ffee8060       _volmd                     0000000140000060     pjsip-core-x86_64-x64-vc14-debug-dynamic:sip_transport_tcp.obj
 0000:ffee806c       _volmd                     000000014000006c     pjlib-x86_64-x64-vc14-debug-dynamic:sock_common.obj
 0000:ffee80c4       _volmd                     00000001400000c4     pjsip-core-x86_64-x64-vc14-debug-dynamic:sip_parser.obj
 0001:000026a0       pj_list_init               00000001400036a0 f   sipecho.obj
 0001:000026d0       pj_list_push_back          00000001400036d0 f   sipecho.obj
 0001:00002700       pj_pool_zalloc             0000000140003700 f   sipecho.obj
 0001:00002730       pj_bzero                   0000000140003730 f   sipecho.obj
 0001:00002760       app_perror                 0000000140003760 f   sipecho.obj
 0001:00002d70       call_on_media_update       0000000140003d70 f   sipecho.obj
 0001:00002d80       call_on_state_changed      0000000140003d80 f   sipecho.obj
 0001:00002e80       call_on_rx_offer           0000000140003e80 f   sipecho.obj
 0001:00002ef0       call_on_forked             0000000140003ef0 f   sipecho.obj
 0001:00002f10       on_rx_request              0000000140003f10 f   sipecho.obj
 0001:000035a0       logging_on_rx_msg          00000001400045a0 f   sipecho.obj
 0001:00003670       logging_on_tx_msg          0000000140004670 f   sipecho.obj
 0001:00003790       worker_proc                0000000140004790 f   sipecho.obj
 0001:000037e0       hangup_all                 00000001400047e0 f   sipecho.obj
 0001:00003880       destroy_stack              0000000140004880 f   sipecho.obj
 0001:000039b0       init_stack                 00000001400049b0 f   sipecho.obj
 0001:00003cd0       destroy_call               0000000140004cd0 f   sipecho.obj
 0001:00003cf0       find_remove_sdp_attrs      0000000140004cf0 f   sipecho.obj
 0001:00003df0       create_answer              0000000140004df0 f   sipecho.obj
 0001:00004220       usage                      0000000140005220 f   sipecho.obj
 0001:00005250       pj_list_init               0000000140006250 f   pjsip-ua-x86_64-x64-vc14-debug-dynamic:sip_inv.obj
 0001:00005280       pj_list_empty              0000000140006280 f   pjsip-ua-x86_64-x64-vc14-debug-dynamic:sip_inv.obj
 0001:000052c0       pj_list_push_back          00000001400062c0 f   pjsip-ua-x86_64-x64-vc14-debug-dynamic:sip_inv.obj
 0001:000052f0       pjsip_uri_get_scheme       00000001400062f0 f   pjsip-ua-x86_64-x64-vc14-debug-dynamic:sip_inv.obj
 0001:00005320       pjsip_uri_get_uri          0000000140006320 f   pjsip-ua-x86_64-x64-vc14-debug-dynamic:sip_inv.obj
 0001:00005350       pjsip_uri_print            0000000140006350 f   pjsip-ua-x86_64-x64-vc14-debug-dynamic:sip_inv.obj
 0001:00005390       pjsip_uri_clone            0000000140006390 f   pjsip-ua-x86_64-x64-vc14-debug-dynamic:sip_inv.obj
 0001:000053c0       pjsip_msg_add_hdr          00000001400063c0 f   pjsip-ua-x86_64-x64-vc14-debug-dynamic:sip_inv.obj
 0001:0000889c       $LN39                      000000014000989c     pjsip-ua-x86_64-x64-vc14-debug-dynamic:sip_inv.obj
 0001:00009ad0       pj_bzero                   000000014000aad0 f   pjsip-ua-x86_64-x64-vc14-debug-dynamic:sip_inv.obj
 0001:00009b00       pj_memcpy                  000000014000ab00 f   pjsip-ua-x86_64-x64-vc14-debug-dynamic:sip_inv.obj
 0001:00009b40       pj_pool_zalloc             000000014000ab40 f   pjsip-ua-x86_64-x64-vc14-debug-dynamic:sip_inv.obj
 0001:00009b70       mod_inv_load               000000014000ab70 f   pjsip-ua-x86_64-x64-vc14-debug-dynamic:sip_inv.obj
 0001:00009c90       mod_inv_unload             000000014000ac90 f   pjsip-ua-x86_64-x64-vc14-debug-dynamic:sip_inv.obj
 0001:00009ca0       mod_inv_on_rx_request      000000014000aca0 f   pjsip-ua-x86_64-x64-vc14-debug-dynamic:sip_inv.obj
 0001:00009f30       mod_inv_on_rx_response     000000014000af30 f   pjsip-ua-x86_64-x64-vc14-debug-dynamic:sip_inv.obj
 0001:0000a050       mod_inv_on_tsx_state       000000014000b050 f   pjsip-ua-x86_64-x64-vc14-debug-dynamic:sip_inv.obj
 0001:0000a1d0       inv_on_state_null          000000014000b1d0 f   pjsip-ua-x86_64-x64-vc14-debug-dynamic:sip_inv.obj
 0001:0000a420       inv_on_state_calling       000000014000b420 f   pjsip-ua-x86_64-x64-vc14-debug-dynamic:sip_inv.obj
 0001:0000a9c0       inv_on_state_incoming      000000014000b9c0 f   pjsip-ua-x86_64-x64-vc14-debug-dynamic:sip_inv.obj
 0001:0000abe0       inv_on_state_early         000000014000bbe0 f   pjsip-ua-x86_64-x64-vc14-debug-dynamic:sip_inv.obj
 0001:0000b210       inv_on_state_connecting    000000014000c210 f   pjsip-ua-x86_64-x64-vc14-debug-dynamic:sip_inv.obj
 0001:0000b790       inv_on_state_confirmed     000000014000c790 f   pjsip-ua-x86_64-x64-vc14-debug-dynamic:sip_inv.obj
 0001:0000c540       inv_on_state_disconnected  000000014000d540 f   pjsip-ua-x86_64-x64-vc14-debug-dynamic:sip_inv.obj
 0001:0000c6a0       inv_check_sdp_in_incoming_msg 000000014000d6a0 f   pjsip-ua-x86_64-x64-vc14-debug-dynamic:sip_inv.obj
 0001:0000cee0       inv_negotiate_sdp          000000014000dee0 f   pjsip-ua-x86_64-x64-vc14-debug-dynamic:sip_inv.obj
 0001:0000d000       create_sdp_body            000000014000e000 f   pjsip-ua-x86_64-x64-vc14-debug-dynamic:sip_inv.obj
 0001:0000d050       process_answer             000000014000e050 f   pjsip-ua-x86_64-x64-vc14-debug-dynamic:sip_inv.obj
 0001:0000d320       handle_timer_response      000000014000e320 f   pjsip-ua-x86_64-x64-vc14-debug-dynamic:sip_inv.obj
 0001:0000d3a0       inv_check_secure_dlg       000000014000e3a0 f   pjsip-ua-x86_64-x64-vc14-debug-dynamic:sip_inv.obj
 0001:0000d7a0       inv_session_destroy        000000014000e7a0 f   pjsip-ua-x86_64-x64-vc14-debug-dynamic:sip_inv.obj
 0001:0000d8c0       inv_set_state              000000014000e8c0 f   pjsip-ua-x86_64-x64-vc14-debug-dynamic:sip_inv.obj
 0001:0000dac0       inv_set_cause              000000014000eac0 f   pjsip-ua-x86_64-x64-vc14-debug-dynamic:sip_inv.obj
 0001:0000db90       inv_has_pending_answer     000000014000eb90 f   pjsip-ua-x86_64-x64-vc14-debug-dynamic:sip_inv.obj
 0001:0000dcc0       inv_perform_pending_bye    000000014000ecc0 f   pjsip-ua-x86_64-x64-vc14-debug-dynamic:sip_inv.obj
 0001:0000dd70       inv_send_ack               000000014000ed70 f   pjsip-ua-x86_64-x64-vc14-debug-dynamic:sip_inv.obj
 0001:0000dff0       tx_data_has_sdp            000000014000eff0 f   pjsip-ua-x86_64-x64-vc14-debug-dynamic:sip_inv.obj
 0001:0000e140       clone_sdp                  000000014000f140 f   pjsip-ua-x86_64-x64-vc14-debug-dynamic:sip_inv.obj
 0001:0000e170       print_sdp                  000000014000f170 f   pjsip-ua-x86_64-x64-vc14-debug-dynamic:sip_inv.obj
 0001:0000e1b0       remove_val_from_array_hdr  000000014000f1b0 f   pjsip-ua-x86_64-x64-vc14-debug-dynamic:sip_inv.obj
 0001:0000e250       cleanup_allow_sup_hdr      000000014000f250 f   pjsip-ua-x86_64-x64-vc14-debug-dynamic:sip_inv.obj
 0001:0000e390       swap_pool                  000000014000f390 f   pjsip-ua-x86_64-x64-vc14-debug-dynamic:sip_inv.obj
 0001:0000e3e0       inv_uac_recurse            000000014000f3e0 f   pjsip-ua-x86_64-x64-vc14-debug-dynamic:sip_inv.obj
 0001:0000e610       inv_respond_incoming_cancel 000000014000f610 f   pjsip-ua-x86_64-x64-vc14-debug-dynamic:sip_inv.obj
 0001:0000e860       inv_respond_incoming_bye   000000014000f860 f   pjsip-ua-x86_64-x64-vc14-debug-dynamic:sip_inv.obj
 0001:0000e910       inv_handle_bye_response    000000014000f910 f   pjsip-ua-x86_64-x64-vc14-debug-dynamic:sip_inv.obj
 0001:0000ea60       inv_respond_incoming_update 000000014000fa60 f   pjsip-ua-x86_64-x64-vc14-debug-dynamic:sip_inv.obj
 0001:0000edb0       inv_handle_update_response 000000014000fdb0 f   pjsip-ua-x86_64-x64-vc14-debug-dynamic:sip_inv.obj
 0001:0000f0f0       inv_handle_incoming_reliable_response 00000001400100f0 f   pjsip-ua-x86_64-x64-vc14-debug-dynamic:sip_inv.obj
 0001:0000f180       inv_respond_incoming_prack 0000000140010180 f   pjsip-ua-x86_64-x64-vc14-debug-dynamic:sip_inv.obj
 0001:0000f2a0       handle_uac_tsx_response    00000001400102a0 f   pjsip-ua-x86_64-x64-vc14-debug-dynamic:sip_inv.obj
 0001:0000f530       handle_uac_call_rejection  0000000140010530 f   pjsip-ua-x86_64-x64-vc14-debug-dynamic:sip_inv.obj
 0001:00012190       pjsip_cfg                  0000000140013190 f   pjsip-ua-x86_64-x64-vc14-debug-dynamic:sip_inv.obj
 0001:000121a0       pj_list_init               00000001400131a0 f   pjsip-ua-x86_64-x64-vc14-debug-dynamic:sip_100rel.obj
 0001:000121d0       pj_list_empty              00000001400131d0 f   pjsip-ua-x86_64-x64-vc14-debug-dynamic:sip_100rel.obj
 0001:00012210       pj_list_push_back          0000000140013210 f   pjsip-ua-x86_64-x64-vc14-debug-dynamic:sip_100rel.obj
 0001:00012240       pjsip_uri_clone            0000000140013240 f   pjsip-ua-x86_64-x64-vc14-debug-dynamic:sip_100rel.obj
 0001:00012270       pjsip_msg_add_hdr          0000000140013270 f   pjsip-ua-x86_64-x64-vc14-debug-dynamic:sip_100rel.obj
 0001:00013660       pj_isdigit                 0000000140014660 f   pjsip-ua-x86_64-x64-vc14-debug-dynamic:sip_100rel.obj
 0001:00013680       pj_pool_zalloc             0000000140014680 f   pjsip-ua-x86_64-x64-vc14-debug-dynamic:sip_100rel.obj
 0001:000136b0       mod_100rel_load            00000001400146b0 f   pjsip-ua-x86_64-x64-vc14-debug-dynamic:sip_100rel.obj
 0001:00013730       on_retransmit              0000000140014730 f   pjsip-ua-x86_64-x64-vc14-debug-dynamic:sip_100rel.obj
 0001:000139b0       find_req_hdr               00000001400149b0 f   pjsip-ua-x86_64-x64-vc14-debug-dynamic:sip_100rel.obj
 0001:00013a80       clear_all_responses        0000000140014a80 f   pjsip-ua-x86_64-x64-vc14-debug-dynamic:sip_100rel.obj
 0001:00013af0       parse_rack                 0000000140014af0 f   pjsip-ua-x86_64-x64-vc14-debug-dynamic:sip_100rel.obj
 0001:00013c60       has_sdp                    0000000140014c60 f   pjsip-ua-x86_64-x64-vc14-debug-dynamic:sip_100rel.obj
 0001:00014390       pjsip_cfg                  0000000140015390 f   pjsip-ua-x86_64-x64-vc14-debug-dynamic:sip_100rel.obj
 0001:000143a0       pj_list_init               00000001400153a0 f   pjsip-ua-x86_64-x64-vc14-debug-dynamic:sip_timer.obj
 0001:000143d0       pj_list_push_back          00000001400153d0 f   pjsip-ua-x86_64-x64-vc14-debug-dynamic:sip_timer.obj
 0001:00014400       pjsip_msg_add_hdr          0000000140015400 f   pjsip-ua-x86_64-x64-vc14-debug-dynamic:sip_timer.obj
 0001:00015ca0       pj_bzero                   0000000140016ca0 f   pjsip-ua-x86_64-x64-vc14-debug-dynamic:sip_timer.obj
 0001:00015cd0       pj_memcpy                  0000000140016cd0 f   pjsip-ua-x86_64-x64-vc14-debug-dynamic:sip_timer.obj
 0001:00015d10       pj_pool_zalloc             0000000140016d10 f   pjsip-ua-x86_64-x64-vc14-debug-dynamic:sip_timer.obj
 0001:00015d40       stop_timer                 0000000140016d40 f   pjsip-ua-x86_64-x64-vc14-debug-dynamic:sip_timer.obj
 0001:00015df0       start_timer                0000000140016df0 f   pjsip-ua-x86_64-x64-vc14-debug-dynamic:sip_timer.obj
 0001:00016050       se_hdr_print               0000000140017050 f   pjsip-ua-x86_64-x64-vc14-debug-dynamic:sip_timer.obj
 0001:000163c0       se_hdr_clone               00000001400173c0 f   pjsip-ua-x86_64-x64-vc14-debug-dynamic:sip_timer.obj
 0001:00016450       se_hdr_shallow_clone       0000000140017450 f   pjsip-ua-x86_64-x64-vc14-debug-dynamic:sip_timer.obj
 0001:000164c0       min_se_hdr_print           00000001400174c0 f   pjsip-ua-x86_64-x64-vc14-debug-dynamic:sip_timer.obj
 0001:00016690       min_se_hdr_clone           0000000140017690 f   pjsip-ua-x86_64-x64-vc14-debug-dynamic:sip_timer.obj
 0001:000166f0       min_se_hdr_shallow_clone   00000001400176f0 f   pjsip-ua-x86_64-x64-vc14-debug-dynamic:sip_timer.obj
 0001:00016760       parse_hdr_se               0000000140017760 f   pjsip-ua-x86_64-x64-vc14-debug-dynamic:sip_timer.obj
 0001:000168e0       parse_hdr_min_se           00000001400178e0 f   pjsip-ua-x86_64-x64-vc14-debug-dynamic:sip_timer.obj
 0001:00016a30       add_timer_headers          0000000140017a30 f   pjsip-ua-x86_64-x64-vc14-debug-dynamic:sip_timer.obj
 0001:00016b30       timer_cb                   0000000140017b30 f   pjsip-ua-x86_64-x64-vc14-debug-dynamic:sip_timer.obj
 0001:00017060       pjsip_timer_deinit_module  0000000140018060 f   pjsip-ua-x86_64-x64-vc14-debug-dynamic:sip_timer.obj
 0001:00017bb0       pjsip_cfg                  0000000140018bb0 f   pjsip-ua-x86_64-x64-vc14-debug-dynamic:sip_timer.obj
 0001:00017bc0       pj_list_init               0000000140018bc0 f   pjsip-core-x86_64-x64-vc14-debug-dynamic:sip_msg.obj
 0001:00017bf0       pj_list_empty              0000000140018bf0 f   pjsip-core-x86_64-x64-vc14-debug-dynamic:sip_msg.obj
 0001:00017c30       pjsip_uri_get_scheme       0000000140018c30 f   pjsip-core-x86_64-x64-vc14-debug-dynamic:sip_msg.obj
 0001:00017c60       pjsip_uri_get_uri          0000000140018c60 f   pjsip-core-x86_64-x64-vc14-debug-dynamic:sip_msg.obj
 0001:00017c90       pjsip_uri_print            0000000140018c90 f   pjsip-core-x86_64-x64-vc14-debug-dynamic:sip_msg.obj
 0001:00017cd0       pjsip_uri_clone            0000000140018cd0 f   pjsip-core-x86_64-x64-vc14-debug-dynamic:sip_msg.obj
 0001:00018c40       pjsip_msg_add_hdr          0000000140019c40 f   pjsip-core-x86_64-x64-vc14-debug-dynamic:sip_msg.obj
 0001:0001a6a0       init_hdr                   000000014001b6a0 f   pjsip-core-x86_64-x64-vc14-debug-dynamic:sip_msg.obj
 0001:0001a790       pj_toupper                 000000014001b790 f   pjsip-core-x86_64-x64-vc14-debug-dynamic:sip_msg.obj
 0001:0001a7b0       pj_strset2                 000000014001b7b0 f   pjsip-core-x86_64-x64-vc14-debug-dynamic:sip_msg.obj
 0001:0001a810       pj_strchr                  000000014001b810 f   pjsip-core-x86_64-x64-vc14-debug-dynamic:sip_msg.obj
 0001:0001a860       pj_bzero                   000000014001b860 f   pjsip-core-x86_64-x64-vc14-debug-dynamic:sip_msg.obj
 0001:0001a890       pj_memset                  000000014001b890 f   pjsip-core-x86_64-x64-vc14-debug-dynamic:sip_msg.obj
 0001:0001a8c0       pj_memcpy                  000000014001b8c0 f   pjsip-core-x86_64-x64-vc14-debug-dynamic:sip_msg.obj
 0001:0001a900       pj_memcmp                  000000014001b900 f   pjsip-core-x86_64-x64-vc14-debug-dynamic:sip_msg.obj
 0001:0001a940       pj_memchr                  000000014001b940 f   pjsip-core-x86_64-x64-vc14-debug-dynamic:sip_msg.obj
 0001:0001a970       pj_pool_zalloc             000000014001b970 f   pjsip-core-x86_64-x64-vc14-debug-dynamic:sip_msg.obj
 0001:0001a9a0       print_media_type           000000014001b9a0 f   pjsip-core-x86_64-x64-vc14-debug-dynamic:sip_msg.obj
 0001:0001aaf0       init_status_phrase         000000014001baf0 f   pjsip-core-x86_64-x64-vc14-debug-dynamic:sip_msg.obj
 0001:0001b470       pjsip_generic_string_hdr_print 000000014001c470 f   pjsip-core-x86_64-x64-vc14-debug-dynamic:sip_msg.obj
 0001:0001b5a0       pjsip_generic_string_hdr_clone 000000014001c5a0 f   pjsip-core-x86_64-x64-vc14-debug-dynamic:sip_msg.obj
 0001:0001b620       pjsip_generic_string_hdr_shallow_clone 000000014001c620 f   pjsip-core-x86_64-x64-vc14-debug-dynamic:sip_msg.obj
 0001:0001b670       pjsip_generic_int_hdr_print 000000014001c670 f   pjsip-core-x86_64-x64-vc14-debug-dynamic:sip_msg.obj
 0001:0001b780       pjsip_generic_int_hdr_clone 000000014001c780 f   pjsip-core-x86_64-x64-vc14-debug-dynamic:sip_msg.obj
 0001:0001b7d0       pjsip_generic_int_hdr_shallow_clone 000000014001c7d0 f   pjsip-core-x86_64-x64-vc14-debug-dynamic:sip_msg.obj
 0001:0001b820       pjsip_generic_array_hdr_print 000000014001c820 f   pjsip-core-x86_64-x64-vc14-debug-dynamic:sip_msg.obj
 0001:0001bae0       pjsip_generic_array_hdr_clone 000000014001cae0 f   pjsip-core-x86_64-x64-vc14-debug-dynamic:sip_msg.obj
 0001:0001bb80       pjsip_generic_array_hdr_shallow_clone 000000014001cb80 f   pjsip-core-x86_64-x64-vc14-debug-dynamic:sip_msg.obj
 0001:0001bbd0       pjsip_clen_hdr_print       000000014001cbd0 f   pjsip-core-x86_64-x64-vc14-debug-dynamic:sip_msg.obj
 0001:0001bcf0       pjsip_clen_hdr_clone       000000014001ccf0 f   pjsip-core-x86_64-x64-vc14-debug-dynamic:sip_msg.obj
 0001:0001bd30       pjsip_cseq_hdr_print       000000014001cd30 f   pjsip-core-x86_64-x64-vc14-debug-dynamic:sip_msg.obj
 0001:0001be70       pjsip_cseq_hdr_clone       000000014001ce70 f   pjsip-core-x86_64-x64-vc14-debug-dynamic:sip_msg.obj
 0001:0001bed0       pjsip_cseq_hdr_shallow_clone 000000014001ced0 f   pjsip-core-x86_64-x64-vc14-debug-dynamic:sip_msg.obj
 0001:0001bf20       pjsip_contact_hdr_print    000000014001cf20 f   pjsip-core-x86_64-x64-vc14-debug-dynamic:sip_msg.obj
 0001:0001c470       pjsip_contact_hdr_clone    000000014001d470 f   pjsip-core-x86_64-x64-vc14-debug-dynamic:sip_msg.obj
 0001:0001c520       pjsip_contact_hdr_shallow_clone 000000014001d520 f   pjsip-core-x86_64-x64-vc14-debug-dynamic:sip_msg.obj
 0001:0001c590       pjsip_ctype_hdr_print      000000014001d590 f   pjsip-core-x86_64-x64-vc14-debug-dynamic:sip_msg.obj
 0001:0001c6e0       pjsip_ctype_hdr_clone      000000014001d6e0 f   pjsip-core-x86_64-x64-vc14-debug-dynamic:sip_msg.obj
 0001:0001c780       pjsip_fromto_hdr_print     000000014001d780 f   pjsip-core-x86_64-x64-vc14-debug-dynamic:sip_msg.obj
 0001:0001cac0       pjsip_fromto_hdr_clone     000000014001dac0 f   pjsip-core-x86_64-x64-vc14-debug-dynamic:sip_msg.obj
 0001:0001cba0       pjsip_fromto_hdr_shallow_clone 000000014001dba0 f   pjsip-core-x86_64-x64-vc14-debug-dynamic:sip_msg.obj
 0001:0001cc10       pjsip_routing_hdr_print    000000014001dc10 f   pjsip-core-x86_64-x64-vc14-debug-dynamic:sip_msg.obj
 0001:0001cf30       pjsip_routing_hdr_clone    000000014001df30 f   pjsip-core-x86_64-x64-vc14-debug-dynamic:sip_msg.obj
 0001:0001cfe0       pjsip_routing_hdr_shallow_clone 000000014001dfe0 f   pjsip-core-x86_64-x64-vc14-debug-dynamic:sip_msg.obj
 0001:0001d050       pjsip_retry_after_hdr_print 000000014001e050 f   pjsip-core-x86_64-x64-vc14-debug-dynamic:sip_msg.obj
 0001:0001d320       pjsip_retry_after_hdr_clone 000000014001e320 f   pjsip-core-x86_64-x64-vc14-debug-dynamic:sip_msg.obj
 0001:0001d3a0       pjsip_retry_after_hdr_shallow_clone 000000014001e3a0 f   pjsip-core-x86_64-x64-vc14-debug-dynamic:sip_msg.obj
 0001:0001d410       pjsip_via_hdr_print        000000014001e410 f   pjsip-core-x86_64-x64-vc14-debug-dynamic:sip_msg.obj
 0001:0001dfb0       pjsip_via_hdr_clone        000000014001efb0 f   pjsip-core-x86_64-x64-vc14-debug-dynamic:sip_msg.obj
 0001:0001e0f0       pjsip_via_hdr_shallow_clone 000000014001f0f0 f   pjsip-core-x86_64-x64-vc14-debug-dynamic:sip_msg.obj
 0001:0001fac0       pjsip_cfg                  0000000140020ac0 f   pjsip-core-x86_64-x64-vc14-debug-dynamic:sip_msg.obj
 0001:0001fad0       pj_list_init               0000000140020ad0 f   pjsip-core-x86_64-x64-vc14-debug-dynamic:sip_transport.obj
 0001:0001fb00       pj_list_empty              0000000140020b00 f   pjsip-core-x86_64-x64-vc14-debug-dynamic:sip_transport.obj
 0001:0001fb40       pj_list_push_back          0000000140020b40 f   pjsip-core-x86_64-x64-vc14-debug-dynamic:sip_transport.obj
 0001:0001fb70       pjsip_msg_add_hdr          0000000140020b70 f   pjsip-core-x86_64-x64-vc14-debug-dynamic:sip_transport.obj
 0001:0002056c       $LN41                      000000014002156c     pjsip-core-x86_64-x64-vc14-debug-dynamic:sip_transport.obj
 0001:000205a0       $LN40                      00000001400215a0     pjsip-core-x86_64-x64-vc14-debug-dynamic:sip_transport.obj
 0001:00024360       pj_strset                  0000000140025360 f   pjsip-core-x86_64-x64-vc14-debug-dynamic:sip_transport.obj
 0001:000243a0       pj_bzero                   00000001400253a0 f   pjsip-core-x86_64-x64-vc14-debug-dynamic:sip_transport.obj
 0001:000243d0       pj_memcpy                  00000001400253d0 f   pjsip-core-x86_64-x64-vc14-debug-dynamic:sip_transport.obj
 0001:00024410       pj_pool_zalloc             0000000140025410 f   pjsip-core-x86_64-x64-vc14-debug-dynamic:sip_transport.obj
 0001:00024440       mod_on_tx_msg              0000000140025440 f   pjsip-core-x86_64-x64-vc14-debug-dynamic:sip_transport.obj
 0001:00024460       tp_state_callback          0000000140025460 f   pjsip-core-x86_64-x64-vc14-debug-dynamic:sip_transport.obj
 0001:00024530       get_tpname                 0000000140025530 f   pjsip-core-x86_64-x64-vc14-debug-dynamic:sip_transport.obj
 0001:000245c0       tx_data_destroy            00000001400255c0 f   pjsip-core-x86_64-x64-vc14-debug-dynamic:sip_transport.obj
 0001:00024670       get_msg_info               0000000140025670 f   pjsip-core-x86_64-x64-vc14-debug-dynamic:sip_transport.obj
 0001:00024820       transport_send_callback    0000000140025820 f   pjsip-core-x86_64-x64-vc14-debug-dynamic:sip_transport.obj
 0001:000248a0       send_raw_callback          00000001400258a0 f   pjsip-core-x86_64-x64-vc14-debug-dynamic:sip_transport.obj
 0001:00024920       transport_idle_callback    0000000140025920 f   pjsip-core-x86_64-x64-vc14-debug-dynamic:sip_transport.obj
 0001:00024990       is_transport_valid         0000000140025990 f   pjsip-core-x86_64-x64-vc14-debug-dynamic:sip_transport.obj
 0001:00024a20       destroy_transport          0000000140025a20 f   pjsip-core-x86_64-x64-vc14-debug-dynamic:sip_transport.obj
 0001:00024ca0       pjsip_tpmgr_is_tpfactory_valid 0000000140025ca0 f   pjsip-core-x86_64-x64-vc14-debug-dynamic:sip_transport.obj
 0001:00024d30       get_net_interface          0000000140025d30 f   pjsip-core-x86_64-x64-vc14-debug-dynamic:sip_transport.obj
 0001:00024e90       init_tp_data               0000000140025e90 f   pjsip-core-x86_64-x64-vc14-debug-dynamic:sip_transport.obj
 0001:00026430       pjsip_cfg                  0000000140027430 f   pjsip-core-x86_64-x64-vc14-debug-dynamic:sip_transport.obj
 0001:00026440       pj_list_init               0000000140027440 f   pjsip-core-x86_64-x64-vc14-debug-dynamic:sip_endpoint.obj
 0001:00026470       pj_list_push_back          0000000140027470 f   pjsip-core-x86_64-x64-vc14-debug-dynamic:sip_endpoint.obj
 0001:00028190       pj_cstr                    0000000140029190 f   pjsip-core-x86_64-x64-vc14-debug-dynamic:sip_endpoint.obj
 0001:000281f0       pj_bzero                   00000001400291f0 f   pjsip-core-x86_64-x64-vc14-debug-dynamic:sip_endpoint.obj
 0001:00028220       pj_pool_zalloc             0000000140029220 f   pjsip-core-x86_64-x64-vc14-debug-dynamic:sip_endpoint.obj
 0001:00028250       pj_pool_factory_dump       0000000140029250 f   pjsip-core-x86_64-x64-vc14-debug-dynamic:sip_endpoint.obj
 0001:00028280       endpt_on_rx_msg            0000000140029280 f   pjsip-core-x86_64-x64-vc14-debug-dynamic:sip_endpoint.obj
 0001:000285d0       endpt_on_tx_msg            00000001400295d0 f   pjsip-core-x86_64-x64-vc14-debug-dynamic:sip_endpoint.obj
 0001:000286d0       unload_module              00000001400296d0 f   pjsip-core-x86_64-x64-vc14-debug-dynamic:sip_endpoint.obj
 0001:000287b0       pool_callback              00000001400297b0 f   pjsip-core-x86_64-x64-vc14-debug-dynamic:sip_endpoint.obj
 0001:000287e0       cmp_mod_name               00000001400297e0 f   pjsip-core-x86_64-x64-vc14-debug-dynamic:sip_endpoint.obj
 0001:00029100       pjsip_cfg                  000000014002a100 f   pjsip-core-x86_64-x64-vc14-debug-dynamic:sip_endpoint.obj
 0001:00029110       pj_list_push_back          000000014002a110 f   pjsip-core-x86_64-x64-vc14-debug-dynamic:sip_util.obj
 0001:00029140       pjsip_uri_get_scheme       000000014002a140 f   pjsip-core-x86_64-x64-vc14-debug-dynamic:sip_util.obj
 0001:00029170       pjsip_uri_get_uri          000000014002a170 f   pjsip-core-x86_64-x64-vc14-debug-dynamic:sip_util.obj
 0001:000291a0       pjsip_uri_cmp              000000014002a1a0 f   pjsip-core-x86_64-x64-vc14-debug-dynamic:sip_util.obj
 0001:000291e0       pjsip_uri_clone            000000014002a1e0 f   pjsip-core-x86_64-x64-vc14-debug-dynamic:sip_util.obj
 0001:00029210       pjsip_msg_add_hdr          000000014002a210 f   pjsip-core-x86_64-x64-vc14-debug-dynamic:sip_util.obj
 0001:00029240       pjsip_msg_insert_first_hdr 000000014002a240 f   pjsip-core-x86_64-x64-vc14-debug-dynamic:sip_util.obj
 0001:0002c3e0       pj_strchr                  000000014002d3e0 f   pjsip-core-x86_64-x64-vc14-debug-dynamic:sip_util.obj
 0001:0002c430       pj_bzero                   000000014002d430 f   pjsip-core-x86_64-x64-vc14-debug-dynamic:sip_util.obj
 0001:0002c460       pj_memcpy                  000000014002d460 f   pjsip-core-x86_64-x64-vc14-debug-dynamic:sip_util.obj
 0001:0002c4a0       pj_pool_zalloc             000000014002d4a0 f   pjsip-core-x86_64-x64-vc14-debug-dynamic:sip_util.obj
 0001:0002c4d0       init_request_throw         000000014002d4d0 f   pjsip-core-x86_64-x64-vc14-debug-dynamic:sip_util.obj
 0001:0002c880       stateless_send_transport_cb 000000014002d880 f   pjsip-core-x86_64-x64-vc14-debug-dynamic:sip_util.obj
 0001:0002cf60       stateless_send_resolver_callback 000000014002df60 f   pjsip-core-x86_64-x64-vc14-debug-dynamic:sip_util.obj
 0001:0002d210       send_raw_resolver_callback 000000014002e210 f   pjsip-core-x86_64-x64-vc14-debug-dynamic:sip_util.obj
 0001:0002d450       send_response_transport_cb 000000014002e450 f   pjsip-core-x86_64-x64-vc14-debug-dynamic:sip_util.obj
 0001:0002d4c0       send_response_resolver_cb  000000014002e4c0 f   pjsip-core-x86_64-x64-vc14-debug-dynamic:sip_util.obj
 0001:0002e880       pjsip_cfg                  000000014002f880 f   pjsip-core-x86_64-x64-vc14-debug-dynamic:sip_util.obj
 0001:0002e890       pjsip_msg_add_hdr          000000014002f890 f   pjsip-core-x86_64-x64-vc14-debug-dynamic:sip_util_statefull.obj
 0001:0002ec50       mod_util_on_tsx_state      000000014002fc50 f   pjsip-core-x86_64-x64-vc14-debug-dynamic:sip_util_statefull.obj
 0001:0002fa00       pj_bzero                   0000000140030a00 f   pjsip-core-x86_64-x64-vc14-debug-dynamic:sip_transport_udp.obj
 0001:0002fa30       pj_memset                  0000000140030a30 f   pjsip-core-x86_64-x64-vc14-debug-dynamic:sip_transport_udp.obj
 0001:0002fa60       pj_memcpy                  0000000140030a60 f   pjsip-core-x86_64-x64-vc14-debug-dynamic:sip_transport_udp.obj
 0001:0002faa0       pj_memcmp                  0000000140030aa0 f   pjsip-core-x86_64-x64-vc14-debug-dynamic:sip_transport_udp.obj
 0001:0002fae0       init_rdata                 0000000140030ae0 f   pjsip-core-x86_64-x64-vc14-debug-dynamic:sip_transport_udp.obj
 0001:0002fba0       udp_on_read_complete       0000000140030ba0 f   pjsip-core-x86_64-x64-vc14-debug-dynamic:sip_transport_udp.obj
 0001:000300c0       udp_on_write_complete      00000001400310c0 f   pjsip-core-x86_64-x64-vc14-debug-dynamic:sip_transport_udp.obj
 0001:000301e0       udp_send_msg               00000001400311e0 f   pjsip-core-x86_64-x64-vc14-debug-dynamic:sip_transport_udp.obj
 0001:00030430       udp_on_destroy             0000000140031430 f   pjsip-core-x86_64-x64-vc14-debug-dynamic:sip_transport_udp.obj
 0001:00030510       udp_destroy                0000000140031510 f   pjsip-core-x86_64-x64-vc14-debug-dynamic:sip_transport_udp.obj
 0001:00030690       udp_shutdown               0000000140031690 f   pjsip-core-x86_64-x64-vc14-debug-dynamic:sip_transport_udp.obj
 0001:000306b0       create_socket              00000001400316b0 f   pjsip-core-x86_64-x64-vc14-debug-dynamic:sip_transport_udp.obj
 0001:000307e0       get_published_name         00000001400317e0 f   pjsip-core-x86_64-x64-vc14-debug-dynamic:sip_transport_udp.obj
 0001:000309e0       udp_set_pub_name           00000001400319e0 f   pjsip-core-x86_64-x64-vc14-debug-dynamic:sip_transport_udp.obj
 0001:00030ba0       udp_set_socket             0000000140031ba0 f   pjsip-core-x86_64-x64-vc14-debug-dynamic:sip_transport_udp.obj
 0001:00030be0       register_to_ioqueue        0000000140031be0 f   pjsip-core-x86_64-x64-vc14-debug-dynamic:sip_transport_udp.obj
 0001:00030d60       start_async_read           0000000140031d60 f   pjsip-core-x86_64-x64-vc14-debug-dynamic:sip_transport_udp.obj
 0001:00030ef0       transport_attach           0000000140031ef0 f   pjsip-core-x86_64-x64-vc14-debug-dynamic:sip_transport_udp.obj
 0001:00031e60       pj_pool_zalloc             0000000140032e60 f   pjsip-core-x86_64-x64-vc14-debug-dynamic:sip_transport_udp.obj
 0001:00031e90       pj_list_init               0000000140032e90 f   pjsip-core-x86_64-x64-vc14-debug-dynamic:sip_transport_tcp.obj
 0001:00031ec0       pj_list_empty              0000000140032ec0 f   pjsip-core-x86_64-x64-vc14-debug-dynamic:sip_transport_tcp.obj
 0001:00031f00       pj_list_push_back          0000000140032f00 f   pjsip-core-x86_64-x64-vc14-debug-dynamic:sip_transport_tcp.obj
 0001:00032950       pj_pool_zalloc             0000000140033950 f   pjsip-core-x86_64-x64-vc14-debug-dynamic:sip_transport_tcp.obj
 0001:00032980       pj_bzero                   0000000140033980 f   pjsip-core-x86_64-x64-vc14-debug-dynamic:sip_transport_tcp.obj
 0001:000329b0       pj_memcpy                  00000001400339b0 f   pjsip-core-x86_64-x64-vc14-debug-dynamic:sip_transport_tcp.obj
 0001:000329f0       pj_memmove                 00000001400339f0 f   pjsip-core-x86_64-x64-vc14-debug-dynamic:sip_transport_tcp.obj
 0001:00032a30       on_accept_complete         0000000140033a30 f   pjsip-core-x86_64-x64-vc14-debug-dynamic:sip_transport_tcp.obj
 0001:00032df0       lis_destroy                0000000140033df0 f   pjsip-core-x86_64-x64-vc14-debug-dynamic:sip_transport_tcp.obj
 0001:00032e60       lis_on_destroy             0000000140033e60 f   pjsip-core-x86_64-x64-vc14-debug-dynamic:sip_transport_tcp.obj
 0001:00032ef0       lis_create_transport       0000000140033ef0 f   pjsip-core-x86_64-x64-vc14-debug-dynamic:sip_transport_tcp.obj
 0001:00033460       tcp_create                 0000000140034460 f   pjsip-core-x86_64-x64-vc14-debug-dynamic:sip_transport_tcp.obj
 0001:00033bb0       tcp_perror                 0000000140034bb0 f   pjsip-core-x86_64-x64-vc14-debug-dynamic:sip_transport_tcp.obj
 0001:00033c00       sockaddr_to_host_port      0000000140034c00 f   pjsip-core-x86_64-x64-vc14-debug-dynamic:sip_transport_tcp.obj
 0001:00033c80       tcp_init_shutdown          0000000140034c80 f   pjsip-core-x86_64-x64-vc14-debug-dynamic:sip_transport_tcp.obj
 0001:00033d70       update_bound_addr          0000000140034d70 f   pjsip-core-x86_64-x64-vc14-debug-dynamic:sip_transport_tcp.obj
 0001:00033e00       update_factory_addr        0000000140034e00 f   pjsip-core-x86_64-x64-vc14-debug-dynamic:sip_transport_tcp.obj
 0001:00034030       update_transport_info      0000000140035030 f   pjsip-core-x86_64-x64-vc14-debug-dynamic:sip_transport_tcp.obj
 0001:000341d0       lis_close                  00000001400351d0 f   pjsip-core-x86_64-x64-vc14-debug-dynamic:sip_transport_tcp.obj
 0001:00034250       tcp_send_msg               0000000140035250 f   pjsip-core-x86_64-x64-vc14-debug-dynamic:sip_transport_tcp.obj
 0001:00034590       tcp_shutdown               0000000140035590 f   pjsip-core-x86_64-x64-vc14-debug-dynamic:sip_transport_tcp.obj
 0001:00034630       tcp_destroy_transport      0000000140035630 f   pjsip-core-x86_64-x64-vc14-debug-dynamic:sip_transport_tcp.obj
 0001:00034680       tcp_destroy                0000000140035680 f   pjsip-core-x86_64-x64-vc14-debug-dynamic:sip_transport_tcp.obj
 0001:00034890       on_data_read               0000000140035890 f   pjsip-core-x86_64-x64-vc14-debug-dynamic:sip_transport_tcp.obj
 0001:00034ac0       on_data_sent               0000000140035ac0 f   pjsip-core-x86_64-x64-vc14-debug-dynamic:sip_transport_tcp.obj
 0001:00034bd0       on_connect_complete        0000000140035bd0 f   pjsip-core-x86_64-x64-vc14-debug-dynamic:sip_transport_tcp.obj
 0001:00034f40       tcp_keep_alive_timer       0000000140035f40 f   pjsip-core-x86_64-x64-vc14-debug-dynamic:sip_transport_tcp.obj
 0001:000351a0       tcp_initial_timer          00000001400361a0 f   pjsip-core-x86_64-x64-vc14-debug-dynamic:sip_transport_tcp.obj
 0001:000351e0       tcp_on_destroy             00000001400361e0 f   pjsip-core-x86_64-x64-vc14-debug-dynamic:sip_transport_tcp.obj
 0001:00035370       tcp_flush_pending_tx       0000000140036370 f   pjsip-core-x86_64-x64-vc14-debug-dynamic:sip_transport_tcp.obj
 0001:000354e0       tcp_start_read             00000001400364e0 f   pjsip-core-x86_64-x64-vc14-debug-dynamic:sip_transport_tcp.obj
 0001:000364b0       pjsip_cfg                  00000001400374b0 f   pjsip-core-x86_64-x64-vc14-debug-dynamic:sip_transport_tcp.obj
 0001:000364c0       pjsip_msg_insert_first_hdr 00000001400374c0 f   pjsip-core-x86_64-x64-vc14-debug-dynamic:sip_transaction.obj
 0001:00037d00       pj_pool_zalloc             0000000140038d00 f   pjsip-core-x86_64-x64-vc14-debug-dynamic:sip_transaction.obj
 0001:00037d30       pj_bzero                   0000000140038d30 f   pjsip-core-x86_64-x64-vc14-debug-dynamic:sip_transaction.obj
 0001:00037d60       pj_memcpy                  0000000140038d60 f   pjsip-core-x86_64-x64-vc14-debug-dynamic:sip_transaction.obj
 0001:00037da0       mod_tsx_layer_load         0000000140038da0 f   pjsip-core-x86_64-x64-vc14-debug-dynamic:sip_transaction.obj
 0001:00037db0       mod_tsx_layer_start        0000000140038db0 f   pjsip-core-x86_64-x64-vc14-debug-dynamic:sip_transaction.obj
 0001:00037dc0       mod_tsx_layer_stop         0000000140038dc0 f   pjsip-core-x86_64-x64-vc14-debug-dynamic:sip_transaction.obj
 0001:00037eb0       mod_tsx_layer_unload       0000000140038eb0 f   pjsip-core-x86_64-x64-vc14-debug-dynamic:sip_transaction.obj
 0001:00037f20       mod_tsx_layer_on_rx_request 0000000140038f20 f   pjsip-core-x86_64-x64-vc14-debug-dynamic:sip_transaction.obj
 0001:00038000       mod_tsx_layer_on_rx_response 0000000140039000 f   pjsip-core-x86_64-x64-vc14-debug-dynamic:sip_transaction.obj
 0001:000380e0       tsx_on_state_null          00000001400390e0 f   pjsip-core-x86_64-x64-vc14-debug-dynamic:sip_transaction.obj
 0001:00038360       tsx_on_state_calling       0000000140039360 f   pjsip-core-x86_64-x64-vc14-debug-dynamic:sip_transaction.obj
 0001:00038630       tsx_on_state_trying        0000000140039630 f   pjsip-core-x86_64-x64-vc14-debug-dynamic:sip_transaction.obj
 0001:00038700       tsx_on_state_proceeding_uas 0000000140039700 f   pjsip-core-x86_64-x64-vc14-debug-dynamic:sip_transaction.obj
 0001:000390a0       tsx_on_state_proceeding_uac 000000014003a0a0 f   pjsip-core-x86_64-x64-vc14-debug-dynamic:sip_transaction.obj
 0001:000395e0       tsx_on_state_completed_uas 000000014003a5e0 f   pjsip-core-x86_64-x64-vc14-debug-dynamic:sip_transaction.obj
 0001:000398f0       tsx_on_state_completed_uac 000000014003a8f0 f   pjsip-core-x86_64-x64-vc14-debug-dynamic:sip_transaction.obj
 0001:00039a70       tsx_on_state_confirmed     000000014003aa70 f   pjsip-core-x86_64-x64-vc14-debug-dynamic:sip_transaction.obj
 0001:00039c20       tsx_on_state_terminated    000000014003ac20 f   pjsip-core-x86_64-x64-vc14-debug-dynamic:sip_transaction.obj
 0001:00039ca0       tsx_on_state_destroyed     000000014003aca0 f   pjsip-core-x86_64-x64-vc14-debug-dynamic:sip_transaction.obj
 0001:00039cc0       tsx_timer_callback         000000014003acc0 f   pjsip-core-x86_64-x64-vc14-debug-dynamic:sip_transaction.obj
 0001:00039f80       tsx_tp_state_callback      000000014003af80 f   pjsip-core-x86_64-x64-vc14-debug-dynamic:sip_transaction.obj
 0001:0003a070       tsx_set_state              000000014003b070 f   pjsip-core-x86_64-x64-vc14-debug-dynamic:sip_transaction.obj
 0001:0003a480       tsx_set_status_code        000000014003b480 f   pjsip-core-x86_64-x64-vc14-debug-dynamic:sip_transaction.obj
 0001:0003a500       tsx_create                 000000014003b500 f   pjsip-core-x86_64-x64-vc14-debug-dynamic:sip_transaction.obj
 0001:0003a740       tsx_on_destroy             000000014003b740 f   pjsip-core-x86_64-x64-vc14-debug-dynamic:sip_transaction.obj
 0001:0003a7b0       tsx_shutdown               000000014003b7b0 f   pjsip-core-x86_64-x64-vc14-debug-dynamic:sip_transaction.obj
 0001:0003a8f0       tsx_resched_retransmission 000000014003b8f0 f   pjsip-core-x86_64-x64-vc14-debug-dynamic:sip_transaction.obj
 0001:0003aaa0       tsx_retransmit             000000014003baa0 f   pjsip-core-x86_64-x64-vc14-debug-dynamic:sip_transaction.obj
 0001:0003ac20       tsx_send_msg               000000014003bc20 f   pjsip-core-x86_64-x64-vc14-debug-dynamic:sip_transaction.obj
 0001:0003b210       tsx_update_transport       000000014003c210 f   pjsip-core-x86_64-x64-vc14-debug-dynamic:sip_transaction.obj
 0001:0003b340       create_tsx_key_2543        000000014003c340 f   pjsip-core-x86_64-x64-vc14-debug-dynamic:sip_transaction.obj
 0001:0003b820       create_tsx_key_3261        000000014003c820 f   pjsip-core-x86_64-x64-vc14-debug-dynamic:sip_transaction.obj
 0001:0003b9f0       mod_tsx_layer_register_tsx 000000014003c9f0 f   pjsip-core-x86_64-x64-vc14-debug-dynamic:sip_transaction.obj
 0001:0003bb00       mod_tsx_layer_unregister_tsx 000000014003cb00 f   pjsip-core-x86_64-x64-vc14-debug-dynamic:sip_transaction.obj
 0001:0003bba0       find_tsx                   000000014003cba0 f   pjsip-core-x86_64-x64-vc14-debug-dynamic:sip_transaction.obj
 0001:0003bc60       tsx_layer_destroy          000000014003cc60 f   pjsip-core-x86_64-x64-vc14-debug-dynamic:sip_transaction.obj
 0001:0003bcd0       lock_timer                 000000014003ccd0 f   pjsip-core-x86_64-x64-vc14-debug-dynamic:sip_transaction.obj
 0001:0003bd00       unlock_timer               000000014003cd00 f   pjsip-core-x86_64-x64-vc14-debug-dynamic:sip_transaction.obj
 0001:0003bd30       tsx_schedule_timer         000000014003cd30 f   pjsip-core-x86_64-x64-vc14-debug-dynamic:sip_transaction.obj
 0001:0003bdd0       tsx_cancel_timer           000000014003cdd0 f   pjsip-core-x86_64-x64-vc14-debug-dynamic:sip_transaction.obj
 0001:0003be10       send_msg_callback          000000014003ce10 f   pjsip-core-x86_64-x64-vc14-debug-dynamic:sip_transaction.obj
 0001:0003c440       transport_callback         000000014003d440 f   pjsip-core-x86_64-x64-vc14-debug-dynamic:sip_transaction.obj
 0001:0003dda0       pjsip_cfg                  000000014003eda0 f   pjsip-core-x86_64-x64-vc14-debug-dynamic:sip_transaction.obj
 0001:0003e810       pj_list_empty              000000014003f810 f   pjsip-core-x86_64-x64-vc14-debug-dynamic:sip_ua_layer.obj
 0001:0003e850       pj_list_push_back          000000014003f850 f   pjsip-core-x86_64-x64-vc14-debug-dynamic:sip_ua_layer.obj
 0001:0003e8e0       pj_memcpy                  000000014003f8e0 f   pjsip-core-x86_64-x64-vc14-debug-dynamic:sip_ua_layer.obj
 0001:0003e920       mod_ua_load                000000014003f920 f   pjsip-core-x86_64-x64-vc14-debug-dynamic:sip_ua_layer.obj
 0001:0003ea10       mod_ua_unload              000000014003fa10 f   pjsip-core-x86_64-x64-vc14-debug-dynamic:sip_ua_layer.obj
 0001:0003ea60       mod_ua_on_rx_request       000000014003fa60 f   pjsip-core-x86_64-x64-vc14-debug-dynamic:sip_ua_layer.obj
 0001:0003ed40       mod_ua_on_rx_response      000000014003fd40 f   pjsip-core-x86_64-x64-vc14-debug-dynamic:sip_ua_layer.obj
 0001:0003f200       mod_ua_on_tsx_state        0000000140040200 f   pjsip-core-x86_64-x64-vc14-debug-dynamic:sip_ua_layer.obj
 0001:0003f250       alloc_dlgset_node          0000000140040250 f   pjsip-core-x86_64-x64-vc14-debug-dynamic:sip_ua_layer.obj
 0001:0003f2b0       find_dlg_set_for_msg       00000001400402b0 f   pjsip-core-x86_64-x64-vc14-debug-dynamic:sip_ua_layer.obj
 0001:0003f420       print_dialog               0000000140040420 f   pjsip-core-x86_64-x64-vc14-debug-dynamic:sip_ua_layer.obj
 0001:0003fb60       pj_list_init               0000000140040b60 f   pjsip-core-x86_64-x64-vc14-debug-dynamic:sip_ua_layer.obj
 0001:0003fb90       pj_list_empty              0000000140040b90 f   pjsip-core-x86_64-x64-vc14-debug-dynamic:sip_dialog.obj
 0001:0003fbd0       pj_list_push_back          0000000140040bd0 f   pjsip-core-x86_64-x64-vc14-debug-dynamic:sip_dialog.obj
 0001:0003fc00       pjsip_uri_get_scheme       0000000140040c00 f   pjsip-core-x86_64-x64-vc14-debug-dynamic:sip_dialog.obj
 0001:0003fc30       pjsip_uri_get_uri          0000000140040c30 f   pjsip-core-x86_64-x64-vc14-debug-dynamic:sip_dialog.obj
 0001:0003fc60       pjsip_uri_cmp              0000000140040c60 f   pjsip-core-x86_64-x64-vc14-debug-dynamic:sip_dialog.obj
 0001:0003fca0       pjsip_uri_print            0000000140040ca0 f   pjsip-core-x86_64-x64-vc14-debug-dynamic:sip_dialog.obj
 0001:0003fce0       pjsip_uri_clone            0000000140040ce0 f   pjsip-core-x86_64-x64-vc14-debug-dynamic:sip_dialog.obj
 0001:0003fd10       pjsip_msg_add_hdr          0000000140040d10 f   pjsip-core-x86_64-x64-vc14-debug-dynamic:sip_dialog.obj
 0001:0003fd40       pjsip_target_set_init      0000000140040d40 f   pjsip-core-x86_64-x64-vc14-debug-dynamic:sip_dialog.obj
 0001:00043b60       pj_bzero                   0000000140044b60 f   pjsip-core-x86_64-x64-vc14-debug-dynamic:sip_dialog.obj
 0001:00043b90       pj_memcpy                  0000000140044b90 f   pjsip-core-x86_64-x64-vc14-debug-dynamic:sip_dialog.obj
 0001:00043bd0       pj_pool_zalloc             0000000140044bd0 f   pjsip-core-x86_64-x64-vc14-debug-dynamic:sip_dialog.obj
 0001:00043c00       dlg_on_destroy             0000000140044c00 f   pjsip-core-x86_64-x64-vc14-debug-dynamic:sip_dialog.obj
 0001:00043c60       create_dialog              0000000140044c60 f   pjsip-core-x86_64-x64-vc14-debug-dynamic:sip_dialog.obj
 0001:00043e90       destroy_dialog             0000000140044e90 f   pjsip-core-x86_64-x64-vc14-debug-dynamic:sip_dialog.obj
 0001:00044850       unregister_and_destroy_dialog 0000000140045850 f   pjsip-core-x86_64-x64-vc14-debug-dynamic:sip_dialog.obj
 0001:00044960       dlg_create_request_throw   0000000140045960 f   pjsip-core-x86_64-x64-vc14-debug-dynamic:sip_dialog.obj
 0001:00044b50       send_ack_callback          0000000140045b50 f   pjsip-core-x86_64-x64-vc14-debug-dynamic:sip_dialog.obj
 0001:00044bf0       dlg_beautify_response      0000000140045bf0 f   pjsip-core-x86_64-x64-vc14-debug-dynamic:sip_dialog.obj
 0001:00044ef0       dlg_update_routeset        0000000140045ef0 f   pjsip-core-x86_64-x64-vc14-debug-dynamic:sip_dialog.obj
 0001:00046670       pj_list_init               0000000140047670 f   pjsip-core-x86_64-x64-vc14-debug-dynamic:sip_dialog.obj
 0001:000466a0       pjsip_uri_print            00000001400476a0 f   pjsip-core-x86_64-x64-vc14-debug-dynamic:sip_auth_client.obj
 0001:000466e0       pjsip_msg_add_hdr          00000001400476e0 f   pjsip-core-x86_64-x64-vc14-debug-dynamic:sip_auth_client.obj
 0001:00048180       pj_strlen                  0000000140049180 f   pjsip-core-x86_64-x64-vc14-debug-dynamic:sip_auth_client.obj
 0001:000481a0       pj_strchr                  00000001400491a0 f   pjsip-core-x86_64-x64-vc14-debug-dynamic:sip_auth_client.obj
 0001:000481f0       pj_memcpy                  00000001400491f0 f   pjsip-core-x86_64-x64-vc14-debug-dynamic:sip_auth_client.obj
 0001:00048230       pj_pool_zalloc             0000000140049230 f   pjsip-core-x86_64-x64-vc14-debug-dynamic:sip_auth_client.obj
 0001:00048260       pj_tolower                 0000000140049260 f   pjsip-core-x86_64-x64-vc14-debug-dynamic:sip_auth_client.obj
 0001:00048280       pj_val_to_hex_digit        0000000140049280 f   pjsip-core-x86_64-x64-vc14-debug-dynamic:sip_auth_client.obj
 0001:000482e0       dup_bin                    00000001400492e0 f   pjsip-core-x86_64-x64-vc14-debug-dynamic:sip_auth_client.obj
 0001:00048370       digest2str                 0000000140049370 f   pjsip-core-x86_64-x64-vc14-debug-dynamic:sip_auth_client.obj
 0001:000483d0       has_auth_qop               00000001400493d0 f   pjsip-core-x86_64-x64-vc14-debug-dynamic:sip_auth_client.obj
 0001:000484e0       respond_digest             00000001400494e0 f   pjsip-core-x86_64-x64-vc14-debug-dynamic:sip_auth_client.obj
 0001:00048a10       update_digest_session      0000000140049a10 f   pjsip-core-x86_64-x64-vc14-debug-dynamic:sip_auth_client.obj
 0001:00048c60       find_cached_auth           0000000140049c60 f   pjsip-core-x86_64-x64-vc14-debug-dynamic:sip_auth_client.obj
 0001:00048cd0       auth_find_cred             0000000140049cd0 f   pjsip-core-x86_64-x64-vc14-debug-dynamic:sip_auth_client.obj
 0001:00048de0       auth_respond               0000000140049de0 f   pjsip-core-x86_64-x64-vc14-debug-dynamic:sip_auth_client.obj
 0001:00049130       get_header_for_realm       000000014004a130 f   pjsip-core-x86_64-x64-vc14-debug-dynamic:sip_auth_client.obj
 0001:000491a0       recreate_cached_auth_pool  000000014004a1a0 f   pjsip-core-x86_64-x64-vc14-debug-dynamic:sip_auth_client.obj
 0001:000492a0       process_auth               000000014004a2a0 f   pjsip-core-x86_64-x64-vc14-debug-dynamic:sip_auth_client.obj
 0001:0004a230       pj_list_init               000000014004b230 f   pjsip-core-x86_64-x64-vc14-debug-dynamic:sip_auth_client.obj
 0001:0004a260       pj_cis_match               000000014004b260 f   pjsip-core-x86_64-x64-vc14-debug-dynamic:sip_parser.obj
 0001:0004a2b0       pj_scan_is_eof             000000014004b2b0 f   pjsip-core-x86_64-x64-vc14-debug-dynamic:sip_parser.obj
 0001:0004a2f0       pj_scan_get_col            000000014004b2f0 f   pjsip-core-x86_64-x64-vc14-debug-dynamic:sip_parser.obj
 0001:0004b400       pj_strchr                  000000014004c400 f   pjsip-core-x86_64-x64-vc14-debug-dynamic:sip_parser.obj
 0001:0004b450       pj_bzero                   000000014004c450 f   pjsip-core-x86_64-x64-vc14-debug-dynamic:sip_parser.obj
 0001:0004b480       pj_memcpy                  000000014004c480 f   pjsip-core-x86_64-x64-vc14-debug-dynamic:sip_parser.obj
 0001:0004b4c0       pj_memmove                 000000014004c4c0 f   pjsip-core-x86_64-x64-vc14-debug-dynamic:sip_parser.obj
 0001:0004b500       pj_memcmp                  000000014004c500 f   pjsip-core-x86_64-x64-vc14-debug-dynamic:sip_parser.obj
 0001:0004b540       pj_memchr                  000000014004c540 f   pjsip-core-x86_64-x64-vc14-debug-dynamic:sip_parser.obj
 0001:0004b570       pj_tolower                 000000014004c570 f   pjsip-core-x86_64-x64-vc14-debug-dynamic:sip_parser.obj
 0001:0004b590       int_parse_msg              000000014004c590 f   pjsip-core-x86_64-x64-vc14-debug-dynamic:sip_parser.obj
 0001:0004bb60       int_parse_param            000000014004cb60 f   pjsip-core-x86_64-x64-vc14-debug-dynamic:sip_parser.obj
 0001:0004bbb0       int_parse_uri_param        000000014004cbb0 f   pjsip-core-x86_64-x64-vc14-debug-dynamic:sip_parser.obj
 0001:0004bc00       int_parse_hparam           000000014004cc00 f   pjsip-core-x86_64-x64-vc14-debug-dynamic:sip_parser.obj
 0001:0004bce0       int_parse_req_line         000000014004cce0 f   pjsip-core-x86_64-x64-vc14-debug-dynamic:sip_parser.obj
 0001:0004bd60       int_is_next_user           000000014004cd60 f   pjsip-core-x86_64-x64-vc14-debug-dynamic:sip_parser.obj
 0001:0004bdb0       int_parse_status_line      000000014004cdb0 f   pjsip-core-x86_64-x64-vc14-debug-dynamic:sip_parser.obj
 0001:0004be70       int_parse_user_pass        000000014004ce70 f   pjsip-core-x86_64-x64-vc14-debug-dynamic:sip_parser.obj
 0001:0004bf30       int_parse_uri_host_port    000000014004cf30 f   pjsip-core-x86_64-x64-vc14-debug-dynamic:sip_parser.obj
 0001:0004bfc0       int_parse_uri_or_name_addr 000000014004cfc0 f   pjsip-core-x86_64-x64-vc14-debug-dynamic:sip_parser.obj
 0001:0004c110       int_parse_sip_url          000000014004d110 f   pjsip-core-x86_64-x64-vc14-debug-dynamic:sip_parser.obj
 0001:0004c5c0       int_parse_name_addr        000000014004d5c0 f   pjsip-core-x86_64-x64-vc14-debug-dynamic:sip_parser.obj
 0001:0004c750       int_parse_other_uri        000000014004d750 f   pjsip-core-x86_64-x64-vc14-debug-dynamic:sip_parser.obj
 0001:0004c820       parse_hdr_end              000000014004d820 f   pjsip-core-x86_64-x64-vc14-debug-dynamic:sip_parser.obj
 0001:0004c870       parse_hdr_accept           000000014004d870 f   pjsip-core-x86_64-x64-vc14-debug-dynamic:sip_parser.obj
 0001:0004c8b0       parse_hdr_allow            000000014004d8b0 f   pjsip-core-x86_64-x64-vc14-debug-dynamic:sip_parser.obj
 0001:0004c8f0       parse_hdr_call_id          000000014004d8f0 f   pjsip-core-x86_64-x64-vc14-debug-dynamic:sip_parser.obj
 0001:0004c970       parse_hdr_contact          000000014004d970 f   pjsip-core-x86_64-x64-vc14-debug-dynamic:sip_parser.obj
 0001:0004ca80       parse_hdr_content_len      000000014004da80 f   pjsip-core-x86_64-x64-vc14-debug-dynamic:sip_parser.obj
 0001:0004cb10       parse_hdr_content_type     000000014004db10 f   pjsip-core-x86_64-x64-vc14-debug-dynamic:sip_parser.obj
 0001:0004cc30       parse_hdr_cseq             000000014004dc30 f   pjsip-core-x86_64-x64-vc14-debug-dynamic:sip_parser.obj
 0001:0004cd10       parse_hdr_expires          000000014004dd10 f   pjsip-core-x86_64-x64-vc14-debug-dynamic:sip_parser.obj
 0001:0004cd50       parse_hdr_from             000000014004dd50 f   pjsip-core-x86_64-x64-vc14-debug-dynamic:sip_parser.obj
 0001:0004cdc0       parse_hdr_max_forwards     000000014004ddc0 f   pjsip-core-x86_64-x64-vc14-debug-dynamic:sip_parser.obj
 0001:0004ce30       parse_hdr_min_expires      000000014004de30 f   pjsip-core-x86_64-x64-vc14-debug-dynamic:sip_parser.obj
 0001:0004ce70       parse_hdr_rr               000000014004de70 f   pjsip-core-x86_64-x64-vc14-debug-dynamic:sip_parser.obj
 0001:0004cf60       parse_hdr_route            000000014004df60 f   pjsip-core-x86_64-x64-vc14-debug-dynamic:sip_parser.obj
 0001:0004d050       parse_hdr_require          000000014004e050 f   pjsip-core-x86_64-x64-vc14-debug-dynamic:sip_parser.obj
 0001:0004d140       parse_hdr_retry_after      000000014004e140 f   pjsip-core-x86_64-x64-vc14-debug-dynamic:sip_parser.obj
 0001:0004d2e0       parse_hdr_supported        000000014004e2e0 f   pjsip-core-x86_64-x64-vc14-debug-dynamic:sip_parser.obj
 0001:0004d3d0       parse_hdr_to               000000014004e3d0 f   pjsip-core-x86_64-x64-vc14-debug-dynamic:sip_parser.obj
 0001:0004d440       parse_hdr_unsupported      000000014004e440 f   pjsip-core-x86_64-x64-vc14-debug-dynamic:sip_parser.obj
 0001:0004d480       parse_hdr_via              000000014004e480 f   pjsip-core-x86_64-x64-vc14-debug-dynamic:sip_parser.obj
 0001:0004d650       parse_hdr_generic_string   000000014004e650 f   pjsip-core-x86_64-x64-vc14-debug-dynamic:sip_parser.obj
 0001:0004d690       pj_strtoul_mindigit        000000014004e690 f   pjsip-core-x86_64-x64-vc14-debug-dynamic:sip_parser.obj
 0001:0004d710       parser_get_and_unescape    000000014004e710 f   pjsip-core-x86_64-x64-vc14-debug-dynamic:sip_parser.obj
 0001:0004d770       on_syntax_error            000000014004e770 f   pjsip-core-x86_64-x64-vc14-debug-dynamic:sip_parser.obj
 0001:0004d790       on_str_parse_error         000000014004e790 f   pjsip-core-x86_64-x64-vc14-debug-dynamic:sip_parser.obj
 0001:0004d890       strtoi_validate            000000014004e890 f   pjsip-core-x86_64-x64-vc14-debug-dynamic:sip_parser.obj
 0001:0004d950       init_parser                000000014004e950 f   pjsip-core-x86_64-x64-vc14-debug-dynamic:sip_parser.obj
 0001:0004eb80       compare_handler            000000014004fb80 f   pjsip-core-x86_64-x64-vc14-debug-dynamic:sip_parser.obj
 0001:0004ebf0       int_register_parser        000000014004fbf0 f   pjsip-core-x86_64-x64-vc14-debug-dynamic:sip_parser.obj
 0001:0004ee40       find_handler_imp           000000014004fe40 f   pjsip-core-x86_64-x64-vc14-debug-dynamic:sip_parser.obj
 0001:0004ef60       find_handler               000000014004ff60 f   pjsip-core-x86_64-x64-vc14-debug-dynamic:sip_parser.obj
 0001:0004f040       find_uri_handler           0000000140050040 f   pjsip-core-x86_64-x64-vc14-debug-dynamic:sip_parser.obj
 0001:0004f100       parse_sip_version          0000000140050100 f   pjsip-core-x86_64-x64-vc14-debug-dynamic:sip_parser.obj
 0001:0004f1c0       is_next_sip_version        00000001400501c0 f   pjsip-core-x86_64-x64-vc14-debug-dynamic:sip_parser.obj
 0001:0004f250       parse_param_imp            0000000140050250 f   pjsip-core-x86_64-x64-vc14-debug-dynamic:sip_parser.obj
 0001:0004f380       int_parse_host             0000000140050380 f   pjsip-core-x86_64-x64-vc14-debug-dynamic:sip_parser.obj
 0001:0004f3f0       int_parse_uri              00000001400503f0 f   pjsip-core-x86_64-x64-vc14-debug-dynamic:sip_parser.obj
 0001:0004f480       parse_generic_array_hdr    0000000140050480 f   pjsip-core-x86_64-x64-vc14-debug-dynamic:sip_parser.obj
 0001:0004f5a0       parse_generic_string_hdr   00000001400505a0 f   pjsip-core-x86_64-x64-vc14-debug-dynamic:sip_parser.obj
 0001:0004f710       parse_generic_int_hdr      0000000140050710 f   pjsip-core-x86_64-x64-vc14-debug-dynamic:sip_parser.obj
 0001:0004f760       int_parse_contact_param    0000000140050760 f   pjsip-core-x86_64-x64-vc14-debug-dynamic:sip_parser.obj
 0001:0004fa70       parse_hdr_fromto           0000000140050a70 f   pjsip-core-x86_64-x64-vc14-debug-dynamic:sip_parser.obj
 0001:0004fbb0       int_parse_via_param        0000000140050bb0 f   pjsip-core-x86_64-x64-vc14-debug-dynamic:sip_parser.obj
 0001:0004fe40       parse_hdr_rr_route         0000000140050e40 f   pjsip-core-x86_64-x64-vc14-debug-dynamic:sip_parser.obj
 0001:00051620       pj_list_push_back          0000000140052620 f   pjsip-core-x86_64-x64-vc14-debug-dynamic:sip_parser.obj
 0001:00051650       pj_list_init               0000000140052650 f   pjsip-core-x86_64-x64-vc14-debug-dynamic:sip_multipart.obj
 0001:00051680       pj_list_empty              0000000140052680 f   pjsip-core-x86_64-x64-vc14-debug-dynamic:sip_multipart.obj
 0001:000516c0       pj_list_push_back          00000001400526c0 f   pjsip-core-x86_64-x64-vc14-debug-dynamic:sip_multipart.obj
 0001:00052580       pj_isspace                 0000000140053580 f   pjsip-core-x86_64-x64-vc14-debug-dynamic:sip_multipart.obj
 0001:000525a0       pj_pool_zalloc             00000001400535a0 f   pjsip-core-x86_64-x64-vc14-debug-dynamic:sip_multipart.obj
 0001:000525d0       pj_strset                  00000001400535d0 f   pjsip-core-x86_64-x64-vc14-debug-dynamic:sip_multipart.obj
 0001:00052610       pj_memset                  0000000140053610 f   pjsip-core-x86_64-x64-vc14-debug-dynamic:sip_multipart.obj
 0001:00052640       pj_memcpy                  0000000140053640 f   pjsip-core-x86_64-x64-vc14-debug-dynamic:sip_multipart.obj
 0001:00052680       multipart_print_body       0000000140053680 f   pjsip-core-x86_64-x64-vc14-debug-dynamic:sip_multipart.obj
 0001:00052d90       multipart_clone_data       0000000140053d90 f   pjsip-core-x86_64-x64-vc14-debug-dynamic:sip_multipart.obj
 0001:00052ed0       parse_multipart_part       0000000140053ed0 f   pjsip-core-x86_64-x64-vc14-debug-dynamic:sip_multipart.obj
 0001:00053a80       pjsip_cfg                  0000000140054a80 f   pjsip-core-x86_64-x64-vc14-debug-dynamic:sip_multipart.obj
 0001:00053a90       pj_list_init               0000000140054a90 f   pjsip-core-x86_64-x64-vc14-debug-dynamic:sip_uri.obj
 0001:00054020       pjsip_uri_get_scheme       0000000140055020 f   pjsip-core-x86_64-x64-vc14-debug-dynamic:sip_uri.obj
 0001:00054050       pjsip_uri_get_uri          0000000140055050 f   pjsip-core-x86_64-x64-vc14-debug-dynamic:sip_uri.obj
 0001:00054080       pjsip_uri_cmp              0000000140055080 f   pjsip-core-x86_64-x64-vc14-debug-dynamic:sip_uri.obj
 0001:000540c0       pjsip_uri_print            00000001400550c0 f   pjsip-core-x86_64-x64-vc14-debug-dynamic:sip_uri.obj
 0001:00054100       pjsip_uri_clone            0000000140055100 f   pjsip-core-x86_64-x64-vc14-debug-dynamic:sip_uri.obj
 0001:000544f0       pj_bzero                   00000001400554f0 f   pjsip-core-x86_64-x64-vc14-debug-dynamic:sip_uri.obj
 0001:00054520       pj_memcpy                  0000000140055520 f   pjsip-core-x86_64-x64-vc14-debug-dynamic:sip_uri.obj
 0001:00054560       pj_memchr                  0000000140055560 f   pjsip-core-x86_64-x64-vc14-debug-dynamic:sip_uri.obj
 0001:00054590       pj_pool_zalloc             0000000140055590 f   pjsip-core-x86_64-x64-vc14-debug-dynamic:sip_uri.obj
 0001:000545c0       pjsip_url_get_scheme       00000001400555c0 f   pjsip-core-x86_64-x64-vc14-debug-dynamic:sip_uri.obj
 0001:000545e0       pjsips_url_get_scheme      00000001400555e0 f   pjsip-core-x86_64-x64-vc14-debug-dynamic:sip_uri.obj
 0001:00054600       pjsip_name_addr_get_scheme 0000000140055600 f   pjsip-core-x86_64-x64-vc14-debug-dynamic:sip_uri.obj
 0001:00054650       pjsip_get_uri              0000000140055650 f   pjsip-core-x86_64-x64-vc14-debug-dynamic:sip_uri.obj
 0001:00054670       pjsip_name_addr_get_uri    0000000140055670 f   pjsip-core-x86_64-x64-vc14-debug-dynamic:sip_uri.obj
 0001:000546a0       pjsip_name_addr_clone      00000001400556a0 f   pjsip-core-x86_64-x64-vc14-debug-dynamic:sip_uri.obj
 0001:00054700       pjsip_name_addr_print      0000000140055700 f   pjsip-core-x86_64-x64-vc14-debug-dynamic:sip_uri.obj
 0001:000549e0       pjsip_name_addr_compare    00000001400559e0 f   pjsip-core-x86_64-x64-vc14-debug-dynamic:sip_uri.obj
 0001:00054ac0       pjsip_url_print            0000000140055ac0 f   pjsip-core-x86_64-x64-vc14-debug-dynamic:sip_uri.obj
 0001:00055a00       pjsip_url_compare          0000000140056a00 f   pjsip-core-x86_64-x64-vc14-debug-dynamic:sip_uri.obj
 0001:00055c80       pjsip_url_clone            0000000140056c80 f   pjsip-core-x86_64-x64-vc14-debug-dynamic:sip_uri.obj
 0001:00055d10       other_uri_get_scheme       0000000140056d10 f   pjsip-core-x86_64-x64-vc14-debug-dynamic:sip_uri.obj
 0001:00055d30       other_uri_get_uri          0000000140056d30 f   pjsip-core-x86_64-x64-vc14-debug-dynamic:sip_uri.obj
 0001:00055d50       other_uri_print            0000000140056d50 f   pjsip-core-x86_64-x64-vc14-debug-dynamic:sip_uri.obj
 0001:00055ec0       other_uri_cmp              0000000140056ec0 f   pjsip-core-x86_64-x64-vc14-debug-dynamic:sip_uri.obj
 0001:00055f50       other_uri_clone            0000000140056f50 f   pjsip-core-x86_64-x64-vc14-debug-dynamic:sip_uri.obj
 0001:00056910       pjsip_cfg                  0000000140057910 f   pjsip-core-x86_64-x64-vc14-debug-dynamic:sip_uri.obj
 0001:00057790       pj_pool_zalloc             0000000140058790 f   pjsip-core-x86_64-x64-vc14-debug-dynamic:sip_resolve.obj
 0001:000577c0       pj_bzero                   00000001400587c0 f   pjsip-core-x86_64-x64-vc14-debug-dynamic:sip_resolve.obj
 0001:000577f0       srv_resolver_cb            00000001400587f0 f   pjsip-core-x86_64-x64-vc14-debug-dynamic:sip_resolve.obj
 0001:00057ab0       dns_a_callback             0000000140058ab0 f   pjsip-core-x86_64-x64-vc14-debug-dynamic:sip_resolve.obj
 0001:00057d00       dns_aaaa_callback          0000000140058d00 f   pjsip-core-x86_64-x64-vc14-debug-dynamic:sip_resolve.obj
 0001:00057f70       get_ip_addr_ver            0000000140058f70 f   pjsip-core-x86_64-x64-vc14-debug-dynamic:sip_resolve.obj
 0001:00058910       pj_cis_match               0000000140059910 f   pjsip-core-x86_64-x64-vc14-debug-dynamic:sip_tel_uri.obj
 0001:00058960       pjsip_param_cfind          0000000140059960 f   pjsip-core-x86_64-x64-vc14-debug-dynamic:sip_tel_uri.obj
 0001:00058bb0       pj_pool_zalloc             0000000140059bb0 f   pjsip-core-x86_64-x64-vc14-debug-dynamic:sip_tel_uri.obj
 0001:00058be0       pj_memcpy                  0000000140059be0 f   pjsip-core-x86_64-x64-vc14-debug-dynamic:sip_tel_uri.obj
 0001:00058c20       pj_tolower                 0000000140059c20 f   pjsip-core-x86_64-x64-vc14-debug-dynamic:sip_tel_uri.obj
 0001:00058c40       tel_uri_get_scheme         0000000140059c40 f   pjsip-core-x86_64-x64-vc14-debug-dynamic:sip_tel_uri.obj
 0001:00058c60       tel_uri_get_uri            0000000140059c60 f   pjsip-core-x86_64-x64-vc14-debug-dynamic:sip_tel_uri.obj
 0001:00058c80       tel_uri_print              0000000140059c80 f   pjsip-core-x86_64-x64-vc14-debug-dynamic:sip_tel_uri.obj
 0001:00059140       tel_uri_cmp                000000014005a140 f   pjsip-core-x86_64-x64-vc14-debug-dynamic:sip_tel_uri.obj
 0001:000593e0       tel_uri_clone              000000014005a3e0 f   pjsip-core-x86_64-x64-vc14-debug-dynamic:sip_tel_uri.obj
 0001:000594c0       tel_uri_parse              000000014005a4c0 f   pjsip-core-x86_64-x64-vc14-debug-dynamic:sip_tel_uri.obj
 0001:0005a0e0       pj_list_init               000000014005b0e0 f   pjsip-core-x86_64-x64-vc14-debug-dynamic:sip_tel_uri.obj
 0001:0005a290       pj_pool_zalloc             000000014005b290 f   pjsip-core-x86_64-x64-vc14-debug-dynamic:sip_auth_msg.obj
 0001:0005a2c0       pj_memcpy                  000000014005b2c0 f   pjsip-core-x86_64-x64-vc14-debug-dynamic:sip_auth_msg.obj
 0001:0005a300       init_hdr                   000000014005b300 f   pjsip-core-x86_64-x64-vc14-debug-dynamic:sip_auth_msg.obj
 0001:0005a3f0       pjsip_authorization_hdr_clone 000000014005b3f0 f   pjsip-core-x86_64-x64-vc14-debug-dynamic:sip_auth_msg.obj
 0001:0005a690       pjsip_authorization_hdr_shallow_clone 000000014005b690 f   pjsip-core-x86_64-x64-vc14-debug-dynamic:sip_auth_msg.obj
 0001:0005a700       pjsip_authorization_hdr_print 000000014005b700 f   pjsip-core-x86_64-x64-vc14-debug-dynamic:sip_auth_msg.obj
 0001:0005a9a0       print_digest_credential    000000014005b9a0 f   pjsip-core-x86_64-x64-vc14-debug-dynamic:sip_auth_msg.obj
 0001:0005b620       print_pgp_credential       000000014005c620 f   pjsip-core-x86_64-x64-vc14-debug-dynamic:sip_auth_msg.obj
 0001:0005b640       print_oauth_credential     000000014005c640 f   pjsip-core-x86_64-x64-vc14-debug-dynamic:sip_auth_msg.obj
 0001:0005bd50       pjsip_www_authenticate_hdr_print 000000014005cd50 f   pjsip-core-x86_64-x64-vc14-debug-dynamic:sip_auth_msg.obj
 0001:0005bfa0       pjsip_www_authenticate_hdr_clone 000000014005cfa0 f   pjsip-core-x86_64-x64-vc14-debug-dynamic:sip_auth_msg.obj
 0001:0005c1c0       pjsip_www_authenticate_hdr_shallow_clone 000000014005d1c0 f   pjsip-core-x86_64-x64-vc14-debug-dynamic:sip_auth_msg.obj
 0001:0005c230       print_digest_challenge     000000014005d230 f   pjsip-core-x86_64-x64-vc14-debug-dynamic:sip_auth_msg.obj
 0001:0005cc70       print_pgp_challenge        000000014005dc70 f   pjsip-core-x86_64-x64-vc14-debug-dynamic:sip_auth_msg.obj
 0001:0005d770       pj_list_init               000000014005e770 f   pjsip-core-x86_64-x64-vc14-debug-dynamic:sip_auth_msg.obj
 0001:0005d910       pj_scan_is_eof             000000014005e910 f   pjsip-core-x86_64-x64-vc14-debug-dynamic:sip_auth_parser.obj
 0001:0005d950       parse_hdr_authorization    000000014005e950 f   pjsip-core-x86_64-x64-vc14-debug-dynamic:sip_auth_parser.obj
 0001:0005d9a0       parse_hdr_proxy_authorization 000000014005e9a0 f   pjsip-core-x86_64-x64-vc14-debug-dynamic:sip_auth_parser.obj
 0001:0005d9f0       parse_hdr_www_authenticate 000000014005e9f0 f   pjsip-core-x86_64-x64-vc14-debug-dynamic:sip_auth_parser.obj
 0001:0005da40       parse_hdr_proxy_authenticate 000000014005ea40 f   pjsip-core-x86_64-x64-vc14-debug-dynamic:sip_auth_parser.obj
 0001:0005da90       parse_digest_credential    000000014005ea90 f   pjsip-core-x86_64-x64-vc14-debug-dynamic:sip_auth_parser.obj
 0001:0005ddb0       parse_pgp_credential       000000014005edb0 f   pjsip-core-x86_64-x64-vc14-debug-dynamic:sip_auth_parser.obj
 0001:0005dde0       parse_digest_challenge     000000014005ede0 f   pjsip-core-x86_64-x64-vc14-debug-dynamic:sip_auth_parser.obj
 0001:0005e0c0       parse_pgp_challenge        000000014005f0c0 f   pjsip-core-x86_64-x64-vc14-debug-dynamic:sip_auth_parser.obj
 0001:0005e0f0       int_parse_hdr_authorization 000000014005f0f0 f   pjsip-core-x86_64-x64-vc14-debug-dynamic:sip_auth_parser.obj
 0001:0005e230       int_parse_hdr_authenticate 000000014005f230 f   pjsip-core-x86_64-x64-vc14-debug-dynamic:sip_auth_parser.obj
 0001:0005e650       pj_list_init               000000014005f650 f   pjsip-core-x86_64-x64-vc14-debug-dynamic:sip_auth_parser.obj
 0001:00060e14       $LN73                      0000000140061e14     pjmedia-x86_64-x64-vc14-debug-dynamic:sdp.obj
 0001:00060e40       $LN72                      0000000140061e40     pjmedia-x86_64-x64-vc14-debug-dynamic:sdp.obj
 0001:000615f0       pj_scan_get_col            00000001400625f0 f   pjmedia-x86_64-x64-vc14-debug-dynamic:sdp.obj
 0001:00061620       pj_strset                  0000000140062620 f   pjmedia-x86_64-x64-vc14-debug-dynamic:sdp.obj
 0001:00061660       pj_bzero                   0000000140062660 f   pjmedia-x86_64-x64-vc14-debug-dynamic:sdp.obj
 0001:00061690       pj_memcpy                  0000000140062690 f   pjmedia-x86_64-x64-vc14-debug-dynamic:sdp.obj
 0001:000616d0       pj_pool_zalloc             00000001400626d0 f   pjmedia-x86_64-x64-vc14-debug-dynamic:sdp.obj
 0001:00061700       pj_isdigit                 0000000140062700 f   pjmedia-x86_64-x64-vc14-debug-dynamic:sdp.obj
 0001:00061720       parse_version              0000000140062720 f   pjmedia-x86_64-x64-vc14-debug-dynamic:sdp.obj
 0001:00061790       parse_origin               0000000140062790 f   pjmedia-x86_64-x64-vc14-debug-dynamic:sdp.obj
 0001:000618e0       parse_time                 00000001400628e0 f   pjmedia-x86_64-x64-vc14-debug-dynamic:sdp.obj
 0001:000619b0       parse_generic_line         00000001400629b0 f   pjmedia-x86_64-x64-vc14-debug-dynamic:sdp.obj
 0001:00061a30       parse_connection_info      0000000140062a30 f   pjmedia-x86_64-x64-vc14-debug-dynamic:sdp.obj
 0001:00061ae0       parse_bandwidth_info       0000000140062ae0 f   pjmedia-x86_64-x64-vc14-debug-dynamic:sdp.obj
 0001:00061b70       parse_attr                 0000000140062b70 f   pjmedia-x86_64-x64-vc14-debug-dynamic:sdp.obj
 0001:00061ce0       parse_media                0000000140062ce0 f   pjmedia-x86_64-x64-vc14-debug-dynamic:sdp.obj
 0001:00061f00       on_scanner_error           0000000140062f00 f   pjmedia-x86_64-x64-vc14-debug-dynamic:sdp.obj
 0001:00061f20       init_sdp_parser            0000000140062f20 f   pjmedia-x86_64-x64-vc14-debug-dynamic:sdp.obj
 0001:00061fd0       print_connection_info      0000000140062fd0 f   pjmedia-x86_64-x64-vc14-debug-dynamic:sdp.obj
 0001:00062080       print_bandw                0000000140063080 f   pjmedia-x86_64-x64-vc14-debug-dynamic:sdp.obj
 0001:000621a0       print_attr                 00000001400631a0 f   pjmedia-x86_64-x64-vc14-debug-dynamic:sdp.obj
 0001:000622f0       print_media_desc           00000001400632f0 f   pjmedia-x86_64-x64-vc14-debug-dynamic:sdp.obj
 0001:000626b0       print_session              00000001400636b0 f   pjmedia-x86_64-x64-vc14-debug-dynamic:sdp.obj
 0001:00062cb0       apply_media_direction      0000000140063cb0 f   pjmedia-x86_64-x64-vc14-debug-dynamic:sdp.obj
 0001:00062f50       validate_sdp_conn          0000000140063f50 f   pjmedia-x86_64-x64-vc14-debug-dynamic:sdp.obj
 0001:00064260       pj_scan_is_eof             0000000140065260 f   pjmedia-x86_64-x64-vc14-debug-dynamic:sdp.obj
 0001:00065d50       pj_bzero                   0000000140066d50 f   pjmedia-x86_64-x64-vc14-debug-dynamic:sdp_neg.obj
 0001:00065d80       pj_memcpy                  0000000140066d80 f   pjmedia-x86_64-x64-vc14-debug-dynamic:sdp_neg.obj
 0001:00065dc0       pj_memmove                 0000000140066dc0 f   pjmedia-x86_64-x64-vc14-debug-dynamic:sdp_neg.obj
 0001:00065e00       pj_isdigit                 0000000140066e00 f   pjmedia-x86_64-x64-vc14-debug-dynamic:sdp_neg.obj
 0001:00065e20       custom_fmt_match           0000000140066e20 f   pjmedia-x86_64-x64-vc14-debug-dynamic:sdp_neg.obj
 0001:00065f10       sdp_media_clone_deactivate 0000000140066f10 f   pjmedia-x86_64-x64-vc14-debug-dynamic:sdp_neg.obj
 0001:00066080       str_swap                   0000000140067080 f   pjmedia-x86_64-x64-vc14-debug-dynamic:sdp_neg.obj
 0001:000660e0       remove_all_media_directions 00000001400670e0 f   pjmedia-x86_64-x64-vc14-debug-dynamic:sdp_neg.obj
 0001:00066140       update_media_direction     0000000140067140 f   pjmedia-x86_64-x64-vc14-debug-dynamic:sdp_neg.obj
 0001:00066330       process_m_answer           0000000140067330 f   pjmedia-x86_64-x64-vc14-debug-dynamic:sdp_neg.obj
 0001:00066a60       process_answer             0000000140067a60 f   pjmedia-x86_64-x64-vc14-debug-dynamic:sdp_neg.obj
 0001:00066ce0       rewrite_pt                 0000000140067ce0 f   pjmedia-x86_64-x64-vc14-debug-dynamic:sdp_neg.obj
 0001:00066e10       apply_answer_symmetric_pt  0000000140067e10 f   pjmedia-x86_64-x64-vc14-debug-dynamic:sdp_neg.obj
 0001:000670a0       match_offer                00000001400680a0 f   pjmedia-x86_64-x64-vc14-debug-dynamic:sdp_neg.obj
 0001:00067e20       create_answer              0000000140068e20 f   pjmedia-x86_64-x64-vc14-debug-dynamic:sdp_neg.obj
 0001:00069120       pj_pool_zalloc             000000014006a120 f   pjmedia-x86_64-x64-vc14-debug-dynamic:sdp_neg.obj
 0001:000694c0       _getopt_internal           000000014006a4c0 f   pjlib-util-x86_64-x64-vc14-debug-dynamic:getopt.obj
 0001:0006a220       my_index                   000000014006b220 f   pjlib-util-x86_64-x64-vc14-debug-dynamic:getopt.obj
 0001:0006a270       exchange                   000000014006b270 f   pjlib-util-x86_64-x64-vc14-debug-dynamic:getopt.obj
 0001:0006a480       _getopt_initialize         000000014006b480 f   pjlib-util-x86_64-x64-vc14-debug-dynamic:getopt.obj
 0001:0006c2b0       pj_isxdigit                000000014006d2b0 f   pjlib-util-x86_64-x64-vc14-debug-dynamic:scanner.obj
 0001:0006c2d0       pj_hex_digit_to_val        000000014006d2d0 f   pjlib-util-x86_64-x64-vc14-debug-dynamic:scanner.obj
 0001:0006c320       pj_strset                  000000014006d320 f   pjlib-util-x86_64-x64-vc14-debug-dynamic:scanner.obj
 0001:0006c360       pj_strset3                 000000014006d360 f   pjlib-util-x86_64-x64-vc14-debug-dynamic:scanner.obj
 0001:0006c3b0       pj_bzero                   000000014006d3b0 f   pjlib-util-x86_64-x64-vc14-debug-dynamic:scanner.obj
 0001:0006c3e0       pj_memmove                 000000014006d3e0 f   pjlib-util-x86_64-x64-vc14-debug-dynamic:scanner.obj
 0001:0006c420       pj_scan_syntax_err         000000014006d420 f   pjlib-util-x86_64-x64-vc14-debug-dynamic:scanner.obj
 0001:0006caf0       pj_cis_match               000000014006daf0 f   pjlib-util-x86_64-x64-vc14-debug-dynamic:scanner.obj
 0001:0006d010       pj_isxdigit                000000014006e010 f   pjlib-util-x86_64-x64-vc14-debug-dynamic:string.obj
 0001:0006d030       pj_val_to_hex_digit        000000014006e030 f   pjlib-util-x86_64-x64-vc14-debug-dynamic:string.obj
 0001:0006d090       pj_hex_digit_to_val        000000014006e090 f   pjlib-util-x86_64-x64-vc14-debug-dynamic:string.obj
 0001:0006d0e0       pj_strchr                  000000014006e0e0 f   pjlib-util-x86_64-x64-vc14-debug-dynamic:string.obj
 0001:0006d290       pj_cis_match               000000014006e290 f   pjlib-util-x86_64-x64-vc14-debug-dynamic:string.obj
 0001:0006f850       pj_tolower                 0000000140070850 f   pjlib-util-x86_64-x64-vc14-debug-dynamic:resolver.obj
 0001:0006f870       pj_list_init               0000000140070870 f   pjlib-util-x86_64-x64-vc14-debug-dynamic:resolver.obj
 0001:0006f8a0       pj_list_empty              00000001400708a0 f   pjlib-util-x86_64-x64-vc14-debug-dynamic:resolver.obj
 0001:0006f8e0       pj_list_push_back          00000001400708e0 f   pjlib-util-x86_64-x64-vc14-debug-dynamic:resolver.obj
 0001:0006f910       pj_pool_zalloc             0000000140070910 f   pjlib-util-x86_64-x64-vc14-debug-dynamic:resolver.obj
 0001:0006f940       pj_bzero                   0000000140070940 f   pjlib-util-x86_64-x64-vc14-debug-dynamic:resolver.obj
 0001:0006f970       pj_memcpy                  0000000140070970 f   pjlib-util-x86_64-x64-vc14-debug-dynamic:resolver.obj
 0001:0006f9b0       on_read_complete           00000001400709b0 f   pjlib-util-x86_64-x64-vc14-debug-dynamic:resolver.obj
 0001:00070080       on_timeout                 0000000140071080 f   pjlib-util-x86_64-x64-vc14-debug-dynamic:resolver.obj
 0001:00070330       select_nameservers         0000000140071330 f   pjlib-util-x86_64-x64-vc14-debug-dynamic:resolver.obj
 0001:00070630       dns_resolver_on_destroy    0000000140071630 f   pjlib-util-x86_64-x64-vc14-debug-dynamic:resolver.obj
 0001:00070660       close_sock                 0000000140071660 f   pjlib-util-x86_64-x64-vc14-debug-dynamic:resolver.obj
 0001:000706f0       init_sock                  00000001400716f0 f   pjlib-util-x86_64-x64-vc14-debug-dynamic:resolver.obj
 0001:000708f0       alloc_qnode                00000001400718f0 f   pjlib-util-x86_64-x64-vc14-debug-dynamic:resolver.obj
 0001:000709e0       transmit_query             00000001400719e0 f   pjlib-util-x86_64-x64-vc14-debug-dynamic:resolver.obj
 0001:00070f80       init_res_key               0000000140071f80 f   pjlib-util-x86_64-x64-vc14-debug-dynamic:resolver.obj
 0001:00071050       alloc_entry                0000000140072050 f   pjlib-util-x86_64-x64-vc14-debug-dynamic:resolver.obj
 0001:000710d0       reset_entry                00000001400720d0 f   pjlib-util-x86_64-x64-vc14-debug-dynamic:resolver.obj
 0001:00071160       free_entry                 0000000140072160 f   pjlib-util-x86_64-x64-vc14-debug-dynamic:resolver.obj
 0001:00071190       set_nameserver_state       0000000140072190 f   pjlib-util-x86_64-x64-vc14-debug-dynamic:resolver.obj
 0001:00071380       report_nameserver_status   0000000140072380 f   pjlib-util-x86_64-x64-vc14-debug-dynamic:resolver.obj
 0001:00071510       update_res_cache           0000000140072510 f   pjlib-util-x86_64-x64-vc14-debug-dynamic:resolver.obj
 0001:00072de0       pj_bzero                   0000000140073de0 f   pjlib-util-x86_64-x64-vc14-debug-dynamic:md5.obj
 0001:00072e10       pj_memcpy                  0000000140073e10 f   pjlib-util-x86_64-x64-vc14-debug-dynamic:md5.obj
 0001:00072e50       MD5Transform               0000000140073e50 f   pjlib-util-x86_64-x64-vc14-debug-dynamic:md5.obj
 0001:000759dc       $LN15                      00000001400769dc     pjlib-util-x86_64-x64-vc14-debug-dynamic:dns.obj
 0001:00075a04       $LN14                      0000000140076a04     pjlib-util-x86_64-x64-vc14-debug-dynamic:dns.obj
 0001:00075c80       pj_bzero                   0000000140076c80 f   pjlib-util-x86_64-x64-vc14-debug-dynamic:dns.obj
 0001:00075cb0       pj_memcpy                  0000000140076cb0 f   pjlib-util-x86_64-x64-vc14-debug-dynamic:dns.obj
 0001:00075cf0       write16                    0000000140076cf0 f   pjlib-util-x86_64-x64-vc14-debug-dynamic:dns.obj
 0001:00075d40       get_name_len               0000000140076d40 f   pjlib-util-x86_64-x64-vc14-debug-dynamic:dns.obj
 0001:00075f90       get_name                   0000000140076f90 f   pjlib-util-x86_64-x64-vc14-debug-dynamic:dns.obj
 0001:000761b0       parse_query                00000001400771b0 f   pjlib-util-x86_64-x64-vc14-debug-dynamic:dns.obj
 0001:00076340       parse_rr                   0000000140077340 f   pjlib-util-x86_64-x64-vc14-debug-dynamic:dns.obj
 0001:00076940       apply_name_table           0000000140077940 f   pjlib-util-x86_64-x64-vc14-debug-dynamic:dns.obj
 0001:00076a60       copy_query                 0000000140077a60 f   pjlib-util-x86_64-x64-vc14-debug-dynamic:dns.obj
 0001:00076ac0       copy_rr                    0000000140077ac0 f   pjlib-util-x86_64-x64-vc14-debug-dynamic:dns.obj
 0001:00077480       pj_pool_zalloc             0000000140078480 f   pjlib-util-x86_64-x64-vc14-debug-dynamic:dns.obj
 0001:00077980       pj_bzero                   0000000140078980 f   pjlib-util-x86_64-x64-vc14-debug-dynamic:srv_resolver.obj
 0001:000779b0       pj_memcpy                  00000001400789b0 f   pjlib-util-x86_64-x64-vc14-debug-dynamic:srv_resolver.obj
 0001:000779f0       dns_callback               00000001400789f0 f   pjlib-util-x86_64-x64-vc14-debug-dynamic:srv_resolver.obj
 0001:00078790       build_server_entries       0000000140079790 f   pjlib-util-x86_64-x64-vc14-debug-dynamic:srv_resolver.obj
 0001:00079740       resolve_hostnames          000000014007a740 f   pjlib-util-x86_64-x64-vc14-debug-dynamic:srv_resolver.obj
 0001:0007a2a0       pj_pool_zalloc             000000014007b2a0 f   pjlib-util-x86_64-x64-vc14-debug-dynamic:srv_resolver.obj
 0001:0007cb60       pj_strlen                  000000014007db60 f   pjlib-x86_64-x64-vc14-debug-dynamic:os_core_win32.obj
 0001:0007cb80       pj_bzero                   000000014007db80 f   pjlib-x86_64-x64-vc14-debug-dynamic:os_core_win32.obj
 0001:0007cbb0       init_mutex                 000000014007dbb0 f   pjlib-x86_64-x64-vc14-debug-dynamic:os_core_win32.obj
 0001:0007cc90       thread_main                000000014007dc90 f   pjlib-x86_64-x64-vc14-debug-dynamic:os_core_win32.obj
 0001:0007cd70       pj_sem_wait_for            000000014007dd70 f   pjlib-x86_64-x64-vc14-debug-dynamic:os_core_win32.obj
 0001:0007ce80       pj_event_wait_for          000000014007de80 f   pjlib-x86_64-x64-vc14-debug-dynamic:os_core_win32.obj
 0001:0007cf90       pj_color_to_os_attr        000000014007df90 f   pjlib-x86_64-x64-vc14-debug-dynamic:os_core_win32.obj
 0001:0007d010       os_attr_to_pj_color        000000014007e010 f   pjlib-x86_64-x64-vc14-debug-dynamic:os_core_win32.obj
 0001:0007e360       pj_bzero                   000000014007f360 f   pjlib-x86_64-x64-vc14-debug-dynamic:errno.obj
 0001:0007e390       pj_memcpy                  000000014007f390 f   pjlib-x86_64-x64-vc14-debug-dynamic:errno.obj
 0001:0007e3d0       pjlib_error                000000014007f3d0 f   pjlib-x86_64-x64-vc14-debug-dynamic:errno.obj
 0001:0007e4e0       invoke_log                 000000014007f4e0 f   pjlib-x86_64-x64-vc14-debug-dynamic:errno.obj
 0001:0007e530       pj_perror_imp              000000014007f530 f   pjlib-x86_64-x64-vc14-debug-dynamic:errno.obj
 0001:0007e890       pj_list_empty              000000014007f890 f   pjlib-x86_64-x64-vc14-debug-dynamic:list.obj
 0001:0007ec30       pj_link_node               000000014007fc30 f   pjlib-x86_64-x64-vc14-debug-dynamic:list.obj
 0001:0007ed50       pj_list_init               000000014007fd50 f   pjlib-x86_64-x64-vc14-debug-dynamic:list.obj
 0001:000809f0       pj_isdigit                 00000001400819f0 f   pjlib-x86_64-x64-vc14-debug-dynamic:sock_common.obj
 0001:00080a10       pj_strchr                  0000000140081a10 f   pjlib-x86_64-x64-vc14-debug-dynamic:sock_common.obj
 0001:00080a60       pj_bzero                   0000000140081a60 f   pjlib-x86_64-x64-vc14-debug-dynamic:sock_common.obj
 0001:00080a90       pj_memcpy                  0000000140081a90 f   pjlib-x86_64-x64-vc14-debug-dynamic:sock_common.obj
 0001:00080ad0       pj_memcmp                  0000000140081ad0 f   pjlib-x86_64-x64-vc14-debug-dynamic:sock_common.obj
 0001:00082ca0       pj_bzero                   0000000140083ca0 f   pjlib-x86_64-x64-vc14-debug-dynamic:pool.obj
 0001:00082cd0       pj_pool_create_block       0000000140083cd0 f   pjlib-x86_64-x64-vc14-debug-dynamic:pool.obj
 0001:00082e00       reset_pool                 0000000140083e00 f   pjlib-x86_64-x64-vc14-debug-dynamic:pool.obj
 0001:000831b0       pj_list_init               00000001400841b0 f   pjlib-x86_64-x64-vc14-debug-dynamic:pool.obj
 0001:000831e0       pj_list_empty              00000001400841e0 f   pjlib-x86_64-x64-vc14-debug-dynamic:pool_caching.obj
 0001:000834e0       pj_bzero                   00000001400844e0 f   pjlib-x86_64-x64-vc14-debug-dynamic:pool_caching.obj
 0001:00083510       pj_memcpy                  0000000140084510 f   pjlib-x86_64-x64-vc14-debug-dynamic:pool_caching.obj
 0001:00083550       cpool_create_pool          0000000140084550 f   pjlib-x86_64-x64-vc14-debug-dynamic:pool_caching.obj
 0001:000837c0       cpool_release_pool         00000001400847c0 f   pjlib-x86_64-x64-vc14-debug-dynamic:pool_caching.obj
 0001:00083990       cpool_dump_status          0000000140084990 f   pjlib-x86_64-x64-vc14-debug-dynamic:pool_caching.obj
 0001:00083bc0       cpool_on_block_alloc       0000000140084bc0 f   pjlib-x86_64-x64-vc14-debug-dynamic:pool_caching.obj
 0001:00083c20       cpool_on_block_free        0000000140084c20 f   pjlib-x86_64-x64-vc14-debug-dynamic:pool_caching.obj
 0001:00083f00       pj_list_init               0000000140084f00 f   pjlib-x86_64-x64-vc14-debug-dynamic:pool_caching.obj
 0001:00085f30       pj_memcpy                  0000000140086f30 f   pjlib-x86_64-x64-vc14-debug-dynamic:string.obj
 0001:00085f70       pj_memcmp                  0000000140086f70 f   pjlib-x86_64-x64-vc14-debug-dynamic:string.obj
 0001:00085fb0       pj_memchr                  0000000140086fb0 f   pjlib-x86_64-x64-vc14-debug-dynamic:string.obj
 0001:00085fe0       pj_isdigit                 0000000140086fe0 f   pjlib-x86_64-x64-vc14-debug-dynamic:string.obj
 0001:00086000       pj_isspace                 0000000140087000 f   pjlib-x86_64-x64-vc14-debug-dynamic:string.obj
 0001:00086020       pj_isxdigit                0000000140087020 f   pjlib-x86_64-x64-vc14-debug-dynamic:string.obj
 0001:00086040       pj_val_to_hex_digit        0000000140087040 f   pjlib-x86_64-x64-vc14-debug-dynamic:string.obj
 0001:000860a0       pj_hex_digit_to_val        00000001400870a0 f   pjlib-x86_64-x64-vc14-debug-dynamic:string.obj
 0001:00086b50       pj_memmove                 0000000140087b50 f   pjlib-x86_64-x64-vc14-debug-dynamic:array.obj
 0001:0008761c       $LN15                      000000014008861c     pjlib-x86_64-x64-vc14-debug-dynamic:log.obj
 0001:00087640       $LN14                      0000000140088640     pjlib-x86_64-x64-vc14-debug-dynamic:log.obj
 0001:00087710       $LN13                      0000000140088710     pjlib-x86_64-x64-vc14-debug-dynamic:log.obj
 0001:00087950       pj_memset                  0000000140088950 f   pjlib-x86_64-x64-vc14-debug-dynamic:log.obj
 0001:00087980       logging_shutdown           0000000140088980 f   pjlib-x86_64-x64-vc14-debug-dynamic:log.obj
 0001:000879d0       log_set_indent             00000001400889d0 f   pjlib-x86_64-x64-vc14-debug-dynamic:log.obj
 0001:00087a10       log_get_raw_indent         0000000140088a10 f   pjlib-x86_64-x64-vc14-debug-dynamic:log.obj
 0001:00087a30       log_get_indent             0000000140088a30 f   pjlib-x86_64-x64-vc14-debug-dynamic:log.obj
 0001:00087a70       suspend_logging            0000000140088a70 f   pjlib-x86_64-x64-vc14-debug-dynamic:log.obj
 0001:00087ac0       resume_logging             0000000140088ac0 f   pjlib-x86_64-x64-vc14-debug-dynamic:log.obj
 0001:00087b10       is_logging_suspended       0000000140088b10 f   pjlib-x86_64-x64-vc14-debug-dynamic:log.obj
 0001:00089590       pj_bzero                   000000014008a590 f   pjlib-x86_64-x64-vc14-debug-dynamic:sock_bsd.obj
 0001:000895c0       pj_memcpy                  000000014008a5c0 f   pjlib-x86_64-x64-vc14-debug-dynamic:sock_bsd.obj
 0001:0008a650       pj_list_push_back          000000014008b650 f   pjlib-x86_64-x64-vc14-debug-dynamic:lock.obj
 0001:0008a680       pj_pool_zalloc             000000014008b680 f   pjlib-x86_64-x64-vc14-debug-dynamic:lock.obj
 0001:0008a6b0       pj_bzero                   000000014008b6b0 f   pjlib-x86_64-x64-vc14-debug-dynamic:lock.obj
 0001:0008a6e0       pj_memcpy                  000000014008b6e0 f   pjlib-x86_64-x64-vc14-debug-dynamic:lock.obj
 0001:0008a720       create_mutex_lock          000000014008b720 f   pjlib-x86_64-x64-vc14-debug-dynamic:lock.obj
 0001:0008a810       null_op                    000000014008b810 f   pjlib-x86_64-x64-vc14-debug-dynamic:lock.obj
 0001:0008a820       grp_lock_set_owner_thread  000000014008b820 f   pjlib-x86_64-x64-vc14-debug-dynamic:lock.obj
 0001:0008a8a0       grp_lock_unset_owner_thread 000000014008b8a0 f   pjlib-x86_64-x64-vc14-debug-dynamic:lock.obj
 0001:0008a950       grp_lock_acquire           000000014008b950 f   pjlib-x86_64-x64-vc14-debug-dynamic:lock.obj
 0001:0008a9f0       grp_lock_tryacquire        000000014008b9f0 f   pjlib-x86_64-x64-vc14-debug-dynamic:lock.obj
 0001:0008aae0       grp_lock_release           000000014008bae0 f   pjlib-x86_64-x64-vc14-debug-dynamic:lock.obj
 0001:0008ab50       grp_lock_add_handler       000000014008bb50 f   pjlib-x86_64-x64-vc14-debug-dynamic:lock.obj
 0001:0008ac00       grp_lock_destroy           000000014008bc00 f   pjlib-x86_64-x64-vc14-debug-dynamic:lock.obj
 0001:0008ad40       grp_lock_add_ref           000000014008bd40 f   pjlib-x86_64-x64-vc14-debug-dynamic:lock.obj
 0001:0008ad70       grp_lock_dec_ref           000000014008bd70 f   pjlib-x86_64-x64-vc14-debug-dynamic:lock.obj
 0001:0008b260       pj_list_init               000000014008c260 f   pjlib-x86_64-x64-vc14-debug-dynamic:lock.obj
 0001:0008b300       platform_rand              000000014008c300 f   pjlib-x86_64-x64-vc14-debug-dynamic:rand.obj
 0001:0008c080       pj_bzero                   000000014008d080 f   pjlib-x86_64-x64-vc14-debug-dynamic:timer.obj
 0001:0008c0b0       pj_memcpy                  000000014008d0b0 f   pjlib-x86_64-x64-vc14-debug-dynamic:timer.obj
 0001:0008c0f0       lock_timer_heap            000000014008d0f0 f   pjlib-x86_64-x64-vc14-debug-dynamic:timer.obj
 0001:0008c120       unlock_timer_heap          000000014008d120 f   pjlib-x86_64-x64-vc14-debug-dynamic:timer.obj
 0001:0008c150       copy_node                  000000014008d150 f   pjlib-x86_64-x64-vc14-debug-dynamic:timer.obj
 0001:0008c1b0       pop_freelist               000000014008d1b0 f   pjlib-x86_64-x64-vc14-debug-dynamic:timer.obj
 0001:0008c210       push_freelist              000000014008d210 f   pjlib-x86_64-x64-vc14-debug-dynamic:timer.obj
 0001:0008c260       reheap_down                000000014008d260 f   pjlib-x86_64-x64-vc14-debug-dynamic:timer.obj
 0001:0008c4b0       reheap_up                  000000014008d4b0 f   pjlib-x86_64-x64-vc14-debug-dynamic:timer.obj
 0001:0008c600       remove_node                000000014008d600 f   pjlib-x86_64-x64-vc14-debug-dynamic:timer.obj
 0001:0008c830       grow_heap                  000000014008d830 f   pjlib-x86_64-x64-vc14-debug-dynamic:timer.obj
 0001:0008ca80       insert_node                000000014008da80 f   pjlib-x86_64-x64-vc14-debug-dynamic:timer.obj
 0001:0008cba0       schedule_entry             000000014008dba0 f   pjlib-x86_64-x64-vc14-debug-dynamic:timer.obj
 0001:0008cc10       cancel                     000000014008dc10 f   pjlib-x86_64-x64-vc14-debug-dynamic:timer.obj
 0001:0008cd50       schedule_w_grp_lock_dbg    000000014008dd50 f   pjlib-x86_64-x64-vc14-debug-dynamic:timer.obj
 0001:0008cf60       cancel_timer               000000014008df60 f   pjlib-x86_64-x64-vc14-debug-dynamic:timer.obj
 0001:0008d740       pj_pool_zalloc             000000014008e740 f   pjlib-x86_64-x64-vc14-debug-dynamic:timer.obj
 0001:0008da40       pj_bzero                   000000014008ea40 f   pjlib-x86_64-x64-vc14-debug-dynamic:os_time_win32.obj
 0001:0008da70       get_base_time              000000014008ea70 f   pjlib-x86_64-x64-vc14-debug-dynamic:os_time_win32.obj
 0001:0008fe60       pj_list_empty              0000000140090e60 f   pjlib-x86_64-x64-vc14-debug-dynamic:ioqueue_select.obj
 0001:0008fea0       pj_list_push_back          0000000140090ea0 f   pjlib-x86_64-x64-vc14-debug-dynamic:ioqueue_select.obj
 0001:0008fed0       pj_bzero                   0000000140090ed0 f   pjlib-x86_64-x64-vc14-debug-dynamic:ioqueue_select.obj
 0001:0008ff00       pj_memcpy                  0000000140090f00 f   pjlib-x86_64-x64-vc14-debug-dynamic:ioqueue_select.obj
 0001:0008ff40       ioqueue_add_to_set         0000000140090f40 f   pjlib-x86_64-x64-vc14-debug-dynamic:ioqueue_select.obj
 0001:00090010       ioqueue_remove_from_set    0000000140091010 f   pjlib-x86_64-x64-vc14-debug-dynamic:ioqueue_select.obj
 0001:000900e0       ioqueue_init               00000001400910e0 f   pjlib-x86_64-x64-vc14-debug-dynamic:ioqueue_select.obj
 0001:00090110       ioqueue_destroy            0000000140091110 f   pjlib-x86_64-x64-vc14-debug-dynamic:ioqueue_select.obj
 0001:00090160       ioqueue_init_key           0000000140091160 f   pjlib-x86_64-x64-vc14-debug-dynamic:ioqueue_select.obj
 0001:00090300       key_has_pending_write      0000000140091300 f   pjlib-x86_64-x64-vc14-debug-dynamic:ioqueue_select.obj
 0001:00090350       key_has_pending_read       0000000140091350 f   pjlib-x86_64-x64-vc14-debug-dynamic:ioqueue_select.obj
 0001:00090390       key_has_pending_accept     0000000140091390 f   pjlib-x86_64-x64-vc14-debug-dynamic:ioqueue_select.obj
 0001:000903e0       key_has_pending_connect    00000001400913e0 f   pjlib-x86_64-x64-vc14-debug-dynamic:ioqueue_select.obj
 0001:00090e10       scan_closing_keys          0000000140091e10 f   pjlib-x86_64-x64-vc14-debug-dynamic:ioqueue_select.obj
 0001:00090f20       rescan_fdset               0000000140091f20 f   pjlib-x86_64-x64-vc14-debug-dynamic:ioqueue_select.obj
 0001:00090f40       increment_counter          0000000140091f40 f   pjlib-x86_64-x64-vc14-debug-dynamic:ioqueue_select.obj
 0001:00090fa0       decrement_counter          0000000140091fa0 f   pjlib-x86_64-x64-vc14-debug-dynamic:ioqueue_select.obj
 0001:00091e00       pj_list_init               0000000140092e00 f   pjlib-x86_64-x64-vc14-debug-dynamic:ioqueue_select.obj
 0001:00092170       exception_cleanup          0000000140093170 f   pjlib-x86_64-x64-vc14-debug-dynamic:except.obj
 0001:00092a70       pj_memcpy                  0000000140093a70 f   pjlib-x86_64-x64-vc14-debug-dynamic:hash.obj
 0001:00092ab0       pj_memcmp                  0000000140093ab0 f   pjlib-x86_64-x64-vc14-debug-dynamic:hash.obj
 0001:00092af0       pj_tolower                 0000000140093af0 f   pjlib-x86_64-x64-vc14-debug-dynamic:hash.obj
 0001:00092b10       find_entry                 0000000140093b10 f   pjlib-x86_64-x64-vc14-debug-dynamic:hash.obj
 0001:00092ee0       hash_set                   0000000140093ee0 f   pjlib-x86_64-x64-vc14-debug-dynamic:hash.obj
 0001:000933b0       pj_memcpy                  00000001400943b0 f   pjlib-x86_64-x64-vc14-debug-dynamic:os_error_win32.obj
 0001:000937a0       hex2digit                  00000001400947a0 f   pjlib-x86_64-x64-vc14-debug-dynamic:guid_win32.obj
 0001:00093810       guid_to_str                0000000140094810 f   pjlib-x86_64-x64-vc14-debug-dynamic:guid_win32.obj
 0001:00093940       pj_tolower                 0000000140094940 f   pjlib-x86_64-x64-vc14-debug-dynamic:guid.obj
 0001:00093ee0       pj_memcpy                  0000000140094ee0 f   pjlib-x86_64-x64-vc14-debug-dynamic:sock_qos_common.obj
 0001:00095350       pj_pool_zalloc             0000000140096350 f   pjlib-x86_64-x64-vc14-debug-dynamic:activesock.obj
 0001:00095380       pj_bzero                   0000000140096380 f   pjlib-x86_64-x64-vc14-debug-dynamic:activesock.obj
 0001:000953b0       pj_memcpy                  00000001400963b0 f   pjlib-x86_64-x64-vc14-debug-dynamic:activesock.obj
 0001:000953f0       ioqueue_on_read_complete   00000001400963f0 f   pjlib-x86_64-x64-vc14-debug-dynamic:activesock.obj
 0001:00095880       ioqueue_on_write_complete  0000000140096880 f   pjlib-x86_64-x64-vc14-debug-dynamic:activesock.obj
 0001:000959c0       ioqueue_on_accept_complete 00000001400969c0 f   pjlib-x86_64-x64-vc14-debug-dynamic:activesock.obj
 0001:00095c50       ioqueue_on_connect_complete 0000000140096c50 f   pjlib-x86_64-x64-vc14-debug-dynamic:activesock.obj
 0001:00095cb0       send_remaining             0000000140096cb0 f   pjlib-x86_64-x64-vc14-debug-dynamic:activesock.obj
 0001:00096790       get_elapsed                0000000140097790 f   pjlib-x86_64-x64-vc14-debug-dynamic:os_timestamp_common.obj
 0001:000967c0       elapsed_msec               00000001400977c0 f   pjlib-x86_64-x64-vc14-debug-dynamic:os_timestamp_common.obj
 0001:00096860       elapsed_usec               0000000140097860 f   pjlib-x86_64-x64-vc14-debug-dynamic:os_timestamp_common.obj
 0001:00096a00       pj_set_timestamp32         0000000140097a00 f   pjlib-x86_64-x64-vc14-debug-dynamic:os_timestamp_common.obj
 0001:00096e10       pj_bzero                   0000000140097e10 f   pjlib-x86_64-x64-vc14-debug-dynamic:addr_resolv_sock.obj
 0001:00096e40       pj_memcpy                  0000000140097e40 f   pjlib-x86_64-x64-vc14-debug-dynamic:addr_resolv_sock.obj
 0001:000970b0       stack_alloc                00000001400980b0 f   pjlib-x86_64-x64-vc14-debug-dynamic:pool_buf.obj
 0001:00097160       pool_buf_cleanup           0000000140098160 f   pjlib-x86_64-x64-vc14-debug-dynamic:pool_buf.obj
 0001:000971a0       pool_buf_initialize        00000001400981a0 f   pjlib-x86_64-x64-vc14-debug-dynamic:pool_buf.obj
 0001:00097960       pj_bzero                   0000000140098960 f   pjlib-x86_64-x64-vc14-debug-dynamic:ip_helper_win32.obj
 0001:00097990       pj_memcpy                  0000000140098990 f   pjlib-x86_64-x64-vc14-debug-dynamic:ip_helper_win32.obj
 0001:000979d0       pj_enum_ip_option_default  00000001400989d0 f   pjlib-x86_64-x64-vc14-debug-dynamic:ip_helper_win32.obj
 0001:00097ec0       unload_iphlp_module        0000000140098ec0 f   pjlib-x86_64-x64-vc14-debug-dynamic:ip_helper_win32.obj
 0001:00097f20       GetIpHlpApiProc            0000000140098f20 f   pjlib-x86_64-x64-vc14-debug-dynamic:ip_helper_win32.obj
 0001:00097f90       MyGetIpAddrTable           0000000140098f90 f   pjlib-x86_64-x64-vc14-debug-dynamic:ip_helper_win32.obj
 0001:00098000       MyGetAdapterAddresses      0000000140099000 f   pjlib-x86_64-x64-vc14-debug-dynamic:ip_helper_win32.obj
 0001:00098080       MyGetIfEntry               0000000140099080 f   pjlib-x86_64-x64-vc14-debug-dynamic:ip_helper_win32.obj
 0001:000980d0       MyGetIpForwardTable        00000001400990d0 f   pjlib-x86_64-x64-vc14-debug-dynamic:ip_helper_win32.obj
 0001:00098140       enum_ipv4_interface        0000000140099140 f   pjlib-x86_64-x64-vc14-debug-dynamic:ip_helper_win32.obj
 0001:00098460       enum_ipv4_ipv6_interface   0000000140099460 f   pjlib-x86_64-x64-vc14-debug-dynamic:ip_helper_win32.obj
 0001:00098ae0       default_block_alloc        0000000140099ae0 f   pjlib-x86_64-x64-vc14-debug-dynamic:pool_policy_malloc.obj
 0001:00098b80       default_block_free         0000000140099b80 f   pjlib-x86_64-x64-vc14-debug-dynamic:pool_policy_malloc.obj
 0001:00098be0       default_pool_callback      0000000140099be0 f   pjlib-x86_64-x64-vc14-debug-dynamic:pool_policy_malloc.obj
 0001:00098cd0       term_set_color             0000000140099cd0 f   pjlib-x86_64-x64-vc14-debug-dynamic:log_writer_stdout.obj
 0001:00098d00       term_restore_color         0000000140099d00 f   pjlib-x86_64-x64-vc14-debug-dynamic:log_writer_stdout.obj
 0001:000997d0       pj_bzero                   000000014009a7d0 f   pjlib-x86_64-x64-vc14-debug-dynamic:sock_qos_bsd.obj
 0001:00099b90       $$000000                   000000014009ab90     MSVCRTD:amdsecgs.obj
 0001:00099bd0       ?pre_c_initialization@@YAHXZ 000000014009abd0 f   MSVCRTD:exe_main.obj
 0001:00099cb0       ?post_pgo_initialization@@YAHXZ 000000014009acb0 f   MSVCRTD:exe_main.obj
 0001:00099cd0       ?pre_cpp_initialization@@YAXXZ 000000014009acd0 f   MSVCRTD:exe_main.obj
 0001:00099cf0       ?__scrt_common_main@@YAHXZ 000000014009acf0 f   MSVCRTD:exe_main.obj
 0001:00099d10       ?__scrt_common_main_seh@@YAHXZ 000000014009ad10 f   MSVCRTD:exe_main.obj
 0001:00099f60       ?invoke_main@@YAHXZ        000000014009af60 f   MSVCRTD:exe_main.obj
 0001:0009a3f0       capture_current_context    000000014009b3f0 f   MSVCRTD:gs_report.obj
 0001:0009a4b0       capture_previous_context   000000014009b4b0 f   MSVCRTD:gs_report.obj
 0001:0009a590       $$000000                   000000014009b590     MSVCRTD:chkstk.obj
 0001:0009a610       ?find_pe_section@@YAPEAU_IMAGE_SECTION_HEADER@@QEAE_K@Z 000000014009b610 f   MSVCRTD:utility.obj
 0001:0009a710       ?is_potentially_valid_image_base@@YA_NQEAX@Z 000000014009b710 f   MSVCRTD:utility.obj
 0001:0009ae30       __get_entropy              000000014009be30 f   MSVCRTD:gs_support.obj
 0001:0009b7c0       __castguard_compat_check   000000014009c7c0 f   MSVCRTD:guard_support.obj
 0001:0009b9a0       __castguard_slow_path_compat_check 000000014009c9a0 f   MSVCRTD:guard_support.obj
 0001:0009dec0       $$000000                   000000014009eec0     MSVCRTD:guard_dispatch.obj
 0001:0009dee0       $$000000                   000000014009eee0     MSVCRTD:guard_xfg_dispatch.obj
 0001:0009ef00       ?filt$0@?0??__scrt_common_main_seh@@YAHXZ@4HA 000000014009ff00 f   MSVCRTD:exe_main.obj
 0001:0009ef40       __scrt_is_nonwritable_in_current_image$filt$0 000000014009ff40 f   MSVCRTD:utility.obj
 0002:00000110       ?pre_cpp_initializer@@3P6AXXZEA 00000001400a1110     MSVCRTD:exe_main.obj
 0002:00000440       ?pre_c_initializer@@3P6AHXZEA 00000001400a1440     MSVCRTD:exe_main.obj
 0002:00000550       ?post_pgo_initializer@@3P6AHXZEA 00000001400a1550     MSVCRTD:exe_main.obj
 0002:00000bb0       pjsip_update_method        00000001400a1bb0     pjsip-ua-x86_64-x64-vc14-debug-dynamic:sip_inv.obj
 0002:00000bd0       tag_100rel                 00000001400a1bd0     pjsip-ua-x86_64-x64-vc14-debug-dynamic:sip_100rel.obj
 0002:00000be0       RSEQ                       00000001400a1be0     pjsip-ua-x86_64-x64-vc14-debug-dynamic:sip_100rel.obj
 0002:00000bf0       RACK                       00000001400a1bf0     pjsip-ua-x86_64-x64-vc14-debug-dynamic:sip_100rel.obj
 0002:00000c28       STR_SE                     00000001400a1c28     pjsip-ua-x86_64-x64-vc14-debug-dynamic:sip_timer.obj
 0002:00000c38       STR_SHORT_SE               00000001400a1c38     pjsip-ua-x86_64-x64-vc14-debug-dynamic:sip_timer.obj
 0002:00000c48       STR_MIN_SE                 00000001400a1c48     pjsip-ua-x86_64-x64-vc14-debug-dynamic:sip_timer.obj
 0002:00000c58       STR_REFRESHER              00000001400a1c58     pjsip-ua-x86_64-x64-vc14-debug-dynamic:sip_timer.obj
 0002:00000c68       STR_UAC                    00000001400a1c68     pjsip-ua-x86_64-x64-vc14-debug-dynamic:sip_timer.obj
 0002:00000c78       STR_UAS                    00000001400a1c78     pjsip-ua-x86_64-x64-vc14-debug-dynamic:sip_timer.obj
 0002:00000c88       STR_TIMER                  00000001400a1c88     pjsip-ua-x86_64-x64-vc14-debug-dynamic:sip_timer.obj
 0002:00001290       HCONTACT                   00000001400a2290     pjsip-core-x86_64-x64-vc14-debug-dynamic:sip_dialog.obj
 0002:000012b0       err_str                    00000001400a22b0     pjsip-core-x86_64-x64-vc14-debug-dynamic:sip_errno.obj
 0002:00001a60       err_str                    00000001400a2a60     pjlib-util-x86_64-x64-vc14-debug-dynamic:errno.obj
 0002:00001ee0       err_str                    00000001400a2ee0     pjlib-x86_64-x64-vc14-debug-dynamic:errno.obj
 0002:00002170       gaErrorList                00000001400a3170     pjlib-x86_64-x64-vc14-debug-dynamic:os_error_win32.obj
 0002:00002538       qos_map                    00000001400a3538     pjlib-x86_64-x64-vc14-debug-dynamic:sock_qos_common.obj
 0002:000025d8       GS_ExceptionPointers       00000001400a35d8     MSVCRTD:gs_report.obj
 0002:00003158       $unwind$pj_list_push_back  00000001400a4158     sipecho.obj
 0002:00003160       $unwind$pj_pool_zalloc     00000001400a4160     sipecho.obj
 0002:00003168       $unwind$pj_bzero           00000001400a4168     sipecho.obj
 0002:00003170       $unwind$app_perror         00000001400a4170     sipecho.obj
 0002:00003180       $unwind$get_snd_options    00000001400a4180     sipecho.obj
 0002:00003190       $unwind$dump_pool_usage    00000001400a4190     sipecho.obj
 0002:00003198       $unwind$call_on_state_changed 00000001400a4198     sipecho.obj
 0002:000031a0       $unwind$call_on_rx_offer   00000001400a41a0     sipecho.obj
 0002:000031a8       $unwind$on_rx_request      00000001400a41a8     sipecho.obj
 0002:000031bc       $unwind$logging_on_rx_msg  00000001400a41bc     sipecho.obj
 0002:000031c4       $unwind$logging_on_tx_msg  00000001400a41c4     sipecho.obj
 0002:000031cc       $unwind$worker_proc        00000001400a41cc     sipecho.obj
 0002:000031d4       $unwind$hangup_all         00000001400a41d4     sipecho.obj
 0002:000031dc       $unwind$destroy_stack      00000001400a41dc     sipecho.obj
 0002:000031e4       $unwind$init_stack         00000001400a41e4     sipecho.obj
 0002:000031f4       $unwind$find_remove_sdp_attrs 00000001400a41f4     sipecho.obj
 0002:000031fc       $unwind$create_answer      00000001400a41fc     sipecho.obj
 0002:00003210       $unwind$usage              00000001400a4210     sipecho.obj
 0002:00003218       $unwind$main               00000001400a4218     sipecho.obj
 0002:00003244       $unwind$_vfprintf_l        00000001400a4244     sipecho.obj
 0002:0000324c       $unwind$printf             00000001400a424c     sipecho.obj
 0002:00003254       $unwind$_vsnprintf_l       00000001400a4254     sipecho.obj
 0002:0000325c       $unwind$_vsprintf_l        00000001400a425c     sipecho.obj
 0002:00003264       $unwind$sprintf            00000001400a4264     sipecho.obj
 0002:0000326c       $unwind$pj_list_empty      00000001400a426c     pjsip-ua-x86_64-x64-vc14-debug-dynamic:sip_inv.obj
 0002:00003274       $unwind$pj_list_push_back  00000001400a4274     pjsip-ua-x86_64-x64-vc14-debug-dynamic:sip_inv.obj
 0002:0000327c       $unwind$pjsip_uri_get_scheme 00000001400a427c     pjsip-ua-x86_64-x64-vc14-debug-dynamic:sip_inv.obj
 0002:00003284       $unwind$pjsip_uri_get_uri  00000001400a4284     pjsip-ua-x86_64-x64-vc14-debug-dynamic:sip_inv.obj
 0002:0000328c       $unwind$pjsip_uri_print    00000001400a428c     pjsip-ua-x86_64-x64-vc14-debug-dynamic:sip_inv.obj
 0002:00003294       $unwind$pjsip_uri_clone    00000001400a4294     pjsip-ua-x86_64-x64-vc14-debug-dynamic:sip_inv.obj
 0002:0000329c       $unwind$pjsip_msg_add_hdr  00000001400a429c     pjsip-ua-x86_64-x64-vc14-debug-dynamic:sip_inv.obj
 0002:000032a4       $unwind$pjsip_inv_usage_init 00000001400a42a4     pjsip-ua-x86_64-x64-vc14-debug-dynamic:sip_inv.obj
 0002:000032ac       $unwind$pjsip_inv_create_uac 00000001400a42ac     pjsip-ua-x86_64-x64-vc14-debug-dynamic:sip_inv.obj
 0002:000032b4       $unwind$pjsip_inv_verify_request 00000001400a42b4     pjsip-ua-x86_64-x64-vc14-debug-dynamic:sip_inv.obj
 0002:000032bc       $unwind$pjsip_inv_verify_request2 00000001400a42bc     pjsip-ua-x86_64-x64-vc14-debug-dynamic:sip_inv.obj
 0002:000032c4       $unwind$pjsip_inv_verify_request3 00000001400a42c4     pjsip-ua-x86_64-x64-vc14-debug-dynamic:sip_inv.obj
 0002:000032d8       $unwind$pjsip_inv_create_uas 00000001400a42d8     pjsip-ua-x86_64-x64-vc14-debug-dynamic:sip_inv.obj
 0002:000032e0       $unwind$pjsip_inv_add_ref  00000001400a42e0     pjsip-ua-x86_64-x64-vc14-debug-dynamic:sip_inv.obj
 0002:000032e8       $unwind$pjsip_inv_dec_ref  00000001400a42e8     pjsip-ua-x86_64-x64-vc14-debug-dynamic:sip_inv.obj
 0002:000032f0       $unwind$pjsip_inv_terminate 00000001400a42f0     pjsip-ua-x86_64-x64-vc14-debug-dynamic:sip_inv.obj
 0002:000032f8       $unwind$pjsip_inv_uac_restart 00000001400a42f8     pjsip-ua-x86_64-x64-vc14-debug-dynamic:sip_inv.obj
 0002:00003300       $unwind$pjsip_inv_process_redirect 00000001400a4300     pjsip-ua-x86_64-x64-vc14-debug-dynamic:sip_inv.obj
 0002:00003310       $unwind$pjsip_inv_invite   00000001400a4310     pjsip-ua-x86_64-x64-vc14-debug-dynamic:sip_inv.obj
 0002:0000331c       $unwind$pjsip_inv_initial_answer 00000001400a431c     pjsip-ua-x86_64-x64-vc14-debug-dynamic:sip_inv.obj
 0002:00003324       $unwind$pjsip_inv_answer   00000001400a4324     pjsip-ua-x86_64-x64-vc14-debug-dynamic:sip_inv.obj
 0002:0000332c       $unwind$pjsip_inv_set_local_sdp 00000001400a432c     pjsip-ua-x86_64-x64-vc14-debug-dynamic:sip_inv.obj
 0002:00003334       $unwind$pjsip_inv_set_sdp_answer 00000001400a4334     pjsip-ua-x86_64-x64-vc14-debug-dynamic:sip_inv.obj
 0002:0000333c       $unwind$pjsip_inv_end_session 00000001400a433c     pjsip-ua-x86_64-x64-vc14-debug-dynamic:sip_inv.obj
 0002:00003344       $unwind$pjsip_inv_cancel_reinvite 00000001400a4344     pjsip-ua-x86_64-x64-vc14-debug-dynamic:sip_inv.obj
 0002:0000334c       $unwind$pjsip_inv_reinvite 00000001400a434c     pjsip-ua-x86_64-x64-vc14-debug-dynamic:sip_inv.obj
 0002:00003354       $unwind$pjsip_inv_update   00000001400a4354     pjsip-ua-x86_64-x64-vc14-debug-dynamic:sip_inv.obj
 0002:0000335c       $unwind$pjsip_inv_create_ack 00000001400a435c     pjsip-ua-x86_64-x64-vc14-debug-dynamic:sip_inv.obj
 0002:00003364       $unwind$pjsip_inv_send_msg 00000001400a4364     pjsip-ua-x86_64-x64-vc14-debug-dynamic:sip_inv.obj
 0002:0000336c       $unwind$pjsip_inv_state_name 00000001400a436c     pjsip-ua-x86_64-x64-vc14-debug-dynamic:sip_inv.obj
 0002:00003374       $unwind$pjsip_create_sdp_body 00000001400a4374     pjsip-ua-x86_64-x64-vc14-debug-dynamic:sip_inv.obj
 0002:0000337c       $unwind$pjsip_rdata_get_sdp_info 00000001400a437c     pjsip-ua-x86_64-x64-vc14-debug-dynamic:sip_inv.obj
 0002:00003384       $unwind$pj_bzero           00000001400a4384     pjsip-ua-x86_64-x64-vc14-debug-dynamic:sip_inv.obj
 0002:0000338c       $unwind$pj_memcpy          00000001400a438c     pjsip-ua-x86_64-x64-vc14-debug-dynamic:sip_inv.obj
 0002:00003394       $unwind$pj_pool_zalloc     00000001400a4394     pjsip-ua-x86_64-x64-vc14-debug-dynamic:sip_inv.obj
 0002:0000339c       $unwind$mod_inv_load       00000001400a439c     pjsip-ua-x86_64-x64-vc14-debug-dynamic:sip_inv.obj
 0002:000033ac       $unwind$mod_inv_on_rx_request 00000001400a43ac     pjsip-ua-x86_64-x64-vc14-debug-dynamic:sip_inv.obj
 0002:000033b4       $unwind$mod_inv_on_rx_response 00000001400a43b4     pjsip-ua-x86_64-x64-vc14-debug-dynamic:sip_inv.obj
 0002:000033bc       $unwind$mod_inv_on_tsx_state 00000001400a43bc     pjsip-ua-x86_64-x64-vc14-debug-dynamic:sip_inv.obj
 0002:000033c4       $unwind$inv_on_state_null  00000001400a43c4     pjsip-ua-x86_64-x64-vc14-debug-dynamic:sip_inv.obj
 0002:000033cc       $unwind$inv_on_state_calling 00000001400a43cc     pjsip-ua-x86_64-x64-vc14-debug-dynamic:sip_inv.obj
 0002:000033d4       $unwind$inv_on_state_incoming 00000001400a43d4     pjsip-ua-x86_64-x64-vc14-debug-dynamic:sip_inv.obj
 0002:000033dc       $unwind$inv_on_state_early 00000001400a43dc     pjsip-ua-x86_64-x64-vc14-debug-dynamic:sip_inv.obj
 0002:000033e8       $unwind$inv_on_state_connecting 00000001400a43e8     pjsip-ua-x86_64-x64-vc14-debug-dynamic:sip_inv.obj
 0002:000033f0       $unwind$inv_on_state_confirmed 00000001400a43f0     pjsip-ua-x86_64-x64-vc14-debug-dynamic:sip_inv.obj
 0002:000033fc       $unwind$inv_on_state_disconnected 00000001400a43fc     pjsip-ua-x86_64-x64-vc14-debug-dynamic:sip_inv.obj
 0002:00003404       $unwind$inv_check_sdp_in_incoming_msg 00000001400a4404     pjsip-ua-x86_64-x64-vc14-debug-dynamic:sip_inv.obj
 0002:00003410       $unwind$inv_negotiate_sdp  00000001400a4410     pjsip-ua-x86_64-x64-vc14-debug-dynamic:sip_inv.obj
 0002:00003418       $unwind$create_sdp_body    00000001400a4418     pjsip-ua-x86_64-x64-vc14-debug-dynamic:sip_inv.obj
 0002:00003420       $unwind$process_answer     00000001400a4420     pjsip-ua-x86_64-x64-vc14-debug-dynamic:sip_inv.obj
 0002:00003428       $unwind$handle_timer_response 00000001400a4428     pjsip-ua-x86_64-x64-vc14-debug-dynamic:sip_inv.obj
 0002:00003430       $unwind$inv_check_secure_dlg 00000001400a4430     pjsip-ua-x86_64-x64-vc14-debug-dynamic:sip_inv.obj
 0002:0000343c       $unwind$inv_session_destroy 00000001400a443c     pjsip-ua-x86_64-x64-vc14-debug-dynamic:sip_inv.obj
 0002:00003444       $unwind$inv_set_state      00000001400a4444     pjsip-ua-x86_64-x64-vc14-debug-dynamic:sip_inv.obj
 0002:0000344c       $unwind$inv_set_cause      00000001400a444c     pjsip-ua-x86_64-x64-vc14-debug-dynamic:sip_inv.obj
 0002:00003458       $unwind$inv_has_pending_answer 00000001400a4458     pjsip-ua-x86_64-x64-vc14-debug-dynamic:sip_inv.obj
 0002:00003460       $unwind$inv_perform_pending_bye 00000001400a4460     pjsip-ua-x86_64-x64-vc14-debug-dynamic:sip_inv.obj
 0002:00003468       $unwind$inv_send_ack       00000001400a4468     pjsip-ua-x86_64-x64-vc14-debug-dynamic:sip_inv.obj
 0002:00003470       $unwind$tx_data_has_sdp    00000001400a4470     pjsip-ua-x86_64-x64-vc14-debug-dynamic:sip_inv.obj
 0002:00003478       $unwind$clone_sdp          00000001400a4478     pjsip-ua-x86_64-x64-vc14-debug-dynamic:sip_inv.obj
 0002:00003480       $unwind$print_sdp          00000001400a4480     pjsip-ua-x86_64-x64-vc14-debug-dynamic:sip_inv.obj
 0002:00003488       $unwind$remove_val_from_array_hdr 00000001400a4488     pjsip-ua-x86_64-x64-vc14-debug-dynamic:sip_inv.obj
 0002:00003490       $unwind$cleanup_allow_sup_hdr 00000001400a4490     pjsip-ua-x86_64-x64-vc14-debug-dynamic:sip_inv.obj
 0002:00003498       $unwind$swap_pool          00000001400a4498     pjsip-ua-x86_64-x64-vc14-debug-dynamic:sip_inv.obj
 0002:000034a0       $unwind$inv_uac_recurse    00000001400a44a0     pjsip-ua-x86_64-x64-vc14-debug-dynamic:sip_inv.obj
 0002:000034a8       $unwind$inv_respond_incoming_cancel 00000001400a44a8     pjsip-ua-x86_64-x64-vc14-debug-dynamic:sip_inv.obj
 0002:000034b0       $unwind$inv_respond_incoming_bye 00000001400a44b0     pjsip-ua-x86_64-x64-vc14-debug-dynamic:sip_inv.obj
 0002:000034b8       $unwind$inv_handle_bye_response 00000001400a44b8     pjsip-ua-x86_64-x64-vc14-debug-dynamic:sip_inv.obj
 0002:000034c0       $unwind$inv_respond_incoming_update 00000001400a44c0     pjsip-ua-x86_64-x64-vc14-debug-dynamic:sip_inv.obj
 0002:000034c8       $unwind$inv_handle_update_response 00000001400a44c8     pjsip-ua-x86_64-x64-vc14-debug-dynamic:sip_inv.obj
 0002:000034d0       $unwind$inv_handle_incoming_reliable_response 00000001400a44d0     pjsip-ua-x86_64-x64-vc14-debug-dynamic:sip_inv.obj
 0002:000034d8       $unwind$inv_respond_incoming_prack 00000001400a44d8     pjsip-ua-x86_64-x64-vc14-debug-dynamic:sip_inv.obj
 0002:000034e0       $unwind$handle_uac_tsx_response 00000001400a44e0     pjsip-ua-x86_64-x64-vc14-debug-dynamic:sip_inv.obj
 0002:000034e8       $unwind$handle_uac_call_rejection 00000001400a44e8     pjsip-ua-x86_64-x64-vc14-debug-dynamic:sip_inv.obj
 0002:00003530       $unwind$_vsnprintf         00000001400a4530     pjsip-ua-x86_64-x64-vc14-debug-dynamic:sip_inv.obj
 0002:00003538       $unwind$_snprintf          00000001400a4538     pjsip-ua-x86_64-x64-vc14-debug-dynamic:sip_inv.obj
 0002:00003540       $unwind$pj_list_empty      00000001400a4540     pjsip-ua-x86_64-x64-vc14-debug-dynamic:sip_100rel.obj
 0002:00003548       $unwind$pj_list_push_back  00000001400a4548     pjsip-ua-x86_64-x64-vc14-debug-dynamic:sip_100rel.obj
 0002:00003550       $unwind$pjsip_uri_clone    00000001400a4550     pjsip-ua-x86_64-x64-vc14-debug-dynamic:sip_100rel.obj
 0002:00003558       $unwind$pjsip_msg_add_hdr  00000001400a4558     pjsip-ua-x86_64-x64-vc14-debug-dynamic:sip_100rel.obj
 0002:00003560       $unwind$pjsip_100rel_init_module 00000001400a4560     pjsip-ua-x86_64-x64-vc14-debug-dynamic:sip_100rel.obj
 0002:00003568       $unwind$pjsip_100rel_attach 00000001400a4568     pjsip-ua-x86_64-x64-vc14-debug-dynamic:sip_100rel.obj
 0002:00003570       $unwind$pjsip_100rel_is_reliable 00000001400a4570     pjsip-ua-x86_64-x64-vc14-debug-dynamic:sip_100rel.obj
 0002:00003578       $unwind$pjsip_100rel_create_prack 00000001400a4578     pjsip-ua-x86_64-x64-vc14-debug-dynamic:sip_100rel.obj
 0002:00003588       $unwind$pjsip_100rel_send_prack 00000001400a4588     pjsip-ua-x86_64-x64-vc14-debug-dynamic:sip_100rel.obj
 0002:00003590       $unwind$pjsip_100rel_on_rx_prack 00000001400a4590     pjsip-ua-x86_64-x64-vc14-debug-dynamic:sip_100rel.obj
 0002:0000359c       $unwind$pjsip_100rel_tx_response 00000001400a459c     pjsip-ua-x86_64-x64-vc14-debug-dynamic:sip_100rel.obj
 0002:000035b0       $unwind$pjsip_100rel_end_session 00000001400a45b0     pjsip-ua-x86_64-x64-vc14-debug-dynamic:sip_100rel.obj
 0002:000035b8       $unwind$pj_isdigit         00000001400a45b8     pjsip-ua-x86_64-x64-vc14-debug-dynamic:sip_100rel.obj
 0002:000035c0       $unwind$pj_pool_zalloc     00000001400a45c0     pjsip-ua-x86_64-x64-vc14-debug-dynamic:sip_100rel.obj
 0002:000035c8       $unwind$mod_100rel_load    00000001400a45c8     pjsip-ua-x86_64-x64-vc14-debug-dynamic:sip_100rel.obj
 0002:000035d0       $unwind$on_retransmit      00000001400a45d0     pjsip-ua-x86_64-x64-vc14-debug-dynamic:sip_100rel.obj
 0002:000035dc       $unwind$find_req_hdr       00000001400a45dc     pjsip-ua-x86_64-x64-vc14-debug-dynamic:sip_100rel.obj
 0002:000035e4       $unwind$clear_all_responses 00000001400a45e4     pjsip-ua-x86_64-x64-vc14-debug-dynamic:sip_100rel.obj
 0002:000035ec       $unwind$parse_rack         00000001400a45ec     pjsip-ua-x86_64-x64-vc14-debug-dynamic:sip_100rel.obj
 0002:000035f4       $unwind$has_sdp            00000001400a45f4     pjsip-ua-x86_64-x64-vc14-debug-dynamic:sip_100rel.obj
 0002:00003610       $unwind$pj_list_push_back  00000001400a4610     pjsip-ua-x86_64-x64-vc14-debug-dynamic:sip_timer.obj
 0002:00003618       $unwind$pjsip_msg_add_hdr  00000001400a4618     pjsip-ua-x86_64-x64-vc14-debug-dynamic:sip_timer.obj
 0002:00003620       $unwind$pjsip_timer_init_module 00000001400a4620     pjsip-ua-x86_64-x64-vc14-debug-dynamic:sip_timer.obj
 0002:00003628       $unwind$pjsip_timer_setting_default 00000001400a4628     pjsip-ua-x86_64-x64-vc14-debug-dynamic:sip_timer.obj
 0002:00003630       $unwind$pjsip_timer_init_session 00000001400a4630     pjsip-ua-x86_64-x64-vc14-debug-dynamic:sip_timer.obj
 0002:00003638       $unwind$pjsip_sess_expires_hdr_create 00000001400a4638     pjsip-ua-x86_64-x64-vc14-debug-dynamic:sip_timer.obj
 0002:00003644       $unwind$pjsip_min_se_hdr_create 00000001400a4644     pjsip-ua-x86_64-x64-vc14-debug-dynamic:sip_timer.obj
 0002:00003650       $unwind$pjsip_timer_update_req 00000001400a4650     pjsip-ua-x86_64-x64-vc14-debug-dynamic:sip_timer.obj
 0002:00003658       $unwind$pjsip_timer_process_resp 00000001400a4658     pjsip-ua-x86_64-x64-vc14-debug-dynamic:sip_timer.obj
 0002:00003660       $unwind$pjsip_timer_handle_refresh_error 00000001400a4660     pjsip-ua-x86_64-x64-vc14-debug-dynamic:sip_timer.obj
 0002:00003668       $unwind$pjsip_timer_process_req 00000001400a4668     pjsip-ua-x86_64-x64-vc14-debug-dynamic:sip_timer.obj
 0002:00003670       $unwind$pjsip_timer_update_resp 00000001400a4670     pjsip-ua-x86_64-x64-vc14-debug-dynamic:sip_timer.obj
 0002:0000367c       $unwind$pjsip_timer_end_session 00000001400a467c     pjsip-ua-x86_64-x64-vc14-debug-dynamic:sip_timer.obj
 0002:00003684       $unwind$pj_bzero           00000001400a4684     pjsip-ua-x86_64-x64-vc14-debug-dynamic:sip_timer.obj
 0002:0000368c       $unwind$pj_memcpy          00000001400a468c     pjsip-ua-x86_64-x64-vc14-debug-dynamic:sip_timer.obj
 0002:00003694       $unwind$pj_pool_zalloc     00000001400a4694     pjsip-ua-x86_64-x64-vc14-debug-dynamic:sip_timer.obj
 0002:0000369c       $unwind$stop_timer         00000001400a469c     pjsip-ua-x86_64-x64-vc14-debug-dynamic:sip_timer.obj
 0002:000036a4       $unwind$start_timer        00000001400a46a4     pjsip-ua-x86_64-x64-vc14-debug-dynamic:sip_timer.obj
 0002:000036ac       $unwind$se_hdr_print       00000001400a46ac     pjsip-ua-x86_64-x64-vc14-debug-dynamic:sip_timer.obj
 0002:000036b4       $unwind$se_hdr_clone       00000001400a46b4     pjsip-ua-x86_64-x64-vc14-debug-dynamic:sip_timer.obj
 0002:000036bc       $unwind$se_hdr_shallow_clone 00000001400a46bc     pjsip-ua-x86_64-x64-vc14-debug-dynamic:sip_timer.obj
 0002:000036c4       $unwind$min_se_hdr_print   00000001400a46c4     pjsip-ua-x86_64-x64-vc14-debug-dynamic:sip_timer.obj
 0002:000036cc       $unwind$min_se_hdr_clone   00000001400a46cc     pjsip-ua-x86_64-x64-vc14-debug-dynamic:sip_timer.obj
 0002:000036d4       $unwind$min_se_hdr_shallow_clone 00000001400a46d4     pjsip-ua-x86_64-x64-vc14-debug-dynamic:sip_timer.obj
 0002:000036dc       $unwind$parse_hdr_se       00000001400a46dc     pjsip-ua-x86_64-x64-vc14-debug-dynamic:sip_timer.obj
 0002:000036e8       $unwind$parse_hdr_min_se   00000001400a46e8     pjsip-ua-x86_64-x64-vc14-debug-dynamic:sip_timer.obj
 0002:000036f4       $unwind$add_timer_headers  00000001400a46f4     pjsip-ua-x86_64-x64-vc14-debug-dynamic:sip_timer.obj
 0002:00003700       $unwind$timer_cb           00000001400a4700     pjsip-ua-x86_64-x64-vc14-debug-dynamic:sip_timer.obj
 0002:0000372c       $unwind$pj_list_empty      00000001400a472c     pjsip-core-x86_64-x64-vc14-debug-dynamic:sip_msg.obj
 0002:00003734       $unwind$pjsip_uri_get_scheme 00000001400a4734     pjsip-core-x86_64-x64-vc14-debug-dynamic:sip_msg.obj
 0002:0000373c       $unwind$pjsip_uri_get_uri  00000001400a473c     pjsip-core-x86_64-x64-vc14-debug-dynamic:sip_msg.obj
 0002:00003744       $unwind$pjsip_uri_print    00000001400a4744     pjsip-core-x86_64-x64-vc14-debug-dynamic:sip_msg.obj
 0002:0000374c       $unwind$pjsip_uri_clone    00000001400a474c     pjsip-core-x86_64-x64-vc14-debug-dynamic:sip_msg.obj
 0002:00003754       $unwind$pjsip_method_init  00000001400a4754     pjsip-core-x86_64-x64-vc14-debug-dynamic:sip_msg.obj
 0002:0000375c       $unwind$pjsip_method_init_np 00000001400a475c     pjsip-core-x86_64-x64-vc14-debug-dynamic:sip_msg.obj
 0002:00003768       $unwind$pjsip_method_set   00000001400a4768     pjsip-core-x86_64-x64-vc14-debug-dynamic:sip_msg.obj
 0002:00003774       $unwind$pjsip_method_copy  00000001400a4774     pjsip-core-x86_64-x64-vc14-debug-dynamic:sip_msg.obj
 0002:00003780       $unwind$pjsip_method_cmp   00000001400a4780     pjsip-core-x86_64-x64-vc14-debug-dynamic:sip_msg.obj
 0002:00003788       $unwind$pjsip_hdr_clone    00000001400a4788     pjsip-core-x86_64-x64-vc14-debug-dynamic:sip_msg.obj
 0002:00003790       $unwind$pjsip_hdr_shallow_clone 00000001400a4790     pjsip-core-x86_64-x64-vc14-debug-dynamic:sip_msg.obj
 0002:00003798       $unwind$pjsip_hdr_print_on 00000001400a4798     pjsip-core-x86_64-x64-vc14-debug-dynamic:sip_msg.obj
 0002:000037a0       $unwind$pjsip_get_status_text 00000001400a47a0     pjsip-core-x86_64-x64-vc14-debug-dynamic:sip_msg.obj
 0002:000037a8       $unwind$pjsip_media_type_init 00000001400a47a8     pjsip-core-x86_64-x64-vc14-debug-dynamic:sip_msg.obj
 0002:000037b4       $unwind$pjsip_media_type_init2 00000001400a47b4     pjsip-core-x86_64-x64-vc14-debug-dynamic:sip_msg.obj
 0002:000037c0       $unwind$pjsip_media_type_cmp 00000001400a47c0     pjsip-core-x86_64-x64-vc14-debug-dynamic:sip_msg.obj
 0002:000037c8       $unwind$pjsip_media_type_cp 00000001400a47c8     pjsip-core-x86_64-x64-vc14-debug-dynamic:sip_msg.obj
 0002:000037d0       $unwind$pjsip_media_type_print 00000001400a47d0     pjsip-core-x86_64-x64-vc14-debug-dynamic:sip_msg.obj
 0002:000037d8       $unwind$pjsip_print_text_body 00000001400a47d8     pjsip-core-x86_64-x64-vc14-debug-dynamic:sip_msg.obj
 0002:000037e0       $unwind$pjsip_clone_text_data 00000001400a47e0     pjsip-core-x86_64-x64-vc14-debug-dynamic:sip_msg.obj
 0002:000037e8       $unwind$pjsip_msg_body_copy 00000001400a47e8     pjsip-core-x86_64-x64-vc14-debug-dynamic:sip_msg.obj
 0002:000037f0       $unwind$pjsip_msg_body_clone 00000001400a47f0     pjsip-core-x86_64-x64-vc14-debug-dynamic:sip_msg.obj
 0002:000037f8       $unwind$pjsip_msg_body_create 00000001400a47f8     pjsip-core-x86_64-x64-vc14-debug-dynamic:sip_msg.obj
 0002:00003800       $unwind$pjsip_msg_create   00000001400a4800     pjsip-core-x86_64-x64-vc14-debug-dynamic:sip_msg.obj
 0002:00003808       $unwind$pjsip_msg_clone    00000001400a4808     pjsip-core-x86_64-x64-vc14-debug-dynamic:sip_msg.obj
 0002:00003810       $unwind$pjsip_msg_find_hdr 00000001400a4810     pjsip-core-x86_64-x64-vc14-debug-dynamic:sip_msg.obj
 0002:00003818       $unwind$pjsip_msg_find_hdr_by_name 00000001400a4818     pjsip-core-x86_64-x64-vc14-debug-dynamic:sip_msg.obj
 0002:00003820       $unwind$pjsip_msg_find_hdr_by_names 00000001400a4820     pjsip-core-x86_64-x64-vc14-debug-dynamic:sip_msg.obj
 0002:00003828       $unwind$pjsip_msg_find_remove_hdr 00000001400a4828     pjsip-core-x86_64-x64-vc14-debug-dynamic:sip_msg.obj
 0002:00003830       $unwind$pjsip_msg_add_hdr  00000001400a4830     pjsip-core-x86_64-x64-vc14-debug-dynamic:sip_msg.obj
 0002:00003838       $unwind$pjsip_msg_print    00000001400a4838     pjsip-core-x86_64-x64-vc14-debug-dynamic:sip_msg.obj
 0002:00003848       $unwind$pjsip_generic_string_hdr_create 00000001400a4848     pjsip-core-x86_64-x64-vc14-debug-dynamic:sip_msg.obj
 0002:00003850       $unwind$pjsip_generic_string_hdr_init 00000001400a4850     pjsip-core-x86_64-x64-vc14-debug-dynamic:sip_msg.obj
 0002:00003858       $unwind$pjsip_generic_string_hdr_init2 00000001400a4858     pjsip-core-x86_64-x64-vc14-debug-dynamic:sip_msg.obj
 0002:00003864       $unwind$pjsip_generic_int_hdr_create 00000001400a4864     pjsip-core-x86_64-x64-vc14-debug-dynamic:sip_msg.obj
 0002:0000386c       $unwind$pjsip_generic_int_hdr_init 00000001400a486c     pjsip-core-x86_64-x64-vc14-debug-dynamic:sip_msg.obj
 0002:00003878       $unwind$pjsip_generic_array_hdr_create 00000001400a4878     pjsip-core-x86_64-x64-vc14-debug-dynamic:sip_msg.obj
 0002:00003880       $unwind$pjsip_generic_array_hdr_init 00000001400a4880     pjsip-core-x86_64-x64-vc14-debug-dynamic:sip_msg.obj
 0002:0000388c       $unwind$pjsip_accept_hdr_create 00000001400a488c     pjsip-core-x86_64-x64-vc14-debug-dynamic:sip_msg.obj
 0002:00003894       $unwind$pjsip_accept_hdr_init 00000001400a4894     pjsip-core-x86_64-x64-vc14-debug-dynamic:sip_msg.obj
 0002:0000389c       $unwind$pjsip_allow_hdr_create 00000001400a489c     pjsip-core-x86_64-x64-vc14-debug-dynamic:sip_msg.obj
 0002:000038a4       $unwind$pjsip_allow_hdr_init 00000001400a48a4     pjsip-core-x86_64-x64-vc14-debug-dynamic:sip_msg.obj
 0002:000038ac       $unwind$pjsip_cid_hdr_create 00000001400a48ac     pjsip-core-x86_64-x64-vc14-debug-dynamic:sip_msg.obj
 0002:000038b4       $unwind$pjsip_cid_hdr_init 00000001400a48b4     pjsip-core-x86_64-x64-vc14-debug-dynamic:sip_msg.obj
 0002:000038bc       $unwind$pjsip_clen_hdr_create 00000001400a48bc     pjsip-core-x86_64-x64-vc14-debug-dynamic:sip_msg.obj
 0002:000038c4       $unwind$pjsip_clen_hdr_init 00000001400a48c4     pjsip-core-x86_64-x64-vc14-debug-dynamic:sip_msg.obj
 0002:000038cc       $unwind$pjsip_cseq_hdr_create 00000001400a48cc     pjsip-core-x86_64-x64-vc14-debug-dynamic:sip_msg.obj
 0002:000038d4       $unwind$pjsip_cseq_hdr_init 00000001400a48d4     pjsip-core-x86_64-x64-vc14-debug-dynamic:sip_msg.obj
 0002:000038dc       $unwind$pjsip_contact_hdr_create 00000001400a48dc     pjsip-core-x86_64-x64-vc14-debug-dynamic:sip_msg.obj
 0002:000038e4       $unwind$pjsip_contact_hdr_init 00000001400a48e4     pjsip-core-x86_64-x64-vc14-debug-dynamic:sip_msg.obj
 0002:000038ec       $unwind$pjsip_ctype_hdr_create 00000001400a48ec     pjsip-core-x86_64-x64-vc14-debug-dynamic:sip_msg.obj
 0002:000038f4       $unwind$pjsip_ctype_hdr_init 00000001400a48f4     pjsip-core-x86_64-x64-vc14-debug-dynamic:sip_msg.obj
 0002:000038fc       $unwind$pjsip_expires_hdr_create 00000001400a48fc     pjsip-core-x86_64-x64-vc14-debug-dynamic:sip_msg.obj
 0002:00003904       $unwind$pjsip_expires_hdr_init 00000001400a4904     pjsip-core-x86_64-x64-vc14-debug-dynamic:sip_msg.obj
 0002:0000390c       $unwind$pjsip_from_hdr_create 00000001400a490c     pjsip-core-x86_64-x64-vc14-debug-dynamic:sip_msg.obj
 0002:00003914       $unwind$pjsip_from_hdr_init 00000001400a4914     pjsip-core-x86_64-x64-vc14-debug-dynamic:sip_msg.obj
 0002:0000391c       $unwind$pjsip_to_hdr_create 00000001400a491c     pjsip-core-x86_64-x64-vc14-debug-dynamic:sip_msg.obj
 0002:00003924       $unwind$pjsip_to_hdr_init  00000001400a4924     pjsip-core-x86_64-x64-vc14-debug-dynamic:sip_msg.obj
 0002:0000392c       $unwind$pjsip_max_fwd_hdr_create 00000001400a492c     pjsip-core-x86_64-x64-vc14-debug-dynamic:sip_msg.obj
 0002:00003934       $unwind$pjsip_max_fwd_hdr_init 00000001400a4934     pjsip-core-x86_64-x64-vc14-debug-dynamic:sip_msg.obj
 0002:0000393c       $unwind$pjsip_min_expires_hdr_create 00000001400a493c     pjsip-core-x86_64-x64-vc14-debug-dynamic:sip_msg.obj
 0002:00003944       $unwind$pjsip_min_expires_hdr_init 00000001400a4944     pjsip-core-x86_64-x64-vc14-debug-dynamic:sip_msg.obj
 0002:0000394c       $unwind$pjsip_rr_hdr_create 00000001400a494c     pjsip-core-x86_64-x64-vc14-debug-dynamic:sip_msg.obj
 0002:00003954       $unwind$pjsip_rr_hdr_init  00000001400a4954     pjsip-core-x86_64-x64-vc14-debug-dynamic:sip_msg.obj
 0002:0000395c       $unwind$pjsip_route_hdr_create 00000001400a495c     pjsip-core-x86_64-x64-vc14-debug-dynamic:sip_msg.obj
 0002:00003964       $unwind$pjsip_route_hdr_init 00000001400a4964     pjsip-core-x86_64-x64-vc14-debug-dynamic:sip_msg.obj
 0002:0000396c       $unwind$pjsip_routing_hdr_set_rr 00000001400a496c     pjsip-core-x86_64-x64-vc14-debug-dynamic:sip_msg.obj
 0002:00003974       $unwind$pjsip_routing_hdr_set_route 00000001400a4974     pjsip-core-x86_64-x64-vc14-debug-dynamic:sip_msg.obj
 0002:0000397c       $unwind$pjsip_require_hdr_create 00000001400a497c     pjsip-core-x86_64-x64-vc14-debug-dynamic:sip_msg.obj
 0002:00003984       $unwind$pjsip_require_hdr_init 00000001400a4984     pjsip-core-x86_64-x64-vc14-debug-dynamic:sip_msg.obj
 0002:0000398c       $unwind$pjsip_retry_after_hdr_create 00000001400a498c     pjsip-core-x86_64-x64-vc14-debug-dynamic:sip_msg.obj
 0002:00003994       $unwind$pjsip_retry_after_hdr_init 00000001400a4994     pjsip-core-x86_64-x64-vc14-debug-dynamic:sip_msg.obj
 0002:0000399c       $unwind$pjsip_supported_hdr_create 00000001400a499c     pjsip-core-x86_64-x64-vc14-debug-dynamic:sip_msg.obj
 0002:000039a4       $unwind$pjsip_supported_hdr_init 00000001400a49a4     pjsip-core-x86_64-x64-vc14-debug-dynamic:sip_msg.obj
 0002:000039ac       $unwind$pjsip_unsupported_hdr_create 00000001400a49ac     pjsip-core-x86_64-x64-vc14-debug-dynamic:sip_msg.obj
 0002:000039b4       $unwind$pjsip_unsupported_hdr_init 00000001400a49b4     pjsip-core-x86_64-x64-vc14-debug-dynamic:sip_msg.obj
 0002:000039bc       $unwind$pjsip_via_hdr_create 00000001400a49bc     pjsip-core-x86_64-x64-vc14-debug-dynamic:sip_msg.obj
 0002:000039c4       $unwind$pjsip_via_hdr_init 00000001400a49c4     pjsip-core-x86_64-x64-vc14-debug-dynamic:sip_msg.obj
 0002:000039cc       $unwind$pjsip_warning_hdr_create 00000001400a49cc     pjsip-core-x86_64-x64-vc14-debug-dynamic:sip_msg.obj
 0002:000039d4       $unwind$pjsip_warning_hdr_create_from_status 00000001400a49d4     pjsip-core-x86_64-x64-vc14-debug-dynamic:sip_msg.obj
 0002:000039e8       $unwind$init_hdr           00000001400a49e8     pjsip-core-x86_64-x64-vc14-debug-dynamic:sip_msg.obj
 0002:000039f4       $unwind$pj_toupper         00000001400a49f4     pjsip-core-x86_64-x64-vc14-debug-dynamic:sip_msg.obj
 0002:000039fc       $unwind$pj_strset2         00000001400a49fc     pjsip-core-x86_64-x64-vc14-debug-dynamic:sip_msg.obj
 0002:00003a04       $unwind$pj_strchr          00000001400a4a04     pjsip-core-x86_64-x64-vc14-debug-dynamic:sip_msg.obj
 0002:00003a0c       $unwind$pj_bzero           00000001400a4a0c     pjsip-core-x86_64-x64-vc14-debug-dynamic:sip_msg.obj
 0002:00003a14       $unwind$pj_memset          00000001400a4a14     pjsip-core-x86_64-x64-vc14-debug-dynamic:sip_msg.obj
 0002:00003a1c       $unwind$pj_memcpy          00000001400a4a1c     pjsip-core-x86_64-x64-vc14-debug-dynamic:sip_msg.obj
 0002:00003a24       $unwind$pj_memcmp          00000001400a4a24     pjsip-core-x86_64-x64-vc14-debug-dynamic:sip_msg.obj
 0002:00003a2c       $unwind$pj_memchr          00000001400a4a2c     pjsip-core-x86_64-x64-vc14-debug-dynamic:sip_msg.obj
 0002:00003a34       $unwind$pj_pool_zalloc     00000001400a4a34     pjsip-core-x86_64-x64-vc14-debug-dynamic:sip_msg.obj
 0002:00003a3c       $unwind$print_media_type   00000001400a4a3c     pjsip-core-x86_64-x64-vc14-debug-dynamic:sip_msg.obj
 0002:00003a44       $unwind$init_status_phrase 00000001400a4a44     pjsip-core-x86_64-x64-vc14-debug-dynamic:sip_msg.obj
 0002:00003a50       $unwind$pjsip_generic_string_hdr_print 00000001400a4a50     pjsip-core-x86_64-x64-vc14-debug-dynamic:sip_msg.obj
 0002:00003a58       $unwind$pjsip_generic_string_hdr_clone 00000001400a4a58     pjsip-core-x86_64-x64-vc14-debug-dynamic:sip_msg.obj
 0002:00003a60       $unwind$pjsip_generic_string_hdr_shallow_clone 00000001400a4a60     pjsip-core-x86_64-x64-vc14-debug-dynamic:sip_msg.obj
 0002:00003a68       $unwind$pjsip_generic_int_hdr_print 00000001400a4a68     pjsip-core-x86_64-x64-vc14-debug-dynamic:sip_msg.obj
 0002:00003a70       $unwind$pjsip_generic_int_hdr_clone 00000001400a4a70     pjsip-core-x86_64-x64-vc14-debug-dynamic:sip_msg.obj
 0002:00003a78       $unwind$pjsip_generic_int_hdr_shallow_clone 00000001400a4a78     pjsip-core-x86_64-x64-vc14-debug-dynamic:sip_msg.obj
 0002:00003a80       $unwind$pjsip_generic_array_hdr_print 00000001400a4a80     pjsip-core-x86_64-x64-vc14-debug-dynamic:sip_msg.obj
 0002:00003a88       $unwind$pjsip_generic_array_hdr_clone 00000001400a4a88     pjsip-core-x86_64-x64-vc14-debug-dynamic:sip_msg.obj
 0002:00003a90       $unwind$pjsip_generic_array_hdr_shallow_clone 00000001400a4a90     pjsip-core-x86_64-x64-vc14-debug-dynamic:sip_msg.obj
 0002:00003a98       $unwind$pjsip_clen_hdr_print 00000001400a4a98     pjsip-core-x86_64-x64-vc14-debug-dynamic:sip_msg.obj
 0002:00003aa0       $unwind$pjsip_clen_hdr_clone 00000001400a4aa0     pjsip-core-x86_64-x64-vc14-debug-dynamic:sip_msg.obj
 0002:00003aa8       $unwind$pjsip_cseq_hdr_print 00000001400a4aa8     pjsip-core-x86_64-x64-vc14-debug-dynamic:sip_msg.obj
 0002:00003ab0       $unwind$pjsip_cseq_hdr_clone 00000001400a4ab0     pjsip-core-x86_64-x64-vc14-debug-dynamic:sip_msg.obj
 0002:00003ab8       $unwind$pjsip_cseq_hdr_shallow_clone 00000001400a4ab8     pjsip-core-x86_64-x64-vc14-debug-dynamic:sip_msg.obj
 0002:00003ac0       $unwind$pjsip_contact_hdr_print 00000001400a4ac0     pjsip-core-x86_64-x64-vc14-debug-dynamic:sip_msg.obj
 0002:00003ac8       $unwind$pjsip_contact_hdr_clone 00000001400a4ac8     pjsip-core-x86_64-x64-vc14-debug-dynamic:sip_msg.obj
 0002:00003ad0       $unwind$pjsip_contact_hdr_shallow_clone 00000001400a4ad0     pjsip-core-x86_64-x64-vc14-debug-dynamic:sip_msg.obj
 0002:00003ad8       $unwind$pjsip_ctype_hdr_print 00000001400a4ad8     pjsip-core-x86_64-x64-vc14-debug-dynamic:sip_msg.obj
 0002:00003ae0       $unwind$pjsip_ctype_hdr_clone 00000001400a4ae0     pjsip-core-x86_64-x64-vc14-debug-dynamic:sip_msg.obj
 0002:00003ae8       $unwind$pjsip_fromto_hdr_print 00000001400a4ae8     pjsip-core-x86_64-x64-vc14-debug-dynamic:sip_msg.obj
 0002:00003af0       $unwind$pjsip_fromto_hdr_clone 00000001400a4af0     pjsip-core-x86_64-x64-vc14-debug-dynamic:sip_msg.obj
 0002:00003afc       $unwind$pjsip_fromto_hdr_shallow_clone 00000001400a4afc     pjsip-core-x86_64-x64-vc14-debug-dynamic:sip_msg.obj
 0002:00003b04       $unwind$pjsip_routing_hdr_print 00000001400a4b04     pjsip-core-x86_64-x64-vc14-debug-dynamic:sip_msg.obj
 0002:00003b0c       $unwind$pjsip_routing_hdr_clone 00000001400a4b0c     pjsip-core-x86_64-x64-vc14-debug-dynamic:sip_msg.obj
 0002:00003b14       $unwind$pjsip_routing_hdr_shallow_clone 00000001400a4b14     pjsip-core-x86_64-x64-vc14-debug-dynamic:sip_msg.obj
 0002:00003b1c       $unwind$pjsip_retry_after_hdr_print 00000001400a4b1c     pjsip-core-x86_64-x64-vc14-debug-dynamic:sip_msg.obj
 0002:00003b24       $unwind$pjsip_retry_after_hdr_clone 00000001400a4b24     pjsip-core-x86_64-x64-vc14-debug-dynamic:sip_msg.obj
 0002:00003b2c       $unwind$pjsip_retry_after_hdr_shallow_clone 00000001400a4b2c     pjsip-core-x86_64-x64-vc14-debug-dynamic:sip_msg.obj
 0002:00003b34       $unwind$pjsip_via_hdr_print 00000001400a4b34     pjsip-core-x86_64-x64-vc14-debug-dynamic:sip_msg.obj
 0002:00003b3c       $unwind$pjsip_via_hdr_clone 00000001400a4b3c     pjsip-core-x86_64-x64-vc14-debug-dynamic:sip_msg.obj
 0002:00003b44       $unwind$pjsip_via_hdr_shallow_clone 00000001400a4b44     pjsip-core-x86_64-x64-vc14-debug-dynamic:sip_msg.obj
 0002:00003bb8       $unwind$pj_list_empty      00000001400a4bb8     pjsip-core-x86_64-x64-vc14-debug-dynamic:sip_transport.obj
 0002:00003bc0       $unwind$pj_list_push_back  00000001400a4bc0     pjsip-core-x86_64-x64-vc14-debug-dynamic:sip_transport.obj
 0002:00003bc8       $unwind$pjsip_msg_add_hdr  00000001400a4bc8     pjsip-core-x86_64-x64-vc14-debug-dynamic:sip_transport.obj
 0002:00003bd0       $unwind$pjsip_transport_register_type 00000001400a4bd0     pjsip-core-x86_64-x64-vc14-debug-dynamic:sip_transport.obj
 0002:00003bdc       $unwind$pjsip_transport_get_type_from_name 00000001400a4bdc     pjsip-core-x86_64-x64-vc14-debug-dynamic:sip_transport.obj
 0002:00003be4       $unwind$pjsip_transport_get_type_from_flag 00000001400a4be4     pjsip-core-x86_64-x64-vc14-debug-dynamic:sip_transport.obj
 0002:00003bec       $unwind$pjsip_transport_get_flag_from_type 00000001400a4bec     pjsip-core-x86_64-x64-vc14-debug-dynamic:sip_transport.obj
 0002:00003bf4       $unwind$pjsip_transport_get_default_port_for_type 00000001400a4bf4     pjsip-core-x86_64-x64-vc14-debug-dynamic:sip_transport.obj
 0002:00003bfc       $unwind$pjsip_transport_get_type_name 00000001400a4bfc     pjsip-core-x86_64-x64-vc14-debug-dynamic:sip_transport.obj
 0002:00003c04       $unwind$pjsip_transport_get_type_desc 00000001400a4c04     pjsip-core-x86_64-x64-vc14-debug-dynamic:sip_transport.obj
 0002:00003c0c       $unwind$pjsip_tpselector_add_ref 00000001400a4c0c     pjsip-core-x86_64-x64-vc14-debug-dynamic:sip_transport.obj
 0002:00003c14       $unwind$pjsip_tpselector_dec_ref 00000001400a4c14     pjsip-core-x86_64-x64-vc14-debug-dynamic:sip_transport.obj
 0002:00003c1c       $unwind$pjsip_rx_data_get_info 00000001400a4c1c     pjsip-core-x86_64-x64-vc14-debug-dynamic:sip_transport.obj
 0002:00003c2c       $unwind$pjsip_rx_data_clone 00000001400a4c2c     pjsip-core-x86_64-x64-vc14-debug-dynamic:sip_transport.obj
 0002:00003c34       $unwind$pjsip_rx_data_free_cloned 00000001400a4c34     pjsip-core-x86_64-x64-vc14-debug-dynamic:sip_transport.obj
 0002:00003c3c       $unwind$pjsip_tx_data_create 00000001400a4c3c     pjsip-core-x86_64-x64-vc14-debug-dynamic:sip_transport.obj
 0002:00003c44       $unwind$pjsip_tx_data_add_ref 00000001400a4c44     pjsip-core-x86_64-x64-vc14-debug-dynamic:sip_transport.obj
 0002:00003c4c       $unwind$pjsip_tx_data_dec_ref 00000001400a4c4c     pjsip-core-x86_64-x64-vc14-debug-dynamic:sip_transport.obj
 0002:00003c54       $unwind$pjsip_tx_data_encode 00000001400a4c54     pjsip-core-x86_64-x64-vc14-debug-dynamic:sip_transport.obj
 0002:00003c64       $unwind$pjsip_tx_data_is_valid 00000001400a4c64     pjsip-core-x86_64-x64-vc14-debug-dynamic:sip_transport.obj
 0002:00003c6c       $unwind$pjsip_tx_data_get_info 00000001400a4c6c     pjsip-core-x86_64-x64-vc14-debug-dynamic:sip_transport.obj
 0002:00003c74       $unwind$pjsip_tx_data_set_transport 00000001400a4c74     pjsip-core-x86_64-x64-vc14-debug-dynamic:sip_transport.obj
 0002:00003c7c       $unwind$pjsip_tx_data_clone 00000001400a4c7c     pjsip-core-x86_64-x64-vc14-debug-dynamic:sip_transport.obj
 0002:00003c84       $unwind$pjsip_transport_register 00000001400a4c84     pjsip-core-x86_64-x64-vc14-debug-dynamic:sip_transport.obj
 0002:00003c8c       $unwind$pjsip_transport_shutdown 00000001400a4c8c     pjsip-core-x86_64-x64-vc14-debug-dynamic:sip_transport.obj
 0002:00003c94       $unwind$pjsip_transport_shutdown2 00000001400a4c94     pjsip-core-x86_64-x64-vc14-debug-dynamic:sip_transport.obj
 0002:00003c9c       $unwind$pjsip_transport_destroy 00000001400a4c9c     pjsip-core-x86_64-x64-vc14-debug-dynamic:sip_transport.obj
 0002:00003ca4       $unwind$pjsip_transport_add_ref 00000001400a4ca4     pjsip-core-x86_64-x64-vc14-debug-dynamic:sip_transport.obj
 0002:00003cb4       $unwind$pjsip_transport_dec_ref 00000001400a4cb4     pjsip-core-x86_64-x64-vc14-debug-dynamic:sip_transport.obj
 0002:00003cc4       $unwind$pjsip_tpmgr_receive_packet 00000001400a4cc4     pjsip-core-x86_64-x64-vc14-debug-dynamic:sip_transport.obj
 0002:00003cd4       $unwind$pjsip_tpmgr_register_tpfactory 00000001400a4cd4     pjsip-core-x86_64-x64-vc14-debug-dynamic:sip_transport.obj
 0002:00003cdc       $unwind$pjsip_tpmgr_unregister_tpfactory 00000001400a4cdc     pjsip-core-x86_64-x64-vc14-debug-dynamic:sip_transport.obj
 0002:00003ce4       $unwind$pjsip_tpmgr_create 00000001400a4ce4     pjsip-core-x86_64-x64-vc14-debug-dynamic:sip_transport.obj
 0002:00003cec       $unwind$pjsip_tpmgr_find_local_addr 00000001400a4cec     pjsip-core-x86_64-x64-vc14-debug-dynamic:sip_transport.obj
 0002:00003cf8       $unwind$pjsip_tpmgr_fla2_param_default 00000001400a4cf8     pjsip-core-x86_64-x64-vc14-debug-dynamic:sip_transport.obj
 0002:00003d00       $unwind$pjsip_tpmgr_find_local_addr2 00000001400a4d00     pjsip-core-x86_64-x64-vc14-debug-dynamic:sip_transport.obj
 0002:00003d10       $unwind$pjsip_tpmgr_get_transport_count 00000001400a4d10     pjsip-core-x86_64-x64-vc14-debug-dynamic:sip_transport.obj
 0002:00003d18       $unwind$pjsip_tpmgr_destroy 00000001400a4d18     pjsip-core-x86_64-x64-vc14-debug-dynamic:sip_transport.obj
 0002:00003d20       $unwind$pjsip_tpmgr_dump_transports 00000001400a4d20     pjsip-core-x86_64-x64-vc14-debug-dynamic:sip_transport.obj
 0002:00003d28       $unwind$pjsip_tpmgr_acquire_transport 00000001400a4d28     pjsip-core-x86_64-x64-vc14-debug-dynamic:sip_transport.obj
 0002:00003d30       $unwind$pjsip_tpmgr_acquire_transport2 00000001400a4d30     pjsip-core-x86_64-x64-vc14-debug-dynamic:sip_transport.obj
 0002:00003d40       $unwind$pjsip_transport_send 00000001400a4d40     pjsip-core-x86_64-x64-vc14-debug-dynamic:sip_transport.obj
 0002:00003d48       $unwind$pjsip_tpmgr_send_raw 00000001400a4d48     pjsip-core-x86_64-x64-vc14-debug-dynamic:sip_transport.obj
 0002:00003d50       $unwind$pjsip_tpmgr_set_state_cb 00000001400a4d50     pjsip-core-x86_64-x64-vc14-debug-dynamic:sip_transport.obj
 0002:00003d58       $unwind$pjsip_tpmgr_get_state_cb 00000001400a4d58     pjsip-core-x86_64-x64-vc14-debug-dynamic:sip_transport.obj
 0002:00003d60       $unwind$pjsip_transport_add_state_listener 00000001400a4d60     pjsip-core-x86_64-x64-vc14-debug-dynamic:sip_transport.obj
 0002:00003d68       $unwind$pjsip_transport_remove_state_listener 00000001400a4d68     pjsip-core-x86_64-x64-vc14-debug-dynamic:sip_transport.obj
 0002:00003d70       $unwind$pjsip_tpmgr_set_drop_data_cb 00000001400a4d70     pjsip-core-x86_64-x64-vc14-debug-dynamic:sip_transport.obj
 0002:00003d78       $unwind$pj_bzero           00000001400a4d78     pjsip-core-x86_64-x64-vc14-debug-dynamic:sip_transport.obj
 0002:00003d80       $unwind$pj_memcpy          00000001400a4d80     pjsip-core-x86_64-x64-vc14-debug-dynamic:sip_transport.obj
 0002:00003d88       $unwind$pj_pool_zalloc     00000001400a4d88     pjsip-core-x86_64-x64-vc14-debug-dynamic:sip_transport.obj
 0002:00003d90       $unwind$mod_on_tx_msg      00000001400a4d90     pjsip-core-x86_64-x64-vc14-debug-dynamic:sip_transport.obj
 0002:00003d98       $unwind$tp_state_callback  00000001400a4d98     pjsip-core-x86_64-x64-vc14-debug-dynamic:sip_transport.obj
 0002:00003da0       $unwind$get_tpname         00000001400a4da0     pjsip-core-x86_64-x64-vc14-debug-dynamic:sip_transport.obj
 0002:00003da8       $unwind$tx_data_destroy    00000001400a4da8     pjsip-core-x86_64-x64-vc14-debug-dynamic:sip_transport.obj
 0002:00003db0       $unwind$get_msg_info       00000001400a4db0     pjsip-core-x86_64-x64-vc14-debug-dynamic:sip_transport.obj
 0002:00003dc0       $unwind$transport_send_callback 00000001400a4dc0     pjsip-core-x86_64-x64-vc14-debug-dynamic:sip_transport.obj
 0002:00003dc8       $unwind$send_raw_callback  00000001400a4dc8     pjsip-core-x86_64-x64-vc14-debug-dynamic:sip_transport.obj
 0002:00003dd0       $unwind$transport_idle_callback 00000001400a4dd0     pjsip-core-x86_64-x64-vc14-debug-dynamic:sip_transport.obj
 0002:00003dd8       $unwind$is_transport_valid 00000001400a4dd8     pjsip-core-x86_64-x64-vc14-debug-dynamic:sip_transport.obj
 0002:00003de0       $unwind$destroy_transport  00000001400a4de0     pjsip-core-x86_64-x64-vc14-debug-dynamic:sip_transport.obj
 0002:00003de8       $unwind$pjsip_tpmgr_is_tpfactory_valid 00000001400a4de8     pjsip-core-x86_64-x64-vc14-debug-dynamic:sip_transport.obj
 0002:00003df0       $unwind$get_net_interface  00000001400a4df0     pjsip-core-x86_64-x64-vc14-debug-dynamic:sip_transport.obj
 0002:00003e00       $unwind$init_tp_data       00000001400a4e00     pjsip-core-x86_64-x64-vc14-debug-dynamic:sip_transport.obj
 0002:00003e44       $unwind$pj_list_push_back  00000001400a4e44     pjsip-core-x86_64-x64-vc14-debug-dynamic:sip_endpoint.obj
 0002:00003e4c       $unwind$pjsip_endpt_create 00000001400a4e4c     pjsip-core-x86_64-x64-vc14-debug-dynamic:sip_endpoint.obj
 0002:00003e54       $unwind$pjsip_endpt_destroy 00000001400a4e54     pjsip-core-x86_64-x64-vc14-debug-dynamic:sip_endpoint.obj
 0002:00003e5c       $unwind$pjsip_endpt_handle_events 00000001400a4e5c     pjsip-core-x86_64-x64-vc14-debug-dynamic:sip_endpoint.obj
 0002:00003e64       $unwind$pjsip_endpt_handle_events2 00000001400a4e64     pjsip-core-x86_64-x64-vc14-debug-dynamic:sip_endpoint.obj
 0002:00003e6c       $unwind$pjsip_endpt_schedule_timer_dbg 00000001400a4e6c     pjsip-core-x86_64-x64-vc14-debug-dynamic:sip_endpoint.obj
 0002:00003e74       $unwind$pjsip_endpt_schedule_timer_w_grp_lock_dbg 00000001400a4e74     pjsip-core-x86_64-x64-vc14-debug-dynamic:sip_endpoint.obj
 0002:00003e7c       $unwind$pjsip_endpt_cancel_timer 00000001400a4e7c     pjsip-core-x86_64-x64-vc14-debug-dynamic:sip_endpoint.obj
 0002:00003e84       $unwind$pjsip_endpt_register_module 00000001400a4e84     pjsip-core-x86_64-x64-vc14-debug-dynamic:sip_endpoint.obj
 0002:00003e8c       $unwind$pjsip_endpt_unregister_module 00000001400a4e8c     pjsip-core-x86_64-x64-vc14-debug-dynamic:sip_endpoint.obj
 0002:00003e9c       $unwind$pjsip_process_rdata_param_default 00000001400a4e9c     pjsip-core-x86_64-x64-vc14-debug-dynamic:sip_endpoint.obj
 0002:00003ea4       $unwind$pjsip_endpt_process_rx_data 00000001400a4ea4     pjsip-core-x86_64-x64-vc14-debug-dynamic:sip_endpoint.obj
 0002:00003eac       $unwind$pjsip_endpt_create_pool 00000001400a4eac     pjsip-core-x86_64-x64-vc14-debug-dynamic:sip_endpoint.obj
 0002:00003eb4       $unwind$pjsip_endpt_release_pool 00000001400a4eb4     pjsip-core-x86_64-x64-vc14-debug-dynamic:sip_endpoint.obj
 0002:00003ebc       $unwind$pjsip_endpt_create_tdata 00000001400a4ebc     pjsip-core-x86_64-x64-vc14-debug-dynamic:sip_endpoint.obj
 0002:00003ec4       $unwind$pjsip_endpt_create_resolver 00000001400a4ec4     pjsip-core-x86_64-x64-vc14-debug-dynamic:sip_endpoint.obj
 0002:00003ecc       $unwind$pjsip_endpt_set_resolver 00000001400a4ecc     pjsip-core-x86_64-x64-vc14-debug-dynamic:sip_endpoint.obj
 0002:00003ed4       $unwind$pjsip_endpt_set_ext_resolver 00000001400a4ed4     pjsip-core-x86_64-x64-vc14-debug-dynamic:sip_endpoint.obj
 0002:00003edc       $unwind$pjsip_endpt_get_resolver 00000001400a4edc     pjsip-core-x86_64-x64-vc14-debug-dynamic:sip_endpoint.obj
 0002:00003ee4       $unwind$pjsip_endpt_resolve 00000001400a4ee4     pjsip-core-x86_64-x64-vc14-debug-dynamic:sip_endpoint.obj
 0002:00003eec       $unwind$pjsip_endpt_acquire_transport 00000001400a4eec     pjsip-core-x86_64-x64-vc14-debug-dynamic:sip_endpoint.obj
 0002:00003ef4       $unwind$pjsip_endpt_acquire_transport2 00000001400a4ef4     pjsip-core-x86_64-x64-vc14-debug-dynamic:sip_endpoint.obj
 0002:00003efc       $unwind$pjsip_endpt_get_capability 00000001400a4efc     pjsip-core-x86_64-x64-vc14-debug-dynamic:sip_endpoint.obj
 0002:00003f04       $unwind$pjsip_endpt_has_capability 00000001400a4f04     pjsip-core-x86_64-x64-vc14-debug-dynamic:sip_endpoint.obj
 0002:00003f0c       $unwind$pjsip_endpt_add_capability 00000001400a4f0c     pjsip-core-x86_64-x64-vc14-debug-dynamic:sip_endpoint.obj
 0002:00003f14       $unwind$pjsip_endpt_dump   00000001400a4f14     pjsip-core-x86_64-x64-vc14-debug-dynamic:sip_endpoint.obj
 0002:00003f1c       $unwind$pjsip_endpt_atexit 00000001400a4f1c     pjsip-core-x86_64-x64-vc14-debug-dynamic:sip_endpoint.obj
 0002:00003f24       $unwind$pjsip_endpt_log_error 00000001400a4f24     pjsip-core-x86_64-x64-vc14-debug-dynamic:sip_endpoint.obj
 0002:00003f38       $unwind$pj_cstr            00000001400a4f38     pjsip-core-x86_64-x64-vc14-debug-dynamic:sip_endpoint.obj
 0002:00003f40       $unwind$pj_bzero           00000001400a4f40     pjsip-core-x86_64-x64-vc14-debug-dynamic:sip_endpoint.obj
 0002:00003f48       $unwind$pj_pool_zalloc     00000001400a4f48     pjsip-core-x86_64-x64-vc14-debug-dynamic:sip_endpoint.obj
 0002:00003f50       $unwind$pj_pool_factory_dump 00000001400a4f50     pjsip-core-x86_64-x64-vc14-debug-dynamic:sip_endpoint.obj
 0002:00003f58       $unwind$endpt_on_rx_msg    00000001400a4f58     pjsip-core-x86_64-x64-vc14-debug-dynamic:sip_endpoint.obj
 0002:00003f68       $unwind$endpt_on_tx_msg    00000001400a4f68     pjsip-core-x86_64-x64-vc14-debug-dynamic:sip_endpoint.obj
 0002:00003f70       $unwind$unload_module      00000001400a4f70     pjsip-core-x86_64-x64-vc14-debug-dynamic:sip_endpoint.obj
 0002:00003f78       $unwind$pool_callback      00000001400a4f78     pjsip-core-x86_64-x64-vc14-debug-dynamic:sip_endpoint.obj
 0002:00003f80       $unwind$cmp_mod_name       00000001400a4f80     pjsip-core-x86_64-x64-vc14-debug-dynamic:sip_endpoint.obj
 0002:00003fa8       $unwind$pj_list_push_back  00000001400a4fa8     pjsip-core-x86_64-x64-vc14-debug-dynamic:sip_util.obj
 0002:00003fb0       $unwind$pjsip_uri_get_scheme 00000001400a4fb0     pjsip-core-x86_64-x64-vc14-debug-dynamic:sip_util.obj
 0002:00003fb8       $unwind$pjsip_uri_get_uri  00000001400a4fb8     pjsip-core-x86_64-x64-vc14-debug-dynamic:sip_util.obj
 0002:00003fc0       $unwind$pjsip_uri_cmp      00000001400a4fc0     pjsip-core-x86_64-x64-vc14-debug-dynamic:sip_util.obj
 0002:00003fc8       $unwind$pjsip_uri_clone    00000001400a4fc8     pjsip-core-x86_64-x64-vc14-debug-dynamic:sip_util.obj
 0002:00003fd0       $unwind$pjsip_msg_add_hdr  00000001400a4fd0     pjsip-core-x86_64-x64-vc14-debug-dynamic:sip_util.obj
 0002:00003fd8       $unwind$pjsip_msg_insert_first_hdr 00000001400a4fd8     pjsip-core-x86_64-x64-vc14-debug-dynamic:sip_util.obj
 0002:00003fe0       $unwind$pjsip_target_set_add_uri 00000001400a4fe0     pjsip-core-x86_64-x64-vc14-debug-dynamic:sip_util.obj
 0002:00003fe8       $unwind$pjsip_target_set_add_from_msg 00000001400a4fe8     pjsip-core-x86_64-x64-vc14-debug-dynamic:sip_util.obj
 0002:00003ff0       $unwind$pjsip_target_set_get_next 00000001400a4ff0     pjsip-core-x86_64-x64-vc14-debug-dynamic:sip_util.obj
 0002:00003ff8       $unwind$pjsip_target_set_set_current 00000001400a4ff8     pjsip-core-x86_64-x64-vc14-debug-dynamic:sip_util.obj
 0002:00004000       $unwind$pjsip_target_assign_status 00000001400a5000     pjsip-core-x86_64-x64-vc14-debug-dynamic:sip_util.obj
 0002:00004008       $unwind$pjsip_endpt_create_request 00000001400a5008     pjsip-core-x86_64-x64-vc14-debug-dynamic:sip_util.obj
 0002:00004018       $unwind$pjsip_endpt_create_request_from_hdr 00000001400a5018     pjsip-core-x86_64-x64-vc14-debug-dynamic:sip_util.obj
 0002:00004028       $unwind$pjsip_endpt_create_response 00000001400a5028     pjsip-core-x86_64-x64-vc14-debug-dynamic:sip_util.obj
 0002:00004034       $unwind$pjsip_endpt_create_ack 00000001400a5034     pjsip-core-x86_64-x64-vc14-debug-dynamic:sip_util.obj
 0002:0000403c       $unwind$pjsip_endpt_create_cancel 00000001400a503c     pjsip-core-x86_64-x64-vc14-debug-dynamic:sip_util.obj
 0002:00004044       $unwind$pjsip_get_dest_info 00000001400a5044     pjsip-core-x86_64-x64-vc14-debug-dynamic:sip_util.obj
 0002:0000404c       $unwind$pjsip_get_request_dest 00000001400a504c     pjsip-core-x86_64-x64-vc14-debug-dynamic:sip_util.obj
 0002:00004054       $unwind$pjsip_process_route_set 00000001400a5054     pjsip-core-x86_64-x64-vc14-debug-dynamic:sip_util.obj
 0002:0000405c       $unwind$pjsip_restore_strict_route_set 00000001400a505c     pjsip-core-x86_64-x64-vc14-debug-dynamic:sip_util.obj
 0002:00004064       $unwind$pjsip_endpt_send_request_stateless 00000001400a5064     pjsip-core-x86_64-x64-vc14-debug-dynamic:sip_util.obj
 0002:0000406c       $unwind$pjsip_endpt_send_raw 00000001400a506c     pjsip-core-x86_64-x64-vc14-debug-dynamic:sip_util.obj
 0002:00004074       $unwind$pjsip_endpt_send_raw_to_uri 00000001400a5074     pjsip-core-x86_64-x64-vc14-debug-dynamic:sip_util.obj
 0002:0000407c       $unwind$pjsip_get_response_addr 00000001400a507c     pjsip-core-x86_64-x64-vc14-debug-dynamic:sip_util.obj
 0002:00004084       $unwind$pjsip_endpt_send_response 00000001400a5084     pjsip-core-x86_64-x64-vc14-debug-dynamic:sip_util.obj
 0002:0000408c       $unwind$pjsip_endpt_send_response2 00000001400a508c     pjsip-core-x86_64-x64-vc14-debug-dynamic:sip_util.obj
 0002:0000409c       $unwind$pjsip_endpt_respond_stateless 00000001400a509c     pjsip-core-x86_64-x64-vc14-debug-dynamic:sip_util.obj
 0002:000040ac       $unwind$pj_strchr          00000001400a50ac     pjsip-core-x86_64-x64-vc14-debug-dynamic:sip_util.obj
 0002:000040b4       $unwind$pj_bzero           00000001400a50b4     pjsip-core-x86_64-x64-vc14-debug-dynamic:sip_util.obj
 0002:000040bc       $unwind$pj_memcpy          00000001400a50bc     pjsip-core-x86_64-x64-vc14-debug-dynamic:sip_util.obj
 0002:000040c4       $unwind$pj_pool_zalloc     00000001400a50c4     pjsip-core-x86_64-x64-vc14-debug-dynamic:sip_util.obj
 0002:000040cc       $unwind$init_request_throw 00000001400a50cc     pjsip-core-x86_64-x64-vc14-debug-dynamic:sip_util.obj
 0002:000040d8       $unwind$stateless_send_transport_cb 00000001400a50d8     pjsip-core-x86_64-x64-vc14-debug-dynamic:sip_util.obj
 0002:000040e4       $unwind$stateless_send_resolver_callback 00000001400a50e4     pjsip-core-x86_64-x64-vc14-debug-dynamic:sip_util.obj
 0002:000040ec       $unwind$send_raw_resolver_callback 00000001400a50ec     pjsip-core-x86_64-x64-vc14-debug-dynamic:sip_util.obj
 0002:000040f4       $unwind$send_response_transport_cb 00000001400a50f4     pjsip-core-x86_64-x64-vc14-debug-dynamic:sip_util.obj
 0002:000040fc       $unwind$send_response_resolver_cb 00000001400a50fc     pjsip-core-x86_64-x64-vc14-debug-dynamic:sip_util.obj
 0002:00004128       $unwind$pjsip_msg_add_hdr  00000001400a5128     pjsip-core-x86_64-x64-vc14-debug-dynamic:sip_util_statefull.obj
 0002:00004130       $unwind$pjsip_endpt_respond 00000001400a5130     pjsip-core-x86_64-x64-vc14-debug-dynamic:sip_util_statefull.obj
 0002:00004138       $unwind$pjsip_endpt_send_request 00000001400a5138     pjsip-core-x86_64-x64-vc14-debug-dynamic:sip_util_statefull.obj
 0002:00004140       $unwind$mod_util_on_tsx_state 00000001400a5140     pjsip-core-x86_64-x64-vc14-debug-dynamic:sip_util_statefull.obj
 0002:0000414c       $unwind$pjsip_udp_transport_cfg_default 00000001400a514c     pjsip-core-x86_64-x64-vc14-debug-dynamic:sip_transport_udp.obj
 0002:00004154       $unwind$pjsip_udp_transport_start2 00000001400a5154     pjsip-core-x86_64-x64-vc14-debug-dynamic:sip_transport_udp.obj
 0002:00004168       $unwind$pjsip_udp_transport_start 00000001400a5168     pjsip-core-x86_64-x64-vc14-debug-dynamic:sip_transport_udp.obj
 0002:0000417c       $unwind$pjsip_udp_transport_start6 00000001400a517c     pjsip-core-x86_64-x64-vc14-debug-dynamic:sip_transport_udp.obj
 0002:00004190       $unwind$pjsip_udp_transport_attach 00000001400a5190     pjsip-core-x86_64-x64-vc14-debug-dynamic:sip_transport_udp.obj
 0002:00004198       $unwind$pjsip_udp_transport_attach2 00000001400a5198     pjsip-core-x86_64-x64-vc14-debug-dynamic:sip_transport_udp.obj
 0002:000041a0       $unwind$pjsip_udp_transport_get_socket 00000001400a51a0     pjsip-core-x86_64-x64-vc14-debug-dynamic:sip_transport_udp.obj
 0002:000041a8       $unwind$pjsip_udp_transport_pause 00000001400a51a8     pjsip-core-x86_64-x64-vc14-debug-dynamic:sip_transport_udp.obj
 0002:000041b0       $unwind$pjsip_udp_transport_restart 00000001400a51b0     pjsip-core-x86_64-x64-vc14-debug-dynamic:sip_transport_udp.obj
 0002:000041b8       $unwind$pjsip_udp_transport_restart2 00000001400a51b8     pjsip-core-x86_64-x64-vc14-debug-dynamic:sip_transport_udp.obj
 0002:000041c8       $unwind$pj_bzero           00000001400a51c8     pjsip-core-x86_64-x64-vc14-debug-dynamic:sip_transport_udp.obj
 0002:000041d0       $unwind$pj_memset          00000001400a51d0     pjsip-core-x86_64-x64-vc14-debug-dynamic:sip_transport_udp.obj
 0002:000041d8       $unwind$pj_memcpy          00000001400a51d8     pjsip-core-x86_64-x64-vc14-debug-dynamic:sip_transport_udp.obj
 0002:000041e0       $unwind$pj_memcmp          00000001400a51e0     pjsip-core-x86_64-x64-vc14-debug-dynamic:sip_transport_udp.obj
 0002:000041e8       $unwind$init_rdata         00000001400a51e8     pjsip-core-x86_64-x64-vc14-debug-dynamic:sip_transport_udp.obj
 0002:000041f0       $unwind$udp_on_read_complete 00000001400a51f0     pjsip-core-x86_64-x64-vc14-debug-dynamic:sip_transport_udp.obj
 0002:000041f8       $unwind$udp_on_write_complete 00000001400a51f8     pjsip-core-x86_64-x64-vc14-debug-dynamic:sip_transport_udp.obj
 0002:00004200       $unwind$udp_send_msg       00000001400a5200     pjsip-core-x86_64-x64-vc14-debug-dynamic:sip_transport_udp.obj
 0002:00004208       $unwind$udp_on_destroy     00000001400a5208     pjsip-core-x86_64-x64-vc14-debug-dynamic:sip_transport_udp.obj
 0002:00004210       $unwind$udp_destroy        00000001400a5210     pjsip-core-x86_64-x64-vc14-debug-dynamic:sip_transport_udp.obj
 0002:00004218       $unwind$udp_shutdown       00000001400a5218     pjsip-core-x86_64-x64-vc14-debug-dynamic:sip_transport_udp.obj
 0002:00004220       $unwind$create_socket      00000001400a5220     pjsip-core-x86_64-x64-vc14-debug-dynamic:sip_transport_udp.obj
 0002:00004230       $unwind$get_published_name 00000001400a5230     pjsip-core-x86_64-x64-vc14-debug-dynamic:sip_transport_udp.obj
 0002:00004240       $unwind$udp_set_pub_name   00000001400a5240     pjsip-core-x86_64-x64-vc14-debug-dynamic:sip_transport_udp.obj
 0002:00004250       $unwind$udp_set_socket     00000001400a5250     pjsip-core-x86_64-x64-vc14-debug-dynamic:sip_transport_udp.obj
 0002:00004258       $unwind$register_to_ioqueue 00000001400a5258     pjsip-core-x86_64-x64-vc14-debug-dynamic:sip_transport_udp.obj
 0002:00004260       $unwind$start_async_read   00000001400a5260     pjsip-core-x86_64-x64-vc14-debug-dynamic:sip_transport_udp.obj
 0002:00004268       $unwind$transport_attach   00000001400a5268     pjsip-core-x86_64-x64-vc14-debug-dynamic:sip_transport_udp.obj
 0002:0000429c       $unwind$pj_pool_zalloc     00000001400a529c     pjsip-core-x86_64-x64-vc14-debug-dynamic:sip_transport_udp.obj
 0002:000042a4       $unwind$pj_list_empty      00000001400a52a4     pjsip-core-x86_64-x64-vc14-debug-dynamic:sip_transport_tcp.obj
 0002:000042ac       $unwind$pj_list_push_back  00000001400a52ac     pjsip-core-x86_64-x64-vc14-debug-dynamic:sip_transport_tcp.obj
 0002:000042b4       $unwind$pjsip_tcp_transport_cfg_default 00000001400a52b4     pjsip-core-x86_64-x64-vc14-debug-dynamic:sip_transport_tcp.obj
 0002:000042bc       $unwind$pjsip_tcp_transport_start 00000001400a52bc     pjsip-core-x86_64-x64-vc14-debug-dynamic:sip_transport_tcp.obj
 0002:000042c4       $unwind$pjsip_tcp_transport_start2 00000001400a52c4     pjsip-core-x86_64-x64-vc14-debug-dynamic:sip_transport_tcp.obj
 0002:000042d4       $unwind$pjsip_tcp_transport_start3 00000001400a52d4     pjsip-core-x86_64-x64-vc14-debug-dynamic:sip_transport_tcp.obj
 0002:000042dc       $unwind$pjsip_tcp_transport_get_socket 00000001400a52dc     pjsip-core-x86_64-x64-vc14-debug-dynamic:sip_transport_tcp.obj
 0002:000042e4       $unwind$pjsip_tcp_transport_lis_start 00000001400a52e4     pjsip-core-x86_64-x64-vc14-debug-dynamic:sip_transport_tcp.obj
 0002:000042ec       $unwind$pjsip_tcp_transport_restart 00000001400a52ec     pjsip-core-x86_64-x64-vc14-debug-dynamic:sip_transport_tcp.obj
 0002:000042f4       $unwind$pj_pool_zalloc     00000001400a52f4     pjsip-core-x86_64-x64-vc14-debug-dynamic:sip_transport_tcp.obj
 0002:000042fc       $unwind$pj_bzero           00000001400a52fc     pjsip-core-x86_64-x64-vc14-debug-dynamic:sip_transport_tcp.obj
 0002:00004304       $unwind$pj_memcpy          00000001400a5304     pjsip-core-x86_64-x64-vc14-debug-dynamic:sip_transport_tcp.obj
 0002:0000430c       $unwind$pj_memmove         00000001400a530c     pjsip-core-x86_64-x64-vc14-debug-dynamic:sip_transport_tcp.obj
 0002:00004314       $unwind$on_accept_complete 00000001400a5314     pjsip-core-x86_64-x64-vc14-debug-dynamic:sip_transport_tcp.obj
 0002:00004328       $unwind$lis_destroy        00000001400a5328     pjsip-core-x86_64-x64-vc14-debug-dynamic:sip_transport_tcp.obj
 0002:00004330       $unwind$lis_on_destroy     00000001400a5330     pjsip-core-x86_64-x64-vc14-debug-dynamic:sip_transport_tcp.obj
 0002:00004338       $unwind$lis_create_transport 00000001400a5338     pjsip-core-x86_64-x64-vc14-debug-dynamic:sip_transport_tcp.obj
 0002:00004348       $unwind$tcp_create         00000001400a5348     pjsip-core-x86_64-x64-vc14-debug-dynamic:sip_transport_tcp.obj
 0002:0000435c       $unwind$tcp_perror         00000001400a535c     pjsip-core-x86_64-x64-vc14-debug-dynamic:sip_transport_tcp.obj
 0002:00004364       $unwind$sockaddr_to_host_port 00000001400a5364     pjsip-core-x86_64-x64-vc14-debug-dynamic:sip_transport_tcp.obj
 0002:0000436c       $unwind$tcp_init_shutdown  00000001400a536c     pjsip-core-x86_64-x64-vc14-debug-dynamic:sip_transport_tcp.obj
 0002:00004374       $unwind$update_bound_addr  00000001400a5374     pjsip-core-x86_64-x64-vc14-debug-dynamic:sip_transport_tcp.obj
 0002:0000437c       $unwind$update_factory_addr 00000001400a537c     pjsip-core-x86_64-x64-vc14-debug-dynamic:sip_transport_tcp.obj
 0002:00004390       $unwind$update_transport_info 00000001400a5390     pjsip-core-x86_64-x64-vc14-debug-dynamic:sip_transport_tcp.obj
 0002:000043a0       $unwind$lis_close          00000001400a53a0     pjsip-core-x86_64-x64-vc14-debug-dynamic:sip_transport_tcp.obj
 0002:000043a8       $unwind$tcp_send_msg       00000001400a53a8     pjsip-core-x86_64-x64-vc14-debug-dynamic:sip_transport_tcp.obj
 0002:000043b0       $unwind$tcp_shutdown       00000001400a53b0     pjsip-core-x86_64-x64-vc14-debug-dynamic:sip_transport_tcp.obj
 0002:000043b8       $unwind$tcp_destroy_transport 00000001400a53b8     pjsip-core-x86_64-x64-vc14-debug-dynamic:sip_transport_tcp.obj
 0002:000043c0       $unwind$tcp_destroy        00000001400a53c0     pjsip-core-x86_64-x64-vc14-debug-dynamic:sip_transport_tcp.obj
 0002:000043c8       $unwind$on_data_read       00000001400a53c8     pjsip-core-x86_64-x64-vc14-debug-dynamic:sip_transport_tcp.obj
 0002:000043d0       $unwind$on_data_sent       00000001400a53d0     pjsip-core-x86_64-x64-vc14-debug-dynamic:sip_transport_tcp.obj
 0002:000043d8       $unwind$on_connect_complete 00000001400a53d8     pjsip-core-x86_64-x64-vc14-debug-dynamic:sip_transport_tcp.obj
 0002:000043ec       $unwind$tcp_keep_alive_timer 00000001400a53ec     pjsip-core-x86_64-x64-vc14-debug-dynamic:sip_transport_tcp.obj
 0002:000043fc       $unwind$tcp_initial_timer  00000001400a53fc     pjsip-core-x86_64-x64-vc14-debug-dynamic:sip_transport_tcp.obj
 0002:00004404       $unwind$tcp_on_destroy     00000001400a5404     pjsip-core-x86_64-x64-vc14-debug-dynamic:sip_transport_tcp.obj
 0002:00004414       $unwind$tcp_flush_pending_tx 00000001400a5414     pjsip-core-x86_64-x64-vc14-debug-dynamic:sip_transport_tcp.obj
 0002:0000441c       $unwind$tcp_start_read     00000001400a541c     pjsip-core-x86_64-x64-vc14-debug-dynamic:sip_transport_tcp.obj
 0002:00004450       $unwind$pjsip_msg_insert_first_hdr 00000001400a5450     pjsip-core-x86_64-x64-vc14-debug-dynamic:sip_transaction.obj
 0002:00004458       $unwind$pjsip_tsx_layer_init_module 00000001400a5458     pjsip-core-x86_64-x64-vc14-debug-dynamic:sip_transaction.obj
 0002:00004460       $unwind$pjsip_tsx_layer_destroy 00000001400a5460     pjsip-core-x86_64-x64-vc14-debug-dynamic:sip_transaction.obj
 0002:00004468       $unwind$pjsip_tsx_layer_get_tsx_count 00000001400a5468     pjsip-core-x86_64-x64-vc14-debug-dynamic:sip_transaction.obj
 0002:00004470       $unwind$pjsip_tsx_layer_find_tsx 00000001400a5470     pjsip-core-x86_64-x64-vc14-debug-dynamic:sip_transaction.obj
 0002:00004478       $unwind$pjsip_tsx_layer_find_tsx2 00000001400a5478     pjsip-core-x86_64-x64-vc14-debug-dynamic:sip_transaction.obj
 0002:00004480       $unwind$pjsip_tsx_create_uac 00000001400a5480     pjsip-core-x86_64-x64-vc14-debug-dynamic:sip_transaction.obj
 0002:00004488       $unwind$pjsip_tsx_create_uac2 00000001400a5488     pjsip-core-x86_64-x64-vc14-debug-dynamic:sip_transaction.obj
 0002:00004494       $unwind$pjsip_tsx_create_uas 00000001400a5494     pjsip-core-x86_64-x64-vc14-debug-dynamic:sip_transaction.obj
 0002:0000449c       $unwind$pjsip_tsx_create_uas2 00000001400a549c     pjsip-core-x86_64-x64-vc14-debug-dynamic:sip_transaction.obj
 0002:000044a4       $unwind$pjsip_tsx_set_transport 00000001400a54a4     pjsip-core-x86_64-x64-vc14-debug-dynamic:sip_transaction.obj
 0002:000044ac       $unwind$pjsip_tsx_recv_msg 00000001400a54ac     pjsip-core-x86_64-x64-vc14-debug-dynamic:sip_transaction.obj
 0002:000044b4       $unwind$pjsip_tsx_send_msg 00000001400a54b4     pjsip-core-x86_64-x64-vc14-debug-dynamic:sip_transaction.obj
 0002:000044bc       $unwind$pjsip_tsx_retransmit_no_state 00000001400a54bc     pjsip-core-x86_64-x64-vc14-debug-dynamic:sip_transaction.obj
 0002:000044c4       $unwind$pjsip_tsx_create_key 00000001400a54c4     pjsip-core-x86_64-x64-vc14-debug-dynamic:sip_transaction.obj
 0002:000044cc       $unwind$pjsip_tsx_terminate 00000001400a54cc     pjsip-core-x86_64-x64-vc14-debug-dynamic:sip_transaction.obj
 0002:000044d4       $unwind$pjsip_tsx_stop_retransmit 00000001400a54d4     pjsip-core-x86_64-x64-vc14-debug-dynamic:sip_transaction.obj
 0002:000044dc       $unwind$pjsip_tsx_set_timeout 00000001400a54dc     pjsip-core-x86_64-x64-vc14-debug-dynamic:sip_transaction.obj
 0002:000044e4       $unwind$pjsip_tsx_layer_dump 00000001400a54e4     pjsip-core-x86_64-x64-vc14-debug-dynamic:sip_transaction.obj
 0002:000044ec       $unwind$pj_pool_zalloc     00000001400a54ec     pjsip-core-x86_64-x64-vc14-debug-dynamic:sip_transaction.obj
 0002:000044f4       $unwind$pj_bzero           00000001400a54f4     pjsip-core-x86_64-x64-vc14-debug-dynamic:sip_transaction.obj
 0002:000044fc       $unwind$pj_memcpy          00000001400a54fc     pjsip-core-x86_64-x64-vc14-debug-dynamic:sip_transaction.obj
 0002:00004504       $unwind$mod_tsx_layer_stop 00000001400a5504     pjsip-core-x86_64-x64-vc14-debug-dynamic:sip_transaction.obj
 0002:0000450c       $unwind$mod_tsx_layer_unload 00000001400a550c     pjsip-core-x86_64-x64-vc14-debug-dynamic:sip_transaction.obj
 0002:00004514       $unwind$mod_tsx_layer_on_rx_request 00000001400a5514     pjsip-core-x86_64-x64-vc14-debug-dynamic:sip_transaction.obj
 0002:0000451c       $unwind$mod_tsx_layer_on_rx_response 00000001400a551c     pjsip-core-x86_64-x64-vc14-debug-dynamic:sip_transaction.obj
 0002:00004524       $unwind$tsx_on_state_null  00000001400a5524     pjsip-core-x86_64-x64-vc14-debug-dynamic:sip_transaction.obj
 0002:0000452c       $unwind$tsx_on_state_calling 00000001400a552c     pjsip-core-x86_64-x64-vc14-debug-dynamic:sip_transaction.obj
 0002:00004534       $unwind$tsx_on_state_trying 00000001400a5534     pjsip-core-x86_64-x64-vc14-debug-dynamic:sip_transaction.obj
 0002:0000453c       $unwind$tsx_on_state_proceeding_uas 00000001400a553c     pjsip-core-x86_64-x64-vc14-debug-dynamic:sip_transaction.obj
 0002:00004544       $unwind$tsx_on_state_proceeding_uac 00000001400a5544     pjsip-core-x86_64-x64-vc14-debug-dynamic:sip_transaction.obj
 0002:0000454c       $unwind$tsx_on_state_completed_uas 00000001400a554c     pjsip-core-x86_64-x64-vc14-debug-dynamic:sip_transaction.obj
 0002:00004554       $unwind$tsx_on_state_completed_uac 00000001400a5554     pjsip-core-x86_64-x64-vc14-debug-dynamic:sip_transaction.obj
 0002:0000455c       $unwind$tsx_on_state_confirmed 00000001400a555c     pjsip-core-x86_64-x64-vc14-debug-dynamic:sip_transaction.obj
 0002:00004564       $unwind$tsx_on_state_terminated 00000001400a5564     pjsip-core-x86_64-x64-vc14-debug-dynamic:sip_transaction.obj
 0002:0000456c       $unwind$tsx_timer_callback 00000001400a556c     pjsip-core-x86_64-x64-vc14-debug-dynamic:sip_transaction.obj
 0002:00004580       $unwind$tsx_tp_state_callback 00000001400a5580     pjsip-core-x86_64-x64-vc14-debug-dynamic:sip_transaction.obj
 0002:00004588       $unwind$tsx_set_state      00000001400a5588     pjsip-core-x86_64-x64-vc14-debug-dynamic:sip_transaction.obj
 0002:00004590       $unwind$tsx_set_status_code 00000001400a5590     pjsip-core-x86_64-x64-vc14-debug-dynamic:sip_transaction.obj
 0002:0000459c       $unwind$tsx_create         00000001400a559c     pjsip-core-x86_64-x64-vc14-debug-dynamic:sip_transaction.obj
 0002:000045a4       $unwind$tsx_on_destroy     00000001400a55a4     pjsip-core-x86_64-x64-vc14-debug-dynamic:sip_transaction.obj
 0002:000045ac       $unwind$tsx_shutdown       00000001400a55ac     pjsip-core-x86_64-x64-vc14-debug-dynamic:sip_transaction.obj
 0002:000045b4       $unwind$tsx_resched_retransmission 00000001400a55b4     pjsip-core-x86_64-x64-vc14-debug-dynamic:sip_transaction.obj
 0002:000045bc       $unwind$tsx_retransmit     00000001400a55bc     pjsip-core-x86_64-x64-vc14-debug-dynamic:sip_transaction.obj
 0002:000045c4       $unwind$tsx_send_msg       00000001400a55c4     pjsip-core-x86_64-x64-vc14-debug-dynamic:sip_transaction.obj
 0002:000045d8       $unwind$tsx_update_transport 00000001400a55d8     pjsip-core-x86_64-x64-vc14-debug-dynamic:sip_transaction.obj
 0002:000045e0       $unwind$create_tsx_key_2543 00000001400a55e0     pjsip-core-x86_64-x64-vc14-debug-dynamic:sip_transaction.obj
 0002:000045e8       $unwind$create_tsx_key_3261 00000001400a55e8     pjsip-core-x86_64-x64-vc14-debug-dynamic:sip_transaction.obj
 0002:000045f0       $unwind$mod_tsx_layer_register_tsx 00000001400a55f0     pjsip-core-x86_64-x64-vc14-debug-dynamic:sip_transaction.obj
 0002:000045f8       $unwind$mod_tsx_layer_unregister_tsx 00000001400a55f8     pjsip-core-x86_64-x64-vc14-debug-dynamic:sip_transaction.obj
 0002:00004600       $unwind$find_tsx           00000001400a5600     pjsip-core-x86_64-x64-vc14-debug-dynamic:sip_transaction.obj
 0002:00004608       $unwind$tsx_layer_destroy  00000001400a5608     pjsip-core-x86_64-x64-vc14-debug-dynamic:sip_transaction.obj
 0002:00004610       $unwind$lock_timer         00000001400a5610     pjsip-core-x86_64-x64-vc14-debug-dynamic:sip_transaction.obj
 0002:00004618       $unwind$unlock_timer       00000001400a5618     pjsip-core-x86_64-x64-vc14-debug-dynamic:sip_transaction.obj
 0002:00004620       $unwind$tsx_schedule_timer 00000001400a5620     pjsip-core-x86_64-x64-vc14-debug-dynamic:sip_transaction.obj
 0002:00004628       $unwind$tsx_cancel_timer   00000001400a5628     pjsip-core-x86_64-x64-vc14-debug-dynamic:sip_transaction.obj
 0002:00004630       $unwind$send_msg_callback  00000001400a5630     pjsip-core-x86_64-x64-vc14-debug-dynamic:sip_transaction.obj
 0002:00004644       $unwind$transport_callback 00000001400a5644     pjsip-core-x86_64-x64-vc14-debug-dynamic:sip_transaction.obj
 0002:00004680       $unwind$pjsip_ua_init_module 00000001400a5680     pjsip-core-x86_64-x64-vc14-debug-dynamic:sip_ua_layer.obj
 0002:00004688       $unwind$pjsip_ua_get_dlg_set_count 00000001400a5688     pjsip-core-x86_64-x64-vc14-debug-dynamic:sip_ua_layer.obj
 0002:00004690       $unwind$pjsip_ua_find_dialog 00000001400a5690     pjsip-core-x86_64-x64-vc14-debug-dynamic:sip_ua_layer.obj
 0002:00004698       $unwind$pjsip_ua_destroy   00000001400a5698     pjsip-core-x86_64-x64-vc14-debug-dynamic:sip_ua_layer.obj
 0002:000046a0       $unwind$pjsip_ua_dump      00000001400a56a0     pjsip-core-x86_64-x64-vc14-debug-dynamic:sip_ua_layer.obj
 0002:000046b0       $unwind$pjsip_ua_get_endpt 00000001400a56b0     pjsip-core-x86_64-x64-vc14-debug-dynamic:sip_ua_layer.obj
 0002:000046b8       $unwind$pjsip_ua_register_dlg 00000001400a56b8     pjsip-core-x86_64-x64-vc14-debug-dynamic:sip_ua_layer.obj
 0002:000046c0       $unwind$pjsip_ua_unregister_dlg 00000001400a56c0     pjsip-core-x86_64-x64-vc14-debug-dynamic:sip_ua_layer.obj
 0002:000046c8       $unwind$pj_list_empty      00000001400a56c8     pjsip-core-x86_64-x64-vc14-debug-dynamic:sip_ua_layer.obj
 0002:000046d0       $unwind$pj_list_push_back  00000001400a56d0     pjsip-core-x86_64-x64-vc14-debug-dynamic:sip_ua_layer.obj
 0002:000046d8       $unwind$pj_memcpy          00000001400a56d8     pjsip-core-x86_64-x64-vc14-debug-dynamic:sip_ua_layer.obj
 0002:000046e0       $unwind$mod_ua_load        00000001400a56e0     pjsip-core-x86_64-x64-vc14-debug-dynamic:sip_ua_layer.obj
 0002:000046e8       $unwind$mod_ua_unload      00000001400a56e8     pjsip-core-x86_64-x64-vc14-debug-dynamic:sip_ua_layer.obj
 0002:000046f0       $unwind$mod_ua_on_rx_request 00000001400a56f0     pjsip-core-x86_64-x64-vc14-debug-dynamic:sip_ua_layer.obj
 0002:000046f8       $unwind$mod_ua_on_rx_response 00000001400a56f8     pjsip-core-x86_64-x64-vc14-debug-dynamic:sip_ua_layer.obj
 0002:00004700       $unwind$mod_ua_on_tsx_state 00000001400a5700     pjsip-core-x86_64-x64-vc14-debug-dynamic:sip_ua_layer.obj
 0002:00004708       $unwind$alloc_dlgset_node  00000001400a5708     pjsip-core-x86_64-x64-vc14-debug-dynamic:sip_ua_layer.obj
 0002:00004710       $unwind$find_dlg_set_for_msg 00000001400a5710     pjsip-core-x86_64-x64-vc14-debug-dynamic:sip_ua_layer.obj
 0002:00004718       $unwind$print_dialog       00000001400a5718     pjsip-core-x86_64-x64-vc14-debug-dynamic:sip_ua_layer.obj
 0002:00004738       $unwind$pj_list_empty      00000001400a5738     pjsip-core-x86_64-x64-vc14-debug-dynamic:sip_dialog.obj
 0002:00004740       $unwind$pj_list_push_back  00000001400a5740     pjsip-core-x86_64-x64-vc14-debug-dynamic:sip_dialog.obj
 0002:00004748       $unwind$pjsip_uri_get_scheme 00000001400a5748     pjsip-core-x86_64-x64-vc14-debug-dynamic:sip_dialog.obj
 0002:00004750       $unwind$pjsip_uri_get_uri  00000001400a5750     pjsip-core-x86_64-x64-vc14-debug-dynamic:sip_dialog.obj
 0002:00004758       $unwind$pjsip_uri_cmp      00000001400a5758     pjsip-core-x86_64-x64-vc14-debug-dynamic:sip_dialog.obj
 0002:00004760       $unwind$pjsip_uri_print    00000001400a5760     pjsip-core-x86_64-x64-vc14-debug-dynamic:sip_dialog.obj
 0002:00004768       $unwind$pjsip_uri_clone    00000001400a5768     pjsip-core-x86_64-x64-vc14-debug-dynamic:sip_dialog.obj
 0002:00004770       $unwind$pjsip_msg_add_hdr  00000001400a5770     pjsip-core-x86_64-x64-vc14-debug-dynamic:sip_dialog.obj
 0002:00004778       $unwind$pjsip_target_set_init 00000001400a5778     pjsip-core-x86_64-x64-vc14-debug-dynamic:sip_dialog.obj
 0002:00004780       $unwind$pjsip_method_creates_dialog 00000001400a5780     pjsip-core-x86_64-x64-vc14-debug-dynamic:sip_dialog.obj
 0002:00004788       $unwind$pjsip_dlg_create_uac 00000001400a5788     pjsip-core-x86_64-x64-vc14-debug-dynamic:sip_dialog.obj
 0002:00004794       $unwind$pjsip_dlg_create_uac2 00000001400a5794     pjsip-core-x86_64-x64-vc14-debug-dynamic:sip_dialog.obj
 0002:000047a0       $unwind$pjsip_dlg_create_uas_and_inc_lock 00000001400a57a0     pjsip-core-x86_64-x64-vc14-debug-dynamic:sip_dialog.obj
 0002:000047a8       $unwind$pjsip_dlg_set_transport 00000001400a57a8     pjsip-core-x86_64-x64-vc14-debug-dynamic:sip_dialog.obj
 0002:000047b0       $unwind$pjsip_dlg_set_via_sent_by 00000001400a57b0     pjsip-core-x86_64-x64-vc14-debug-dynamic:sip_dialog.obj
 0002:000047b8       $unwind$pjsip_dlg_fork     00000001400a57b8     pjsip-core-x86_64-x64-vc14-debug-dynamic:sip_dialog.obj
 0002:000047c0       $unwind$pjsip_dlg_terminate 00000001400a57c0     pjsip-core-x86_64-x64-vc14-debug-dynamic:sip_dialog.obj
 0002:000047c8       $unwind$pjsip_dlg_set_route_set 00000001400a57c8     pjsip-core-x86_64-x64-vc14-debug-dynamic:sip_dialog.obj
 0002:000047d0       $unwind$pjsip_dlg_inc_session 00000001400a57d0     pjsip-core-x86_64-x64-vc14-debug-dynamic:sip_dialog.obj
 0002:000047d8       $unwind$pjsip_dlg_dec_session 00000001400a57d8     pjsip-core-x86_64-x64-vc14-debug-dynamic:sip_dialog.obj
 0002:000047e0       $unwind$pjsip_dlg_add_usage 00000001400a57e0     pjsip-core-x86_64-x64-vc14-debug-dynamic:sip_dialog.obj
 0002:000047e8       $unwind$pjsip_dlg_has_usage 00000001400a57e8     pjsip-core-x86_64-x64-vc14-debug-dynamic:sip_dialog.obj
 0002:000047f0       $unwind$pjsip_dlg_set_mod_data 00000001400a57f0     pjsip-core-x86_64-x64-vc14-debug-dynamic:sip_dialog.obj
 0002:000047f8       $unwind$pjsip_dlg_get_mod_data 00000001400a57f8     pjsip-core-x86_64-x64-vc14-debug-dynamic:sip_dialog.obj
 0002:00004800       $unwind$pjsip_dlg_inc_lock 00000001400a5800     pjsip-core-x86_64-x64-vc14-debug-dynamic:sip_dialog.obj
 0002:00004808       $unwind$pjsip_dlg_try_inc_lock 00000001400a5808     pjsip-core-x86_64-x64-vc14-debug-dynamic:sip_dialog.obj
 0002:00004810       $unwind$pjsip_dlg_dec_lock 00000001400a5810     pjsip-core-x86_64-x64-vc14-debug-dynamic:sip_dialog.obj
 0002:00004818       $unwind$pjsip_dlg_get_lock 00000001400a5818     pjsip-core-x86_64-x64-vc14-debug-dynamic:sip_dialog.obj
 0002:00004820       $unwind$pjsip_dlg_create_request 00000001400a5820     pjsip-core-x86_64-x64-vc14-debug-dynamic:sip_dialog.obj
 0002:00004830       $unwind$pjsip_dlg_send_request 00000001400a5830     pjsip-core-x86_64-x64-vc14-debug-dynamic:sip_dialog.obj
 0002:0000483c       $unwind$pjsip_dlg_create_response 00000001400a583c     pjsip-core-x86_64-x64-vc14-debug-dynamic:sip_dialog.obj
 0002:00004844       $unwind$pjsip_dlg_modify_response 00000001400a5844     pjsip-core-x86_64-x64-vc14-debug-dynamic:sip_dialog.obj
 0002:00004850       $unwind$pjsip_dlg_send_response 00000001400a5850     pjsip-core-x86_64-x64-vc14-debug-dynamic:sip_dialog.obj
 0002:00004858       $unwind$pjsip_dlg_respond  00000001400a5858     pjsip-core-x86_64-x64-vc14-debug-dynamic:sip_dialog.obj
 0002:00004860       $unwind$pjsip_dlg_remote_has_cap 00000001400a5860     pjsip-core-x86_64-x64-vc14-debug-dynamic:sip_dialog.obj
 0002:00004868       $unwind$pjsip_dlg_get_remote_cap_hdr 00000001400a5868     pjsip-core-x86_64-x64-vc14-debug-dynamic:sip_dialog.obj
 0002:00004870       $unwind$pjsip_dlg_set_remote_cap_hdr 00000001400a5870     pjsip-core-x86_64-x64-vc14-debug-dynamic:sip_dialog.obj
 0002:00004878       $unwind$pjsip_dlg_remove_remote_cap_hdr 00000001400a5878     pjsip-core-x86_64-x64-vc14-debug-dynamic:sip_dialog.obj
 0002:00004880       $unwind$pjsip_dlg_update_remote_cap 00000001400a5880     pjsip-core-x86_64-x64-vc14-debug-dynamic:sip_dialog.obj
 0002:00004894       $unwind$pjsip_dlg_on_tsx_state 00000001400a5894     pjsip-core-x86_64-x64-vc14-debug-dynamic:sip_dialog.obj
 0002:0000489c       $unwind$pjsip_dlg_on_rx_request 00000001400a589c     pjsip-core-x86_64-x64-vc14-debug-dynamic:sip_dialog.obj
 0002:000048b0       $unwind$pjsip_dlg_on_rx_response 00000001400a58b0     pjsip-core-x86_64-x64-vc14-debug-dynamic:sip_dialog.obj
 0002:000048b8       $unwind$pj_bzero           00000001400a58b8     pjsip-core-x86_64-x64-vc14-debug-dynamic:sip_dialog.obj
 0002:000048c0       $unwind$pj_memcpy          00000001400a58c0     pjsip-core-x86_64-x64-vc14-debug-dynamic:sip_dialog.obj
 0002:000048c8       $unwind$pj_pool_zalloc     00000001400a58c8     pjsip-core-x86_64-x64-vc14-debug-dynamic:sip_dialog.obj
 0002:000048d0       $unwind$dlg_on_destroy     00000001400a58d0     pjsip-core-x86_64-x64-vc14-debug-dynamic:sip_dialog.obj
 0002:000048d8       $unwind$create_dialog      00000001400a58d8     pjsip-core-x86_64-x64-vc14-debug-dynamic:sip_dialog.obj
 0002:000048e0       $unwind$destroy_dialog     00000001400a58e0     pjsip-core-x86_64-x64-vc14-debug-dynamic:sip_dialog.obj
 0002:000048e8       $unwind$create_uas_dialog  00000001400a58e8     pjsip-core-x86_64-x64-vc14-debug-dynamic:sip_dialog.obj
 0002:000048f0       $unwind$unregister_and_destroy_dialog 00000001400a58f0     pjsip-core-x86_64-x64-vc14-debug-dynamic:sip_dialog.obj
 0002:000048f8       $unwind$dlg_create_request_throw 00000001400a58f8     pjsip-core-x86_64-x64-vc14-debug-dynamic:sip_dialog.obj
 0002:00004900       $unwind$send_ack_callback  00000001400a5900     pjsip-core-x86_64-x64-vc14-debug-dynamic:sip_dialog.obj
 0002:00004908       $unwind$dlg_beautify_response 00000001400a5908     pjsip-core-x86_64-x64-vc14-debug-dynamic:sip_dialog.obj
 0002:00004914       $unwind$dlg_update_routeset 00000001400a5914     pjsip-core-x86_64-x64-vc14-debug-dynamic:sip_dialog.obj
 0002:0000494c       $unwind$pjsip_uri_print    00000001400a594c     pjsip-core-x86_64-x64-vc14-debug-dynamic:sip_auth_client.obj
 0002:00004954       $unwind$pjsip_msg_add_hdr  00000001400a5954     pjsip-core-x86_64-x64-vc14-debug-dynamic:sip_auth_client.obj
 0002:0000495c       $unwind$pjsip_auth_clt_pref_dup 00000001400a595c     pjsip-core-x86_64-x64-vc14-debug-dynamic:sip_auth_client.obj
 0002:00004964       $unwind$pjsip_cred_info_dup 00000001400a5964     pjsip-core-x86_64-x64-vc14-debug-dynamic:sip_auth_client.obj
 0002:0000496c       $unwind$pjsip_cred_info_cmp 00000001400a596c     pjsip-core-x86_64-x64-vc14-debug-dynamic:sip_auth_client.obj
 0002:00004974       $unwind$pjsip_auth_clt_init 00000001400a5974     pjsip-core-x86_64-x64-vc14-debug-dynamic:sip_auth_client.obj
 0002:0000497c       $unwind$pjsip_auth_clt_deinit 00000001400a597c     pjsip-core-x86_64-x64-vc14-debug-dynamic:sip_auth_client.obj
 0002:00004984       $unwind$pjsip_auth_clt_clone 00000001400a5984     pjsip-core-x86_64-x64-vc14-debug-dynamic:sip_auth_client.obj
 0002:0000498c       $unwind$pjsip_auth_clt_set_credentials 00000001400a598c     pjsip-core-x86_64-x64-vc14-debug-dynamic:sip_auth_client.obj
 0002:00004994       $unwind$pjsip_auth_clt_set_prefs 00000001400a5994     pjsip-core-x86_64-x64-vc14-debug-dynamic:sip_auth_client.obj
 0002:0000499c       $unwind$pjsip_auth_clt_get_prefs 00000001400a599c     pjsip-core-x86_64-x64-vc14-debug-dynamic:sip_auth_client.obj
 0002:000049a4       $unwind$pjsip_auth_clt_init_req 00000001400a59a4     pjsip-core-x86_64-x64-vc14-debug-dynamic:sip_auth_client.obj
 0002:000049ac       $unwind$pjsip_auth_clt_reinit_req 00000001400a59ac     pjsip-core-x86_64-x64-vc14-debug-dynamic:sip_auth_client.obj
 0002:000049b4       $unwind$pjsip_auth_create_digest 00000001400a59b4     pjsip-core-x86_64-x64-vc14-debug-dynamic:sip_auth_client.obj
 0002:000049c4       $unwind$pj_strchr          00000001400a59c4     pjsip-core-x86_64-x64-vc14-debug-dynamic:sip_auth_client.obj
 0002:000049cc       $unwind$pj_memcpy          00000001400a59cc     pjsip-core-x86_64-x64-vc14-debug-dynamic:sip_auth_client.obj
 0002:000049d4       $unwind$pj_pool_zalloc     00000001400a59d4     pjsip-core-x86_64-x64-vc14-debug-dynamic:sip_auth_client.obj
 0002:000049dc       $unwind$pj_tolower         00000001400a59dc     pjsip-core-x86_64-x64-vc14-debug-dynamic:sip_auth_client.obj
 0002:000049e4       $unwind$dup_bin            00000001400a59e4     pjsip-core-x86_64-x64-vc14-debug-dynamic:sip_auth_client.obj
 0002:000049ec       $unwind$digest2str         00000001400a59ec     pjsip-core-x86_64-x64-vc14-debug-dynamic:sip_auth_client.obj
 0002:000049f4       $unwind$has_auth_qop       00000001400a59f4     pjsip-core-x86_64-x64-vc14-debug-dynamic:sip_auth_client.obj
 0002:000049fc       $unwind$respond_digest     00000001400a59fc     pjsip-core-x86_64-x64-vc14-debug-dynamic:sip_auth_client.obj
 0002:00004a08       $unwind$update_digest_session 00000001400a5a08     pjsip-core-x86_64-x64-vc14-debug-dynamic:sip_auth_client.obj
 0002:00004a10       $unwind$find_cached_auth   00000001400a5a10     pjsip-core-x86_64-x64-vc14-debug-dynamic:sip_auth_client.obj
 0002:00004a18       $unwind$auth_find_cred     00000001400a5a18     pjsip-core-x86_64-x64-vc14-debug-dynamic:sip_auth_client.obj
 0002:00004a20       $unwind$auth_respond       00000001400a5a20     pjsip-core-x86_64-x64-vc14-debug-dynamic:sip_auth_client.obj
 0002:00004a34       $unwind$get_header_for_realm 00000001400a5a34     pjsip-core-x86_64-x64-vc14-debug-dynamic:sip_auth_client.obj
 0002:00004a3c       $unwind$recreate_cached_auth_pool 00000001400a5a3c     pjsip-core-x86_64-x64-vc14-debug-dynamic:sip_auth_client.obj
 0002:00004a44       $unwind$process_auth       00000001400a5a44     pjsip-core-x86_64-x64-vc14-debug-dynamic:sip_auth_client.obj
 0002:00004a68       $unwind$pj_list_push_back  00000001400a5a68     pjsip-core-x86_64-x64-vc14-debug-dynamic:sip_parser.obj
 0002:00004a70       $unwind$pj_cis_match       00000001400a5a70     pjsip-core-x86_64-x64-vc14-debug-dynamic:sip_parser.obj
 0002:00004a78       $unwind$pj_scan_is_eof     00000001400a5a78     pjsip-core-x86_64-x64-vc14-debug-dynamic:sip_parser.obj
 0002:00004a80       $unwind$pjsip_register_hdr_parser 00000001400a5a80     pjsip-core-x86_64-x64-vc14-debug-dynamic:sip_parser.obj
 0002:00004a90       $unwind$pjsip_register_uri_parser 00000001400a5a90     pjsip-core-x86_64-x64-vc14-debug-dynamic:sip_parser.obj
 0002:00004a9c       $unwind$pjsip_parse_uri    00000001400a5a9c     pjsip-core-x86_64-x64-vc14-debug-dynamic:sip_parser.obj
 0002:00004aac       $unwind$pjsip_parse_status_line 00000001400a5aac     pjsip-core-x86_64-x64-vc14-debug-dynamic:sip_parser.obj
 0002:00004abc       $unwind$pjsip_parse_msg    00000001400a5abc     pjsip-core-x86_64-x64-vc14-debug-dynamic:sip_parser.obj
 0002:00004ac4       $unwind$pjsip_parse_rdata  00000001400a5ac4     pjsip-core-x86_64-x64-vc14-debug-dynamic:sip_parser.obj
 0002:00004acc       $unwind$pjsip_find_msg     00000001400a5acc     pjsip-core-x86_64-x64-vc14-debug-dynamic:sip_parser.obj
 0002:00004adc       $unwind$pjsip_parse_hdr    00000001400a5adc     pjsip-core-x86_64-x64-vc14-debug-dynamic:sip_parser.obj
 0002:00004af0       $unwind$pjsip_parse_headers 00000001400a5af0     pjsip-core-x86_64-x64-vc14-debug-dynamic:sip_parser.obj
 0002:00004b04       $unwind$pjsip_parse_param_imp 00000001400a5b04     pjsip-core-x86_64-x64-vc14-debug-dynamic:sip_parser.obj
 0002:00004b0c       $unwind$pjsip_parse_uri_param_imp 00000001400a5b0c     pjsip-core-x86_64-x64-vc14-debug-dynamic:sip_parser.obj
 0002:00004b14       $unwind$pjsip_concat_param_imp 00000001400a5b14     pjsip-core-x86_64-x64-vc14-debug-dynamic:sip_parser.obj
 0002:00004b1c       $unwind$pjsip_parse_end_hdr_imp 00000001400a5b1c     pjsip-core-x86_64-x64-vc14-debug-dynamic:sip_parser.obj
 0002:00004b24       $unwind$pjsip_parse_generic_array_hdr_imp 00000001400a5b24     pjsip-core-x86_64-x64-vc14-debug-dynamic:sip_parser.obj
 0002:00004b2c       $unwind$pj_strchr          00000001400a5b2c     pjsip-core-x86_64-x64-vc14-debug-dynamic:sip_parser.obj
 0002:00004b34       $unwind$pj_bzero           00000001400a5b34     pjsip-core-x86_64-x64-vc14-debug-dynamic:sip_parser.obj
 0002:00004b3c       $unwind$pj_memcpy          00000001400a5b3c     pjsip-core-x86_64-x64-vc14-debug-dynamic:sip_parser.obj
 0002:00004b44       $unwind$pj_memmove         00000001400a5b44     pjsip-core-x86_64-x64-vc14-debug-dynamic:sip_parser.obj
 0002:00004b4c       $unwind$pj_memcmp          00000001400a5b4c     pjsip-core-x86_64-x64-vc14-debug-dynamic:sip_parser.obj
 0002:00004b54       $unwind$pj_memchr          00000001400a5b54     pjsip-core-x86_64-x64-vc14-debug-dynamic:sip_parser.obj
 0002:00004b5c       $unwind$pj_tolower         00000001400a5b5c     pjsip-core-x86_64-x64-vc14-debug-dynamic:sip_parser.obj
 0002:00004b64       $unwind$int_parse_msg      00000001400a5b64     pjsip-core-x86_64-x64-vc14-debug-dynamic:sip_parser.obj
 0002:00004b78       $unwind$int_parse_param    00000001400a5b78     pjsip-core-x86_64-x64-vc14-debug-dynamic:sip_parser.obj
 0002:00004b80       $unwind$int_parse_uri_param 00000001400a5b80     pjsip-core-x86_64-x64-vc14-debug-dynamic:sip_parser.obj
 0002:00004b88       $unwind$int_parse_hparam   00000001400a5b88     pjsip-core-x86_64-x64-vc14-debug-dynamic:sip_parser.obj
 0002:00004b90       $unwind$int_parse_req_line 00000001400a5b90     pjsip-core-x86_64-x64-vc14-debug-dynamic:sip_parser.obj
 0002:00004b98       $unwind$int_is_next_user   00000001400a5b98     pjsip-core-x86_64-x64-vc14-debug-dynamic:sip_parser.obj
 0002:00004ba0       $unwind$int_parse_status_line 00000001400a5ba0     pjsip-core-x86_64-x64-vc14-debug-dynamic:sip_parser.obj
 0002:00004ba8       $unwind$int_parse_user_pass 00000001400a5ba8     pjsip-core-x86_64-x64-vc14-debug-dynamic:sip_parser.obj
 0002:00004bb0       $unwind$int_parse_uri_host_port 00000001400a5bb0     pjsip-core-x86_64-x64-vc14-debug-dynamic:sip_parser.obj
 0002:00004bb8       $unwind$int_parse_uri_or_name_addr 00000001400a5bb8     pjsip-core-x86_64-x64-vc14-debug-dynamic:sip_parser.obj
 0002:00004bc0       $unwind$int_parse_sip_url  00000001400a5bc0     pjsip-core-x86_64-x64-vc14-debug-dynamic:sip_parser.obj
 0002:00004bcc       $unwind$int_parse_name_addr 00000001400a5bcc     pjsip-core-x86_64-x64-vc14-debug-dynamic:sip_parser.obj
 0002:00004bd4       $unwind$int_parse_other_uri 00000001400a5bd4     pjsip-core-x86_64-x64-vc14-debug-dynamic:sip_parser.obj
 0002:00004bdc       $unwind$parse_hdr_end      00000001400a5bdc     pjsip-core-x86_64-x64-vc14-debug-dynamic:sip_parser.obj
 0002:00004be4       $unwind$parse_hdr_accept   00000001400a5be4     pjsip-core-x86_64-x64-vc14-debug-dynamic:sip_parser.obj
 0002:00004bec       $unwind$parse_hdr_allow    00000001400a5bec     pjsip-core-x86_64-x64-vc14-debug-dynamic:sip_parser.obj
 0002:00004bf4       $unwind$parse_hdr_call_id  00000001400a5bf4     pjsip-core-x86_64-x64-vc14-debug-dynamic:sip_parser.obj
 0002:00004bfc       $unwind$parse_hdr_contact  00000001400a5bfc     pjsip-core-x86_64-x64-vc14-debug-dynamic:sip_parser.obj
 0002:00004c04       $unwind$parse_hdr_content_len 00000001400a5c04     pjsip-core-x86_64-x64-vc14-debug-dynamic:sip_parser.obj
 0002:00004c0c       $unwind$parse_hdr_content_type 00000001400a5c0c     pjsip-core-x86_64-x64-vc14-debug-dynamic:sip_parser.obj
 0002:00004c14       $unwind$parse_hdr_cseq     00000001400a5c14     pjsip-core-x86_64-x64-vc14-debug-dynamic:sip_parser.obj
 0002:00004c1c       $unwind$parse_hdr_expires  00000001400a5c1c     pjsip-core-x86_64-x64-vc14-debug-dynamic:sip_parser.obj
 0002:00004c24       $unwind$parse_hdr_from     00000001400a5c24     pjsip-core-x86_64-x64-vc14-debug-dynamic:sip_parser.obj
 0002:00004c2c       $unwind$parse_hdr_max_forwards 00000001400a5c2c     pjsip-core-x86_64-x64-vc14-debug-dynamic:sip_parser.obj
 0002:00004c34       $unwind$parse_hdr_min_expires 00000001400a5c34     pjsip-core-x86_64-x64-vc14-debug-dynamic:sip_parser.obj
 0002:00004c3c       $unwind$parse_hdr_rr       00000001400a5c3c     pjsip-core-x86_64-x64-vc14-debug-dynamic:sip_parser.obj
 0002:00004c44       $unwind$parse_hdr_route    00000001400a5c44     pjsip-core-x86_64-x64-vc14-debug-dynamic:sip_parser.obj
 0002:00004c4c       $unwind$parse_hdr_require  00000001400a5c4c     pjsip-core-x86_64-x64-vc14-debug-dynamic:sip_parser.obj
 0002:00004c54       $unwind$parse_hdr_retry_after 00000001400a5c54     pjsip-core-x86_64-x64-vc14-debug-dynamic:sip_parser.obj
 0002:00004c5c       $unwind$parse_hdr_supported 00000001400a5c5c     pjsip-core-x86_64-x64-vc14-debug-dynamic:sip_parser.obj
 0002:00004c64       $unwind$parse_hdr_to       00000001400a5c64     pjsip-core-x86_64-x64-vc14-debug-dynamic:sip_parser.obj
 0002:00004c6c       $unwind$parse_hdr_unsupported 00000001400a5c6c     pjsip-core-x86_64-x64-vc14-debug-dynamic:sip_parser.obj
 0002:00004c74       $unwind$parse_hdr_via      00000001400a5c74     pjsip-core-x86_64-x64-vc14-debug-dynamic:sip_parser.obj
 0002:00004c7c       $unwind$parse_hdr_generic_string 00000001400a5c7c     pjsip-core-x86_64-x64-vc14-debug-dynamic:sip_parser.obj
 0002:00004c84       $unwind$pj_strtoul_mindigit 00000001400a5c84     pjsip-core-x86_64-x64-vc14-debug-dynamic:sip_parser.obj
 0002:00004c8c       $unwind$parser_get_and_unescape 00000001400a5c8c     pjsip-core-x86_64-x64-vc14-debug-dynamic:sip_parser.obj
 0002:00004c98       $unwind$on_syntax_error    00000001400a5c98     pjsip-core-x86_64-x64-vc14-debug-dynamic:sip_parser.obj
 0002:00004ca0       $unwind$on_str_parse_error 00000001400a5ca0     pjsip-core-x86_64-x64-vc14-debug-dynamic:sip_parser.obj
 0002:00004ca8       $unwind$strtoi_validate    00000001400a5ca8     pjsip-core-x86_64-x64-vc14-debug-dynamic:sip_parser.obj
 0002:00004cb0       $unwind$init_parser        00000001400a5cb0     pjsip-core-x86_64-x64-vc14-debug-dynamic:sip_parser.obj
 0002:00004cb8       $unwind$init_sip_parser    00000001400a5cb8     pjsip-core-x86_64-x64-vc14-debug-dynamic:sip_parser.obj
 0002:00004cc0       $unwind$deinit_sip_parser  00000001400a5cc0     pjsip-core-x86_64-x64-vc14-debug-dynamic:sip_parser.obj
 0002:00004cc8       $unwind$compare_handler    00000001400a5cc8     pjsip-core-x86_64-x64-vc14-debug-dynamic:sip_parser.obj
 0002:00004cd0       $unwind$int_register_parser 00000001400a5cd0     pjsip-core-x86_64-x64-vc14-debug-dynamic:sip_parser.obj
 0002:00004ce0       $unwind$find_handler_imp   00000001400a5ce0     pjsip-core-x86_64-x64-vc14-debug-dynamic:sip_parser.obj
 0002:00004ce8       $unwind$find_handler       00000001400a5ce8     pjsip-core-x86_64-x64-vc14-debug-dynamic:sip_parser.obj
 0002:00004cf8       $unwind$find_uri_handler   00000001400a5cf8     pjsip-core-x86_64-x64-vc14-debug-dynamic:sip_parser.obj
 0002:00004d00       $unwind$parse_sip_version  00000001400a5d00     pjsip-core-x86_64-x64-vc14-debug-dynamic:sip_parser.obj
 0002:00004d08       $unwind$is_next_sip_version 00000001400a5d08     pjsip-core-x86_64-x64-vc14-debug-dynamic:sip_parser.obj
 0002:00004d10       $unwind$parse_param_imp    00000001400a5d10     pjsip-core-x86_64-x64-vc14-debug-dynamic:sip_parser.obj
 0002:00004d18       $unwind$int_parse_host     00000001400a5d18     pjsip-core-x86_64-x64-vc14-debug-dynamic:sip_parser.obj
 0002:00004d20       $unwind$int_parse_uri      00000001400a5d20     pjsip-core-x86_64-x64-vc14-debug-dynamic:sip_parser.obj
 0002:00004d28       $unwind$parse_generic_array_hdr 00000001400a5d28     pjsip-core-x86_64-x64-vc14-debug-dynamic:sip_parser.obj
 0002:00004d30       $unwind$parse_generic_string_hdr 00000001400a5d30     pjsip-core-x86_64-x64-vc14-debug-dynamic:sip_parser.obj
 0002:00004d3c       $unwind$parse_generic_int_hdr 00000001400a5d3c     pjsip-core-x86_64-x64-vc14-debug-dynamic:sip_parser.obj
 0002:00004d44       $unwind$int_parse_contact_param 00000001400a5d44     pjsip-core-x86_64-x64-vc14-debug-dynamic:sip_parser.obj
 0002:00004d50       $unwind$parse_hdr_fromto   00000001400a5d50     pjsip-core-x86_64-x64-vc14-debug-dynamic:sip_parser.obj
 0002:00004d5c       $unwind$int_parse_via_param 00000001400a5d5c     pjsip-core-x86_64-x64-vc14-debug-dynamic:sip_parser.obj
 0002:00004d68       $unwind$parse_hdr_rr_route 00000001400a5d68     pjsip-core-x86_64-x64-vc14-debug-dynamic:sip_parser.obj
 0002:00004dbc       $unwind$pj_list_empty      00000001400a5dbc     pjsip-core-x86_64-x64-vc14-debug-dynamic:sip_multipart.obj
 0002:00004dc4       $unwind$pj_list_push_back  00000001400a5dc4     pjsip-core-x86_64-x64-vc14-debug-dynamic:sip_multipart.obj
 0002:00004dcc       $unwind$pjsip_multipart_create 00000001400a5dcc     pjsip-core-x86_64-x64-vc14-debug-dynamic:sip_multipart.obj
 0002:00004dd8       $unwind$pjsip_multipart_create_part 00000001400a5dd8     pjsip-core-x86_64-x64-vc14-debug-dynamic:sip_multipart.obj
 0002:00004de0       $unwind$pjsip_multipart_clone_part 00000001400a5de0     pjsip-core-x86_64-x64-vc14-debug-dynamic:sip_multipart.obj
 0002:00004de8       $unwind$pjsip_multipart_add_part 00000001400a5de8     pjsip-core-x86_64-x64-vc14-debug-dynamic:sip_multipart.obj
 0002:00004df0       $unwind$pjsip_multipart_get_first_part 00000001400a5df0     pjsip-core-x86_64-x64-vc14-debug-dynamic:sip_multipart.obj
 0002:00004df8       $unwind$pjsip_multipart_get_next_part 00000001400a5df8     pjsip-core-x86_64-x64-vc14-debug-dynamic:sip_multipart.obj
 0002:00004e00       $unwind$pjsip_multipart_find_part 00000001400a5e00     pjsip-core-x86_64-x64-vc14-debug-dynamic:sip_multipart.obj
 0002:00004e08       $unwind$pjsip_multipart_parse 00000001400a5e08     pjsip-core-x86_64-x64-vc14-debug-dynamic:sip_multipart.obj
 0002:00004e14       $unwind$pjsip_multipart_get_raw 00000001400a5e14     pjsip-core-x86_64-x64-vc14-debug-dynamic:sip_multipart.obj
 0002:00004e20       $unwind$pj_isspace         00000001400a5e20     pjsip-core-x86_64-x64-vc14-debug-dynamic:sip_multipart.obj
 0002:00004e28       $unwind$pj_pool_zalloc     00000001400a5e28     pjsip-core-x86_64-x64-vc14-debug-dynamic:sip_multipart.obj
 0002:00004e30       $unwind$pj_memset          00000001400a5e30     pjsip-core-x86_64-x64-vc14-debug-dynamic:sip_multipart.obj
 0002:00004e38       $unwind$pj_memcpy          00000001400a5e38     pjsip-core-x86_64-x64-vc14-debug-dynamic:sip_multipart.obj
 0002:00004e40       $unwind$multipart_print_body 00000001400a5e40     pjsip-core-x86_64-x64-vc14-debug-dynamic:sip_multipart.obj
 0002:00004e50       $unwind$multipart_clone_data 00000001400a5e50     pjsip-core-x86_64-x64-vc14-debug-dynamic:sip_multipart.obj
 0002:00004e58       $unwind$parse_multipart_part 00000001400a5e58     pjsip-core-x86_64-x64-vc14-debug-dynamic:sip_multipart.obj
 0002:00004e74       $unwind$pjsip_param_find   00000001400a5e74     pjsip-core-x86_64-x64-vc14-debug-dynamic:sip_uri.obj
 0002:00004e7c       $unwind$pjsip_param_cmp    00000001400a5e7c     pjsip-core-x86_64-x64-vc14-debug-dynamic:sip_uri.obj
 0002:00004e84       $unwind$pjsip_param_clone  00000001400a5e84     pjsip-core-x86_64-x64-vc14-debug-dynamic:sip_uri.obj
 0002:00004e8c       $unwind$pjsip_param_shallow_clone 00000001400a5e8c     pjsip-core-x86_64-x64-vc14-debug-dynamic:sip_uri.obj
 0002:00004e98       $unwind$pjsip_param_print_on 00000001400a5e98     pjsip-core-x86_64-x64-vc14-debug-dynamic:sip_uri.obj
 0002:00004ea0       $unwind$pjsip_uri_get_scheme 00000001400a5ea0     pjsip-core-x86_64-x64-vc14-debug-dynamic:sip_uri.obj
 0002:00004ea8       $unwind$pjsip_uri_get_uri  00000001400a5ea8     pjsip-core-x86_64-x64-vc14-debug-dynamic:sip_uri.obj
 0002:00004eb0       $unwind$pjsip_uri_cmp      00000001400a5eb0     pjsip-core-x86_64-x64-vc14-debug-dynamic:sip_uri.obj
 0002:00004eb8       $unwind$pjsip_uri_print    00000001400a5eb8     pjsip-core-x86_64-x64-vc14-debug-dynamic:sip_uri.obj
 0002:00004ec0       $unwind$pjsip_uri_clone    00000001400a5ec0     pjsip-core-x86_64-x64-vc14-debug-dynamic:sip_uri.obj
 0002:00004ec8       $unwind$pjsip_sip_uri_create 00000001400a5ec8     pjsip-core-x86_64-x64-vc14-debug-dynamic:sip_uri.obj
 0002:00004ed0       $unwind$pjsip_sip_uri_set_secure 00000001400a5ed0     pjsip-core-x86_64-x64-vc14-debug-dynamic:sip_uri.obj
 0002:00004ed8       $unwind$pjsip_sip_uri_init 00000001400a5ed8     pjsip-core-x86_64-x64-vc14-debug-dynamic:sip_uri.obj
 0002:00004ee0       $unwind$pjsip_sip_uri_assign 00000001400a5ee0     pjsip-core-x86_64-x64-vc14-debug-dynamic:sip_uri.obj
 0002:00004ee8       $unwind$pjsip_name_addr_create 00000001400a5ee8     pjsip-core-x86_64-x64-vc14-debug-dynamic:sip_uri.obj
 0002:00004ef0       $unwind$pjsip_name_addr_assign 00000001400a5ef0     pjsip-core-x86_64-x64-vc14-debug-dynamic:sip_uri.obj
 0002:00004ef8       $unwind$pjsip_other_uri_create 00000001400a5ef8     pjsip-core-x86_64-x64-vc14-debug-dynamic:sip_uri.obj
 0002:00004f00       $unwind$pj_bzero           00000001400a5f00     pjsip-core-x86_64-x64-vc14-debug-dynamic:sip_uri.obj
 0002:00004f08       $unwind$pj_memcpy          00000001400a5f08     pjsip-core-x86_64-x64-vc14-debug-dynamic:sip_uri.obj
 0002:00004f10       $unwind$pj_memchr          00000001400a5f10     pjsip-core-x86_64-x64-vc14-debug-dynamic:sip_uri.obj
 0002:00004f18       $unwind$pj_pool_zalloc     00000001400a5f18     pjsip-core-x86_64-x64-vc14-debug-dynamic:sip_uri.obj
 0002:00004f20       $unwind$pjsip_name_addr_get_scheme 00000001400a5f20     pjsip-core-x86_64-x64-vc14-debug-dynamic:sip_uri.obj
 0002:00004f28       $unwind$pjsip_name_addr_get_uri 00000001400a5f28     pjsip-core-x86_64-x64-vc14-debug-dynamic:sip_uri.obj
 0002:00004f30       $unwind$pjsip_name_addr_clone 00000001400a5f30     pjsip-core-x86_64-x64-vc14-debug-dynamic:sip_uri.obj
 0002:00004f38       $unwind$pjsip_name_addr_print 00000001400a5f38     pjsip-core-x86_64-x64-vc14-debug-dynamic:sip_uri.obj
 0002:00004f40       $unwind$pjsip_name_addr_compare 00000001400a5f40     pjsip-core-x86_64-x64-vc14-debug-dynamic:sip_uri.obj
 0002:00004f48       $unwind$pjsip_url_print    00000001400a5f48     pjsip-core-x86_64-x64-vc14-debug-dynamic:sip_uri.obj
 0002:00004f50       $unwind$pjsip_url_compare  00000001400a5f50     pjsip-core-x86_64-x64-vc14-debug-dynamic:sip_uri.obj
 0002:00004f58       $unwind$pjsip_url_clone    00000001400a5f58     pjsip-core-x86_64-x64-vc14-debug-dynamic:sip_uri.obj
 0002:00004f60       $unwind$other_uri_print    00000001400a5f60     pjsip-core-x86_64-x64-vc14-debug-dynamic:sip_uri.obj
 0002:00004f68       $unwind$other_uri_cmp      00000001400a5f68     pjsip-core-x86_64-x64-vc14-debug-dynamic:sip_uri.obj
 0002:00004f70       $unwind$other_uri_clone    00000001400a5f70     pjsip-core-x86_64-x64-vc14-debug-dynamic:sip_uri.obj
 0002:00004f94       $unwind$pjsip_resolver_create 00000001400a5f94     pjsip-core-x86_64-x64-vc14-debug-dynamic:sip_resolve.obj
 0002:00004f9c       $unwind$pjsip_resolver_set_ext_resolver 00000001400a5f9c     pjsip-core-x86_64-x64-vc14-debug-dynamic:sip_resolve.obj
 0002:00004fa4       $unwind$pjsip_resolver_destroy 00000001400a5fa4     pjsip-core-x86_64-x64-vc14-debug-dynamic:sip_resolve.obj
 0002:00004fac       $unwind$pjsip_resolve      00000001400a5fac     pjsip-core-x86_64-x64-vc14-debug-dynamic:sip_resolve.obj
 0002:00004fc0       $unwind$pj_pool_zalloc     00000001400a5fc0     pjsip-core-x86_64-x64-vc14-debug-dynamic:sip_resolve.obj
 0002:00004fc8       $unwind$pj_bzero           00000001400a5fc8     pjsip-core-x86_64-x64-vc14-debug-dynamic:sip_resolve.obj
 0002:00004fd0       $unwind$srv_resolver_cb    00000001400a5fd0     pjsip-core-x86_64-x64-vc14-debug-dynamic:sip_resolve.obj
 0002:00004fe4       $unwind$dns_a_callback     00000001400a5fe4     pjsip-core-x86_64-x64-vc14-debug-dynamic:sip_resolve.obj
 0002:00004ff4       $unwind$dns_aaaa_callback  00000001400a5ff4     pjsip-core-x86_64-x64-vc14-debug-dynamic:sip_resolve.obj
 0002:00005008       $unwind$get_ip_addr_ver    00000001400a6008     pjsip-core-x86_64-x64-vc14-debug-dynamic:sip_resolve.obj
 0002:00005028       $unwind$pjsip_strerror     00000001400a6028     pjsip-core-x86_64-x64-vc14-debug-dynamic:sip_errno.obj
 0002:00005038       $unwind$pj_cis_match       00000001400a6038     pjsip-core-x86_64-x64-vc14-debug-dynamic:sip_tel_uri.obj
 0002:00005040       $unwind$pjsip_param_cfind  00000001400a6040     pjsip-core-x86_64-x64-vc14-debug-dynamic:sip_tel_uri.obj
 0002:00005048       $unwind$pjsip_tel_uri_create 00000001400a6048     pjsip-core-x86_64-x64-vc14-debug-dynamic:sip_tel_uri.obj
 0002:00005050       $unwind$pjsip_tel_nb_cmp   00000001400a6050     pjsip-core-x86_64-x64-vc14-debug-dynamic:sip_tel_uri.obj
 0002:00005058       $unwind$pj_pool_zalloc     00000001400a6058     pjsip-core-x86_64-x64-vc14-debug-dynamic:sip_tel_uri.obj
 0002:00005060       $unwind$pj_memcpy          00000001400a6060     pjsip-core-x86_64-x64-vc14-debug-dynamic:sip_tel_uri.obj
 0002:00005068       $unwind$pj_tolower         00000001400a6068     pjsip-core-x86_64-x64-vc14-debug-dynamic:sip_tel_uri.obj
 0002:00005070       $unwind$tel_uri_get_scheme 00000001400a6070     pjsip-core-x86_64-x64-vc14-debug-dynamic:sip_tel_uri.obj
 0002:00005078       $unwind$tel_uri_print      00000001400a6078     pjsip-core-x86_64-x64-vc14-debug-dynamic:sip_tel_uri.obj
 0002:00005080       $unwind$tel_uri_cmp        00000001400a6080     pjsip-core-x86_64-x64-vc14-debug-dynamic:sip_tel_uri.obj
 0002:00005088       $unwind$tel_uri_clone      00000001400a6088     pjsip-core-x86_64-x64-vc14-debug-dynamic:sip_tel_uri.obj
 0002:00005090       $unwind$tel_uri_parse      00000001400a6090     pjsip-core-x86_64-x64-vc14-debug-dynamic:sip_tel_uri.obj
 0002:0000509c       $unwind$pjsip_tel_uri_subsys_init 00000001400a609c     pjsip-core-x86_64-x64-vc14-debug-dynamic:sip_tel_uri.obj
 0002:000050b0       $unwind$pjsip_authorization_hdr_create 00000001400a60b0     pjsip-core-x86_64-x64-vc14-debug-dynamic:sip_auth_msg.obj
 0002:000050b8       $unwind$pjsip_proxy_authorization_hdr_create 00000001400a60b8     pjsip-core-x86_64-x64-vc14-debug-dynamic:sip_auth_msg.obj
 0002:000050c0       $unwind$pjsip_www_authenticate_hdr_create 00000001400a60c0     pjsip-core-x86_64-x64-vc14-debug-dynamic:sip_auth_msg.obj
 0002:000050c8       $unwind$pjsip_proxy_authenticate_hdr_create 00000001400a60c8     pjsip-core-x86_64-x64-vc14-debug-dynamic:sip_auth_msg.obj
 0002:000050d0       $unwind$pj_pool_zalloc     00000001400a60d0     pjsip-core-x86_64-x64-vc14-debug-dynamic:sip_auth_msg.obj
 0002:000050d8       $unwind$pj_memcpy          00000001400a60d8     pjsip-core-x86_64-x64-vc14-debug-dynamic:sip_auth_msg.obj
 0002:000050e0       $unwind$init_hdr           00000001400a60e0     pjsip-core-x86_64-x64-vc14-debug-dynamic:sip_auth_msg.obj
 0002:000050ec       $unwind$pjsip_authorization_hdr_clone 00000001400a60ec     pjsip-core-x86_64-x64-vc14-debug-dynamic:sip_auth_msg.obj
 0002:000050f4       $unwind$pjsip_authorization_hdr_shallow_clone 00000001400a60f4     pjsip-core-x86_64-x64-vc14-debug-dynamic:sip_auth_msg.obj
 0002:000050fc       $unwind$pjsip_authorization_hdr_print 00000001400a60fc     pjsip-core-x86_64-x64-vc14-debug-dynamic:sip_auth_msg.obj
 0002:00005104       $unwind$print_digest_credential 00000001400a6104     pjsip-core-x86_64-x64-vc14-debug-dynamic:sip_auth_msg.obj
 0002:0000510c       $unwind$print_oauth_credential 00000001400a610c     pjsip-core-x86_64-x64-vc14-debug-dynamic:sip_auth_msg.obj
 0002:00005114       $unwind$pjsip_www_authenticate_hdr_print 00000001400a6114     pjsip-core-x86_64-x64-vc14-debug-dynamic:sip_auth_msg.obj
 0002:0000511c       $unwind$pjsip_www_authenticate_hdr_clone 00000001400a611c     pjsip-core-x86_64-x64-vc14-debug-dynamic:sip_auth_msg.obj
 0002:00005124       $unwind$pjsip_www_authenticate_hdr_shallow_clone 00000001400a6124     pjsip-core-x86_64-x64-vc14-debug-dynamic:sip_auth_msg.obj
 0002:0000512c       $unwind$print_digest_challenge 00000001400a612c     pjsip-core-x86_64-x64-vc14-debug-dynamic:sip_auth_msg.obj
 0002:00005144       $unwind$pjsip_auth_init_parser 00000001400a6144     pjsip-core-x86_64-x64-vc14-debug-dynamic:sip_auth_parser.obj
 0002:0000514c       $unwind$pj_scan_is_eof     00000001400a614c     pjsip-core-x86_64-x64-vc14-debug-dynamic:sip_auth_parser.obj
 0002:00005154       $unwind$parse_hdr_authorization 00000001400a6154     pjsip-core-x86_64-x64-vc14-debug-dynamic:sip_auth_parser.obj
 0002:0000515c       $unwind$parse_hdr_proxy_authorization 00000001400a615c     pjsip-core-x86_64-x64-vc14-debug-dynamic:sip_auth_parser.obj
 0002:00005164       $unwind$parse_hdr_www_authenticate 00000001400a6164     pjsip-core-x86_64-x64-vc14-debug-dynamic:sip_auth_parser.obj
 0002:0000516c       $unwind$parse_hdr_proxy_authenticate 00000001400a616c     pjsip-core-x86_64-x64-vc14-debug-dynamic:sip_auth_parser.obj
 0002:00005174       $unwind$parse_digest_credential 00000001400a6174     pjsip-core-x86_64-x64-vc14-debug-dynamic:sip_auth_parser.obj
 0002:00005180       $unwind$parse_pgp_credential 00000001400a6180     pjsip-core-x86_64-x64-vc14-debug-dynamic:sip_auth_parser.obj
 0002:00005188       $unwind$parse_digest_challenge 00000001400a6188     pjsip-core-x86_64-x64-vc14-debug-dynamic:sip_auth_parser.obj
 0002:00005194       $unwind$parse_pgp_challenge 00000001400a6194     pjsip-core-x86_64-x64-vc14-debug-dynamic:sip_auth_parser.obj
 0002:0000519c       $unwind$int_parse_hdr_authorization 00000001400a619c     pjsip-core-x86_64-x64-vc14-debug-dynamic:sip_auth_parser.obj
 0002:000051a4       $unwind$int_parse_hdr_authenticate 00000001400a61a4     pjsip-core-x86_64-x64-vc14-debug-dynamic:sip_auth_parser.obj
 0002:000051b8       $unwind$pjmedia_sdp_attr_create 00000001400a61b8     pjmedia-x86_64-x64-vc14-debug-dynamic:sdp.obj
 0002:000051c0       $unwind$pjmedia_sdp_attr_clone 00000001400a61c0     pjmedia-x86_64-x64-vc14-debug-dynamic:sdp.obj
 0002:000051c8       $unwind$pjmedia_sdp_attr_find 00000001400a61c8     pjmedia-x86_64-x64-vc14-debug-dynamic:sdp.obj
 0002:000051d0       $unwind$pjmedia_sdp_attr_find2 00000001400a61d0     pjmedia-x86_64-x64-vc14-debug-dynamic:sdp.obj
 0002:000051d8       $unwind$pjmedia_sdp_attr_add 00000001400a61d8     pjmedia-x86_64-x64-vc14-debug-dynamic:sdp.obj
 0002:000051e0       $unwind$pjmedia_sdp_attr_remove_all 00000001400a61e0     pjmedia-x86_64-x64-vc14-debug-dynamic:sdp.obj
 0002:000051e8       $unwind$pjmedia_sdp_attr_remove 00000001400a61e8     pjmedia-x86_64-x64-vc14-debug-dynamic:sdp.obj
 0002:000051f0       $unwind$pjmedia_sdp_attr_to_rtpmap 00000001400a61f0     pjmedia-x86_64-x64-vc14-debug-dynamic:sdp.obj
 0002:000051f8       $unwind$pjmedia_sdp_attr_get_rtpmap 00000001400a61f8     pjmedia-x86_64-x64-vc14-debug-dynamic:sdp.obj
 0002:00005208       $unwind$pjmedia_sdp_rtpmap_to_attr 00000001400a6208     pjmedia-x86_64-x64-vc14-debug-dynamic:sdp.obj
 0002:00005218       $unwind$pjmedia_sdp_attr_get_fmtp 00000001400a6218     pjmedia-x86_64-x64-vc14-debug-dynamic:sdp.obj
 0002:00005224       $unwind$pjmedia_sdp_attr_get_rtcp 00000001400a6224     pjmedia-x86_64-x64-vc14-debug-dynamic:sdp.obj
 0002:00005234       $unwind$pjmedia_sdp_attr_create_rtcp 00000001400a6234     pjmedia-x86_64-x64-vc14-debug-dynamic:sdp.obj
 0002:00005248       $unwind$pjmedia_sdp_attr_get_ssrc 00000001400a6248     pjmedia-x86_64-x64-vc14-debug-dynamic:sdp.obj
 0002:00005258       $unwind$pjmedia_sdp_attr_create_ssrc 00000001400a6258     pjmedia-x86_64-x64-vc14-debug-dynamic:sdp.obj
 0002:00005264       $unwind$pjmedia_sdp_conn_clone 00000001400a6264     pjmedia-x86_64-x64-vc14-debug-dynamic:sdp.obj
 0002:0000526c       $unwind$pjmedia_sdp_bandw_clone 00000001400a626c     pjmedia-x86_64-x64-vc14-debug-dynamic:sdp.obj
 0002:00005274       $unwind$pjmedia_sdp_media_clone 00000001400a6274     pjmedia-x86_64-x64-vc14-debug-dynamic:sdp.obj
 0002:0000527c       $unwind$pjmedia_sdp_media_find_attr 00000001400a627c     pjmedia-x86_64-x64-vc14-debug-dynamic:sdp.obj
 0002:00005284       $unwind$pjmedia_sdp_media_find_attr2 00000001400a6284     pjmedia-x86_64-x64-vc14-debug-dynamic:sdp.obj
 0002:0000528c       $unwind$pjmedia_sdp_media_add_attr 00000001400a628c     pjmedia-x86_64-x64-vc14-debug-dynamic:sdp.obj
 0002:00005294       $unwind$pjmedia_sdp_media_remove_all_attr 00000001400a6294     pjmedia-x86_64-x64-vc14-debug-dynamic:sdp.obj
 0002:0000529c       $unwind$pjmedia_sdp_media_remove_attr 00000001400a629c     pjmedia-x86_64-x64-vc14-debug-dynamic:sdp.obj
 0002:000052a4       $unwind$pjmedia_sdp_transport_cmp 00000001400a62a4     pjmedia-x86_64-x64-vc14-debug-dynamic:sdp.obj
 0002:000052ac       $unwind$pjmedia_sdp_transport_get_proto 00000001400a62ac     pjmedia-x86_64-x64-vc14-debug-dynamic:sdp.obj
 0002:000052b4       $unwind$pjmedia_sdp_media_deactivate 00000001400a62b4     pjmedia-x86_64-x64-vc14-debug-dynamic:sdp.obj
 0002:000052bc       $unwind$pjmedia_sdp_media_clone_deactivate 00000001400a62bc     pjmedia-x86_64-x64-vc14-debug-dynamic:sdp.obj
 0002:000052c4       $unwind$pjmedia_sdp_parse  00000001400a62c4     pjmedia-x86_64-x64-vc14-debug-dynamic:sdp.obj
 0002:000052d4       $unwind$pjmedia_sdp_print  00000001400a62d4     pjmedia-x86_64-x64-vc14-debug-dynamic:sdp.obj
 0002:000052dc       $unwind$pjmedia_sdp_validate 00000001400a62dc     pjmedia-x86_64-x64-vc14-debug-dynamic:sdp.obj
 0002:000052e4       $unwind$pjmedia_sdp_validate2 00000001400a62e4     pjmedia-x86_64-x64-vc14-debug-dynamic:sdp.obj
 0002:000052ec       $unwind$pjmedia_sdp_session_clone 00000001400a62ec     pjmedia-x86_64-x64-vc14-debug-dynamic:sdp.obj
 0002:000052f4       $unwind$pjmedia_sdp_session_add_attr 00000001400a62f4     pjmedia-x86_64-x64-vc14-debug-dynamic:sdp.obj
 0002:000052fc       $unwind$pj_bzero           00000001400a62fc     pjmedia-x86_64-x64-vc14-debug-dynamic:sdp.obj
 0002:00005304       $unwind$pj_memcpy          00000001400a6304     pjmedia-x86_64-x64-vc14-debug-dynamic:sdp.obj
 0002:0000530c       $unwind$pj_pool_zalloc     00000001400a630c     pjmedia-x86_64-x64-vc14-debug-dynamic:sdp.obj
 0002:00005314       $unwind$pj_isdigit         00000001400a6314     pjmedia-x86_64-x64-vc14-debug-dynamic:sdp.obj
 0002:0000531c       $unwind$parse_version      00000001400a631c     pjmedia-x86_64-x64-vc14-debug-dynamic:sdp.obj
 0002:00005324       $unwind$parse_origin       00000001400a6324     pjmedia-x86_64-x64-vc14-debug-dynamic:sdp.obj
 0002:0000532c       $unwind$parse_time         00000001400a632c     pjmedia-x86_64-x64-vc14-debug-dynamic:sdp.obj
 0002:00005334       $unwind$parse_generic_line 00000001400a6334     pjmedia-x86_64-x64-vc14-debug-dynamic:sdp.obj
 0002:0000533c       $unwind$parse_connection_info 00000001400a633c     pjmedia-x86_64-x64-vc14-debug-dynamic:sdp.obj
 0002:00005344       $unwind$parse_bandwidth_info 00000001400a6344     pjmedia-x86_64-x64-vc14-debug-dynamic:sdp.obj
 0002:0000534c       $unwind$parse_attr         00000001400a634c     pjmedia-x86_64-x64-vc14-debug-dynamic:sdp.obj
 0002:00005354       $unwind$parse_media        00000001400a6354     pjmedia-x86_64-x64-vc14-debug-dynamic:sdp.obj
 0002:00005360       $unwind$on_scanner_error   00000001400a6360     pjmedia-x86_64-x64-vc14-debug-dynamic:sdp.obj
 0002:00005368       $unwind$init_sdp_parser    00000001400a6368     pjmedia-x86_64-x64-vc14-debug-dynamic:sdp.obj
 0002:00005370       $unwind$print_connection_info 00000001400a6370     pjmedia-x86_64-x64-vc14-debug-dynamic:sdp.obj
 0002:00005378       $unwind$print_bandw        00000001400a6378     pjmedia-x86_64-x64-vc14-debug-dynamic:sdp.obj
 0002:00005380       $unwind$print_attr         00000001400a6380     pjmedia-x86_64-x64-vc14-debug-dynamic:sdp.obj
 0002:00005388       $unwind$print_media_desc   00000001400a6388     pjmedia-x86_64-x64-vc14-debug-dynamic:sdp.obj
 0002:00005390       $unwind$print_session      00000001400a6390     pjmedia-x86_64-x64-vc14-debug-dynamic:sdp.obj
 0002:00005398       $unwind$apply_media_direction 00000001400a6398     pjmedia-x86_64-x64-vc14-debug-dynamic:sdp.obj
 0002:000053a0       $unwind$validate_sdp_conn  00000001400a63a0     pjmedia-x86_64-x64-vc14-debug-dynamic:sdp.obj
 0002:000053dc       $unwind$pj_scan_is_eof     00000001400a63dc     pjmedia-x86_64-x64-vc14-debug-dynamic:sdp.obj
 0002:000053e4       $unwind$pjmedia_sdp_neg_create_w_local_offer 00000001400a63e4     pjmedia-x86_64-x64-vc14-debug-dynamic:sdp_neg.obj
 0002:000053ec       $unwind$pjmedia_sdp_neg_create_w_remote_offer 00000001400a63ec     pjmedia-x86_64-x64-vc14-debug-dynamic:sdp_neg.obj
 0002:000053f4       $unwind$pjmedia_sdp_neg_set_prefer_remote_codec_order 00000001400a63f4     pjmedia-x86_64-x64-vc14-debug-dynamic:sdp_neg.obj
 0002:000053fc       $unwind$pjmedia_sdp_neg_set_answer_multiple_codecs 00000001400a63fc     pjmedia-x86_64-x64-vc14-debug-dynamic:sdp_neg.obj
 0002:00005404       $unwind$pjmedia_sdp_neg_get_state 00000001400a6404     pjmedia-x86_64-x64-vc14-debug-dynamic:sdp_neg.obj
 0002:0000540c       $unwind$pjmedia_sdp_neg_get_active_local 00000001400a640c     pjmedia-x86_64-x64-vc14-debug-dynamic:sdp_neg.obj
 0002:00005414       $unwind$pjmedia_sdp_neg_get_active_remote 00000001400a6414     pjmedia-x86_64-x64-vc14-debug-dynamic:sdp_neg.obj
 0002:0000541c       $unwind$pjmedia_sdp_neg_was_answer_remote 00000001400a641c     pjmedia-x86_64-x64-vc14-debug-dynamic:sdp_neg.obj
 0002:00005424       $unwind$pjmedia_sdp_neg_get_neg_remote 00000001400a6424     pjmedia-x86_64-x64-vc14-debug-dynamic:sdp_neg.obj
 0002:0000542c       $unwind$pjmedia_sdp_neg_get_neg_local 00000001400a642c     pjmedia-x86_64-x64-vc14-debug-dynamic:sdp_neg.obj
 0002:00005434       $unwind$pjmedia_sdp_neg_modify_local_offer 00000001400a6434     pjmedia-x86_64-x64-vc14-debug-dynamic:sdp_neg.obj
 0002:0000543c       $unwind$pjmedia_sdp_neg_modify_local_offer2 00000001400a643c     pjmedia-x86_64-x64-vc14-debug-dynamic:sdp_neg.obj
 0002:0000544c       $unwind$pjmedia_sdp_neg_send_local_offer 00000001400a644c     pjmedia-x86_64-x64-vc14-debug-dynamic:sdp_neg.obj
 0002:00005454       $unwind$pjmedia_sdp_neg_set_remote_answer 00000001400a6454     pjmedia-x86_64-x64-vc14-debug-dynamic:sdp_neg.obj
 0002:0000545c       $unwind$pjmedia_sdp_neg_set_remote_offer 00000001400a645c     pjmedia-x86_64-x64-vc14-debug-dynamic:sdp_neg.obj
 0002:00005464       $unwind$pjmedia_sdp_neg_set_local_answer 00000001400a6464     pjmedia-x86_64-x64-vc14-debug-dynamic:sdp_neg.obj
 0002:0000546c       $unwind$pjmedia_sdp_neg_has_local_answer 00000001400a646c     pjmedia-x86_64-x64-vc14-debug-dynamic:sdp_neg.obj
 0002:00005474       $unwind$pjmedia_sdp_neg_cancel_offer 00000001400a6474     pjmedia-x86_64-x64-vc14-debug-dynamic:sdp_neg.obj
 0002:0000547c       $unwind$pjmedia_sdp_neg_negotiate 00000001400a647c     pjmedia-x86_64-x64-vc14-debug-dynamic:sdp_neg.obj
 0002:00005484       $unwind$pjmedia_sdp_neg_register_fmt_match_cb 00000001400a6484     pjmedia-x86_64-x64-vc14-debug-dynamic:sdp_neg.obj
 0002:00005490       $unwind$pjmedia_sdp_neg_fmt_match 00000001400a6490     pjmedia-x86_64-x64-vc14-debug-dynamic:sdp_neg.obj
 0002:00005498       $unwind$pj_bzero           00000001400a6498     pjmedia-x86_64-x64-vc14-debug-dynamic:sdp_neg.obj
 0002:000054a0       $unwind$pj_memcpy          00000001400a64a0     pjmedia-x86_64-x64-vc14-debug-dynamic:sdp_neg.obj
 0002:000054a8       $unwind$pj_memmove         00000001400a64a8     pjmedia-x86_64-x64-vc14-debug-dynamic:sdp_neg.obj
 0002:000054b0       $unwind$pj_isdigit         00000001400a64b0     pjmedia-x86_64-x64-vc14-debug-dynamic:sdp_neg.obj
 0002:000054b8       $unwind$custom_fmt_match   00000001400a64b8     pjmedia-x86_64-x64-vc14-debug-dynamic:sdp_neg.obj
 0002:000054c0       $unwind$sdp_media_clone_deactivate 00000001400a64c0     pjmedia-x86_64-x64-vc14-debug-dynamic:sdp_neg.obj
 0002:000054cc       $unwind$str_swap           00000001400a64cc     pjmedia-x86_64-x64-vc14-debug-dynamic:sdp_neg.obj
 0002:000054d8       $unwind$remove_all_media_directions 00000001400a64d8     pjmedia-x86_64-x64-vc14-debug-dynamic:sdp_neg.obj
 0002:000054e0       $unwind$update_media_direction 00000001400a64e0     pjmedia-x86_64-x64-vc14-debug-dynamic:sdp_neg.obj
 0002:000054e8       $unwind$process_m_answer   00000001400a64e8     pjmedia-x86_64-x64-vc14-debug-dynamic:sdp_neg.obj
 0002:000054f8       $unwind$process_answer     00000001400a64f8     pjmedia-x86_64-x64-vc14-debug-dynamic:sdp_neg.obj
 0002:00005500       $unwind$rewrite_pt         00000001400a6500     pjmedia-x86_64-x64-vc14-debug-dynamic:sdp_neg.obj
 0002:0000550c       $unwind$apply_answer_symmetric_pt 00000001400a650c     pjmedia-x86_64-x64-vc14-debug-dynamic:sdp_neg.obj
 0002:0000551c       $unwind$match_offer        00000001400a651c     pjmedia-x86_64-x64-vc14-debug-dynamic:sdp_neg.obj
 0002:00005530       $unwind$create_answer      00000001400a6530     pjmedia-x86_64-x64-vc14-debug-dynamic:sdp_neg.obj
 0002:00005564       $unwind$pj_pool_zalloc     00000001400a6564     pjmedia-x86_64-x64-vc14-debug-dynamic:sdp_neg.obj
 0002:0000556c       $unwind$pjlib_util_init    00000001400a656c     pjlib-util-x86_64-x64-vc14-debug-dynamic:errno.obj
 0002:00005574       $unwind$pjlib_util_strerror 00000001400a6574     pjlib-util-x86_64-x64-vc14-debug-dynamic:errno.obj
 0002:00005584       $unwind$pj_getopt          00000001400a6584     pjlib-util-x86_64-x64-vc14-debug-dynamic:getopt.obj
 0002:0000558c       $unwind$pj_getopt_long     00000001400a658c     pjlib-util-x86_64-x64-vc14-debug-dynamic:getopt.obj
 0002:00005594       $unwind$_getopt_internal   00000001400a6594     pjlib-util-x86_64-x64-vc14-debug-dynamic:getopt.obj
 0002:0000559c       $unwind$exchange           00000001400a659c     pjlib-util-x86_64-x64-vc14-debug-dynamic:getopt.obj
 0002:000055a8       $unwind$pj_cis_buf_init    00000001400a65a8     pjlib-util-x86_64-x64-vc14-debug-dynamic:scanner.obj
 0002:000055b0       $unwind$pj_cis_init        00000001400a65b0     pjlib-util-x86_64-x64-vc14-debug-dynamic:scanner.obj
 0002:000055b8       $unwind$pj_cis_dup         00000001400a65b8     pjlib-util-x86_64-x64-vc14-debug-dynamic:scanner.obj
 0002:000055c0       $unwind$pj_cis_add_range   00000001400a65c0     pjlib-util-x86_64-x64-vc14-debug-dynamic:scanner.obj
 0002:000055c8       $unwind$pj_cis_add_alpha   00000001400a65c8     pjlib-util-x86_64-x64-vc14-debug-dynamic:scanner.obj
 0002:000055d0       $unwind$pj_cis_add_num     00000001400a65d0     pjlib-util-x86_64-x64-vc14-debug-dynamic:scanner.obj
 0002:000055d8       $unwind$pj_cis_add_str     00000001400a65d8     pjlib-util-x86_64-x64-vc14-debug-dynamic:scanner.obj
 0002:000055e0       $unwind$pj_cis_add_cis     00000001400a65e0     pjlib-util-x86_64-x64-vc14-debug-dynamic:scanner.obj
 0002:000055e8       $unwind$pj_cis_del_range   00000001400a65e8     pjlib-util-x86_64-x64-vc14-debug-dynamic:scanner.obj
 0002:000055f0       $unwind$pj_cis_del_str     00000001400a65f0     pjlib-util-x86_64-x64-vc14-debug-dynamic:scanner.obj
 0002:000055f8       $unwind$pj_cis_invert      00000001400a65f8     pjlib-util-x86_64-x64-vc14-debug-dynamic:scanner.obj
 0002:00005600       $unwind$pj_scan_init       00000001400a6600     pjlib-util-x86_64-x64-vc14-debug-dynamic:scanner.obj
 0002:00005608       $unwind$pj_scan_fini       00000001400a6608     pjlib-util-x86_64-x64-vc14-debug-dynamic:scanner.obj
 0002:00005610       $unwind$pj_scan_peek       00000001400a6610     pjlib-util-x86_64-x64-vc14-debug-dynamic:scanner.obj
 0002:00005618       $unwind$pj_scan_peek_n     00000001400a6618     pjlib-util-x86_64-x64-vc14-debug-dynamic:scanner.obj
 0002:00005620       $unwind$pj_scan_peek_until 00000001400a6620     pjlib-util-x86_64-x64-vc14-debug-dynamic:scanner.obj
 0002:00005628       $unwind$pj_scan_get        00000001400a6628     pjlib-util-x86_64-x64-vc14-debug-dynamic:scanner.obj
 0002:00005630       $unwind$pj_scan_get_unescape 00000001400a6630     pjlib-util-x86_64-x64-vc14-debug-dynamic:scanner.obj
 0002:00005638       $unwind$pj_scan_get_quote  00000001400a6638     pjlib-util-x86_64-x64-vc14-debug-dynamic:scanner.obj
 0002:00005640       $unwind$pj_scan_get_quotes 00000001400a6640     pjlib-util-x86_64-x64-vc14-debug-dynamic:scanner.obj
 0002:00005648       $unwind$pj_scan_get_n      00000001400a6648     pjlib-util-x86_64-x64-vc14-debug-dynamic:scanner.obj
 0002:00005650       $unwind$pj_scan_get_char   00000001400a6650     pjlib-util-x86_64-x64-vc14-debug-dynamic:scanner.obj
 0002:00005658       $unwind$pj_scan_get_until  00000001400a6658     pjlib-util-x86_64-x64-vc14-debug-dynamic:scanner.obj
 0002:00005660       $unwind$pj_scan_get_until_ch 00000001400a6660     pjlib-util-x86_64-x64-vc14-debug-dynamic:scanner.obj
 0002:00005668       $unwind$pj_scan_get_until_chr 00000001400a6668     pjlib-util-x86_64-x64-vc14-debug-dynamic:scanner.obj
 0002:00005670       $unwind$pj_scan_advance_n  00000001400a6670     pjlib-util-x86_64-x64-vc14-debug-dynamic:scanner.obj
 0002:00005678       $unwind$pj_scan_strcmp     00000001400a6678     pjlib-util-x86_64-x64-vc14-debug-dynamic:scanner.obj
 0002:00005680       $unwind$pj_scan_stricmp    00000001400a6680     pjlib-util-x86_64-x64-vc14-debug-dynamic:scanner.obj
 0002:00005688       $unwind$pj_scan_stricmp_alnum 00000001400a6688     pjlib-util-x86_64-x64-vc14-debug-dynamic:scanner.obj
 0002:00005690       $unwind$pj_scan_get_newline 00000001400a6690     pjlib-util-x86_64-x64-vc14-debug-dynamic:scanner.obj
 0002:00005698       $unwind$pj_scan_skip_whitespace 00000001400a6698     pjlib-util-x86_64-x64-vc14-debug-dynamic:scanner.obj
 0002:000056a0       $unwind$pj_scan_skip_line  00000001400a66a0     pjlib-util-x86_64-x64-vc14-debug-dynamic:scanner.obj
 0002:000056a8       $unwind$pj_isxdigit        00000001400a66a8     pjlib-util-x86_64-x64-vc14-debug-dynamic:scanner.obj
 0002:000056b0       $unwind$pj_bzero           00000001400a66b0     pjlib-util-x86_64-x64-vc14-debug-dynamic:scanner.obj
 0002:000056b8       $unwind$pj_memmove         00000001400a66b8     pjlib-util-x86_64-x64-vc14-debug-dynamic:scanner.obj
 0002:000056c0       $unwind$pj_scan_syntax_err 00000001400a66c0     pjlib-util-x86_64-x64-vc14-debug-dynamic:scanner.obj
 0002:000056e4       $unwind$pj_cis_match       00000001400a66e4     pjlib-util-x86_64-x64-vc14-debug-dynamic:scanner.obj
 0002:000056ec       $unwind$pj_cis_match       00000001400a66ec     pjlib-util-x86_64-x64-vc14-debug-dynamic:string.obj
 0002:000056f4       $unwind$pj_str_unescape    00000001400a66f4     pjlib-util-x86_64-x64-vc14-debug-dynamic:string.obj
 0002:00005700       $unwind$pj_strcpy_unescape 00000001400a6700     pjlib-util-x86_64-x64-vc14-debug-dynamic:string.obj
 0002:00005708       $unwind$pj_strncpy_escape  00000001400a6708     pjlib-util-x86_64-x64-vc14-debug-dynamic:string.obj
 0002:00005710       $unwind$pj_strncpy2_escape 00000001400a6710     pjlib-util-x86_64-x64-vc14-debug-dynamic:string.obj
 0002:00005718       $unwind$pj_isxdigit        00000001400a6718     pjlib-util-x86_64-x64-vc14-debug-dynamic:string.obj
 0002:00005720       $unwind$pj_strchr          00000001400a6720     pjlib-util-x86_64-x64-vc14-debug-dynamic:string.obj
 0002:00005730       $unwind$pj_dns_settings_default 00000001400a6730     pjlib-util-x86_64-x64-vc14-debug-dynamic:resolver.obj
 0002:00005738       $unwind$pj_dns_resolver_create 00000001400a6738     pjlib-util-x86_64-x64-vc14-debug-dynamic:resolver.obj
 0002:00005740       $unwind$pj_dns_resolver_set_ns 00000001400a6740     pjlib-util-x86_64-x64-vc14-debug-dynamic:resolver.obj
 0002:00005748       $unwind$pj_dns_resolver_get_settings 00000001400a6748     pjlib-util-x86_64-x64-vc14-debug-dynamic:resolver.obj
 0002:00005750       $unwind$pj_dns_resolver_set_settings 00000001400a6750     pjlib-util-x86_64-x64-vc14-debug-dynamic:resolver.obj
 0002:00005758       $unwind$pj_dns_resolver_handle_events 00000001400a6758     pjlib-util-x86_64-x64-vc14-debug-dynamic:resolver.obj
 0002:00005760       $unwind$pj_dns_resolver_destroy 00000001400a6760     pjlib-util-x86_64-x64-vc14-debug-dynamic:resolver.obj
 0002:00005768       $unwind$pj_dns_resolver_start_query 00000001400a6768     pjlib-util-x86_64-x64-vc14-debug-dynamic:resolver.obj
 0002:00005778       $unwind$pj_dns_resolver_cancel_query 00000001400a6778     pjlib-util-x86_64-x64-vc14-debug-dynamic:resolver.obj
 0002:00005780       $unwind$pj_dns_parse_a_response 00000001400a6780     pjlib-util-x86_64-x64-vc14-debug-dynamic:resolver.obj
 0002:0000578c       $unwind$pj_dns_parse_addr_response 00000001400a678c     pjlib-util-x86_64-x64-vc14-debug-dynamic:resolver.obj
 0002:00005798       $unwind$pj_dns_resolver_add_entry 00000001400a6798     pjlib-util-x86_64-x64-vc14-debug-dynamic:resolver.obj
 0002:000057a8       $unwind$pj_dns_resolver_get_cached_count 00000001400a67a8     pjlib-util-x86_64-x64-vc14-debug-dynamic:resolver.obj
 0002:000057b0       $unwind$pj_dns_resolver_dump 00000001400a67b0     pjlib-util-x86_64-x64-vc14-debug-dynamic:resolver.obj
 0002:000057c0       $unwind$pj_tolower         00000001400a67c0     pjlib-util-x86_64-x64-vc14-debug-dynamic:resolver.obj
 0002:000057c8       $unwind$pj_list_empty      00000001400a67c8     pjlib-util-x86_64-x64-vc14-debug-dynamic:resolver.obj
 0002:000057d0       $unwind$pj_list_push_back  00000001400a67d0     pjlib-util-x86_64-x64-vc14-debug-dynamic:resolver.obj
 0002:000057d8       $unwind$pj_pool_zalloc     00000001400a67d8     pjlib-util-x86_64-x64-vc14-debug-dynamic:resolver.obj
 0002:000057e0       $unwind$pj_bzero           00000001400a67e0     pjlib-util-x86_64-x64-vc14-debug-dynamic:resolver.obj
 0002:000057e8       $unwind$pj_memcpy          00000001400a67e8     pjlib-util-x86_64-x64-vc14-debug-dynamic:resolver.obj
 0002:000057f0       $unwind$on_read_complete   00000001400a67f0     pjlib-util-x86_64-x64-vc14-debug-dynamic:resolver.obj
 0002:00005800       $unwind$on_timeout         00000001400a6800     pjlib-util-x86_64-x64-vc14-debug-dynamic:resolver.obj
 0002:00005808       $unwind$select_nameservers 00000001400a6808     pjlib-util-x86_64-x64-vc14-debug-dynamic:resolver.obj
 0002:00005810       $unwind$dns_resolver_on_destroy 00000001400a6810     pjlib-util-x86_64-x64-vc14-debug-dynamic:resolver.obj
 0002:00005818       $unwind$close_sock         00000001400a6818     pjlib-util-x86_64-x64-vc14-debug-dynamic:resolver.obj
 0002:00005820       $unwind$init_sock          00000001400a6820     pjlib-util-x86_64-x64-vc14-debug-dynamic:resolver.obj
 0002:00005828       $unwind$alloc_qnode        00000001400a6828     pjlib-util-x86_64-x64-vc14-debug-dynamic:resolver.obj
 0002:00005830       $unwind$transmit_query     00000001400a6830     pjlib-util-x86_64-x64-vc14-debug-dynamic:resolver.obj
 0002:00005844       $unwind$init_res_key       00000001400a6844     pjlib-util-x86_64-x64-vc14-debug-dynamic:resolver.obj
 0002:0000584c       $unwind$alloc_entry        00000001400a684c     pjlib-util-x86_64-x64-vc14-debug-dynamic:resolver.obj
 0002:00005854       $unwind$reset_entry        00000001400a6854     pjlib-util-x86_64-x64-vc14-debug-dynamic:resolver.obj
 0002:0000585c       $unwind$free_entry         00000001400a685c     pjlib-util-x86_64-x64-vc14-debug-dynamic:resolver.obj
 0002:00005864       $unwind$set_nameserver_state 00000001400a6864     pjlib-util-x86_64-x64-vc14-debug-dynamic:resolver.obj
 0002:00005874       $unwind$report_nameserver_status 00000001400a6874     pjlib-util-x86_64-x64-vc14-debug-dynamic:resolver.obj
 0002:0000587c       $unwind$update_res_cache   00000001400a687c     pjlib-util-x86_64-x64-vc14-debug-dynamic:resolver.obj
 0002:000058a8       $unwind$pj_md5_update      00000001400a68a8     pjlib-util-x86_64-x64-vc14-debug-dynamic:md5.obj
 0002:000058b0       $unwind$pj_md5_final       00000001400a68b0     pjlib-util-x86_64-x64-vc14-debug-dynamic:md5.obj
 0002:000058b8       $unwind$pj_bzero           00000001400a68b8     pjlib-util-x86_64-x64-vc14-debug-dynamic:md5.obj
 0002:000058c0       $unwind$pj_memcpy          00000001400a68c0     pjlib-util-x86_64-x64-vc14-debug-dynamic:md5.obj
 0002:000058c8       $unwind$MD5Transform       00000001400a68c8     pjlib-util-x86_64-x64-vc14-debug-dynamic:md5.obj
 0002:000058d4       $unwind$pj_dns_make_query  00000001400a68d4     pjlib-util-x86_64-x64-vc14-debug-dynamic:dns.obj
 0002:000058dc       $unwind$pj_dns_parse_packet 00000001400a68dc     pjlib-util-x86_64-x64-vc14-debug-dynamic:dns.obj
 0002:000058e4       $unwind$pj_dns_packet_dup  00000001400a68e4     pjlib-util-x86_64-x64-vc14-debug-dynamic:dns.obj
 0002:000058f4       $unwind$pj_dns_get_type_name 00000001400a68f4     pjlib-util-x86_64-x64-vc14-debug-dynamic:dns.obj
 0002:000058fc       $unwind$pj_dns_init_srv_rr 00000001400a68fc     pjlib-util-x86_64-x64-vc14-debug-dynamic:dns.obj
 0002:00005908       $unwind$pj_dns_init_cname_rr 00000001400a6908     pjlib-util-x86_64-x64-vc14-debug-dynamic:dns.obj
 0002:00005914       $unwind$pj_dns_init_a_rr   00000001400a6914     pjlib-util-x86_64-x64-vc14-debug-dynamic:dns.obj
 0002:00005920       $unwind$pj_dns_init_aaaa_rr 00000001400a6920     pjlib-util-x86_64-x64-vc14-debug-dynamic:dns.obj
 0002:0000592c       $unwind$pj_bzero           00000001400a692c     pjlib-util-x86_64-x64-vc14-debug-dynamic:dns.obj
 0002:00005934       $unwind$pj_memcpy          00000001400a6934     pjlib-util-x86_64-x64-vc14-debug-dynamic:dns.obj
 0002:0000593c       $unwind$get_name_len       00000001400a693c     pjlib-util-x86_64-x64-vc14-debug-dynamic:dns.obj
 0002:00005944       $unwind$get_name           00000001400a6944     pjlib-util-x86_64-x64-vc14-debug-dynamic:dns.obj
 0002:0000594c       $unwind$parse_query        00000001400a694c     pjlib-util-x86_64-x64-vc14-debug-dynamic:dns.obj
 0002:00005954       $unwind$parse_rr           00000001400a6954     pjlib-util-x86_64-x64-vc14-debug-dynamic:dns.obj
 0002:0000595c       $unwind$apply_name_table   00000001400a695c     pjlib-util-x86_64-x64-vc14-debug-dynamic:dns.obj
 0002:00005964       $unwind$copy_query         00000001400a6964     pjlib-util-x86_64-x64-vc14-debug-dynamic:dns.obj
 0002:0000596c       $unwind$copy_rr            00000001400a696c     pjlib-util-x86_64-x64-vc14-debug-dynamic:dns.obj
 0002:00005984       $unwind$pj_pool_zalloc     00000001400a6984     pjlib-util-x86_64-x64-vc14-debug-dynamic:dns.obj
 0002:0000598c       $unwind$pj_dns_srv_resolve 00000001400a698c     pjlib-util-x86_64-x64-vc14-debug-dynamic:srv_resolver.obj
 0002:00005998       $unwind$pj_dns_srv_cancel_query 00000001400a6998     pjlib-util-x86_64-x64-vc14-debug-dynamic:srv_resolver.obj
 0002:000059a0       $unwind$pj_bzero           00000001400a69a0     pjlib-util-x86_64-x64-vc14-debug-dynamic:srv_resolver.obj
 0002:000059a8       $unwind$pj_memcpy          00000001400a69a8     pjlib-util-x86_64-x64-vc14-debug-dynamic:srv_resolver.obj
 0002:000059b0       $unwind$dns_callback       00000001400a69b0     pjlib-util-x86_64-x64-vc14-debug-dynamic:srv_resolver.obj
 0002:000059c4       $unwind$build_server_entries 00000001400a69c4     pjlib-util-x86_64-x64-vc14-debug-dynamic:srv_resolver.obj
 0002:000059d8       $unwind$resolve_hostnames  00000001400a69d8     pjlib-util-x86_64-x64-vc14-debug-dynamic:srv_resolver.obj
 0002:000059e8       $unwind$pj_pool_zalloc     00000001400a69e8     pjlib-util-x86_64-x64-vc14-debug-dynamic:srv_resolver.obj
 0002:000059f0       $unwind$pj_init            00000001400a69f0     pjlib-x86_64-x64-vc14-debug-dynamic:os_core_win32.obj
 0002:00005a00       $unwind$pj_shutdown        00000001400a6a00     pjlib-x86_64-x64-vc14-debug-dynamic:os_core_win32.obj
 0002:00005a08       $unwind$pj_getpid          00000001400a6a08     pjlib-x86_64-x64-vc14-debug-dynamic:os_core_win32.obj
 0002:00005a10       $unwind$pj_thread_create   00000001400a6a10     pjlib-x86_64-x64-vc14-debug-dynamic:os_core_win32.obj
 0002:00005a18       $unwind$pj_thread_register 00000001400a6a18     pjlib-x86_64-x64-vc14-debug-dynamic:os_core_win32.obj
 0002:00005a24       $unwind$pj_thread_is_registered 00000001400a6a24     pjlib-x86_64-x64-vc14-debug-dynamic:os_core_win32.obj
 0002:00005a2c       $unwind$pj_thread_get_prio 00000001400a6a2c     pjlib-x86_64-x64-vc14-debug-dynamic:os_core_win32.obj
 0002:00005a34       $unwind$pj_thread_set_prio 00000001400a6a34     pjlib-x86_64-x64-vc14-debug-dynamic:os_core_win32.obj
 0002:00005a3c       $unwind$pj_thread_get_os_handle 00000001400a6a3c     pjlib-x86_64-x64-vc14-debug-dynamic:os_core_win32.obj
 0002:00005a44       $unwind$pj_thread_get_name 00000001400a6a44     pjlib-x86_64-x64-vc14-debug-dynamic:os_core_win32.obj
 0002:00005a4c       $unwind$pj_thread_resume   00000001400a6a4c     pjlib-x86_64-x64-vc14-debug-dynamic:os_core_win32.obj
 0002:00005a54       $unwind$pj_thread_this     00000001400a6a54     pjlib-x86_64-x64-vc14-debug-dynamic:os_core_win32.obj
 0002:00005a5c       $unwind$pj_thread_join     00000001400a6a5c     pjlib-x86_64-x64-vc14-debug-dynamic:os_core_win32.obj
 0002:00005a64       $unwind$pj_thread_destroy  00000001400a6a64     pjlib-x86_64-x64-vc14-debug-dynamic:os_core_win32.obj
 0002:00005a6c       $unwind$pj_thread_sleep    00000001400a6a6c     pjlib-x86_64-x64-vc14-debug-dynamic:os_core_win32.obj
 0002:00005a74       $unwind$pj_thread_check_stack 00000001400a6a74     pjlib-x86_64-x64-vc14-debug-dynamic:os_core_win32.obj
 0002:00005a7c       $unwind$pj_thread_get_stack_info 00000001400a6a7c     pjlib-x86_64-x64-vc14-debug-dynamic:os_core_win32.obj
 0002:00005a84       $unwind$pj_thread_local_alloc 00000001400a6a84     pjlib-x86_64-x64-vc14-debug-dynamic:os_core_win32.obj
 0002:00005a8c       $unwind$pj_thread_local_free 00000001400a6a8c     pjlib-x86_64-x64-vc14-debug-dynamic:os_core_win32.obj
 0002:00005a94       $unwind$pj_thread_local_set 00000001400a6a94     pjlib-x86_64-x64-vc14-debug-dynamic:os_core_win32.obj
 0002:00005a9c       $unwind$pj_thread_local_get 00000001400a6a9c     pjlib-x86_64-x64-vc14-debug-dynamic:os_core_win32.obj
 0002:00005aa4       $unwind$pj_atomic_create   00000001400a6aa4     pjlib-x86_64-x64-vc14-debug-dynamic:os_core_win32.obj
 0002:00005aac       $unwind$pj_atomic_destroy  00000001400a6aac     pjlib-x86_64-x64-vc14-debug-dynamic:os_core_win32.obj
 0002:00005ab4       $unwind$pj_atomic_set      00000001400a6ab4     pjlib-x86_64-x64-vc14-debug-dynamic:os_core_win32.obj
 0002:00005abc       $unwind$pj_atomic_get      00000001400a6abc     pjlib-x86_64-x64-vc14-debug-dynamic:os_core_win32.obj
 0002:00005ac4       $unwind$pj_atomic_inc      00000001400a6ac4     pjlib-x86_64-x64-vc14-debug-dynamic:os_core_win32.obj
 0002:00005acc       $unwind$pj_atomic_inc_and_get 00000001400a6acc     pjlib-x86_64-x64-vc14-debug-dynamic:os_core_win32.obj
 0002:00005ad4       $unwind$pj_atomic_dec      00000001400a6ad4     pjlib-x86_64-x64-vc14-debug-dynamic:os_core_win32.obj
 0002:00005adc       $unwind$pj_atomic_dec_and_get 00000001400a6adc     pjlib-x86_64-x64-vc14-debug-dynamic:os_core_win32.obj
 0002:00005ae4       $unwind$pj_atomic_add      00000001400a6ae4     pjlib-x86_64-x64-vc14-debug-dynamic:os_core_win32.obj
 0002:00005aec       $unwind$pj_atomic_add_and_get 00000001400a6aec     pjlib-x86_64-x64-vc14-debug-dynamic:os_core_win32.obj
 0002:00005af4       $unwind$pj_mutex_create    00000001400a6af4     pjlib-x86_64-x64-vc14-debug-dynamic:os_core_win32.obj
 0002:00005afc       $unwind$pj_mutex_create_simple 00000001400a6afc     pjlib-x86_64-x64-vc14-debug-dynamic:os_core_win32.obj
 0002:00005b04       $unwind$pj_mutex_create_recursive 00000001400a6b04     pjlib-x86_64-x64-vc14-debug-dynamic:os_core_win32.obj
 0002:00005b0c       $unwind$pj_mutex_lock      00000001400a6b0c     pjlib-x86_64-x64-vc14-debug-dynamic:os_core_win32.obj
 0002:00005b14       $unwind$pj_mutex_unlock    00000001400a6b14     pjlib-x86_64-x64-vc14-debug-dynamic:os_core_win32.obj
 0002:00005b1c       $unwind$pj_mutex_trylock   00000001400a6b1c     pjlib-x86_64-x64-vc14-debug-dynamic:os_core_win32.obj
 0002:00005b24       $unwind$pj_mutex_destroy   00000001400a6b24     pjlib-x86_64-x64-vc14-debug-dynamic:os_core_win32.obj
 0002:00005b2c       $unwind$pj_mutex_is_locked 00000001400a6b2c     pjlib-x86_64-x64-vc14-debug-dynamic:os_core_win32.obj
 0002:00005b34       $unwind$pj_rwmutex_create  00000001400a6b34     pjlib-x86_64-x64-vc14-debug-dynamic:os_core_win32.obj
 0002:00005b3c       $unwind$pj_rwmutex_lock_read 00000001400a6b3c     pjlib-x86_64-x64-vc14-debug-dynamic:os_core_win32.obj
 0002:00005b44       $unwind$pj_rwmutex_lock_write 00000001400a6b44     pjlib-x86_64-x64-vc14-debug-dynamic:os_core_win32.obj
 0002:00005b4c       $unwind$pj_rwmutex_unlock_read 00000001400a6b4c     pjlib-x86_64-x64-vc14-debug-dynamic:os_core_win32.obj
 0002:00005b54       $unwind$pj_rwmutex_unlock_write 00000001400a6b54     pjlib-x86_64-x64-vc14-debug-dynamic:os_core_win32.obj
 0002:00005b5c       $unwind$pj_rwmutex_destroy 00000001400a6b5c     pjlib-x86_64-x64-vc14-debug-dynamic:os_core_win32.obj
 0002:00005b64       $unwind$pj_enter_critical_section 00000001400a6b64     pjlib-x86_64-x64-vc14-debug-dynamic:os_core_win32.obj
 0002:00005b6c       $unwind$pj_leave_critical_section 00000001400a6b6c     pjlib-x86_64-x64-vc14-debug-dynamic:os_core_win32.obj
 0002:00005b74       $unwind$pj_sem_create      00000001400a6b74     pjlib-x86_64-x64-vc14-debug-dynamic:os_core_win32.obj
 0002:00005b7c       $unwind$pj_sem_wait        00000001400a6b7c     pjlib-x86_64-x64-vc14-debug-dynamic:os_core_win32.obj
 0002:00005b84       $unwind$pj_sem_trywait     00000001400a6b84     pjlib-x86_64-x64-vc14-debug-dynamic:os_core_win32.obj
 0002:00005b8c       $unwind$pj_sem_post        00000001400a6b8c     pjlib-x86_64-x64-vc14-debug-dynamic:os_core_win32.obj
 0002:00005b94       $unwind$pj_sem_destroy     00000001400a6b94     pjlib-x86_64-x64-vc14-debug-dynamic:os_core_win32.obj
 0002:00005b9c       $unwind$pj_event_create    00000001400a6b9c     pjlib-x86_64-x64-vc14-debug-dynamic:os_core_win32.obj
 0002:00005ba4       $unwind$pj_event_wait      00000001400a6ba4     pjlib-x86_64-x64-vc14-debug-dynamic:os_core_win32.obj
 0002:00005bac       $unwind$pj_event_trywait   00000001400a6bac     pjlib-x86_64-x64-vc14-debug-dynamic:os_core_win32.obj
 0002:00005bb4       $unwind$pj_event_set       00000001400a6bb4     pjlib-x86_64-x64-vc14-debug-dynamic:os_core_win32.obj
 0002:00005bbc       $unwind$pj_event_pulse     00000001400a6bbc     pjlib-x86_64-x64-vc14-debug-dynamic:os_core_win32.obj
 0002:00005bc4       $unwind$pj_event_reset     00000001400a6bc4     pjlib-x86_64-x64-vc14-debug-dynamic:os_core_win32.obj
 0002:00005bcc       $unwind$pj_event_destroy   00000001400a6bcc     pjlib-x86_64-x64-vc14-debug-dynamic:os_core_win32.obj
 0002:00005bd4       $unwind$pj_term_set_color  00000001400a6bd4     pjlib-x86_64-x64-vc14-debug-dynamic:os_core_win32.obj
 0002:00005bdc       $unwind$pj_term_get_color  00000001400a6bdc     pjlib-x86_64-x64-vc14-debug-dynamic:os_core_win32.obj
 0002:00005bec       $unwind$pj_run_app         00000001400a6bec     pjlib-x86_64-x64-vc14-debug-dynamic:os_core_win32.obj
 0002:00005bf4       $unwind$pj_thread_init     00000001400a6bf4     pjlib-x86_64-x64-vc14-debug-dynamic:os_core_win32.obj
 0002:00005bfc       $unwind$pj_bzero           00000001400a6bfc     pjlib-x86_64-x64-vc14-debug-dynamic:os_core_win32.obj
 0002:00005c04       $unwind$init_mutex         00000001400a6c04     pjlib-x86_64-x64-vc14-debug-dynamic:os_core_win32.obj
 0002:00005c0c       $unwind$thread_main        00000001400a6c0c     pjlib-x86_64-x64-vc14-debug-dynamic:os_core_win32.obj
 0002:00005c14       $unwind$pj_sem_wait_for    00000001400a6c14     pjlib-x86_64-x64-vc14-debug-dynamic:os_core_win32.obj
 0002:00005c1c       $unwind$pj_event_wait_for  00000001400a6c1c     pjlib-x86_64-x64-vc14-debug-dynamic:os_core_win32.obj
 0002:00005c24       $unwind$pj_color_to_os_attr 00000001400a6c24     pjlib-x86_64-x64-vc14-debug-dynamic:os_core_win32.obj
 0002:00005c2c       $unwind$os_attr_to_pj_color 00000001400a6c2c     pjlib-x86_64-x64-vc14-debug-dynamic:os_core_win32.obj
 0002:00005c70       $unwind$pj_strerror        00000001400a6c70     pjlib-x86_64-x64-vc14-debug-dynamic:errno.obj
 0002:00005c7c       $unwind$pj_perror          00000001400a6c7c     pjlib-x86_64-x64-vc14-debug-dynamic:errno.obj
 0002:00005c84       $unwind$pj_register_strerror 00000001400a6c84     pjlib-x86_64-x64-vc14-debug-dynamic:errno.obj
 0002:00005c8c       $unwind$pj_errno_clear_handlers 00000001400a6c8c     pjlib-x86_64-x64-vc14-debug-dynamic:errno.obj
 0002:00005c94       $unwind$pj_perror_1        00000001400a6c94     pjlib-x86_64-x64-vc14-debug-dynamic:errno.obj
 0002:00005c9c       $unwind$pj_perror_2        00000001400a6c9c     pjlib-x86_64-x64-vc14-debug-dynamic:errno.obj
 0002:00005ca4       $unwind$pj_perror_3        00000001400a6ca4     pjlib-x86_64-x64-vc14-debug-dynamic:errno.obj
 0002:00005cac       $unwind$pj_perror_4        00000001400a6cac     pjlib-x86_64-x64-vc14-debug-dynamic:errno.obj
 0002:00005cb4       $unwind$pj_perror_5        00000001400a6cb4     pjlib-x86_64-x64-vc14-debug-dynamic:errno.obj
 0002:00005cbc       $unwind$pj_bzero           00000001400a6cbc     pjlib-x86_64-x64-vc14-debug-dynamic:errno.obj
 0002:00005cc4       $unwind$pj_memcpy          00000001400a6cc4     pjlib-x86_64-x64-vc14-debug-dynamic:errno.obj
 0002:00005ccc       $unwind$pjlib_error        00000001400a6ccc     pjlib-x86_64-x64-vc14-debug-dynamic:errno.obj
 0002:00005cd4       $unwind$invoke_log         00000001400a6cd4     pjlib-x86_64-x64-vc14-debug-dynamic:errno.obj
 0002:00005cdc       $unwind$pj_perror_imp      00000001400a6cdc     pjlib-x86_64-x64-vc14-debug-dynamic:errno.obj
 0002:00005cf8       $unwind$pj_list_empty      00000001400a6cf8     pjlib-x86_64-x64-vc14-debug-dynamic:list.obj
 0002:00005d00       $unwind$pj_list_insert_before 00000001400a6d00     pjlib-x86_64-x64-vc14-debug-dynamic:list.obj
 0002:00005d08       $unwind$pj_list_insert_nodes_before 00000001400a6d08     pjlib-x86_64-x64-vc14-debug-dynamic:list.obj
 0002:00005d10       $unwind$pj_list_insert_nodes_after 00000001400a6d10     pjlib-x86_64-x64-vc14-debug-dynamic:list.obj
 0002:00005d18       $unwind$pj_list_merge_first 00000001400a6d18     pjlib-x86_64-x64-vc14-debug-dynamic:list.obj
 0002:00005d20       $unwind$pj_list_merge_last 00000001400a6d20     pjlib-x86_64-x64-vc14-debug-dynamic:list.obj
 0002:00005d28       $unwind$pj_list_erase      00000001400a6d28     pjlib-x86_64-x64-vc14-debug-dynamic:list.obj
 0002:00005d30       $unwind$pj_list_find_node  00000001400a6d30     pjlib-x86_64-x64-vc14-debug-dynamic:list.obj
 0002:00005d38       $unwind$pj_list_search     00000001400a6d38     pjlib-x86_64-x64-vc14-debug-dynamic:list.obj
 0002:00005d40       $unwind$pj_list_size       00000001400a6d40     pjlib-x86_64-x64-vc14-debug-dynamic:list.obj
 0002:00005d50       $unwind$pj_inet_ntop2      00000001400a6d50     pjlib-x86_64-x64-vc14-debug-dynamic:sock_common.obj
 0002:00005d58       $unwind$pj_sockaddr_print  00000001400a6d58     pjlib-x86_64-x64-vc14-debug-dynamic:sock_common.obj
 0002:00005d68       $unwind$pj_inet_addr       00000001400a6d68     pjlib-x86_64-x64-vc14-debug-dynamic:sock_common.obj
 0002:00005d70       $unwind$pj_inet_addr2      00000001400a6d70     pjlib-x86_64-x64-vc14-debug-dynamic:sock_common.obj
 0002:00005d7c       $unwind$pj_sockaddr_in_init 00000001400a6d7c     pjlib-x86_64-x64-vc14-debug-dynamic:sock_common.obj
 0002:00005d84       $unwind$pj_sockaddr_init   00000001400a6d84     pjlib-x86_64-x64-vc14-debug-dynamic:sock_common.obj
 0002:00005d8c       $unwind$pj_sockaddr_cmp    00000001400a6d8c     pjlib-x86_64-x64-vc14-debug-dynamic:sock_common.obj
 0002:00005d94       $unwind$pj_sockaddr_get_addr 00000001400a6d94     pjlib-x86_64-x64-vc14-debug-dynamic:sock_common.obj
 0002:00005d9c       $unwind$pj_sockaddr_has_addr 00000001400a6d9c     pjlib-x86_64-x64-vc14-debug-dynamic:sock_common.obj
 0002:00005dac       $unwind$pj_sockaddr_get_addr_len 00000001400a6dac     pjlib-x86_64-x64-vc14-debug-dynamic:sock_common.obj
 0002:00005db4       $unwind$pj_sockaddr_get_len 00000001400a6db4     pjlib-x86_64-x64-vc14-debug-dynamic:sock_common.obj
 0002:00005dbc       $unwind$pj_sockaddr_copy_addr 00000001400a6dbc     pjlib-x86_64-x64-vc14-debug-dynamic:sock_common.obj
 0002:00005dc4       $unwind$pj_sockaddr_cp     00000001400a6dc4     pjlib-x86_64-x64-vc14-debug-dynamic:sock_common.obj
 0002:00005dcc       $unwind$pj_sockaddr_synthesize 00000001400a6dcc     pjlib-x86_64-x64-vc14-debug-dynamic:sock_common.obj
 0002:00005de0       $unwind$pj_sockaddr_in_get_addr 00000001400a6de0     pjlib-x86_64-x64-vc14-debug-dynamic:sock_common.obj
 0002:00005de8       $unwind$pj_sockaddr_in_set_addr 00000001400a6de8     pjlib-x86_64-x64-vc14-debug-dynamic:sock_common.obj
 0002:00005df0       $unwind$pj_sockaddr_in_set_str_addr 00000001400a6df0     pjlib-x86_64-x64-vc14-debug-dynamic:sock_common.obj
 0002:00005e00       $unwind$pj_sockaddr_set_str_addr 00000001400a6e00     pjlib-x86_64-x64-vc14-debug-dynamic:sock_common.obj
 0002:00005e10       $unwind$pj_sockaddr_get_port 00000001400a6e10     pjlib-x86_64-x64-vc14-debug-dynamic:sock_common.obj
 0002:00005e18       $unwind$pj_sockaddr_in_get_port 00000001400a6e18     pjlib-x86_64-x64-vc14-debug-dynamic:sock_common.obj
 0002:00005e20       $unwind$pj_sockaddr_set_port 00000001400a6e20     pjlib-x86_64-x64-vc14-debug-dynamic:sock_common.obj
 0002:00005e28       $unwind$pj_sockaddr_in_set_port 00000001400a6e28     pjlib-x86_64-x64-vc14-debug-dynamic:sock_common.obj
 0002:00005e30       $unwind$pj_sockaddr_parse  00000001400a6e30     pjlib-x86_64-x64-vc14-debug-dynamic:sock_common.obj
 0002:00005e38       $unwind$pj_sockaddr_parse2 00000001400a6e38     pjlib-x86_64-x64-vc14-debug-dynamic:sock_common.obj
 0002:00005e44       $unwind$pj_gethostaddr     00000001400a6e44     pjlib-x86_64-x64-vc14-debug-dynamic:sock_common.obj
 0002:00005e54       $unwind$pj_sock_bind_random 00000001400a6e54     pjlib-x86_64-x64-vc14-debug-dynamic:sock_common.obj
 0002:00005e64       $unwind$pj_sock_setsockopt_sobuf 00000001400a6e64     pjlib-x86_64-x64-vc14-debug-dynamic:sock_common.obj
 0002:00005e6c       $unwind$pj_addr_str_print  00000001400a6e6c     pjlib-x86_64-x64-vc14-debug-dynamic:sock_common.obj
 0002:00005e7c       $unwind$pj_isdigit         00000001400a6e7c     pjlib-x86_64-x64-vc14-debug-dynamic:sock_common.obj
 0002:00005e84       $unwind$pj_strchr          00000001400a6e84     pjlib-x86_64-x64-vc14-debug-dynamic:sock_common.obj
 0002:00005e8c       $unwind$pj_bzero           00000001400a6e8c     pjlib-x86_64-x64-vc14-debug-dynamic:sock_common.obj
 0002:00005e94       $unwind$pj_memcpy          00000001400a6e94     pjlib-x86_64-x64-vc14-debug-dynamic:sock_common.obj
 0002:00005e9c       $unwind$pj_memcmp          00000001400a6e9c     pjlib-x86_64-x64-vc14-debug-dynamic:sock_common.obj
 0002:00005ea4       $unwind$pj_gethostip       00000001400a6ea4     pjlib-x86_64-x64-vc14-debug-dynamic:sock_common.obj
 0002:00005eb4       $unwind$pj_getipinterface  00000001400a6eb4     pjlib-x86_64-x64-vc14-debug-dynamic:sock_common.obj
 0002:00005ec8       $unwind$pj_getdefaultipinterface 00000001400a6ec8     pjlib-x86_64-x64-vc14-debug-dynamic:sock_common.obj
 0002:00005efc       $unwind$pj_pool_create     00000001400a6efc     pjlib-x86_64-x64-vc14-debug-dynamic:pool.obj
 0002:00005f04       $unwind$pj_pool_release    00000001400a6f04     pjlib-x86_64-x64-vc14-debug-dynamic:pool.obj
 0002:00005f0c       $unwind$pj_pool_safe_release 00000001400a6f0c     pjlib-x86_64-x64-vc14-debug-dynamic:pool.obj
 0002:00005f14       $unwind$pj_pool_secure_release 00000001400a6f14     pjlib-x86_64-x64-vc14-debug-dynamic:pool.obj
 0002:00005f1c       $unwind$pj_pool_reset      00000001400a6f1c     pjlib-x86_64-x64-vc14-debug-dynamic:pool.obj
 0002:00005f24       $unwind$pj_pool_get_used_size 00000001400a6f24     pjlib-x86_64-x64-vc14-debug-dynamic:pool.obj
 0002:00005f2c       $unwind$pj_pool_alloc      00000001400a6f2c     pjlib-x86_64-x64-vc14-debug-dynamic:pool.obj
 0002:00005f34       $unwind$pj_pool_calloc     00000001400a6f34     pjlib-x86_64-x64-vc14-debug-dynamic:pool.obj
 0002:00005f3c       $unwind$pj_pool_alloc_from_block 00000001400a6f3c     pjlib-x86_64-x64-vc14-debug-dynamic:pool.obj
 0002:00005f44       $unwind$pj_pool_allocate_find 00000001400a6f44     pjlib-x86_64-x64-vc14-debug-dynamic:pool.obj
 0002:00005f4c       $unwind$pj_pool_create_int 00000001400a6f4c     pjlib-x86_64-x64-vc14-debug-dynamic:pool.obj
 0002:00005f54       $unwind$pj_pool_init_int   00000001400a6f54     pjlib-x86_64-x64-vc14-debug-dynamic:pool.obj
 0002:00005f5c       $unwind$pj_pool_destroy_int 00000001400a6f5c     pjlib-x86_64-x64-vc14-debug-dynamic:pool.obj
 0002:00005f64       $unwind$pj_bzero           00000001400a6f64     pjlib-x86_64-x64-vc14-debug-dynamic:pool.obj
 0002:00005f6c       $unwind$pj_pool_create_block 00000001400a6f6c     pjlib-x86_64-x64-vc14-debug-dynamic:pool.obj
 0002:00005f74       $unwind$reset_pool         00000001400a6f74     pjlib-x86_64-x64-vc14-debug-dynamic:pool.obj
 0002:00005f88       $unwind$pj_list_empty      00000001400a6f88     pjlib-x86_64-x64-vc14-debug-dynamic:pool_caching.obj
 0002:00005f90       $unwind$pj_caching_pool_init 00000001400a6f90     pjlib-x86_64-x64-vc14-debug-dynamic:pool_caching.obj
 0002:00005f98       $unwind$pj_caching_pool_destroy 00000001400a6f98     pjlib-x86_64-x64-vc14-debug-dynamic:pool_caching.obj
 0002:00005fa0       $unwind$pj_bzero           00000001400a6fa0     pjlib-x86_64-x64-vc14-debug-dynamic:pool_caching.obj
 0002:00005fa8       $unwind$pj_memcpy          00000001400a6fa8     pjlib-x86_64-x64-vc14-debug-dynamic:pool_caching.obj
 0002:00005fb0       $unwind$cpool_create_pool  00000001400a6fb0     pjlib-x86_64-x64-vc14-debug-dynamic:pool_caching.obj
 0002:00005fb8       $unwind$cpool_release_pool 00000001400a6fb8     pjlib-x86_64-x64-vc14-debug-dynamic:pool_caching.obj
 0002:00005fc0       $unwind$cpool_dump_status  00000001400a6fc0     pjlib-x86_64-x64-vc14-debug-dynamic:pool_caching.obj
 0002:00005fc8       $unwind$cpool_on_block_alloc 00000001400a6fc8     pjlib-x86_64-x64-vc14-debug-dynamic:pool_caching.obj
 0002:00005fd0       $unwind$cpool_on_block_free 00000001400a6fd0     pjlib-x86_64-x64-vc14-debug-dynamic:pool_caching.obj
 0002:00005fe0       $unwind$pj_str             00000001400a6fe0     pjlib-x86_64-x64-vc14-debug-dynamic:string.obj
 0002:00005fec       $unwind$pj_strcpy          00000001400a6fec     pjlib-x86_64-x64-vc14-debug-dynamic:string.obj
 0002:00005ff4       $unwind$pj_strcpy2         00000001400a6ff4     pjlib-x86_64-x64-vc14-debug-dynamic:string.obj
 0002:00005ffc       $unwind$pj_strncpy         00000001400a6ffc     pjlib-x86_64-x64-vc14-debug-dynamic:string.obj
 0002:00006004       $unwind$pj_strncpy_with_null 00000001400a7004     pjlib-x86_64-x64-vc14-debug-dynamic:string.obj
 0002:0000600c       $unwind$pj_strdup          00000001400a700c     pjlib-x86_64-x64-vc14-debug-dynamic:string.obj
 0002:00006014       $unwind$pj_strdup_with_null 00000001400a7014     pjlib-x86_64-x64-vc14-debug-dynamic:string.obj
 0002:0000601c       $unwind$pj_strdup2         00000001400a701c     pjlib-x86_64-x64-vc14-debug-dynamic:string.obj
 0002:00006024       $unwind$pj_strdup2_with_null 00000001400a7024     pjlib-x86_64-x64-vc14-debug-dynamic:string.obj
 0002:0000602c       $unwind$pj_strdup3         00000001400a702c     pjlib-x86_64-x64-vc14-debug-dynamic:string.obj
 0002:00006038       $unwind$pj_strcmp          00000001400a7038     pjlib-x86_64-x64-vc14-debug-dynamic:string.obj
 0002:00006040       $unwind$pj_strcmp2         00000001400a7040     pjlib-x86_64-x64-vc14-debug-dynamic:string.obj
 0002:00006048       $unwind$pj_strncmp         00000001400a7048     pjlib-x86_64-x64-vc14-debug-dynamic:string.obj
 0002:00006050       $unwind$pj_strncmp2        00000001400a7050     pjlib-x86_64-x64-vc14-debug-dynamic:string.obj
 0002:00006058       $unwind$pj_stricmp         00000001400a7058     pjlib-x86_64-x64-vc14-debug-dynamic:string.obj
 0002:00006060       $unwind$pj_stricmp2        00000001400a7060     pjlib-x86_64-x64-vc14-debug-dynamic:string.obj
 0002:00006068       $unwind$pj_strnicmp        00000001400a7068     pjlib-x86_64-x64-vc14-debug-dynamic:string.obj
 0002:00006070       $unwind$pj_strnicmp2       00000001400a7070     pjlib-x86_64-x64-vc14-debug-dynamic:string.obj
 0002:00006078       $unwind$pj_strcat          00000001400a7078     pjlib-x86_64-x64-vc14-debug-dynamic:string.obj
 0002:00006080       $unwind$pj_strcat2         00000001400a7080     pjlib-x86_64-x64-vc14-debug-dynamic:string.obj
 0002:00006088       $unwind$pj_strspn          00000001400a7088     pjlib-x86_64-x64-vc14-debug-dynamic:string.obj
 0002:00006090       $unwind$pj_strspn2         00000001400a7090     pjlib-x86_64-x64-vc14-debug-dynamic:string.obj
 0002:00006098       $unwind$pj_strcspn         00000001400a7098     pjlib-x86_64-x64-vc14-debug-dynamic:string.obj
 0002:000060a0       $unwind$pj_strcspn2        00000001400a70a0     pjlib-x86_64-x64-vc14-debug-dynamic:string.obj
 0002:000060a8       $unwind$pj_strtok          00000001400a70a8     pjlib-x86_64-x64-vc14-debug-dynamic:string.obj
 0002:000060b0       $unwind$pj_strtok2         00000001400a70b0     pjlib-x86_64-x64-vc14-debug-dynamic:string.obj
 0002:000060b8       $unwind$pj_strstr          00000001400a70b8     pjlib-x86_64-x64-vc14-debug-dynamic:string.obj
 0002:000060c0       $unwind$pj_stristr         00000001400a70c0     pjlib-x86_64-x64-vc14-debug-dynamic:string.obj
 0002:000060c8       $unwind$pj_strltrim        00000001400a70c8     pjlib-x86_64-x64-vc14-debug-dynamic:string.obj
 0002:000060d0       $unwind$pj_strrtrim        00000001400a70d0     pjlib-x86_64-x64-vc14-debug-dynamic:string.obj
 0002:000060d8       $unwind$pj_strtrim         00000001400a70d8     pjlib-x86_64-x64-vc14-debug-dynamic:string.obj
 0002:000060e0       $unwind$pj_create_random_string 00000001400a70e0     pjlib-x86_64-x64-vc14-debug-dynamic:string.obj
 0002:000060e8       $unwind$pj_strtol          00000001400a70e8     pjlib-x86_64-x64-vc14-debug-dynamic:string.obj
 0002:000060f0       $unwind$pj_strtol2         00000001400a70f0     pjlib-x86_64-x64-vc14-debug-dynamic:string.obj
 0002:000060fc       $unwind$pj_strtoul         00000001400a70fc     pjlib-x86_64-x64-vc14-debug-dynamic:string.obj
 0002:00006104       $unwind$pj_strtoul2        00000001400a7104     pjlib-x86_64-x64-vc14-debug-dynamic:string.obj
 0002:0000610c       $unwind$pj_strtoul3        00000001400a710c     pjlib-x86_64-x64-vc14-debug-dynamic:string.obj
 0002:00006118       $unwind$pj_strtof          00000001400a7118     pjlib-x86_64-x64-vc14-debug-dynamic:string.obj
 0002:00006120       $unwind$pj_utoa            00000001400a7120     pjlib-x86_64-x64-vc14-debug-dynamic:string.obj
 0002:00006128       $unwind$pj_utoa_pad        00000001400a7128     pjlib-x86_64-x64-vc14-debug-dynamic:string.obj
 0002:00006130       $unwind$pj_memcpy          00000001400a7130     pjlib-x86_64-x64-vc14-debug-dynamic:string.obj
 0002:00006138       $unwind$pj_memcmp          00000001400a7138     pjlib-x86_64-x64-vc14-debug-dynamic:string.obj
 0002:00006140       $unwind$pj_memchr          00000001400a7140     pjlib-x86_64-x64-vc14-debug-dynamic:string.obj
 0002:00006148       $unwind$pj_isdigit         00000001400a7148     pjlib-x86_64-x64-vc14-debug-dynamic:string.obj
 0002:00006150       $unwind$pj_isspace         00000001400a7150     pjlib-x86_64-x64-vc14-debug-dynamic:string.obj
 0002:00006158       $unwind$pj_isxdigit        00000001400a7158     pjlib-x86_64-x64-vc14-debug-dynamic:string.obj
 0002:00006188       $unwind$pj_array_insert    00000001400a7188     pjlib-x86_64-x64-vc14-debug-dynamic:array.obj
 0002:00006190       $unwind$pj_array_erase     00000001400a7190     pjlib-x86_64-x64-vc14-debug-dynamic:array.obj
 0002:00006198       $unwind$pj_array_find      00000001400a7198     pjlib-x86_64-x64-vc14-debug-dynamic:array.obj
 0002:000061a0       $unwind$pj_memmove         00000001400a71a0     pjlib-x86_64-x64-vc14-debug-dynamic:array.obj
 0002:000061ac       $unwind$pj_log             00000001400a71ac     pjlib-x86_64-x64-vc14-debug-dynamic:log.obj
 0002:000061bc       $unwind$pj_log_add_indent  00000001400a71bc     pjlib-x86_64-x64-vc14-debug-dynamic:log.obj
 0002:000061c4       $unwind$pj_log_push_indent 00000001400a71c4     pjlib-x86_64-x64-vc14-debug-dynamic:log.obj
 0002:000061cc       $unwind$pj_log_pop_indent  00000001400a71cc     pjlib-x86_64-x64-vc14-debug-dynamic:log.obj
 0002:000061d4       $unwind$pj_log_set_color   00000001400a71d4     pjlib-x86_64-x64-vc14-debug-dynamic:log.obj
 0002:000061dc       $unwind$pj_log_get_color   00000001400a71dc     pjlib-x86_64-x64-vc14-debug-dynamic:log.obj
 0002:000061e4       $unwind$pj_log_init        00000001400a71e4     pjlib-x86_64-x64-vc14-debug-dynamic:log.obj
 0002:000061ec       $unwind$pj_log_1           00000001400a71ec     pjlib-x86_64-x64-vc14-debug-dynamic:log.obj
 0002:000061f4       $unwind$pj_log_2           00000001400a71f4     pjlib-x86_64-x64-vc14-debug-dynamic:log.obj
 0002:000061fc       $unwind$pj_log_3           00000001400a71fc     pjlib-x86_64-x64-vc14-debug-dynamic:log.obj
 0002:00006204       $unwind$pj_log_4           00000001400a7204     pjlib-x86_64-x64-vc14-debug-dynamic:log.obj
 0002:0000620c       $unwind$pj_log_5           00000001400a720c     pjlib-x86_64-x64-vc14-debug-dynamic:log.obj
 0002:00006214       $unwind$pj_memset          00000001400a7214     pjlib-x86_64-x64-vc14-debug-dynamic:log.obj
 0002:0000621c       $unwind$logging_shutdown   00000001400a721c     pjlib-x86_64-x64-vc14-debug-dynamic:log.obj
 0002:00006224       $unwind$log_set_indent     00000001400a7224     pjlib-x86_64-x64-vc14-debug-dynamic:log.obj
 0002:0000622c       $unwind$log_get_raw_indent 00000001400a722c     pjlib-x86_64-x64-vc14-debug-dynamic:log.obj
 0002:00006234       $unwind$log_get_indent     00000001400a7234     pjlib-x86_64-x64-vc14-debug-dynamic:log.obj
 0002:0000623c       $unwind$suspend_logging    00000001400a723c     pjlib-x86_64-x64-vc14-debug-dynamic:log.obj
 0002:00006244       $unwind$resume_logging     00000001400a7244     pjlib-x86_64-x64-vc14-debug-dynamic:log.obj
 0002:0000624c       $unwind$is_logging_suspended 00000001400a724c     pjlib-x86_64-x64-vc14-debug-dynamic:log.obj
 0002:00006264       $unwind$pj_ntohs           00000001400a7264     pjlib-x86_64-x64-vc14-debug-dynamic:sock_bsd.obj
 0002:0000626c       $unwind$pj_htons           00000001400a726c     pjlib-x86_64-x64-vc14-debug-dynamic:sock_bsd.obj
 0002:00006274       $unwind$pj_ntohl           00000001400a7274     pjlib-x86_64-x64-vc14-debug-dynamic:sock_bsd.obj
 0002:0000627c       $unwind$pj_htonl           00000001400a727c     pjlib-x86_64-x64-vc14-debug-dynamic:sock_bsd.obj
 0002:00006284       $unwind$pj_inet_ntoa       00000001400a7284     pjlib-x86_64-x64-vc14-debug-dynamic:sock_bsd.obj
 0002:0000628c       $unwind$pj_inet_aton       00000001400a728c     pjlib-x86_64-x64-vc14-debug-dynamic:sock_bsd.obj
 0002:0000629c       $unwind$pj_inet_pton       00000001400a729c     pjlib-x86_64-x64-vc14-debug-dynamic:sock_bsd.obj
 0002:000062ac       $unwind$pj_inet_ntop       00000001400a72ac     pjlib-x86_64-x64-vc14-debug-dynamic:sock_bsd.obj
 0002:000062bc       $unwind$pj_gethostname     00000001400a72bc     pjlib-x86_64-x64-vc14-debug-dynamic:sock_bsd.obj
 0002:000062c4       $unwind$pj_sock_socket     00000001400a72c4     pjlib-x86_64-x64-vc14-debug-dynamic:sock_bsd.obj
 0002:000062cc       $unwind$pj_sock_close      00000001400a72cc     pjlib-x86_64-x64-vc14-debug-dynamic:sock_bsd.obj
 0002:000062d4       $unwind$pj_sock_bind       00000001400a72d4     pjlib-x86_64-x64-vc14-debug-dynamic:sock_bsd.obj
 0002:000062dc       $unwind$pj_sock_bind_in    00000001400a72dc     pjlib-x86_64-x64-vc14-debug-dynamic:sock_bsd.obj
 0002:000062ec       $unwind$pj_sock_listen     00000001400a72ec     pjlib-x86_64-x64-vc14-debug-dynamic:sock_bsd.obj
 0002:000062f4       $unwind$pj_sock_accept     00000001400a72f4     pjlib-x86_64-x64-vc14-debug-dynamic:sock_bsd.obj
 0002:000062fc       $unwind$pj_sock_connect    00000001400a72fc     pjlib-x86_64-x64-vc14-debug-dynamic:sock_bsd.obj
 0002:00006304       $unwind$pj_sock_getpeername 00000001400a7304     pjlib-x86_64-x64-vc14-debug-dynamic:sock_bsd.obj
 0002:0000630c       $unwind$pj_sock_getsockname 00000001400a730c     pjlib-x86_64-x64-vc14-debug-dynamic:sock_bsd.obj
 0002:00006314       $unwind$pj_sock_getsockopt 00000001400a7314     pjlib-x86_64-x64-vc14-debug-dynamic:sock_bsd.obj
 0002:0000631c       $unwind$pj_sock_setsockopt 00000001400a731c     pjlib-x86_64-x64-vc14-debug-dynamic:sock_bsd.obj
 0002:00006324       $unwind$pj_sock_setsockopt_params 00000001400a7324     pjlib-x86_64-x64-vc14-debug-dynamic:sock_bsd.obj
 0002:0000632c       $unwind$pj_sock_recv       00000001400a732c     pjlib-x86_64-x64-vc14-debug-dynamic:sock_bsd.obj
 0002:00006334       $unwind$pj_sock_recvfrom   00000001400a7334     pjlib-x86_64-x64-vc14-debug-dynamic:sock_bsd.obj
 0002:0000633c       $unwind$pj_sock_send       00000001400a733c     pjlib-x86_64-x64-vc14-debug-dynamic:sock_bsd.obj
 0002:00006344       $unwind$pj_sock_sendto     00000001400a7344     pjlib-x86_64-x64-vc14-debug-dynamic:sock_bsd.obj
 0002:0000634c       $unwind$pj_sock_shutdown   00000001400a734c     pjlib-x86_64-x64-vc14-debug-dynamic:sock_bsd.obj
 0002:00006354       $unwind$pj_bzero           00000001400a7354     pjlib-x86_64-x64-vc14-debug-dynamic:sock_bsd.obj
 0002:0000635c       $unwind$pj_memcpy          00000001400a735c     pjlib-x86_64-x64-vc14-debug-dynamic:sock_bsd.obj
 0002:00006380       $unwind$pj_lock_create_simple_mutex 00000001400a7380     pjlib-x86_64-x64-vc14-debug-dynamic:lock.obj
 0002:00006388       $unwind$pj_lock_create_recursive_mutex 00000001400a7388     pjlib-x86_64-x64-vc14-debug-dynamic:lock.obj
 0002:00006390       $unwind$pj_lock_create_null_mutex 00000001400a7390     pjlib-x86_64-x64-vc14-debug-dynamic:lock.obj
 0002:00006398       $unwind$pj_lock_create_semaphore 00000001400a7398     pjlib-x86_64-x64-vc14-debug-dynamic:lock.obj
 0002:000063a0       $unwind$pj_lock_acquire    00000001400a73a0     pjlib-x86_64-x64-vc14-debug-dynamic:lock.obj
 0002:000063a8       $unwind$pj_lock_tryacquire 00000001400a73a8     pjlib-x86_64-x64-vc14-debug-dynamic:lock.obj
 0002:000063b0       $unwind$pj_lock_release    00000001400a73b0     pjlib-x86_64-x64-vc14-debug-dynamic:lock.obj
 0002:000063b8       $unwind$pj_lock_destroy    00000001400a73b8     pjlib-x86_64-x64-vc14-debug-dynamic:lock.obj
 0002:000063c0       $unwind$pj_grp_lock_config_default 00000001400a73c0     pjlib-x86_64-x64-vc14-debug-dynamic:lock.obj
 0002:000063c8       $unwind$pj_grp_lock_create 00000001400a73c8     pjlib-x86_64-x64-vc14-debug-dynamic:lock.obj
 0002:000063d0       $unwind$pj_grp_lock_create_w_handler 00000001400a73d0     pjlib-x86_64-x64-vc14-debug-dynamic:lock.obj
 0002:000063d8       $unwind$pj_grp_lock_destroy 00000001400a73d8     pjlib-x86_64-x64-vc14-debug-dynamic:lock.obj
 0002:000063e0       $unwind$pj_grp_lock_replace 00000001400a73e0     pjlib-x86_64-x64-vc14-debug-dynamic:lock.obj
 0002:000063e8       $unwind$pj_grp_lock_acquire 00000001400a73e8     pjlib-x86_64-x64-vc14-debug-dynamic:lock.obj
 0002:000063f0       $unwind$pj_grp_lock_tryacquire 00000001400a73f0     pjlib-x86_64-x64-vc14-debug-dynamic:lock.obj
 0002:000063f8       $unwind$pj_grp_lock_release 00000001400a73f8     pjlib-x86_64-x64-vc14-debug-dynamic:lock.obj
 0002:00006400       $unwind$pj_grp_lock_add_handler 00000001400a7400     pjlib-x86_64-x64-vc14-debug-dynamic:lock.obj
 0002:00006408       $unwind$pj_grp_lock_del_handler 00000001400a7408     pjlib-x86_64-x64-vc14-debug-dynamic:lock.obj
 0002:00006410       $unwind$pj_grp_lock_add_ref 00000001400a7410     pjlib-x86_64-x64-vc14-debug-dynamic:lock.obj
 0002:00006418       $unwind$pj_grp_lock_dec_ref 00000001400a7418     pjlib-x86_64-x64-vc14-debug-dynamic:lock.obj
 0002:00006420       $unwind$pj_grp_lock_get_ref 00000001400a7420     pjlib-x86_64-x64-vc14-debug-dynamic:lock.obj
 0002:00006428       $unwind$pj_grp_lock_dump   00000001400a7428     pjlib-x86_64-x64-vc14-debug-dynamic:lock.obj
 0002:00006430       $unwind$pj_grp_lock_chain_lock 00000001400a7430     pjlib-x86_64-x64-vc14-debug-dynamic:lock.obj
 0002:00006438       $unwind$pj_grp_lock_unchain_lock 00000001400a7438     pjlib-x86_64-x64-vc14-debug-dynamic:lock.obj
 0002:00006440       $unwind$pj_list_push_back  00000001400a7440     pjlib-x86_64-x64-vc14-debug-dynamic:lock.obj
 0002:00006448       $unwind$pj_pool_zalloc     00000001400a7448     pjlib-x86_64-x64-vc14-debug-dynamic:lock.obj
 0002:00006450       $unwind$pj_bzero           00000001400a7450     pjlib-x86_64-x64-vc14-debug-dynamic:lock.obj
 0002:00006458       $unwind$pj_memcpy          00000001400a7458     pjlib-x86_64-x64-vc14-debug-dynamic:lock.obj
 0002:00006460       $unwind$create_mutex_lock  00000001400a7460     pjlib-x86_64-x64-vc14-debug-dynamic:lock.obj
 0002:00006468       $unwind$grp_lock_set_owner_thread 00000001400a7468     pjlib-x86_64-x64-vc14-debug-dynamic:lock.obj
 0002:00006470       $unwind$grp_lock_unset_owner_thread 00000001400a7470     pjlib-x86_64-x64-vc14-debug-dynamic:lock.obj
 0002:00006478       $unwind$grp_lock_acquire   00000001400a7478     pjlib-x86_64-x64-vc14-debug-dynamic:lock.obj
 0002:00006480       $unwind$grp_lock_tryacquire 00000001400a7480     pjlib-x86_64-x64-vc14-debug-dynamic:lock.obj
 0002:00006488       $unwind$grp_lock_release   00000001400a7488     pjlib-x86_64-x64-vc14-debug-dynamic:lock.obj
 0002:00006490       $unwind$grp_lock_add_handler 00000001400a7490     pjlib-x86_64-x64-vc14-debug-dynamic:lock.obj
 0002:00006498       $unwind$grp_lock_destroy   00000001400a7498     pjlib-x86_64-x64-vc14-debug-dynamic:lock.obj
 0002:000064a0       $unwind$grp_lock_add_ref   00000001400a74a0     pjlib-x86_64-x64-vc14-debug-dynamic:lock.obj
 0002:000064a8       $unwind$grp_lock_dec_ref   00000001400a74a8     pjlib-x86_64-x64-vc14-debug-dynamic:lock.obj
 0002:000064d0       $unwind$pj_srand           00000001400a74d0     pjlib-x86_64-x64-vc14-debug-dynamic:rand.obj
 0002:000064d8       $unwind$pj_rand            00000001400a74d8     pjlib-x86_64-x64-vc14-debug-dynamic:rand.obj
 0002:000064e4       $unwind$platform_rand      00000001400a74e4     pjlib-x86_64-x64-vc14-debug-dynamic:rand.obj
 0002:000064ec       $unwind$pj_time_val_normalize 00000001400a74ec     pjlib-x86_64-x64-vc14-debug-dynamic:types.obj
 0002:000064f4       $unwind$pj_timer_heap_create 00000001400a74f4     pjlib-x86_64-x64-vc14-debug-dynamic:timer.obj
 0002:000064fc       $unwind$pj_timer_heap_destroy 00000001400a74fc     pjlib-x86_64-x64-vc14-debug-dynamic:timer.obj
 0002:00006504       $unwind$pj_timer_heap_set_lock 00000001400a7504     pjlib-x86_64-x64-vc14-debug-dynamic:timer.obj
 0002:0000650c       $unwind$pj_timer_heap_set_max_timed_out_per_poll 00000001400a750c     pjlib-x86_64-x64-vc14-debug-dynamic:timer.obj
 0002:00006514       $unwind$pj_timer_entry_init 00000001400a7514     pjlib-x86_64-x64-vc14-debug-dynamic:timer.obj
 0002:0000651c       $unwind$pj_timer_entry_running 00000001400a751c     pjlib-x86_64-x64-vc14-debug-dynamic:timer.obj
 0002:00006524       $unwind$pj_timer_heap_schedule_dbg 00000001400a7524     pjlib-x86_64-x64-vc14-debug-dynamic:timer.obj
 0002:0000652c       $unwind$pj_timer_heap_schedule_w_grp_lock_dbg 00000001400a752c     pjlib-x86_64-x64-vc14-debug-dynamic:timer.obj
 0002:00006534       $unwind$pj_timer_heap_cancel 00000001400a7534     pjlib-x86_64-x64-vc14-debug-dynamic:timer.obj
 0002:0000653c       $unwind$pj_timer_heap_cancel_if_active 00000001400a753c     pjlib-x86_64-x64-vc14-debug-dynamic:timer.obj
 0002:00006544       $unwind$pj_timer_heap_count 00000001400a7544     pjlib-x86_64-x64-vc14-debug-dynamic:timer.obj
 0002:0000654c       $unwind$pj_timer_heap_earliest_time 00000001400a754c     pjlib-x86_64-x64-vc14-debug-dynamic:timer.obj
 0002:00006554       $unwind$pj_timer_heap_poll 00000001400a7554     pjlib-x86_64-x64-vc14-debug-dynamic:timer.obj
 0002:0000655c       $unwind$pj_timer_heap_dump 00000001400a755c     pjlib-x86_64-x64-vc14-debug-dynamic:timer.obj
 0002:00006564       $unwind$pj_bzero           00000001400a7564     pjlib-x86_64-x64-vc14-debug-dynamic:timer.obj
 0002:0000656c       $unwind$pj_memcpy          00000001400a756c     pjlib-x86_64-x64-vc14-debug-dynamic:timer.obj
 0002:00006574       $unwind$lock_timer_heap    00000001400a7574     pjlib-x86_64-x64-vc14-debug-dynamic:timer.obj
 0002:0000657c       $unwind$unlock_timer_heap  00000001400a757c     pjlib-x86_64-x64-vc14-debug-dynamic:timer.obj
 0002:00006584       $unwind$copy_node          00000001400a7584     pjlib-x86_64-x64-vc14-debug-dynamic:timer.obj
 0002:0000658c       $unwind$pop_freelist       00000001400a758c     pjlib-x86_64-x64-vc14-debug-dynamic:timer.obj
 0002:00006594       $unwind$push_freelist      00000001400a7594     pjlib-x86_64-x64-vc14-debug-dynamic:timer.obj
 0002:0000659c       $unwind$reheap_down        00000001400a759c     pjlib-x86_64-x64-vc14-debug-dynamic:timer.obj
 0002:000065a4       $unwind$reheap_up          00000001400a75a4     pjlib-x86_64-x64-vc14-debug-dynamic:timer.obj
 0002:000065ac       $unwind$remove_node        00000001400a75ac     pjlib-x86_64-x64-vc14-debug-dynamic:timer.obj
 0002:000065b4       $unwind$grow_heap          00000001400a75b4     pjlib-x86_64-x64-vc14-debug-dynamic:timer.obj
 0002:000065bc       $unwind$insert_node        00000001400a75bc     pjlib-x86_64-x64-vc14-debug-dynamic:timer.obj
 0002:000065c4       $unwind$schedule_entry     00000001400a75c4     pjlib-x86_64-x64-vc14-debug-dynamic:timer.obj
 0002:000065cc       $unwind$cancel             00000001400a75cc     pjlib-x86_64-x64-vc14-debug-dynamic:timer.obj
 0002:000065d4       $unwind$schedule_w_grp_lock_dbg 00000001400a75d4     pjlib-x86_64-x64-vc14-debug-dynamic:timer.obj
 0002:000065dc       $unwind$cancel_timer       00000001400a75dc     pjlib-x86_64-x64-vc14-debug-dynamic:timer.obj
 0002:000065fc       $unwind$pj_pool_zalloc     00000001400a75fc     pjlib-x86_64-x64-vc14-debug-dynamic:timer.obj
 0002:00006604       $unwind$pj_gettimeofday    00000001400a7604     pjlib-x86_64-x64-vc14-debug-dynamic:os_time_win32.obj
 0002:00006614       $unwind$pj_time_decode     00000001400a7614     pjlib-x86_64-x64-vc14-debug-dynamic:os_time_win32.obj
 0002:00006624       $unwind$pj_time_encode     00000001400a7624     pjlib-x86_64-x64-vc14-debug-dynamic:os_time_win32.obj
 0002:00006634       $unwind$pj_bzero           00000001400a7634     pjlib-x86_64-x64-vc14-debug-dynamic:os_time_win32.obj
 0002:0000663c       $unwind$get_base_time      00000001400a763c     pjlib-x86_64-x64-vc14-debug-dynamic:os_time_win32.obj
 0002:00006654       $unwind$pj_ioqueue_create  00000001400a7654     pjlib-x86_64-x64-vc14-debug-dynamic:ioqueue_select.obj
 0002:0000665c       $unwind$pj_ioqueue_destroy 00000001400a765c     pjlib-x86_64-x64-vc14-debug-dynamic:ioqueue_select.obj
 0002:00006664       $unwind$pj_ioqueue_set_lock 00000001400a7664     pjlib-x86_64-x64-vc14-debug-dynamic:ioqueue_select.obj
 0002:0000666c       $unwind$pj_ioqueue_set_default_concurrency 00000001400a766c     pjlib-x86_64-x64-vc14-debug-dynamic:ioqueue_select.obj
 0002:00006674       $unwind$pj_ioqueue_register_sock 00000001400a7674     pjlib-x86_64-x64-vc14-debug-dynamic:ioqueue_select.obj
 0002:0000667c       $unwind$pj_ioqueue_register_sock2 00000001400a767c     pjlib-x86_64-x64-vc14-debug-dynamic:ioqueue_select.obj
 0002:00006684       $unwind$pj_ioqueue_unregister 00000001400a7684     pjlib-x86_64-x64-vc14-debug-dynamic:ioqueue_select.obj
 0002:0000668c       $unwind$pj_ioqueue_get_user_data 00000001400a768c     pjlib-x86_64-x64-vc14-debug-dynamic:ioqueue_select.obj
 0002:00006694       $unwind$pj_ioqueue_set_user_data 00000001400a7694     pjlib-x86_64-x64-vc14-debug-dynamic:ioqueue_select.obj
 0002:0000669c       $unwind$pj_ioqueue_set_concurrency 00000001400a769c     pjlib-x86_64-x64-vc14-debug-dynamic:ioqueue_select.obj
 0002:000066a4       $unwind$pj_ioqueue_lock_key 00000001400a76a4     pjlib-x86_64-x64-vc14-debug-dynamic:ioqueue_select.obj
 0002:000066ac       $unwind$pj_ioqueue_trylock_key 00000001400a76ac     pjlib-x86_64-x64-vc14-debug-dynamic:ioqueue_select.obj
 0002:000066b4       $unwind$pj_ioqueue_unlock_key 00000001400a76b4     pjlib-x86_64-x64-vc14-debug-dynamic:ioqueue_select.obj
 0002:000066bc       $unwind$pj_ioqueue_op_key_init 00000001400a76bc     pjlib-x86_64-x64-vc14-debug-dynamic:ioqueue_select.obj
 0002:000066c4       $unwind$pj_ioqueue_is_pending 00000001400a76c4     pjlib-x86_64-x64-vc14-debug-dynamic:ioqueue_select.obj
 0002:000066cc       $unwind$pj_ioqueue_post_completion 00000001400a76cc     pjlib-x86_64-x64-vc14-debug-dynamic:ioqueue_select.obj
 0002:000066d4       $unwind$pj_ioqueue_accept  00000001400a76d4     pjlib-x86_64-x64-vc14-debug-dynamic:ioqueue_select.obj
 0002:000066dc       $unwind$pj_ioqueue_connect 00000001400a76dc     pjlib-x86_64-x64-vc14-debug-dynamic:ioqueue_select.obj
 0002:000066e4       $unwind$pj_ioqueue_poll    00000001400a76e4     pjlib-x86_64-x64-vc14-debug-dynamic:ioqueue_select.obj
 0002:000066f4       $unwind$pj_ioqueue_recv    00000001400a76f4     pjlib-x86_64-x64-vc14-debug-dynamic:ioqueue_select.obj
 0002:000066fc       $unwind$pj_ioqueue_recvfrom 00000001400a76fc     pjlib-x86_64-x64-vc14-debug-dynamic:ioqueue_select.obj
 0002:00006704       $unwind$pj_ioqueue_send    00000001400a7704     pjlib-x86_64-x64-vc14-debug-dynamic:ioqueue_select.obj
 0002:0000670c       $unwind$pj_ioqueue_sendto  00000001400a770c     pjlib-x86_64-x64-vc14-debug-dynamic:ioqueue_select.obj
 0002:00006714       $unwind$pj_list_empty      00000001400a7714     pjlib-x86_64-x64-vc14-debug-dynamic:ioqueue_select.obj
 0002:0000671c       $unwind$pj_list_push_back  00000001400a771c     pjlib-x86_64-x64-vc14-debug-dynamic:ioqueue_select.obj
 0002:00006724       $unwind$pj_bzero           00000001400a7724     pjlib-x86_64-x64-vc14-debug-dynamic:ioqueue_select.obj
 0002:0000672c       $unwind$pj_memcpy          00000001400a772c     pjlib-x86_64-x64-vc14-debug-dynamic:ioqueue_select.obj
 0002:00006734       $unwind$ioqueue_add_to_set 00000001400a7734     pjlib-x86_64-x64-vc14-debug-dynamic:ioqueue_select.obj
 0002:0000673c       $unwind$ioqueue_remove_from_set 00000001400a773c     pjlib-x86_64-x64-vc14-debug-dynamic:ioqueue_select.obj
 0002:00006744       $unwind$ioqueue_destroy    00000001400a7744     pjlib-x86_64-x64-vc14-debug-dynamic:ioqueue_select.obj
 0002:0000674c       $unwind$ioqueue_init_key   00000001400a774c     pjlib-x86_64-x64-vc14-debug-dynamic:ioqueue_select.obj
 0002:00006754       $unwind$key_has_pending_write 00000001400a7754     pjlib-x86_64-x64-vc14-debug-dynamic:ioqueue_select.obj
 0002:0000675c       $unwind$key_has_pending_read 00000001400a775c     pjlib-x86_64-x64-vc14-debug-dynamic:ioqueue_select.obj
 0002:00006764       $unwind$key_has_pending_accept 00000001400a7764     pjlib-x86_64-x64-vc14-debug-dynamic:ioqueue_select.obj
 0002:0000676c       $unwind$ioqueue_dispatch_write_event 00000001400a776c     pjlib-x86_64-x64-vc14-debug-dynamic:ioqueue_select.obj
 0002:00006774       $unwind$ioqueue_dispatch_read_event 00000001400a7774     pjlib-x86_64-x64-vc14-debug-dynamic:ioqueue_select.obj
 0002:0000677c       $unwind$ioqueue_dispatch_exception_event 00000001400a777c     pjlib-x86_64-x64-vc14-debug-dynamic:ioqueue_select.obj
 0002:00006784       $unwind$scan_closing_keys  00000001400a7784     pjlib-x86_64-x64-vc14-debug-dynamic:ioqueue_select.obj
 0002:0000678c       $unwind$increment_counter  00000001400a778c     pjlib-x86_64-x64-vc14-debug-dynamic:ioqueue_select.obj
 0002:00006794       $unwind$decrement_counter  00000001400a7794     pjlib-x86_64-x64-vc14-debug-dynamic:ioqueue_select.obj
 0002:000067bc       $unwind$pj_exception_id_alloc 00000001400a77bc     pjlib-x86_64-x64-vc14-debug-dynamic:except.obj
 0002:000067c4       $unwind$pj_exception_id_free 00000001400a77c4     pjlib-x86_64-x64-vc14-debug-dynamic:except.obj
 0002:000067cc       $unwind$pj_exception_id_name 00000001400a77cc     pjlib-x86_64-x64-vc14-debug-dynamic:except.obj
 0002:000067d4       $unwind$pj_throw_exception_ 00000001400a77d4     pjlib-x86_64-x64-vc14-debug-dynamic:except.obj
 0002:000067dc       $unwind$pj_push_exception_handler_ 00000001400a77dc     pjlib-x86_64-x64-vc14-debug-dynamic:except.obj
 0002:000067e4       $unwind$pj_pop_exception_handler_ 00000001400a77e4     pjlib-x86_64-x64-vc14-debug-dynamic:except.obj
 0002:000067ec       $unwind$exception_cleanup  00000001400a77ec     pjlib-x86_64-x64-vc14-debug-dynamic:except.obj
 0002:000067fc       $unwind$pj_get_timestamp   00000001400a77fc     pjlib-x86_64-x64-vc14-debug-dynamic:os_timestamp_win32.obj
 0002:00006804       $unwind$pj_get_timestamp_freq 00000001400a7804     pjlib-x86_64-x64-vc14-debug-dynamic:os_timestamp_win32.obj
 0002:00006810       $unwind$pj_hash_calc       00000001400a7810     pjlib-x86_64-x64-vc14-debug-dynamic:hash.obj
 0002:00006818       $unwind$pj_hash_calc_tolower 00000001400a7818     pjlib-x86_64-x64-vc14-debug-dynamic:hash.obj
 0002:00006820       $unwind$pj_hash_create     00000001400a7820     pjlib-x86_64-x64-vc14-debug-dynamic:hash.obj
 0002:00006828       $unwind$pj_hash_get        00000001400a7828     pjlib-x86_64-x64-vc14-debug-dynamic:hash.obj
 0002:00006830       $unwind$pj_hash_get_lower  00000001400a7830     pjlib-x86_64-x64-vc14-debug-dynamic:hash.obj
 0002:00006838       $unwind$pj_hash_set        00000001400a7838     pjlib-x86_64-x64-vc14-debug-dynamic:hash.obj
 0002:00006840       $unwind$pj_hash_set_lower  00000001400a7840     pjlib-x86_64-x64-vc14-debug-dynamic:hash.obj
 0002:00006848       $unwind$pj_hash_set_np     00000001400a7848     pjlib-x86_64-x64-vc14-debug-dynamic:hash.obj
 0002:00006850       $unwind$pj_hash_set_np_lower 00000001400a7850     pjlib-x86_64-x64-vc14-debug-dynamic:hash.obj
 0002:00006858       $unwind$pj_hash_first      00000001400a7858     pjlib-x86_64-x64-vc14-debug-dynamic:hash.obj
 0002:00006860       $unwind$pj_hash_next       00000001400a7860     pjlib-x86_64-x64-vc14-debug-dynamic:hash.obj
 0002:00006868       $unwind$pj_hash_this       00000001400a7868     pjlib-x86_64-x64-vc14-debug-dynamic:hash.obj
 0002:00006870       $unwind$pj_memcpy          00000001400a7870     pjlib-x86_64-x64-vc14-debug-dynamic:hash.obj
 0002:00006878       $unwind$pj_memcmp          00000001400a7878     pjlib-x86_64-x64-vc14-debug-dynamic:hash.obj
 0002:00006880       $unwind$pj_tolower         00000001400a7880     pjlib-x86_64-x64-vc14-debug-dynamic:hash.obj
 0002:00006888       $unwind$find_entry         00000001400a7888     pjlib-x86_64-x64-vc14-debug-dynamic:hash.obj
 0002:00006890       $unwind$hash_set           00000001400a7890     pjlib-x86_64-x64-vc14-debug-dynamic:hash.obj
 0002:000068a8       $unwind$pj_get_os_error    00000001400a78a8     pjlib-x86_64-x64-vc14-debug-dynamic:os_error_win32.obj
 0002:000068b0       $unwind$pj_set_os_error    00000001400a78b0     pjlib-x86_64-x64-vc14-debug-dynamic:os_error_win32.obj
 0002:000068b8       $unwind$pj_get_netos_error 00000001400a78b8     pjlib-x86_64-x64-vc14-debug-dynamic:os_error_win32.obj
 0002:000068c0       $unwind$pj_set_netos_error 00000001400a78c0     pjlib-x86_64-x64-vc14-debug-dynamic:os_error_win32.obj
 0002:000068c8       $unwind$pj_memcpy          00000001400a78c8     pjlib-x86_64-x64-vc14-debug-dynamic:os_error_win32.obj
 0002:000068d0       $unwind$platform_strerror  00000001400a78d0     pjlib-x86_64-x64-vc14-debug-dynamic:os_error_win32.obj
 0002:000068dc       $unwind$pj_generate_unique_string 00000001400a78dc     pjlib-x86_64-x64-vc14-debug-dynamic:guid_win32.obj
 0002:000068ec       $unwind$guid_to_str        00000001400a78ec     pjlib-x86_64-x64-vc14-debug-dynamic:guid_win32.obj
 0002:000068f8       $unwind$pj_tolower         00000001400a78f8     pjlib-x86_64-x64-vc14-debug-dynamic:guid.obj
 0002:00006900       $unwind$pj_generate_unique_string_lower 00000001400a7900     pjlib-x86_64-x64-vc14-debug-dynamic:guid.obj
 0002:00006908       $unwind$pj_create_unique_string 00000001400a7908     pjlib-x86_64-x64-vc14-debug-dynamic:guid.obj
 0002:00006910       $unwind$pj_create_unique_string_lower 00000001400a7910     pjlib-x86_64-x64-vc14-debug-dynamic:guid.obj
 0002:0000691c       $unwind$pj_sock_apply_qos  00000001400a791c     pjlib-x86_64-x64-vc14-debug-dynamic:sock_qos_common.obj
 0002:00006924       $unwind$pj_sock_apply_qos2 00000001400a7924     pjlib-x86_64-x64-vc14-debug-dynamic:sock_qos_common.obj
 0002:0000692c       $unwind$pj_qos_get_params  00000001400a792c     pjlib-x86_64-x64-vc14-debug-dynamic:sock_qos_common.obj
 0002:00006934       $unwind$pj_qos_get_type    00000001400a7934     pjlib-x86_64-x64-vc14-debug-dynamic:sock_qos_common.obj
 0002:0000693c       $unwind$pj_memcpy          00000001400a793c     pjlib-x86_64-x64-vc14-debug-dynamic:sock_qos_common.obj
 0002:00006948       $unwind$pj_activesock_cfg_default 00000001400a7948     pjlib-x86_64-x64-vc14-debug-dynamic:activesock.obj
 0002:00006950       $unwind$pj_activesock_create 00000001400a7950     pjlib-x86_64-x64-vc14-debug-dynamic:activesock.obj
 0002:00006958       $unwind$pj_activesock_create_udp 00000001400a7958     pjlib-x86_64-x64-vc14-debug-dynamic:activesock.obj
 0002:00006968       $unwind$pj_activesock_close 00000001400a7968     pjlib-x86_64-x64-vc14-debug-dynamic:activesock.obj
 0002:00006970       $unwind$pj_activesock_set_user_data 00000001400a7970     pjlib-x86_64-x64-vc14-debug-dynamic:activesock.obj
 0002:00006978       $unwind$pj_activesock_get_user_data 00000001400a7978     pjlib-x86_64-x64-vc14-debug-dynamic:activesock.obj
 0002:00006980       $unwind$pj_activesock_start_read 00000001400a7980     pjlib-x86_64-x64-vc14-debug-dynamic:activesock.obj
 0002:00006988       $unwind$pj_activesock_start_read2 00000001400a7988     pjlib-x86_64-x64-vc14-debug-dynamic:activesock.obj
 0002:00006990       $unwind$pj_activesock_start_recvfrom 00000001400a7990     pjlib-x86_64-x64-vc14-debug-dynamic:activesock.obj
 0002:00006998       $unwind$pj_activesock_start_recvfrom2 00000001400a7998     pjlib-x86_64-x64-vc14-debug-dynamic:activesock.obj
 0002:000069a0       $unwind$pj_activesock_send 00000001400a79a0     pjlib-x86_64-x64-vc14-debug-dynamic:activesock.obj
 0002:000069a8       $unwind$pj_activesock_sendto 00000001400a79a8     pjlib-x86_64-x64-vc14-debug-dynamic:activesock.obj
 0002:000069b0       $unwind$pj_activesock_start_accept 00000001400a79b0     pjlib-x86_64-x64-vc14-debug-dynamic:activesock.obj
 0002:000069b8       $unwind$pj_activesock_start_connect 00000001400a79b8     pjlib-x86_64-x64-vc14-debug-dynamic:activesock.obj
 0002:000069c0       $unwind$pj_pool_zalloc     00000001400a79c0     pjlib-x86_64-x64-vc14-debug-dynamic:activesock.obj
 0002:000069c8       $unwind$pj_bzero           00000001400a79c8     pjlib-x86_64-x64-vc14-debug-dynamic:activesock.obj
 0002:000069d0       $unwind$pj_memcpy          00000001400a79d0     pjlib-x86_64-x64-vc14-debug-dynamic:activesock.obj
 0002:000069d8       $unwind$ioqueue_on_read_complete 00000001400a79d8     pjlib-x86_64-x64-vc14-debug-dynamic:activesock.obj
 0002:000069e0       $unwind$ioqueue_on_write_complete 00000001400a79e0     pjlib-x86_64-x64-vc14-debug-dynamic:activesock.obj
 0002:000069e8       $unwind$ioqueue_on_accept_complete 00000001400a79e8     pjlib-x86_64-x64-vc14-debug-dynamic:activesock.obj
 0002:000069f0       $unwind$ioqueue_on_connect_complete 00000001400a79f0     pjlib-x86_64-x64-vc14-debug-dynamic:activesock.obj
 0002:000069f8       $unwind$send_remaining     00000001400a79f8     pjlib-x86_64-x64-vc14-debug-dynamic:activesock.obj
 0002:00006a14       $unwind$pj_gettickcount    00000001400a7a14     pjlib-x86_64-x64-vc14-debug-dynamic:os_timestamp_common.obj
 0002:00006a1c       $unwind$pj_elapsed_time    00000001400a7a1c     pjlib-x86_64-x64-vc14-debug-dynamic:os_timestamp_common.obj
 0002:00006a24       $unwind$pj_elapsed_msec    00000001400a7a24     pjlib-x86_64-x64-vc14-debug-dynamic:os_timestamp_common.obj
 0002:00006a2c       $unwind$pj_elapsed_msec64  00000001400a7a2c     pjlib-x86_64-x64-vc14-debug-dynamic:os_timestamp_common.obj
 0002:00006a34       $unwind$pj_elapsed_usec    00000001400a7a34     pjlib-x86_64-x64-vc14-debug-dynamic:os_timestamp_common.obj
 0002:00006a3c       $unwind$pj_elapsed_nanosec 00000001400a7a3c     pjlib-x86_64-x64-vc14-debug-dynamic:os_timestamp_common.obj
 0002:00006a44       $unwind$elapsed_msec       00000001400a7a44     pjlib-x86_64-x64-vc14-debug-dynamic:os_timestamp_common.obj
 0002:00006a4c       $unwind$elapsed_usec       00000001400a7a4c     pjlib-x86_64-x64-vc14-debug-dynamic:os_timestamp_common.obj
 0002:00006a5c       $unwind$pj_gethostbyname   00000001400a7a5c     pjlib-x86_64-x64-vc14-debug-dynamic:addr_resolv_sock.obj
 0002:00006a6c       $unwind$pj_getaddrinfo     00000001400a7a6c     pjlib-x86_64-x64-vc14-debug-dynamic:addr_resolv_sock.obj
 0002:00006a74       $unwind$pj_bzero           00000001400a7a74     pjlib-x86_64-x64-vc14-debug-dynamic:addr_resolv_sock.obj
 0002:00006a7c       $unwind$pj_memcpy          00000001400a7a7c     pjlib-x86_64-x64-vc14-debug-dynamic:addr_resolv_sock.obj
 0002:00006a88       $unwind$pj_pool_create_on_buf 00000001400a7a88     pjlib-x86_64-x64-vc14-debug-dynamic:pool_buf.obj
 0002:00006a90       $unwind$stack_alloc        00000001400a7a90     pjlib-x86_64-x64-vc14-debug-dynamic:pool_buf.obj
 0002:00006a98       $unwind$pool_buf_cleanup   00000001400a7a98     pjlib-x86_64-x64-vc14-debug-dynamic:pool_buf.obj
 0002:00006aa0       $unwind$pool_buf_initialize 00000001400a7aa0     pjlib-x86_64-x64-vc14-debug-dynamic:pool_buf.obj
 0002:00006aac       $unwind$pj_dump_config     00000001400a7aac     pjlib-x86_64-x64-vc14-debug-dynamic:config.obj
 0002:00006ab4       $unwind$pj_bzero           00000001400a7ab4     pjlib-x86_64-x64-vc14-debug-dynamic:ip_helper_win32.obj
 0002:00006abc       $unwind$pj_memcpy          00000001400a7abc     pjlib-x86_64-x64-vc14-debug-dynamic:ip_helper_win32.obj
 0002:00006ac4       $unwind$pj_enum_ip_option_default 00000001400a7ac4     pjlib-x86_64-x64-vc14-debug-dynamic:ip_helper_win32.obj
 0002:00006acc       $unwind$pj_enum_ip_interface 00000001400a7acc     pjlib-x86_64-x64-vc14-debug-dynamic:ip_helper_win32.obj
 0002:00006ad4       $unwind$pj_enum_ip_interface2 00000001400a7ad4     pjlib-x86_64-x64-vc14-debug-dynamic:ip_helper_win32.obj
 0002:00006adc       $unwind$pj_enum_ip_route   00000001400a7adc     pjlib-x86_64-x64-vc14-debug-dynamic:ip_helper_win32.obj
 0002:00006aec       $unwind$unload_iphlp_module 00000001400a7aec     pjlib-x86_64-x64-vc14-debug-dynamic:ip_helper_win32.obj
 0002:00006af4       $unwind$GetIpHlpApiProc    00000001400a7af4     pjlib-x86_64-x64-vc14-debug-dynamic:ip_helper_win32.obj
 0002:00006afc       $unwind$MyGetIpAddrTable   00000001400a7afc     pjlib-x86_64-x64-vc14-debug-dynamic:ip_helper_win32.obj
 0002:00006b04       $unwind$MyGetAdapterAddresses 00000001400a7b04     pjlib-x86_64-x64-vc14-debug-dynamic:ip_helper_win32.obj
 0002:00006b0c       $unwind$MyGetIfEntry       00000001400a7b0c     pjlib-x86_64-x64-vc14-debug-dynamic:ip_helper_win32.obj
 0002:00006b14       $unwind$MyGetIpForwardTable 00000001400a7b14     pjlib-x86_64-x64-vc14-debug-dynamic:ip_helper_win32.obj
 0002:00006b1c       $unwind$enum_ipv4_interface 00000001400a7b1c     pjlib-x86_64-x64-vc14-debug-dynamic:ip_helper_win32.obj
 0002:00006b2c       $unwind$enum_ipv4_ipv6_interface 00000001400a7b2c     pjlib-x86_64-x64-vc14-debug-dynamic:ip_helper_win32.obj
 0002:00006b4c       $unwind$default_block_alloc 00000001400a7b4c     pjlib-x86_64-x64-vc14-debug-dynamic:pool_policy_malloc.obj
 0002:00006b54       $unwind$default_block_free 00000001400a7b54     pjlib-x86_64-x64-vc14-debug-dynamic:pool_policy_malloc.obj
 0002:00006b5c       $unwind$default_pool_callback 00000001400a7b5c     pjlib-x86_64-x64-vc14-debug-dynamic:pool_policy_malloc.obj
 0002:00006b68       $unwind$pj_log_write       00000001400a7b68     pjlib-x86_64-x64-vc14-debug-dynamic:log_writer_stdout.obj
 0002:00006b70       $unwind$term_set_color     00000001400a7b70     pjlib-x86_64-x64-vc14-debug-dynamic:log_writer_stdout.obj
 0002:00006b78       $unwind$term_restore_color 00000001400a7b78     pjlib-x86_64-x64-vc14-debug-dynamic:log_writer_stdout.obj
 0002:00006b84       $unwind$PJ_FD_ZERO         00000001400a7b84     pjlib-x86_64-x64-vc14-debug-dynamic:sock_select.obj
 0002:00006b8c       $unwind$PJ_FD_SET          00000001400a7b8c     pjlib-x86_64-x64-vc14-debug-dynamic:sock_select.obj
 0002:00006b94       $unwind$PJ_FD_CLR          00000001400a7b94     pjlib-x86_64-x64-vc14-debug-dynamic:sock_select.obj
 0002:00006b9c       $unwind$PJ_FD_ISSET        00000001400a7b9c     pjlib-x86_64-x64-vc14-debug-dynamic:sock_select.obj
 0002:00006ba4       $unwind$pj_sock_select     00000001400a7ba4     pjlib-x86_64-x64-vc14-debug-dynamic:sock_select.obj
 0002:00006bb0       $unwind$pj_sock_set_qos_type 00000001400a7bb0     pjlib-x86_64-x64-vc14-debug-dynamic:sock_qos_bsd.obj
 0002:00006bb8       $unwind$pj_sock_get_qos_type 00000001400a7bb8     pjlib-x86_64-x64-vc14-debug-dynamic:sock_qos_bsd.obj
 0002:00006bc0       $unwind$pj_sock_set_qos_params 00000001400a7bc0     pjlib-x86_64-x64-vc14-debug-dynamic:sock_qos_bsd.obj
 0002:00006bd0       $unwind$pj_sock_get_qos_params 00000001400a7bd0     pjlib-x86_64-x64-vc14-debug-dynamic:sock_qos_bsd.obj
 0002:00006be0       $unwind$pj_bzero           00000001400a7be0     pjlib-x86_64-x64-vc14-debug-dynamic:sock_qos_bsd.obj
 0002:00006bf0       $unwind$__GSHandlerCheckCommon 00000001400a7bf0     MSVCRTD:gshandler.obj
 0002:00006bf8       $unwind$__GSHandlerCheck   00000001400a7bf8     MSVCRTD:gshandler.obj
 0002:00006c00       $xdatasym                  00000001400a7c00     MSVCRTD:amdsecgs.obj
 0002:00006c04       $unwind$?configure_argv@__scrt_narrow_argv_policy@@SAHXZ 00000001400a7c04     MSVCRTD:exe_main.obj
 0002:00006c0c       $unwind$?initialize_environment@__scrt_narrow_environment_policy@@SAHXZ 00000001400a7c0c     MSVCRTD:exe_main.obj
 0002:00006c14       $unwind$?set_app_type@__scrt_main_policy@@SAXXZ 00000001400a7c14     MSVCRTD:exe_main.obj
 0002:00006c1c       $unwind$?set_fmode@__scrt_file_policy@@SAXXZ 00000001400a7c1c     MSVCRTD:exe_main.obj
 0002:00006c24       $unwind$?set_commode@__scrt_file_policy@@SAXXZ 00000001400a7c24     MSVCRTD:exe_main.obj
 0002:00006c2c       $unwind$?invoke_main@@YAHXZ 00000001400a7c2c     MSVCRTD:exe_main.obj
 0002:00006c34       $unwind$?pre_c_initialization@@YAHXZ 00000001400a7c34     MSVCRTD:exe_main.obj
 0002:00006c3c       $unwind$?post_pgo_initialization@@YAHXZ 00000001400a7c3c     MSVCRTD:exe_main.obj
 0002:00006c44       $unwind$?pre_cpp_initialization@@YAXXZ 00000001400a7c44     MSVCRTD:exe_main.obj
 0002:00006c4c       $unwind$?__scrt_common_main_seh@@YAHXZ 00000001400a7c4c     MSVCRTD:exe_main.obj
 0002:00006c70       $unwind$?filt$0@?0??__scrt_common_main_seh@@YAHXZ@4HA 00000001400a7c70     MSVCRTD:exe_main.obj
 0002:00006c78       $unwind$?__scrt_common_main@@YAHXZ 00000001400a7c78     MSVCRTD:exe_main.obj
 0002:00006c80       $unwind$mainCRTStartup     00000001400a7c80     MSVCRTD:exe_main.obj
 0002:00006c88       $unwind$__report_securityfailure 00000001400a7c88     MSVCRTD:gs_report.obj
 0002:00006c90       $unwind$__report_securityfailureEx 00000001400a7c90     MSVCRTD:gs_report.obj
 0002:00006c98       $unwind$__report_rangecheckfailure 00000001400a7c98     MSVCRTD:gs_report.obj
 0002:00006ca0       $unwind$__report_gsfailure 00000001400a7ca0     MSVCRTD:gs_report.obj
 0002:00006ca8       $unwind$capture_current_context 00000001400a7ca8     MSVCRTD:gs_report.obj
 0002:00006cb0       $unwind$capture_previous_context 00000001400a7cb0     MSVCRTD:gs_report.obj
 0002:00006cb8       $unwind$__raise_securityfailure 00000001400a7cb8     MSVCRTD:gs_report.obj
 0002:00006cc0       $xdatasym                  00000001400a7cc0     MSVCRTD:chkstk.obj
 0002:00006cc8       $unwind$atexit             00000001400a7cc8     MSVCRTD:utility.obj
 0002:00006cd0       $unwind$_onexit            00000001400a7cd0     MSVCRTD:utility.obj
 0002:00006cd8       $unwind$at_quick_exit      00000001400a7cd8     MSVCRTD:utility.obj
 0002:00006ce0       $unwind$__scrt_is_nonwritable_in_current_image 00000001400a7ce0     MSVCRTD:utility.obj
 0002:00006d04       $unwind$__scrt_is_nonwritable_in_current_image$filt$0 00000001400a7d04     MSVCRTD:utility.obj
 0002:00006d0c       $unwind$__scrt_acquire_startup_lock 00000001400a7d0c     MSVCRTD:utility.obj
 0002:00006d14       $unwind$__scrt_release_startup_lock 00000001400a7d14     MSVCRTD:utility.obj
 0002:00006d1c       $unwind$__scrt_initialize_crt 00000001400a7d1c     MSVCRTD:utility.obj
 0002:00006d24       $unwind$__scrt_uninitialize_crt 00000001400a7d24     MSVCRTD:utility.obj
 0002:00006d2c       $unwind$__scrt_initialize_onexit_tables 00000001400a7d2c     MSVCRTD:utility.obj
 0002:00006d3c       $unwind$__scrt_dllmain_exception_filter 00000001400a7d3c     MSVCRTD:utility.obj
 0002:00006d44       $unwind$__scrt_dllmain_before_initialize_c 00000001400a7d44     MSVCRTD:utility.obj
 0002:00006d4c       $unwind$__scrt_dllmain_after_initialize_c 00000001400a7d4c     MSVCRTD:utility.obj
 0002:00006d54       $unwind$__scrt_dllmain_uninitialize_c 00000001400a7d54     MSVCRTD:utility.obj
 0002:00006d5c       $unwind$__scrt_dllmain_uninitialize_critical 00000001400a7d5c     MSVCRTD:utility.obj
 0002:00006d64       $unwind$__scrt_dllmain_crt_thread_attach 00000001400a7d64     MSVCRTD:utility.obj
 0002:00006d6c       $unwind$__scrt_dllmain_crt_thread_detach 00000001400a7d6c     MSVCRTD:utility.obj
 0002:00006d74       $unwind$?is_potentially_valid_image_base@@YA_NQEAX@Z 00000001400a7d74     MSVCRTD:utility.obj
 0002:00006d7c       $unwind$?find_pe_section@@YAPEAU_IMAGE_SECTION_HEADER@@QEAE_K@Z 00000001400a7d7c     MSVCRTD:utility.obj
 0002:00006d84       $unwind$__security_init_cookie 00000001400a7d84     MSVCRTD:gs_support.obj
 0002:00006d8c       $unwind$__get_entropy      00000001400a7d8c     MSVCRTD:gs_support.obj
 0002:00006d94       $unwind$?__scrt_initialize_type_info@@YAXXZ 00000001400a7d94     MSVCRTD:tncleanup.obj
 0002:00006d9c       $unwind$?__scrt_uninitialize_type_info@@YAXXZ 00000001400a7d9c     MSVCRTD:tncleanup.obj
 0002:00006da4       $unwind$__scrt_initialize_default_local_stdio_options 00000001400a7da4     MSVCRTD:default_local_stdio_options.obj
 0002:00006dac       $unwind$__scrt_is_user_matherr_present 00000001400a7dac     MSVCRTD:matherr_detection.obj
 0002:00006db4       $unwind$__scrt_get_show_window_mode 00000001400a7db4     MSVCRTD:utility_desktop.obj
 0002:00006dc4       $unwind$__scrt_is_managed_app 00000001400a7dc4     MSVCRTD:utility_desktop.obj
 0002:00006dcc       $unwind$__scrt_initialize_mta 00000001400a7dcc     MSVCRTD:utility_desktop.obj
 0002:00006dd4       $unwind$__scrt_set_unhandled_exception_filter 00000001400a7dd4     MSVCRTD:utility_desktop.obj
 0002:00006ddc       $unwind$__scrt_fastfail    00000001400a7ddc     MSVCRTD:utility_desktop.obj
 0002:00006dec       $unwind$__scrt_unhandled_exception_filter 00000001400a7dec     MSVCRTD:utility_desktop.obj
 0002:00006df4       $unwind$_RTC_Initialize    00000001400a7df4     MSVCRTD:initsect.obj
 0002:00006e04       $unwind$_RTC_Terminate     00000001400a7e04     MSVCRTD:initsect.obj
 0002:00006e14       $unwind$ReadNoFence64      00000001400a7e14     MSVCRTD:guard_support.obj
 0002:00006e1c       $unwind$ReadPointerNoFence 00000001400a7e1c     MSVCRTD:guard_support.obj
 0002:00006e24       $unwind$_guard_icall_checks_enforced 00000001400a7e24     MSVCRTD:guard_support.obj
 0002:00006e2c       $unwind$__castguard_compat_check 00000001400a7e2c     MSVCRTD:guard_support.obj
 0002:00006e34       $unwind$__castguard_check_failure_debugbreak 00000001400a7e34     MSVCRTD:guard_support.obj
 0002:00006e3c       $unwind$__castguard_check_failure_fastfail 00000001400a7e3c     MSVCRTD:guard_support.obj
 0002:00006e44       $unwind$__castguard_check_failure_os_handled 00000001400a7e44     MSVCRTD:guard_support.obj
 0002:00006e4c       $unwind$__castguard_slow_path_compat_check 00000001400a7e4c     MSVCRTD:guard_support.obj
 0002:00006e54       $unwind$__castguard_slow_path_check_debugbreak 00000001400a7e54     MSVCRTD:guard_support.obj
 0002:00006e5c       $unwind$__castguard_slow_path_check_fastfail 00000001400a7e5c     MSVCRTD:guard_support.obj
 0002:00006e64       $unwind$__castguard_slow_path_check_os_handled 00000001400a7e64     MSVCRTD:guard_support.obj
 0002:00006e6c       $unwind$__isa_available_init 00000001400a7e6c     MSVCRTD:cpu_disp.obj
 0002:00006e80       $unwind$__scrt_is_ucrt_dll_in_use 00000001400a7e80     MSVCRTD:ucrt_detection.obj
 0002:00006e88       $xdatasym                  00000001400a7e88     MSVCRTD:guard_dispatch.obj
 0002:00006e90       $xdatasym                  00000001400a7e90     MSVCRTD:guard_xfg_dispatch.obj
 0003:00000000       $SG23481                   00000001400a9000     sipecho.obj
 0003:00000010       $SG23514                   00000001400a9010     sipecho.obj
 0003:0000001c       $SG23380                   00000001400a901c     sipecho.obj
 0003:00000020       $SG23332                   00000001400a9020     sipecho.obj
 0003:00000034       $SG23382                   00000001400a9034     sipecho.obj
 0003:0000003c       $SG23386                   00000001400a903c     sipecho.obj
 0003:00000044       $SG23388                   00000001400a9044     sipecho.obj
 0003:00000048       $SG23384                   00000001400a9048     sipecho.obj
 0003:00000050       $SG23389                   00000001400a9050     sipecho.obj
 0003:0000005c       sip_port                   00000001400a905c     sipecho.obj
 0003:00000060       $SG23393                   00000001400a9060     sipecho.obj
 0003:00000084       $SG23850                   00000001400a9084     sipecho.obj
 0003:00000088       $SG23397                   00000001400a9088     sipecho.obj
 0003:000000ac       $SG23896                   00000001400a90ac     sipecho.obj
 0003:000000b0       $SG23401                   00000001400a90b0     sipecho.obj
 0003:000000d0       $SG23405                   00000001400a90d0     sipecho.obj
 0003:000000f4       $SG23901                   00000001400a90f4     sipecho.obj
 0003:000000fc       $SG23927                   00000001400a90fc     sipecho.obj
 0003:00000108       $SG23409                   00000001400a9108     sipecho.obj
 0003:00000130       $SG23412                   00000001400a9130     sipecho.obj
 0003:00000150       $SG23431                   00000001400a9150     sipecho.obj
 0003:00000180       mod_sipecho                00000001400a9180     sipecho.obj
 0003:000001f0       $SG23492                   00000001400a91f0     sipecho.obj
 0003:00000220       $SG23493                   00000001400a9220     sipecho.obj
 0003:00000230       $SG23504                   00000001400a9230     sipecho.obj
 0003:00000260       $SG23505                   00000001400a9260     sipecho.obj
 0003:00000270       msg_logger                 00000001400a9270     sipecho.obj
 0003:000002e0       $SG23556                   00000001400a92e0     sipecho.obj
 0003:000002f0       $SG23557                   00000001400a92f0     sipecho.obj
 0003:00000300       $SG23563                   00000001400a9300     sipecho.obj
 0003:00000310       $SG23597                   00000001400a9310     sipecho.obj
 0003:00000318       $SG23607                   00000001400a9318     sipecho.obj
 0003:00000320       $SG23672                   00000001400a9320     sipecho.obj
 0003:00000330       $SG23674                   00000001400a9330     sipecho.obj
 0003:00000340       $SG23676                   00000001400a9340     sipecho.obj
 0003:00000350       $SG23678                   00000001400a9350     sipecho.obj
 0003:00000360       $SG23680                   00000001400a9360     sipecho.obj
 0003:00000368       $SG23682                   00000001400a9368     sipecho.obj
 0003:00000378       $SG23684                   00000001400a9378     sipecho.obj
 0003:00000388       $SG23686                   00000001400a9388     sipecho.obj
 0003:000003a8       $SG23687                   00000001400a93a8     sipecho.obj
 0003:000003b8       $SG23688                   00000001400a93b8     sipecho.obj
 0003:000003c0       $SG23692                   00000001400a93c0     sipecho.obj
 0003:000003d0       $SG23693                   00000001400a93d0     sipecho.obj
 0003:000003e0       $SG23696                   00000001400a93e0     sipecho.obj
 0003:000003f0       $SG23697                   00000001400a93f0     sipecho.obj
 0003:00000400       $SG23699                   00000001400a9400     sipecho.obj
 0003:00000410       $SG23700                   00000001400a9410     sipecho.obj
 0003:00000420       $SG23703                   00000001400a9420     sipecho.obj
 0003:00000430       $SG23704                   00000001400a9430     sipecho.obj
 0003:00000458       $SG23705                   00000001400a9458     sipecho.obj
 0003:00000468       $SG23724                   00000001400a9468     sipecho.obj
 0003:00000490       $SG23725                   00000001400a9490     sipecho.obj
 0003:000004a0       $SG23727                   00000001400a94a0     sipecho.obj
 0003:000004c0       $SG23728                   00000001400a94c0     sipecho.obj
 0003:000004d0       $SG23807                   00000001400a94d0     sipecho.obj
 0003:000004e0       $SG23808                   00000001400a94e0     sipecho.obj
 0003:000004f0       $SG23812                   00000001400a94f0     sipecho.obj
 0003:00000500       $SG23813                   00000001400a9500     sipecho.obj
 0003:00000510       $SG23818                   00000001400a9510     sipecho.obj
 0003:00000518       $SG23821                   00000001400a9518     sipecho.obj
 0003:00000530       $SG23824                   00000001400a9530     sipecho.obj
 0003:00000540       $SG23826                   00000001400a9540     sipecho.obj
 0003:00000568       $SG23827                   00000001400a9568     sipecho.obj
 0003:00000578       $SG23828                   00000001400a9578     sipecho.obj
 0003:00000590       $SG23849                   00000001400a9590     sipecho.obj
 0003:000005b0       $SG23851                   00000001400a95b0     sipecho.obj
 0003:000005c0       $SG23852                   00000001400a95c0     sipecho.obj
 0003:000005f8       $SG23853                   00000001400a95f8     sipecho.obj
 0003:00000630       $SG23854                   00000001400a9630     sipecho.obj
 0003:00000668       $SG23855                   00000001400a9668     sipecho.obj
 0003:000006a0       $SG23894                   00000001400a96a0     sipecho.obj
 0003:000006ac       $SG23898                   00000001400a96ac     sipecho.obj
 0003:000006b4       $SG23900                   00000001400a96b4     sipecho.obj
 0003:000006c0       $SG23908                   00000001400a96c0     sipecho.obj
 0003:000006f8       $SG23909                   00000001400a96f8     sipecho.obj
 0003:00000708       $SG23915                   00000001400a9708     sipecho.obj
 0003:00000730       $SG23916                   00000001400a9730     sipecho.obj
 0003:00000740       $SG23917                   00000001400a9740     sipecho.obj
 0003:00000758       $SG23919                   00000001400a9758     sipecho.obj
 0003:00000778       $SG23920                   00000001400a9778     sipecho.obj
 0003:00000788       $SG23924                   00000001400a9788     sipecho.obj
 0003:000007a0       $SG23925                   00000001400a97a0     sipecho.obj
 0003:000007d8       $SG23926                   00000001400a97d8     sipecho.obj
 0003:000007e0       $SG23928                   00000001400a97e0     sipecho.obj
 0003:00000828       $SG23933                   00000001400a9828     sipecho.obj
 0003:00000838       $SG23934                   00000001400a9838     sipecho.obj
 0003:00000a10       $SG21071                   00000001400a9a10     pjsip-ua-x86_64-x64-vc14-debug-dynamic:sip_inv.obj
 0003:00000a18       $SG21072                   00000001400a9a18     pjsip-ua-x86_64-x64-vc14-debug-dynamic:sip_inv.obj
 0003:00000a20       $SG21073                   00000001400a9a20     pjsip-ua-x86_64-x64-vc14-debug-dynamic:sip_inv.obj
 0003:00000a2c       $SG21074                   00000001400a9a2c     pjsip-ua-x86_64-x64-vc14-debug-dynamic:sip_inv.obj
 0003:00000a38       $SG21075                   00000001400a9a38     pjsip-ua-x86_64-x64-vc14-debug-dynamic:sip_inv.obj
 0003:00000a48       $SG21076                   00000001400a9a48     pjsip-ua-x86_64-x64-vc14-debug-dynamic:sip_inv.obj
 0003:00000a58       $SG21077                   00000001400a9a58     pjsip-ua-x86_64-x64-vc14-debug-dynamic:sip_inv.obj
 0003:00000a68       $SG21078                   00000001400a9a68     pjsip-ua-x86_64-x64-vc14-debug-dynamic:sip_inv.obj
 0003:00000a74       $SG21080                   00000001400a9a74     pjsip-ua-x86_64-x64-vc14-debug-dynamic:sip_inv.obj
 0003:00000a80       $SG21184                   00000001400a9a80     pjsip-ua-x86_64-x64-vc14-debug-dynamic:sip_inv.obj
 0003:00000a90       inv_state_names            00000001400a9a90     pjsip-ua-x86_64-x64-vc14-debug-dynamic:sip_inv.obj
 0003:00000ad0       inv_state_handler          00000001400a9ad0     pjsip-ua-x86_64-x64-vc14-debug-dynamic:sip_inv.obj
 0003:00000b08       $SG21201                   00000001400a9b08     pjsip-ua-x86_64-x64-vc14-debug-dynamic:sip_inv.obj
 0003:00000b10       mod_inv                    00000001400a9b10     pjsip-ua-x86_64-x64-vc14-debug-dynamic:sip_inv.obj
 0003:00000bd8       $SG21203                   00000001400a9bd8     pjsip-ua-x86_64-x64-vc14-debug-dynamic:sip_inv.obj
 0003:00000bdc       $SG21205                   00000001400a9bdc     pjsip-ua-x86_64-x64-vc14-debug-dynamic:sip_inv.obj
 0003:00000be0       $SG21207                   00000001400a9be0     pjsip-ua-x86_64-x64-vc14-debug-dynamic:sip_inv.obj
 0003:00000be8       $SG21209                   00000001400a9be8     pjsip-ua-x86_64-x64-vc14-debug-dynamic:sip_inv.obj
 0003:00000bf0       $SG21211                   00000001400a9bf0     pjsip-ua-x86_64-x64-vc14-debug-dynamic:sip_inv.obj
 0003:00000c00       $SG21224                   00000001400a9c00     pjsip-ua-x86_64-x64-vc14-debug-dynamic:sip_inv.obj
 0003:00000cfc       $SG21493                   00000001400a9cfc     pjsip-ua-x86_64-x64-vc14-debug-dynamic:sip_inv.obj
 0003:00000d00       $SG21225                   00000001400a9d00     pjsip-ua-x86_64-x64-vc14-debug-dynamic:sip_inv.obj
 0003:00000d28       $SG21253                   00000001400a9d28     pjsip-ua-x86_64-x64-vc14-debug-dynamic:sip_inv.obj
 0003:00000d50       $SG21252                   00000001400a9d50     pjsip-ua-x86_64-x64-vc14-debug-dynamic:sip_inv.obj
 0003:00000e50       $SG21254                   00000001400a9e50     pjsip-ua-x86_64-x64-vc14-debug-dynamic:sip_inv.obj
 0003:00000f4c       $SG21555                   00000001400a9f4c     pjsip-ua-x86_64-x64-vc14-debug-dynamic:sip_inv.obj
 0003:00000f50       $SG21255                   00000001400a9f50     pjsip-ua-x86_64-x64-vc14-debug-dynamic:sip_inv.obj
 0003:00000f6c       $SG21625                   00000001400a9f6c     pjsip-ua-x86_64-x64-vc14-debug-dynamic:sip_inv.obj
 0003:00000f70       $SG21284                   00000001400a9f70     pjsip-ua-x86_64-x64-vc14-debug-dynamic:sip_inv.obj
 0003:00000fa0       $SG21286                   00000001400a9fa0     pjsip-ua-x86_64-x64-vc14-debug-dynamic:sip_inv.obj
 0003:000010a0       $SG21287                   00000001400aa0a0     pjsip-ua-x86_64-x64-vc14-debug-dynamic:sip_inv.obj
 0003:0000111c       $SG21843                   00000001400aa11c     pjsip-ua-x86_64-x64-vc14-debug-dynamic:sip_inv.obj
 0003:00001120       $SG21305                   00000001400aa120     pjsip-ua-x86_64-x64-vc14-debug-dynamic:sip_inv.obj
 0003:00001138       $SG21342                   00000001400aa138     pjsip-ua-x86_64-x64-vc14-debug-dynamic:sip_inv.obj
 0003:0000114c       $SG21845                   00000001400aa14c     pjsip-ua-x86_64-x64-vc14-debug-dynamic:sip_inv.obj
 0003:00001150       $SG21344                   00000001400aa150     pjsip-ua-x86_64-x64-vc14-debug-dynamic:sip_inv.obj
 0003:0000116c       $SG21862                   00000001400aa16c     pjsip-ua-x86_64-x64-vc14-debug-dynamic:sip_inv.obj
 0003:00001170       $SG21373                   00000001400aa170     pjsip-ua-x86_64-x64-vc14-debug-dynamic:sip_inv.obj
 0003:00001188       $SG21375                   00000001400aa188     pjsip-ua-x86_64-x64-vc14-debug-dynamic:sip_inv.obj
 0003:000011c0       $SG21374                   00000001400aa1c0     pjsip-ua-x86_64-x64-vc14-debug-dynamic:sip_inv.obj
 0003:000012bc       $SG21877                   00000001400aa2bc     pjsip-ua-x86_64-x64-vc14-debug-dynamic:sip_inv.obj
 0003:000012c0       $SG21377                   00000001400aa2c0     pjsip-ua-x86_64-x64-vc14-debug-dynamic:sip_inv.obj
 0003:000012dc       $SG21500                   00000001400aa2dc     pjsip-ua-x86_64-x64-vc14-debug-dynamic:sip_inv.obj
 0003:000012e4       $SG21885                   00000001400aa2e4     pjsip-ua-x86_64-x64-vc14-debug-dynamic:sip_inv.obj
 0003:000012ec       $SG21895                   00000001400aa2ec     pjsip-ua-x86_64-x64-vc14-debug-dynamic:sip_inv.obj
 0003:000012f0       $SG21383                   00000001400aa2f0     pjsip-ua-x86_64-x64-vc14-debug-dynamic:sip_inv.obj
 0003:0000131c       $SG21910                   00000001400aa31c     pjsip-ua-x86_64-x64-vc14-debug-dynamic:sip_inv.obj
 0003:00001320       $SG21386                   00000001400aa320     pjsip-ua-x86_64-x64-vc14-debug-dynamic:sip_inv.obj
 0003:00001334       $SG21590                   00000001400aa334     pjsip-ua-x86_64-x64-vc14-debug-dynamic:sip_inv.obj
 0003:00001340       $SG21387                   00000001400aa340     pjsip-ua-x86_64-x64-vc14-debug-dynamic:sip_inv.obj
 0003:0000143c       $SG21927                   00000001400aa43c     pjsip-ua-x86_64-x64-vc14-debug-dynamic:sip_inv.obj
 0003:00001440       $SG21388                   00000001400aa440     pjsip-ua-x86_64-x64-vc14-debug-dynamic:sip_inv.obj
 0003:00001470       $SG21419                   00000001400aa470     pjsip-ua-x86_64-x64-vc14-debug-dynamic:sip_inv.obj
 0003:00001570       $SG21420                   00000001400aa570     pjsip-ua-x86_64-x64-vc14-debug-dynamic:sip_inv.obj
 0003:000015b8       $SG21528                   00000001400aa5b8     pjsip-ua-x86_64-x64-vc14-debug-dynamic:sip_inv.obj
 0003:000015d0       $SG21491                   00000001400aa5d0     pjsip-ua-x86_64-x64-vc14-debug-dynamic:sip_inv.obj
 0003:000016cc       $SG21941                   00000001400aa6cc     pjsip-ua-x86_64-x64-vc14-debug-dynamic:sip_inv.obj
 0003:000016d0       $SG21492                   00000001400aa6d0     pjsip-ua-x86_64-x64-vc14-debug-dynamic:sip_inv.obj
 0003:000016dc       $SG22152                   00000001400aa6dc     pjsip-ua-x86_64-x64-vc14-debug-dynamic:sip_inv.obj
 0003:000016e0       $SG21494                   00000001400aa6e0     pjsip-ua-x86_64-x64-vc14-debug-dynamic:sip_inv.obj
 0003:000016ec       $SG22435                   00000001400aa6ec     pjsip-ua-x86_64-x64-vc14-debug-dynamic:sip_inv.obj
 0003:000016f0       $SG21498                   00000001400aa6f0     pjsip-ua-x86_64-x64-vc14-debug-dynamic:sip_inv.obj
 0003:000016fc       $SG21891                   00000001400aa6fc     pjsip-ua-x86_64-x64-vc14-debug-dynamic:sip_inv.obj
 0003:00001704       $SG22716                   00000001400aa704     pjsip-ua-x86_64-x64-vc14-debug-dynamic:sip_inv.obj
 0003:00001708       $SG21501                   00000001400aa708     pjsip-ua-x86_64-x64-vc14-debug-dynamic:sip_inv.obj
 0003:00001714       $SG21591                   00000001400aa714     pjsip-ua-x86_64-x64-vc14-debug-dynamic:sip_inv.obj
 0003:00001720       $SG21527                   00000001400aa720     pjsip-ua-x86_64-x64-vc14-debug-dynamic:sip_inv.obj
 0003:00001820       $SG21531                   00000001400aa820     pjsip-ua-x86_64-x64-vc14-debug-dynamic:sip_inv.obj
 0003:00001920       $SG21532                   00000001400aa920     pjsip-ua-x86_64-x64-vc14-debug-dynamic:sip_inv.obj
 0003:00001978       $SG21588                   00000001400aa978     pjsip-ua-x86_64-x64-vc14-debug-dynamic:sip_inv.obj
 0003:000019a0       $SG21534                   00000001400aa9a0     pjsip-ua-x86_64-x64-vc14-debug-dynamic:sip_inv.obj
 0003:00001a9c       $SG22787                   00000001400aaa9c     pjsip-ua-x86_64-x64-vc14-debug-dynamic:sip_inv.obj
 0003:00001aa0       $SG21535                   00000001400aaaa0     pjsip-ua-x86_64-x64-vc14-debug-dynamic:sip_inv.obj
 0003:00001ad0       $SG21553                   00000001400aaad0     pjsip-ua-x86_64-x64-vc14-debug-dynamic:sip_inv.obj
 0003:00001bd0       $SG21554                   00000001400aabd0     pjsip-ua-x86_64-x64-vc14-debug-dynamic:sip_inv.obj
 0003:00001c60       $SG21583                   00000001400aac60     pjsip-ua-x86_64-x64-vc14-debug-dynamic:sip_inv.obj
 0003:00001d5c       $SG23250                   00000001400aad5c     pjsip-ua-x86_64-x64-vc14-debug-dynamic:sip_inv.obj
 0003:00001d60       $SG21584                   00000001400aad60     pjsip-ua-x86_64-x64-vc14-debug-dynamic:sip_inv.obj
 0003:00001d80       $SG21587                   00000001400aad80     pjsip-ua-x86_64-x64-vc14-debug-dynamic:sip_inv.obj
 0003:00001e7c       $SG23252                   00000001400aae7c     pjsip-ua-x86_64-x64-vc14-debug-dynamic:sip_inv.obj
 0003:00001e80       $SG21596                   00000001400aae80     pjsip-ua-x86_64-x64-vc14-debug-dynamic:sip_inv.obj
 0003:00001eb0       $SG21623                   00000001400aaeb0     pjsip-ua-x86_64-x64-vc14-debug-dynamic:sip_inv.obj
 0003:00001fac       $SG23426                   00000001400aafac     pjsip-ua-x86_64-x64-vc14-debug-dynamic:sip_inv.obj
 0003:00001fb0       $SG21624                   00000001400aafb0     pjsip-ua-x86_64-x64-vc14-debug-dynamic:sip_inv.obj
 0003:00001fd8       $SG21626                   00000001400aafd8     pjsip-ua-x86_64-x64-vc14-debug-dynamic:sip_inv.obj
 0003:00001fe8       $SG21630                   00000001400aafe8     pjsip-ua-x86_64-x64-vc14-debug-dynamic:sip_inv.obj
 0003:00001ff4       $SG21632                   00000001400aaff4     pjsip-ua-x86_64-x64-vc14-debug-dynamic:sip_inv.obj
 0003:00002000       $SG21633                   00000001400ab000     pjsip-ua-x86_64-x64-vc14-debug-dynamic:sip_inv.obj
 0003:00002010       $SG21638                   00000001400ab010     pjsip-ua-x86_64-x64-vc14-debug-dynamic:sip_inv.obj
 0003:00002038       $SG21639                   00000001400ab038     pjsip-ua-x86_64-x64-vc14-debug-dynamic:sip_inv.obj
 0003:00002048       $SG21832                   00000001400ab048     pjsip-ua-x86_64-x64-vc14-debug-dynamic:sip_inv.obj
 0003:00002064       $SG21835                   00000001400ab064     pjsip-ua-x86_64-x64-vc14-debug-dynamic:sip_inv.obj
 0003:00002070       $SG21816                   00000001400ab070     pjsip-ua-x86_64-x64-vc14-debug-dynamic:sip_inv.obj
 0003:00002170       $SG21817                   00000001400ab170     pjsip-ua-x86_64-x64-vc14-debug-dynamic:sip_inv.obj
 0003:000021d4       $SG21837                   00000001400ab1d4     pjsip-ua-x86_64-x64-vc14-debug-dynamic:sip_inv.obj
 0003:000021e0       $SG21824                   00000001400ab1e0     pjsip-ua-x86_64-x64-vc14-debug-dynamic:sip_inv.obj
 0003:000022e0       $SG21825                   00000001400ab2e0     pjsip-ua-x86_64-x64-vc14-debug-dynamic:sip_inv.obj
 0003:00002390       $SG21827                   00000001400ab390     pjsip-ua-x86_64-x64-vc14-debug-dynamic:sip_inv.obj
 0003:00002490       $SG21828                   00000001400ab490     pjsip-ua-x86_64-x64-vc14-debug-dynamic:sip_inv.obj
 0003:000024cc       $SG21840                   00000001400ab4cc     pjsip-ua-x86_64-x64-vc14-debug-dynamic:sip_inv.obj
 0003:000024d8       $SG21847                   00000001400ab4d8     pjsip-ua-x86_64-x64-vc14-debug-dynamic:sip_inv.obj
 0003:000024e8       $SG21856                   00000001400ab4e8     pjsip-ua-x86_64-x64-vc14-debug-dynamic:sip_inv.obj
 0003:000024f0       $SG21855                   00000001400ab4f0     pjsip-ua-x86_64-x64-vc14-debug-dynamic:sip_inv.obj
 0003:000025f0       $SG21857                   00000001400ab5f0     pjsip-ua-x86_64-x64-vc14-debug-dynamic:sip_inv.obj
 0003:00002600       $SG21861                   00000001400ab600     pjsip-ua-x86_64-x64-vc14-debug-dynamic:sip_inv.obj
 0003:00002700       $SG21866                   00000001400ab700     pjsip-ua-x86_64-x64-vc14-debug-dynamic:sip_inv.obj
 0003:00002718       $SG21870                   00000001400ab718     pjsip-ua-x86_64-x64-vc14-debug-dynamic:sip_inv.obj
 0003:00002738       $SG21880                   00000001400ab738     pjsip-ua-x86_64-x64-vc14-debug-dynamic:sip_inv.obj
 0003:00002740       $SG21867                   00000001400ab740     pjsip-ua-x86_64-x64-vc14-debug-dynamic:sip_inv.obj
 0003:00002840       $SG21868                   00000001400ab840     pjsip-ua-x86_64-x64-vc14-debug-dynamic:sip_inv.obj
 0003:00002870       $SG21871                   00000001400ab870     pjsip-ua-x86_64-x64-vc14-debug-dynamic:sip_inv.obj
 0003:00002970       $SG21872                   00000001400ab970     pjsip-ua-x86_64-x64-vc14-debug-dynamic:sip_inv.obj
 0003:000029b4       $SG21893                   00000001400ab9b4     pjsip-ua-x86_64-x64-vc14-debug-dynamic:sip_inv.obj
 0003:000029c0       $SG21876                   00000001400ab9c0     pjsip-ua-x86_64-x64-vc14-debug-dynamic:sip_inv.obj
 0003:00002ac0       $SG21879                   00000001400abac0     pjsip-ua-x86_64-x64-vc14-debug-dynamic:sip_inv.obj
 0003:00002bc0       $SG21881                   00000001400abbc0     pjsip-ua-x86_64-x64-vc14-debug-dynamic:sip_inv.obj
 0003:00002bd0       $SG21904                   00000001400abbd0     pjsip-ua-x86_64-x64-vc14-debug-dynamic:sip_inv.obj
 0003:00002bd8       $SG21906                   00000001400abbd8     pjsip-ua-x86_64-x64-vc14-debug-dynamic:sip_inv.obj
 0003:00002be4       $SG21908                   00000001400abbe4     pjsip-ua-x86_64-x64-vc14-debug-dynamic:sip_inv.obj
 0003:00002bf0       $SG21924                   00000001400abbf0     pjsip-ua-x86_64-x64-vc14-debug-dynamic:sip_inv.obj
 0003:00002cf0       $SG21925                   00000001400abcf0     pjsip-ua-x86_64-x64-vc14-debug-dynamic:sip_inv.obj
 0003:00002d24       $SG21937                   00000001400abd24     pjsip-ua-x86_64-x64-vc14-debug-dynamic:sip_inv.obj
 0003:00002d30       $SG21926                   00000001400abd30     pjsip-ua-x86_64-x64-vc14-debug-dynamic:sip_inv.obj
 0003:00002e30       $SG21934                   00000001400abe30     pjsip-ua-x86_64-x64-vc14-debug-dynamic:sip_inv.obj
 0003:00002f30       $SG21935                   00000001400abf30     pjsip-ua-x86_64-x64-vc14-debug-dynamic:sip_inv.obj
 0003:00002f60       $SG21939                   00000001400abf60     pjsip-ua-x86_64-x64-vc14-debug-dynamic:sip_inv.obj
 0003:00002f68       $SG22046                   00000001400abf68     pjsip-ua-x86_64-x64-vc14-debug-dynamic:sip_inv.obj
 0003:00002f90       $SG21940                   00000001400abf90     pjsip-ua-x86_64-x64-vc14-debug-dynamic:sip_inv.obj
 0003:00003090       $SG21944                   00000001400ac090     pjsip-ua-x86_64-x64-vc14-debug-dynamic:sip_inv.obj
 0003:00003190       $SG21945                   00000001400ac190     pjsip-ua-x86_64-x64-vc14-debug-dynamic:sip_inv.obj
 0003:000031d8       $SG22048                   00000001400ac1d8     pjsip-ua-x86_64-x64-vc14-debug-dynamic:sip_inv.obj
 0003:000031e0       $SG21947                   00000001400ac1e0     pjsip-ua-x86_64-x64-vc14-debug-dynamic:sip_inv.obj
 0003:000032e0       $SG21948                   00000001400ac2e0     pjsip-ua-x86_64-x64-vc14-debug-dynamic:sip_inv.obj
 0003:00003328       $SG22049                   00000001400ac328     pjsip-ua-x86_64-x64-vc14-debug-dynamic:sip_inv.obj
 0003:00003330       $SG21955                   00000001400ac330     pjsip-ua-x86_64-x64-vc14-debug-dynamic:sip_inv.obj
 0003:00003430       $SG21956                   00000001400ac430     pjsip-ua-x86_64-x64-vc14-debug-dynamic:sip_inv.obj
 0003:00003440       $SG22034                   00000001400ac440     pjsip-ua-x86_64-x64-vc14-debug-dynamic:sip_inv.obj
 0003:00003540       $SG22035                   00000001400ac540     pjsip-ua-x86_64-x64-vc14-debug-dynamic:sip_inv.obj
 0003:00003570       $SG22037                   00000001400ac570     pjsip-ua-x86_64-x64-vc14-debug-dynamic:sip_inv.obj
 0003:00003670       $SG22038                   00000001400ac670     pjsip-ua-x86_64-x64-vc14-debug-dynamic:sip_inv.obj
 0003:000036c4       $SG22198                   00000001400ac6c4     pjsip-ua-x86_64-x64-vc14-debug-dynamic:sip_inv.obj
 0003:000036d0       $SG22041                   00000001400ac6d0     pjsip-ua-x86_64-x64-vc14-debug-dynamic:sip_inv.obj
 0003:000037d0       $SG22042                   00000001400ac7d0     pjsip-ua-x86_64-x64-vc14-debug-dynamic:sip_inv.obj
 0003:00003878       $SG22087                   00000001400ac878     pjsip-ua-x86_64-x64-vc14-debug-dynamic:sip_inv.obj
 0003:00003880       $SG22045                   00000001400ac880     pjsip-ua-x86_64-x64-vc14-debug-dynamic:sip_inv.obj
 0003:00003980       $SG22059                   00000001400ac980     pjsip-ua-x86_64-x64-vc14-debug-dynamic:sip_inv.obj
 0003:000039b0       $SG22086                   00000001400ac9b0     pjsip-ua-x86_64-x64-vc14-debug-dynamic:sip_inv.obj
 0003:00003ab0       $SG22104                   00000001400acab0     pjsip-ua-x86_64-x64-vc14-debug-dynamic:sip_inv.obj
 0003:00003bb0       $SG22105                   00000001400acbb0     pjsip-ua-x86_64-x64-vc14-debug-dynamic:sip_inv.obj
 0003:00003bb8       $SG22150                   00000001400acbb8     pjsip-ua-x86_64-x64-vc14-debug-dynamic:sip_inv.obj
 0003:00003bc4       $SG22201                   00000001400acbc4     pjsip-ua-x86_64-x64-vc14-debug-dynamic:sip_inv.obj
 0003:00003bd0       $SG22154                   00000001400acbd0     pjsip-ua-x86_64-x64-vc14-debug-dynamic:sip_inv.obj
 0003:00003cd0       $SG22155                   00000001400accd0     pjsip-ua-x86_64-x64-vc14-debug-dynamic:sip_inv.obj
 0003:00003cf8       $SG22203                   00000001400accf8     pjsip-ua-x86_64-x64-vc14-debug-dynamic:sip_inv.obj
 0003:00003d00       $SG22246                   00000001400acd00     pjsip-ua-x86_64-x64-vc14-debug-dynamic:sip_inv.obj
 0003:00003e00       $SG22247                   00000001400ace00     pjsip-ua-x86_64-x64-vc14-debug-dynamic:sip_inv.obj
 0003:00003e20       $SG22249                   00000001400ace20     pjsip-ua-x86_64-x64-vc14-debug-dynamic:sip_inv.obj
 0003:00003f20       $SG22250                   00000001400acf20     pjsip-ua-x86_64-x64-vc14-debug-dynamic:sip_inv.obj
 0003:00003fbc       $SG22263                   00000001400acfbc     pjsip-ua-x86_64-x64-vc14-debug-dynamic:sip_inv.obj
 0003:00003fc4       $SG22265                   00000001400acfc4     pjsip-ua-x86_64-x64-vc14-debug-dynamic:sip_inv.obj
 0003:00003fd0       $SG22287                   00000001400acfd0     pjsip-ua-x86_64-x64-vc14-debug-dynamic:sip_inv.obj
 0003:000040d0       $SG22288                   00000001400ad0d0     pjsip-ua-x86_64-x64-vc14-debug-dynamic:sip_inv.obj
 0003:00004160       $SG22289                   00000001400ad160     pjsip-ua-x86_64-x64-vc14-debug-dynamic:sip_inv.obj
 0003:00004178       $SG22366                   00000001400ad178     pjsip-ua-x86_64-x64-vc14-debug-dynamic:sip_inv.obj
 0003:00004180       $SG22367                   00000001400ad180     pjsip-ua-x86_64-x64-vc14-debug-dynamic:sip_inv.obj
 0003:00004188       $SG22376                   00000001400ad188     pjsip-ua-x86_64-x64-vc14-debug-dynamic:sip_inv.obj
 0003:000041a0       $SG22368                   00000001400ad1a0     pjsip-ua-x86_64-x64-vc14-debug-dynamic:sip_inv.obj
 0003:00004200       $SG22371                   00000001400ad200     pjsip-ua-x86_64-x64-vc14-debug-dynamic:sip_inv.obj
 0003:00004240       $SG22374                   00000001400ad240     pjsip-ua-x86_64-x64-vc14-debug-dynamic:sip_inv.obj
 0003:00004270       $SG22377                   00000001400ad270     pjsip-ua-x86_64-x64-vc14-debug-dynamic:sip_inv.obj
 0003:00004280       $SG22378                   00000001400ad280     pjsip-ua-x86_64-x64-vc14-debug-dynamic:sip_inv.obj
 0003:00004380       $SG22379                   00000001400ad380     pjsip-ua-x86_64-x64-vc14-debug-dynamic:sip_inv.obj
 0003:000043c0       $SG22384                   00000001400ad3c0     pjsip-ua-x86_64-x64-vc14-debug-dynamic:sip_inv.obj
 0003:000043d8       $SG22388                   00000001400ad3d8     pjsip-ua-x86_64-x64-vc14-debug-dynamic:sip_inv.obj
 0003:000043f8       $SG22389                   00000001400ad3f8     pjsip-ua-x86_64-x64-vc14-debug-dynamic:sip_inv.obj
 0003:00004408       $SG22400                   00000001400ad408     pjsip-ua-x86_64-x64-vc14-debug-dynamic:sip_inv.obj
 0003:00004420       $SG22396                   00000001400ad420     pjsip-ua-x86_64-x64-vc14-debug-dynamic:sip_inv.obj
 0003:00004468       $SG22402                   00000001400ad468     pjsip-ua-x86_64-x64-vc14-debug-dynamic:sip_inv.obj
 0003:00004490       $SG22403                   00000001400ad490     pjsip-ua-x86_64-x64-vc14-debug-dynamic:sip_inv.obj
 0003:000044a0       $SG22405                   00000001400ad4a0     pjsip-ua-x86_64-x64-vc14-debug-dynamic:sip_inv.obj
 0003:000044d0       $SG22406                   00000001400ad4d0     pjsip-ua-x86_64-x64-vc14-debug-dynamic:sip_inv.obj
 0003:000044e0       $SG22434                   00000001400ad4e0     pjsip-ua-x86_64-x64-vc14-debug-dynamic:sip_inv.obj
 0003:000045e0       $SG22484                   00000001400ad5e0     pjsip-ua-x86_64-x64-vc14-debug-dynamic:sip_inv.obj
 0003:000046e0       $SG22485                   00000001400ad6e0     pjsip-ua-x86_64-x64-vc14-debug-dynamic:sip_inv.obj
 0003:00004700       $SG22487                   00000001400ad700     pjsip-ua-x86_64-x64-vc14-debug-dynamic:sip_inv.obj
 0003:00004800       $SG22488                   00000001400ad800     pjsip-ua-x86_64-x64-vc14-debug-dynamic:sip_inv.obj
 0003:00004820       $SG22496                   00000001400ad820     pjsip-ua-x86_64-x64-vc14-debug-dynamic:sip_inv.obj
 0003:00004838       $SG22533                   00000001400ad838     pjsip-ua-x86_64-x64-vc14-debug-dynamic:sip_inv.obj
 0003:00004858       $SG22536                   00000001400ad858     pjsip-ua-x86_64-x64-vc14-debug-dynamic:sip_inv.obj
 0003:00004878       $SG22539                   00000001400ad878     pjsip-ua-x86_64-x64-vc14-debug-dynamic:sip_inv.obj
 0003:000048a0       $SG22532                   00000001400ad8a0     pjsip-ua-x86_64-x64-vc14-debug-dynamic:sip_inv.obj
 0003:000049a0       $SG22535                   00000001400ad9a0     pjsip-ua-x86_64-x64-vc14-debug-dynamic:sip_inv.obj
 0003:00004aa0       $SG22538                   00000001400adaa0     pjsip-ua-x86_64-x64-vc14-debug-dynamic:sip_inv.obj
 0003:00004ba0       $SG22559                   00000001400adba0     pjsip-ua-x86_64-x64-vc14-debug-dynamic:sip_inv.obj
 0003:00004ca0       $SG22560                   00000001400adca0     pjsip-ua-x86_64-x64-vc14-debug-dynamic:sip_inv.obj
 0003:00004cb8       $SG22582                   00000001400adcb8     pjsip-ua-x86_64-x64-vc14-debug-dynamic:sip_inv.obj
 0003:00004cd0       $SG22581                   00000001400adcd0     pjsip-ua-x86_64-x64-vc14-debug-dynamic:sip_inv.obj
 0003:00004dd0       $SG22624                   00000001400addd0     pjsip-ua-x86_64-x64-vc14-debug-dynamic:sip_inv.obj
 0003:00004ed0       $SG22625                   00000001400aded0     pjsip-ua-x86_64-x64-vc14-debug-dynamic:sip_inv.obj
 0003:00004ef0       $SG22632                   00000001400adef0     pjsip-ua-x86_64-x64-vc14-debug-dynamic:sip_inv.obj
 0003:00004ff0       $SG22633                   00000001400adff0     pjsip-ua-x86_64-x64-vc14-debug-dynamic:sip_inv.obj
 0003:00005030       $SG22636                   00000001400ae030     pjsip-ua-x86_64-x64-vc14-debug-dynamic:sip_inv.obj
 0003:00005070       $SG22639                   00000001400ae070     pjsip-ua-x86_64-x64-vc14-debug-dynamic:sip_inv.obj
 0003:00005170       $SG22640                   00000001400ae170     pjsip-ua-x86_64-x64-vc14-debug-dynamic:sip_inv.obj
 0003:000051a0       $SG22645                   00000001400ae1a0     pjsip-ua-x86_64-x64-vc14-debug-dynamic:sip_inv.obj
 0003:000051b8       $SG22647                   00000001400ae1b8     pjsip-ua-x86_64-x64-vc14-debug-dynamic:sip_inv.obj
 0003:000051e4       $SG22717                   00000001400ae1e4     pjsip-ua-x86_64-x64-vc14-debug-dynamic:sip_inv.obj
 0003:000051f0       $SG22646                   00000001400ae1f0     pjsip-ua-x86_64-x64-vc14-debug-dynamic:sip_inv.obj
 0003:000052f0       $SG22676                   00000001400ae2f0     pjsip-ua-x86_64-x64-vc14-debug-dynamic:sip_inv.obj
 0003:000053f0       $SG22677                   00000001400ae3f0     pjsip-ua-x86_64-x64-vc14-debug-dynamic:sip_inv.obj
 0003:00005410       $SG22680                   00000001400ae410     pjsip-ua-x86_64-x64-vc14-debug-dynamic:sip_inv.obj
 0003:00005510       $SG22681                   00000001400ae510     pjsip-ua-x86_64-x64-vc14-debug-dynamic:sip_inv.obj
 0003:00005550       $SG22684                   00000001400ae550     pjsip-ua-x86_64-x64-vc14-debug-dynamic:sip_inv.obj
 0003:00005590       $SG22723                   00000001400ae590     pjsip-ua-x86_64-x64-vc14-debug-dynamic:sip_inv.obj
 0003:000055a8       $SG22725                   00000001400ae5a8     pjsip-ua-x86_64-x64-vc14-debug-dynamic:sip_inv.obj
 0003:000055e0       $SG22724                   00000001400ae5e0     pjsip-ua-x86_64-x64-vc14-debug-dynamic:sip_inv.obj
 0003:000056e0       $SG22779                   00000001400ae6e0     pjsip-ua-x86_64-x64-vc14-debug-dynamic:sip_inv.obj
 0003:000057e0       $SG22780                   00000001400ae7e0     pjsip-ua-x86_64-x64-vc14-debug-dynamic:sip_inv.obj
 0003:00005828       $SG22788                   00000001400ae828     pjsip-ua-x86_64-x64-vc14-debug-dynamic:sip_inv.obj
 0003:00005830       $SG22791                   00000001400ae830     pjsip-ua-x86_64-x64-vc14-debug-dynamic:sip_inv.obj
 0003:00005848       $SG22792                   00000001400ae848     pjsip-ua-x86_64-x64-vc14-debug-dynamic:sip_inv.obj
 0003:00005850       $SG22797                   00000001400ae850     pjsip-ua-x86_64-x64-vc14-debug-dynamic:sip_inv.obj
 0003:00005868       $SG22836                   00000001400ae868     pjsip-ua-x86_64-x64-vc14-debug-dynamic:sip_inv.obj
 0003:00005888       $SG22840                   00000001400ae888     pjsip-ua-x86_64-x64-vc14-debug-dynamic:sip_inv.obj
 0003:00005890       $SG22798                   00000001400ae890     pjsip-ua-x86_64-x64-vc14-debug-dynamic:sip_inv.obj
 0003:00005990       $SG22799                   00000001400ae990     pjsip-ua-x86_64-x64-vc14-debug-dynamic:sip_inv.obj
 0003:000059c0       $SG22835                   00000001400ae9c0     pjsip-ua-x86_64-x64-vc14-debug-dynamic:sip_inv.obj
 0003:00005ac0       $SG22847                   00000001400aeac0     pjsip-ua-x86_64-x64-vc14-debug-dynamic:sip_inv.obj
 0003:00005ae0       $SG22848                   00000001400aeae0     pjsip-ua-x86_64-x64-vc14-debug-dynamic:sip_inv.obj
 0003:00005be0       $SG22849                   00000001400aebe0     pjsip-ua-x86_64-x64-vc14-debug-dynamic:sip_inv.obj
 0003:00005c28       $SG22910                   00000001400aec28     pjsip-ua-x86_64-x64-vc14-debug-dynamic:sip_inv.obj
 0003:00005c48       $SG22924                   00000001400aec48     pjsip-ua-x86_64-x64-vc14-debug-dynamic:sip_inv.obj
 0003:00005c50       $SG22852                   00000001400aec50     pjsip-ua-x86_64-x64-vc14-debug-dynamic:sip_inv.obj
 0003:00005c90       $SG22857                   00000001400aec90     pjsip-ua-x86_64-x64-vc14-debug-dynamic:sip_inv.obj
 0003:00005cd8       $SG22920                   00000001400aecd8     pjsip-ua-x86_64-x64-vc14-debug-dynamic:sip_inv.obj
 0003:00005d08       $SG22950                   00000001400aed08     pjsip-ua-x86_64-x64-vc14-debug-dynamic:sip_inv.obj
 0003:00005d28       $SG23170                   00000001400aed28     pjsip-ua-x86_64-x64-vc14-debug-dynamic:sip_inv.obj
 0003:00005d60       $SG22909                   00000001400aed60     pjsip-ua-x86_64-x64-vc14-debug-dynamic:sip_inv.obj
 0003:00005e60       $SG22912                   00000001400aee60     pjsip-ua-x86_64-x64-vc14-debug-dynamic:sip_inv.obj
 0003:00005f60       $SG22913                   00000001400aef60     pjsip-ua-x86_64-x64-vc14-debug-dynamic:sip_inv.obj
 0003:00005fc4       $SG23244                   00000001400aefc4     pjsip-ua-x86_64-x64-vc14-debug-dynamic:sip_inv.obj
 0003:00005fd0       $SG22915                   00000001400aefd0     pjsip-ua-x86_64-x64-vc14-debug-dynamic:sip_inv.obj
 0003:000060d0       $SG22916                   00000001400af0d0     pjsip-ua-x86_64-x64-vc14-debug-dynamic:sip_inv.obj
 0003:00006124       $SG23247                   00000001400af124     pjsip-ua-x86_64-x64-vc14-debug-dynamic:sip_inv.obj
 0003:00006130       $SG22949                   00000001400af130     pjsip-ua-x86_64-x64-vc14-debug-dynamic:sip_inv.obj
 0003:00006230       $SG22990                   00000001400af230     pjsip-ua-x86_64-x64-vc14-debug-dynamic:sip_inv.obj
 0003:00006330       $SG22991                   00000001400af330     pjsip-ua-x86_64-x64-vc14-debug-dynamic:sip_inv.obj
 0003:00006350       $SG22993                   00000001400af350     pjsip-ua-x86_64-x64-vc14-debug-dynamic:sip_inv.obj
 0003:00006360       $SG23000                   00000001400af360     pjsip-ua-x86_64-x64-vc14-debug-dynamic:sip_inv.obj
 0003:00006390       $SG23004                   00000001400af390     pjsip-ua-x86_64-x64-vc14-debug-dynamic:sip_inv.obj
 0003:00006490       $SG23005                   00000001400af490     pjsip-ua-x86_64-x64-vc14-debug-dynamic:sip_inv.obj
 0003:000065a0       $SG23032                   00000001400af5a0     pjsip-ua-x86_64-x64-vc14-debug-dynamic:sip_inv.obj
 0003:000066a0       $SG23033                   00000001400af6a0     pjsip-ua-x86_64-x64-vc14-debug-dynamic:sip_inv.obj
 0003:00006700       $SG23040                   00000001400af700     pjsip-ua-x86_64-x64-vc14-debug-dynamic:sip_inv.obj
 0003:00006800       $SG23041                   00000001400af800     pjsip-ua-x86_64-x64-vc14-debug-dynamic:sip_inv.obj
 0003:00006848       $SG23286                   00000001400af848     pjsip-ua-x86_64-x64-vc14-debug-dynamic:sip_inv.obj
 0003:00006860       $SG23115                   00000001400af860     pjsip-ua-x86_64-x64-vc14-debug-dynamic:sip_inv.obj
 0003:00006960       $SG23116                   00000001400af960     pjsip-ua-x86_64-x64-vc14-debug-dynamic:sip_inv.obj
 0003:00006a08       $SG23254                   00000001400afa08     pjsip-ua-x86_64-x64-vc14-debug-dynamic:sip_inv.obj
 0003:00006a18       $SG23323                   00000001400afa18     pjsip-ua-x86_64-x64-vc14-debug-dynamic:sip_inv.obj
 0003:00006a50       $SG23153                   00000001400afa50     pjsip-ua-x86_64-x64-vc14-debug-dynamic:sip_inv.obj
 0003:00006b50       $SG23154                   00000001400afb50     pjsip-ua-x86_64-x64-vc14-debug-dynamic:sip_inv.obj
 0003:00006b70       $SG23171                   00000001400afb70     pjsip-ua-x86_64-x64-vc14-debug-dynamic:sip_inv.obj
 0003:00006b80       $SG23258                   00000001400afb80     pjsip-ua-x86_64-x64-vc14-debug-dynamic:sip_inv.obj
 0003:00006be0       $SG23262                   00000001400afbe0     pjsip-ua-x86_64-x64-vc14-debug-dynamic:sip_inv.obj
 0003:00006c38       $SG23403                   00000001400afc38     pjsip-ua-x86_64-x64-vc14-debug-dynamic:sip_inv.obj
 0003:00006c50       $SG23285                   00000001400afc50     pjsip-ua-x86_64-x64-vc14-debug-dynamic:sip_inv.obj
 0003:00006d50       $SG23303                   00000001400afd50     pjsip-ua-x86_64-x64-vc14-debug-dynamic:sip_inv.obj
 0003:00006d70       $SG23304                   00000001400afd70     pjsip-ua-x86_64-x64-vc14-debug-dynamic:sip_inv.obj
 0003:00006e70       $SG23305                   00000001400afe70     pjsip-ua-x86_64-x64-vc14-debug-dynamic:sip_inv.obj
 0003:00006eb0       $SG23322                   00000001400afeb0     pjsip-ua-x86_64-x64-vc14-debug-dynamic:sip_inv.obj
 0003:00006fb0       $SG23402                   00000001400affb0     pjsip-ua-x86_64-x64-vc14-debug-dynamic:sip_inv.obj
 0003:000070ac       $SG23418                   00000001400b00ac     pjsip-ua-x86_64-x64-vc14-debug-dynamic:sip_inv.obj
 0003:000070b8       $SG23460                   00000001400b00b8     pjsip-ua-x86_64-x64-vc14-debug-dynamic:sip_inv.obj
 0003:000070d0       $SG23425                   00000001400b00d0     pjsip-ua-x86_64-x64-vc14-debug-dynamic:sip_inv.obj
 0003:000071d0       $SG23432                   00000001400b01d0     pjsip-ua-x86_64-x64-vc14-debug-dynamic:sip_inv.obj
 0003:000072d0       $SG23433                   00000001400b02d0     pjsip-ua-x86_64-x64-vc14-debug-dynamic:sip_inv.obj
 0003:00007330       $SG23459                   00000001400b0330     pjsip-ua-x86_64-x64-vc14-debug-dynamic:sip_inv.obj
 0003:00007430       $SG23473                   00000001400b0430     pjsip-ua-x86_64-x64-vc14-debug-dynamic:sip_inv.obj
 0003:00007448       $SG23475                   00000001400b0448     pjsip-ua-x86_64-x64-vc14-debug-dynamic:sip_inv.obj
 0003:00007480       $SG23474                   00000001400b0480     pjsip-ua-x86_64-x64-vc14-debug-dynamic:sip_inv.obj
 0003:00007580       $SG23507                   00000001400b0580     pjsip-ua-x86_64-x64-vc14-debug-dynamic:sip_inv.obj
 0003:00007680       $SG23508                   00000001400b0680     pjsip-ua-x86_64-x64-vc14-debug-dynamic:sip_inv.obj
 0003:00007698       $SG23580                   00000001400b0698     pjsip-ua-x86_64-x64-vc14-debug-dynamic:sip_inv.obj
 0003:000076b0       $SG23532                   00000001400b06b0     pjsip-ua-x86_64-x64-vc14-debug-dynamic:sip_inv.obj
 0003:000077b0       $SG23533                   00000001400b07b0     pjsip-ua-x86_64-x64-vc14-debug-dynamic:sip_inv.obj
 0003:00007810       $SG23535                   00000001400b0810     pjsip-ua-x86_64-x64-vc14-debug-dynamic:sip_inv.obj
 0003:00007830       $SG23536                   00000001400b0830     pjsip-ua-x86_64-x64-vc14-debug-dynamic:sip_inv.obj
 0003:00007930       $SG23537                   00000001400b0930     pjsip-ua-x86_64-x64-vc14-debug-dynamic:sip_inv.obj
 0003:00007970       $SG23553                   00000001400b0970     pjsip-ua-x86_64-x64-vc14-debug-dynamic:sip_inv.obj
 0003:00007a70       $SG23554                   00000001400b0a70     pjsip-ua-x86_64-x64-vc14-debug-dynamic:sip_inv.obj
 0003:00007aa0       $SG23579                   00000001400b0aa0     pjsip-ua-x86_64-x64-vc14-debug-dynamic:sip_inv.obj
 0003:00007ba0       $SG23597                   00000001400b0ba0     pjsip-ua-x86_64-x64-vc14-debug-dynamic:sip_inv.obj
 0003:00007bb8       $SG23599                   00000001400b0bb8     pjsip-ua-x86_64-x64-vc14-debug-dynamic:sip_inv.obj
 0003:00007be0       $SG23598                   00000001400b0be0     pjsip-ua-x86_64-x64-vc14-debug-dynamic:sip_inv.obj
 0003:00007ce0       $SG23681                   00000001400b0ce0     pjsip-ua-x86_64-x64-vc14-debug-dynamic:sip_inv.obj
 0003:00007de0       $SG23682                   00000001400b0de0     pjsip-ua-x86_64-x64-vc14-debug-dynamic:sip_inv.obj
 0003:00007df8       $SG23697                   00000001400b0df8     pjsip-ua-x86_64-x64-vc14-debug-dynamic:sip_inv.obj
 0003:00007e20       $SG23710                   00000001400b0e20     pjsip-ua-x86_64-x64-vc14-debug-dynamic:sip_inv.obj
 0003:00007e40       $SG23730                   00000001400b0e40     pjsip-ua-x86_64-x64-vc14-debug-dynamic:sip_inv.obj
 0003:00007e58       $SG23782                   00000001400b0e58     pjsip-ua-x86_64-x64-vc14-debug-dynamic:sip_inv.obj
 0003:00007e70       $SG23740                   00000001400b0e70     pjsip-ua-x86_64-x64-vc14-debug-dynamic:sip_inv.obj
 0003:00007f70       $SG23741                   00000001400b0f70     pjsip-ua-x86_64-x64-vc14-debug-dynamic:sip_inv.obj
 0003:00007fe0       $SG23781                   00000001400b0fe0     pjsip-ua-x86_64-x64-vc14-debug-dynamic:sip_inv.obj
 0003:000098a0       $SG21286                   00000001400b28a0     pjsip-ua-x86_64-x64-vc14-debug-dynamic:sip_100rel.obj
 0003:000098a8       $SG21298                   00000001400b28a8     pjsip-ua-x86_64-x64-vc14-debug-dynamic:sip_100rel.obj
 0003:000098b0       $SG21300                   00000001400b28b0     pjsip-ua-x86_64-x64-vc14-debug-dynamic:sip_100rel.obj
 0003:000098b8       $SG21302                   00000001400b28b8     pjsip-ua-x86_64-x64-vc14-debug-dynamic:sip_100rel.obj
 0003:000098c0       $SG21317                   00000001400b28c0     pjsip-ua-x86_64-x64-vc14-debug-dynamic:sip_100rel.obj
 0003:000098d0       mod_100rel                 00000001400b28d0     pjsip-ua-x86_64-x64-vc14-debug-dynamic:sip_100rel.obj
 0003:00009948       $SG21390                   00000001400b2948     pjsip-ua-x86_64-x64-vc14-debug-dynamic:sip_100rel.obj
 0003:00009960       $SG21387                   00000001400b2960     pjsip-ua-x86_64-x64-vc14-debug-dynamic:sip_100rel.obj
 0003:00009a64       $SG21737                   00000001400b2a64     pjsip-ua-x86_64-x64-vc14-debug-dynamic:sip_100rel.obj
 0003:00009a68       $SG21388                   00000001400b2a68     pjsip-ua-x86_64-x64-vc14-debug-dynamic:sip_100rel.obj
 0003:00009a98       $SG21463                   00000001400b2a98     pjsip-ua-x86_64-x64-vc14-debug-dynamic:sip_100rel.obj
 0003:00009ac0       $SG21403                   00000001400b2ac0     pjsip-ua-x86_64-x64-vc14-debug-dynamic:sip_100rel.obj
 0003:00009bc8       $SG21468                   00000001400b2bc8     pjsip-ua-x86_64-x64-vc14-debug-dynamic:sip_100rel.obj
 0003:00009bf8       $SG21502                   00000001400b2bf8     pjsip-ua-x86_64-x64-vc14-debug-dynamic:sip_100rel.obj
 0003:00009c20       $SG21404                   00000001400b2c20     pjsip-ua-x86_64-x64-vc14-debug-dynamic:sip_100rel.obj
 0003:00009c60       $SG21462                   00000001400b2c60     pjsip-ua-x86_64-x64-vc14-debug-dynamic:sip_100rel.obj
 0003:00009d68       $SG21482                   00000001400b2d68     pjsip-ua-x86_64-x64-vc14-debug-dynamic:sip_100rel.obj
 0003:00009da8       $SG21579                   00000001400b2da8     pjsip-ua-x86_64-x64-vc14-debug-dynamic:sip_100rel.obj
 0003:00009dd0       $SG21464                   00000001400b2dd0     pjsip-ua-x86_64-x64-vc14-debug-dynamic:sip_100rel.obj
 0003:00009ed8       $SG21483                   00000001400b2ed8     pjsip-ua-x86_64-x64-vc14-debug-dynamic:sip_100rel.obj
 0003:00009ee8       $SG21581                   00000001400b2ee8     pjsip-ua-x86_64-x64-vc14-debug-dynamic:sip_100rel.obj
 0003:00009f00       $SG21465                   00000001400b2f00     pjsip-ua-x86_64-x64-vc14-debug-dynamic:sip_100rel.obj
 0003:0000a008       $SG21587                   00000001400b3008     pjsip-ua-x86_64-x64-vc14-debug-dynamic:sip_100rel.obj
 0003:0000a030       $SG21476                   00000001400b3030     pjsip-ua-x86_64-x64-vc14-debug-dynamic:sip_100rel.obj
 0003:0000a078       $SG21590                   00000001400b3078     pjsip-ua-x86_64-x64-vc14-debug-dynamic:sip_100rel.obj
 0003:0000a088       $SG21710                   00000001400b3088     pjsip-ua-x86_64-x64-vc14-debug-dynamic:sip_100rel.obj
 0003:0000a0b0       $SG21501                   00000001400b30b0     pjsip-ua-x86_64-x64-vc14-debug-dynamic:sip_100rel.obj
 0003:0000a1b8       $SG21597                   00000001400b31b8     pjsip-ua-x86_64-x64-vc14-debug-dynamic:sip_100rel.obj
 0003:0000a1f0       $SG21578                   00000001400b31f0     pjsip-ua-x86_64-x64-vc14-debug-dynamic:sip_100rel.obj
 0003:0000a2f8       $SG21615                   00000001400b32f8     pjsip-ua-x86_64-x64-vc14-debug-dynamic:sip_100rel.obj
 0003:0000a320       $SG21617                   00000001400b3320     pjsip-ua-x86_64-x64-vc14-debug-dynamic:sip_100rel.obj
 0003:0000a430       $SG21618                   00000001400b3430     pjsip-ua-x86_64-x64-vc14-debug-dynamic:sip_100rel.obj
 0003:0000a490       $SG21624                   00000001400b3490     pjsip-ua-x86_64-x64-vc14-debug-dynamic:sip_100rel.obj
 0003:0000a520       $SG21705                   00000001400b3520     pjsip-ua-x86_64-x64-vc14-debug-dynamic:sip_100rel.obj
 0003:0000a630       $SG21706                   00000001400b3630     pjsip-ua-x86_64-x64-vc14-debug-dynamic:sip_100rel.obj
 0003:0000a680       $SG21709                   00000001400b3680     pjsip-ua-x86_64-x64-vc14-debug-dynamic:sip_100rel.obj
 0003:0000a790       $SG21712                   00000001400b3790     pjsip-ua-x86_64-x64-vc14-debug-dynamic:sip_100rel.obj
 0003:0000a898       $SG21713                   00000001400b3898     pjsip-ua-x86_64-x64-vc14-debug-dynamic:sip_100rel.obj
 0003:0000a8d0       $SG21715                   00000001400b38d0     pjsip-ua-x86_64-x64-vc14-debug-dynamic:sip_100rel.obj
 0003:0000a9e0       $SG21716                   00000001400b39e0     pjsip-ua-x86_64-x64-vc14-debug-dynamic:sip_100rel.obj
 0003:0000aa38       $SG21724                   00000001400b3a38     pjsip-ua-x86_64-x64-vc14-debug-dynamic:sip_100rel.obj
 0003:0000aa60       $SG21728                   00000001400b3a60     pjsip-ua-x86_64-x64-vc14-debug-dynamic:sip_100rel.obj
 0003:0000aa90       $SG21735                   00000001400b3a90     pjsip-ua-x86_64-x64-vc14-debug-dynamic:sip_100rel.obj
 0003:0000aba0       $SG21736                   00000001400b3ba0     pjsip-ua-x86_64-x64-vc14-debug-dynamic:sip_100rel.obj
 0003:0000abf0       $SG21741                   00000001400b3bf0     pjsip-ua-x86_64-x64-vc14-debug-dynamic:sip_100rel.obj
 0003:0000b000       $SG22022                   00000001400b4000     pjsip-ua-x86_64-x64-vc14-debug-dynamic:sip_timer.obj
 0003:0000b010       $SG22024                   00000001400b4010     pjsip-ua-x86_64-x64-vc14-debug-dynamic:sip_timer.obj
 0003:0000b014       $SG22026                   00000001400b4014     pjsip-ua-x86_64-x64-vc14-debug-dynamic:sip_timer.obj
 0003:0000b01c       $SG22030                   00000001400b401c     pjsip-ua-x86_64-x64-vc14-debug-dynamic:sip_timer.obj
 0003:0000b020       $SG22028                   00000001400b4020     pjsip-ua-x86_64-x64-vc14-debug-dynamic:sip_timer.obj
 0003:0000b02c       $SG22032                   00000001400b402c     pjsip-ua-x86_64-x64-vc14-debug-dynamic:sip_timer.obj
 0003:0000b030       $SG22034                   00000001400b4030     pjsip-ua-x86_64-x64-vc14-debug-dynamic:sip_timer.obj
 0003:0000b038       $SG22058                   00000001400b4038     pjsip-ua-x86_64-x64-vc14-debug-dynamic:sip_timer.obj
 0003:0000b040       se_hdr_vptr                00000001400b4040     pjsip-ua-x86_64-x64-vc14-debug-dynamic:sip_timer.obj
 0003:0000b058       min_se_hdr_vptr            00000001400b4058     pjsip-ua-x86_64-x64-vc14-debug-dynamic:sip_timer.obj
 0003:0000b070       $SG22273                   00000001400b4070     pjsip-ua-x86_64-x64-vc14-debug-dynamic:sip_timer.obj
 0003:0000b170       $SG22274                   00000001400b4170     pjsip-ua-x86_64-x64-vc14-debug-dynamic:sip_timer.obj
 0003:0000b178       $SG22290                   00000001400b4178     pjsip-ua-x86_64-x64-vc14-debug-dynamic:sip_timer.obj
 0003:0000b1b0       $SG22280                   00000001400b41b0     pjsip-ua-x86_64-x64-vc14-debug-dynamic:sip_timer.obj
 0003:0000b230       $SG22284                   00000001400b4230     pjsip-ua-x86_64-x64-vc14-debug-dynamic:sip_timer.obj
 0003:0000b330       $SG22285                   00000001400b4330     pjsip-ua-x86_64-x64-vc14-debug-dynamic:sip_timer.obj
 0003:0000b3b8       $SG22294                   00000001400b43b8     pjsip-ua-x86_64-x64-vc14-debug-dynamic:sip_timer.obj
 0003:0000b3cc       $SG22314                   00000001400b43cc     pjsip-ua-x86_64-x64-vc14-debug-dynamic:sip_timer.obj
 0003:0000b3d8       $SG22295                   00000001400b43d8     pjsip-ua-x86_64-x64-vc14-debug-dynamic:sip_timer.obj
 0003:0000b3e0       $SG22296                   00000001400b43e0     pjsip-ua-x86_64-x64-vc14-debug-dynamic:sip_timer.obj
 0003:0000b430       $SG22299                   00000001400b4430     pjsip-ua-x86_64-x64-vc14-debug-dynamic:sip_timer.obj
 0003:0000b440       $SG22300                   00000001400b4440     pjsip-ua-x86_64-x64-vc14-debug-dynamic:sip_timer.obj
 0003:0000b450       $SG22301                   00000001400b4450     pjsip-ua-x86_64-x64-vc14-debug-dynamic:sip_timer.obj
 0003:0000b470       $SG22315                   00000001400b4470     pjsip-ua-x86_64-x64-vc14-debug-dynamic:sip_timer.obj
 0003:0000b570       $SG22316                   00000001400b4570     pjsip-ua-x86_64-x64-vc14-debug-dynamic:sip_timer.obj
 0003:0000b5b0       $SG22322                   00000001400b45b0     pjsip-ua-x86_64-x64-vc14-debug-dynamic:sip_timer.obj
 0003:0000b630       $SG22323                   00000001400b4630     pjsip-ua-x86_64-x64-vc14-debug-dynamic:sip_timer.obj
 0003:0000b6b0       $SG22353                   00000001400b46b0     pjsip-ua-x86_64-x64-vc14-debug-dynamic:sip_timer.obj
 0003:0000b7b0       $SG22354                   00000001400b47b0     pjsip-ua-x86_64-x64-vc14-debug-dynamic:sip_timer.obj
 0003:0000b7c0       $SG22360                   00000001400b47c0     pjsip-ua-x86_64-x64-vc14-debug-dynamic:sip_timer.obj
 0003:0000b7f0       $SG22361                   00000001400b47f0     pjsip-ua-x86_64-x64-vc14-debug-dynamic:sip_timer.obj
 0003:0000b8f0       $SG22362                   00000001400b48f0     pjsip-ua-x86_64-x64-vc14-debug-dynamic:sip_timer.obj
 0003:0000b948       $SG22364                   00000001400b4948     pjsip-ua-x86_64-x64-vc14-debug-dynamic:sip_timer.obj
 0003:0000b978       $SG22365                   00000001400b4978     pjsip-ua-x86_64-x64-vc14-debug-dynamic:sip_timer.obj
 0003:0000b988       $SG22397                   00000001400b4988     pjsip-ua-x86_64-x64-vc14-debug-dynamic:sip_timer.obj
 0003:0000b9a8       $SG22400                   00000001400b49a8     pjsip-ua-x86_64-x64-vc14-debug-dynamic:sip_timer.obj
 0003:0000b9b0       $SG22396                   00000001400b49b0     pjsip-ua-x86_64-x64-vc14-debug-dynamic:sip_timer.obj
 0003:0000bab0       $SG22399                   00000001400b4ab0     pjsip-ua-x86_64-x64-vc14-debug-dynamic:sip_timer.obj
 0003:0000bbb0       $SG22406                   00000001400b4bb0     pjsip-ua-x86_64-x64-vc14-debug-dynamic:sip_timer.obj
 0003:0000bcb0       $SG22407                   00000001400b4cb0     pjsip-ua-x86_64-x64-vc14-debug-dynamic:sip_timer.obj
 0003:0000bce0       $SG22409                   00000001400b4ce0     pjsip-ua-x86_64-x64-vc14-debug-dynamic:sip_timer.obj
 0003:0000bde0       $SG22410                   00000001400b4de0     pjsip-ua-x86_64-x64-vc14-debug-dynamic:sip_timer.obj
 0003:0000be38       $SG22420                   00000001400b4e38     pjsip-ua-x86_64-x64-vc14-debug-dynamic:sip_timer.obj
 0003:0000be58       $SG22529                   00000001400b4e58     pjsip-ua-x86_64-x64-vc14-debug-dynamic:sip_timer.obj
 0003:0000be70       $SG22419                   00000001400b4e70     pjsip-ua-x86_64-x64-vc14-debug-dynamic:sip_timer.obj
 0003:0000bf70       $SG22429                   00000001400b4f70     pjsip-ua-x86_64-x64-vc14-debug-dynamic:sip_timer.obj
 0003:0000c070       $SG22430                   00000001400b5070     pjsip-ua-x86_64-x64-vc14-debug-dynamic:sip_timer.obj
 0003:0000c090       $SG22448                   00000001400b5090     pjsip-ua-x86_64-x64-vc14-debug-dynamic:sip_timer.obj
 0003:0000c190       $SG22449                   00000001400b5190     pjsip-ua-x86_64-x64-vc14-debug-dynamic:sip_timer.obj
 0003:0000c1b0       $SG22451                   00000001400b51b0     pjsip-ua-x86_64-x64-vc14-debug-dynamic:sip_timer.obj
 0003:0000c2b0       $SG22452                   00000001400b52b0     pjsip-ua-x86_64-x64-vc14-debug-dynamic:sip_timer.obj
 0003:0000c2d0       $SG22507                   00000001400b52d0     pjsip-ua-x86_64-x64-vc14-debug-dynamic:sip_timer.obj
 0003:0000c3d0       $SG22508                   00000001400b53d0     pjsip-ua-x86_64-x64-vc14-debug-dynamic:sip_timer.obj
 0003:0000c3f0       $SG22515                   00000001400b53f0     pjsip-ua-x86_64-x64-vc14-debug-dynamic:sip_timer.obj
 0003:0000c4f0       $SG22516                   00000001400b54f0     pjsip-ua-x86_64-x64-vc14-debug-dynamic:sip_timer.obj
 0003:0000c510       $SG22517                   00000001400b5510     pjsip-ua-x86_64-x64-vc14-debug-dynamic:sip_timer.obj
 0003:0000c610       $SG22518                   00000001400b5610     pjsip-ua-x86_64-x64-vc14-debug-dynamic:sip_timer.obj
 0003:0000c650       $SG22524                   00000001400b5650     pjsip-ua-x86_64-x64-vc14-debug-dynamic:sip_timer.obj
 0003:0000c6a0       $SG22528                   00000001400b56a0     pjsip-ua-x86_64-x64-vc14-debug-dynamic:sip_timer.obj
 0003:0000c7a0       $SG22531                   00000001400b57a0     pjsip-ua-x86_64-x64-vc14-debug-dynamic:sip_timer.obj
 0003:0000c8a0       $SG22532                   00000001400b58a0     pjsip-ua-x86_64-x64-vc14-debug-dynamic:sip_timer.obj
 0003:0000c8a8       $SG22593                   00000001400b58a8     pjsip-ua-x86_64-x64-vc14-debug-dynamic:sip_timer.obj
 0003:0000c8e0       $SG22548                   00000001400b58e0     pjsip-ua-x86_64-x64-vc14-debug-dynamic:sip_timer.obj
 0003:0000c968       $SG22597                   00000001400b5968     pjsip-ua-x86_64-x64-vc14-debug-dynamic:sip_timer.obj
 0003:0000c9a0       $SG22585                   00000001400b59a0     pjsip-ua-x86_64-x64-vc14-debug-dynamic:sip_timer.obj
 0003:0000caa0       $SG22586                   00000001400b5aa0     pjsip-ua-x86_64-x64-vc14-debug-dynamic:sip_timer.obj
 0003:0000cac0       $SG22588                   00000001400b5ac0     pjsip-ua-x86_64-x64-vc14-debug-dynamic:sip_timer.obj
 0003:0000cbc0       $SG22589                   00000001400b5bc0     pjsip-ua-x86_64-x64-vc14-debug-dynamic:sip_timer.obj
 0003:0000cbe0       $SG22598                   00000001400b5be0     pjsip-ua-x86_64-x64-vc14-debug-dynamic:sip_timer.obj
 0003:0000cc60       $SG22600                   00000001400b5c60     pjsip-ua-x86_64-x64-vc14-debug-dynamic:sip_timer.obj
 0003:0000cc78       $SG22645                   00000001400b5c78     pjsip-ua-x86_64-x64-vc14-debug-dynamic:sip_timer.obj
 0003:0000cc98       $SG22709                   00000001400b5c98     pjsip-ua-x86_64-x64-vc14-debug-dynamic:sip_timer.obj
 0003:0000cca8       $SG22723                   00000001400b5ca8     pjsip-ua-x86_64-x64-vc14-debug-dynamic:sip_timer.obj
 0003:0000ccb0       $SG22638                   00000001400b5cb0     pjsip-ua-x86_64-x64-vc14-debug-dynamic:sip_timer.obj
 0003:0000cdb0       $SG22639                   00000001400b5db0     pjsip-ua-x86_64-x64-vc14-debug-dynamic:sip_timer.obj
 0003:0000cdd0       $SG22644                   00000001400b5dd0     pjsip-ua-x86_64-x64-vc14-debug-dynamic:sip_timer.obj
 0003:0000ced0       $SG22646                   00000001400b5ed0     pjsip-ua-x86_64-x64-vc14-debug-dynamic:sip_timer.obj
 0003:0000cfd0       $SG22647                   00000001400b5fd0     pjsip-ua-x86_64-x64-vc14-debug-dynamic:sip_timer.obj
 0003:0000d010       $SG22695                   00000001400b6010     pjsip-ua-x86_64-x64-vc14-debug-dynamic:sip_timer.obj
 0003:0000d110       $SG22696                   00000001400b6110     pjsip-ua-x86_64-x64-vc14-debug-dynamic:sip_timer.obj
 0003:0000d130       $SG22699                   00000001400b6130     pjsip-ua-x86_64-x64-vc14-debug-dynamic:sip_timer.obj
 0003:0000d230       $SG22700                   00000001400b6230     pjsip-ua-x86_64-x64-vc14-debug-dynamic:sip_timer.obj
 0003:0000d250       $SG22708                   00000001400b6250     pjsip-ua-x86_64-x64-vc14-debug-dynamic:sip_timer.obj
 0003:0000d350       $SG22722                   00000001400b6350     pjsip-ua-x86_64-x64-vc14-debug-dynamic:sip_timer.obj
 0003:0000dba0       $SG16641                   00000001400b6ba0     pjsip-core-x86_64-x64-vc14-debug-dynamic:sip_msg.obj
 0003:0000dba8       $SG16642                   00000001400b6ba8     pjsip-core-x86_64-x64-vc14-debug-dynamic:sip_msg.obj
 0003:0000dbb0       $SG16643                   00000001400b6bb0     pjsip-core-x86_64-x64-vc14-debug-dynamic:sip_msg.obj
 0003:0000dbb4       $SG16644                   00000001400b6bb4     pjsip-core-x86_64-x64-vc14-debug-dynamic:sip_msg.obj
 0003:0000dbb8       $SG16645                   00000001400b6bb8     pjsip-core-x86_64-x64-vc14-debug-dynamic:sip_msg.obj
 0003:0000dbc4       $SG16695                   00000001400b6bc4     pjsip-core-x86_64-x64-vc14-debug-dynamic:sip_msg.obj
 0003:0000dbcc       $SG16703                   00000001400b6bcc     pjsip-core-x86_64-x64-vc14-debug-dynamic:sip_msg.obj
 0003:0000dbd0       $SG16646                   00000001400b6bd0     pjsip-core-x86_64-x64-vc14-debug-dynamic:sip_msg.obj
 0003:0000dbd8       $SG16696                   00000001400b6bd8     pjsip-core-x86_64-x64-vc14-debug-dynamic:sip_msg.obj
 0003:0000dbe8       $SG16697                   00000001400b6be8     pjsip-core-x86_64-x64-vc14-debug-dynamic:sip_msg.obj
 0003:0000dbf8       $SG16698                   00000001400b6bf8     pjsip-core-x86_64-x64-vc14-debug-dynamic:sip_msg.obj
 0003:0000dc04       $SG16699                   00000001400b6c04     pjsip-core-x86_64-x64-vc14-debug-dynamic:sip_msg.obj
 0003:0000dc0c       $SG16706                   00000001400b6c0c     pjsip-core-x86_64-x64-vc14-debug-dynamic:sip_msg.obj
 0003:0000dc10       $SG16700                   00000001400b6c10     pjsip-core-x86_64-x64-vc14-debug-dynamic:sip_msg.obj
 0003:0000dc24       $SG16709                   00000001400b6c24     pjsip-core-x86_64-x64-vc14-debug-dynamic:sip_msg.obj
 0003:0000dc28       $SG16701                   00000001400b6c28     pjsip-core-x86_64-x64-vc14-debug-dynamic:sip_msg.obj
 0003:0000dc38       $SG16702                   00000001400b6c38     pjsip-core-x86_64-x64-vc14-debug-dynamic:sip_msg.obj
 0003:0000dc40       $SG16704                   00000001400b6c40     pjsip-core-x86_64-x64-vc14-debug-dynamic:sip_msg.obj
 0003:0000dc4c       $SG16712                   00000001400b6c4c     pjsip-core-x86_64-x64-vc14-debug-dynamic:sip_msg.obj
 0003:0000dc50       $SG16705                   00000001400b6c50     pjsip-core-x86_64-x64-vc14-debug-dynamic:sip_msg.obj
 0003:0000dc58       $SG16707                   00000001400b6c58     pjsip-core-x86_64-x64-vc14-debug-dynamic:sip_msg.obj
 0003:0000dc6c       $SG16714                   00000001400b6c6c     pjsip-core-x86_64-x64-vc14-debug-dynamic:sip_msg.obj
 0003:0000dc70       $SG16708                   00000001400b6c70     pjsip-core-x86_64-x64-vc14-debug-dynamic:sip_msg.obj
 0003:0000dc84       $SG16720                   00000001400b6c84     pjsip-core-x86_64-x64-vc14-debug-dynamic:sip_msg.obj
 0003:0000dc88       $SG16710                   00000001400b6c88     pjsip-core-x86_64-x64-vc14-debug-dynamic:sip_msg.obj
 0003:0000dc9c       $SG16734                   00000001400b6c9c     pjsip-core-x86_64-x64-vc14-debug-dynamic:sip_msg.obj
 0003:0000dca4       $SG16735                   00000001400b6ca4     pjsip-core-x86_64-x64-vc14-debug-dynamic:sip_msg.obj
 0003:0000dcac       $SG16737                   00000001400b6cac     pjsip-core-x86_64-x64-vc14-debug-dynamic:sip_msg.obj
 0003:0000dcb0       $SG16711                   00000001400b6cb0     pjsip-core-x86_64-x64-vc14-debug-dynamic:sip_msg.obj
 0003:0000dcc0       $SG16713                   00000001400b6cc0     pjsip-core-x86_64-x64-vc14-debug-dynamic:sip_msg.obj
 0003:0000dcd0       $SG16715                   00000001400b6cd0     pjsip-core-x86_64-x64-vc14-debug-dynamic:sip_msg.obj
 0003:0000dcd8       $SG16716                   00000001400b6cd8     pjsip-core-x86_64-x64-vc14-debug-dynamic:sip_msg.obj
 0003:0000dce0       $SG16717                   00000001400b6ce0     pjsip-core-x86_64-x64-vc14-debug-dynamic:sip_msg.obj
 0003:0000dcec       $SG16739                   00000001400b6cec     pjsip-core-x86_64-x64-vc14-debug-dynamic:sip_msg.obj
 0003:0000dcf0       $SG16718                   00000001400b6cf0     pjsip-core-x86_64-x64-vc14-debug-dynamic:sip_msg.obj
 0003:0000dcf8       $SG16719                   00000001400b6cf8     pjsip-core-x86_64-x64-vc14-debug-dynamic:sip_msg.obj
 0003:0000dd00       $SG16721                   00000001400b6d00     pjsip-core-x86_64-x64-vc14-debug-dynamic:sip_msg.obj
 0003:0000dd0c       $SG16741                   00000001400b6d0c     pjsip-core-x86_64-x64-vc14-debug-dynamic:sip_msg.obj
 0003:0000dd10       $SG16722                   00000001400b6d10     pjsip-core-x86_64-x64-vc14-debug-dynamic:sip_msg.obj
 0003:0000dd20       $SG16723                   00000001400b6d20     pjsip-core-x86_64-x64-vc14-debug-dynamic:sip_msg.obj
 0003:0000dd30       $SG16724                   00000001400b6d30     pjsip-core-x86_64-x64-vc14-debug-dynamic:sip_msg.obj
 0003:0000dd3c       $SG16742                   00000001400b6d3c     pjsip-core-x86_64-x64-vc14-debug-dynamic:sip_msg.obj
 0003:0000dd40       $SG16725                   00000001400b6d40     pjsip-core-x86_64-x64-vc14-debug-dynamic:sip_msg.obj
 0003:0000dd50       $SG16726                   00000001400b6d50     pjsip-core-x86_64-x64-vc14-debug-dynamic:sip_msg.obj
 0003:0000dd5c       $SG16745                   00000001400b6d5c     pjsip-core-x86_64-x64-vc14-debug-dynamic:sip_msg.obj
 0003:0000dd60       $SG16727                   00000001400b6d60     pjsip-core-x86_64-x64-vc14-debug-dynamic:sip_msg.obj
 0003:0000dd74       $SG16746                   00000001400b6d74     pjsip-core-x86_64-x64-vc14-debug-dynamic:sip_msg.obj
 0003:0000dd78       $SG16728                   00000001400b6d78     pjsip-core-x86_64-x64-vc14-debug-dynamic:sip_msg.obj
 0003:0000dd90       $SG16729                   00000001400b6d90     pjsip-core-x86_64-x64-vc14-debug-dynamic:sip_msg.obj
 0003:0000dda0       $SG16730                   00000001400b6da0     pjsip-core-x86_64-x64-vc14-debug-dynamic:sip_msg.obj
 0003:0000ddb0       $SG16731                   00000001400b6db0     pjsip-core-x86_64-x64-vc14-debug-dynamic:sip_msg.obj
 0003:0000ddc0       $SG16732                   00000001400b6dc0     pjsip-core-x86_64-x64-vc14-debug-dynamic:sip_msg.obj
 0003:0000ddc8       $SG16733                   00000001400b6dc8     pjsip-core-x86_64-x64-vc14-debug-dynamic:sip_msg.obj
 0003:0000ddd8       $SG16736                   00000001400b6dd8     pjsip-core-x86_64-x64-vc14-debug-dynamic:sip_msg.obj
 0003:0000dde0       $SG16738                   00000001400b6de0     pjsip-core-x86_64-x64-vc14-debug-dynamic:sip_msg.obj
 0003:0000ddf0       $SG16740                   00000001400b6df0     pjsip-core-x86_64-x64-vc14-debug-dynamic:sip_msg.obj
 0003:0000de00       $SG16743                   00000001400b6e00     pjsip-core-x86_64-x64-vc14-debug-dynamic:sip_msg.obj
 0003:0000de10       $SG16744                   00000001400b6e10     pjsip-core-x86_64-x64-vc14-debug-dynamic:sip_msg.obj
 0003:0000de20       $SG16747                   00000001400b6e20     pjsip-core-x86_64-x64-vc14-debug-dynamic:sip_msg.obj
 0003:0000de28       $SG16748                   00000001400b6e28     pjsip-core-x86_64-x64-vc14-debug-dynamic:sip_msg.obj
 0003:0000de40       $SG16749                   00000001400b6e40     pjsip-core-x86_64-x64-vc14-debug-dynamic:sip_msg.obj
 0003:0000de50       method_names               00000001400b6e50     pjsip-core-x86_64-x64-vc14-debug-dynamic:sip_msg.obj
 0003:0000de80       $SG16766                   00000001400b6e80     pjsip-core-x86_64-x64-vc14-debug-dynamic:sip_msg.obj
 0003:0000de98       $SG16767                   00000001400b6e98     pjsip-core-x86_64-x64-vc14-debug-dynamic:sip_msg.obj
 0003:0000dea0       $SG16768                   00000001400b6ea0     pjsip-core-x86_64-x64-vc14-debug-dynamic:sip_msg.obj
 0003:0000dea8       $SG16769                   00000001400b6ea8     pjsip-core-x86_64-x64-vc14-debug-dynamic:sip_msg.obj
 0003:0000dec0       $SG16770                   00000001400b6ec0     pjsip-core-x86_64-x64-vc14-debug-dynamic:sip_msg.obj
 0003:0000dec8       $SG16771                   00000001400b6ec8     pjsip-core-x86_64-x64-vc14-debug-dynamic:sip_msg.obj
 0003:0000dedc       $SG16772                   00000001400b6edc     pjsip-core-x86_64-x64-vc14-debug-dynamic:sip_msg.obj
 0003:0000dee0       $SG16773                   00000001400b6ee0     pjsip-core-x86_64-x64-vc14-debug-dynamic:sip_msg.obj
 0003:0000deec       $SG16996                   00000001400b6eec     pjsip-core-x86_64-x64-vc14-debug-dynamic:sip_msg.obj
 0003:0000def0       $SG16774                   00000001400b6ef0     pjsip-core-x86_64-x64-vc14-debug-dynamic:sip_msg.obj
 0003:0000df04       $SG17017                   00000001400b6f04     pjsip-core-x86_64-x64-vc14-debug-dynamic:sip_msg.obj
 0003:0000df08       $SG16775                   00000001400b6f08     pjsip-core-x86_64-x64-vc14-debug-dynamic:sip_msg.obj
 0003:0000df1c       $SG17347                   00000001400b6f1c     pjsip-core-x86_64-x64-vc14-debug-dynamic:sip_msg.obj
 0003:0000df20       $SG16776                   00000001400b6f20     pjsip-core-x86_64-x64-vc14-debug-dynamic:sip_msg.obj
 0003:0000df34       $SG17590                   00000001400b6f34     pjsip-core-x86_64-x64-vc14-debug-dynamic:sip_msg.obj
 0003:0000df38       $SG16777                   00000001400b6f38     pjsip-core-x86_64-x64-vc14-debug-dynamic:sip_msg.obj
 0003:0000df44       $SG17912                   00000001400b6f44     pjsip-core-x86_64-x64-vc14-debug-dynamic:sip_msg.obj
 0003:0000df48       $SG16778                   00000001400b6f48     pjsip-core-x86_64-x64-vc14-debug-dynamic:sip_msg.obj
 0003:0000df60       $SG16779                   00000001400b6f60     pjsip-core-x86_64-x64-vc14-debug-dynamic:sip_msg.obj
 0003:0000df70       $SG16780                   00000001400b6f70     pjsip-core-x86_64-x64-vc14-debug-dynamic:sip_msg.obj
 0003:0000df80       $SG16781                   00000001400b6f80     pjsip-core-x86_64-x64-vc14-debug-dynamic:sip_msg.obj
 0003:0000df98       $SG16782                   00000001400b6f98     pjsip-core-x86_64-x64-vc14-debug-dynamic:sip_msg.obj
 0003:0000dfa8       $SG16783                   00000001400b6fa8     pjsip-core-x86_64-x64-vc14-debug-dynamic:sip_msg.obj
 0003:0000dfb8       $SG16784                   00000001400b6fb8     pjsip-core-x86_64-x64-vc14-debug-dynamic:sip_msg.obj
 0003:0000dfd0       $SG16785                   00000001400b6fd0     pjsip-core-x86_64-x64-vc14-debug-dynamic:sip_msg.obj
 0003:0000dfe0       $SG16786                   00000001400b6fe0     pjsip-core-x86_64-x64-vc14-debug-dynamic:sip_msg.obj
 0003:0000e000       $SG16787                   00000001400b7000     pjsip-core-x86_64-x64-vc14-debug-dynamic:sip_msg.obj
 0003:0000e010       $SG16788                   00000001400b7010     pjsip-core-x86_64-x64-vc14-debug-dynamic:sip_msg.obj
 0003:0000e018       $SG16789                   00000001400b7018     pjsip-core-x86_64-x64-vc14-debug-dynamic:sip_msg.obj
 0003:0000e038       $SG16790                   00000001400b7038     pjsip-core-x86_64-x64-vc14-debug-dynamic:sip_msg.obj
 0003:0000e050       $SG16791                   00000001400b7050     pjsip-core-x86_64-x64-vc14-debug-dynamic:sip_msg.obj
 0003:0000e068       $SG16792                   00000001400b7068     pjsip-core-x86_64-x64-vc14-debug-dynamic:sip_msg.obj
 0003:0000e080       $SG16793                   00000001400b7080     pjsip-core-x86_64-x64-vc14-debug-dynamic:sip_msg.obj
 0003:0000e090       $SG16794                   00000001400b7090     pjsip-core-x86_64-x64-vc14-debug-dynamic:sip_msg.obj
 0003:0000e0a8       $SG16795                   00000001400b70a8     pjsip-core-x86_64-x64-vc14-debug-dynamic:sip_msg.obj
 0003:0000e0c0       $SG16796                   00000001400b70c0     pjsip-core-x86_64-x64-vc14-debug-dynamic:sip_msg.obj
 0003:0000e0d8       $SG16797                   00000001400b70d8     pjsip-core-x86_64-x64-vc14-debug-dynamic:sip_msg.obj
 0003:0000e0f0       $SG16798                   00000001400b70f0     pjsip-core-x86_64-x64-vc14-debug-dynamic:sip_msg.obj
 0003:0000e110       $SG16799                   00000001400b7110     pjsip-core-x86_64-x64-vc14-debug-dynamic:sip_msg.obj
 0003:0000e120       $SG16800                   00000001400b7120     pjsip-core-x86_64-x64-vc14-debug-dynamic:sip_msg.obj
 0003:0000e130       $SG16801                   00000001400b7130     pjsip-core-x86_64-x64-vc14-debug-dynamic:sip_msg.obj
 0003:0000e148       $SG16802                   00000001400b7148     pjsip-core-x86_64-x64-vc14-debug-dynamic:sip_msg.obj
 0003:0000e158       $SG16803                   00000001400b7158     pjsip-core-x86_64-x64-vc14-debug-dynamic:sip_msg.obj
 0003:0000e168       $SG16804                   00000001400b7168     pjsip-core-x86_64-x64-vc14-debug-dynamic:sip_msg.obj
 0003:0000e180       $SG16805                   00000001400b7180     pjsip-core-x86_64-x64-vc14-debug-dynamic:sip_msg.obj
 0003:0000e198       $SG16806                   00000001400b7198     pjsip-core-x86_64-x64-vc14-debug-dynamic:sip_msg.obj
 0003:0000e1a8       $SG16807                   00000001400b71a8     pjsip-core-x86_64-x64-vc14-debug-dynamic:sip_msg.obj
 0003:0000e1b8       $SG16808                   00000001400b71b8     pjsip-core-x86_64-x64-vc14-debug-dynamic:sip_msg.obj
 0003:0000e1c8       $SG16809                   00000001400b71c8     pjsip-core-x86_64-x64-vc14-debug-dynamic:sip_msg.obj
 0003:0000e1d8       $SG16810                   00000001400b71d8     pjsip-core-x86_64-x64-vc14-debug-dynamic:sip_msg.obj
 0003:0000e1f0       $SG16811                   00000001400b71f0     pjsip-core-x86_64-x64-vc14-debug-dynamic:sip_msg.obj
 0003:0000e200       $SG16812                   00000001400b7200     pjsip-core-x86_64-x64-vc14-debug-dynamic:sip_msg.obj
 0003:0000e210       $SG16813                   00000001400b7210     pjsip-core-x86_64-x64-vc14-debug-dynamic:sip_msg.obj
 0003:0000e228       $SG16814                   00000001400b7228     pjsip-core-x86_64-x64-vc14-debug-dynamic:sip_msg.obj
 0003:0000e238       $SG16815                   00000001400b7238     pjsip-core-x86_64-x64-vc14-debug-dynamic:sip_msg.obj
 0003:0000e250       $SG16816                   00000001400b7250     pjsip-core-x86_64-x64-vc14-debug-dynamic:sip_msg.obj
 0003:0000e268       $SG16817                   00000001400b7268     pjsip-core-x86_64-x64-vc14-debug-dynamic:sip_msg.obj
 0003:0000e280       $SG16818                   00000001400b7280     pjsip-core-x86_64-x64-vc14-debug-dynamic:sip_msg.obj
 0003:0000e290       $SG16819                   00000001400b7290     pjsip-core-x86_64-x64-vc14-debug-dynamic:sip_msg.obj
 0003:0000e298       $SG16820                   00000001400b7298     pjsip-core-x86_64-x64-vc14-debug-dynamic:sip_msg.obj
 0003:0000e2b0       $SG16821                   00000001400b72b0     pjsip-core-x86_64-x64-vc14-debug-dynamic:sip_msg.obj
 0003:0000e2c0       $SG16822                   00000001400b72c0     pjsip-core-x86_64-x64-vc14-debug-dynamic:sip_msg.obj
 0003:0000e2e8       $SG16823                   00000001400b72e8     pjsip-core-x86_64-x64-vc14-debug-dynamic:sip_msg.obj
 0003:0000e310       $SG16824                   00000001400b7310     pjsip-core-x86_64-x64-vc14-debug-dynamic:sip_msg.obj
 0003:0000e340       $SG16840                   00000001400b7340     pjsip-core-x86_64-x64-vc14-debug-dynamic:sip_msg.obj
 0003:0000e438       $SG16841                   00000001400b7438     pjsip-core-x86_64-x64-vc14-debug-dynamic:sip_msg.obj
 0003:0000e468       $SG16994                   00000001400b7468     pjsip-core-x86_64-x64-vc14-debug-dynamic:sip_msg.obj
 0003:0000e480       $SG17002                   00000001400b7480     pjsip-core-x86_64-x64-vc14-debug-dynamic:sip_msg.obj
 0003:0000e490       $SG17003                   00000001400b7490     pjsip-core-x86_64-x64-vc14-debug-dynamic:sip_msg.obj
 0003:0000e4a0       $SG17007                   00000001400b74a0     pjsip-core-x86_64-x64-vc14-debug-dynamic:sip_msg.obj
 0003:0000e4d8       $SG17008                   00000001400b74d8     pjsip-core-x86_64-x64-vc14-debug-dynamic:sip_msg.obj
 0003:0000e4e0       $SG17015                   00000001400b74e0     pjsip-core-x86_64-x64-vc14-debug-dynamic:sip_msg.obj
 0003:0000e4f0       $SG17053                   00000001400b74f0     pjsip-core-x86_64-x64-vc14-debug-dynamic:sip_msg.obj
 0003:0000e5e8       $SG17054                   00000001400b75e8     pjsip-core-x86_64-x64-vc14-debug-dynamic:sip_msg.obj
 0003:0000e600       $SG17101                   00000001400b7600     pjsip-core-x86_64-x64-vc14-debug-dynamic:sip_msg.obj
 0003:0000e6f8       $SG17102                   00000001400b76f8     pjsip-core-x86_64-x64-vc14-debug-dynamic:sip_msg.obj
 0003:0000e710       $SG17118                   00000001400b7710     pjsip-core-x86_64-x64-vc14-debug-dynamic:sip_msg.obj
 0003:0000e808       $SG17119                   00000001400b7808     pjsip-core-x86_64-x64-vc14-debug-dynamic:sip_msg.obj
 0003:0000e830       generic_hdr_vptr           00000001400b7830     pjsip-core-x86_64-x64-vc14-debug-dynamic:sip_msg.obj
 0003:0000e848       generic_int_hdr_vptr       00000001400b7848     pjsip-core-x86_64-x64-vc14-debug-dynamic:sip_msg.obj
 0003:0000e860       generic_array_hdr_vptr     00000001400b7860     pjsip-core-x86_64-x64-vc14-debug-dynamic:sip_msg.obj
 0003:0000e878       clen_hdr_vptr              00000001400b7878     pjsip-core-x86_64-x64-vc14-debug-dynamic:sip_msg.obj
 0003:0000e890       cseq_hdr_vptr              00000001400b7890     pjsip-core-x86_64-x64-vc14-debug-dynamic:sip_msg.obj
 0003:0000e8a8       contact_hdr_vptr           00000001400b78a8     pjsip-core-x86_64-x64-vc14-debug-dynamic:sip_msg.obj
 0003:0000e8c0       $SG17596                   00000001400b78c0     pjsip-core-x86_64-x64-vc14-debug-dynamic:sip_msg.obj
 0003:0000e8d0       ctype_hdr_vptr             00000001400b78d0     pjsip-core-x86_64-x64-vc14-debug-dynamic:sip_msg.obj
 0003:0000e8e8       fromto_hdr_vptr            00000001400b78e8     pjsip-core-x86_64-x64-vc14-debug-dynamic:sip_msg.obj
 0003:0000e900       $SG17781                   00000001400b7900     pjsip-core-x86_64-x64-vc14-debug-dynamic:sip_msg.obj
 0003:0000e908       routing_hdr_vptr           00000001400b7908     pjsip-core-x86_64-x64-vc14-debug-dynamic:sip_msg.obj
 0003:0000e920       $SG17911                   00000001400b7920     pjsip-core-x86_64-x64-vc14-debug-dynamic:sip_msg.obj
 0003:0000e928       $SG17914                   00000001400b7928     pjsip-core-x86_64-x64-vc14-debug-dynamic:sip_msg.obj
 0003:0000e930       $SG17916                   00000001400b7930     pjsip-core-x86_64-x64-vc14-debug-dynamic:sip_msg.obj
 0003:0000ea28       $SG17917                   00000001400b7a28     pjsip-core-x86_64-x64-vc14-debug-dynamic:sip_msg.obj
 0003:0000ea58       retry_after_hdr_vptr       00000001400b7a58     pjsip-core-x86_64-x64-vc14-debug-dynamic:sip_msg.obj
 0003:0000ea70       via_hdr_vptr               00000001400b7a70     pjsip-core-x86_64-x64-vc14-debug-dynamic:sip_msg.obj
 0003:0000ea88       $SG18148                   00000001400b7a88     pjsip-core-x86_64-x64-vc14-debug-dynamic:sip_msg.obj
 0003:0000ea94       $SG18166                   00000001400b7a94     pjsip-core-x86_64-x64-vc14-debug-dynamic:sip_msg.obj
 0003:0000ea9c       $SG18169                   00000001400b7a9c     pjsip-core-x86_64-x64-vc14-debug-dynamic:sip_msg.obj
 0003:0000eaa8       $SG18177                   00000001400b7aa8     pjsip-core-x86_64-x64-vc14-debug-dynamic:sip_msg.obj
 0003:0000eab0       $SG18180                   00000001400b7ab0     pjsip-core-x86_64-x64-vc14-debug-dynamic:sip_msg.obj
 0003:0000eab8       $SG18183                   00000001400b7ab8     pjsip-core-x86_64-x64-vc14-debug-dynamic:sip_msg.obj
 0003:0000eac0       $SG18186                   00000001400b7ac0     pjsip-core-x86_64-x64-vc14-debug-dynamic:sip_msg.obj
 0003:0000ead0       $SG18189                   00000001400b7ad0     pjsip-core-x86_64-x64-vc14-debug-dynamic:sip_msg.obj
 0003:0000eae0       $SG18221                   00000001400b7ae0     pjsip-core-x86_64-x64-vc14-debug-dynamic:sip_msg.obj
 0003:0000eae8       $SG18222                   00000001400b7ae8     pjsip-core-x86_64-x64-vc14-debug-dynamic:sip_msg.obj
 0003:0000eaf8       $SG18286                   00000001400b7af8     pjsip-core-x86_64-x64-vc14-debug-dynamic:sip_msg.obj
 0003:0000eb10       $SG18266                   00000001400b7b10     pjsip-core-x86_64-x64-vc14-debug-dynamic:sip_msg.obj
 0003:0000ec08       $SG18320                   00000001400b7c08     pjsip-core-x86_64-x64-vc14-debug-dynamic:sip_msg.obj
 0003:0000ec30       $SG18267                   00000001400b7c30     pjsip-core-x86_64-x64-vc14-debug-dynamic:sip_msg.obj
 0003:0000ec80       $SG18285                   00000001400b7c80     pjsip-core-x86_64-x64-vc14-debug-dynamic:sip_msg.obj
 0003:0000ed80       $SG18316                   00000001400b7d80     pjsip-core-x86_64-x64-vc14-debug-dynamic:sip_msg.obj
 0003:0000ee80       $SG18317                   00000001400b7e80     pjsip-core-x86_64-x64-vc14-debug-dynamic:sip_msg.obj
 0003:0000eec0       $SG18319                   00000001400b7ec0     pjsip-core-x86_64-x64-vc14-debug-dynamic:sip_msg.obj
 0003:0000f3c0       $SG18880                   00000001400b83c0     pjsip-core-x86_64-x64-vc14-debug-dynamic:sip_transport.obj
 0003:0000f3d0       $SG18922                   00000001400b83d0     pjsip-core-x86_64-x64-vc14-debug-dynamic:sip_transport.obj
 0003:0000f3dc       $SG18924                   00000001400b83dc     pjsip-core-x86_64-x64-vc14-debug-dynamic:sip_transport.obj
 0003:0000f3e0       $SG18923                   00000001400b83e0     pjsip-core-x86_64-x64-vc14-debug-dynamic:sip_transport.obj
 0003:0000f3ec       $SG18926                   00000001400b83ec     pjsip-core-x86_64-x64-vc14-debug-dynamic:sip_transport.obj
 0003:0000f3f0       $SG18925                   00000001400b83f0     pjsip-core-x86_64-x64-vc14-debug-dynamic:sip_transport.obj
 0003:0000f400       $SG18927                   00000001400b8400     pjsip-core-x86_64-x64-vc14-debug-dynamic:sip_transport.obj
 0003:0000f410       $SG18928                   00000001400b8410     pjsip-core-x86_64-x64-vc14-debug-dynamic:sip_transport.obj
 0003:0000f414       $SG18938                   00000001400b8414     pjsip-core-x86_64-x64-vc14-debug-dynamic:sip_transport.obj
 0003:0000f418       $SG18929                   00000001400b8418     pjsip-core-x86_64-x64-vc14-debug-dynamic:sip_transport.obj
 0003:0000f428       $SG18930                   00000001400b8428     pjsip-core-x86_64-x64-vc14-debug-dynamic:sip_transport.obj
 0003:0000f430       $SG18931                   00000001400b8430     pjsip-core-x86_64-x64-vc14-debug-dynamic:sip_transport.obj
 0003:0000f440       $SG18932                   00000001400b8440     pjsip-core-x86_64-x64-vc14-debug-dynamic:sip_transport.obj
 0003:0000f448       $SG18933                   00000001400b8448     pjsip-core-x86_64-x64-vc14-debug-dynamic:sip_transport.obj
 0003:0000f458       $SG18934                   00000001400b8458     pjsip-core-x86_64-x64-vc14-debug-dynamic:sip_transport.obj
 0003:0000f460       $SG18935                   00000001400b8460     pjsip-core-x86_64-x64-vc14-debug-dynamic:sip_transport.obj
 0003:0000f474       $SG18940                   00000001400b8474     pjsip-core-x86_64-x64-vc14-debug-dynamic:sip_transport.obj
 0003:0000f478       $SG18936                   00000001400b8478     pjsip-core-x86_64-x64-vc14-debug-dynamic:sip_transport.obj
 0003:0000f484       $SG18942                   00000001400b8484     pjsip-core-x86_64-x64-vc14-debug-dynamic:sip_transport.obj
 0003:0000f488       $SG18937                   00000001400b8488     pjsip-core-x86_64-x64-vc14-debug-dynamic:sip_transport.obj
 0003:0000f4a8       $SG18939                   00000001400b84a8     pjsip-core-x86_64-x64-vc14-debug-dynamic:sip_transport.obj
 0003:0000f4c0       $SG18941                   00000001400b84c0     pjsip-core-x86_64-x64-vc14-debug-dynamic:sip_transport.obj
 0003:0000f4d8       $SG18943                   00000001400b84d8     pjsip-core-x86_64-x64-vc14-debug-dynamic:sip_transport.obj
 0003:0000f4ec       $SG18944                   00000001400b84ec     pjsip-core-x86_64-x64-vc14-debug-dynamic:sip_transport.obj
 0003:0000f4f8       $SG18945                   00000001400b84f8     pjsip-core-x86_64-x64-vc14-debug-dynamic:sip_transport.obj
 0003:0000f50c       $SG19254                   00000001400b850c     pjsip-core-x86_64-x64-vc14-debug-dynamic:sip_transport.obj
 0003:0000f510       mod_msg_print              00000001400b8510     pjsip-core-x86_64-x64-vc14-debug-dynamic:sip_transport.obj
 0003:0000f580       transport_names            00000001400b8580     pjsip-core-x86_64-x64-vc14-debug-dynamic:sip_transport.obj
 0003:0000f900       $SG18965                   00000001400b8900     pjsip-core-x86_64-x64-vc14-debug-dynamic:sip_transport.obj
 0003:0000f918       $SG18967                   00000001400b8918     pjsip-core-x86_64-x64-vc14-debug-dynamic:sip_transport.obj
 0003:0000f950       $SG18966                   00000001400b8950     pjsip-core-x86_64-x64-vc14-debug-dynamic:sip_transport.obj
 0003:0000fa58       $SG18997                   00000001400b8a58     pjsip-core-x86_64-x64-vc14-debug-dynamic:sip_transport.obj
 0003:0000fa98       $SG19018                   00000001400b8a98     pjsip-core-x86_64-x64-vc14-debug-dynamic:sip_transport.obj
 0003:0000fab0       $SG18996                   00000001400b8ab0     pjsip-core-x86_64-x64-vc14-debug-dynamic:sip_transport.obj
 0003:0000fbb8       $SG19020                   00000001400b8bb8     pjsip-core-x86_64-x64-vc14-debug-dynamic:sip_transport.obj
 0003:0000fbf0       $SG18999                   00000001400b8bf0     pjsip-core-x86_64-x64-vc14-debug-dynamic:sip_transport.obj
 0003:0000fcf8       $SG19031                   00000001400b8cf8     pjsip-core-x86_64-x64-vc14-debug-dynamic:sip_transport.obj
 0003:0000fd10       $SG19000                   00000001400b8d10     pjsip-core-x86_64-x64-vc14-debug-dynamic:sip_transport.obj
 0003:0000fdd0       $SG19019                   00000001400b8dd0     pjsip-core-x86_64-x64-vc14-debug-dynamic:sip_transport.obj
 0003:0000fed8       $SG19033                   00000001400b8ed8     pjsip-core-x86_64-x64-vc14-debug-dynamic:sip_transport.obj
 0003:0000ff10       $SG19032                   00000001400b8f10     pjsip-core-x86_64-x64-vc14-debug-dynamic:sip_transport.obj
 0003:00010018       $SG19085                   00000001400b9018     pjsip-core-x86_64-x64-vc14-debug-dynamic:sip_transport.obj
 0003:00010038       $SG19086                   00000001400b9038     pjsip-core-x86_64-x64-vc14-debug-dynamic:sip_transport.obj
 0003:00010040       $SG19084                   00000001400b9040     pjsip-core-x86_64-x64-vc14-debug-dynamic:sip_transport.obj
 0003:00010144       $SG19088                   00000001400b9144     pjsip-core-x86_64-x64-vc14-debug-dynamic:sip_transport.obj
 0003:0001014c       $SG19090                   00000001400b914c     pjsip-core-x86_64-x64-vc14-debug-dynamic:sip_transport.obj
 0003:00010154       $SG19430                   00000001400b9154     pjsip-core-x86_64-x64-vc14-debug-dynamic:sip_transport.obj
 0003:00010158       $SG19103                   00000001400b9158     pjsip-core-x86_64-x64-vc14-debug-dynamic:sip_transport.obj
 0003:00010170       $SG19117                   00000001400b9170     pjsip-core-x86_64-x64-vc14-debug-dynamic:sip_transport.obj
 0003:00010274       $SG19692                   00000001400b9274     pjsip-core-x86_64-x64-vc14-debug-dynamic:sip_transport.obj
 0003:0001027c       $SG20095                   00000001400b927c     pjsip-core-x86_64-x64-vc14-debug-dynamic:sip_transport.obj
 0003:00010280       $SG19118                   00000001400b9280     pjsip-core-x86_64-x64-vc14-debug-dynamic:sip_transport.obj
 0003:000102b0       $SG19119                   00000001400b92b0     pjsip-core-x86_64-x64-vc14-debug-dynamic:sip_transport.obj
 0003:000103b8       $SG19120                   00000001400b93b8     pjsip-core-x86_64-x64-vc14-debug-dynamic:sip_transport.obj
 0003:000103d8       $SG19145                   00000001400b93d8     pjsip-core-x86_64-x64-vc14-debug-dynamic:sip_transport.obj
 0003:000103f0       $SG19144                   00000001400b93f0     pjsip-core-x86_64-x64-vc14-debug-dynamic:sip_transport.obj
 0003:000104f8       $SG19177                   00000001400b94f8     pjsip-core-x86_64-x64-vc14-debug-dynamic:sip_transport.obj
 0003:00010520       $SG19176                   00000001400b9520     pjsip-core-x86_64-x64-vc14-debug-dynamic:sip_transport.obj
 0003:00010628       $SG19178                   00000001400b9628     pjsip-core-x86_64-x64-vc14-debug-dynamic:sip_transport.obj
 0003:00010638       $SG19181                   00000001400b9638     pjsip-core-x86_64-x64-vc14-debug-dynamic:sip_transport.obj
 0003:00010658       $SG19182                   00000001400b9658     pjsip-core-x86_64-x64-vc14-debug-dynamic:sip_transport.obj
 0003:00010680       $SG19195                   00000001400b9680     pjsip-core-x86_64-x64-vc14-debug-dynamic:sip_transport.obj
 0003:00010788       $SG19196                   00000001400b9788     pjsip-core-x86_64-x64-vc14-debug-dynamic:sip_transport.obj
 0003:00010794       $SG19197                   00000001400b9794     pjsip-core-x86_64-x64-vc14-debug-dynamic:sip_transport.obj
 0003:0001079c       $SG19200                   00000001400b979c     pjsip-core-x86_64-x64-vc14-debug-dynamic:sip_transport.obj
 0003:000107a8       $SG19214                   00000001400b97a8     pjsip-core-x86_64-x64-vc14-debug-dynamic:sip_transport.obj
 0003:000107c8       $SG19237                   00000001400b97c8     pjsip-core-x86_64-x64-vc14-debug-dynamic:sip_transport.obj
 0003:000107e0       $SG19213                   00000001400b97e0     pjsip-core-x86_64-x64-vc14-debug-dynamic:sip_transport.obj
 0003:000108e8       $SG19238                   00000001400b98e8     pjsip-core-x86_64-x64-vc14-debug-dynamic:sip_transport.obj
 0003:000108f8       $SG19250                   00000001400b98f8     pjsip-core-x86_64-x64-vc14-debug-dynamic:sip_transport.obj
 0003:00010920       $SG19249                   00000001400b9920     pjsip-core-x86_64-x64-vc14-debug-dynamic:sip_transport.obj
 0003:00010a28       $SG19251                   00000001400b9a28     pjsip-core-x86_64-x64-vc14-debug-dynamic:sip_transport.obj
 0003:00010a34       $SG19253                   00000001400b9a34     pjsip-core-x86_64-x64-vc14-debug-dynamic:sip_transport.obj
 0003:00010a40       $SG19294                   00000001400b9a40     pjsip-core-x86_64-x64-vc14-debug-dynamic:sip_transport.obj
 0003:00010b48       $SG19295                   00000001400b9b48     pjsip-core-x86_64-x64-vc14-debug-dynamic:sip_transport.obj
 0003:00010b80       $SG19296                   00000001400b9b80     pjsip-core-x86_64-x64-vc14-debug-dynamic:sip_transport.obj
 0003:00010b88       $SG19378                   00000001400b9b88     pjsip-core-x86_64-x64-vc14-debug-dynamic:sip_transport.obj
 0003:00010bb0       $SG19332                   00000001400b9bb0     pjsip-core-x86_64-x64-vc14-debug-dynamic:sip_transport.obj
 0003:00010cb8       $SG19333                   00000001400b9cb8     pjsip-core-x86_64-x64-vc14-debug-dynamic:sip_transport.obj
 0003:00010cc4       $SG19689                   00000001400b9cc4     pjsip-core-x86_64-x64-vc14-debug-dynamic:sip_transport.obj
 0003:00010cd0       $SG19377                   00000001400b9cd0     pjsip-core-x86_64-x64-vc14-debug-dynamic:sip_transport.obj
 0003:00010dd8       $SG19380                   00000001400b9dd8     pjsip-core-x86_64-x64-vc14-debug-dynamic:sip_transport.obj
 0003:00010df0       $SG19381                   00000001400b9df0     pjsip-core-x86_64-x64-vc14-debug-dynamic:sip_transport.obj
 0003:00010ef8       $SG19382                   00000001400b9ef8     pjsip-core-x86_64-x64-vc14-debug-dynamic:sip_transport.obj
 0003:00010f30       $SG19384                   00000001400b9f30     pjsip-core-x86_64-x64-vc14-debug-dynamic:sip_transport.obj
 0003:00010f58       $SG19385                   00000001400b9f58     pjsip-core-x86_64-x64-vc14-debug-dynamic:sip_transport.obj
 0003:00010f68       $SG19448                   00000001400b9f68     pjsip-core-x86_64-x64-vc14-debug-dynamic:sip_transport.obj
 0003:00010f90       $SG19447                   00000001400b9f90     pjsip-core-x86_64-x64-vc14-debug-dynamic:sip_transport.obj
 0003:00011098       $SG19485                   00000001400ba098     pjsip-core-x86_64-x64-vc14-debug-dynamic:sip_transport.obj
 0003:000110c0       $SG19484                   00000001400ba0c0     pjsip-core-x86_64-x64-vc14-debug-dynamic:sip_transport.obj
 0003:000111c8       $SG19508                   00000001400ba1c8     pjsip-core-x86_64-x64-vc14-debug-dynamic:sip_transport.obj
 0003:000111f0       $SG19507                   00000001400ba1f0     pjsip-core-x86_64-x64-vc14-debug-dynamic:sip_transport.obj
 0003:000112f8       $SG19510                   00000001400ba2f8     pjsip-core-x86_64-x64-vc14-debug-dynamic:sip_transport.obj
 0003:00011338       $SG19574                   00000001400ba338     pjsip-core-x86_64-x64-vc14-debug-dynamic:sip_transport.obj
 0003:00011370       $SG19509                   00000001400ba370     pjsip-core-x86_64-x64-vc14-debug-dynamic:sip_transport.obj
 0003:00011478       $SG19575                   00000001400ba478     pjsip-core-x86_64-x64-vc14-debug-dynamic:sip_transport.obj
 0003:00011488       $SG19596                   00000001400ba488     pjsip-core-x86_64-x64-vc14-debug-dynamic:sip_transport.obj
 0003:000114b0       $SG19516                   00000001400ba4b0     pjsip-core-x86_64-x64-vc14-debug-dynamic:sip_transport.obj
 0003:00011538       $SG19578                   00000001400ba538     pjsip-core-x86_64-x64-vc14-debug-dynamic:sip_transport.obj
 0003:00011548       $SG19850                   00000001400ba548     pjsip-core-x86_64-x64-vc14-debug-dynamic:sip_transport.obj
 0003:00011570       $SG19577                   00000001400ba570     pjsip-core-x86_64-x64-vc14-debug-dynamic:sip_transport.obj
 0003:000115b8       $SG19597                   00000001400ba5b8     pjsip-core-x86_64-x64-vc14-debug-dynamic:sip_transport.obj
 0003:000115c8       $SG20033                   00000001400ba5c8     pjsip-core-x86_64-x64-vc14-debug-dynamic:sip_transport.obj
 0003:00011600       $SG19614                   00000001400ba600     pjsip-core-x86_64-x64-vc14-debug-dynamic:sip_transport.obj
 0003:00011708       $SG19697                   00000001400ba708     pjsip-core-x86_64-x64-vc14-debug-dynamic:sip_transport.obj
 0003:00011728       $SG19698                   00000001400ba728     pjsip-core-x86_64-x64-vc14-debug-dynamic:sip_transport.obj
 0003:00011738       $SG20079                   00000001400ba738     pjsip-core-x86_64-x64-vc14-debug-dynamic:sip_transport.obj
 0003:00011760       $SG19615                   00000001400ba760     pjsip-core-x86_64-x64-vc14-debug-dynamic:sip_transport.obj
 0003:000117a0       $SG19636                   00000001400ba7a0     pjsip-core-x86_64-x64-vc14-debug-dynamic:sip_transport.obj
 0003:000118a8       $SG19719                   00000001400ba8a8     pjsip-core-x86_64-x64-vc14-debug-dynamic:sip_transport.obj
 0003:000118b8       $SG20082                   00000001400ba8b8     pjsip-core-x86_64-x64-vc14-debug-dynamic:sip_transport.obj
 0003:000118d0       $SG19637                   00000001400ba8d0     pjsip-core-x86_64-x64-vc14-debug-dynamic:sip_transport.obj
 0003:00011940       $SG19686                   00000001400ba940     pjsip-core-x86_64-x64-vc14-debug-dynamic:sip_transport.obj
 0003:00011a48       $SG19786                   00000001400baa48     pjsip-core-x86_64-x64-vc14-debug-dynamic:sip_transport.obj
 0003:00011a78       $SG19787                   00000001400baa78     pjsip-core-x86_64-x64-vc14-debug-dynamic:sip_transport.obj
 0003:00011a88       $SG20089                   00000001400baa88     pjsip-core-x86_64-x64-vc14-debug-dynamic:sip_transport.obj
 0003:00011aa0       $SG19687                   00000001400baaa0     pjsip-core-x86_64-x64-vc14-debug-dynamic:sip_transport.obj
 0003:00011ae0       $SG19718                   00000001400baae0     pjsip-core-x86_64-x64-vc14-debug-dynamic:sip_transport.obj
 0003:00011b30       $SG19760                   00000001400bab30     pjsip-core-x86_64-x64-vc14-debug-dynamic:sip_transport.obj
 0003:00011c38       $SG19761                   00000001400bac38     pjsip-core-x86_64-x64-vc14-debug-dynamic:sip_transport.obj
 0003:00011c68       $SG19842                   00000001400bac68     pjsip-core-x86_64-x64-vc14-debug-dynamic:sip_transport.obj
 0003:00011c88       $SG19843                   00000001400bac88     pjsip-core-x86_64-x64-vc14-debug-dynamic:sip_transport.obj
 0003:00011c98       $SG19846                   00000001400bac98     pjsip-core-x86_64-x64-vc14-debug-dynamic:sip_transport.obj
 0003:00011cc8       $SG19847                   00000001400bacc8     pjsip-core-x86_64-x64-vc14-debug-dynamic:sip_transport.obj
 0003:00011cd8       $SG19851                   00000001400bacd8     pjsip-core-x86_64-x64-vc14-debug-dynamic:sip_transport.obj
 0003:00011ce8       $SG20093                   00000001400bace8     pjsip-core-x86_64-x64-vc14-debug-dynamic:sip_transport.obj
 0003:00011cf0       $SG19904                   00000001400bacf0     pjsip-core-x86_64-x64-vc14-debug-dynamic:sip_transport.obj
 0003:00011df8       $SG19905                   00000001400badf8     pjsip-core-x86_64-x64-vc14-debug-dynamic:sip_transport.obj
 0003:00011e28       $SG19918                   00000001400bae28     pjsip-core-x86_64-x64-vc14-debug-dynamic:sip_transport.obj
 0003:00011e68       $SG19924                   00000001400bae68     pjsip-core-x86_64-x64-vc14-debug-dynamic:sip_transport.obj
 0003:00011e78       $SG20114                   00000001400bae78     pjsip-core-x86_64-x64-vc14-debug-dynamic:sip_transport.obj
 0003:00011e80       $SG19923                   00000001400bae80     pjsip-core-x86_64-x64-vc14-debug-dynamic:sip_transport.obj
 0003:00011ed0       $SG20034                   00000001400baed0     pjsip-core-x86_64-x64-vc14-debug-dynamic:sip_transport.obj
 0003:00011ee0       $SG20040                   00000001400baee0     pjsip-core-x86_64-x64-vc14-debug-dynamic:sip_transport.obj
 0003:00011fe8       $SG20041                   00000001400bafe8     pjsip-core-x86_64-x64-vc14-debug-dynamic:sip_transport.obj
 0003:00012008       $SG20080                   00000001400bb008     pjsip-core-x86_64-x64-vc14-debug-dynamic:sip_transport.obj
 0003:00012018       $SG20083                   00000001400bb018     pjsip-core-x86_64-x64-vc14-debug-dynamic:sip_transport.obj
 0003:00012028       $SG20085                   00000001400bb028     pjsip-core-x86_64-x64-vc14-debug-dynamic:sip_transport.obj
 0003:00012038       $SG20086                   00000001400bb038     pjsip-core-x86_64-x64-vc14-debug-dynamic:sip_transport.obj
 0003:00012048       $SG20090                   00000001400bb048     pjsip-core-x86_64-x64-vc14-debug-dynamic:sip_transport.obj
 0003:00012058       $SG20098                   00000001400bb058     pjsip-core-x86_64-x64-vc14-debug-dynamic:sip_transport.obj
 0003:00012068       $SG20100                   00000001400bb068     pjsip-core-x86_64-x64-vc14-debug-dynamic:sip_transport.obj
 0003:00012088       $SG20101                   00000001400bb088     pjsip-core-x86_64-x64-vc14-debug-dynamic:sip_transport.obj
 0003:00012098       $SG20126                   00000001400bb098     pjsip-core-x86_64-x64-vc14-debug-dynamic:sip_transport.obj
 0003:000120a0       $SG20113                   00000001400bb0a0     pjsip-core-x86_64-x64-vc14-debug-dynamic:sip_transport.obj
 0003:000121a8       $SG20137                   00000001400bb1a8     pjsip-core-x86_64-x64-vc14-debug-dynamic:sip_transport.obj
 0003:000121c8       $SG20206                   00000001400bb1c8     pjsip-core-x86_64-x64-vc14-debug-dynamic:sip_transport.obj
 0003:000121e0       $SG20125                   00000001400bb1e0     pjsip-core-x86_64-x64-vc14-debug-dynamic:sip_transport.obj
 0003:000122e8       $SG20178                   00000001400bb2e8     pjsip-core-x86_64-x64-vc14-debug-dynamic:sip_transport.obj
 0003:00012308       $SG20210                   00000001400bb308     pjsip-core-x86_64-x64-vc14-debug-dynamic:sip_transport.obj
 0003:00012330       $SG20136                   00000001400bb330     pjsip-core-x86_64-x64-vc14-debug-dynamic:sip_transport.obj
 0003:00012438       $SG20225                   00000001400bb438     pjsip-core-x86_64-x64-vc14-debug-dynamic:sip_transport.obj
 0003:00012440       $SG20177                   00000001400bb440     pjsip-core-x86_64-x64-vc14-debug-dynamic:sip_transport.obj
 0003:00012550       $SG20205                   00000001400bb550     pjsip-core-x86_64-x64-vc14-debug-dynamic:sip_transport.obj
 0003:00012660       $SG20211                   00000001400bb660     pjsip-core-x86_64-x64-vc14-debug-dynamic:sip_transport.obj
 0003:00012770       $SG20212                   00000001400bb770     pjsip-core-x86_64-x64-vc14-debug-dynamic:sip_transport.obj
 0003:000127c0       $SG20224                   00000001400bb7c0     pjsip-core-x86_64-x64-vc14-debug-dynamic:sip_transport.obj
 0003:00013360       $SG20650                   00000001400bc360     pjsip-core-x86_64-x64-vc14-debug-dynamic:sip_endpoint.obj
 0003:00013460       $SG20651                   00000001400bc460     pjsip-core-x86_64-x64-vc14-debug-dynamic:sip_endpoint.obj
 0003:000134e0       $SG20653                   00000001400bc4e0     pjsip-core-x86_64-x64-vc14-debug-dynamic:sip_endpoint.obj
 0003:000135e0       $SG20654                   00000001400bc5e0     pjsip-core-x86_64-x64-vc14-debug-dynamic:sip_endpoint.obj
 0003:00013678       $SG20658                   00000001400bc678     pjsip-core-x86_64-x64-vc14-debug-dynamic:sip_endpoint.obj
 0003:00013698       $SG20668                   00000001400bc698     pjsip-core-x86_64-x64-vc14-debug-dynamic:sip_endpoint.obj
 0003:000136a8       $SG20832                   00000001400bc6a8     pjsip-core-x86_64-x64-vc14-debug-dynamic:sip_endpoint.obj
 0003:000136c0       $SG20659                   00000001400bc6c0     pjsip-core-x86_64-x64-vc14-debug-dynamic:sip_endpoint.obj
 0003:000137c0       $SG20660                   00000001400bc7c0     pjsip-core-x86_64-x64-vc14-debug-dynamic:sip_endpoint.obj
 0003:00013800       $SG20667                   00000001400bc800     pjsip-core-x86_64-x64-vc14-debug-dynamic:sip_endpoint.obj
 0003:00013820       $SG20693                   00000001400bc820     pjsip-core-x86_64-x64-vc14-debug-dynamic:sip_endpoint.obj
 0003:00013920       $SG20694                   00000001400bc920     pjsip-core-x86_64-x64-vc14-debug-dynamic:sip_endpoint.obj
 0003:00013988       $SG20705                   00000001400bc988     pjsip-core-x86_64-x64-vc14-debug-dynamic:sip_endpoint.obj
 0003:00013998       $SG20885                   00000001400bc998     pjsip-core-x86_64-x64-vc14-debug-dynamic:sip_endpoint.obj
 0003:000139a0       $SG20696                   00000001400bc9a0     pjsip-core-x86_64-x64-vc14-debug-dynamic:sip_endpoint.obj
 0003:00013aa0       $SG20697                   00000001400bcaa0     pjsip-core-x86_64-x64-vc14-debug-dynamic:sip_endpoint.obj
 0003:00013b80       $SG20704                   00000001400bcb80     pjsip-core-x86_64-x64-vc14-debug-dynamic:sip_endpoint.obj
 0003:00013bb0       $SG20721                   00000001400bcbb0     pjsip-core-x86_64-x64-vc14-debug-dynamic:sip_endpoint.obj
 0003:00013cb0       $SG20722                   00000001400bccb0     pjsip-core-x86_64-x64-vc14-debug-dynamic:sip_endpoint.obj
 0003:00013ccc       $SG20894                   00000001400bcccc     pjsip-core-x86_64-x64-vc14-debug-dynamic:sip_endpoint.obj
 0003:00013cd4       $SG21154                   00000001400bccd4     pjsip-core-x86_64-x64-vc14-debug-dynamic:sip_endpoint.obj
 0003:00013cd8       $SG20724                   00000001400bccd8     pjsip-core-x86_64-x64-vc14-debug-dynamic:sip_endpoint.obj
 0003:00013cf8       $SG20725                   00000001400bccf8     pjsip-core-x86_64-x64-vc14-debug-dynamic:sip_endpoint.obj
 0003:00013d08       $SG20887                   00000001400bcd08     pjsip-core-x86_64-x64-vc14-debug-dynamic:sip_endpoint.obj
 0003:00013d10       $SG20752                   00000001400bcd10     pjsip-core-x86_64-x64-vc14-debug-dynamic:sip_endpoint.obj
 0003:00013e10       $SG20753                   00000001400bce10     pjsip-core-x86_64-x64-vc14-debug-dynamic:sip_endpoint.obj
 0003:00013e40       $SG20755                   00000001400bce40     pjsip-core-x86_64-x64-vc14-debug-dynamic:sip_endpoint.obj
 0003:00013f40       $SG20756                   00000001400bcf40     pjsip-core-x86_64-x64-vc14-debug-dynamic:sip_endpoint.obj
 0003:00013f80       $SG20783                   00000001400bcf80     pjsip-core-x86_64-x64-vc14-debug-dynamic:sip_endpoint.obj
 0003:00014080       $SG20784                   00000001400bd080     pjsip-core-x86_64-x64-vc14-debug-dynamic:sip_endpoint.obj
 0003:000140b0       $SG20828                   00000001400bd0b0     pjsip-core-x86_64-x64-vc14-debug-dynamic:sip_endpoint.obj
 0003:000141b0       $SG20829                   00000001400bd1b0     pjsip-core-x86_64-x64-vc14-debug-dynamic:sip_endpoint.obj
 0003:00014200       $SG20831                   00000001400bd200     pjsip-core-x86_64-x64-vc14-debug-dynamic:sip_endpoint.obj
 0003:00014300       $SG20834                   00000001400bd300     pjsip-core-x86_64-x64-vc14-debug-dynamic:sip_endpoint.obj
 0003:00014400       $SG20835                   00000001400bd400     pjsip-core-x86_64-x64-vc14-debug-dynamic:sip_endpoint.obj
 0003:00014494       $SG20891                   00000001400bd494     pjsip-core-x86_64-x64-vc14-debug-dynamic:sip_endpoint.obj
 0003:000144a0       $SG20880                   00000001400bd4a0     pjsip-core-x86_64-x64-vc14-debug-dynamic:sip_endpoint.obj
 0003:000145a0       $SG20881                   00000001400bd5a0     pjsip-core-x86_64-x64-vc14-debug-dynamic:sip_endpoint.obj
 0003:000145d0       $SG20883                   00000001400bd5d0     pjsip-core-x86_64-x64-vc14-debug-dynamic:sip_endpoint.obj
 0003:000145f0       $SG20884                   00000001400bd5f0     pjsip-core-x86_64-x64-vc14-debug-dynamic:sip_endpoint.obj
 0003:00014600       $SG20899                   00000001400bd600     pjsip-core-x86_64-x64-vc14-debug-dynamic:sip_endpoint.obj
 0003:00014628       $SG20900                   00000001400bd628     pjsip-core-x86_64-x64-vc14-debug-dynamic:sip_endpoint.obj
 0003:00014638       $SG20906                   00000001400bd638     pjsip-core-x86_64-x64-vc14-debug-dynamic:sip_endpoint.obj
 0003:00014650       $SG20907                   00000001400bd650     pjsip-core-x86_64-x64-vc14-debug-dynamic:sip_endpoint.obj
 0003:00014660       $SG20928                   00000001400bd660     pjsip-core-x86_64-x64-vc14-debug-dynamic:sip_endpoint.obj
 0003:00014680       $SG20929                   00000001400bd680     pjsip-core-x86_64-x64-vc14-debug-dynamic:sip_endpoint.obj
 0003:00014690       $SG20932                   00000001400bd690     pjsip-core-x86_64-x64-vc14-debug-dynamic:sip_endpoint.obj
 0003:000146a8       $SG20933                   00000001400bd6a8     pjsip-core-x86_64-x64-vc14-debug-dynamic:sip_endpoint.obj
 0003:000146b8       $SG20952                   00000001400bd6b8     pjsip-core-x86_64-x64-vc14-debug-dynamic:sip_endpoint.obj
 0003:000146d8       $SG20953                   00000001400bd6d8     pjsip-core-x86_64-x64-vc14-debug-dynamic:sip_endpoint.obj
 0003:000146e8       $SG21102                   00000001400bd6e8     pjsip-core-x86_64-x64-vc14-debug-dynamic:sip_endpoint.obj
 0003:00014710       $SG20989                   00000001400bd710     pjsip-core-x86_64-x64-vc14-debug-dynamic:sip_endpoint.obj
 0003:00014810       $SG20990                   00000001400bd810     pjsip-core-x86_64-x64-vc14-debug-dynamic:sip_endpoint.obj
 0003:00014860       $SG21096                   00000001400bd860     pjsip-core-x86_64-x64-vc14-debug-dynamic:sip_endpoint.obj
 0003:00014960       $SG21097                   00000001400bd960     pjsip-core-x86_64-x64-vc14-debug-dynamic:sip_endpoint.obj
 0003:00014980       $SG21103                   00000001400bd980     pjsip-core-x86_64-x64-vc14-debug-dynamic:sip_endpoint.obj
 0003:00014990       $SG21150                   00000001400bd990     pjsip-core-x86_64-x64-vc14-debug-dynamic:sip_endpoint.obj
 0003:00014998       $SG21152                   00000001400bd998     pjsip-core-x86_64-x64-vc14-debug-dynamic:sip_endpoint.obj
 0003:000149a0       $SG21156                   00000001400bd9a0     pjsip-core-x86_64-x64-vc14-debug-dynamic:sip_endpoint.obj
 0003:000149a8       $SG21158                   00000001400bd9a8     pjsip-core-x86_64-x64-vc14-debug-dynamic:sip_endpoint.obj
 0003:000149b0       $SG21160                   00000001400bd9b0     pjsip-core-x86_64-x64-vc14-debug-dynamic:sip_endpoint.obj
 0003:00014a00       $SG21161                   00000001400bda00     pjsip-core-x86_64-x64-vc14-debug-dynamic:sip_endpoint.obj
 0003:00014a10       $SG21163                   00000001400bda10     pjsip-core-x86_64-x64-vc14-debug-dynamic:sip_endpoint.obj
 0003:00014a30       $SG21164                   00000001400bda30     pjsip-core-x86_64-x64-vc14-debug-dynamic:sip_endpoint.obj
 0003:00014a40       $SG21167                   00000001400bda40     pjsip-core-x86_64-x64-vc14-debug-dynamic:sip_endpoint.obj
 0003:00014a78       $SG21168                   00000001400bda78     pjsip-core-x86_64-x64-vc14-debug-dynamic:sip_endpoint.obj
 0003:00014a88       $SG21205                   00000001400bda88     pjsip-core-x86_64-x64-vc14-debug-dynamic:sip_endpoint.obj
 0003:00014aa8       $SG21311                   00000001400bdaa8     pjsip-core-x86_64-x64-vc14-debug-dynamic:sip_endpoint.obj
 0003:00014ac0       $SG21204                   00000001400bdac0     pjsip-core-x86_64-x64-vc14-debug-dynamic:sip_endpoint.obj
 0003:00014bc0       $SG21226                   00000001400bdbc0     pjsip-core-x86_64-x64-vc14-debug-dynamic:sip_endpoint.obj
 0003:00014cc0       $SG21227                   00000001400bdcc0     pjsip-core-x86_64-x64-vc14-debug-dynamic:sip_endpoint.obj
 0003:00014cd0       $SG21295                   00000001400bdcd0     pjsip-core-x86_64-x64-vc14-debug-dynamic:sip_endpoint.obj
 0003:00014ce0       $SG21312                   00000001400bdce0     pjsip-core-x86_64-x64-vc14-debug-dynamic:sip_endpoint.obj
 0003:00014cf0       $SG21314                   00000001400bdcf0     pjsip-core-x86_64-x64-vc14-debug-dynamic:sip_endpoint.obj
 0003:00014d08       $SG21315                   00000001400bdd08     pjsip-core-x86_64-x64-vc14-debug-dynamic:sip_endpoint.obj
 0003:00014d18       $SG21317                   00000001400bdd18     pjsip-core-x86_64-x64-vc14-debug-dynamic:sip_endpoint.obj
 0003:00014d48       $SG21318                   00000001400bdd48     pjsip-core-x86_64-x64-vc14-debug-dynamic:sip_endpoint.obj
 0003:00014d60       $SG21335                   00000001400bdd60     pjsip-core-x86_64-x64-vc14-debug-dynamic:sip_endpoint.obj
 0003:00014e60       $SG21336                   00000001400bde60     pjsip-core-x86_64-x64-vc14-debug-dynamic:sip_endpoint.obj
 0003:000153f0       $SG18834                   00000001400be3f0     pjsip-core-x86_64-x64-vc14-debug-dynamic:sip_util.obj
 0003:00015400       $SG18835                   00000001400be400     pjsip-core-x86_64-x64-vc14-debug-dynamic:sip_util.obj
 0003:00015408       $SG18836                   00000001400be408     pjsip-core-x86_64-x64-vc14-debug-dynamic:sip_util.obj
 0003:00015410       $SG18837                   00000001400be410     pjsip-core-x86_64-x64-vc14-debug-dynamic:sip_util.obj
 0003:00015418       $SG18838                   00000001400be418     pjsip-core-x86_64-x64-vc14-debug-dynamic:sip_util.obj
 0003:00015428       $SG18839                   00000001400be428     pjsip-core-x86_64-x64-vc14-debug-dynamic:sip_util.obj
 0003:00015434       $SG18840                   00000001400be434     pjsip-core-x86_64-x64-vc14-debug-dynamic:sip_util.obj
 0003:0001543c       $SG18842                   00000001400be43c     pjsip-core-x86_64-x64-vc14-debug-dynamic:sip_util.obj
 0003:00015444       $SG18844                   00000001400be444     pjsip-core-x86_64-x64-vc14-debug-dynamic:sip_util.obj
 0003:00015450       event_str                  00000001400be450     pjsip-core-x86_64-x64-vc14-debug-dynamic:sip_util.obj
 0003:00015488       str_TEXT                   00000001400be488     pjsip-core-x86_64-x64-vc14-debug-dynamic:sip_util.obj
 0003:00015498       str_PLAIN                  00000001400be498     pjsip-core-x86_64-x64-vc14-debug-dynamic:sip_util.obj
 0003:000154a8       $SG18873                   00000001400be4a8     pjsip-core-x86_64-x64-vc14-debug-dynamic:sip_util.obj
 0003:000154d0       $SG18872                   00000001400be4d0     pjsip-core-x86_64-x64-vc14-debug-dynamic:sip_util.obj
 0003:000155c8       $SG18902                   00000001400be5c8     pjsip-core-x86_64-x64-vc14-debug-dynamic:sip_util.obj
 0003:000155f0       $SG18901                   00000001400be5f0     pjsip-core-x86_64-x64-vc14-debug-dynamic:sip_util.obj
 0003:000156e8       $SG19017                   00000001400be6e8     pjsip-core-x86_64-x64-vc14-debug-dynamic:sip_util.obj
 0003:000156f0       $SG18940                   00000001400be6f0     pjsip-core-x86_64-x64-vc14-debug-dynamic:sip_util.obj
 0003:000157e8       $SG18941                   00000001400be7e8     pjsip-core-x86_64-x64-vc14-debug-dynamic:sip_util.obj
 0003:00015808       $SG19018                   00000001400be808     pjsip-core-x86_64-x64-vc14-debug-dynamic:sip_util.obj
 0003:00015810       $SG18943                   00000001400be810     pjsip-core-x86_64-x64-vc14-debug-dynamic:sip_util.obj
 0003:00015908       $SG19067                   00000001400be908     pjsip-core-x86_64-x64-vc14-debug-dynamic:sip_util.obj
 0003:00015910       $SG18944                   00000001400be910     pjsip-core-x86_64-x64-vc14-debug-dynamic:sip_util.obj
 0003:00015970       $SG18962                   00000001400be970     pjsip-core-x86_64-x64-vc14-debug-dynamic:sip_util.obj
 0003:00015a68       $SG19208                   00000001400bea68     pjsip-core-x86_64-x64-vc14-debug-dynamic:sip_util.obj
 0003:00015aa0       $SG18963                   00000001400beaa0     pjsip-core-x86_64-x64-vc14-debug-dynamic:sip_util.obj
 0003:00015af0       $SG19021                   00000001400beaf0     pjsip-core-x86_64-x64-vc14-debug-dynamic:sip_util.obj
 0003:00015afc       $SG19467                   00000001400beafc     pjsip-core-x86_64-x64-vc14-debug-dynamic:sip_util.obj
 0003:00015b00       $SG19022                   00000001400beb00     pjsip-core-x86_64-x64-vc14-debug-dynamic:sip_util.obj
 0003:00015b10       $SG19129                   00000001400beb10     pjsip-core-x86_64-x64-vc14-debug-dynamic:sip_util.obj
 0003:00015c08       $SG19454                   00000001400bec08     pjsip-core-x86_64-x64-vc14-debug-dynamic:sip_util.obj
 0003:00015c10       $SG19130                   00000001400bec10     pjsip-core-x86_64-x64-vc14-debug-dynamic:sip_util.obj
 0003:00015ca0       $SG19207                   00000001400beca0     pjsip-core-x86_64-x64-vc14-debug-dynamic:sip_util.obj
 0003:00015d98       $SG19455                   00000001400bed98     pjsip-core-x86_64-x64-vc14-debug-dynamic:sip_util.obj
 0003:00015da0       $SG19211                   00000001400beda0     pjsip-core-x86_64-x64-vc14-debug-dynamic:sip_util.obj
 0003:00015e98       $SG19457                   00000001400bee98     pjsip-core-x86_64-x64-vc14-debug-dynamic:sip_util.obj
 0003:00015ea0       $SG19212                   00000001400beea0     pjsip-core-x86_64-x64-vc14-debug-dynamic:sip_util.obj
 0003:00015ee8       $SG19228                   00000001400beee8     pjsip-core-x86_64-x64-vc14-debug-dynamic:sip_util.obj
 0003:00015ef8       $SG19313                   00000001400beef8     pjsip-core-x86_64-x64-vc14-debug-dynamic:sip_util.obj
 0003:00015f28       $SG19498                   00000001400bef28     pjsip-core-x86_64-x64-vc14-debug-dynamic:sip_util.obj
 0003:00015f60       $SG19213                   00000001400bef60     pjsip-core-x86_64-x64-vc14-debug-dynamic:sip_util.obj
 0003:00016058       $SG19557                   00000001400bf058     pjsip-core-x86_64-x64-vc14-debug-dynamic:sip_util.obj
 0003:00016090       $SG19214                   00000001400bf090     pjsip-core-x86_64-x64-vc14-debug-dynamic:sip_util.obj
 0003:000160d8       $SG19409                   00000001400bf0d8     pjsip-core-x86_64-x64-vc14-debug-dynamic:sip_util.obj
 0003:00016108       $SG19570                   00000001400bf108     pjsip-core-x86_64-x64-vc14-debug-dynamic:sip_util.obj
 0003:00016110       $SG19216                   00000001400bf110     pjsip-core-x86_64-x64-vc14-debug-dynamic:sip_util.obj
 0003:00016208       $SG19571                   00000001400bf208     pjsip-core-x86_64-x64-vc14-debug-dynamic:sip_util.obj
 0003:00016210       $SG19217                   00000001400bf210     pjsip-core-x86_64-x64-vc14-debug-dynamic:sip_util.obj
 0003:00016270       $SG19229                   00000001400bf270     pjsip-core-x86_64-x64-vc14-debug-dynamic:sip_util.obj
 0003:00016280       $SG19310                   00000001400bf280     pjsip-core-x86_64-x64-vc14-debug-dynamic:sip_util.obj
 0003:00016378       $SG19657                   00000001400bf378     pjsip-core-x86_64-x64-vc14-debug-dynamic:sip_util.obj
 0003:00016390       $SG19311                   00000001400bf390     pjsip-core-x86_64-x64-vc14-debug-dynamic:sip_util.obj
 0003:00016450       $SG19312                   00000001400bf450     pjsip-core-x86_64-x64-vc14-debug-dynamic:sip_util.obj
 0003:00016548       $SG19659                   00000001400bf548     pjsip-core-x86_64-x64-vc14-debug-dynamic:sip_util.obj
 0003:00016580       $SG19315                   00000001400bf580     pjsip-core-x86_64-x64-vc14-debug-dynamic:sip_util.obj
 0003:00016678       $SG19316                   00000001400bf678     pjsip-core-x86_64-x64-vc14-debug-dynamic:sip_util.obj
 0003:000166a4       $SG19670                   00000001400bf6a4     pjsip-core-x86_64-x64-vc14-debug-dynamic:sip_util.obj
 0003:000166b0       $SG19318                   00000001400bf6b0     pjsip-core-x86_64-x64-vc14-debug-dynamic:sip_util.obj
 0003:000167a8       $SG19319                   00000001400bf7a8     pjsip-core-x86_64-x64-vc14-debug-dynamic:sip_util.obj
 0003:000167e0       $SG19321                   00000001400bf7e0     pjsip-core-x86_64-x64-vc14-debug-dynamic:sip_util.obj
 0003:000168d8       $SG19322                   00000001400bf8d8     pjsip-core-x86_64-x64-vc14-debug-dynamic:sip_util.obj
 0003:00016908       $SG19605                   00000001400bf908     pjsip-core-x86_64-x64-vc14-debug-dynamic:sip_util.obj
 0003:00016948       $SG19663                   00000001400bf948     pjsip-core-x86_64-x64-vc14-debug-dynamic:sip_util.obj
 0003:00016950       $SG19406                   00000001400bf950     pjsip-core-x86_64-x64-vc14-debug-dynamic:sip_util.obj
 0003:00016a48       $SG19714                   00000001400bfa48     pjsip-core-x86_64-x64-vc14-debug-dynamic:sip_util.obj
 0003:00016a80       $SG19407                   00000001400bfa80     pjsip-core-x86_64-x64-vc14-debug-dynamic:sip_util.obj
 0003:00016b50       $SG19408                   00000001400bfb50     pjsip-core-x86_64-x64-vc14-debug-dynamic:sip_util.obj
 0003:00016c48       $SG19792                   00000001400bfc48     pjsip-core-x86_64-x64-vc14-debug-dynamic:sip_util.obj
 0003:00016c70       $SG19411                   00000001400bfc70     pjsip-core-x86_64-x64-vc14-debug-dynamic:sip_util.obj
 0003:00016d68       $SG19412                   00000001400bfd68     pjsip-core-x86_64-x64-vc14-debug-dynamic:sip_util.obj
 0003:00016d98       $SG19645                   00000001400bfd98     pjsip-core-x86_64-x64-vc14-debug-dynamic:sip_util.obj
 0003:00016dd8       $SG19860                   00000001400bfdd8     pjsip-core-x86_64-x64-vc14-debug-dynamic:sip_util.obj
 0003:00016e10       $SG19414                   00000001400bfe10     pjsip-core-x86_64-x64-vc14-debug-dynamic:sip_util.obj
 0003:00016f08       $SG19415                   00000001400bff08     pjsip-core-x86_64-x64-vc14-debug-dynamic:sip_util.obj
 0003:00016f38       $SG19742                   00000001400bff38     pjsip-core-x86_64-x64-vc14-debug-dynamic:sip_util.obj
 0003:00016f60       $SG19417                   00000001400bff60     pjsip-core-x86_64-x64-vc14-debug-dynamic:sip_util.obj
 0003:00017058       $SG19418                   00000001400c0058     pjsip-core-x86_64-x64-vc14-debug-dynamic:sip_util.obj
 0003:00017090       $SG19459                   00000001400c0090     pjsip-core-x86_64-x64-vc14-debug-dynamic:sip_util.obj
 0003:000170d8       $SG19460                   00000001400c00d8     pjsip-core-x86_64-x64-vc14-debug-dynamic:sip_util.obj
 0003:000170f0       $SG19494                   00000001400c00f0     pjsip-core-x86_64-x64-vc14-debug-dynamic:sip_util.obj
 0003:000171f0       $SG19495                   00000001400c01f0     pjsip-core-x86_64-x64-vc14-debug-dynamic:sip_util.obj
 0003:00017240       $SG19497                   00000001400c0240     pjsip-core-x86_64-x64-vc14-debug-dynamic:sip_util.obj
 0003:00017340       $SG19553                   00000001400c0340     pjsip-core-x86_64-x64-vc14-debug-dynamic:sip_util.obj
 0003:00017440       $SG19554                   00000001400c0440     pjsip-core-x86_64-x64-vc14-debug-dynamic:sip_util.obj
 0003:00017490       $SG19556                   00000001400c0490     pjsip-core-x86_64-x64-vc14-debug-dynamic:sip_util.obj
 0003:00017590       $SG19560                   00000001400c0590     pjsip-core-x86_64-x64-vc14-debug-dynamic:sip_util.obj
 0003:00017690       $SG19561                   00000001400c0690     pjsip-core-x86_64-x64-vc14-debug-dynamic:sip_util.obj
 0003:000176e0       $SG19603                   00000001400c06e0     pjsip-core-x86_64-x64-vc14-debug-dynamic:sip_util.obj
 0003:00017700       $SG19604                   00000001400c0700     pjsip-core-x86_64-x64-vc14-debug-dynamic:sip_util.obj
 0003:00017800       $SG19644                   00000001400c0800     pjsip-core-x86_64-x64-vc14-debug-dynamic:sip_util.obj
 0003:00017900       $SG19658                   00000001400c0900     pjsip-core-x86_64-x64-vc14-debug-dynamic:sip_util.obj
 0003:00017a00       $SG19707                   00000001400c0a00     pjsip-core-x86_64-x64-vc14-debug-dynamic:sip_util.obj
 0003:00017b00       $SG19708                   00000001400c0b00     pjsip-core-x86_64-x64-vc14-debug-dynamic:sip_util.obj
 0003:00017b48       $SG19715                   00000001400c0b48     pjsip-core-x86_64-x64-vc14-debug-dynamic:sip_util.obj
 0003:00017b60       $SG19741                   00000001400c0b60     pjsip-core-x86_64-x64-vc14-debug-dynamic:sip_util.obj
 0003:00017c58       $SG19747                   00000001400c0c58     pjsip-core-x86_64-x64-vc14-debug-dynamic:sip_util.obj
 0003:00017c98       $SG19748                   00000001400c0c98     pjsip-core-x86_64-x64-vc14-debug-dynamic:sip_util.obj
 0003:00017cb0       $SG19791                   00000001400c0cb0     pjsip-core-x86_64-x64-vc14-debug-dynamic:sip_util.obj
 0003:00017db0       $SG19859                   00000001400c0db0     pjsip-core-x86_64-x64-vc14-debug-dynamic:sip_util.obj
 0003:00017eb0       $SG19862                   00000001400c0eb0     pjsip-core-x86_64-x64-vc14-debug-dynamic:sip_util.obj
 0003:00017fb0       $SG19863                   00000001400c0fb0     pjsip-core-x86_64-x64-vc14-debug-dynamic:sip_util.obj
 0003:00018010       $SG19864                   00000001400c1010     pjsip-core-x86_64-x64-vc14-debug-dynamic:sip_util.obj
 0003:00018110       $SG19865                   00000001400c1110     pjsip-core-x86_64-x64-vc14-debug-dynamic:sip_util.obj
 0003:00018170       $SG19988                   00000001400c1170     pjsip-core-x86_64-x64-vc14-debug-dynamic:sip_util.obj
 0003:00018268       $SG19989                   00000001400c1268     pjsip-core-x86_64-x64-vc14-debug-dynamic:sip_util.obj
 0003:00018290       $SG19991                   00000001400c1290     pjsip-core-x86_64-x64-vc14-debug-dynamic:sip_util.obj
 0003:00018390       $SG19992                   00000001400c1390     pjsip-core-x86_64-x64-vc14-debug-dynamic:sip_util.obj
 0003:000183f0       $SG19994                   00000001400c13f0     pjsip-core-x86_64-x64-vc14-debug-dynamic:sip_util.obj
 0003:000184f0       $SG19995                   00000001400c14f0     pjsip-core-x86_64-x64-vc14-debug-dynamic:sip_util.obj
 0003:00018f90       $SG18742                   00000001400c1f90     pjsip-core-x86_64-x64-vc14-debug-dynamic:sip_util_statefull.obj
 0003:00018fb0       $SG18787                   00000001400c1fb0     pjsip-core-x86_64-x64-vc14-debug-dynamic:sip_util_statefull.obj
 0003:000190c0       $SG18788                   00000001400c20c0     pjsip-core-x86_64-x64-vc14-debug-dynamic:sip_util_statefull.obj
 0003:00019120       $SG18790                   00000001400c2120     pjsip-core-x86_64-x64-vc14-debug-dynamic:sip_util_statefull.obj
 0003:00019230       $SG18791                   00000001400c2230     pjsip-core-x86_64-x64-vc14-debug-dynamic:sip_util_statefull.obj
 0003:00019270       $SG18827                   00000001400c2270     pjsip-core-x86_64-x64-vc14-debug-dynamic:sip_util_statefull.obj
 0003:00019380       $SG18828                   00000001400c2380     pjsip-core-x86_64-x64-vc14-debug-dynamic:sip_util_statefull.obj
 0003:00019490       $SG64295                   00000001400c2490     pjsip-core-x86_64-x64-vc14-debug-dynamic:sip_transport_udp.obj
 0003:000194b0       $SG64297                   00000001400c24b0     pjsip-core-x86_64-x64-vc14-debug-dynamic:sip_transport_udp.obj
 0003:000194d4       $SG64609                   00000001400c24d4     pjsip-core-x86_64-x64-vc14-debug-dynamic:sip_transport_udp.obj
 0003:000194d8       $SG64298                   00000001400c24d8     pjsip-core-x86_64-x64-vc14-debug-dynamic:sip_transport_udp.obj
 0003:000194ec       $SG64610                   00000001400c24ec     pjsip-core-x86_64-x64-vc14-debug-dynamic:sip_transport_udp.obj
 0003:000194f0       $SG64302                   00000001400c24f0     pjsip-core-x86_64-x64-vc14-debug-dynamic:sip_transport_udp.obj
 0003:00019508       $SG64304                   00000001400c2508     pjsip-core-x86_64-x64-vc14-debug-dynamic:sip_transport_udp.obj
 0003:00019538       $SG64315                   00000001400c2538     pjsip-core-x86_64-x64-vc14-debug-dynamic:sip_transport_udp.obj
 0003:00019570       $SG64303                   00000001400c2570     pjsip-core-x86_64-x64-vc14-debug-dynamic:sip_transport_udp.obj
 0003:0001967c       $SG64615                   00000001400c267c     pjsip-core-x86_64-x64-vc14-debug-dynamic:sip_transport_udp.obj
 0003:00019680       $SG64308                   00000001400c2680     pjsip-core-x86_64-x64-vc14-debug-dynamic:sip_transport_udp.obj
 0003:000196b0       $SG64314                   00000001400c26b0     pjsip-core-x86_64-x64-vc14-debug-dynamic:sip_transport_udp.obj
 0003:000197bc       $SG64620                   00000001400c27bc     pjsip-core-x86_64-x64-vc14-debug-dynamic:sip_transport_udp.obj
 0003:000197c0       $SG64323                   00000001400c27c0     pjsip-core-x86_64-x64-vc14-debug-dynamic:sip_transport_udp.obj
 0003:000197e0       $SG64324                   00000001400c27e0     pjsip-core-x86_64-x64-vc14-debug-dynamic:sip_transport_udp.obj
 0003:00019828       $SG64347                   00000001400c2828     pjsip-core-x86_64-x64-vc14-debug-dynamic:sip_transport_udp.obj
 0003:00019848       $SG64349                   00000001400c2848     pjsip-core-x86_64-x64-vc14-debug-dynamic:sip_transport_udp.obj
 0003:00019870       $SG64350                   00000001400c2870     pjsip-core-x86_64-x64-vc14-debug-dynamic:sip_transport_udp.obj
 0003:00019884       $SG64611                   00000001400c2884     pjsip-core-x86_64-x64-vc14-debug-dynamic:sip_transport_udp.obj
 0003:00019890       $SG64392                   00000001400c2890     pjsip-core-x86_64-x64-vc14-debug-dynamic:sip_transport_udp.obj
 0003:000199a0       $SG64393                   00000001400c29a0     pjsip-core-x86_64-x64-vc14-debug-dynamic:sip_transport_udp.obj
 0003:000199c8       $SG64403                   00000001400c29c8     pjsip-core-x86_64-x64-vc14-debug-dynamic:sip_transport_udp.obj
 0003:000199f0       $SG64395                   00000001400c29f0     pjsip-core-x86_64-x64-vc14-debug-dynamic:sip_transport_udp.obj
 0003:00019b00       $SG64396                   00000001400c2b00     pjsip-core-x86_64-x64-vc14-debug-dynamic:sip_transport_udp.obj
 0003:00019b48       $SG64401                   00000001400c2b48     pjsip-core-x86_64-x64-vc14-debug-dynamic:sip_transport_udp.obj
 0003:00019b68       $SG64404                   00000001400c2b68     pjsip-core-x86_64-x64-vc14-debug-dynamic:sip_transport_udp.obj
 0003:00019b80       $SG64421                   00000001400c2b80     pjsip-core-x86_64-x64-vc14-debug-dynamic:sip_transport_udp.obj
 0003:00019ba0       $SG64509                   00000001400c2ba0     pjsip-core-x86_64-x64-vc14-debug-dynamic:sip_transport_udp.obj
 0003:00019cb0       $SG64510                   00000001400c2cb0     pjsip-core-x86_64-x64-vc14-debug-dynamic:sip_transport_udp.obj
 0003:00019ce0       $SG64513                   00000001400c2ce0     pjsip-core-x86_64-x64-vc14-debug-dynamic:sip_transport_udp.obj
 0003:00019cfc       $SG64623                   00000001400c2cfc     pjsip-core-x86_64-x64-vc14-debug-dynamic:sip_transport_udp.obj
 0003:00019d08       $SG64550                   00000001400c2d08     pjsip-core-x86_64-x64-vc14-debug-dynamic:sip_transport_udp.obj
 0003:00019d40       $SG64551                   00000001400c2d40     pjsip-core-x86_64-x64-vc14-debug-dynamic:sip_transport_udp.obj
 0003:00019e50       $SG64552                   00000001400c2e50     pjsip-core-x86_64-x64-vc14-debug-dynamic:sip_transport_udp.obj
 0003:00019ec0       $SG64603                   00000001400c2ec0     pjsip-core-x86_64-x64-vc14-debug-dynamic:sip_transport_udp.obj
 0003:00019fd0       $SG64604                   00000001400c2fd0     pjsip-core-x86_64-x64-vc14-debug-dynamic:sip_transport_udp.obj
 0003:0001a030       $SG64607                   00000001400c3030     pjsip-core-x86_64-x64-vc14-debug-dynamic:sip_transport_udp.obj
 0003:0001a038       $SG64619                   00000001400c3038     pjsip-core-x86_64-x64-vc14-debug-dynamic:sip_transport_udp.obj
 0003:0001a040       $SG64628                   00000001400c3040     pjsip-core-x86_64-x64-vc14-debug-dynamic:sip_transport_udp.obj
 0003:0001a078       $SG64683                   00000001400c3078     pjsip-core-x86_64-x64-vc14-debug-dynamic:sip_transport_udp.obj
 0003:0001a0b8       $SG64687                   00000001400c30b8     pjsip-core-x86_64-x64-vc14-debug-dynamic:sip_transport_udp.obj
 0003:0001a0d0       $SG64682                   00000001400c30d0     pjsip-core-x86_64-x64-vc14-debug-dynamic:sip_transport_udp.obj
 0003:0001a1e0       $SG64688                   00000001400c31e0     pjsip-core-x86_64-x64-vc14-debug-dynamic:sip_transport_udp.obj
 0003:0001a200       $SG64734                   00000001400c3200     pjsip-core-x86_64-x64-vc14-debug-dynamic:sip_transport_udp.obj
 0003:0001a310       $SG64735                   00000001400c3310     pjsip-core-x86_64-x64-vc14-debug-dynamic:sip_transport_udp.obj
 0003:0001a350       $SG64770                   00000001400c3350     pjsip-core-x86_64-x64-vc14-debug-dynamic:sip_transport_udp.obj
 0003:0001a460       $SG64771                   00000001400c3460     pjsip-core-x86_64-x64-vc14-debug-dynamic:sip_transport_udp.obj
 0003:0001a4a0       $SG64773                   00000001400c34a0     pjsip-core-x86_64-x64-vc14-debug-dynamic:sip_transport_udp.obj
 0003:0001a5b0       $SG64774                   00000001400c35b0     pjsip-core-x86_64-x64-vc14-debug-dynamic:sip_transport_udp.obj
 0003:0001a5e0       $SG64776                   00000001400c35e0     pjsip-core-x86_64-x64-vc14-debug-dynamic:sip_transport_udp.obj
 0003:0001a6f0       $SG64777                   00000001400c36f0     pjsip-core-x86_64-x64-vc14-debug-dynamic:sip_transport_udp.obj
 0003:0001a718       $SG64783                   00000001400c3718     pjsip-core-x86_64-x64-vc14-debug-dynamic:sip_transport_udp.obj
 0003:0001a740       $SG64845                   00000001400c3740     pjsip-core-x86_64-x64-vc14-debug-dynamic:sip_transport_udp.obj
 0003:0001a850       $SG64846                   00000001400c3850     pjsip-core-x86_64-x64-vc14-debug-dynamic:sip_transport_udp.obj
 0003:0001a890       $SG64848                   00000001400c3890     pjsip-core-x86_64-x64-vc14-debug-dynamic:sip_transport_udp.obj
 0003:0001a9a0       $SG64849                   00000001400c39a0     pjsip-core-x86_64-x64-vc14-debug-dynamic:sip_transport_udp.obj
 0003:0001a9d0       $SG64861                   00000001400c39d0     pjsip-core-x86_64-x64-vc14-debug-dynamic:sip_transport_udp.obj
 0003:0001aae0       $SG64862                   00000001400c3ae0     pjsip-core-x86_64-x64-vc14-debug-dynamic:sip_transport_udp.obj
 0003:0001ab00       $SG64867                   00000001400c3b00     pjsip-core-x86_64-x64-vc14-debug-dynamic:sip_transport_udp.obj
 0003:0001afc0       $SG64467                   00000001400c3fc0     pjsip-core-x86_64-x64-vc14-debug-dynamic:sip_transport_tcp.obj
 0003:0001afd0       $SG64528                   00000001400c3fd0     pjsip-core-x86_64-x64-vc14-debug-dynamic:sip_transport_tcp.obj
 0003:0001afdc       $SG64584                   00000001400c3fdc     pjsip-core-x86_64-x64-vc14-debug-dynamic:sip_transport_tcp.obj
 0003:0001afe4       $SG64590                   00000001400c3fe4     pjsip-core-x86_64-x64-vc14-debug-dynamic:sip_transport_tcp.obj
 0003:0001afe8       $SG64548                   00000001400c3fe8     pjsip-core-x86_64-x64-vc14-debug-dynamic:sip_transport_tcp.obj
 0003:0001b004       $SG64588                   00000001400c4004     pjsip-core-x86_64-x64-vc14-debug-dynamic:sip_transport_tcp.obj
 0003:0001b00c       $SG64768                   00000001400c400c     pjsip-core-x86_64-x64-vc14-debug-dynamic:sip_transport_tcp.obj
 0003:0001b010       $SG64552                   00000001400c4010     pjsip-core-x86_64-x64-vc14-debug-dynamic:sip_transport_tcp.obj
 0003:0001b048       $SG64554                   00000001400c4048     pjsip-core-x86_64-x64-vc14-debug-dynamic:sip_transport_tcp.obj
 0003:0001b068       $SG64583                   00000001400c4068     pjsip-core-x86_64-x64-vc14-debug-dynamic:sip_transport_tcp.obj
 0003:0001b098       $SG64763                   00000001400c4098     pjsip-core-x86_64-x64-vc14-debug-dynamic:sip_transport_tcp.obj
 0003:0001b0a0       $SG64582                   00000001400c40a0     pjsip-core-x86_64-x64-vc14-debug-dynamic:sip_transport_tcp.obj
 0003:0001b1b0       $SG64586                   00000001400c41b0     pjsip-core-x86_64-x64-vc14-debug-dynamic:sip_transport_tcp.obj
 0003:0001b2bc       $SG64772                   00000001400c42bc     pjsip-core-x86_64-x64-vc14-debug-dynamic:sip_transport_tcp.obj
 0003:0001b2c4       $SG64775                   00000001400c42c4     pjsip-core-x86_64-x64-vc14-debug-dynamic:sip_transport_tcp.obj
 0003:0001b2c8       $SG64587                   00000001400c42c8     pjsip-core-x86_64-x64-vc14-debug-dynamic:sip_transport_tcp.obj
 0003:0001b2d4       $SG64773                   00000001400c42d4     pjsip-core-x86_64-x64-vc14-debug-dynamic:sip_transport_tcp.obj
 0003:0001b2e0       $SG64635                   00000001400c42e0     pjsip-core-x86_64-x64-vc14-debug-dynamic:sip_transport_tcp.obj
 0003:0001b300       $SG64765                   00000001400c4300     pjsip-core-x86_64-x64-vc14-debug-dynamic:sip_transport_tcp.obj
 0003:0001b410       $SG64766                   00000001400c4410     pjsip-core-x86_64-x64-vc14-debug-dynamic:sip_transport_tcp.obj
 0003:0001b430       $SG64770                   00000001400c4430     pjsip-core-x86_64-x64-vc14-debug-dynamic:sip_transport_tcp.obj
 0003:0001b540       $SG64771                   00000001400c4540     pjsip-core-x86_64-x64-vc14-debug-dynamic:sip_transport_tcp.obj
 0003:0001b568       $SG64777                   00000001400c4568     pjsip-core-x86_64-x64-vc14-debug-dynamic:sip_transport_tcp.obj
 0003:0001b574       $SG64784                   00000001400c4574     pjsip-core-x86_64-x64-vc14-debug-dynamic:sip_transport_tcp.obj
 0003:0001b580       $SG64782                   00000001400c4580     pjsip-core-x86_64-x64-vc14-debug-dynamic:sip_transport_tcp.obj
 0003:0001b608       $SG64785                   00000001400c4608     pjsip-core-x86_64-x64-vc14-debug-dynamic:sip_transport_tcp.obj
 0003:0001b610       $SG64786                   00000001400c4610     pjsip-core-x86_64-x64-vc14-debug-dynamic:sip_transport_tcp.obj
 0003:0001b62c       $SG64873                   00000001400c462c     pjsip-core-x86_64-x64-vc14-debug-dynamic:sip_transport_tcp.obj
 0003:0001b638       $SG64857                   00000001400c4638     pjsip-core-x86_64-x64-vc14-debug-dynamic:sip_transport_tcp.obj
 0003:0001b668       $SG64859                   00000001400c4668     pjsip-core-x86_64-x64-vc14-debug-dynamic:sip_transport_tcp.obj
 0003:0001b690       $SG64875                   00000001400c4690     pjsip-core-x86_64-x64-vc14-debug-dynamic:sip_transport_tcp.obj
 0003:0001b6a8       $SG64877                   00000001400c46a8     pjsip-core-x86_64-x64-vc14-debug-dynamic:sip_transport_tcp.obj
 0003:0001b6d0       $SG64920                   00000001400c46d0     pjsip-core-x86_64-x64-vc14-debug-dynamic:sip_transport_tcp.obj
 0003:0001b7e0       $SG64921                   00000001400c47e0     pjsip-core-x86_64-x64-vc14-debug-dynamic:sip_transport_tcp.obj
 0003:0001b860       $SG64925                   00000001400c4860     pjsip-core-x86_64-x64-vc14-debug-dynamic:sip_transport_tcp.obj
 0003:0001b970       $SG64926                   00000001400c4970     pjsip-core-x86_64-x64-vc14-debug-dynamic:sip_transport_tcp.obj
 0003:0001bab8       $SG64928                   00000001400c4ab8     pjsip-core-x86_64-x64-vc14-debug-dynamic:sip_transport_tcp.obj
 0003:0001bad0       $SG64941                   00000001400c4ad0     pjsip-core-x86_64-x64-vc14-debug-dynamic:sip_transport_tcp.obj
 0003:0001bb00       $SG64977                   00000001400c4b00     pjsip-core-x86_64-x64-vc14-debug-dynamic:sip_transport_tcp.obj
 0003:0001bc10       $SG64978                   00000001400c4c10     pjsip-core-x86_64-x64-vc14-debug-dynamic:sip_transport_tcp.obj
 0003:0001bc30       $SG64981                   00000001400c4c30     pjsip-core-x86_64-x64-vc14-debug-dynamic:sip_transport_tcp.obj
 0003:0001bc70       $SG64982                   00000001400c4c70     pjsip-core-x86_64-x64-vc14-debug-dynamic:sip_transport_tcp.obj
 0003:0001bc88       $SG64989                   00000001400c4c88     pjsip-core-x86_64-x64-vc14-debug-dynamic:sip_transport_tcp.obj
 0003:0001bca0       $SG64993                   00000001400c4ca0     pjsip-core-x86_64-x64-vc14-debug-dynamic:sip_transport_tcp.obj
 0003:0001bd28       $SG65016                   00000001400c4d28     pjsip-core-x86_64-x64-vc14-debug-dynamic:sip_transport_tcp.obj
 0003:0001bd50       $SG65066                   00000001400c4d50     pjsip-core-x86_64-x64-vc14-debug-dynamic:sip_transport_tcp.obj
 0003:0001be60       $SG65067                   00000001400c4e60     pjsip-core-x86_64-x64-vc14-debug-dynamic:sip_transport_tcp.obj
 0003:0001be90       $SG65069                   00000001400c4e90     pjsip-core-x86_64-x64-vc14-debug-dynamic:sip_transport_tcp.obj
 0003:0001bfa0       $SG65070                   00000001400c4fa0     pjsip-core-x86_64-x64-vc14-debug-dynamic:sip_transport_tcp.obj
 0003:0001bff0       $SG65073                   00000001400c4ff0     pjsip-core-x86_64-x64-vc14-debug-dynamic:sip_transport_tcp.obj
 0003:0001c100       $SG65074                   00000001400c5100     pjsip-core-x86_64-x64-vc14-debug-dynamic:sip_transport_tcp.obj
 0003:0001c1a8       $SG65082                   00000001400c51a8     pjsip-core-x86_64-x64-vc14-debug-dynamic:sip_transport_tcp.obj
 0003:0001c1d0       $SG65122                   00000001400c51d0     pjsip-core-x86_64-x64-vc14-debug-dynamic:sip_transport_tcp.obj
 0003:0001c2e0       $SG65123                   00000001400c52e0     pjsip-core-x86_64-x64-vc14-debug-dynamic:sip_transport_tcp.obj
 0003:0001c330       $SG65124                   00000001400c5330     pjsip-core-x86_64-x64-vc14-debug-dynamic:sip_transport_tcp.obj
 0003:0001c440       $SG65125                   00000001400c5440     pjsip-core-x86_64-x64-vc14-debug-dynamic:sip_transport_tcp.obj
 0003:0001c4a0       $SG65128                   00000001400c54a0     pjsip-core-x86_64-x64-vc14-debug-dynamic:sip_transport_tcp.obj
 0003:0001c4b8       $SG65155                   00000001400c54b8     pjsip-core-x86_64-x64-vc14-debug-dynamic:sip_transport_tcp.obj
 0003:0001c4d0       $SG65157                   00000001400c54d0     pjsip-core-x86_64-x64-vc14-debug-dynamic:sip_transport_tcp.obj
 0003:0001c500       $SG65163                   00000001400c5500     pjsip-core-x86_64-x64-vc14-debug-dynamic:sip_transport_tcp.obj
 0003:0001c590       $SG65185                   00000001400c5590     pjsip-core-x86_64-x64-vc14-debug-dynamic:sip_transport_tcp.obj
 0003:0001c618       $SG65187                   00000001400c5618     pjsip-core-x86_64-x64-vc14-debug-dynamic:sip_transport_tcp.obj
 0003:0001c640       $SG65189                   00000001400c5640     pjsip-core-x86_64-x64-vc14-debug-dynamic:sip_transport_tcp.obj
 0003:0001c660       $SG65190                   00000001400c5660     pjsip-core-x86_64-x64-vc14-debug-dynamic:sip_transport_tcp.obj
 0003:0001c6f0       $SG65211                   00000001400c56f0     pjsip-core-x86_64-x64-vc14-debug-dynamic:sip_transport_tcp.obj
 0003:0001c800       $SG65212                   00000001400c5800     pjsip-core-x86_64-x64-vc14-debug-dynamic:sip_transport_tcp.obj
 0003:0001c818       $SG65237                   00000001400c5818     pjsip-core-x86_64-x64-vc14-debug-dynamic:sip_transport_tcp.obj
 0003:0001c830       $SG65240                   00000001400c5830     pjsip-core-x86_64-x64-vc14-debug-dynamic:sip_transport_tcp.obj
 0003:0001c858       $SG65260                   00000001400c5858     pjsip-core-x86_64-x64-vc14-debug-dynamic:sip_transport_tcp.obj
 0003:0001c888       $SG65263                   00000001400c5888     pjsip-core-x86_64-x64-vc14-debug-dynamic:sip_transport_tcp.obj
 0003:0001cdb0       $SG19388                   00000001400c5db0     pjsip-core-x86_64-x64-vc14-debug-dynamic:sip_transaction.obj
 0003:0001cdc0       $SG19390                   00000001400c5dc0     pjsip-core-x86_64-x64-vc14-debug-dynamic:sip_transaction.obj
 0003:0001cdc8       $SG19391                   00000001400c5dc8     pjsip-core-x86_64-x64-vc14-debug-dynamic:sip_transaction.obj
 0003:0001cdd0       $SG19392                   00000001400c5dd0     pjsip-core-x86_64-x64-vc14-debug-dynamic:sip_transaction.obj
 0003:0001cdd8       $SG19393                   00000001400c5dd8     pjsip-core-x86_64-x64-vc14-debug-dynamic:sip_transaction.obj
 0003:0001cde4       $SG19399                   00000001400c5de4     pjsip-core-x86_64-x64-vc14-debug-dynamic:sip_transaction.obj
 0003:0001cde8       $SG19394                   00000001400c5de8     pjsip-core-x86_64-x64-vc14-debug-dynamic:sip_transaction.obj
 0003:0001cdf4       $SG19400                   00000001400c5df4     pjsip-core-x86_64-x64-vc14-debug-dynamic:sip_transaction.obj
 0003:0001cdf8       $SG19395                   00000001400c5df8     pjsip-core-x86_64-x64-vc14-debug-dynamic:sip_transaction.obj
 0003:0001ce08       $SG19396                   00000001400c5e08     pjsip-core-x86_64-x64-vc14-debug-dynamic:sip_transaction.obj
 0003:0001ce18       $SG19397                   00000001400c5e18     pjsip-core-x86_64-x64-vc14-debug-dynamic:sip_transaction.obj
 0003:0001ce30       mod_tsx_layer              00000001400c5e30     pjsip-core-x86_64-x64-vc14-debug-dynamic:sip_transaction.obj
 0003:0001cec0       state_str                  00000001400c5ec0     pjsip-core-x86_64-x64-vc14-debug-dynamic:sip_transaction.obj
 0003:0001cf00       role_name                  00000001400c5f00     pjsip-core-x86_64-x64-vc14-debug-dynamic:sip_transaction.obj
 0003:0001cf10       t1_timer_val               00000001400c5f10     pjsip-core-x86_64-x64-vc14-debug-dynamic:sip_transaction.obj
 0003:0001cf18       t2_timer_val               00000001400c5f18     pjsip-core-x86_64-x64-vc14-debug-dynamic:sip_transaction.obj
 0003:0001cf20       t4_timer_val               00000001400c5f20     pjsip-core-x86_64-x64-vc14-debug-dynamic:sip_transaction.obj
 0003:0001cf28       td_timer_val               00000001400c5f28     pjsip-core-x86_64-x64-vc14-debug-dynamic:sip_transaction.obj
 0003:0001cf30       timeout_timer_val          00000001400c5f30     pjsip-core-x86_64-x64-vc14-debug-dynamic:sip_transaction.obj
 0003:0001cf38       $SG19595                   00000001400c5f38     pjsip-core-x86_64-x64-vc14-debug-dynamic:sip_transaction.obj
 0003:0001cf60       tsx_state_handler_uac      00000001400c5f60     pjsip-core-x86_64-x64-vc14-debug-dynamic:sip_transaction.obj
 0003:0001cfa0       tsx_state_handler_uas      00000001400c5fa0     pjsip-core-x86_64-x64-vc14-debug-dynamic:sip_transaction.obj
 0003:0001cfe0       $SG19591                   00000001400c5fe0     pjsip-core-x86_64-x64-vc14-debug-dynamic:sip_transaction.obj
 0003:0001d0e8       $SG19592                   00000001400c60e8     pjsip-core-x86_64-x64-vc14-debug-dynamic:sip_transaction.obj
 0003:0001d128       $SG19598                   00000001400c6128     pjsip-core-x86_64-x64-vc14-debug-dynamic:sip_transaction.obj
 0003:0001d150       $SG19594                   00000001400c6150     pjsip-core-x86_64-x64-vc14-debug-dynamic:sip_transaction.obj
 0003:0001d258       $SG19645                   00000001400c6258     pjsip-core-x86_64-x64-vc14-debug-dynamic:sip_transaction.obj
 0003:0001d260       $SG19597                   00000001400c6260     pjsip-core-x86_64-x64-vc14-debug-dynamic:sip_transaction.obj
 0003:0001d368       $SG19701                   00000001400c6368     pjsip-core-x86_64-x64-vc14-debug-dynamic:sip_transaction.obj
 0003:0001d3a0       $SG19600                   00000001400c63a0     pjsip-core-x86_64-x64-vc14-debug-dynamic:sip_transaction.obj
 0003:0001d4a8       $SG19601                   00000001400c64a8     pjsip-core-x86_64-x64-vc14-debug-dynamic:sip_transaction.obj
 0003:0001d4d8       $SG19698                   00000001400c64d8     pjsip-core-x86_64-x64-vc14-debug-dynamic:sip_transaction.obj
 0003:0001d518       $SG19702                   00000001400c6518     pjsip-core-x86_64-x64-vc14-debug-dynamic:sip_transaction.obj
 0003:0001d530       $SG19603                   00000001400c6530     pjsip-core-x86_64-x64-vc14-debug-dynamic:sip_transaction.obj
 0003:0001d638       $SG19604                   00000001400c6638     pjsip-core-x86_64-x64-vc14-debug-dynamic:sip_transaction.obj
 0003:0001d668       $SG19714                   00000001400c6668     pjsip-core-x86_64-x64-vc14-debug-dynamic:sip_transaction.obj
 0003:0001d6a8       $SG19776                   00000001400c66a8     pjsip-core-x86_64-x64-vc14-debug-dynamic:sip_transaction.obj
 0003:0001d6d0       $SG19628                   00000001400c66d0     pjsip-core-x86_64-x64-vc14-debug-dynamic:sip_transaction.obj
 0003:0001d7d8       $SG19777                   00000001400c67d8     pjsip-core-x86_64-x64-vc14-debug-dynamic:sip_transaction.obj
 0003:0001d7f0       $SG19629                   00000001400c67f0     pjsip-core-x86_64-x64-vc14-debug-dynamic:sip_transaction.obj
 0003:0001d830       $SG19661                   00000001400c6830     pjsip-core-x86_64-x64-vc14-debug-dynamic:sip_transaction.obj
 0003:0001d938       $SG19780                   00000001400c6938     pjsip-core-x86_64-x64-vc14-debug-dynamic:sip_transaction.obj
 0003:0001d960       $SG19662                   00000001400c6960     pjsip-core-x86_64-x64-vc14-debug-dynamic:sip_transaction.obj
 0003:0001d9a4       $SG19914                   00000001400c69a4     pjsip-core-x86_64-x64-vc14-debug-dynamic:sip_transaction.obj
 0003:0001d9a8       $SG19663                   00000001400c69a8     pjsip-core-x86_64-x64-vc14-debug-dynamic:sip_transaction.obj
 0003:0001d9b4       $SG19916                   00000001400c69b4     pjsip-core-x86_64-x64-vc14-debug-dynamic:sip_transaction.obj
 0003:0001d9bc       $SG20758                   00000001400c69bc     pjsip-core-x86_64-x64-vc14-debug-dynamic:sip_transaction.obj
 0003:0001d9c0       $SG19666                   00000001400c69c0     pjsip-core-x86_64-x64-vc14-debug-dynamic:sip_transaction.obj
 0003:0001d9d0       $SG19682                   00000001400c69d0     pjsip-core-x86_64-x64-vc14-debug-dynamic:sip_transaction.obj
 0003:0001dad8       $SG19781                   00000001400c6ad8     pjsip-core-x86_64-x64-vc14-debug-dynamic:sip_transaction.obj
 0003:0001daf0       $SG19683                   00000001400c6af0     pjsip-core-x86_64-x64-vc14-debug-dynamic:sip_transaction.obj
 0003:0001db38       $SG19792                   00000001400c6b38     pjsip-core-x86_64-x64-vc14-debug-dynamic:sip_transaction.obj
 0003:0001db60       $SG19697                   00000001400c6b60     pjsip-core-x86_64-x64-vc14-debug-dynamic:sip_transaction.obj
 0003:0001dc68       $SG19793                   00000001400c6c68     pjsip-core-x86_64-x64-vc14-debug-dynamic:sip_transaction.obj
 0003:0001dc80       $SG19713                   00000001400c6c80     pjsip-core-x86_64-x64-vc14-debug-dynamic:sip_transaction.obj
 0003:0001dd88       $SG19802                   00000001400c6d88     pjsip-core-x86_64-x64-vc14-debug-dynamic:sip_transaction.obj
 0003:0001ddc0       $SG19726                   00000001400c6dc0     pjsip-core-x86_64-x64-vc14-debug-dynamic:sip_transaction.obj
 0003:0001dec8       $SG19803                   00000001400c6ec8     pjsip-core-x86_64-x64-vc14-debug-dynamic:sip_transaction.obj
 0003:0001dee0       $SG19727                   00000001400c6ee0     pjsip-core-x86_64-x64-vc14-debug-dynamic:sip_transaction.obj
 0003:0001df28       $SG19854                   00000001400c6f28     pjsip-core-x86_64-x64-vc14-debug-dynamic:sip_transaction.obj
 0003:0001df48       $SG19855                   00000001400c6f48     pjsip-core-x86_64-x64-vc14-debug-dynamic:sip_transaction.obj
 0003:0001df60       $SG19857                   00000001400c6f60     pjsip-core-x86_64-x64-vc14-debug-dynamic:sip_transaction.obj
 0003:0001df78       $SG19858                   00000001400c6f78     pjsip-core-x86_64-x64-vc14-debug-dynamic:sip_transaction.obj
 0003:0001df90       $SG19863                   00000001400c6f90     pjsip-core-x86_64-x64-vc14-debug-dynamic:sip_transaction.obj
 0003:0001dfa0       $SG19864                   00000001400c6fa0     pjsip-core-x86_64-x64-vc14-debug-dynamic:sip_transaction.obj
 0003:0001dfb4       $SG19866                   00000001400c6fb4     pjsip-core-x86_64-x64-vc14-debug-dynamic:sip_transaction.obj
 0003:0001dfc0       $SG19867                   00000001400c6fc0     pjsip-core-x86_64-x64-vc14-debug-dynamic:sip_transaction.obj
 0003:0001dfd0       $SG19868                   00000001400c6fd0     pjsip-core-x86_64-x64-vc14-debug-dynamic:sip_transaction.obj
 0003:0001dfe8       $SG19892                   00000001400c6fe8     pjsip-core-x86_64-x64-vc14-debug-dynamic:sip_transaction.obj
 0003:0001e008       $SG19930                   00000001400c7008     pjsip-core-x86_64-x64-vc14-debug-dynamic:sip_transaction.obj
 0003:0001e020       $SG19891                   00000001400c7020     pjsip-core-x86_64-x64-vc14-debug-dynamic:sip_transaction.obj
 0003:0001e128       $SG19944                   00000001400c7128     pjsip-core-x86_64-x64-vc14-debug-dynamic:sip_transaction.obj
 0003:0001e160       $SG19893                   00000001400c7160     pjsip-core-x86_64-x64-vc14-debug-dynamic:sip_transaction.obj
 0003:0001e1e8       $SG19979                   00000001400c71e8     pjsip-core-x86_64-x64-vc14-debug-dynamic:sip_transaction.obj
 0003:0001e1f8       $SG19980                   00000001400c71f8     pjsip-core-x86_64-x64-vc14-debug-dynamic:sip_transaction.obj
 0003:0001e200       $SG19981                   00000001400c7200     pjsip-core-x86_64-x64-vc14-debug-dynamic:sip_transaction.obj
 0003:0001e210       $SG20013                   00000001400c7210     pjsip-core-x86_64-x64-vc14-debug-dynamic:sip_transaction.obj
 0003:0001e318       $SG20014                   00000001400c7318     pjsip-core-x86_64-x64-vc14-debug-dynamic:sip_transaction.obj
 0003:0001e340       $SG20016                   00000001400c7340     pjsip-core-x86_64-x64-vc14-debug-dynamic:sip_transaction.obj
 0003:0001e368       $SG20106                   00000001400c7368     pjsip-core-x86_64-x64-vc14-debug-dynamic:sip_transaction.obj
 0003:0001e370       $SG20020                   00000001400c7370     pjsip-core-x86_64-x64-vc14-debug-dynamic:sip_transaction.obj
 0003:0001e478       $SG20021                   00000001400c7478     pjsip-core-x86_64-x64-vc14-debug-dynamic:sip_transaction.obj
 0003:0001e4a8       $SG20098                   00000001400c74a8     pjsip-core-x86_64-x64-vc14-debug-dynamic:sip_transaction.obj
 0003:0001e4d8       $SG20169                   00000001400c74d8     pjsip-core-x86_64-x64-vc14-debug-dynamic:sip_transaction.obj
 0003:0001e518       $SG20178                   00000001400c7518     pjsip-core-x86_64-x64-vc14-debug-dynamic:sip_transaction.obj
 0003:0001e530       $SG20089                   00000001400c7530     pjsip-core-x86_64-x64-vc14-debug-dynamic:sip_transaction.obj
 0003:0001e638       $SG20090                   00000001400c7638     pjsip-core-x86_64-x64-vc14-debug-dynamic:sip_transaction.obj
 0003:0001e678       $SG20114                   00000001400c7678     pjsip-core-x86_64-x64-vc14-debug-dynamic:sip_transaction.obj
 0003:0001e698       $SG20201                   00000001400c7698     pjsip-core-x86_64-x64-vc14-debug-dynamic:sip_transaction.obj
 0003:0001e6b0       $SG20092                   00000001400c76b0     pjsip-core-x86_64-x64-vc14-debug-dynamic:sip_transaction.obj
 0003:0001e7b8       $SG20235                   00000001400c77b8     pjsip-core-x86_64-x64-vc14-debug-dynamic:sip_transaction.obj
 0003:0001e7e0       $SG20093                   00000001400c77e0     pjsip-core-x86_64-x64-vc14-debug-dynamic:sip_transaction.obj
 0003:0001e830       $SG20095                   00000001400c7830     pjsip-core-x86_64-x64-vc14-debug-dynamic:sip_transaction.obj
 0003:0001e938       $SG20237                   00000001400c7938     pjsip-core-x86_64-x64-vc14-debug-dynamic:sip_transaction.obj
 0003:0001e960       $SG20096                   00000001400c7960     pjsip-core-x86_64-x64-vc14-debug-dynamic:sip_transaction.obj
 0003:0001e9c8       $SG20240                   00000001400c79c8     pjsip-core-x86_64-x64-vc14-debug-dynamic:sip_transaction.obj
 0003:0001e9e0       $SG20099                   00000001400c79e0     pjsip-core-x86_64-x64-vc14-debug-dynamic:sip_transaction.obj
 0003:0001eae8       $SG20262                   00000001400c7ae8     pjsip-core-x86_64-x64-vc14-debug-dynamic:sip_transaction.obj
 0003:0001eb10       $SG20100                   00000001400c7b10     pjsip-core-x86_64-x64-vc14-debug-dynamic:sip_transaction.obj
 0003:0001eb70       $SG20165                   00000001400c7b70     pjsip-core-x86_64-x64-vc14-debug-dynamic:sip_transaction.obj
 0003:0001ec78       $SG20268                   00000001400c7c78     pjsip-core-x86_64-x64-vc14-debug-dynamic:sip_transaction.obj
 0003:0001ec98       $SG20289                   00000001400c7c98     pjsip-core-x86_64-x64-vc14-debug-dynamic:sip_transaction.obj
 0003:0001ecc0       $SG20166                   00000001400c7cc0     pjsip-core-x86_64-x64-vc14-debug-dynamic:sip_transaction.obj
 0003:0001ed10       $SG20168                   00000001400c7d10     pjsip-core-x86_64-x64-vc14-debug-dynamic:sip_transaction.obj
 0003:0001ee18       $SG20321                   00000001400c7e18     pjsip-core-x86_64-x64-vc14-debug-dynamic:sip_transaction.obj
 0003:0001ee30       $SG20171                   00000001400c7e30     pjsip-core-x86_64-x64-vc14-debug-dynamic:sip_transaction.obj
 0003:0001ef38       $SG20336                   00000001400c7f38     pjsip-core-x86_64-x64-vc14-debug-dynamic:sip_transaction.obj
 0003:0001ef50       $SG20172                   00000001400c7f50     pjsip-core-x86_64-x64-vc14-debug-dynamic:sip_transaction.obj
 0003:0001efa8       $SG20383                   00000001400c7fa8     pjsip-core-x86_64-x64-vc14-debug-dynamic:sip_transaction.obj
 0003:0001efc0       $SG20177                   00000001400c7fc0     pjsip-core-x86_64-x64-vc14-debug-dynamic:sip_transaction.obj
 0003:0001f008       $SG20187                   00000001400c8008     pjsip-core-x86_64-x64-vc14-debug-dynamic:sip_transaction.obj
 0003:0001f028       $SG20389                   00000001400c8028     pjsip-core-x86_64-x64-vc14-debug-dynamic:sip_transaction.obj
 0003:0001f048       $SG20396                   00000001400c8048     pjsip-core-x86_64-x64-vc14-debug-dynamic:sip_transaction.obj
 0003:0001f080       $SG20200                   00000001400c8080     pjsip-core-x86_64-x64-vc14-debug-dynamic:sip_transaction.obj
 0003:0001f188       $SG20475                   00000001400c8188     pjsip-core-x86_64-x64-vc14-debug-dynamic:sip_transaction.obj
 0003:0001f1b0       $SG20234                   00000001400c81b0     pjsip-core-x86_64-x64-vc14-debug-dynamic:sip_transaction.obj
 0003:0001f2b8       $SG20476                   00000001400c82b8     pjsip-core-x86_64-x64-vc14-debug-dynamic:sip_transaction.obj
 0003:0001f2d0       $SG20239                   00000001400c82d0     pjsip-core-x86_64-x64-vc14-debug-dynamic:sip_transaction.obj
 0003:0001f3d8       $SG20482                   00000001400c83d8     pjsip-core-x86_64-x64-vc14-debug-dynamic:sip_transaction.obj
 0003:0001f3f0       $SG20261                   00000001400c83f0     pjsip-core-x86_64-x64-vc14-debug-dynamic:sip_transaction.obj
 0003:0001f4f8       $SG20487                   00000001400c84f8     pjsip-core-x86_64-x64-vc14-debug-dynamic:sip_transaction.obj
 0003:0001f510       $SG20265                   00000001400c8510     pjsip-core-x86_64-x64-vc14-debug-dynamic:sip_transaction.obj
 0003:0001f618       $SG20491                   00000001400c8618     pjsip-core-x86_64-x64-vc14-debug-dynamic:sip_transaction.obj
 0003:0001f650       $SG20266                   00000001400c8650     pjsip-core-x86_64-x64-vc14-debug-dynamic:sip_transaction.obj
 0003:0001f6e0       $SG20288                   00000001400c86e0     pjsip-core-x86_64-x64-vc14-debug-dynamic:sip_transaction.obj
 0003:0001f7e8       $SG20532                   00000001400c87e8     pjsip-core-x86_64-x64-vc14-debug-dynamic:sip_transaction.obj
 0003:0001f818       $SG20556                   00000001400c8818     pjsip-core-x86_64-x64-vc14-debug-dynamic:sip_transaction.obj
 0003:0001f850       $SG20292                   00000001400c8850     pjsip-core-x86_64-x64-vc14-debug-dynamic:sip_transaction.obj
 0003:0001f958       $SG20558                   00000001400c8958     pjsip-core-x86_64-x64-vc14-debug-dynamic:sip_transaction.obj
 0003:0001f980       $SG20293                   00000001400c8980     pjsip-core-x86_64-x64-vc14-debug-dynamic:sip_transaction.obj
 0003:0001fa10       $SG20318                   00000001400c8a10     pjsip-core-x86_64-x64-vc14-debug-dynamic:sip_transaction.obj
 0003:0001fb18       $SG20319                   00000001400c8b18     pjsip-core-x86_64-x64-vc14-debug-dynamic:sip_transaction.obj
 0003:0001fb48       $SG20415                   00000001400c8b48     pjsip-core-x86_64-x64-vc14-debug-dynamic:sip_transaction.obj
 0003:0001fb68       $SG20527                   00000001400c8b68     pjsip-core-x86_64-x64-vc14-debug-dynamic:sip_transaction.obj
 0003:0001fb98       $SG20575                   00000001400c8b98     pjsip-core-x86_64-x64-vc14-debug-dynamic:sip_transaction.obj
 0003:0001fba0       $SG20375                   00000001400c8ba0     pjsip-core-x86_64-x64-vc14-debug-dynamic:sip_transaction.obj
 0003:0001fca8       $SG20630                   00000001400c8ca8     pjsip-core-x86_64-x64-vc14-debug-dynamic:sip_transaction.obj
 0003:0001fce0       $SG20376                   00000001400c8ce0     pjsip-core-x86_64-x64-vc14-debug-dynamic:sip_transaction.obj
 0003:0001fd38       $SG20432                   00000001400c8d38     pjsip-core-x86_64-x64-vc14-debug-dynamic:sip_transaction.obj
 0003:0001fd80       $SG20382                   00000001400c8d80     pjsip-core-x86_64-x64-vc14-debug-dynamic:sip_transaction.obj
 0003:0001fe90       $SG20431                   00000001400c8e90     pjsip-core-x86_64-x64-vc14-debug-dynamic:sip_transaction.obj
 0003:0001ffa0       $SG20470                   00000001400c8fa0     pjsip-core-x86_64-x64-vc14-debug-dynamic:sip_transaction.obj
 0003:000200a8       $SG20471                   00000001400c90a8     pjsip-core-x86_64-x64-vc14-debug-dynamic:sip_transaction.obj
 0003:000200d0       $SG20483                   00000001400c90d0     pjsip-core-x86_64-x64-vc14-debug-dynamic:sip_transaction.obj
 0003:000201e0       $SG20484                   00000001400c91e0     pjsip-core-x86_64-x64-vc14-debug-dynamic:sip_transaction.obj
 0003:00020250       $SG20488                   00000001400c9250     pjsip-core-x86_64-x64-vc14-debug-dynamic:sip_transaction.obj
 0003:00020358       $SG20489                   00000001400c9358     pjsip-core-x86_64-x64-vc14-debug-dynamic:sip_transaction.obj
 0003:00020390       $SG20520                   00000001400c9390     pjsip-core-x86_64-x64-vc14-debug-dynamic:sip_transaction.obj
 0003:000204a0       $SG20521                   00000001400c94a0     pjsip-core-x86_64-x64-vc14-debug-dynamic:sip_transaction.obj
 0003:00020510       $SG20526                   00000001400c9510     pjsip-core-x86_64-x64-vc14-debug-dynamic:sip_transaction.obj
 0003:00020620       $SG20531                   00000001400c9620     pjsip-core-x86_64-x64-vc14-debug-dynamic:sip_transaction.obj
 0003:00020730       $SG20555                   00000001400c9730     pjsip-core-x86_64-x64-vc14-debug-dynamic:sip_transaction.obj
 0003:00020840       $SG20560                   00000001400c9840     pjsip-core-x86_64-x64-vc14-debug-dynamic:sip_transaction.obj
 0003:00020950       $SG20561                   00000001400c9950     pjsip-core-x86_64-x64-vc14-debug-dynamic:sip_transaction.obj
 0003:000209a0       $SG20574                   00000001400c99a0     pjsip-core-x86_64-x64-vc14-debug-dynamic:sip_transaction.obj
 0003:00020ab0       $SG20597                   00000001400c9ab0     pjsip-core-x86_64-x64-vc14-debug-dynamic:sip_transaction.obj
 0003:00020bc0       $SG20598                   00000001400c9bc0     pjsip-core-x86_64-x64-vc14-debug-dynamic:sip_transaction.obj
 0003:00020c10       $SG20601                   00000001400c9c10     pjsip-core-x86_64-x64-vc14-debug-dynamic:sip_transaction.obj
 0003:00020d20       $SG20602                   00000001400c9d20     pjsip-core-x86_64-x64-vc14-debug-dynamic:sip_transaction.obj
 0003:00020df0       $SG20604                   00000001400c9df0     pjsip-core-x86_64-x64-vc14-debug-dynamic:sip_transaction.obj
 0003:00020f00       $SG20605                   00000001400c9f00     pjsip-core-x86_64-x64-vc14-debug-dynamic:sip_transaction.obj
 0003:00020f50       $SG20627                   00000001400c9f50     pjsip-core-x86_64-x64-vc14-debug-dynamic:sip_transaction.obj
 0003:00021060       $SG20628                   00000001400ca060     pjsip-core-x86_64-x64-vc14-debug-dynamic:sip_transaction.obj
 0003:000210b0       $SG20629                   00000001400ca0b0     pjsip-core-x86_64-x64-vc14-debug-dynamic:sip_transaction.obj
 0003:000211b8       $SG20645                   00000001400ca1b8     pjsip-core-x86_64-x64-vc14-debug-dynamic:sip_transaction.obj
 0003:000211d0       $SG20646                   00000001400ca1d0     pjsip-core-x86_64-x64-vc14-debug-dynamic:sip_transaction.obj
 0003:000212d8       $SG20647                   00000001400ca2d8     pjsip-core-x86_64-x64-vc14-debug-dynamic:sip_transaction.obj
 0003:00021300       $SG20658                   00000001400ca300     pjsip-core-x86_64-x64-vc14-debug-dynamic:sip_transaction.obj
 0003:00021410       $SG20659                   00000001400ca410     pjsip-core-x86_64-x64-vc14-debug-dynamic:sip_transaction.obj
 0003:00021460       $SG20660                   00000001400ca460     pjsip-core-x86_64-x64-vc14-debug-dynamic:sip_transaction.obj
 0003:00021568       $SG20661                   00000001400ca568     pjsip-core-x86_64-x64-vc14-debug-dynamic:sip_transaction.obj
 0003:000215a0       $SG20709                   00000001400ca5a0     pjsip-core-x86_64-x64-vc14-debug-dynamic:sip_transaction.obj
 0003:000216b0       $SG20710                   00000001400ca6b0     pjsip-core-x86_64-x64-vc14-debug-dynamic:sip_transaction.obj
 0003:00021760       $SG20711                   00000001400ca760     pjsip-core-x86_64-x64-vc14-debug-dynamic:sip_transaction.obj
 0003:00021868       $SG20712                   00000001400ca868     pjsip-core-x86_64-x64-vc14-debug-dynamic:sip_transaction.obj
 0003:000218a0       $SG20716                   00000001400ca8a0     pjsip-core-x86_64-x64-vc14-debug-dynamic:sip_transaction.obj
 0003:000219a8       $SG20717                   00000001400ca9a8     pjsip-core-x86_64-x64-vc14-debug-dynamic:sip_transaction.obj
 0003:000219e0       $SG20724                   00000001400ca9e0     pjsip-core-x86_64-x64-vc14-debug-dynamic:sip_transaction.obj
 0003:00021ae8       $SG20725                   00000001400caae8     pjsip-core-x86_64-x64-vc14-debug-dynamic:sip_transaction.obj
 0003:00021b30       $SG20757                   00000001400cab30     pjsip-core-x86_64-x64-vc14-debug-dynamic:sip_transaction.obj
 0003:00021c40       $SG20761                   00000001400cac40     pjsip-core-x86_64-x64-vc14-debug-dynamic:sip_transaction.obj
 0003:00021d50       $SG20762                   00000001400cad50     pjsip-core-x86_64-x64-vc14-debug-dynamic:sip_transaction.obj
 0003:00021dc0       $SG20763                   00000001400cadc0     pjsip-core-x86_64-x64-vc14-debug-dynamic:sip_transaction.obj
 0003:00021ec8       $SG20764                   00000001400caec8     pjsip-core-x86_64-x64-vc14-debug-dynamic:sip_transaction.obj
 0003:00021f00       $SG20768                   00000001400caf00     pjsip-core-x86_64-x64-vc14-debug-dynamic:sip_transaction.obj
 0003:00021f20       $SG20769                   00000001400caf20     pjsip-core-x86_64-x64-vc14-debug-dynamic:sip_transaction.obj
 0003:00022028       $SG20770                   00000001400cb028     pjsip-core-x86_64-x64-vc14-debug-dynamic:sip_transaction.obj
 0003:00022058       $SG20771                   00000001400cb058     pjsip-core-x86_64-x64-vc14-debug-dynamic:sip_transaction.obj
 0003:00022070       $SG20772                   00000001400cb070     pjsip-core-x86_64-x64-vc14-debug-dynamic:sip_transaction.obj
 0003:00022178       $SG20773                   00000001400cb178     pjsip-core-x86_64-x64-vc14-debug-dynamic:sip_transaction.obj
 0003:000221a0       $SG20795                   00000001400cb1a0     pjsip-core-x86_64-x64-vc14-debug-dynamic:sip_transaction.obj
 0003:000222b0       $SG20796                   00000001400cb2b0     pjsip-core-x86_64-x64-vc14-debug-dynamic:sip_transaction.obj
 0003:00022360       $SG20799                   00000001400cb360     pjsip-core-x86_64-x64-vc14-debug-dynamic:sip_transaction.obj
 0003:00022470       $SG20800                   00000001400cb470     pjsip-core-x86_64-x64-vc14-debug-dynamic:sip_transaction.obj
 0003:000224b8       $SG20803                   00000001400cb4b8     pjsip-core-x86_64-x64-vc14-debug-dynamic:sip_transaction.obj
 0003:000224e0       $SG20804                   00000001400cb4e0     pjsip-core-x86_64-x64-vc14-debug-dynamic:sip_transaction.obj
 0003:000225e8       $SG20805                   00000001400cb5e8     pjsip-core-x86_64-x64-vc14-debug-dynamic:sip_transaction.obj
 0003:00022628       $SG20831                   00000001400cb628     pjsip-core-x86_64-x64-vc14-debug-dynamic:sip_transaction.obj
 0003:00022640       $SG20832                   00000001400cb640     pjsip-core-x86_64-x64-vc14-debug-dynamic:sip_transaction.obj
 0003:00022748       $SG20833                   00000001400cb748     pjsip-core-x86_64-x64-vc14-debug-dynamic:sip_transaction.obj
 0003:00022770       $SG20855                   00000001400cb770     pjsip-core-x86_64-x64-vc14-debug-dynamic:sip_transaction.obj
 0003:00022880       $SG20856                   00000001400cb880     pjsip-core-x86_64-x64-vc14-debug-dynamic:sip_transaction.obj
 0003:000228d0       $SG20865                   00000001400cb8d0     pjsip-core-x86_64-x64-vc14-debug-dynamic:sip_transaction.obj
 0003:00022900       $SG20877                   00000001400cb900     pjsip-core-x86_64-x64-vc14-debug-dynamic:sip_transaction.obj
 0003:00022a10       $SG20878                   00000001400cba10     pjsip-core-x86_64-x64-vc14-debug-dynamic:sip_transaction.obj
 0003:00022ab0       $SG20894                   00000001400cbab0     pjsip-core-x86_64-x64-vc14-debug-dynamic:sip_transaction.obj
 0003:00022bc0       $SG20895                   00000001400cbbc0     pjsip-core-x86_64-x64-vc14-debug-dynamic:sip_transaction.obj
 0003:00022c10       $SG20903                   00000001400cbc10     pjsip-core-x86_64-x64-vc14-debug-dynamic:sip_transaction.obj
 0003:00022d20       $SG20904                   00000001400cbd20     pjsip-core-x86_64-x64-vc14-debug-dynamic:sip_transaction.obj
 0003:00022d60       $SG20908                   00000001400cbd60     pjsip-core-x86_64-x64-vc14-debug-dynamic:sip_transaction.obj
 0003:00022e70       $SG20909                   00000001400cbe70     pjsip-core-x86_64-x64-vc14-debug-dynamic:sip_transaction.obj
 0003:00022eb0       $SG20910                   00000001400cbeb0     pjsip-core-x86_64-x64-vc14-debug-dynamic:sip_transaction.obj
 0003:00022ed0       $SG20911                   00000001400cbed0     pjsip-core-x86_64-x64-vc14-debug-dynamic:sip_transaction.obj
 0003:00022fd8       $SG20912                   00000001400cbfd8     pjsip-core-x86_64-x64-vc14-debug-dynamic:sip_transaction.obj
 0003:00023000       $SG20931                   00000001400cc000     pjsip-core-x86_64-x64-vc14-debug-dynamic:sip_transaction.obj
 0003:00023110       $SG20932                   00000001400cc110     pjsip-core-x86_64-x64-vc14-debug-dynamic:sip_transaction.obj
 0003:00023160       $SG20933                   00000001400cc160     pjsip-core-x86_64-x64-vc14-debug-dynamic:sip_transaction.obj
 0003:00023268       $SG20934                   00000001400cc268     pjsip-core-x86_64-x64-vc14-debug-dynamic:sip_transaction.obj
 0003:000232a0       $SG20935                   00000001400cc2a0     pjsip-core-x86_64-x64-vc14-debug-dynamic:sip_transaction.obj
 0003:000233b0       $SG20936                   00000001400cc3b0     pjsip-core-x86_64-x64-vc14-debug-dynamic:sip_transaction.obj
 0003:00023400       $SG20940                   00000001400cc400     pjsip-core-x86_64-x64-vc14-debug-dynamic:sip_transaction.obj
 0003:00023510       $SG20941                   00000001400cc510     pjsip-core-x86_64-x64-vc14-debug-dynamic:sip_transaction.obj
 0003:000235d0       $SG20946                   00000001400cc5d0     pjsip-core-x86_64-x64-vc14-debug-dynamic:sip_transaction.obj
 0003:000236e0       $SG20947                   00000001400cc6e0     pjsip-core-x86_64-x64-vc14-debug-dynamic:sip_transaction.obj
 0003:00023740       $SG20948                   00000001400cc740     pjsip-core-x86_64-x64-vc14-debug-dynamic:sip_transaction.obj
 0003:00023760       $SG20949                   00000001400cc760     pjsip-core-x86_64-x64-vc14-debug-dynamic:sip_transaction.obj
 0003:00023868       $SG20950                   00000001400cc868     pjsip-core-x86_64-x64-vc14-debug-dynamic:sip_transaction.obj
 0003:00023890       $SG20958                   00000001400cc890     pjsip-core-x86_64-x64-vc14-debug-dynamic:sip_transaction.obj
 0003:000239a0       $SG20959                   00000001400cc9a0     pjsip-core-x86_64-x64-vc14-debug-dynamic:sip_transaction.obj
 0003:00024fa0       $SG19895                   00000001400cdfa0     pjsip-core-x86_64-x64-vc14-debug-dynamic:sip_ua_layer.obj
 0003:00024fb0       mod_ua                     00000001400cdfb0     pjsip-core-x86_64-x64-vc14-debug-dynamic:sip_ua_layer.obj
 0003:00025088       $SG19903                   00000001400ce088     pjsip-core-x86_64-x64-vc14-debug-dynamic:sip_ua_layer.obj
 0003:00025090       $SG19905                   00000001400ce090     pjsip-core-x86_64-x64-vc14-debug-dynamic:sip_ua_layer.obj
 0003:00025098       $SG19935                   00000001400ce098     pjsip-core-x86_64-x64-vc14-debug-dynamic:sip_ua_layer.obj
 0003:000250c0       $SG19934                   00000001400ce0c0     pjsip-core-x86_64-x64-vc14-debug-dynamic:sip_ua_layer.obj
 0003:000251c0       $SG19945                   00000001400ce1c0     pjsip-core-x86_64-x64-vc14-debug-dynamic:sip_ua_layer.obj
 0003:000252c0       $SG19946                   00000001400ce2c0     pjsip-core-x86_64-x64-vc14-debug-dynamic:sip_ua_layer.obj
 0003:000252e4       $SG20284                   00000001400ce2e4     pjsip-core-x86_64-x64-vc14-debug-dynamic:sip_ua_layer.obj
 0003:000252e8       $SG19956                   00000001400ce2e8     pjsip-core-x86_64-x64-vc14-debug-dynamic:sip_ua_layer.obj
 0003:00025310       $SG19955                   00000001400ce310     pjsip-core-x86_64-x64-vc14-debug-dynamic:sip_ua_layer.obj
 0003:00025410       $SG19991                   00000001400ce410     pjsip-core-x86_64-x64-vc14-debug-dynamic:sip_ua_layer.obj
 0003:00025510       $SG19992                   00000001400ce510     pjsip-core-x86_64-x64-vc14-debug-dynamic:sip_ua_layer.obj
 0003:00025524       $SG20285                   00000001400ce524     pjsip-core-x86_64-x64-vc14-debug-dynamic:sip_ua_layer.obj
 0003:00025528       $SG20032                   00000001400ce528     pjsip-core-x86_64-x64-vc14-debug-dynamic:sip_ua_layer.obj
 0003:00025540       $SG19995                   00000001400ce540     pjsip-core-x86_64-x64-vc14-debug-dynamic:sip_ua_layer.obj
 0003:00025640       $SG19996                   00000001400ce640     pjsip-core-x86_64-x64-vc14-debug-dynamic:sip_ua_layer.obj
 0003:000256d8       $SG20170                   00000001400ce6d8     pjsip-core-x86_64-x64-vc14-debug-dynamic:sip_ua_layer.obj
 0003:00025710       $SG20001                   00000001400ce710     pjsip-core-x86_64-x64-vc14-debug-dynamic:sip_ua_layer.obj
 0003:00025810       $SG20002                   00000001400ce810     pjsip-core-x86_64-x64-vc14-debug-dynamic:sip_ua_layer.obj
 0003:00025878       $SG20178                   00000001400ce878     pjsip-core-x86_64-x64-vc14-debug-dynamic:sip_ua_layer.obj
 0003:000258b0       $SG20031                   00000001400ce8b0     pjsip-core-x86_64-x64-vc14-debug-dynamic:sip_ua_layer.obj
 0003:000259b0       $SG20034                   00000001400ce9b0     pjsip-core-x86_64-x64-vc14-debug-dynamic:sip_ua_layer.obj
 0003:00025ab0       $SG20035                   00000001400ceab0     pjsip-core-x86_64-x64-vc14-debug-dynamic:sip_ua_layer.obj
 0003:00025acc       $SG20331                   00000001400ceacc     pjsip-core-x86_64-x64-vc14-debug-dynamic:sip_ua_layer.obj
 0003:00025ad0       $SG20037                   00000001400cead0     pjsip-core-x86_64-x64-vc14-debug-dynamic:sip_ua_layer.obj
 0003:00025af0       $SG20038                   00000001400ceaf0     pjsip-core-x86_64-x64-vc14-debug-dynamic:sip_ua_layer.obj
 0003:00025bf0       $SG20039                   00000001400cebf0     pjsip-core-x86_64-x64-vc14-debug-dynamic:sip_ua_layer.obj
 0003:00025c30       $SG20062                   00000001400cec30     pjsip-core-x86_64-x64-vc14-debug-dynamic:sip_ua_layer.obj
 0003:00025d30       $SG20063                   00000001400ced30     pjsip-core-x86_64-x64-vc14-debug-dynamic:sip_ua_layer.obj
 0003:00025d50       $SG20097                   00000001400ced50     pjsip-core-x86_64-x64-vc14-debug-dynamic:sip_ua_layer.obj
 0003:00025e50       $SG20098                   00000001400cee50     pjsip-core-x86_64-x64-vc14-debug-dynamic:sip_ua_layer.obj
 0003:00025e98       $SG20171                   00000001400cee98     pjsip-core-x86_64-x64-vc14-debug-dynamic:sip_ua_layer.obj
 0003:00025ea8       $SG20179                   00000001400ceea8     pjsip-core-x86_64-x64-vc14-debug-dynamic:sip_ua_layer.obj
 0003:00025eb8       $SG20181                   00000001400ceeb8     pjsip-core-x86_64-x64-vc14-debug-dynamic:sip_ua_layer.obj
 0003:00025ed8       $SG20182                   00000001400ceed8     pjsip-core-x86_64-x64-vc14-debug-dynamic:sip_ua_layer.obj
 0003:00025ee8       $SG20260                   00000001400ceee8     pjsip-core-x86_64-x64-vc14-debug-dynamic:sip_ua_layer.obj
 0003:00025f10       $SG20237                   00000001400cef10     pjsip-core-x86_64-x64-vc14-debug-dynamic:sip_ua_layer.obj
 0003:00025f58       $SG20238                   00000001400cef58     pjsip-core-x86_64-x64-vc14-debug-dynamic:sip_ua_layer.obj
 0003:00025f70       $SG20239                   00000001400cef70     pjsip-core-x86_64-x64-vc14-debug-dynamic:sip_ua_layer.obj
 0003:00026070       $SG20240                   00000001400cf070     pjsip-core-x86_64-x64-vc14-debug-dynamic:sip_ua_layer.obj
 0003:000260d0       $SG20250                   00000001400cf0d0     pjsip-core-x86_64-x64-vc14-debug-dynamic:sip_ua_layer.obj
 0003:00026100       $SG20251                   00000001400cf100     pjsip-core-x86_64-x64-vc14-debug-dynamic:sip_ua_layer.obj
 0003:00026110       $SG20256                   00000001400cf110     pjsip-core-x86_64-x64-vc14-debug-dynamic:sip_ua_layer.obj
 0003:00026168       $SG20257                   00000001400cf168     pjsip-core-x86_64-x64-vc14-debug-dynamic:sip_ua_layer.obj
 0003:00026180       $SG20259                   00000001400cf180     pjsip-core-x86_64-x64-vc14-debug-dynamic:sip_ua_layer.obj
 0003:00026280       $SG20261                   00000001400cf280     pjsip-core-x86_64-x64-vc14-debug-dynamic:sip_ua_layer.obj
 0003:00026380       $SG20262                   00000001400cf380     pjsip-core-x86_64-x64-vc14-debug-dynamic:sip_ua_layer.obj
 0003:000263b0       $SG20263                   00000001400cf3b0     pjsip-core-x86_64-x64-vc14-debug-dynamic:sip_ua_layer.obj
 0003:000264b0       $SG20264                   00000001400cf4b0     pjsip-core-x86_64-x64-vc14-debug-dynamic:sip_ua_layer.obj
 0003:000264d8       $SG20283                   00000001400cf4d8     pjsip-core-x86_64-x64-vc14-debug-dynamic:sip_ua_layer.obj
 0003:000264f0       $SG20286                   00000001400cf4f0     pjsip-core-x86_64-x64-vc14-debug-dynamic:sip_ua_layer.obj
 0003:00026500       $SG20290                   00000001400cf500     pjsip-core-x86_64-x64-vc14-debug-dynamic:sip_ua_layer.obj
 0003:00026518       $SG20318                   00000001400cf518     pjsip-core-x86_64-x64-vc14-debug-dynamic:sip_ua_layer.obj
 0003:00026538       $SG20319                   00000001400cf538     pjsip-core-x86_64-x64-vc14-debug-dynamic:sip_ua_layer.obj
 0003:00026548       $SG20322                   00000001400cf548     pjsip-core-x86_64-x64-vc14-debug-dynamic:sip_ua_layer.obj
 0003:00026560       $SG20323                   00000001400cf560     pjsip-core-x86_64-x64-vc14-debug-dynamic:sip_ua_layer.obj
 0003:00026570       $SG20328                   00000001400cf570     pjsip-core-x86_64-x64-vc14-debug-dynamic:sip_ua_layer.obj
 0003:00026580       $SG20329                   00000001400cf580     pjsip-core-x86_64-x64-vc14-debug-dynamic:sip_ua_layer.obj
 0003:00026590       $SG20332                   00000001400cf590     pjsip-core-x86_64-x64-vc14-debug-dynamic:sip_ua_layer.obj
 0003:000265a0       $SG20333                   00000001400cf5a0     pjsip-core-x86_64-x64-vc14-debug-dynamic:sip_ua_layer.obj
 0003:00026a28       $SG20004                   00000001400cfa28     pjsip-core-x86_64-x64-vc14-debug-dynamic:sip_dialog.obj
 0003:00026a30       $SG20013                   00000001400cfa30     pjsip-core-x86_64-x64-vc14-debug-dynamic:sip_dialog.obj
 0003:00026a3c       $SG20015                   00000001400cfa3c     pjsip-core-x86_64-x64-vc14-debug-dynamic:sip_dialog.obj
 0003:00026a44       $SG20017                   00000001400cfa44     pjsip-core-x86_64-x64-vc14-debug-dynamic:sip_dialog.obj
 0003:00026a4c       $SG20019                   00000001400cfa4c     pjsip-core-x86_64-x64-vc14-debug-dynamic:sip_dialog.obj
 0003:00026a54       $SG20142                   00000001400cfa54     pjsip-core-x86_64-x64-vc14-debug-dynamic:sip_dialog.obj
 0003:00026a58       $SG20030                   00000001400cfa58     pjsip-core-x86_64-x64-vc14-debug-dynamic:sip_dialog.obj
 0003:00026a6c       $SG20055                   00000001400cfa6c     pjsip-core-x86_64-x64-vc14-debug-dynamic:sip_dialog.obj
 0003:00026a78       $SG20059                   00000001400cfa78     pjsip-core-x86_64-x64-vc14-debug-dynamic:sip_dialog.obj
 0003:00026aa0       $SG20058                   00000001400cfaa0     pjsip-core-x86_64-x64-vc14-debug-dynamic:sip_dialog.obj
 0003:00026b9c       $SG20060                   00000001400cfb9c     pjsip-core-x86_64-x64-vc14-debug-dynamic:sip_dialog.obj
 0003:00026ba4       $SG20143                   00000001400cfba4     pjsip-core-x86_64-x64-vc14-debug-dynamic:sip_dialog.obj
 0003:00026bb0       $SG20095                   00000001400cfbb0     pjsip-core-x86_64-x64-vc14-debug-dynamic:sip_dialog.obj
 0003:00026cb0       $SG20096                   00000001400cfcb0     pjsip-core-x86_64-x64-vc14-debug-dynamic:sip_dialog.obj
 0003:00026d00       $SG20136                   00000001400cfd00     pjsip-core-x86_64-x64-vc14-debug-dynamic:sip_dialog.obj
 0003:00026e00       $SG20137                   00000001400cfe00     pjsip-core-x86_64-x64-vc14-debug-dynamic:sip_dialog.obj
 0003:00026eb8       $SG20151                   00000001400cfeb8     pjsip-core-x86_64-x64-vc14-debug-dynamic:sip_dialog.obj
 0003:00026ebc       $SG20152                   00000001400cfebc     pjsip-core-x86_64-x64-vc14-debug-dynamic:sip_dialog.obj
 0003:00026ec4       $SG20155                   00000001400cfec4     pjsip-core-x86_64-x64-vc14-debug-dynamic:sip_dialog.obj
 0003:00026ecc       $SG20263                   00000001400cfecc     pjsip-core-x86_64-x64-vc14-debug-dynamic:sip_dialog.obj
 0003:00026ed0       $SG20158                   00000001400cfed0     pjsip-core-x86_64-x64-vc14-debug-dynamic:sip_dialog.obj
 0003:00026ee8       $SG20252                   00000001400cfee8     pjsip-core-x86_64-x64-vc14-debug-dynamic:sip_dialog.obj
 0003:00026f00       $SG20238                   00000001400cff00     pjsip-core-x86_64-x64-vc14-debug-dynamic:sip_dialog.obj
 0003:00027000       $SG20239                   00000001400d0000     pjsip-core-x86_64-x64-vc14-debug-dynamic:sip_dialog.obj
 0003:00027030       $SG20241                   00000001400d0030     pjsip-core-x86_64-x64-vc14-debug-dynamic:sip_dialog.obj
 0003:00027130       $SG20242                   00000001400d0130     pjsip-core-x86_64-x64-vc14-debug-dynamic:sip_dialog.obj
 0003:00027190       $SG20244                   00000001400d0190     pjsip-core-x86_64-x64-vc14-debug-dynamic:sip_dialog.obj
 0003:00027290       $SG20245                   00000001400d0290     pjsip-core-x86_64-x64-vc14-debug-dynamic:sip_dialog.obj
 0003:000272d4       $SG20264                   00000001400d02d4     pjsip-core-x86_64-x64-vc14-debug-dynamic:sip_dialog.obj
 0003:000272e0       $SG20247                   00000001400d02e0     pjsip-core-x86_64-x64-vc14-debug-dynamic:sip_dialog.obj
 0003:000273e0       $SG20248                   00000001400d03e0     pjsip-core-x86_64-x64-vc14-debug-dynamic:sip_dialog.obj
 0003:00027468       $SG20258                   00000001400d0468     pjsip-core-x86_64-x64-vc14-debug-dynamic:sip_dialog.obj
 0003:00027480       $SG20267                   00000001400d0480     pjsip-core-x86_64-x64-vc14-debug-dynamic:sip_dialog.obj
 0003:00027488       $SG20273                   00000001400d0488     pjsip-core-x86_64-x64-vc14-debug-dynamic:sip_dialog.obj
 0003:000274a0       $SG20275                   00000001400d04a0     pjsip-core-x86_64-x64-vc14-debug-dynamic:sip_dialog.obj
 0003:000275a0       $SG20276                   00000001400d05a0     pjsip-core-x86_64-x64-vc14-debug-dynamic:sip_dialog.obj
 0003:000275c8       $SG20301                   00000001400d05c8     pjsip-core-x86_64-x64-vc14-debug-dynamic:sip_dialog.obj
 0003:000275e0       $SG20300                   00000001400d05e0     pjsip-core-x86_64-x64-vc14-debug-dynamic:sip_dialog.obj
 0003:000276e0       $SG20315                   00000001400d06e0     pjsip-core-x86_64-x64-vc14-debug-dynamic:sip_dialog.obj
 0003:000277e0       $SG20316                   00000001400d07e0     pjsip-core-x86_64-x64-vc14-debug-dynamic:sip_dialog.obj
 0003:000277e8       $SG20395                   00000001400d07e8     pjsip-core-x86_64-x64-vc14-debug-dynamic:sip_dialog.obj
 0003:00027800       $SG20377                   00000001400d0800     pjsip-core-x86_64-x64-vc14-debug-dynamic:sip_dialog.obj
 0003:00027900       $SG20378                   00000001400d0900     pjsip-core-x86_64-x64-vc14-debug-dynamic:sip_dialog.obj
 0003:00027940       $SG20380                   00000001400d0940     pjsip-core-x86_64-x64-vc14-debug-dynamic:sip_dialog.obj
 0003:00027a40       $SG20381                   00000001400d0a40     pjsip-core-x86_64-x64-vc14-debug-dynamic:sip_dialog.obj
 0003:00027a80       $SG20384                   00000001400d0a80     pjsip-core-x86_64-x64-vc14-debug-dynamic:sip_dialog.obj
 0003:00027b80       $SG20385                   00000001400d0b80     pjsip-core-x86_64-x64-vc14-debug-dynamic:sip_dialog.obj
 0003:00027be4       $SG20398                   00000001400d0be4     pjsip-core-x86_64-x64-vc14-debug-dynamic:sip_dialog.obj
 0003:00027bf0       $SG20387                   00000001400d0bf0     pjsip-core-x86_64-x64-vc14-debug-dynamic:sip_dialog.obj
 0003:00027cf0       $SG20388                   00000001400d0cf0     pjsip-core-x86_64-x64-vc14-debug-dynamic:sip_dialog.obj
 0003:00027d34       $SG21136                   00000001400d0d34     pjsip-core-x86_64-x64-vc14-debug-dynamic:sip_dialog.obj
 0003:00027d40       $SG20396                   00000001400d0d40     pjsip-core-x86_64-x64-vc14-debug-dynamic:sip_dialog.obj
 0003:00027e40       $SG20397                   00000001400d0e40     pjsip-core-x86_64-x64-vc14-debug-dynamic:sip_dialog.obj
 0003:00027e70       $SG20403                   00000001400d0e70     pjsip-core-x86_64-x64-vc14-debug-dynamic:sip_dialog.obj
 0003:00027e88       $SG20425                   00000001400d0e88     pjsip-core-x86_64-x64-vc14-debug-dynamic:sip_dialog.obj
 0003:00027eb0       $SG20424                   00000001400d0eb0     pjsip-core-x86_64-x64-vc14-debug-dynamic:sip_dialog.obj
 0003:00027fb0       $SG20427                   00000001400d0fb0     pjsip-core-x86_64-x64-vc14-debug-dynamic:sip_dialog.obj
 0003:000280b0       $SG20428                   00000001400d10b0     pjsip-core-x86_64-x64-vc14-debug-dynamic:sip_dialog.obj
 0003:000280d8       $SG20431                   00000001400d10d8     pjsip-core-x86_64-x64-vc14-debug-dynamic:sip_dialog.obj
 0003:00028100       $SG20432                   00000001400d1100     pjsip-core-x86_64-x64-vc14-debug-dynamic:sip_dialog.obj
 0003:00028200       $SG20433                   00000001400d1200     pjsip-core-x86_64-x64-vc14-debug-dynamic:sip_dialog.obj
 0003:00028250       $SG20448                   00000001400d1250     pjsip-core-x86_64-x64-vc14-debug-dynamic:sip_dialog.obj
 0003:00028350       $SG20449                   00000001400d1350     pjsip-core-x86_64-x64-vc14-debug-dynamic:sip_dialog.obj
 0003:00028378       $SG20452                   00000001400d1378     pjsip-core-x86_64-x64-vc14-debug-dynamic:sip_dialog.obj
 0003:000283a0       $SG20451                   00000001400d13a0     pjsip-core-x86_64-x64-vc14-debug-dynamic:sip_dialog.obj
 0003:000284a0       $SG20469                   00000001400d14a0     pjsip-core-x86_64-x64-vc14-debug-dynamic:sip_dialog.obj
 0003:000285a0       $SG20470                   00000001400d15a0     pjsip-core-x86_64-x64-vc14-debug-dynamic:sip_dialog.obj
 0003:000285a8       $SG20489                   00000001400d15a8     pjsip-core-x86_64-x64-vc14-debug-dynamic:sip_dialog.obj
 0003:000285c0       $SG20488                   00000001400d15c0     pjsip-core-x86_64-x64-vc14-debug-dynamic:sip_dialog.obj
 0003:000286c0       $SG20491                   00000001400d16c0     pjsip-core-x86_64-x64-vc14-debug-dynamic:sip_dialog.obj
 0003:000286e0       $SG20538                   00000001400d16e0     pjsip-core-x86_64-x64-vc14-debug-dynamic:sip_dialog.obj
 0003:000287e0       $SG20539                   00000001400d17e0     pjsip-core-x86_64-x64-vc14-debug-dynamic:sip_dialog.obj
 0003:00028808       $SG20543                   00000001400d1808     pjsip-core-x86_64-x64-vc14-debug-dynamic:sip_dialog.obj
 0003:00028830       $SG20542                   00000001400d1830     pjsip-core-x86_64-x64-vc14-debug-dynamic:sip_dialog.obj
 0003:00028930       $SG20562                   00000001400d1930     pjsip-core-x86_64-x64-vc14-debug-dynamic:sip_dialog.obj
 0003:00028a30       $SG20563                   00000001400d1a30     pjsip-core-x86_64-x64-vc14-debug-dynamic:sip_dialog.obj
 0003:00028a38       $SG20565                   00000001400d1a38     pjsip-core-x86_64-x64-vc14-debug-dynamic:sip_dialog.obj
 0003:00028a58       $SG20577                   00000001400d1a58     pjsip-core-x86_64-x64-vc14-debug-dynamic:sip_dialog.obj
 0003:00028a60       $SG20576                   00000001400d1a60     pjsip-core-x86_64-x64-vc14-debug-dynamic:sip_dialog.obj
 0003:00028b60       $SG20625                   00000001400d1b60     pjsip-core-x86_64-x64-vc14-debug-dynamic:sip_dialog.obj
 0003:00028c60       $SG20626                   00000001400d1c60     pjsip-core-x86_64-x64-vc14-debug-dynamic:sip_dialog.obj
 0003:00028c78       $SG20633                   00000001400d1c78     pjsip-core-x86_64-x64-vc14-debug-dynamic:sip_dialog.obj
 0003:00028ca0       $SG20629                   00000001400d1ca0     pjsip-core-x86_64-x64-vc14-debug-dynamic:sip_dialog.obj
 0003:00028da0       $SG20630                   00000001400d1da0     pjsip-core-x86_64-x64-vc14-debug-dynamic:sip_dialog.obj
 0003:00028de0       $SG20632                   00000001400d1de0     pjsip-core-x86_64-x64-vc14-debug-dynamic:sip_dialog.obj
 0003:00028ee0       $SG20635                   00000001400d1ee0     pjsip-core-x86_64-x64-vc14-debug-dynamic:sip_dialog.obj
 0003:00028f10       $SG20638                   00000001400d1f10     pjsip-core-x86_64-x64-vc14-debug-dynamic:sip_dialog.obj
 0003:00028f58       $SG20659                   00000001400d1f58     pjsip-core-x86_64-x64-vc14-debug-dynamic:sip_dialog.obj
 0003:00028f60       $SG20658                   00000001400d1f60     pjsip-core-x86_64-x64-vc14-debug-dynamic:sip_dialog.obj
 0003:00029060       $SG20662                   00000001400d2060     pjsip-core-x86_64-x64-vc14-debug-dynamic:sip_dialog.obj
 0003:00029160       $SG20663                   00000001400d2160     pjsip-core-x86_64-x64-vc14-debug-dynamic:sip_dialog.obj
 0003:00029198       $SG20683                   00000001400d2198     pjsip-core-x86_64-x64-vc14-debug-dynamic:sip_dialog.obj
 0003:000291a0       $SG20682                   00000001400d21a0     pjsip-core-x86_64-x64-vc14-debug-dynamic:sip_dialog.obj
 0003:000292a0       $SG20686                   00000001400d22a0     pjsip-core-x86_64-x64-vc14-debug-dynamic:sip_dialog.obj
 0003:000293a0       $SG20687                   00000001400d23a0     pjsip-core-x86_64-x64-vc14-debug-dynamic:sip_dialog.obj
 0003:000293d8       $SG20739                   00000001400d23d8     pjsip-core-x86_64-x64-vc14-debug-dynamic:sip_dialog.obj
 0003:00029410       $SG20738                   00000001400d2410     pjsip-core-x86_64-x64-vc14-debug-dynamic:sip_dialog.obj
 0003:00029510       $SG20765                   00000001400d2510     pjsip-core-x86_64-x64-vc14-debug-dynamic:sip_dialog.obj
 0003:00029548       $SG20766                   00000001400d2548     pjsip-core-x86_64-x64-vc14-debug-dynamic:sip_dialog.obj
 0003:00029558       $SG20767                   00000001400d2558     pjsip-core-x86_64-x64-vc14-debug-dynamic:sip_dialog.obj
 0003:00029570       $SG20768                   00000001400d2570     pjsip-core-x86_64-x64-vc14-debug-dynamic:sip_dialog.obj
 0003:00029580       $SG20811                   00000001400d2580     pjsip-core-x86_64-x64-vc14-debug-dynamic:sip_dialog.obj
 0003:00029680       $SG20812                   00000001400d2680     pjsip-core-x86_64-x64-vc14-debug-dynamic:sip_dialog.obj
 0003:000296b8       $SG20822                   00000001400d26b8     pjsip-core-x86_64-x64-vc14-debug-dynamic:sip_dialog.obj
 0003:000296d8       $SG20869                   00000001400d26d8     pjsip-core-x86_64-x64-vc14-debug-dynamic:sip_dialog.obj
 0003:00029700       $SG20814                   00000001400d2700     pjsip-core-x86_64-x64-vc14-debug-dynamic:sip_dialog.obj
 0003:00029800       $SG20815                   00000001400d2800     pjsip-core-x86_64-x64-vc14-debug-dynamic:sip_dialog.obj
 0003:00029850       $SG20817                   00000001400d2850     pjsip-core-x86_64-x64-vc14-debug-dynamic:sip_dialog.obj
 0003:00029860       $SG20821                   00000001400d2860     pjsip-core-x86_64-x64-vc14-debug-dynamic:sip_dialog.obj
 0003:00029960       $SG20826                   00000001400d2960     pjsip-core-x86_64-x64-vc14-debug-dynamic:sip_dialog.obj
 0003:00029a60       $SG20827                   00000001400d2a60     pjsip-core-x86_64-x64-vc14-debug-dynamic:sip_dialog.obj
 0003:00029a90       $SG20868                   00000001400d2a90     pjsip-core-x86_64-x64-vc14-debug-dynamic:sip_dialog.obj
 0003:00029b90       $SG20883                   00000001400d2b90     pjsip-core-x86_64-x64-vc14-debug-dynamic:sip_dialog.obj
 0003:00029c90       $SG20884                   00000001400d2c90     pjsip-core-x86_64-x64-vc14-debug-dynamic:sip_dialog.obj
 0003:00029cc0       $SG20929                   00000001400d2cc0     pjsip-core-x86_64-x64-vc14-debug-dynamic:sip_dialog.obj
 0003:00029dc0       $SG20930                   00000001400d2dc0     pjsip-core-x86_64-x64-vc14-debug-dynamic:sip_dialog.obj
 0003:00029df8       $SG21108                   00000001400d2df8     pjsip-core-x86_64-x64-vc14-debug-dynamic:sip_dialog.obj
 0003:00029e30       $SG20932                   00000001400d2e30     pjsip-core-x86_64-x64-vc14-debug-dynamic:sip_dialog.obj
 0003:00029f30       $SG20933                   00000001400d2f30     pjsip-core-x86_64-x64-vc14-debug-dynamic:sip_dialog.obj
 0003:00029f80       $SG20936                   00000001400d2f80     pjsip-core-x86_64-x64-vc14-debug-dynamic:sip_dialog.obj
 0003:0002a080       $SG20937                   00000001400d3080     pjsip-core-x86_64-x64-vc14-debug-dynamic:sip_dialog.obj
 0003:0002a0c8       $SG20993                   00000001400d30c8     pjsip-core-x86_64-x64-vc14-debug-dynamic:sip_dialog.obj
 0003:0002a0d8       $SG21090                   00000001400d30d8     pjsip-core-x86_64-x64-vc14-debug-dynamic:sip_dialog.obj
 0003:0002a0e8       $SG21094                   00000001400d30e8     pjsip-core-x86_64-x64-vc14-debug-dynamic:sip_dialog.obj
 0003:0002a0f8       $SG21142                   00000001400d30f8     pjsip-core-x86_64-x64-vc14-debug-dynamic:sip_dialog.obj
 0003:0002a110       $SG20984                   00000001400d3110     pjsip-core-x86_64-x64-vc14-debug-dynamic:sip_dialog.obj
 0003:0002a210       $SG20985                   00000001400d3210     pjsip-core-x86_64-x64-vc14-debug-dynamic:sip_dialog.obj
 0003:0002a258       $SG21150                   00000001400d3258     pjsip-core-x86_64-x64-vc14-debug-dynamic:sip_dialog.obj
 0003:0002a270       $SG20987                   00000001400d3270     pjsip-core-x86_64-x64-vc14-debug-dynamic:sip_dialog.obj
 0003:0002a370       $SG20988                   00000001400d3370     pjsip-core-x86_64-x64-vc14-debug-dynamic:sip_dialog.obj
 0003:0002a3c0       $SG20990                   00000001400d33c0     pjsip-core-x86_64-x64-vc14-debug-dynamic:sip_dialog.obj
 0003:0002a4c0       $SG20991                   00000001400d34c0     pjsip-core-x86_64-x64-vc14-debug-dynamic:sip_dialog.obj
 0003:0002a508       $SG21153                   00000001400d3508     pjsip-core-x86_64-x64-vc14-debug-dynamic:sip_dialog.obj
 0003:0002a520       $SG20996                   00000001400d3520     pjsip-core-x86_64-x64-vc14-debug-dynamic:sip_dialog.obj
 0003:0002a620       $SG20997                   00000001400d3620     pjsip-core-x86_64-x64-vc14-debug-dynamic:sip_dialog.obj
 0003:0002a7d8       $SG21227                   00000001400d37d8     pjsip-core-x86_64-x64-vc14-debug-dynamic:sip_dialog.obj
 0003:0002a800       $SG21000                   00000001400d3800     pjsip-core-x86_64-x64-vc14-debug-dynamic:sip_dialog.obj
 0003:0002a900       $SG21001                   00000001400d3900     pjsip-core-x86_64-x64-vc14-debug-dynamic:sip_dialog.obj
 0003:0002a930       $SG21039                   00000001400d3930     pjsip-core-x86_64-x64-vc14-debug-dynamic:sip_dialog.obj
 0003:0002aa30       $SG21040                   00000001400d3a30     pjsip-core-x86_64-x64-vc14-debug-dynamic:sip_dialog.obj
 0003:0002aa78       $SG21231                   00000001400d3a78     pjsip-core-x86_64-x64-vc14-debug-dynamic:sip_dialog.obj
 0003:0002aaa0       $SG21042                   00000001400d3aa0     pjsip-core-x86_64-x64-vc14-debug-dynamic:sip_dialog.obj
 0003:0002aba0       $SG21043                   00000001400d3ba0     pjsip-core-x86_64-x64-vc14-debug-dynamic:sip_dialog.obj
 0003:0002ac00       $SG21046                   00000001400d3c00     pjsip-core-x86_64-x64-vc14-debug-dynamic:sip_dialog.obj
 0003:0002ad00       $SG21047                   00000001400d3d00     pjsip-core-x86_64-x64-vc14-debug-dynamic:sip_dialog.obj
 0003:0002adb0       $SG21092                   00000001400d3db0     pjsip-core-x86_64-x64-vc14-debug-dynamic:sip_dialog.obj
 0003:0002aeb0       $SG21093                   00000001400d3eb0     pjsip-core-x86_64-x64-vc14-debug-dynamic:sip_dialog.obj
 0003:0002af08       $SG21106                   00000001400d3f08     pjsip-core-x86_64-x64-vc14-debug-dynamic:sip_dialog.obj
 0003:0002af28       $SG21187                   00000001400d3f28     pjsip-core-x86_64-x64-vc14-debug-dynamic:sip_dialog.obj
 0003:0002af38       $SG21295                   00000001400d3f38     pjsip-core-x86_64-x64-vc14-debug-dynamic:sip_dialog.obj
 0003:0002af50       $SG21143                   00000001400d3f50     pjsip-core-x86_64-x64-vc14-debug-dynamic:sip_dialog.obj
 0003:0002b050       $SG21144                   00000001400d4050     pjsip-core-x86_64-x64-vc14-debug-dynamic:sip_dialog.obj
 0003:0002b080       $SG21145                   00000001400d4080     pjsip-core-x86_64-x64-vc14-debug-dynamic:sip_dialog.obj
 0003:0002b180       $SG21146                   00000001400d4180     pjsip-core-x86_64-x64-vc14-debug-dynamic:sip_dialog.obj
 0003:0002b1c0       $SG21188                   00000001400d41c0     pjsip-core-x86_64-x64-vc14-debug-dynamic:sip_dialog.obj
 0003:0002b2c0       $SG21189                   00000001400d42c0     pjsip-core-x86_64-x64-vc14-debug-dynamic:sip_dialog.obj
 0003:0002b308       $SG21325                   00000001400d4308     pjsip-core-x86_64-x64-vc14-debug-dynamic:sip_dialog.obj
 0003:0002b310       $SG21230                   00000001400d4310     pjsip-core-x86_64-x64-vc14-debug-dynamic:sip_dialog.obj
 0003:0002b410       $SG21255                   00000001400d4410     pjsip-core-x86_64-x64-vc14-debug-dynamic:sip_dialog.obj
 0003:0002b510       $SG21256                   00000001400d4510     pjsip-core-x86_64-x64-vc14-debug-dynamic:sip_dialog.obj
 0003:0002b530       $SG21294                   00000001400d4530     pjsip-core-x86_64-x64-vc14-debug-dynamic:sip_dialog.obj
 0003:0002b630       $SG21324                   00000001400d4630     pjsip-core-x86_64-x64-vc14-debug-dynamic:sip_dialog.obj
 0003:0002b730       $SG21328                   00000001400d4730     pjsip-core-x86_64-x64-vc14-debug-dynamic:sip_dialog.obj
 0003:0002b830       $SG21329                   00000001400d4830     pjsip-core-x86_64-x64-vc14-debug-dynamic:sip_dialog.obj
 0003:0002b898       $SG21380                   00000001400d4898     pjsip-core-x86_64-x64-vc14-debug-dynamic:sip_dialog.obj
 0003:0002b8a0       $SG21353                   00000001400d48a0     pjsip-core-x86_64-x64-vc14-debug-dynamic:sip_dialog.obj
 0003:0002b9a0       $SG21354                   00000001400d49a0     pjsip-core-x86_64-x64-vc14-debug-dynamic:sip_dialog.obj
 0003:0002b9c0       $SG21379                   00000001400d49c0     pjsip-core-x86_64-x64-vc14-debug-dynamic:sip_dialog.obj
 0003:0002bac0       $SG21383                   00000001400d4ac0     pjsip-core-x86_64-x64-vc14-debug-dynamic:sip_dialog.obj
 0003:0002bbc0       $SG21384                   00000001400d4bc0     pjsip-core-x86_64-x64-vc14-debug-dynamic:sip_dialog.obj
 0003:0002cc90       $SG19393                   00000001400d5c90     pjsip-core-x86_64-x64-vc14-debug-dynamic:sip_auth_client.obj
 0003:0002cca8       $SG19394                   00000001400d5ca8     pjsip-core-x86_64-x64-vc14-debug-dynamic:sip_auth_client.obj
 0003:0002ccc0       $SG19530                   00000001400d5cc0     pjsip-core-x86_64-x64-vc14-debug-dynamic:sip_auth_client.obj
 0003:0002cdc8       $SG19531                   00000001400d5dc8     pjsip-core-x86_64-x64-vc14-debug-dynamic:sip_auth_client.obj
 0003:0002cdf0       $SG19534                   00000001400d5df0     pjsip-core-x86_64-x64-vc14-debug-dynamic:sip_auth_client.obj
 0003:0002cdf4       $SG19535                   00000001400d5df4     pjsip-core-x86_64-x64-vc14-debug-dynamic:sip_auth_client.obj
 0003:0002cdf8       $SG19539                   00000001400d5df8     pjsip-core-x86_64-x64-vc14-debug-dynamic:sip_auth_client.obj
 0003:0002ce30       $SG19538                   00000001400d5e30     pjsip-core-x86_64-x64-vc14-debug-dynamic:sip_auth_client.obj
 0003:0002cf38       $SG19540                   00000001400d5f38     pjsip-core-x86_64-x64-vc14-debug-dynamic:sip_auth_client.obj
 0003:0002cf50       $SG19541                   00000001400d5f50     pjsip-core-x86_64-x64-vc14-debug-dynamic:sip_auth_client.obj
 0003:0002d058       $SG19542                   00000001400d6058     pjsip-core-x86_64-x64-vc14-debug-dynamic:sip_auth_client.obj
 0003:0002d084       $SG19543                   00000001400d6084     pjsip-core-x86_64-x64-vc14-debug-dynamic:sip_auth_client.obj
 0003:0002d088       $SG19544                   00000001400d6088     pjsip-core-x86_64-x64-vc14-debug-dynamic:sip_auth_client.obj
 0003:0002d08c       $SG19546                   00000001400d608c     pjsip-core-x86_64-x64-vc14-debug-dynamic:sip_auth_client.obj
 0003:0002d090       $SG19547                   00000001400d6090     pjsip-core-x86_64-x64-vc14-debug-dynamic:sip_auth_client.obj
 0003:0002d094       $SG19548                   00000001400d6094     pjsip-core-x86_64-x64-vc14-debug-dynamic:sip_auth_client.obj
 0003:0002d098       $SG19549                   00000001400d6098     pjsip-core-x86_64-x64-vc14-debug-dynamic:sip_auth_client.obj
 0003:0002d09c       $SG19619                   00000001400d609c     pjsip-core-x86_64-x64-vc14-debug-dynamic:sip_auth_client.obj
 0003:0002d0a8       $SG19601                   00000001400d60a8     pjsip-core-x86_64-x64-vc14-debug-dynamic:sip_auth_client.obj
 0003:0002d0b8       $SG19607                   00000001400d60b8     pjsip-core-x86_64-x64-vc14-debug-dynamic:sip_auth_client.obj
 0003:0002d0e0       $SG19608                   00000001400d60e0     pjsip-core-x86_64-x64-vc14-debug-dynamic:sip_auth_client.obj
 0003:0002d0f4       $SG19615                   00000001400d60f4     pjsip-core-x86_64-x64-vc14-debug-dynamic:sip_auth_client.obj
 0003:0002d100       $SG19623                   00000001400d6100     pjsip-core-x86_64-x64-vc14-debug-dynamic:sip_auth_client.obj
 0003:0002d120       $SG19624                   00000001400d6120     pjsip-core-x86_64-x64-vc14-debug-dynamic:sip_auth_client.obj
 0003:0002d138       $SG19711                   00000001400d6138     pjsip-core-x86_64-x64-vc14-debug-dynamic:sip_auth_client.obj
 0003:0002d160       $SG19695                   00000001400d6160     pjsip-core-x86_64-x64-vc14-debug-dynamic:sip_auth_client.obj
 0003:0002d268       $SG19735                   00000001400d6268     pjsip-core-x86_64-x64-vc14-debug-dynamic:sip_auth_client.obj
 0003:0002d290       $SG19696                   00000001400d6290     pjsip-core-x86_64-x64-vc14-debug-dynamic:sip_auth_client.obj
 0003:0002d2e0       $SG19710                   00000001400d62e0     pjsip-core-x86_64-x64-vc14-debug-dynamic:sip_auth_client.obj
 0003:0002d3e8       $SG19780                   00000001400d63e8     pjsip-core-x86_64-x64-vc14-debug-dynamic:sip_auth_client.obj
 0003:0002d400       $SG19734                   00000001400d6400     pjsip-core-x86_64-x64-vc14-debug-dynamic:sip_auth_client.obj
 0003:0002d508       $SG19793                   00000001400d6508     pjsip-core-x86_64-x64-vc14-debug-dynamic:sip_auth_client.obj
 0003:0002d540       $SG19779                   00000001400d6540     pjsip-core-x86_64-x64-vc14-debug-dynamic:sip_auth_client.obj
 0003:0002d648       $SG19785                   00000001400d6648     pjsip-core-x86_64-x64-vc14-debug-dynamic:sip_auth_client.obj
 0003:0002d678       $SG19790                   00000001400d6678     pjsip-core-x86_64-x64-vc14-debug-dynamic:sip_auth_client.obj
 0003:0002d6b8       $SG19796                   00000001400d66b8     pjsip-core-x86_64-x64-vc14-debug-dynamic:sip_auth_client.obj
 0003:0002d6f0       $SG19786                   00000001400d66f0     pjsip-core-x86_64-x64-vc14-debug-dynamic:sip_auth_client.obj
 0003:0002d7f8       $SG19799                   00000001400d67f8     pjsip-core-x86_64-x64-vc14-debug-dynamic:sip_auth_client.obj
 0003:0002d830       $SG19787                   00000001400d6830     pjsip-core-x86_64-x64-vc14-debug-dynamic:sip_auth_client.obj
 0003:0002d888       $SG19813                   00000001400d6888     pjsip-core-x86_64-x64-vc14-debug-dynamic:sip_auth_client.obj
 0003:0002d8a0       $SG19789                   00000001400d68a0     pjsip-core-x86_64-x64-vc14-debug-dynamic:sip_auth_client.obj
 0003:0002d9a8       $SG19828                   00000001400d69a8     pjsip-core-x86_64-x64-vc14-debug-dynamic:sip_auth_client.obj
 0003:0002d9c0       $SG19792                   00000001400d69c0     pjsip-core-x86_64-x64-vc14-debug-dynamic:sip_auth_client.obj
 0003:0002dac8       $SG19939                   00000001400d6ac8     pjsip-core-x86_64-x64-vc14-debug-dynamic:sip_auth_client.obj
 0003:0002dae0       $SG19795                   00000001400d6ae0     pjsip-core-x86_64-x64-vc14-debug-dynamic:sip_auth_client.obj
 0003:0002dbe8       $SG20012                   00000001400d6be8     pjsip-core-x86_64-x64-vc14-debug-dynamic:sip_auth_client.obj
 0003:0002dc00       $SG19798                   00000001400d6c00     pjsip-core-x86_64-x64-vc14-debug-dynamic:sip_auth_client.obj
 0003:0002dd08       $SG20016                   00000001400d6d08     pjsip-core-x86_64-x64-vc14-debug-dynamic:sip_auth_client.obj
 0003:0002dd20       $SG19812                   00000001400d6d20     pjsip-core-x86_64-x64-vc14-debug-dynamic:sip_auth_client.obj
 0003:0002de28       $SG20020                   00000001400d6e28     pjsip-core-x86_64-x64-vc14-debug-dynamic:sip_auth_client.obj
 0003:0002de40       $SG19827                   00000001400d6e40     pjsip-core-x86_64-x64-vc14-debug-dynamic:sip_auth_client.obj
 0003:0002df48       $SG20079                   00000001400d6f48     pjsip-core-x86_64-x64-vc14-debug-dynamic:sip_auth_client.obj
 0003:0002df60       $SG19864                   00000001400d6f60     pjsip-core-x86_64-x64-vc14-debug-dynamic:sip_auth_client.obj
 0003:0002e070       $SG19865                   00000001400d7070     pjsip-core-x86_64-x64-vc14-debug-dynamic:sip_auth_client.obj
 0003:0002e120       $SG19935                   00000001400d7120     pjsip-core-x86_64-x64-vc14-debug-dynamic:sip_auth_client.obj
 0003:0002e228       $SG19936                   00000001400d7228     pjsip-core-x86_64-x64-vc14-debug-dynamic:sip_auth_client.obj
 0003:0002e250       $SG19938                   00000001400d7250     pjsip-core-x86_64-x64-vc14-debug-dynamic:sip_auth_client.obj
 0003:0002e360       $SG19941                   00000001400d7360     pjsip-core-x86_64-x64-vc14-debug-dynamic:sip_auth_client.obj
 0003:0002e470       $SG19942                   00000001400d7470     pjsip-core-x86_64-x64-vc14-debug-dynamic:sip_auth_client.obj
 0003:0002e4b8       $SG19962                   00000001400d74b8     pjsip-core-x86_64-x64-vc14-debug-dynamic:sip_auth_client.obj
 0003:0002e4d0       $SG20011                   00000001400d74d0     pjsip-core-x86_64-x64-vc14-debug-dynamic:sip_auth_client.obj
 0003:0002e520       $SG20015                   00000001400d7520     pjsip-core-x86_64-x64-vc14-debug-dynamic:sip_auth_client.obj
 0003:0002e570       $SG20019                   00000001400d7570     pjsip-core-x86_64-x64-vc14-debug-dynamic:sip_auth_client.obj
 0003:0002e5b8       $SG20091                   00000001400d75b8     pjsip-core-x86_64-x64-vc14-debug-dynamic:sip_auth_client.obj
 0003:0002e5d0       $SG20075                   00000001400d75d0     pjsip-core-x86_64-x64-vc14-debug-dynamic:sip_auth_client.obj
 0003:0002e6e0       $SG20076                   00000001400d76e0     pjsip-core-x86_64-x64-vc14-debug-dynamic:sip_auth_client.obj
 0003:0002e740       $SG20078                   00000001400d7740     pjsip-core-x86_64-x64-vc14-debug-dynamic:sip_auth_client.obj
 0003:0002e850       $SG20081                   00000001400d7850     pjsip-core-x86_64-x64-vc14-debug-dynamic:sip_auth_client.obj
 0003:0002e960       $SG20082                   00000001400d7960     pjsip-core-x86_64-x64-vc14-debug-dynamic:sip_auth_client.obj
 0003:0002e9c0       $SG20084                   00000001400d79c0     pjsip-core-x86_64-x64-vc14-debug-dynamic:sip_auth_client.obj
 0003:0002ead0       $SG20085                   00000001400d7ad0     pjsip-core-x86_64-x64-vc14-debug-dynamic:sip_auth_client.obj
 0003:0002eb30       $SG20087                   00000001400d7b30     pjsip-core-x86_64-x64-vc14-debug-dynamic:sip_auth_client.obj
 0003:0002ec40       $SG20088                   00000001400d7c40     pjsip-core-x86_64-x64-vc14-debug-dynamic:sip_auth_client.obj
 0003:0002f388       $SG19199                   00000001400d8388     pjsip-core-x86_64-x64-vc14-debug-dynamic:sip_parser.obj
 0003:0002f390       $SG19200                   00000001400d8390     pjsip-core-x86_64-x64-vc14-debug-dynamic:sip_parser.obj
 0003:0002f398       $SG19201                   00000001400d8398     pjsip-core-x86_64-x64-vc14-debug-dynamic:sip_parser.obj
 0003:0002f3a4       $SG19202                   00000001400d83a4     pjsip-core-x86_64-x64-vc14-debug-dynamic:sip_parser.obj
 0003:0002f3ac       $SG19203                   00000001400d83ac     pjsip-core-x86_64-x64-vc14-debug-dynamic:sip_parser.obj
 0003:0002f3b0       $SG19204                   00000001400d83b0     pjsip-core-x86_64-x64-vc14-debug-dynamic:sip_parser.obj
 0003:0002f3b4       $SG19205                   00000001400d83b4     pjsip-core-x86_64-x64-vc14-debug-dynamic:sip_parser.obj
 0003:0002f3bc       $SG19206                   00000001400d83bc     pjsip-core-x86_64-x64-vc14-debug-dynamic:sip_parser.obj
 0003:0002f3c0       $SG19207                   00000001400d83c0     pjsip-core-x86_64-x64-vc14-debug-dynamic:sip_parser.obj
 0003:0002f3c8       $SG19208                   00000001400d83c8     pjsip-core-x86_64-x64-vc14-debug-dynamic:sip_parser.obj
 0003:0002f3cc       $SG19210                   00000001400d83cc     pjsip-core-x86_64-x64-vc14-debug-dynamic:sip_parser.obj
 0003:0002f3d0       $SG19209                   00000001400d83d0     pjsip-core-x86_64-x64-vc14-debug-dynamic:sip_parser.obj
 0003:0002f3dc       $SG19212                   00000001400d83dc     pjsip-core-x86_64-x64-vc14-debug-dynamic:sip_parser.obj
 0003:0002f3e0       $SG19211                   00000001400d83e0     pjsip-core-x86_64-x64-vc14-debug-dynamic:sip_parser.obj
 0003:0002f3e8       $SG19213                   00000001400d83e8     pjsip-core-x86_64-x64-vc14-debug-dynamic:sip_parser.obj
 0003:0002f3f0       pconst                     00000001400d83f0     pjsip-core-x86_64-x64-vc14-debug-dynamic:sip_parser.obj
 0003:0002f660       $SG19422                   00000001400d8660     pjsip-core-x86_64-x64-vc14-debug-dynamic:sip_parser.obj
 0003:0002f6a8       $SG19424                   00000001400d86a8     pjsip-core-x86_64-x64-vc14-debug-dynamic:sip_parser.obj
 0003:0002f6e0       $SG19426                   00000001400d86e0     pjsip-core-x86_64-x64-vc14-debug-dynamic:sip_parser.obj
 0003:0002f71c       $SG19756                   00000001400d871c     pjsip-core-x86_64-x64-vc14-debug-dynamic:sip_parser.obj
 0003:0002f720       $SG19428                   00000001400d8720     pjsip-core-x86_64-x64-vc14-debug-dynamic:sip_parser.obj
 0003:0002f730       $SG19432                   00000001400d8730     pjsip-core-x86_64-x64-vc14-debug-dynamic:sip_parser.obj
 0003:0002f74c       $SG19760                   00000001400d874c     pjsip-core-x86_64-x64-vc14-debug-dynamic:sip_parser.obj
 0003:0002f750       $SG19433                   00000001400d8750     pjsip-core-x86_64-x64-vc14-debug-dynamic:sip_parser.obj
 0003:0002f760       $SG19435                   00000001400d8760     pjsip-core-x86_64-x64-vc14-debug-dynamic:sip_parser.obj
 0003:0002f780       $SG19436                   00000001400d8780     pjsip-core-x86_64-x64-vc14-debug-dynamic:sip_parser.obj
 0003:0002f790       $SG19732                   00000001400d8790     pjsip-core-x86_64-x64-vc14-debug-dynamic:sip_parser.obj
 0003:0002f88c       $SG19768                   00000001400d888c     pjsip-core-x86_64-x64-vc14-debug-dynamic:sip_parser.obj
 0003:0002f890       $SG19733                   00000001400d8890     pjsip-core-x86_64-x64-vc14-debug-dynamic:sip_parser.obj
 0003:0002f8cc       $SG19772                   00000001400d88cc     pjsip-core-x86_64-x64-vc14-debug-dynamic:sip_parser.obj
 0003:0002f8d0       $SG19734                   00000001400d88d0     pjsip-core-x86_64-x64-vc14-debug-dynamic:sip_parser.obj
 0003:0002f8e4       $SG19776                   00000001400d88e4     pjsip-core-x86_64-x64-vc14-debug-dynamic:sip_parser.obj
 0003:0002f8e8       $SG19780                   00000001400d88e8     pjsip-core-x86_64-x64-vc14-debug-dynamic:sip_parser.obj
 0003:0002f8f0       $SG19736                   00000001400d88f0     pjsip-core-x86_64-x64-vc14-debug-dynamic:sip_parser.obj
 0003:0002f9ec       $SG19792                   00000001400d89ec     pjsip-core-x86_64-x64-vc14-debug-dynamic:sip_parser.obj
 0003:0002f9f0       $SG19737                   00000001400d89f0     pjsip-core-x86_64-x64-vc14-debug-dynamic:sip_parser.obj
 0003:0002fa20       $SG19738                   00000001400d8a20     pjsip-core-x86_64-x64-vc14-debug-dynamic:sip_parser.obj
 0003:0002fb20       $SG19739                   00000001400d8b20     pjsip-core-x86_64-x64-vc14-debug-dynamic:sip_parser.obj
 0003:0002fb64       $SG19800                   00000001400d8b64     pjsip-core-x86_64-x64-vc14-debug-dynamic:sip_parser.obj
 0003:0002fb68       $SG19740                   00000001400d8b68     pjsip-core-x86_64-x64-vc14-debug-dynamic:sip_parser.obj
 0003:0002fb88       $SG19764                   00000001400d8b88     pjsip-core-x86_64-x64-vc14-debug-dynamic:sip_parser.obj
 0003:0002fb98       $SG19784                   00000001400d8b98     pjsip-core-x86_64-x64-vc14-debug-dynamic:sip_parser.obj
 0003:0002fba8       $SG19788                   00000001400d8ba8     pjsip-core-x86_64-x64-vc14-debug-dynamic:sip_parser.obj
 0003:0002fbc0       $SG19742                   00000001400d8bc0     pjsip-core-x86_64-x64-vc14-debug-dynamic:sip_parser.obj
 0003:0002fcbc       $SG19808                   00000001400d8cbc     pjsip-core-x86_64-x64-vc14-debug-dynamic:sip_parser.obj
 0003:0002fcc0       $SG19743                   00000001400d8cc0     pjsip-core-x86_64-x64-vc14-debug-dynamic:sip_parser.obj
 0003:0002fcf0       $SG19745                   00000001400d8cf0     pjsip-core-x86_64-x64-vc14-debug-dynamic:sip_parser.obj
 0003:0002fdec       $SG19812                   00000001400d8dec     pjsip-core-x86_64-x64-vc14-debug-dynamic:sip_parser.obj
 0003:0002fdf0       $SG19746                   00000001400d8df0     pjsip-core-x86_64-x64-vc14-debug-dynamic:sip_parser.obj
 0003:0002fe20       $SG19748                   00000001400d8e20     pjsip-core-x86_64-x64-vc14-debug-dynamic:sip_parser.obj
 0003:0002ff1c       $SG19816                   00000001400d8f1c     pjsip-core-x86_64-x64-vc14-debug-dynamic:sip_parser.obj
 0003:0002ff20       $SG19749                   00000001400d8f20     pjsip-core-x86_64-x64-vc14-debug-dynamic:sip_parser.obj
 0003:0002ff50       $SG19751                   00000001400d8f50     pjsip-core-x86_64-x64-vc14-debug-dynamic:sip_parser.obj
 0003:0003004c       $SG19824                   00000001400d904c     pjsip-core-x86_64-x64-vc14-debug-dynamic:sip_parser.obj
 0003:00030050       $SG19752                   00000001400d9050     pjsip-core-x86_64-x64-vc14-debug-dynamic:sip_parser.obj
 0003:00030080       $SG19754                   00000001400d9080     pjsip-core-x86_64-x64-vc14-debug-dynamic:sip_parser.obj
 0003:0003017c       $SG19837                   00000001400d917c     pjsip-core-x86_64-x64-vc14-debug-dynamic:sip_parser.obj
 0003:00030180       $SG19755                   00000001400d9180     pjsip-core-x86_64-x64-vc14-debug-dynamic:sip_parser.obj
 0003:000301b0       $SG19758                   00000001400d91b0     pjsip-core-x86_64-x64-vc14-debug-dynamic:sip_parser.obj
 0003:000302ac       $SG19853                   00000001400d92ac     pjsip-core-x86_64-x64-vc14-debug-dynamic:sip_parser.obj
 0003:000302b0       $SG19759                   00000001400d92b0     pjsip-core-x86_64-x64-vc14-debug-dynamic:sip_parser.obj
 0003:000302e0       $SG19762                   00000001400d92e0     pjsip-core-x86_64-x64-vc14-debug-dynamic:sip_parser.obj
 0003:000303dc       $SG19858                   00000001400d93dc     pjsip-core-x86_64-x64-vc14-debug-dynamic:sip_parser.obj
 0003:000303e0       $SG19763                   00000001400d93e0     pjsip-core-x86_64-x64-vc14-debug-dynamic:sip_parser.obj
 0003:00030410       $SG19766                   00000001400d9410     pjsip-core-x86_64-x64-vc14-debug-dynamic:sip_parser.obj
 0003:0003050c       $SG19863                   00000001400d950c     pjsip-core-x86_64-x64-vc14-debug-dynamic:sip_parser.obj
 0003:00030510       $SG19767                   00000001400d9510     pjsip-core-x86_64-x64-vc14-debug-dynamic:sip_parser.obj
 0003:00030540       $SG19770                   00000001400d9540     pjsip-core-x86_64-x64-vc14-debug-dynamic:sip_parser.obj
 0003:0003063c       $SG19868                   00000001400d963c     pjsip-core-x86_64-x64-vc14-debug-dynamic:sip_parser.obj
 0003:00030640       $SG19771                   00000001400d9640     pjsip-core-x86_64-x64-vc14-debug-dynamic:sip_parser.obj
 0003:00030670       $SG19774                   00000001400d9670     pjsip-core-x86_64-x64-vc14-debug-dynamic:sip_parser.obj
 0003:0003076c       $SG19881                   00000001400d976c     pjsip-core-x86_64-x64-vc14-debug-dynamic:sip_parser.obj
 0003:00030770       $SG19775                   00000001400d9770     pjsip-core-x86_64-x64-vc14-debug-dynamic:sip_parser.obj
 0003:000307a0       $SG19778                   00000001400d97a0     pjsip-core-x86_64-x64-vc14-debug-dynamic:sip_parser.obj
 0003:0003089c       $SG19910                   00000001400d989c     pjsip-core-x86_64-x64-vc14-debug-dynamic:sip_parser.obj
 0003:000308a0       $SG19779                   00000001400d98a0     pjsip-core-x86_64-x64-vc14-debug-dynamic:sip_parser.obj
 0003:000308d0       $SG19782                   00000001400d98d0     pjsip-core-x86_64-x64-vc14-debug-dynamic:sip_parser.obj
 0003:000309cc       $SG19915                   00000001400d99cc     pjsip-core-x86_64-x64-vc14-debug-dynamic:sip_parser.obj
 0003:000309d0       $SG19783                   00000001400d99d0     pjsip-core-x86_64-x64-vc14-debug-dynamic:sip_parser.obj
 0003:00030a00       $SG19786                   00000001400d9a00     pjsip-core-x86_64-x64-vc14-debug-dynamic:sip_parser.obj
 0003:00030afc       $SG19916                   00000001400d9afc     pjsip-core-x86_64-x64-vc14-debug-dynamic:sip_parser.obj
 0003:00030b00       $SG19787                   00000001400d9b00     pjsip-core-x86_64-x64-vc14-debug-dynamic:sip_parser.obj
 0003:00030b30       $SG19790                   00000001400d9b30     pjsip-core-x86_64-x64-vc14-debug-dynamic:sip_parser.obj
 0003:00030c2c       $SG19924                   00000001400d9c2c     pjsip-core-x86_64-x64-vc14-debug-dynamic:sip_parser.obj
 0003:00030c30       $SG19791                   00000001400d9c30     pjsip-core-x86_64-x64-vc14-debug-dynamic:sip_parser.obj
 0003:00030c60       $SG19794                   00000001400d9c60     pjsip-core-x86_64-x64-vc14-debug-dynamic:sip_parser.obj
 0003:00030d5c       $SG19925                   00000001400d9d5c     pjsip-core-x86_64-x64-vc14-debug-dynamic:sip_parser.obj
 0003:00030d60       $SG19795                   00000001400d9d60     pjsip-core-x86_64-x64-vc14-debug-dynamic:sip_parser.obj
 0003:00030d8c       $SG19845                   00000001400d9d8c     pjsip-core-x86_64-x64-vc14-debug-dynamic:sip_parser.obj
 0003:00030d94       $SG19981                   00000001400d9d94     pjsip-core-x86_64-x64-vc14-debug-dynamic:sip_parser.obj
 0003:00030d98       $SG19796                   00000001400d9d98     pjsip-core-x86_64-x64-vc14-debug-dynamic:sip_parser.obj
 0003:00030db0       $SG19798                   00000001400d9db0     pjsip-core-x86_64-x64-vc14-debug-dynamic:sip_parser.obj
 0003:00030eac       $SG20109                   00000001400d9eac     pjsip-core-x86_64-x64-vc14-debug-dynamic:sip_parser.obj
 0003:00030eb0       $SG19799                   00000001400d9eb0     pjsip-core-x86_64-x64-vc14-debug-dynamic:sip_parser.obj
 0003:00030ee0       $SG19802                   00000001400d9ee0     pjsip-core-x86_64-x64-vc14-debug-dynamic:sip_parser.obj
 0003:00030fdc       $SG20166                   00000001400d9fdc     pjsip-core-x86_64-x64-vc14-debug-dynamic:sip_parser.obj
 0003:00030fe0       $SG19803                   00000001400d9fe0     pjsip-core-x86_64-x64-vc14-debug-dynamic:sip_parser.obj
 0003:0003100c       $SG20168                   00000001400da00c     pjsip-core-x86_64-x64-vc14-debug-dynamic:sip_parser.obj
 0003:00031010       $SG19804                   00000001400da010     pjsip-core-x86_64-x64-vc14-debug-dynamic:sip_parser.obj
 0003:00031028       $SG19820                   00000001400da028     pjsip-core-x86_64-x64-vc14-debug-dynamic:sip_parser.obj
 0003:00031038       $SG19828                   00000001400da038     pjsip-core-x86_64-x64-vc14-debug-dynamic:sip_parser.obj
 0003:00031040       $SG19806                   00000001400da040     pjsip-core-x86_64-x64-vc14-debug-dynamic:sip_parser.obj
 0003:0003113c       $SG20180                   00000001400da13c     pjsip-core-x86_64-x64-vc14-debug-dynamic:sip_parser.obj
 0003:00031140       $SG19807                   00000001400da140     pjsip-core-x86_64-x64-vc14-debug-dynamic:sip_parser.obj
 0003:00031170       $SG19810                   00000001400da170     pjsip-core-x86_64-x64-vc14-debug-dynamic:sip_parser.obj
 0003:0003126c       $SG20562                   00000001400da26c     pjsip-core-x86_64-x64-vc14-debug-dynamic:sip_parser.obj
 0003:00031270       $SG19811                   00000001400da270     pjsip-core-x86_64-x64-vc14-debug-dynamic:sip_parser.obj
 0003:000312a0       $SG19814                   00000001400da2a0     pjsip-core-x86_64-x64-vc14-debug-dynamic:sip_parser.obj
 0003:000313a0       $SG19815                   00000001400da3a0     pjsip-core-x86_64-x64-vc14-debug-dynamic:sip_parser.obj
 0003:000313d0       $SG19818                   00000001400da3d0     pjsip-core-x86_64-x64-vc14-debug-dynamic:sip_parser.obj
 0003:000314d0       $SG19819                   00000001400da4d0     pjsip-core-x86_64-x64-vc14-debug-dynamic:sip_parser.obj
 0003:00031500       $SG19822                   00000001400da500     pjsip-core-x86_64-x64-vc14-debug-dynamic:sip_parser.obj
 0003:00031600       $SG19823                   00000001400da600     pjsip-core-x86_64-x64-vc14-debug-dynamic:sip_parser.obj
 0003:00031630       $SG19826                   00000001400da630     pjsip-core-x86_64-x64-vc14-debug-dynamic:sip_parser.obj
 0003:00031730       $SG19827                   00000001400da730     pjsip-core-x86_64-x64-vc14-debug-dynamic:sip_parser.obj
 0003:00031760       $SG19830                   00000001400da760     pjsip-core-x86_64-x64-vc14-debug-dynamic:sip_parser.obj
 0003:00031860       $SG19831                   00000001400da860     pjsip-core-x86_64-x64-vc14-debug-dynamic:sip_parser.obj
 0003:0003188c       $SG19832                   00000001400da88c     pjsip-core-x86_64-x64-vc14-debug-dynamic:sip_parser.obj
 0003:00031898       $SG19835                   00000001400da898     pjsip-core-x86_64-x64-vc14-debug-dynamic:sip_parser.obj
 0003:000318c8       $SG19836                   00000001400da8c8     pjsip-core-x86_64-x64-vc14-debug-dynamic:sip_parser.obj
 0003:000318e0       $SG19834                   00000001400da8e0     pjsip-core-x86_64-x64-vc14-debug-dynamic:sip_parser.obj
 0003:000319e0       $SG19839                   00000001400da9e0     pjsip-core-x86_64-x64-vc14-debug-dynamic:sip_parser.obj
 0003:00031ae0       $SG19840                   00000001400daae0     pjsip-core-x86_64-x64-vc14-debug-dynamic:sip_parser.obj
 0003:00031b0c       $SG19841                   00000001400dab0c     pjsip-core-x86_64-x64-vc14-debug-dynamic:sip_parser.obj
 0003:00031b18       $SG19844                   00000001400dab18     pjsip-core-x86_64-x64-vc14-debug-dynamic:sip_parser.obj
 0003:00031b44       $SG19849                   00000001400dab44     pjsip-core-x86_64-x64-vc14-debug-dynamic:sip_parser.obj
 0003:00031b50       $SG19843                   00000001400dab50     pjsip-core-x86_64-x64-vc14-debug-dynamic:sip_parser.obj
 0003:00031c50       $SG19847                   00000001400dac50     pjsip-core-x86_64-x64-vc14-debug-dynamic:sip_parser.obj
 0003:00031d50       $SG19848                   00000001400dad50     pjsip-core-x86_64-x64-vc14-debug-dynamic:sip_parser.obj
 0003:00031d80       $SG19851                   00000001400dad80     pjsip-core-x86_64-x64-vc14-debug-dynamic:sip_parser.obj
 0003:00031e80       $SG19852                   00000001400dae80     pjsip-core-x86_64-x64-vc14-debug-dynamic:sip_parser.obj
 0003:00031eb0       $SG19854                   00000001400daeb0     pjsip-core-x86_64-x64-vc14-debug-dynamic:sip_parser.obj
 0003:00031eb8       $SG19859                   00000001400daeb8     pjsip-core-x86_64-x64-vc14-debug-dynamic:sip_parser.obj
 0003:00031ec0       $SG19856                   00000001400daec0     pjsip-core-x86_64-x64-vc14-debug-dynamic:sip_parser.obj
 0003:00031fc0       $SG19857                   00000001400dafc0     pjsip-core-x86_64-x64-vc14-debug-dynamic:sip_parser.obj
 0003:00031ff0       $SG19861                   00000001400daff0     pjsip-core-x86_64-x64-vc14-debug-dynamic:sip_parser.obj
 0003:000320f0       $SG19862                   00000001400db0f0     pjsip-core-x86_64-x64-vc14-debug-dynamic:sip_parser.obj
 0003:00032120       $SG19864                   00000001400db120     pjsip-core-x86_64-x64-vc14-debug-dynamic:sip_parser.obj
 0003:00032130       $SG19866                   00000001400db130     pjsip-core-x86_64-x64-vc14-debug-dynamic:sip_parser.obj
 0003:00032230       $SG19867                   00000001400db230     pjsip-core-x86_64-x64-vc14-debug-dynamic:sip_parser.obj
 0003:00032260       $SG19869                   00000001400db260     pjsip-core-x86_64-x64-vc14-debug-dynamic:sip_parser.obj
 0003:00032270       $SG19871                   00000001400db270     pjsip-core-x86_64-x64-vc14-debug-dynamic:sip_parser.obj
 0003:00032370       $SG19872                   00000001400db370     pjsip-core-x86_64-x64-vc14-debug-dynamic:sip_parser.obj
 0003:0003239c       $SG19873                   00000001400db39c     pjsip-core-x86_64-x64-vc14-debug-dynamic:sip_parser.obj
 0003:000323a8       $SG19876                   00000001400db3a8     pjsip-core-x86_64-x64-vc14-debug-dynamic:sip_parser.obj
 0003:000323d8       $SG19877                   00000001400db3d8     pjsip-core-x86_64-x64-vc14-debug-dynamic:sip_parser.obj
 0003:000323e0       $SG19875                   00000001400db3e0     pjsip-core-x86_64-x64-vc14-debug-dynamic:sip_parser.obj
 0003:000324e0       $SG19879                   00000001400db4e0     pjsip-core-x86_64-x64-vc14-debug-dynamic:sip_parser.obj
 0003:000325e0       $SG19880                   00000001400db5e0     pjsip-core-x86_64-x64-vc14-debug-dynamic:sip_parser.obj
 0003:0003260c       $SG19882                   00000001400db60c     pjsip-core-x86_64-x64-vc14-debug-dynamic:sip_parser.obj
 0003:00032618       $SG19885                   00000001400db618     pjsip-core-x86_64-x64-vc14-debug-dynamic:sip_parser.obj
 0003:00032648       $SG19886                   00000001400db648     pjsip-core-x86_64-x64-vc14-debug-dynamic:sip_parser.obj
 0003:00032658       $SG19898                   00000001400db658     pjsip-core-x86_64-x64-vc14-debug-dynamic:sip_parser.obj
 0003:00032660       $SG19884                   00000001400db660     pjsip-core-x86_64-x64-vc14-debug-dynamic:sip_parser.obj
 0003:00032760       $SG19888                   00000001400db760     pjsip-core-x86_64-x64-vc14-debug-dynamic:sip_parser.obj
 0003:00032860       $SG19889                   00000001400db860     pjsip-core-x86_64-x64-vc14-debug-dynamic:sip_parser.obj
 0003:00032890       $SG19890                   00000001400db890     pjsip-core-x86_64-x64-vc14-debug-dynamic:sip_parser.obj
 0003:000328a0       $SG19892                   00000001400db8a0     pjsip-core-x86_64-x64-vc14-debug-dynamic:sip_parser.obj
 0003:000329a0       $SG19893                   00000001400db9a0     pjsip-core-x86_64-x64-vc14-debug-dynamic:sip_parser.obj
 0003:000329d0       $SG19894                   00000001400db9d0     pjsip-core-x86_64-x64-vc14-debug-dynamic:sip_parser.obj
 0003:000329e0       $SG19896                   00000001400db9e0     pjsip-core-x86_64-x64-vc14-debug-dynamic:sip_parser.obj
 0003:00032ae0       $SG19897                   00000001400dbae0     pjsip-core-x86_64-x64-vc14-debug-dynamic:sip_parser.obj
 0003:00032b10       $SG19900                   00000001400dbb10     pjsip-core-x86_64-x64-vc14-debug-dynamic:sip_parser.obj
 0003:00032c10       $SG19901                   00000001400dbc10     pjsip-core-x86_64-x64-vc14-debug-dynamic:sip_parser.obj
 0003:00032c40       $SG19902                   00000001400dbc40     pjsip-core-x86_64-x64-vc14-debug-dynamic:sip_parser.obj
 0003:00032c48       $SG19972                   00000001400dbc48     pjsip-core-x86_64-x64-vc14-debug-dynamic:sip_parser.obj
 0003:00032c60       $SG19904                   00000001400dbc60     pjsip-core-x86_64-x64-vc14-debug-dynamic:sip_parser.obj
 0003:00032d60       $SG19905                   00000001400dbd60     pjsip-core-x86_64-x64-vc14-debug-dynamic:sip_parser.obj
 0003:00032d90       $SG19906                   00000001400dbd90     pjsip-core-x86_64-x64-vc14-debug-dynamic:sip_parser.obj
 0003:00032da0       $SG19908                   00000001400dbda0     pjsip-core-x86_64-x64-vc14-debug-dynamic:sip_parser.obj
 0003:00032ea0       $SG19909                   00000001400dbea0     pjsip-core-x86_64-x64-vc14-debug-dynamic:sip_parser.obj
 0003:00032ed0       $SG19911                   00000001400dbed0     pjsip-core-x86_64-x64-vc14-debug-dynamic:sip_parser.obj
 0003:00032ee0       $SG19913                   00000001400dbee0     pjsip-core-x86_64-x64-vc14-debug-dynamic:sip_parser.obj
 0003:00032fe0       $SG19914                   00000001400dbfe0     pjsip-core-x86_64-x64-vc14-debug-dynamic:sip_parser.obj
 0003:00033010       $SG19918                   00000001400dc010     pjsip-core-x86_64-x64-vc14-debug-dynamic:sip_parser.obj
 0003:00033110       $SG19919                   00000001400dc110     pjsip-core-x86_64-x64-vc14-debug-dynamic:sip_parser.obj
 0003:00033140       $SG19920                   00000001400dc140     pjsip-core-x86_64-x64-vc14-debug-dynamic:sip_parser.obj
 0003:00033150       $SG19922                   00000001400dc150     pjsip-core-x86_64-x64-vc14-debug-dynamic:sip_parser.obj
 0003:00033250       $SG19923                   00000001400dc250     pjsip-core-x86_64-x64-vc14-debug-dynamic:sip_parser.obj
 0003:00033280       $SG19927                   00000001400dc280     pjsip-core-x86_64-x64-vc14-debug-dynamic:sip_parser.obj
 0003:00033380       $SG19928                   00000001400dc380     pjsip-core-x86_64-x64-vc14-debug-dynamic:sip_parser.obj
 0003:000333b0       $SG19973                   00000001400dc3b0     pjsip-core-x86_64-x64-vc14-debug-dynamic:sip_parser.obj
 0003:000334b0       $SG19974                   00000001400dc4b0     pjsip-core-x86_64-x64-vc14-debug-dynamic:sip_parser.obj
 0003:000334e0       $SG19976                   00000001400dc4e0     pjsip-core-x86_64-x64-vc14-debug-dynamic:sip_parser.obj
 0003:00033500       $SG19977                   00000001400dc500     pjsip-core-x86_64-x64-vc14-debug-dynamic:sip_parser.obj
 0003:00033600       $SG19978                   00000001400dc600     pjsip-core-x86_64-x64-vc14-debug-dynamic:sip_parser.obj
 0003:00033638       $SG20005                   00000001400dc638     pjsip-core-x86_64-x64-vc14-debug-dynamic:sip_parser.obj
 0003:00033670       $SG19980                   00000001400dc670     pjsip-core-x86_64-x64-vc14-debug-dynamic:sip_parser.obj
 0003:00033770       $SG20003                   00000001400dc770     pjsip-core-x86_64-x64-vc14-debug-dynamic:sip_parser.obj
 0003:00033790       $SG20004                   00000001400dc790     pjsip-core-x86_64-x64-vc14-debug-dynamic:sip_parser.obj
 0003:00033890       $SG20116                   00000001400dc890     pjsip-core-x86_64-x64-vc14-debug-dynamic:sip_parser.obj
 0003:000338a0       $SG20241                   00000001400dc8a0     pjsip-core-x86_64-x64-vc14-debug-dynamic:sip_parser.obj
 0003:000338b0       $SG20249                   00000001400dc8b0     pjsip-core-x86_64-x64-vc14-debug-dynamic:sip_parser.obj
 0003:000338c0       $SG20252                   00000001400dc8c0     pjsip-core-x86_64-x64-vc14-debug-dynamic:sip_parser.obj
 0003:000338d0       $SG20932                   00000001400dc8d0     pjsip-core-x86_64-x64-vc14-debug-dynamic:sip_parser.obj
 0003:00033900       $SG20933                   00000001400dc900     pjsip-core-x86_64-x64-vc14-debug-dynamic:sip_parser.obj
 0003:00034700       $SG16670                   00000001400dd700     pjsip-core-x86_64-x64-vc14-debug-dynamic:sip_multipart.obj
 0003:00034720       $SG16673                   00000001400dd720     pjsip-core-x86_64-x64-vc14-debug-dynamic:sip_multipart.obj
 0003:00034828       $SG16680                   00000001400dd828     pjsip-core-x86_64-x64-vc14-debug-dynamic:sip_multipart.obj
 0003:00034838       $SG16682                   00000001400dd838     pjsip-core-x86_64-x64-vc14-debug-dynamic:sip_multipart.obj
 0003:00034840       $SG16674                   00000001400dd840     pjsip-core-x86_64-x64-vc14-debug-dynamic:sip_multipart.obj
 0003:000348a0       $SG16685                   00000001400dd8a0     pjsip-core-x86_64-x64-vc14-debug-dynamic:sip_multipart.obj
 0003:000349a4       $SG16960                   00000001400dd9a4     pjsip-core-x86_64-x64-vc14-debug-dynamic:sip_multipart.obj
 0003:000349b0       $SG16686                   00000001400dd9b0     pjsip-core-x86_64-x64-vc14-debug-dynamic:sip_multipart.obj
 0003:000349e8       $SG16742                   00000001400dd9e8     pjsip-core-x86_64-x64-vc14-debug-dynamic:sip_multipart.obj
 0003:000349f8       $SG16745                   00000001400dd9f8     pjsip-core-x86_64-x64-vc14-debug-dynamic:sip_multipart.obj
 0003:00034a04       $SG16751                   00000001400dda04     pjsip-core-x86_64-x64-vc14-debug-dynamic:sip_multipart.obj
 0003:00034a10       $SG16744                   00000001400dda10     pjsip-core-x86_64-x64-vc14-debug-dynamic:sip_multipart.obj
 0003:00034b18       $SG16749                   00000001400ddb18     pjsip-core-x86_64-x64-vc14-debug-dynamic:sip_multipart.obj
 0003:00034b28       $SG16798                   00000001400ddb28     pjsip-core-x86_64-x64-vc14-debug-dynamic:sip_multipart.obj
 0003:00034b50       $SG16797                   00000001400ddb50     pjsip-core-x86_64-x64-vc14-debug-dynamic:sip_multipart.obj
 0003:00034c54       $SG16826                   00000001400ddc54     pjsip-core-x86_64-x64-vc14-debug-dynamic:sip_multipart.obj
 0003:00034c60       $SG16800                   00000001400ddc60     pjsip-core-x86_64-x64-vc14-debug-dynamic:sip_multipart.obj
 0003:00034d68       $SG16862                   00000001400ddd68     pjsip-core-x86_64-x64-vc14-debug-dynamic:sip_multipart.obj
 0003:00034d80       $SG16801                   00000001400ddd80     pjsip-core-x86_64-x64-vc14-debug-dynamic:sip_multipart.obj
 0003:00034dd0       $SG16804                   00000001400dddd0     pjsip-core-x86_64-x64-vc14-debug-dynamic:sip_multipart.obj
 0003:00034ed8       $SG16898                   00000001400dded8     pjsip-core-x86_64-x64-vc14-debug-dynamic:sip_multipart.obj
 0003:00034f00       $SG16805                   00000001400ddf00     pjsip-core-x86_64-x64-vc14-debug-dynamic:sip_multipart.obj
 0003:00034f50       $SG16825                   00000001400ddf50     pjsip-core-x86_64-x64-vc14-debug-dynamic:sip_multipart.obj
 0003:00035058       $SG16953                   00000001400de058     pjsip-core-x86_64-x64-vc14-debug-dynamic:sip_multipart.obj
 0003:00035080       $SG16828                   00000001400de080     pjsip-core-x86_64-x64-vc14-debug-dynamic:sip_multipart.obj
 0003:00035188       $SG16954                   00000001400de188     pjsip-core-x86_64-x64-vc14-debug-dynamic:sip_multipart.obj
 0003:00035198       $SG16961                   00000001400de198     pjsip-core-x86_64-x64-vc14-debug-dynamic:sip_multipart.obj
 0003:000351a0       $SG16829                   00000001400de1a0     pjsip-core-x86_64-x64-vc14-debug-dynamic:sip_multipart.obj
 0003:000351f0       $SG16861                   00000001400de1f0     pjsip-core-x86_64-x64-vc14-debug-dynamic:sip_multipart.obj
 0003:000352f4       $SG16962                   00000001400de2f4     pjsip-core-x86_64-x64-vc14-debug-dynamic:sip_multipart.obj
 0003:00035300       $SG16864                   00000001400de300     pjsip-core-x86_64-x64-vc14-debug-dynamic:sip_multipart.obj
 0003:00035404       $SG16963                   00000001400de404     pjsip-core-x86_64-x64-vc14-debug-dynamic:sip_multipart.obj
 0003:00035410       $SG16865                   00000001400de410     pjsip-core-x86_64-x64-vc14-debug-dynamic:sip_multipart.obj
 0003:00035460       $SG16867                   00000001400de460     pjsip-core-x86_64-x64-vc14-debug-dynamic:sip_multipart.obj
 0003:00035564       $SG16964                   00000001400de564     pjsip-core-x86_64-x64-vc14-debug-dynamic:sip_multipart.obj
 0003:00035570       $SG16868                   00000001400de570     pjsip-core-x86_64-x64-vc14-debug-dynamic:sip_multipart.obj
 0003:000355e8       $SG17038                   00000001400de5e8     pjsip-core-x86_64-x64-vc14-debug-dynamic:sip_multipart.obj
 0003:000355f8       $SG17079                   00000001400de5f8     pjsip-core-x86_64-x64-vc14-debug-dynamic:sip_multipart.obj
 0003:00035600       $SG16897                   00000001400de600     pjsip-core-x86_64-x64-vc14-debug-dynamic:sip_multipart.obj
 0003:00035708       $SG17047                   00000001400de708     pjsip-core-x86_64-x64-vc14-debug-dynamic:sip_multipart.obj
 0003:00035720       $SG16900                   00000001400de720     pjsip-core-x86_64-x64-vc14-debug-dynamic:sip_multipart.obj
 0003:00035830       $SG16901                   00000001400de830     pjsip-core-x86_64-x64-vc14-debug-dynamic:sip_multipart.obj
 0003:00035880       $SG17028                   00000001400de880     pjsip-core-x86_64-x64-vc14-debug-dynamic:sip_multipart.obj
 0003:00035890       $SG17031                   00000001400de890     pjsip-core-x86_64-x64-vc14-debug-dynamic:sip_multipart.obj
 0003:000359a0       $SG17032                   00000001400de9a0     pjsip-core-x86_64-x64-vc14-debug-dynamic:sip_multipart.obj
 0003:000359f0       $SG17037                   00000001400de9f0     pjsip-core-x86_64-x64-vc14-debug-dynamic:sip_multipart.obj
 0003:00035a50       $SG17046                   00000001400dea50     pjsip-core-x86_64-x64-vc14-debug-dynamic:sip_multipart.obj
 0003:00035aa0       $SG17078                   00000001400deaa0     pjsip-core-x86_64-x64-vc14-debug-dynamic:sip_multipart.obj
 0003:00035bb0       $SG17081                   00000001400debb0     pjsip-core-x86_64-x64-vc14-debug-dynamic:sip_multipart.obj
 0003:00035cc0       $SG17082                   00000001400decc0     pjsip-core-x86_64-x64-vc14-debug-dynamic:sip_multipart.obj
 0003:000361f0       $SG16120                   00000001400df1f0     pjsip-core-x86_64-x64-vc14-debug-dynamic:sip_uri.obj
 0003:000361f4       $SG16122                   00000001400df1f4     pjsip-core-x86_64-x64-vc14-debug-dynamic:sip_uri.obj
 0003:00036200       sip_str                    00000001400df200     pjsip-core-x86_64-x64-vc14-debug-dynamic:sip_uri.obj
 0003:00036210       sips_str                   00000001400df210     pjsip-core-x86_64-x64-vc14-debug-dynamic:sip_uri.obj
 0003:00036220       sip_url_vptr               00000001400df220     pjsip-core-x86_64-x64-vc14-debug-dynamic:sip_uri.obj
 0003:00036248       sips_url_vptr              00000001400df248     pjsip-core-x86_64-x64-vc14-debug-dynamic:sip_uri.obj
 0003:00036270       name_addr_vptr             00000001400df270     pjsip-core-x86_64-x64-vc14-debug-dynamic:sip_uri.obj
 0003:00036298       $SG16328                   00000001400df298     pjsip-core-x86_64-x64-vc14-debug-dynamic:sip_uri.obj
 0003:000362c0       $SG16327                   00000001400df2c0     pjsip-core-x86_64-x64-vc14-debug-dynamic:sip_uri.obj
 0003:000363b8       $SG16346                   00000001400df3b8     pjsip-core-x86_64-x64-vc14-debug-dynamic:sip_uri.obj
 0003:000363c0       $SG16350                   00000001400df3c0     pjsip-core-x86_64-x64-vc14-debug-dynamic:sip_uri.obj
 0003:000363cc       $SG16359                   00000001400df3cc     pjsip-core-x86_64-x64-vc14-debug-dynamic:sip_uri.obj
 0003:000363d4       $SG16376                   00000001400df3d4     pjsip-core-x86_64-x64-vc14-debug-dynamic:sip_uri.obj
 0003:000363d8       $SG16355                   00000001400df3d8     pjsip-core-x86_64-x64-vc14-debug-dynamic:sip_uri.obj
 0003:000363e8       $SG16366                   00000001400df3e8     pjsip-core-x86_64-x64-vc14-debug-dynamic:sip_uri.obj
 0003:000363f0       $SG16369                   00000001400df3f0     pjsip-core-x86_64-x64-vc14-debug-dynamic:sip_uri.obj
 0003:000363f8       $SG16372                   00000001400df3f8     pjsip-core-x86_64-x64-vc14-debug-dynamic:sip_uri.obj
 0003:00036400       $SG16437                   00000001400df400     pjsip-core-x86_64-x64-vc14-debug-dynamic:sip_uri.obj
 0003:000364f8       $SG16438                   00000001400df4f8     pjsip-core-x86_64-x64-vc14-debug-dynamic:sip_uri.obj
 0003:00036530       $SG16485                   00000001400df530     pjsip-core-x86_64-x64-vc14-debug-dynamic:sip_uri.obj
 0003:00036628       $SG16486                   00000001400df628     pjsip-core-x86_64-x64-vc14-debug-dynamic:sip_uri.obj
 0003:00036650       $SG16533                   00000001400df650     pjsip-core-x86_64-x64-vc14-debug-dynamic:sip_uri.obj
 0003:00036748       $SG16534                   00000001400df748     pjsip-core-x86_64-x64-vc14-debug-dynamic:sip_uri.obj
 0003:00036780       $SG16535                   00000001400df780     pjsip-core-x86_64-x64-vc14-debug-dynamic:sip_uri.obj
 0003:00036878       $SG16536                   00000001400df878     pjsip-core-x86_64-x64-vc14-debug-dynamic:sip_uri.obj
 0003:000368b0       other_uri_vptr             00000001400df8b0     pjsip-core-x86_64-x64-vc14-debug-dynamic:sip_uri.obj
 0003:00036a40       $SG18689                   00000001400dfa40     pjsip-core-x86_64-x64-vc14-debug-dynamic:sip_resolve.obj
 0003:00036b40       $SG18690                   00000001400dfb40     pjsip-core-x86_64-x64-vc14-debug-dynamic:sip_resolve.obj
 0003:00036b60       $SG18810                   00000001400dfb60     pjsip-core-x86_64-x64-vc14-debug-dynamic:sip_resolve.obj
 0003:00036bc0       $SG18811                   00000001400dfbc0     pjsip-core-x86_64-x64-vc14-debug-dynamic:sip_resolve.obj
 0003:00036bd0       $SG18818                   00000001400dfbd0     pjsip-core-x86_64-x64-vc14-debug-dynamic:sip_resolve.obj
 0003:00036c08       $SG18819                   00000001400dfc08     pjsip-core-x86_64-x64-vc14-debug-dynamic:sip_resolve.obj
 0003:00036c18       $SG18820                   00000001400dfc18     pjsip-core-x86_64-x64-vc14-debug-dynamic:sip_resolve.obj
 0003:00036c28       $SG18826                   00000001400dfc28     pjsip-core-x86_64-x64-vc14-debug-dynamic:sip_resolve.obj
 0003:00036c38       $SG18830                   00000001400dfc38     pjsip-core-x86_64-x64-vc14-debug-dynamic:sip_resolve.obj
 0003:00036c48       $SG18834                   00000001400dfc48     pjsip-core-x86_64-x64-vc14-debug-dynamic:sip_resolve.obj
 0003:00036c58       $SG18835                   00000001400dfc58     pjsip-core-x86_64-x64-vc14-debug-dynamic:sip_resolve.obj
 0003:00036c70       $SG18836                   00000001400dfc70     pjsip-core-x86_64-x64-vc14-debug-dynamic:sip_resolve.obj
 0003:00036d70       $SG18837                   00000001400dfd70     pjsip-core-x86_64-x64-vc14-debug-dynamic:sip_resolve.obj
 0003:00036da8       $SG18838                   00000001400dfda8     pjsip-core-x86_64-x64-vc14-debug-dynamic:sip_resolve.obj
 0003:00036dc0       $SG18840                   00000001400dfdc0     pjsip-core-x86_64-x64-vc14-debug-dynamic:sip_resolve.obj
 0003:00036e08       $SG18852                   00000001400dfe08     pjsip-core-x86_64-x64-vc14-debug-dynamic:sip_resolve.obj
 0003:00036e20       $SG18853                   00000001400dfe20     pjsip-core-x86_64-x64-vc14-debug-dynamic:sip_resolve.obj
 0003:00036f20       $SG18854                   00000001400dff20     pjsip-core-x86_64-x64-vc14-debug-dynamic:sip_resolve.obj
 0003:00036f40       $SG18857                   00000001400dff40     pjsip-core-x86_64-x64-vc14-debug-dynamic:sip_resolve.obj
 0003:00036f60       $SG18858                   00000001400dff60     pjsip-core-x86_64-x64-vc14-debug-dynamic:sip_resolve.obj
 0003:00036f70       $SG18886                   00000001400dff70     pjsip-core-x86_64-x64-vc14-debug-dynamic:sip_resolve.obj
 0003:00036f90       $SG18917                   00000001400dff90     pjsip-core-x86_64-x64-vc14-debug-dynamic:sip_resolve.obj
 0003:00036fb8       $SG18946                   00000001400dffb8     pjsip-core-x86_64-x64-vc14-debug-dynamic:sip_resolve.obj
 0003:00037100       $SG15503                   00000001400e0100     pjsip-core-x86_64-x64-vc14-debug-dynamic:sip_errno.obj
 0003:00037120       $SG15504                   00000001400e0120     pjsip-core-x86_64-x64-vc14-debug-dynamic:sip_errno.obj
 0003:00037158       $SG15505                   00000001400e0158     pjsip-core-x86_64-x64-vc14-debug-dynamic:sip_errno.obj
 0003:00037188       $SG15506                   00000001400e0188     pjsip-core-x86_64-x64-vc14-debug-dynamic:sip_errno.obj
 0003:000371c0       $SG15507                   00000001400e01c0     pjsip-core-x86_64-x64-vc14-debug-dynamic:sip_errno.obj
 0003:000371f8       $SG15508                   00000001400e01f8     pjsip-core-x86_64-x64-vc14-debug-dynamic:sip_errno.obj
 0003:00037230       $SG15509                   00000001400e0230     pjsip-core-x86_64-x64-vc14-debug-dynamic:sip_errno.obj
 0003:00037268       $SG15510                   00000001400e0268     pjsip-core-x86_64-x64-vc14-debug-dynamic:sip_errno.obj
 0003:000372a0       $SG15511                   00000001400e02a0     pjsip-core-x86_64-x64-vc14-debug-dynamic:sip_errno.obj
 0003:000372c8       $SG15512                   00000001400e02c8     pjsip-core-x86_64-x64-vc14-debug-dynamic:sip_errno.obj
 0003:000372f0       $SG15513                   00000001400e02f0     pjsip-core-x86_64-x64-vc14-debug-dynamic:sip_errno.obj
 0003:00037330       $SG15514                   00000001400e0330     pjsip-core-x86_64-x64-vc14-debug-dynamic:sip_errno.obj
 0003:00037350       $SG15515                   00000001400e0350     pjsip-core-x86_64-x64-vc14-debug-dynamic:sip_errno.obj
 0003:00037380       $SG15516                   00000001400e0380     pjsip-core-x86_64-x64-vc14-debug-dynamic:sip_errno.obj
 0003:000373b0       $SG15517                   00000001400e03b0     pjsip-core-x86_64-x64-vc14-debug-dynamic:sip_errno.obj
 0003:000373e0       $SG15518                   00000001400e03e0     pjsip-core-x86_64-x64-vc14-debug-dynamic:sip_errno.obj
 0003:00037408       $SG15519                   00000001400e0408     pjsip-core-x86_64-x64-vc14-debug-dynamic:sip_errno.obj
 0003:00037438       $SG15520                   00000001400e0438     pjsip-core-x86_64-x64-vc14-debug-dynamic:sip_errno.obj
 0003:00037468       $SG15521                   00000001400e0468     pjsip-core-x86_64-x64-vc14-debug-dynamic:sip_errno.obj
 0003:00037490       $SG15522                   00000001400e0490     pjsip-core-x86_64-x64-vc14-debug-dynamic:sip_errno.obj
 0003:000374c8       $SG15523                   00000001400e04c8     pjsip-core-x86_64-x64-vc14-debug-dynamic:sip_errno.obj
 0003:000374f8       $SG15524                   00000001400e04f8     pjsip-core-x86_64-x64-vc14-debug-dynamic:sip_errno.obj
 0003:00037530       $SG15525                   00000001400e0530     pjsip-core-x86_64-x64-vc14-debug-dynamic:sip_errno.obj
 0003:00037560       $SG15526                   00000001400e0560     pjsip-core-x86_64-x64-vc14-debug-dynamic:sip_errno.obj
 0003:00037598       $SG15527                   00000001400e0598     pjsip-core-x86_64-x64-vc14-debug-dynamic:sip_errno.obj
 0003:000375c0       $SG15528                   00000001400e05c0     pjsip-core-x86_64-x64-vc14-debug-dynamic:sip_errno.obj
 0003:000375e8       $SG15529                   00000001400e05e8     pjsip-core-x86_64-x64-vc14-debug-dynamic:sip_errno.obj
 0003:00037620       $SG15530                   00000001400e0620     pjsip-core-x86_64-x64-vc14-debug-dynamic:sip_errno.obj
 0003:00037658       $SG15531                   00000001400e0658     pjsip-core-x86_64-x64-vc14-debug-dynamic:sip_errno.obj
 0003:00037690       $SG15532                   00000001400e0690     pjsip-core-x86_64-x64-vc14-debug-dynamic:sip_errno.obj
 0003:000376f0       $SG15533                   00000001400e06f0     pjsip-core-x86_64-x64-vc14-debug-dynamic:sip_errno.obj
 0003:00037718       $SG15534                   00000001400e0718     pjsip-core-x86_64-x64-vc14-debug-dynamic:sip_errno.obj
 0003:00037740       $SG15535                   00000001400e0740     pjsip-core-x86_64-x64-vc14-debug-dynamic:sip_errno.obj
 0003:00037770       $SG15536                   00000001400e0770     pjsip-core-x86_64-x64-vc14-debug-dynamic:sip_errno.obj
 0003:00037798       $SG15537                   00000001400e0798     pjsip-core-x86_64-x64-vc14-debug-dynamic:sip_errno.obj
 0003:000377c0       $SG15538                   00000001400e07c0     pjsip-core-x86_64-x64-vc14-debug-dynamic:sip_errno.obj
 0003:000377f8       $SG15539                   00000001400e07f8     pjsip-core-x86_64-x64-vc14-debug-dynamic:sip_errno.obj
 0003:00037828       $SG15540                   00000001400e0828     pjsip-core-x86_64-x64-vc14-debug-dynamic:sip_errno.obj
 0003:00037858       $SG15541                   00000001400e0858     pjsip-core-x86_64-x64-vc14-debug-dynamic:sip_errno.obj
 0003:00037890       $SG15542                   00000001400e0890     pjsip-core-x86_64-x64-vc14-debug-dynamic:sip_errno.obj
 0003:000378c0       $SG15543                   00000001400e08c0     pjsip-core-x86_64-x64-vc14-debug-dynamic:sip_errno.obj
 0003:000378f0       $SG15544                   00000001400e08f0     pjsip-core-x86_64-x64-vc14-debug-dynamic:sip_errno.obj
 0003:00037928       $SG15545                   00000001400e0928     pjsip-core-x86_64-x64-vc14-debug-dynamic:sip_errno.obj
 0003:00037968       $SG15546                   00000001400e0968     pjsip-core-x86_64-x64-vc14-debug-dynamic:sip_errno.obj
 0003:00037998       $SG15547                   00000001400e0998     pjsip-core-x86_64-x64-vc14-debug-dynamic:sip_errno.obj
 0003:000379d8       $SG15548                   00000001400e09d8     pjsip-core-x86_64-x64-vc14-debug-dynamic:sip_errno.obj
 0003:00037a10       $SG15549                   00000001400e0a10     pjsip-core-x86_64-x64-vc14-debug-dynamic:sip_errno.obj
 0003:00037a50       $SG15550                   00000001400e0a50     pjsip-core-x86_64-x64-vc14-debug-dynamic:sip_errno.obj
 0003:00037a80       $SG15551                   00000001400e0a80     pjsip-core-x86_64-x64-vc14-debug-dynamic:sip_errno.obj
 0003:00037ab8       $SG15552                   00000001400e0ab8     pjsip-core-x86_64-x64-vc14-debug-dynamic:sip_errno.obj
 0003:00037af8       $SG15553                   00000001400e0af8     pjsip-core-x86_64-x64-vc14-debug-dynamic:sip_errno.obj
 0003:00037b38       $SG15554                   00000001400e0b38     pjsip-core-x86_64-x64-vc14-debug-dynamic:sip_errno.obj
 0003:00037b70       $SG15555                   00000001400e0b70     pjsip-core-x86_64-x64-vc14-debug-dynamic:sip_errno.obj
 0003:00037bb0       $SG15556                   00000001400e0bb0     pjsip-core-x86_64-x64-vc14-debug-dynamic:sip_errno.obj
 0003:00037c00       $SG15557                   00000001400e0c00     pjsip-core-x86_64-x64-vc14-debug-dynamic:sip_errno.obj
 0003:00037c48       $SG15558                   00000001400e0c48     pjsip-core-x86_64-x64-vc14-debug-dynamic:sip_errno.obj
 0003:00037c78       $SG15559                   00000001400e0c78     pjsip-core-x86_64-x64-vc14-debug-dynamic:sip_errno.obj
 0003:00037ca8       $SG15560                   00000001400e0ca8     pjsip-core-x86_64-x64-vc14-debug-dynamic:sip_errno.obj
 0003:00037ce0       $SG15561                   00000001400e0ce0     pjsip-core-x86_64-x64-vc14-debug-dynamic:sip_errno.obj
 0003:00037d10       $SG15562                   00000001400e0d10     pjsip-core-x86_64-x64-vc14-debug-dynamic:sip_errno.obj
 0003:00037d50       $SG15563                   00000001400e0d50     pjsip-core-x86_64-x64-vc14-debug-dynamic:sip_errno.obj
 0003:00037d90       $SG15564                   00000001400e0d90     pjsip-core-x86_64-x64-vc14-debug-dynamic:sip_errno.obj
 0003:00037dc8       $SG15565                   00000001400e0dc8     pjsip-core-x86_64-x64-vc14-debug-dynamic:sip_errno.obj
 0003:00037e08       $SG15566                   00000001400e0e08     pjsip-core-x86_64-x64-vc14-debug-dynamic:sip_errno.obj
 0003:00037e30       $SG15567                   00000001400e0e30     pjsip-core-x86_64-x64-vc14-debug-dynamic:sip_errno.obj
 0003:00037e68       $SG15568                   00000001400e0e68     pjsip-core-x86_64-x64-vc14-debug-dynamic:sip_errno.obj
 0003:00037ea8       $SG15569                   00000001400e0ea8     pjsip-core-x86_64-x64-vc14-debug-dynamic:sip_errno.obj
 0003:00037ef0       $SG15570                   00000001400e0ef0     pjsip-core-x86_64-x64-vc14-debug-dynamic:sip_errno.obj
 0003:00037f38       $SG15571                   00000001400e0f38     pjsip-core-x86_64-x64-vc14-debug-dynamic:sip_errno.obj
 0003:00037f70       $SG15572                   00000001400e0f70     pjsip-core-x86_64-x64-vc14-debug-dynamic:sip_errno.obj
 0003:00037fa0       $SG15573                   00000001400e0fa0     pjsip-core-x86_64-x64-vc14-debug-dynamic:sip_errno.obj
 0003:00037fe0       $SG15574                   00000001400e0fe0     pjsip-core-x86_64-x64-vc14-debug-dynamic:sip_errno.obj
 0003:00038028       $SG15575                   00000001400e1028     pjsip-core-x86_64-x64-vc14-debug-dynamic:sip_errno.obj
 0003:00038068       $SG15576                   00000001400e1068     pjsip-core-x86_64-x64-vc14-debug-dynamic:sip_errno.obj
 0003:000380a0       $SG15577                   00000001400e10a0     pjsip-core-x86_64-x64-vc14-debug-dynamic:sip_errno.obj
 0003:000380d8       $SG15578                   00000001400e10d8     pjsip-core-x86_64-x64-vc14-debug-dynamic:sip_errno.obj
 0003:00038110       $SG15579                   00000001400e1110     pjsip-core-x86_64-x64-vc14-debug-dynamic:sip_errno.obj
 0003:00038150       $SG15606                   00000001400e1150     pjsip-core-x86_64-x64-vc14-debug-dynamic:sip_errno.obj
 0003:000384b0       $SG16530                   00000001400e14b0     pjsip-core-x86_64-x64-vc14-debug-dynamic:sip_tel_uri.obj
 0003:000384b8       $SG16532                   00000001400e14b8     pjsip-core-x86_64-x64-vc14-debug-dynamic:sip_tel_uri.obj
 0003:000384c0       $SG16534                   00000001400e14c0     pjsip-core-x86_64-x64-vc14-debug-dynamic:sip_tel_uri.obj
 0003:000384d0       pjsip_ISUB_STR             00000001400e14d0     pjsip-core-x86_64-x64-vc14-debug-dynamic:sip_tel_uri.obj
 0003:000384e0       pjsip_EXT_STR              00000001400e14e0     pjsip-core-x86_64-x64-vc14-debug-dynamic:sip_tel_uri.obj
 0003:000384f0       pjsip_PH_CTX_STR           00000001400e14f0     pjsip-core-x86_64-x64-vc14-debug-dynamic:sip_tel_uri.obj
 0003:00038500       tel_uri_vptr               00000001400e1500     pjsip-core-x86_64-x64-vc14-debug-dynamic:sip_tel_uri.obj
 0003:00038528       $SG16653                   00000001400e1528     pjsip-core-x86_64-x64-vc14-debug-dynamic:sip_tel_uri.obj
 0003:00038550       $SG16652                   00000001400e1550     pjsip-core-x86_64-x64-vc14-debug-dynamic:sip_tel_uri.obj
 0003:00038650       $SG16654                   00000001400e1650     pjsip-core-x86_64-x64-vc14-debug-dynamic:sip_tel_uri.obj
 0003:00038660       $SG16656                   00000001400e1660     pjsip-core-x86_64-x64-vc14-debug-dynamic:sip_tel_uri.obj
 0003:00038760       $SG16657                   00000001400e1760     pjsip-core-x86_64-x64-vc14-debug-dynamic:sip_tel_uri.obj
 0003:00038788       $SG16658                   00000001400e1788     pjsip-core-x86_64-x64-vc14-debug-dynamic:sip_tel_uri.obj
 0003:000387b4       $SG16662                   00000001400e17b4     pjsip-core-x86_64-x64-vc14-debug-dynamic:sip_tel_uri.obj
 0003:000387c0       $SG16660                   00000001400e17c0     pjsip-core-x86_64-x64-vc14-debug-dynamic:sip_tel_uri.obj
 0003:000388c0       $SG16661                   00000001400e18c0     pjsip-core-x86_64-x64-vc14-debug-dynamic:sip_tel_uri.obj
 0003:000388e8       $SG16665                   00000001400e18e8     pjsip-core-x86_64-x64-vc14-debug-dynamic:sip_tel_uri.obj
 0003:00038910       $SG16664                   00000001400e1910     pjsip-core-x86_64-x64-vc14-debug-dynamic:sip_tel_uri.obj
 0003:00038a10       $SG16666                   00000001400e1a10     pjsip-core-x86_64-x64-vc14-debug-dynamic:sip_tel_uri.obj
 0003:00038a20       $SG16668                   00000001400e1a20     pjsip-core-x86_64-x64-vc14-debug-dynamic:sip_tel_uri.obj
 0003:00038b20       $SG16669                   00000001400e1b20     pjsip-core-x86_64-x64-vc14-debug-dynamic:sip_tel_uri.obj
 0003:00038b48       $SG16670                   00000001400e1b48     pjsip-core-x86_64-x64-vc14-debug-dynamic:sip_tel_uri.obj
 0003:00038b68       $SG16673                   00000001400e1b68     pjsip-core-x86_64-x64-vc14-debug-dynamic:sip_tel_uri.obj
 0003:00038b90       $SG16672                   00000001400e1b90     pjsip-core-x86_64-x64-vc14-debug-dynamic:sip_tel_uri.obj
 0003:00038c90       $SG16674                   00000001400e1c90     pjsip-core-x86_64-x64-vc14-debug-dynamic:sip_tel_uri.obj
 0003:00038c98       $SG16677                   00000001400e1c98     pjsip-core-x86_64-x64-vc14-debug-dynamic:sip_tel_uri.obj
 0003:00038cc0       $SG16676                   00000001400e1cc0     pjsip-core-x86_64-x64-vc14-debug-dynamic:sip_tel_uri.obj
 0003:00038dc0       $SG16678                   00000001400e1dc0     pjsip-core-x86_64-x64-vc14-debug-dynamic:sip_tel_uri.obj
 0003:00038ddc       $SG16679                   00000001400e1ddc     pjsip-core-x86_64-x64-vc14-debug-dynamic:sip_tel_uri.obj
 0003:00038de0       $SG16681                   00000001400e1de0     pjsip-core-x86_64-x64-vc14-debug-dynamic:sip_tel_uri.obj
 0003:00038ee0       $SG16682                   00000001400e1ee0     pjsip-core-x86_64-x64-vc14-debug-dynamic:sip_tel_uri.obj
 0003:00038f08       $SG16683                   00000001400e1f08     pjsip-core-x86_64-x64-vc14-debug-dynamic:sip_tel_uri.obj
 0003:00038f0c       $SG16684                   00000001400e1f0c     pjsip-core-x86_64-x64-vc14-debug-dynamic:sip_tel_uri.obj
 0003:00038f10       $SG16685                   00000001400e1f10     pjsip-core-x86_64-x64-vc14-debug-dynamic:sip_tel_uri.obj
 0003:00038f14       $SG16728                   00000001400e1f14     pjsip-core-x86_64-x64-vc14-debug-dynamic:sip_tel_uri.obj
 0003:00038f20       $SG16687                   00000001400e1f20     pjsip-core-x86_64-x64-vc14-debug-dynamic:sip_tel_uri.obj
 0003:00039020       $SG16688                   00000001400e2020     pjsip-core-x86_64-x64-vc14-debug-dynamic:sip_tel_uri.obj
 0003:00039048       $SG16732                   00000001400e2048     pjsip-core-x86_64-x64-vc14-debug-dynamic:sip_tel_uri.obj
 0003:00039050       $SG16736                   00000001400e2050     pjsip-core-x86_64-x64-vc14-debug-dynamic:sip_tel_uri.obj
 0003:000392c0       authorization_hdr_vptr     00000001400e22c0     pjsip-core-x86_64-x64-vc14-debug-dynamic:sip_auth_msg.obj
 0003:000392d8       $SG16001                   00000001400e22d8     pjsip-core-x86_64-x64-vc14-debug-dynamic:sip_auth_msg.obj
 0003:000392e8       $SG16004                   00000001400e22e8     pjsip-core-x86_64-x64-vc14-debug-dynamic:sip_auth_msg.obj
 0003:000392f4       $SG16021                   00000001400e22f4     pjsip-core-x86_64-x64-vc14-debug-dynamic:sip_auth_msg.obj
 0003:000392fc       $SG16191                   00000001400e22fc     pjsip-core-x86_64-x64-vc14-debug-dynamic:sip_auth_msg.obj
 0003:00039300       $SG16008                   00000001400e2300     pjsip-core-x86_64-x64-vc14-debug-dynamic:sip_auth_msg.obj
 0003:0003930c       $SG16024                   00000001400e230c     pjsip-core-x86_64-x64-vc14-debug-dynamic:sip_auth_msg.obj
 0003:00039314       $SG16212                   00000001400e2314     pjsip-core-x86_64-x64-vc14-debug-dynamic:sip_auth_msg.obj
 0003:00039318       $SG16012                   00000001400e2318     pjsip-core-x86_64-x64-vc14-debug-dynamic:sip_auth_msg.obj
 0003:00039324       $SG16046                   00000001400e2324     pjsip-core-x86_64-x64-vc14-debug-dynamic:sip_auth_msg.obj
 0003:0003932c       $SG16214                   00000001400e232c     pjsip-core-x86_64-x64-vc14-debug-dynamic:sip_auth_msg.obj
 0003:00039330       $SG16015                   00000001400e2330     pjsip-core-x86_64-x64-vc14-debug-dynamic:sip_auth_msg.obj
 0003:0003933c       $SG16049                   00000001400e233c     pjsip-core-x86_64-x64-vc14-debug-dynamic:sip_auth_msg.obj
 0003:00039344       $SG16131                   00000001400e2344     pjsip-core-x86_64-x64-vc14-debug-dynamic:sip_auth_msg.obj
 0003:0003934c       $SG16216                   00000001400e234c     pjsip-core-x86_64-x64-vc14-debug-dynamic:sip_auth_msg.obj
 0003:00039350       $SG16017                   00000001400e2350     pjsip-core-x86_64-x64-vc14-debug-dynamic:sip_auth_msg.obj
 0003:0003935c       $SG16135                   00000001400e235c     pjsip-core-x86_64-x64-vc14-debug-dynamic:sip_auth_msg.obj
 0003:00039364       $SG16407                   00000001400e2364     pjsip-core-x86_64-x64-vc14-debug-dynamic:sip_auth_msg.obj
 0003:00039368       $SG16026                   00000001400e2368     pjsip-core-x86_64-x64-vc14-debug-dynamic:sip_auth_msg.obj
 0003:00039374       $SG16409                   00000001400e2374     pjsip-core-x86_64-x64-vc14-debug-dynamic:sip_auth_msg.obj
 0003:00039378       $SG16029                   00000001400e2378     pjsip-core-x86_64-x64-vc14-debug-dynamic:sip_auth_msg.obj
 0003:00039388       $SG16033                   00000001400e2388     pjsip-core-x86_64-x64-vc14-debug-dynamic:sip_auth_msg.obj
 0003:00039394       $SG16138                   00000001400e2394     pjsip-core-x86_64-x64-vc14-debug-dynamic:sip_auth_msg.obj
 0003:0003939c       $SG16430                   00000001400e239c     pjsip-core-x86_64-x64-vc14-debug-dynamic:sip_auth_msg.obj
 0003:000393a0       $SG16036                   00000001400e23a0     pjsip-core-x86_64-x64-vc14-debug-dynamic:sip_auth_msg.obj
 0003:000393ac       $SG16209                   00000001400e23ac     pjsip-core-x86_64-x64-vc14-debug-dynamic:sip_auth_msg.obj
 0003:000393b4       $SG16432                   00000001400e23b4     pjsip-core-x86_64-x64-vc14-debug-dynamic:sip_auth_msg.obj
 0003:000393b8       $SG16040                   00000001400e23b8     pjsip-core-x86_64-x64-vc14-debug-dynamic:sip_auth_msg.obj
 0003:000393c4       $SG16329                   00000001400e23c4     pjsip-core-x86_64-x64-vc14-debug-dynamic:sip_auth_msg.obj
 0003:000393cc       $SG16434                   00000001400e23cc     pjsip-core-x86_64-x64-vc14-debug-dynamic:sip_auth_msg.obj
 0003:000393d0       $SG16043                   00000001400e23d0     pjsip-core-x86_64-x64-vc14-debug-dynamic:sip_auth_msg.obj
 0003:000393dc       $SG16404                   00000001400e23dc     pjsip-core-x86_64-x64-vc14-debug-dynamic:sip_auth_msg.obj
 0003:000393e8       $SG16142                   00000001400e23e8     pjsip-core-x86_64-x64-vc14-debug-dynamic:sip_auth_msg.obj
 0003:000393f8       $SG16146                   00000001400e23f8     pjsip-core-x86_64-x64-vc14-debug-dynamic:sip_auth_msg.obj
 0003:00039408       $SG16149                   00000001400e2408     pjsip-core-x86_64-x64-vc14-debug-dynamic:sip_auth_msg.obj
 0003:00039418       $SG16153                   00000001400e2418     pjsip-core-x86_64-x64-vc14-debug-dynamic:sip_auth_msg.obj
 0003:00039428       $SG16157                   00000001400e2428     pjsip-core-x86_64-x64-vc14-debug-dynamic:sip_auth_msg.obj
 0003:00039438       $SG16160                   00000001400e2438     pjsip-core-x86_64-x64-vc14-debug-dynamic:sip_auth_msg.obj
 0003:00039448       www_authenticate_hdr_vptr  00000001400e2448     pjsip-core-x86_64-x64-vc14-debug-dynamic:sip_auth_msg.obj
 0003:00039460       $SG16190                   00000001400e2460     pjsip-core-x86_64-x64-vc14-debug-dynamic:sip_auth_msg.obj
 0003:00039560       $SG16213                   00000001400e2560     pjsip-core-x86_64-x64-vc14-debug-dynamic:sip_auth_msg.obj
 0003:00039660       $SG16215                   00000001400e2660     pjsip-core-x86_64-x64-vc14-debug-dynamic:sip_auth_msg.obj
 0003:00039760       $SG16333                   00000001400e2760     pjsip-core-x86_64-x64-vc14-debug-dynamic:sip_auth_msg.obj
 0003:00039770       $SG16336                   00000001400e2770     pjsip-core-x86_64-x64-vc14-debug-dynamic:sip_auth_msg.obj
 0003:00039780       $SG16340                   00000001400e2780     pjsip-core-x86_64-x64-vc14-debug-dynamic:sip_auth_msg.obj
 0003:00039788       $SG16343                   00000001400e2788     pjsip-core-x86_64-x64-vc14-debug-dynamic:sip_auth_msg.obj
 0003:00039790       $SG16347                   00000001400e2790     pjsip-core-x86_64-x64-vc14-debug-dynamic:sip_auth_msg.obj
 0003:000397a0       $SG16350                   00000001400e27a0     pjsip-core-x86_64-x64-vc14-debug-dynamic:sip_auth_msg.obj
 0003:000397ac       $SG16353                   00000001400e27ac     pjsip-core-x86_64-x64-vc14-debug-dynamic:sip_auth_msg.obj
 0003:000397b8       $SG16356                   00000001400e27b8     pjsip-core-x86_64-x64-vc14-debug-dynamic:sip_auth_msg.obj
 0003:000397c0       $SG16359                   00000001400e27c0     pjsip-core-x86_64-x64-vc14-debug-dynamic:sip_auth_msg.obj
 0003:000397cc       $SG16363                   00000001400e27cc     pjsip-core-x86_64-x64-vc14-debug-dynamic:sip_auth_msg.obj
 0003:000397d4       $SG16366                   00000001400e27d4     pjsip-core-x86_64-x64-vc14-debug-dynamic:sip_auth_msg.obj
 0003:000397e0       $SG16408                   00000001400e27e0     pjsip-core-x86_64-x64-vc14-debug-dynamic:sip_auth_msg.obj
 0003:000398e0       $SG16427                   00000001400e28e0     pjsip-core-x86_64-x64-vc14-debug-dynamic:sip_auth_msg.obj
 0003:000398f0       $SG16431                   00000001400e28f0     pjsip-core-x86_64-x64-vc14-debug-dynamic:sip_auth_msg.obj
 0003:000399f0       $SG16433                   00000001400e29f0     pjsip-core-x86_64-x64-vc14-debug-dynamic:sip_auth_msg.obj
 0003:00039ca0       $SG16057                   00000001400e2ca0     pjsip-core-x86_64-x64-vc14-debug-dynamic:sip_auth_parser.obj
 0003:00039cac       $SG16058                   00000001400e2cac     pjsip-core-x86_64-x64-vc14-debug-dynamic:sip_auth_parser.obj
 0003:00039cb4       $SG16059                   00000001400e2cb4     pjsip-core-x86_64-x64-vc14-debug-dynamic:sip_auth_parser.obj
 0003:00039cbc       $SG16060                   00000001400e2cbc     pjsip-core-x86_64-x64-vc14-debug-dynamic:sip_auth_parser.obj
 0003:00039cc0       $SG16061                   00000001400e2cc0     pjsip-core-x86_64-x64-vc14-debug-dynamic:sip_auth_parser.obj
 0003:00039ccc       $SG16063                   00000001400e2ccc     pjsip-core-x86_64-x64-vc14-debug-dynamic:sip_auth_parser.obj
 0003:00039cd4       $SG16065                   00000001400e2cd4     pjsip-core-x86_64-x64-vc14-debug-dynamic:sip_auth_parser.obj
 0003:00039cd8       $SG16062                   00000001400e2cd8     pjsip-core-x86_64-x64-vc14-debug-dynamic:sip_auth_parser.obj
 0003:00039ce4       $SG16064                   00000001400e2ce4     pjsip-core-x86_64-x64-vc14-debug-dynamic:sip_auth_parser.obj
 0003:00039cec       $SG16066                   00000001400e2cec     pjsip-core-x86_64-x64-vc14-debug-dynamic:sip_auth_parser.obj
 0003:00039cf4       $SG16067                   00000001400e2cf4     pjsip-core-x86_64-x64-vc14-debug-dynamic:sip_auth_parser.obj
 0003:00039cfc       $SG16068                   00000001400e2cfc     pjsip-core-x86_64-x64-vc14-debug-dynamic:sip_auth_parser.obj
 0003:00039d00       $SG16069                   00000001400e2d00     pjsip-core-x86_64-x64-vc14-debug-dynamic:sip_auth_parser.obj
 0003:00039d08       $SG16071                   00000001400e2d08     pjsip-core-x86_64-x64-vc14-debug-dynamic:sip_auth_parser.obj
 0003:00039d10       $SG16072                   00000001400e2d10     pjsip-core-x86_64-x64-vc14-debug-dynamic:sip_auth_parser.obj
 0003:00039d18       $SG16074                   00000001400e2d18     pjsip-core-x86_64-x64-vc14-debug-dynamic:sip_auth_parser.obj
 0003:00039d20       $SG16075                   00000001400e2d20     pjsip-core-x86_64-x64-vc14-debug-dynamic:sip_auth_parser.obj
 0003:00039d28       $SG16077                   00000001400e2d28     pjsip-core-x86_64-x64-vc14-debug-dynamic:sip_auth_parser.obj
 0003:00039d34       $SG16078                   00000001400e2d34     pjsip-core-x86_64-x64-vc14-debug-dynamic:sip_auth_parser.obj
 0003:00039d38       $SG16080                   00000001400e2d38     pjsip-core-x86_64-x64-vc14-debug-dynamic:sip_auth_parser.obj
 0003:00039d40       $SG16081                   00000001400e2d40     pjsip-core-x86_64-x64-vc14-debug-dynamic:sip_auth_parser.obj
 0003:00039d48       $SG16082                   00000001400e2d48     pjsip-core-x86_64-x64-vc14-debug-dynamic:sip_auth_parser.obj
 0003:00039d4c       $SG16084                   00000001400e2d4c     pjsip-core-x86_64-x64-vc14-debug-dynamic:sip_auth_parser.obj
 0003:00039d54       $SG16085                   00000001400e2d54     pjsip-core-x86_64-x64-vc14-debug-dynamic:sip_auth_parser.obj
 0003:00039d5c       $SG16087                   00000001400e2d5c     pjsip-core-x86_64-x64-vc14-debug-dynamic:sip_auth_parser.obj
 0003:00039d68       $SG16257                   00000001400e2d68     pjsip-core-x86_64-x64-vc14-debug-dynamic:sip_auth_parser.obj
 0003:00039d80       $SG16259                   00000001400e2d80     pjsip-core-x86_64-x64-vc14-debug-dynamic:sip_auth_parser.obj
 0003:00039e88       $SG16260                   00000001400e2e88     pjsip-core-x86_64-x64-vc14-debug-dynamic:sip_auth_parser.obj
 0003:00039eb0       $SG16261                   00000001400e2eb0     pjsip-core-x86_64-x64-vc14-debug-dynamic:sip_auth_parser.obj
 0003:00039ed0       $SG16263                   00000001400e2ed0     pjsip-core-x86_64-x64-vc14-debug-dynamic:sip_auth_parser.obj
 0003:00039fd8       $SG16264                   00000001400e2fd8     pjsip-core-x86_64-x64-vc14-debug-dynamic:sip_auth_parser.obj
 0003:0003a000       $SG16265                   00000001400e3000     pjsip-core-x86_64-x64-vc14-debug-dynamic:sip_auth_parser.obj
 0003:0003a020       $SG16267                   00000001400e3020     pjsip-core-x86_64-x64-vc14-debug-dynamic:sip_auth_parser.obj
 0003:0003a128       $SG16268                   00000001400e3128     pjsip-core-x86_64-x64-vc14-debug-dynamic:sip_auth_parser.obj
 0003:0003a150       $SG16269                   00000001400e3150     pjsip-core-x86_64-x64-vc14-debug-dynamic:sip_auth_parser.obj
 0003:0003a170       $SG16271                   00000001400e3170     pjsip-core-x86_64-x64-vc14-debug-dynamic:sip_auth_parser.obj
 0003:0003a278       $SG16272                   00000001400e3278     pjsip-core-x86_64-x64-vc14-debug-dynamic:sip_auth_parser.obj
 0003:0003a3d0       $SG16712                   00000001400e33d0     pjmedia-x86_64-x64-vc14-debug-dynamic:sdp.obj
 0003:0003a3f0       $SG16732                   00000001400e33f0     pjmedia-x86_64-x64-vc14-debug-dynamic:sdp.obj
 0003:0003a4e8       $SG16733                   00000001400e34e8     pjmedia-x86_64-x64-vc14-debug-dynamic:sdp.obj
 0003:0003a508       $SG16753                   00000001400e3508     pjmedia-x86_64-x64-vc14-debug-dynamic:sdp.obj
 0003:0003a520       $SG16752                   00000001400e3520     pjmedia-x86_64-x64-vc14-debug-dynamic:sdp.obj
 0003:0003a618       $SG16783                   00000001400e3618     pjmedia-x86_64-x64-vc14-debug-dynamic:sdp.obj
 0003:0003a640       $SG16782                   00000001400e3640     pjmedia-x86_64-x64-vc14-debug-dynamic:sdp.obj
 0003:0003a738       $SG16820                   00000001400e3738     pjmedia-x86_64-x64-vc14-debug-dynamic:sdp.obj
 0003:0003a770       $SG16819                   00000001400e3770     pjmedia-x86_64-x64-vc14-debug-dynamic:sdp.obj
 0003:0003a868       $SG16823                   00000001400e3868     pjmedia-x86_64-x64-vc14-debug-dynamic:sdp.obj
 0003:0003a890       $SG16822                   00000001400e3890     pjmedia-x86_64-x64-vc14-debug-dynamic:sdp.obj
 0003:0003a988       $SG16852                   00000001400e3988     pjmedia-x86_64-x64-vc14-debug-dynamic:sdp.obj
 0003:0003a9c0       $SG16851                   00000001400e39c0     pjmedia-x86_64-x64-vc14-debug-dynamic:sdp.obj
 0003:0003aab8       $SG16884                   00000001400e3ab8     pjmedia-x86_64-x64-vc14-debug-dynamic:sdp.obj
 0003:0003aaf0       $SG16854                   00000001400e3af0     pjmedia-x86_64-x64-vc14-debug-dynamic:sdp.obj
 0003:0003abe8       $SG16855                   00000001400e3be8     pjmedia-x86_64-x64-vc14-debug-dynamic:sdp.obj
 0003:0003ac14       $SG16911                   00000001400e3c14     pjmedia-x86_64-x64-vc14-debug-dynamic:sdp.obj
 0003:0003ac20       $SG16883                   00000001400e3c20     pjmedia-x86_64-x64-vc14-debug-dynamic:sdp.obj
 0003:0003ad18       $SG16912                   00000001400e3d18     pjmedia-x86_64-x64-vc14-debug-dynamic:sdp.obj
 0003:0003ad20       $SG16886                   00000001400e3d20     pjmedia-x86_64-x64-vc14-debug-dynamic:sdp.obj
 0003:0003ae18       $SG16887                   00000001400e3e18     pjmedia-x86_64-x64-vc14-debug-dynamic:sdp.obj
 0003:0003ae48       $SG16917                   00000001400e3e48     pjmedia-x86_64-x64-vc14-debug-dynamic:sdp.obj
 0003:0003ae60       $SG16913                   00000001400e3e60     pjmedia-x86_64-x64-vc14-debug-dynamic:sdp.obj
 0003:0003af58       $SG16919                   00000001400e3f58     pjmedia-x86_64-x64-vc14-debug-dynamic:sdp.obj
 0003:0003af80       $SG16914                   00000001400e3f80     pjmedia-x86_64-x64-vc14-debug-dynamic:sdp.obj
 0003:0003afd0       $SG16918                   00000001400e3fd0     pjmedia-x86_64-x64-vc14-debug-dynamic:sdp.obj
 0003:0003b0c8       $SG16946                   00000001400e40c8     pjmedia-x86_64-x64-vc14-debug-dynamic:sdp.obj
 0003:0003b0d0       $SG16947                   00000001400e40d0     pjmedia-x86_64-x64-vc14-debug-dynamic:sdp.obj
 0003:0003b0d8       $SG16970                   00000001400e40d8     pjmedia-x86_64-x64-vc14-debug-dynamic:sdp.obj
 0003:0003b0e0       $SG16948                   00000001400e40e0     pjmedia-x86_64-x64-vc14-debug-dynamic:sdp.obj
 0003:0003b1d8       $SG16971                   00000001400e41d8     pjmedia-x86_64-x64-vc14-debug-dynamic:sdp.obj
 0003:0003b1e0       $SG16949                   00000001400e41e0     pjmedia-x86_64-x64-vc14-debug-dynamic:sdp.obj
 0003:0003b228       $SG16980                   00000001400e4228     pjmedia-x86_64-x64-vc14-debug-dynamic:sdp.obj
 0003:0003b230       $SG16972                   00000001400e4230     pjmedia-x86_64-x64-vc14-debug-dynamic:sdp.obj
 0003:0003b328       $SG16996                   00000001400e4328     pjmedia-x86_64-x64-vc14-debug-dynamic:sdp.obj
 0003:0003b330       $SG16973                   00000001400e4330     pjmedia-x86_64-x64-vc14-debug-dynamic:sdp.obj
 0003:0003b378       $SG16999                   00000001400e4378     pjmedia-x86_64-x64-vc14-debug-dynamic:sdp.obj
 0003:0003b388       $SG17002                   00000001400e4388     pjmedia-x86_64-x64-vc14-debug-dynamic:sdp.obj
 0003:0003b398       $SG17003                   00000001400e4398     pjmedia-x86_64-x64-vc14-debug-dynamic:sdp.obj
 0003:0003b3b8       $SG17005                   00000001400e43b8     pjmedia-x86_64-x64-vc14-debug-dynamic:sdp.obj
 0003:0003b3f4       $SG17024                   00000001400e43f4     pjmedia-x86_64-x64-vc14-debug-dynamic:sdp.obj
 0003:0003b400       $SG17004                   00000001400e4400     pjmedia-x86_64-x64-vc14-debug-dynamic:sdp.obj
 0003:0003b4f8       $SG17025                   00000001400e44f8     pjmedia-x86_64-x64-vc14-debug-dynamic:sdp.obj
 0003:0003b500       $SG17026                   00000001400e4500     pjmedia-x86_64-x64-vc14-debug-dynamic:sdp.obj
 0003:0003b5f8       $SG17034                   00000001400e45f8     pjmedia-x86_64-x64-vc14-debug-dynamic:sdp.obj
 0003:0003b600       $SG17027                   00000001400e4600     pjmedia-x86_64-x64-vc14-debug-dynamic:sdp.obj
 0003:0003b648       $SG17049                   00000001400e4648     pjmedia-x86_64-x64-vc14-debug-dynamic:sdp.obj
 0003:0003b650       $SG17050                   00000001400e4650     pjmedia-x86_64-x64-vc14-debug-dynamic:sdp.obj
 0003:0003b660       $SG17072                   00000001400e4660     pjmedia-x86_64-x64-vc14-debug-dynamic:sdp.obj
 0003:0003b758       $SG17073                   00000001400e4758     pjmedia-x86_64-x64-vc14-debug-dynamic:sdp.obj
 0003:0003b790       $SG17075                   00000001400e4790     pjmedia-x86_64-x64-vc14-debug-dynamic:sdp.obj
 0003:0003b888       $SG17076                   00000001400e4888     pjmedia-x86_64-x64-vc14-debug-dynamic:sdp.obj
 0003:0003b8a0       $SG17113                   00000001400e48a0     pjmedia-x86_64-x64-vc14-debug-dynamic:sdp.obj
 0003:0003b998       $SG17114                   00000001400e4998     pjmedia-x86_64-x64-vc14-debug-dynamic:sdp.obj
 0003:0003b9d0       $SG17117                   00000001400e49d0     pjmedia-x86_64-x64-vc14-debug-dynamic:sdp.obj
 0003:0003bac8       $SG17121                   00000001400e4ac8     pjmedia-x86_64-x64-vc14-debug-dynamic:sdp.obj
 0003:0003baf0       $SG17118                   00000001400e4af0     pjmedia-x86_64-x64-vc14-debug-dynamic:sdp.obj
 0003:0003bb48       $SG17122                   00000001400e4b48     pjmedia-x86_64-x64-vc14-debug-dynamic:sdp.obj
 0003:0003bb50       $SG17120                   00000001400e4b50     pjmedia-x86_64-x64-vc14-debug-dynamic:sdp.obj
 0003:0003bc48       $SG17123                   00000001400e4c48     pjmedia-x86_64-x64-vc14-debug-dynamic:sdp.obj
 0003:0003bc4c       $SG17414                   00000001400e4c4c     pjmedia-x86_64-x64-vc14-debug-dynamic:sdp.obj
 0003:0003bc50       $SG17125                   00000001400e4c50     pjmedia-x86_64-x64-vc14-debug-dynamic:sdp.obj
 0003:0003bc64       $SG17483                   00000001400e4c64     pjmedia-x86_64-x64-vc14-debug-dynamic:sdp.obj
 0003:0003bc68       $SG17140                   00000001400e4c68     pjmedia-x86_64-x64-vc14-debug-dynamic:sdp.obj
 0003:0003bc80       $SG17277                   00000001400e4c80     pjmedia-x86_64-x64-vc14-debug-dynamic:sdp.obj
 0003:0003bd78       $SG17278                   00000001400e4d78     pjmedia-x86_64-x64-vc14-debug-dynamic:sdp.obj
 0003:0003bda0       $SG17282                   00000001400e4da0     pjmedia-x86_64-x64-vc14-debug-dynamic:sdp.obj
 0003:0003be98       $SG17283                   00000001400e4e98     pjmedia-x86_64-x64-vc14-debug-dynamic:sdp.obj
 0003:0003bec8       $SG17286                   00000001400e4ec8     pjmedia-x86_64-x64-vc14-debug-dynamic:sdp.obj
 0003:0003bf00       $SG17285                   00000001400e4f00     pjmedia-x86_64-x64-vc14-debug-dynamic:sdp.obj
 0003:0003bff8       $SG17289                   00000001400e4ff8     pjmedia-x86_64-x64-vc14-debug-dynamic:sdp.obj
 0003:0003c030       $SG17288                   00000001400e5030     pjmedia-x86_64-x64-vc14-debug-dynamic:sdp.obj
 0003:0003c128       $SG17306                   00000001400e5128     pjmedia-x86_64-x64-vc14-debug-dynamic:sdp.obj
 0003:0003c140       $SG17305                   00000001400e5140     pjmedia-x86_64-x64-vc14-debug-dynamic:sdp.obj
 0003:0003c238       $SG17323                   00000001400e5238     pjmedia-x86_64-x64-vc14-debug-dynamic:sdp.obj
 0003:0003c250       $SG17322                   00000001400e5250     pjmedia-x86_64-x64-vc14-debug-dynamic:sdp.obj
 0003:0003c348       $SG17371                   00000001400e5348     pjmedia-x86_64-x64-vc14-debug-dynamic:sdp.obj
 0003:0003c350       $SG17395                   00000001400e5350     pjmedia-x86_64-x64-vc14-debug-dynamic:sdp.obj
 0003:0003c358       $SG17405                   00000001400e5358     pjmedia-x86_64-x64-vc14-debug-dynamic:sdp.obj
 0003:0003c360       $SG17423                   00000001400e5360     pjmedia-x86_64-x64-vc14-debug-dynamic:sdp.obj
 0003:0003c368       $SG17432                   00000001400e5368     pjmedia-x86_64-x64-vc14-debug-dynamic:sdp.obj
 0003:0003c370       $SG17453                   00000001400e5370     pjmedia-x86_64-x64-vc14-debug-dynamic:sdp.obj
 0003:0003c378       $SG17458                   00000001400e5378     pjmedia-x86_64-x64-vc14-debug-dynamic:sdp.obj
 0003:0003c3b0       $SG17459                   00000001400e53b0     pjmedia-x86_64-x64-vc14-debug-dynamic:sdp.obj
 0003:0003c3b8       $SG17507                   00000001400e53b8     pjmedia-x86_64-x64-vc14-debug-dynamic:sdp.obj
 0003:0003c3c4       $SG17600                   00000001400e53c4     pjmedia-x86_64-x64-vc14-debug-dynamic:sdp.obj
 0003:0003c3cc       $SG17716                   00000001400e53cc     pjmedia-x86_64-x64-vc14-debug-dynamic:sdp.obj
 0003:0003c3d0       $SG17509                   00000001400e53d0     pjmedia-x86_64-x64-vc14-debug-dynamic:sdp.obj
 0003:0003c3dc       $SG17604                   00000001400e53dc     pjmedia-x86_64-x64-vc14-debug-dynamic:sdp.obj
 0003:0003c3e4       $SG17718                   00000001400e53e4     pjmedia-x86_64-x64-vc14-debug-dynamic:sdp.obj
 0003:0003c3e8       $SG17511                   00000001400e53e8     pjmedia-x86_64-x64-vc14-debug-dynamic:sdp.obj
 0003:0003c3f4       $SG17615                   00000001400e53f4     pjmedia-x86_64-x64-vc14-debug-dynamic:sdp.obj
 0003:0003c3fc       $SG17719                   00000001400e53fc     pjmedia-x86_64-x64-vc14-debug-dynamic:sdp.obj
 0003:0003c400       $SG17513                   00000001400e5400     pjmedia-x86_64-x64-vc14-debug-dynamic:sdp.obj
 0003:0003c410       $SG17586                   00000001400e5410     pjmedia-x86_64-x64-vc14-debug-dynamic:sdp.obj
 0003:0003c508       $SG17587                   00000001400e5508     pjmedia-x86_64-x64-vc14-debug-dynamic:sdp.obj
 0003:0003c538       $SG17599                   00000001400e5538     pjmedia-x86_64-x64-vc14-debug-dynamic:sdp.obj
 0003:0003c56c       $SG17786                   00000001400e556c     pjmedia-x86_64-x64-vc14-debug-dynamic:sdp.obj
 0003:0003c570       $SG17603                   00000001400e5570     pjmedia-x86_64-x64-vc14-debug-dynamic:sdp.obj
 0003:0003c5a8       $SG17614                   00000001400e55a8     pjmedia-x86_64-x64-vc14-debug-dynamic:sdp.obj
 0003:0003c5d0       $SG17625                   00000001400e55d0     pjmedia-x86_64-x64-vc14-debug-dynamic:sdp.obj
 0003:0003c604       $SG17626                   00000001400e5604     pjmedia-x86_64-x64-vc14-debug-dynamic:sdp.obj
 0003:0003c60c       $SG17782                   00000001400e560c     pjmedia-x86_64-x64-vc14-debug-dynamic:sdp.obj
 0003:0003c614       $SG17788                   00000001400e5614     pjmedia-x86_64-x64-vc14-debug-dynamic:sdp.obj
 0003:0003c618       $SG17629                   00000001400e5618     pjmedia-x86_64-x64-vc14-debug-dynamic:sdp.obj
 0003:0003c650       $SG17630                   00000001400e5650     pjmedia-x86_64-x64-vc14-debug-dynamic:sdp.obj
 0003:0003c658       $SG17634                   00000001400e5658     pjmedia-x86_64-x64-vc14-debug-dynamic:sdp.obj
 0003:0003c67c       $SG17635                   00000001400e567c     pjmedia-x86_64-x64-vc14-debug-dynamic:sdp.obj
 0003:0003c688       $SG17689                   00000001400e5688     pjmedia-x86_64-x64-vc14-debug-dynamic:sdp.obj
 0003:0003c6a0       $SG17636                   00000001400e56a0     pjmedia-x86_64-x64-vc14-debug-dynamic:sdp.obj
 0003:0003c798       $SG17637                   00000001400e5798     pjmedia-x86_64-x64-vc14-debug-dynamic:sdp.obj
 0003:0003c7d8       $SG17692                   00000001400e57d8     pjmedia-x86_64-x64-vc14-debug-dynamic:sdp.obj
 0003:0003c800       $SG17688                   00000001400e5800     pjmedia-x86_64-x64-vc14-debug-dynamic:sdp.obj
 0003:0003c8f8       $SG17696                   00000001400e58f8     pjmedia-x86_64-x64-vc14-debug-dynamic:sdp.obj
 0003:0003c930       $SG17691                   00000001400e5930     pjmedia-x86_64-x64-vc14-debug-dynamic:sdp.obj
 0003:0003ca28       $SG17789                   00000001400e5a28     pjmedia-x86_64-x64-vc14-debug-dynamic:sdp.obj
 0003:0003ca30       $SG17695                   00000001400e5a30     pjmedia-x86_64-x64-vc14-debug-dynamic:sdp.obj
 0003:0003cb28       $SG17830                   00000001400e5b28     pjmedia-x86_64-x64-vc14-debug-dynamic:sdp.obj
 0003:0003cb30       $SG17829                   00000001400e5b30     pjmedia-x86_64-x64-vc14-debug-dynamic:sdp.obj
 0003:0003cc28       $SG17831                   00000001400e5c28     pjmedia-x86_64-x64-vc14-debug-dynamic:sdp.obj
 0003:0003cc2c       $SG17835                   00000001400e5c2c     pjmedia-x86_64-x64-vc14-debug-dynamic:sdp.obj
 0003:0003cc30       $SG17837                   00000001400e5c30     pjmedia-x86_64-x64-vc14-debug-dynamic:sdp.obj
 0003:0003cc34       $SG17839                   00000001400e5c34     pjmedia-x86_64-x64-vc14-debug-dynamic:sdp.obj
 0003:0003cc3c       $SG17841                   00000001400e5c3c     pjmedia-x86_64-x64-vc14-debug-dynamic:sdp.obj
 0003:0003cc44       $SG17843                   00000001400e5c44     pjmedia-x86_64-x64-vc14-debug-dynamic:sdp.obj
 0003:0003cc4c       $SG17845                   00000001400e5c4c     pjmedia-x86_64-x64-vc14-debug-dynamic:sdp.obj
 0003:0003cc50       $SG17848                   00000001400e5c50     pjmedia-x86_64-x64-vc14-debug-dynamic:sdp.obj
 0003:0003cc60       $SG17850                   00000001400e5c60     pjmedia-x86_64-x64-vc14-debug-dynamic:sdp.obj
 0003:0003cc70       $SG17863                   00000001400e5c70     pjmedia-x86_64-x64-vc14-debug-dynamic:sdp.obj
 0003:0003cd68       $SG17864                   00000001400e5d68     pjmedia-x86_64-x64-vc14-debug-dynamic:sdp.obj
 0003:0003cd70       $SG17904                   00000001400e5d70     pjmedia-x86_64-x64-vc14-debug-dynamic:sdp.obj
 0003:0003ce68       $SG17905                   00000001400e5e68     pjmedia-x86_64-x64-vc14-debug-dynamic:sdp.obj
 0003:0003ce80       $SG17908                   00000001400e5e80     pjmedia-x86_64-x64-vc14-debug-dynamic:sdp.obj
 0003:0003cf78       $SG17909                   00000001400e5f78     pjmedia-x86_64-x64-vc14-debug-dynamic:sdp.obj
 0003:0003cfa8       $SG17912                   00000001400e5fa8     pjmedia-x86_64-x64-vc14-debug-dynamic:sdp.obj
 0003:0003cfe0       $SG17911                   00000001400e5fe0     pjmedia-x86_64-x64-vc14-debug-dynamic:sdp.obj
 0003:0003d9e0       $SG15913                   00000001400e69e0     pjmedia-x86_64-x64-vc14-debug-dynamic:sdp_neg.obj
 0003:0003d9f0       $SG15914                   00000001400e69f0     pjmedia-x86_64-x64-vc14-debug-dynamic:sdp_neg.obj
 0003:0003da08       $SG15915                   00000001400e6a08     pjmedia-x86_64-x64-vc14-debug-dynamic:sdp_neg.obj
 0003:0003da20       $SG15916                   00000001400e6a20     pjmedia-x86_64-x64-vc14-debug-dynamic:sdp_neg.obj
 0003:0003da30       $SG15917                   00000001400e6a30     pjmedia-x86_64-x64-vc14-debug-dynamic:sdp_neg.obj
 0003:0003da40       state_str                  00000001400e6a40     pjmedia-x86_64-x64-vc14-debug-dynamic:sdp_neg.obj
 0003:0003da68       $SG15945                   00000001400e6a68     pjmedia-x86_64-x64-vc14-debug-dynamic:sdp_neg.obj
 0003:0003da74       $SG16186                   00000001400e6a74     pjmedia-x86_64-x64-vc14-debug-dynamic:sdp_neg.obj
 0003:0003da78       $SG15984                   00000001400e6a78     pjmedia-x86_64-x64-vc14-debug-dynamic:sdp_neg.obj
 0003:0003daa0       $SG15977                   00000001400e6aa0     pjmedia-x86_64-x64-vc14-debug-dynamic:sdp_neg.obj
 0003:0003dba0       $SG15978                   00000001400e6ba0     pjmedia-x86_64-x64-vc14-debug-dynamic:sdp_neg.obj
 0003:0003dbd0       $SG15980                   00000001400e6bd0     pjmedia-x86_64-x64-vc14-debug-dynamic:sdp_neg.obj
 0003:0003dcd0       $SG15981                   00000001400e6cd0     pjmedia-x86_64-x64-vc14-debug-dynamic:sdp_neg.obj
 0003:0003dd38       $SG16019                   00000001400e6d38     pjmedia-x86_64-x64-vc14-debug-dynamic:sdp_neg.obj
 0003:0003dd68       $SG16023                   00000001400e6d68     pjmedia-x86_64-x64-vc14-debug-dynamic:sdp_neg.obj
 0003:0003dd90       $SG15983                   00000001400e6d90     pjmedia-x86_64-x64-vc14-debug-dynamic:sdp_neg.obj
 0003:0003de90       $SG16018                   00000001400e6e90     pjmedia-x86_64-x64-vc14-debug-dynamic:sdp_neg.obj
 0003:0003df90       $SG16022                   00000001400e6f90     pjmedia-x86_64-x64-vc14-debug-dynamic:sdp_neg.obj
 0003:0003e090       $SG16027                   00000001400e7090     pjmedia-x86_64-x64-vc14-debug-dynamic:sdp_neg.obj
 0003:0003e190       $SG16028                   00000001400e7190     pjmedia-x86_64-x64-vc14-debug-dynamic:sdp_neg.obj
 0003:0003e1f8       $SG16041                   00000001400e71f8     pjmedia-x86_64-x64-vc14-debug-dynamic:sdp_neg.obj
 0003:0003e200       $SG16040                   00000001400e7200     pjmedia-x86_64-x64-vc14-debug-dynamic:sdp_neg.obj
 0003:0003e300       $SG16053                   00000001400e7300     pjmedia-x86_64-x64-vc14-debug-dynamic:sdp_neg.obj
 0003:0003e400       $SG16054                   00000001400e7400     pjmedia-x86_64-x64-vc14-debug-dynamic:sdp_neg.obj
 0003:0003e408       $SG16067                   00000001400e7408     pjmedia-x86_64-x64-vc14-debug-dynamic:sdp_neg.obj
 0003:0003e430       $SG16066                   00000001400e7430     pjmedia-x86_64-x64-vc14-debug-dynamic:sdp_neg.obj
 0003:0003e530       $SG16085                   00000001400e7530     pjmedia-x86_64-x64-vc14-debug-dynamic:sdp_neg.obj
 0003:0003e630       $SG16086                   00000001400e7630     pjmedia-x86_64-x64-vc14-debug-dynamic:sdp_neg.obj
 0003:0003e650       $SG16088                   00000001400e7650     pjmedia-x86_64-x64-vc14-debug-dynamic:sdp_neg.obj
 0003:0003e750       $SG16089                   00000001400e7750     pjmedia-x86_64-x64-vc14-debug-dynamic:sdp_neg.obj
 0003:0003e780       $SG16107                   00000001400e7780     pjmedia-x86_64-x64-vc14-debug-dynamic:sdp_neg.obj
 0003:0003e880       $SG16108                   00000001400e7880     pjmedia-x86_64-x64-vc14-debug-dynamic:sdp_neg.obj
 0003:0003e8a0       $SG16110                   00000001400e78a0     pjmedia-x86_64-x64-vc14-debug-dynamic:sdp_neg.obj
 0003:0003e9a0       $SG16111                   00000001400e79a0     pjmedia-x86_64-x64-vc14-debug-dynamic:sdp_neg.obj
 0003:0003e9d0       $SG16121                   00000001400e79d0     pjmedia-x86_64-x64-vc14-debug-dynamic:sdp_neg.obj
 0003:0003ead0       $SG16122                   00000001400e7ad0     pjmedia-x86_64-x64-vc14-debug-dynamic:sdp_neg.obj
 0003:0003ead8       $SG16144                   00000001400e7ad8     pjmedia-x86_64-x64-vc14-debug-dynamic:sdp_neg.obj
 0003:0003eb00       $SG16140                   00000001400e7b00     pjmedia-x86_64-x64-vc14-debug-dynamic:sdp_neg.obj
 0003:0003ec00       $SG16141                   00000001400e7c00     pjmedia-x86_64-x64-vc14-debug-dynamic:sdp_neg.obj
 0003:0003ec20       $SG16143                   00000001400e7c20     pjmedia-x86_64-x64-vc14-debug-dynamic:sdp_neg.obj
 0003:0003ed20       $SG16162                   00000001400e7d20     pjmedia-x86_64-x64-vc14-debug-dynamic:sdp_neg.obj
 0003:0003ee20       $SG16163                   00000001400e7e20     pjmedia-x86_64-x64-vc14-debug-dynamic:sdp_neg.obj
 0003:0003ee40       $SG16165                   00000001400e7e40     pjmedia-x86_64-x64-vc14-debug-dynamic:sdp_neg.obj
 0003:0003ef40       $SG16166                   00000001400e7f40     pjmedia-x86_64-x64-vc14-debug-dynamic:sdp_neg.obj
 0003:0003ef68       $SG16187                   00000001400e7f68     pjmedia-x86_64-x64-vc14-debug-dynamic:sdp_neg.obj
 0003:0003ef6c       $SG16753                   00000001400e7f6c     pjmedia-x86_64-x64-vc14-debug-dynamic:sdp_neg.obj
 0003:0003ef70       $SG16188                   00000001400e7f70     pjmedia-x86_64-x64-vc14-debug-dynamic:sdp_neg.obj
 0003:0003ef80       $SG16237                   00000001400e7f80     pjmedia-x86_64-x64-vc14-debug-dynamic:sdp_neg.obj
 0003:0003f080       $SG16238                   00000001400e8080     pjmedia-x86_64-x64-vc14-debug-dynamic:sdp_neg.obj
 0003:0003f0b0       $SG16240                   00000001400e80b0     pjmedia-x86_64-x64-vc14-debug-dynamic:sdp_neg.obj
 0003:0003f1b0       $SG16241                   00000001400e81b0     pjmedia-x86_64-x64-vc14-debug-dynamic:sdp_neg.obj
 0003:0003f208       $SG16282                   00000001400e8208     pjmedia-x86_64-x64-vc14-debug-dynamic:sdp_neg.obj
 0003:0003f234       $SG16517                   00000001400e8234     pjmedia-x86_64-x64-vc14-debug-dynamic:sdp_neg.obj
 0003:0003f240       $SG16273                   00000001400e8240     pjmedia-x86_64-x64-vc14-debug-dynamic:sdp_neg.obj
 0003:0003f340       $SG16274                   00000001400e8340     pjmedia-x86_64-x64-vc14-debug-dynamic:sdp_neg.obj
 0003:0003f360       $SG16276                   00000001400e8360     pjmedia-x86_64-x64-vc14-debug-dynamic:sdp_neg.obj
 0003:0003f460       $SG16277                   00000001400e8460     pjmedia-x86_64-x64-vc14-debug-dynamic:sdp_neg.obj
 0003:0003f518       $SG16367                   00000001400e8518     pjmedia-x86_64-x64-vc14-debug-dynamic:sdp_neg.obj
 0003:0003f540       $SG16281                   00000001400e8540     pjmedia-x86_64-x64-vc14-debug-dynamic:sdp_neg.obj
 0003:0003f640       $SG16303                   00000001400e8640     pjmedia-x86_64-x64-vc14-debug-dynamic:sdp_neg.obj
 0003:0003f740       $SG16304                   00000001400e8740     pjmedia-x86_64-x64-vc14-debug-dynamic:sdp_neg.obj
 0003:0003f770       $SG16306                   00000001400e8770     pjmedia-x86_64-x64-vc14-debug-dynamic:sdp_neg.obj
 0003:0003f870       $SG16307                   00000001400e8870     pjmedia-x86_64-x64-vc14-debug-dynamic:sdp_neg.obj
 0003:0003f8d0       $SG16327                   00000001400e88d0     pjmedia-x86_64-x64-vc14-debug-dynamic:sdp_neg.obj
 0003:0003f9d0       $SG16328                   00000001400e89d0     pjmedia-x86_64-x64-vc14-debug-dynamic:sdp_neg.obj
 0003:0003fa00       $SG16330                   00000001400e8a00     pjmedia-x86_64-x64-vc14-debug-dynamic:sdp_neg.obj
 0003:0003fb00       $SG16331                   00000001400e8b00     pjmedia-x86_64-x64-vc14-debug-dynamic:sdp_neg.obj
 0003:0003fb58       $SG16519                   00000001400e8b58     pjmedia-x86_64-x64-vc14-debug-dynamic:sdp_neg.obj
 0003:0003fb80       $SG16356                   00000001400e8b80     pjmedia-x86_64-x64-vc14-debug-dynamic:sdp_neg.obj
 0003:0003fc80       $SG16357                   00000001400e8c80     pjmedia-x86_64-x64-vc14-debug-dynamic:sdp_neg.obj
 0003:0003fcb0       $SG16359                   00000001400e8cb0     pjmedia-x86_64-x64-vc14-debug-dynamic:sdp_neg.obj
 0003:0003fdb0       $SG16360                   00000001400e8db0     pjmedia-x86_64-x64-vc14-debug-dynamic:sdp_neg.obj
 0003:0003fe74       $SG16522                   00000001400e8e74     pjmedia-x86_64-x64-vc14-debug-dynamic:sdp_neg.obj
 0003:0003fe80       $SG16366                   00000001400e8e80     pjmedia-x86_64-x64-vc14-debug-dynamic:sdp_neg.obj
 0003:0003ff80       $SG16373                   00000001400e8f80     pjmedia-x86_64-x64-vc14-debug-dynamic:sdp_neg.obj
 0003:00040080       $SG16374                   00000001400e9080     pjmedia-x86_64-x64-vc14-debug-dynamic:sdp_neg.obj
 0003:000400e8       $SG16386                   00000001400e90e8     pjmedia-x86_64-x64-vc14-debug-dynamic:sdp_neg.obj
 0003:000400f4       $SG16529                   00000001400e90f4     pjmedia-x86_64-x64-vc14-debug-dynamic:sdp_neg.obj
 0003:00040100       $SG16387                   00000001400e9100     pjmedia-x86_64-x64-vc14-debug-dynamic:sdp_neg.obj
 0003:00040110       $SG16388                   00000001400e9110     pjmedia-x86_64-x64-vc14-debug-dynamic:sdp_neg.obj
 0003:00040120       $SG16389                   00000001400e9120     pjmedia-x86_64-x64-vc14-debug-dynamic:sdp_neg.obj
 0003:00040130       $SG16422                   00000001400e9130     pjmedia-x86_64-x64-vc14-debug-dynamic:sdp_neg.obj
 0003:00040140       $SG16425                   00000001400e9140     pjmedia-x86_64-x64-vc14-debug-dynamic:sdp_neg.obj
 0003:00040150       $SG16427                   00000001400e9150     pjmedia-x86_64-x64-vc14-debug-dynamic:sdp_neg.obj
 0003:00040160       $SG16430                   00000001400e9160     pjmedia-x86_64-x64-vc14-debug-dynamic:sdp_neg.obj
 0003:00040170       $SG16433                   00000001400e9170     pjmedia-x86_64-x64-vc14-debug-dynamic:sdp_neg.obj
 0003:00040180       $SG16439                   00000001400e9180     pjmedia-x86_64-x64-vc14-debug-dynamic:sdp_neg.obj
 0003:00040190       $SG16445                   00000001400e9190     pjmedia-x86_64-x64-vc14-debug-dynamic:sdp_neg.obj
 0003:000401a0       $SG16447                   00000001400e91a0     pjmedia-x86_64-x64-vc14-debug-dynamic:sdp_neg.obj
 0003:000401b0       $SG16449                   00000001400e91b0     pjmedia-x86_64-x64-vc14-debug-dynamic:sdp_neg.obj
 0003:000401c0       $SG16520                   00000001400e91c0     pjmedia-x86_64-x64-vc14-debug-dynamic:sdp_neg.obj
 0003:000402c0       $SG16521                   00000001400e92c0     pjmedia-x86_64-x64-vc14-debug-dynamic:sdp_neg.obj
 0003:00040314       $SG16531                   00000001400e9314     pjmedia-x86_64-x64-vc14-debug-dynamic:sdp_neg.obj
 0003:0004031c       $SG16538                   00000001400e931c     pjmedia-x86_64-x64-vc14-debug-dynamic:sdp_neg.obj
 0003:00040324       $SG16540                   00000001400e9324     pjmedia-x86_64-x64-vc14-debug-dynamic:sdp_neg.obj
 0003:00040330       $SG16569                   00000001400e9330     pjmedia-x86_64-x64-vc14-debug-dynamic:sdp_neg.obj
 0003:00040430       $SG16570                   00000001400e9430     pjmedia-x86_64-x64-vc14-debug-dynamic:sdp_neg.obj
 0003:00040478       $SG16618                   00000001400e9478     pjmedia-x86_64-x64-vc14-debug-dynamic:sdp_neg.obj
 0003:00040480       $SG16620                   00000001400e9480     pjmedia-x86_64-x64-vc14-debug-dynamic:sdp_neg.obj
 0003:00040488       $SG16726                   00000001400e9488     pjmedia-x86_64-x64-vc14-debug-dynamic:sdp_neg.obj
 0003:00040490       $SG16728                   00000001400e9490     pjmedia-x86_64-x64-vc14-debug-dynamic:sdp_neg.obj
 0003:000404b8       $SG16732                   00000001400e94b8     pjmedia-x86_64-x64-vc14-debug-dynamic:sdp_neg.obj
 0003:000404c8       $SG16734                   00000001400e94c8     pjmedia-x86_64-x64-vc14-debug-dynamic:sdp_neg.obj
 0003:000404d0       $SG16729                   00000001400e94d0     pjmedia-x86_64-x64-vc14-debug-dynamic:sdp_neg.obj
 0003:000405d0       $SG16730                   00000001400e95d0     pjmedia-x86_64-x64-vc14-debug-dynamic:sdp_neg.obj
 0003:00040624       $SG16751                   00000001400e9624     pjmedia-x86_64-x64-vc14-debug-dynamic:sdp_neg.obj
 0003:00040630       $SG16752                   00000001400e9630     pjmedia-x86_64-x64-vc14-debug-dynamic:sdp_neg.obj
 0003:00040730       $SG16755                   00000001400e9730     pjmedia-x86_64-x64-vc14-debug-dynamic:sdp_neg.obj
 0003:00040740       $SG16762                   00000001400e9740     pjmedia-x86_64-x64-vc14-debug-dynamic:sdp_neg.obj
 0003:00040840       $SG16763                   00000001400e9840     pjmedia-x86_64-x64-vc14-debug-dynamic:sdp_neg.obj
 0003:00040878       $SG16764                   00000001400e9878     pjmedia-x86_64-x64-vc14-debug-dynamic:sdp_neg.obj
 0003:00040880       $SG16766                   00000001400e9880     pjmedia-x86_64-x64-vc14-debug-dynamic:sdp_neg.obj
 0003:00040888       $SG16827                   00000001400e9888     pjmedia-x86_64-x64-vc14-debug-dynamic:sdp_neg.obj
 0003:000408b0       $SG16816                   00000001400e98b0     pjmedia-x86_64-x64-vc14-debug-dynamic:sdp_neg.obj
 0003:000409b0       $SG16817                   00000001400e99b0     pjmedia-x86_64-x64-vc14-debug-dynamic:sdp_neg.obj
 0003:00040a18       $SG16820                   00000001400e9a18     pjmedia-x86_64-x64-vc14-debug-dynamic:sdp_neg.obj
 0003:00040a44       $SG16975                   00000001400e9a44     pjmedia-x86_64-x64-vc14-debug-dynamic:sdp_neg.obj
 0003:00040a50       $SG16819                   00000001400e9a50     pjmedia-x86_64-x64-vc14-debug-dynamic:sdp_neg.obj
 0003:00040b50       $SG16826                   00000001400e9b50     pjmedia-x86_64-x64-vc14-debug-dynamic:sdp_neg.obj
 0003:00040c50       $SG16845                   00000001400e9c50     pjmedia-x86_64-x64-vc14-debug-dynamic:sdp_neg.obj
 0003:00040d50       $SG16846                   00000001400e9d50     pjmedia-x86_64-x64-vc14-debug-dynamic:sdp_neg.obj
 0003:00040d58       $SG16884                   00000001400e9d58     pjmedia-x86_64-x64-vc14-debug-dynamic:sdp_neg.obj
 0003:00040d70       $SG16848                   00000001400e9d70     pjmedia-x86_64-x64-vc14-debug-dynamic:sdp_neg.obj
 0003:00040e70       $SG16849                   00000001400e9e70     pjmedia-x86_64-x64-vc14-debug-dynamic:sdp_neg.obj
 0003:00040f38       $SG16890                   00000001400e9f38     pjmedia-x86_64-x64-vc14-debug-dynamic:sdp_neg.obj
 0003:00040f60       $SG16883                   00000001400e9f60     pjmedia-x86_64-x64-vc14-debug-dynamic:sdp_neg.obj
 0003:00041060       $SG16886                   00000001400ea060     pjmedia-x86_64-x64-vc14-debug-dynamic:sdp_neg.obj
 0003:00041160       $SG16887                   00000001400ea160     pjmedia-x86_64-x64-vc14-debug-dynamic:sdp_neg.obj
 0003:000411c0       $SG16889                   00000001400ea1c0     pjmedia-x86_64-x64-vc14-debug-dynamic:sdp_neg.obj
 0003:000412c0       $SG16920                   00000001400ea2c0     pjmedia-x86_64-x64-vc14-debug-dynamic:sdp_neg.obj
 0003:000413c0       $SG16921                   00000001400ea3c0     pjmedia-x86_64-x64-vc14-debug-dynamic:sdp_neg.obj
 0003:000413e8       $SG16941                   00000001400ea3e8     pjmedia-x86_64-x64-vc14-debug-dynamic:sdp_neg.obj
 0003:00041400       $SG16940                   00000001400ea400     pjmedia-x86_64-x64-vc14-debug-dynamic:sdp_neg.obj
 0003:00041500       $SG16977                   00000001400ea500     pjmedia-x86_64-x64-vc14-debug-dynamic:sdp_neg.obj
 0003:00041524       $SG16980                   00000001400ea524     pjmedia-x86_64-x64-vc14-debug-dynamic:sdp_neg.obj
 0003:00041530       $SG16978                   00000001400ea530     pjmedia-x86_64-x64-vc14-debug-dynamic:sdp_neg.obj
 0003:00041630       $SG16979                   00000001400ea630     pjmedia-x86_64-x64-vc14-debug-dynamic:sdp_neg.obj
 0003:00041680       $SG16982                   00000001400ea680     pjmedia-x86_64-x64-vc14-debug-dynamic:sdp_neg.obj
 0003:000416b0       $SG16983                   00000001400ea6b0     pjmedia-x86_64-x64-vc14-debug-dynamic:sdp_neg.obj
 0003:000417b0       $SG16984                   00000001400ea7b0     pjmedia-x86_64-x64-vc14-debug-dynamic:sdp_neg.obj
 0003:00042470       $SG13939                   00000001400eb470     pjlib-util-x86_64-x64-vc14-debug-dynamic:errno.obj
 0003:000424a8       $SG13940                   00000001400eb4a8     pjlib-util-x86_64-x64-vc14-debug-dynamic:errno.obj
 0003:000424e0       $SG13941                   00000001400eb4e0     pjlib-util-x86_64-x64-vc14-debug-dynamic:errno.obj
 0003:00042518       $SG13942                   00000001400eb518     pjlib-util-x86_64-x64-vc14-debug-dynamic:errno.obj
 0003:00042550       $SG13943                   00000001400eb550     pjlib-util-x86_64-x64-vc14-debug-dynamic:errno.obj
 0003:00042590       $SG13944                   00000001400eb590     pjlib-util-x86_64-x64-vc14-debug-dynamic:errno.obj
 0003:000425d0       $SG13945                   00000001400eb5d0     pjlib-util-x86_64-x64-vc14-debug-dynamic:errno.obj
 0003:00042618       $SG13946                   00000001400eb618     pjlib-util-x86_64-x64-vc14-debug-dynamic:errno.obj
 0003:00042658       $SG13947                   00000001400eb658     pjlib-util-x86_64-x64-vc14-debug-dynamic:errno.obj
 0003:000426a0       $SG13948                   00000001400eb6a0     pjlib-util-x86_64-x64-vc14-debug-dynamic:errno.obj
 0003:000426e8       $SG13949                   00000001400eb6e8     pjlib-util-x86_64-x64-vc14-debug-dynamic:errno.obj
 0003:00042728       $SG13950                   00000001400eb728     pjlib-util-x86_64-x64-vc14-debug-dynamic:errno.obj
 0003:00042750       $SG13951                   00000001400eb750     pjlib-util-x86_64-x64-vc14-debug-dynamic:errno.obj
 0003:00042780       $SG13952                   00000001400eb780     pjlib-util-x86_64-x64-vc14-debug-dynamic:errno.obj
 0003:000427c8       $SG13953                   00000001400eb7c8     pjlib-util-x86_64-x64-vc14-debug-dynamic:errno.obj
 0003:00042800       $SG13954                   00000001400eb800     pjlib-util-x86_64-x64-vc14-debug-dynamic:errno.obj
 0003:00042830       $SG13955                   00000001400eb830     pjlib-util-x86_64-x64-vc14-debug-dynamic:errno.obj
 0003:00042868       $SG13956                   00000001400eb868     pjlib-util-x86_64-x64-vc14-debug-dynamic:errno.obj
 0003:000428a8       $SG13957                   00000001400eb8a8     pjlib-util-x86_64-x64-vc14-debug-dynamic:errno.obj
 0003:000428e0       $SG13958                   00000001400eb8e0     pjlib-util-x86_64-x64-vc14-debug-dynamic:errno.obj
 0003:00042920       $SG13959                   00000001400eb920     pjlib-util-x86_64-x64-vc14-debug-dynamic:errno.obj
 0003:00042968       $SG13960                   00000001400eb968     pjlib-util-x86_64-x64-vc14-debug-dynamic:errno.obj
 0003:00042998       $SG13961                   00000001400eb998     pjlib-util-x86_64-x64-vc14-debug-dynamic:errno.obj
 0003:000429c8       $SG13962                   00000001400eb9c8     pjlib-util-x86_64-x64-vc14-debug-dynamic:errno.obj
 0003:000429f8       $SG13963                   00000001400eb9f8     pjlib-util-x86_64-x64-vc14-debug-dynamic:errno.obj
 0003:00042a28       $SG13964                   00000001400eba28     pjlib-util-x86_64-x64-vc14-debug-dynamic:errno.obj
 0003:00042a58       $SG13965                   00000001400eba58     pjlib-util-x86_64-x64-vc14-debug-dynamic:errno.obj
 0003:00042a80       $SG13966                   00000001400eba80     pjlib-util-x86_64-x64-vc14-debug-dynamic:errno.obj
 0003:00042ab8       $SG13967                   00000001400ebab8     pjlib-util-x86_64-x64-vc14-debug-dynamic:errno.obj
 0003:00042b00       $SG13968                   00000001400ebb00     pjlib-util-x86_64-x64-vc14-debug-dynamic:errno.obj
 0003:00042b48       $SG13969                   00000001400ebb48     pjlib-util-x86_64-x64-vc14-debug-dynamic:errno.obj
 0003:00042b80       $SG13970                   00000001400ebb80     pjlib-util-x86_64-x64-vc14-debug-dynamic:errno.obj
 0003:00042bc8       $SG13971                   00000001400ebbc8     pjlib-util-x86_64-x64-vc14-debug-dynamic:errno.obj
 0003:00042c00       $SG13972                   00000001400ebc00     pjlib-util-x86_64-x64-vc14-debug-dynamic:errno.obj
 0003:00042c38       $SG13973                   00000001400ebc38     pjlib-util-x86_64-x64-vc14-debug-dynamic:errno.obj
 0003:00042c80       $SG13974                   00000001400ebc80     pjlib-util-x86_64-x64-vc14-debug-dynamic:errno.obj
 0003:00042cc0       $SG13975                   00000001400ebcc0     pjlib-util-x86_64-x64-vc14-debug-dynamic:errno.obj
 0003:00042d00       $SG13976                   00000001400ebd00     pjlib-util-x86_64-x64-vc14-debug-dynamic:errno.obj
 0003:00042d40       $SG13977                   00000001400ebd40     pjlib-util-x86_64-x64-vc14-debug-dynamic:errno.obj
 0003:00042d90       $SG13978                   00000001400ebd90     pjlib-util-x86_64-x64-vc14-debug-dynamic:errno.obj
 0003:00042de0       $SG13979                   00000001400ebde0     pjlib-util-x86_64-x64-vc14-debug-dynamic:errno.obj
 0003:00042e28       $SG13980                   00000001400ebe28     pjlib-util-x86_64-x64-vc14-debug-dynamic:errno.obj
 0003:00042e70       $SG13981                   00000001400ebe70     pjlib-util-x86_64-x64-vc14-debug-dynamic:errno.obj
 0003:00042ec0       $SG13982                   00000001400ebec0     pjlib-util-x86_64-x64-vc14-debug-dynamic:errno.obj
 0003:00042f00       $SG13983                   00000001400ebf00     pjlib-util-x86_64-x64-vc14-debug-dynamic:errno.obj
 0003:00042f40       $SG13984                   00000001400ebf40     pjlib-util-x86_64-x64-vc14-debug-dynamic:errno.obj
 0003:00042f90       $SG13985                   00000001400ebf90     pjlib-util-x86_64-x64-vc14-debug-dynamic:errno.obj
 0003:00042fd8       $SG13986                   00000001400ebfd8     pjlib-util-x86_64-x64-vc14-debug-dynamic:errno.obj
 0003:00043008       $SG13987                   00000001400ec008     pjlib-util-x86_64-x64-vc14-debug-dynamic:errno.obj
 0003:00043040       $SG13988                   00000001400ec040     pjlib-util-x86_64-x64-vc14-debug-dynamic:errno.obj
 0003:00043080       $SG13989                   00000001400ec080     pjlib-util-x86_64-x64-vc14-debug-dynamic:errno.obj
 0003:000430b0       $SG13990                   00000001400ec0b0     pjlib-util-x86_64-x64-vc14-debug-dynamic:errno.obj
 0003:000430d8       $SG13991                   00000001400ec0d8     pjlib-util-x86_64-x64-vc14-debug-dynamic:errno.obj
 0003:00043100       $SG13992                   00000001400ec100     pjlib-util-x86_64-x64-vc14-debug-dynamic:errno.obj
 0003:00043128       $SG13993                   00000001400ec128     pjlib-util-x86_64-x64-vc14-debug-dynamic:errno.obj
 0003:00043158       $SG13994                   00000001400ec158     pjlib-util-x86_64-x64-vc14-debug-dynamic:errno.obj
 0003:00043180       $SG13995                   00000001400ec180     pjlib-util-x86_64-x64-vc14-debug-dynamic:errno.obj
 0003:000431b0       $SG13996                   00000001400ec1b0     pjlib-util-x86_64-x64-vc14-debug-dynamic:errno.obj
 0003:000431e0       $SG13997                   00000001400ec1e0     pjlib-util-x86_64-x64-vc14-debug-dynamic:errno.obj
 0003:00043208       $SG13998                   00000001400ec208     pjlib-util-x86_64-x64-vc14-debug-dynamic:errno.obj
 0003:00043230       $SG14023                   00000001400ec230     pjlib-util-x86_64-x64-vc14-debug-dynamic:errno.obj
 0003:00043250       $SG14031                   00000001400ec250     pjlib-util-x86_64-x64-vc14-debug-dynamic:errno.obj
 0003:00043358       $SG14032                   00000001400ec358     pjlib-util-x86_64-x64-vc14-debug-dynamic:errno.obj
 0003:00043690       $SG13903                   00000001400ec690     pjlib-util-x86_64-x64-vc14-debug-dynamic:getopt.obj
 0003:000436a0       $SG15294                   00000001400ec6a0     pjlib-util-x86_64-x64-vc14-debug-dynamic:scanner.obj
 0003:000437b0       $SG15295                   00000001400ec7b0     pjlib-util-x86_64-x64-vc14-debug-dynamic:scanner.obj
 0003:000437d0       $SG15363                   00000001400ec7d0     pjlib-util-x86_64-x64-vc14-debug-dynamic:scanner.obj
 0003:00043860       $SG15369                   00000001400ec860     pjlib-util-x86_64-x64-vc14-debug-dynamic:scanner.obj
 0003:000438f0       $SG15454                   00000001400ec8f0     pjlib-util-x86_64-x64-vc14-debug-dynamic:scanner.obj
 0003:00043a00       $SG15455                   00000001400eca00     pjlib-util-x86_64-x64-vc14-debug-dynamic:scanner.obj
 0003:00043a30       $SG15479                   00000001400eca30     pjlib-util-x86_64-x64-vc14-debug-dynamic:scanner.obj
 0003:00043b40       $SG15480                   00000001400ecb40     pjlib-util-x86_64-x64-vc14-debug-dynamic:scanner.obj
 0003:00043b70       $SG15481                   00000001400ecb70     pjlib-util-x86_64-x64-vc14-debug-dynamic:scanner.obj
 0003:00043c80       $SG15482                   00000001400ecc80     pjlib-util-x86_64-x64-vc14-debug-dynamic:scanner.obj
 0003:00043cc0       $SG15532                   00000001400eccc0     pjlib-util-x86_64-x64-vc14-debug-dynamic:scanner.obj
 0003:00043dd0       $SG15533                   00000001400ecdd0     pjlib-util-x86_64-x64-vc14-debug-dynamic:scanner.obj
 0003:00043f58       $SG8615                    00000001400ecf58     pjlib-util-x86_64-x64-vc14-debug-dynamic:string.obj
 0003:00043f70       $SG8616                    00000001400ecf70     pjlib-util-x86_64-x64-vc14-debug-dynamic:string.obj
 0003:00043f90       $SG61718                   00000001400ecf90     pjlib-util-x86_64-x64-vc14-debug-dynamic:resolver.obj
 0003:00043f98       $SG61719                   00000001400ecf98     pjlib-util-x86_64-x64-vc14-debug-dynamic:resolver.obj
 0003:00043fa0       $SG61720                   00000001400ecfa0     pjlib-util-x86_64-x64-vc14-debug-dynamic:resolver.obj
 0003:00043fa8       state_names                00000001400ecfa8     pjlib-util-x86_64-x64-vc14-debug-dynamic:resolver.obj
 0003:00043fc0       $SG61861                   00000001400ecfc0     pjlib-util-x86_64-x64-vc14-debug-dynamic:resolver.obj
 0003:000440d0       $SG61862                   00000001400ed0d0     pjlib-util-x86_64-x64-vc14-debug-dynamic:resolver.obj
 0003:000440f8       $SG61864                   00000001400ed0f8     pjlib-util-x86_64-x64-vc14-debug-dynamic:resolver.obj
 0003:00044108       $SG61909                   00000001400ed108     pjlib-util-x86_64-x64-vc14-debug-dynamic:resolver.obj
 0003:00044120       $SG61908                   00000001400ed120     pjlib-util-x86_64-x64-vc14-debug-dynamic:resolver.obj
 0003:00044230       $SG61945                   00000001400ed230     pjlib-util-x86_64-x64-vc14-debug-dynamic:resolver.obj
 0003:00044340       $SG61946                   00000001400ed340     pjlib-util-x86_64-x64-vc14-debug-dynamic:resolver.obj
 0003:00044380       $SG61948                   00000001400ed380     pjlib-util-x86_64-x64-vc14-debug-dynamic:resolver.obj
 0003:00044490       $SG61949                   00000001400ed490     pjlib-util-x86_64-x64-vc14-debug-dynamic:resolver.obj
 0003:000444a8       $SG61993                   00000001400ed4a8     pjlib-util-x86_64-x64-vc14-debug-dynamic:resolver.obj
 0003:000444c0       $SG61965                   00000001400ed4c0     pjlib-util-x86_64-x64-vc14-debug-dynamic:resolver.obj
 0003:000445d0       $SG61966                   00000001400ed5d0     pjlib-util-x86_64-x64-vc14-debug-dynamic:resolver.obj
 0003:000445f0       $SG61979                   00000001400ed5f0     pjlib-util-x86_64-x64-vc14-debug-dynamic:resolver.obj
 0003:00044700       $SG61980                   00000001400ed700     pjlib-util-x86_64-x64-vc14-debug-dynamic:resolver.obj
 0003:00044720       $SG61992                   00000001400ed720     pjlib-util-x86_64-x64-vc14-debug-dynamic:resolver.obj
 0003:00044830       $SG62043                   00000001400ed830     pjlib-util-x86_64-x64-vc14-debug-dynamic:resolver.obj
 0003:00044940       $SG62044                   00000001400ed940     pjlib-util-x86_64-x64-vc14-debug-dynamic:resolver.obj
 0003:00044970       $SG62045                   00000001400ed970     pjlib-util-x86_64-x64-vc14-debug-dynamic:resolver.obj
 0003:000449f8       $SG62049                   00000001400ed9f8     pjlib-util-x86_64-x64-vc14-debug-dynamic:resolver.obj
 0003:00044a10       $SG62051                   00000001400eda10     pjlib-util-x86_64-x64-vc14-debug-dynamic:resolver.obj
 0003:00044a48       $SG62057                   00000001400eda48     pjlib-util-x86_64-x64-vc14-debug-dynamic:resolver.obj
 0003:00044a58       $SG62058                   00000001400eda58     pjlib-util-x86_64-x64-vc14-debug-dynamic:resolver.obj
 0003:00044a68       $SG62059                   00000001400eda68     pjlib-util-x86_64-x64-vc14-debug-dynamic:resolver.obj
 0003:00044aa0       $SG62090                   00000001400edaa0     pjlib-util-x86_64-x64-vc14-debug-dynamic:resolver.obj
 0003:00044aac       $SG62566                   00000001400edaac     pjlib-util-x86_64-x64-vc14-debug-dynamic:resolver.obj
 0003:00044ab8       $SG62162                   00000001400edab8     pjlib-util-x86_64-x64-vc14-debug-dynamic:resolver.obj
 0003:00044af0       $SG62161                   00000001400edaf0     pjlib-util-x86_64-x64-vc14-debug-dynamic:resolver.obj
 0003:00044c00       $SG62165                   00000001400edc00     pjlib-util-x86_64-x64-vc14-debug-dynamic:resolver.obj
 0003:00044d10       $SG62166                   00000001400edd10     pjlib-util-x86_64-x64-vc14-debug-dynamic:resolver.obj
 0003:00044d58       $SG62170                   00000001400edd58     pjlib-util-x86_64-x64-vc14-debug-dynamic:resolver.obj
 0003:00044d90       $SG62169                   00000001400edd90     pjlib-util-x86_64-x64-vc14-debug-dynamic:resolver.obj
 0003:00044ea0       $SG62175                   00000001400edea0     pjlib-util-x86_64-x64-vc14-debug-dynamic:resolver.obj
 0003:00044ee0       $SG62197                   00000001400edee0     pjlib-util-x86_64-x64-vc14-debug-dynamic:resolver.obj
 0003:00044ff0       $SG62198                   00000001400edff0     pjlib-util-x86_64-x64-vc14-debug-dynamic:resolver.obj
 0003:00045000       $SG62241                   00000001400ee000     pjlib-util-x86_64-x64-vc14-debug-dynamic:resolver.obj
 0003:00045110       $SG62242                   00000001400ee110     pjlib-util-x86_64-x64-vc14-debug-dynamic:resolver.obj
 0003:00045130       $SG62297                   00000001400ee130     pjlib-util-x86_64-x64-vc14-debug-dynamic:resolver.obj
 0003:00045240       $SG62298                   00000001400ee240     pjlib-util-x86_64-x64-vc14-debug-dynamic:resolver.obj
 0003:00045258       $SG62338                   00000001400ee258     pjlib-util-x86_64-x64-vc14-debug-dynamic:resolver.obj
 0003:00045288       $SG62363                   00000001400ee288     pjlib-util-x86_64-x64-vc14-debug-dynamic:resolver.obj
 0003:000452b0       $SG62362                   00000001400ee2b0     pjlib-util-x86_64-x64-vc14-debug-dynamic:resolver.obj
 0003:000453c0       $SG62488                   00000001400ee3c0     pjlib-util-x86_64-x64-vc14-debug-dynamic:resolver.obj
 0003:000453e0       $SG62559                   00000001400ee3e0     pjlib-util-x86_64-x64-vc14-debug-dynamic:resolver.obj
 0003:000454f0       $SG62560                   00000001400ee4f0     pjlib-util-x86_64-x64-vc14-debug-dynamic:resolver.obj
 0003:00045508       $SG62562                   00000001400ee508     pjlib-util-x86_64-x64-vc14-debug-dynamic:resolver.obj
 0003:00045520       $SG62564                   00000001400ee520     pjlib-util-x86_64-x64-vc14-debug-dynamic:resolver.obj
 0003:00045550       $SG62572                   00000001400ee550     pjlib-util-x86_64-x64-vc14-debug-dynamic:resolver.obj
 0003:00045578       $SG62575                   00000001400ee578     pjlib-util-x86_64-x64-vc14-debug-dynamic:resolver.obj
 0003:000455a0       $SG62576                   00000001400ee5a0     pjlib-util-x86_64-x64-vc14-debug-dynamic:resolver.obj
 0003:000456b0       $SG62577                   00000001400ee6b0     pjlib-util-x86_64-x64-vc14-debug-dynamic:resolver.obj
 0003:000456e0       $SG62585                   00000001400ee6e0     pjlib-util-x86_64-x64-vc14-debug-dynamic:resolver.obj
 0003:00045700       $SG62586                   00000001400ee700     pjlib-util-x86_64-x64-vc14-debug-dynamic:resolver.obj
 0003:00045710       $SG62587                   00000001400ee710     pjlib-util-x86_64-x64-vc14-debug-dynamic:resolver.obj
 0003:00045820       $SG62588                   00000001400ee820     pjlib-util-x86_64-x64-vc14-debug-dynamic:resolver.obj
 0003:00045850       $SG62627                   00000001400ee850     pjlib-util-x86_64-x64-vc14-debug-dynamic:resolver.obj
 0003:00045960       $SG62628                   00000001400ee960     pjlib-util-x86_64-x64-vc14-debug-dynamic:resolver.obj
 0003:00045980       $SG62630                   00000001400ee980     pjlib-util-x86_64-x64-vc14-debug-dynamic:resolver.obj
 0003:00045a90       $SG62631                   00000001400eea90     pjlib-util-x86_64-x64-vc14-debug-dynamic:resolver.obj
 0003:00045b10       $SG62635                   00000001400eeb10     pjlib-util-x86_64-x64-vc14-debug-dynamic:resolver.obj
 0003:00045c20       $SG62636                   00000001400eec20     pjlib-util-x86_64-x64-vc14-debug-dynamic:resolver.obj
 0003:00045ca0       $SG62640                   00000001400eeca0     pjlib-util-x86_64-x64-vc14-debug-dynamic:resolver.obj
 0003:00045db0       $SG62641                   00000001400eedb0     pjlib-util-x86_64-x64-vc14-debug-dynamic:resolver.obj
 0003:00045df0       $SG62643                   00000001400eedf0     pjlib-util-x86_64-x64-vc14-debug-dynamic:resolver.obj
 0003:00045f00       $SG62644                   00000001400eef00     pjlib-util-x86_64-x64-vc14-debug-dynamic:resolver.obj
 0003:00045f40       $SG62655                   00000001400eef40     pjlib-util-x86_64-x64-vc14-debug-dynamic:resolver.obj
 0003:00046050       $SG62656                   00000001400ef050     pjlib-util-x86_64-x64-vc14-debug-dynamic:resolver.obj
 0003:00046068       $SG62712                   00000001400ef068     pjlib-util-x86_64-x64-vc14-debug-dynamic:resolver.obj
 0003:00046088       $SG62714                   00000001400ef088     pjlib-util-x86_64-x64-vc14-debug-dynamic:resolver.obj
 0003:00046098       $SG62716                   00000001400ef098     pjlib-util-x86_64-x64-vc14-debug-dynamic:resolver.obj
 0003:000460c8       $SG62718                   00000001400ef0c8     pjlib-util-x86_64-x64-vc14-debug-dynamic:resolver.obj
 0003:000460e8       $SG62721                   00000001400ef0e8     pjlib-util-x86_64-x64-vc14-debug-dynamic:resolver.obj
 0003:000460f8       $SG62723                   00000001400ef0f8     pjlib-util-x86_64-x64-vc14-debug-dynamic:resolver.obj
 0003:00046120       $SG62726                   00000001400ef120     pjlib-util-x86_64-x64-vc14-debug-dynamic:resolver.obj
 0003:00046130       $SG62728                   00000001400ef130     pjlib-util-x86_64-x64-vc14-debug-dynamic:resolver.obj
 0003:00046158       $SG62730                   00000001400ef158     pjlib-util-x86_64-x64-vc14-debug-dynamic:resolver.obj
 0003:00046178       $SG62732                   00000001400ef178     pjlib-util-x86_64-x64-vc14-debug-dynamic:resolver.obj
 0003:00046870       $SG14903                   00000001400ef870     pjlib-util-x86_64-x64-vc14-debug-dynamic:dns.obj
 0003:00046874       $SG14905                   00000001400ef874     pjlib-util-x86_64-x64-vc14-debug-dynamic:dns.obj
 0003:0004687c       $SG14907                   00000001400ef87c     pjlib-util-x86_64-x64-vc14-debug-dynamic:dns.obj
 0003:00046880       $SG14909                   00000001400ef880     pjlib-util-x86_64-x64-vc14-debug-dynamic:dns.obj
 0003:00046884       $SG14911                   00000001400ef884     pjlib-util-x86_64-x64-vc14-debug-dynamic:dns.obj
 0003:0004688c       $SG14913                   00000001400ef88c     pjlib-util-x86_64-x64-vc14-debug-dynamic:dns.obj
 0003:00046890       $SG14915                   00000001400ef890     pjlib-util-x86_64-x64-vc14-debug-dynamic:dns.obj
 0003:00046894       $SG14917                   00000001400ef894     pjlib-util-x86_64-x64-vc14-debug-dynamic:dns.obj
 0003:00046898       $SG14919                   00000001400ef898     pjlib-util-x86_64-x64-vc14-debug-dynamic:dns.obj
 0003:000468a0       $SG14920                   00000001400ef8a0     pjlib-util-x86_64-x64-vc14-debug-dynamic:dns.obj
 0003:000468b0       $SG14976                   00000001400ef8b0     pjlib-util-x86_64-x64-vc14-debug-dynamic:dns.obj
 0003:000469b8       $SG14980                   00000001400ef9b8     pjlib-util-x86_64-x64-vc14-debug-dynamic:dns.obj
 0003:000469d0       $SG14977                   00000001400ef9d0     pjlib-util-x86_64-x64-vc14-debug-dynamic:dns.obj
 0003:00046a10       $SG14979                   00000001400efa10     pjlib-util-x86_64-x64-vc14-debug-dynamic:dns.obj
 0003:00046b18       $SG15268                   00000001400efb18     pjlib-util-x86_64-x64-vc14-debug-dynamic:dns.obj
 0003:00046b40       $SG15160                   00000001400efb40     pjlib-util-x86_64-x64-vc14-debug-dynamic:dns.obj
 0003:00046c50       $SG15161                   00000001400efc50     pjlib-util-x86_64-x64-vc14-debug-dynamic:dns.obj
 0003:00046c90       $SG15267                   00000001400efc90     pjlib-util-x86_64-x64-vc14-debug-dynamic:dns.obj
 0003:00046ea0       $SG15727                   00000001400efea0     pjlib-util-x86_64-x64-vc14-debug-dynamic:srv_resolver.obj
 0003:00046fb4       $SG15730                   00000001400effb4     pjlib-util-x86_64-x64-vc14-debug-dynamic:srv_resolver.obj
 0003:00046fc0       $SG15728                   00000001400effc0     pjlib-util-x86_64-x64-vc14-debug-dynamic:srv_resolver.obj
 0003:00047074       $SG15883                   00000001400f0074     pjlib-util-x86_64-x64-vc14-debug-dynamic:srv_resolver.obj
 0003:00047078       $SG15733                   00000001400f0078     pjlib-util-x86_64-x64-vc14-debug-dynamic:srv_resolver.obj
 0003:000470a8       $SG15848                   00000001400f00a8     pjlib-util-x86_64-x64-vc14-debug-dynamic:srv_resolver.obj
 0003:000470d4       $SG16049                   00000001400f00d4     pjlib-util-x86_64-x64-vc14-debug-dynamic:srv_resolver.obj
 0003:000470d8       $SG15851                   00000001400f00d8     pjlib-util-x86_64-x64-vc14-debug-dynamic:srv_resolver.obj
 0003:000470f0       $SG15854                   00000001400f00f0     pjlib-util-x86_64-x64-vc14-debug-dynamic:srv_resolver.obj
 0003:00047104       $SG16064                   00000001400f0104     pjlib-util-x86_64-x64-vc14-debug-dynamic:srv_resolver.obj
 0003:00047108       $SG15857                   00000001400f0108     pjlib-util-x86_64-x64-vc14-debug-dynamic:srv_resolver.obj
 0003:00047138       $SG15864                   00000001400f0138     pjlib-util-x86_64-x64-vc14-debug-dynamic:srv_resolver.obj
 0003:00047158       $SG15885                   00000001400f0158     pjlib-util-x86_64-x64-vc14-debug-dynamic:srv_resolver.obj
 0003:00047174       $SG16050                   00000001400f0174     pjlib-util-x86_64-x64-vc14-debug-dynamic:srv_resolver.obj
 0003:00047180       $SG15863                   00000001400f0180     pjlib-util-x86_64-x64-vc14-debug-dynamic:srv_resolver.obj
 0003:00047294       $SG16065                   00000001400f0294     pjlib-util-x86_64-x64-vc14-debug-dynamic:srv_resolver.obj
 0003:000472a0       $SG15880                   00000001400f02a0     pjlib-util-x86_64-x64-vc14-debug-dynamic:srv_resolver.obj
 0003:000472e4       $SG16069                   00000001400f02e4     pjlib-util-x86_64-x64-vc14-debug-dynamic:srv_resolver.obj
 0003:000472e8       $SG15907                   00000001400f02e8     pjlib-util-x86_64-x64-vc14-debug-dynamic:srv_resolver.obj
 0003:00047310       $SG16016                   00000001400f0310     pjlib-util-x86_64-x64-vc14-debug-dynamic:srv_resolver.obj
 0003:00047328       $SG16018                   00000001400f0328     pjlib-util-x86_64-x64-vc14-debug-dynamic:srv_resolver.obj
 0003:00047360       $SG16017                   00000001400f0360     pjlib-util-x86_64-x64-vc14-debug-dynamic:srv_resolver.obj
 0003:00047474       $SG16073                   00000001400f0474     pjlib-util-x86_64-x64-vc14-debug-dynamic:srv_resolver.obj
 0003:00047478       $SG16026                   00000001400f0478     pjlib-util-x86_64-x64-vc14-debug-dynamic:srv_resolver.obj
 0003:000474a8       $SG16029                   00000001400f04a8     pjlib-util-x86_64-x64-vc14-debug-dynamic:srv_resolver.obj
 0003:000474d0       $SG16033                   00000001400f04d0     pjlib-util-x86_64-x64-vc14-debug-dynamic:srv_resolver.obj
 0003:00047520       $SG16044                   00000001400f0520     pjlib-util-x86_64-x64-vc14-debug-dynamic:srv_resolver.obj
 0003:00047534       $SG16070                   00000001400f0534     pjlib-util-x86_64-x64-vc14-debug-dynamic:srv_resolver.obj
 0003:00047540       $SG16045                   00000001400f0540     pjlib-util-x86_64-x64-vc14-debug-dynamic:srv_resolver.obj
 0003:00047658       $SG16046                   00000001400f0658     pjlib-util-x86_64-x64-vc14-debug-dynamic:srv_resolver.obj
 0003:00047688       $SG16051                   00000001400f0688     pjlib-util-x86_64-x64-vc14-debug-dynamic:srv_resolver.obj
 0003:000476b0       $SG16054                   00000001400f06b0     pjlib-util-x86_64-x64-vc14-debug-dynamic:srv_resolver.obj
 0003:000477c8       $SG16055                   00000001400f07c8     pjlib-util-x86_64-x64-vc14-debug-dynamic:srv_resolver.obj
 0003:000477f0       $SG16057                   00000001400f07f0     pjlib-util-x86_64-x64-vc14-debug-dynamic:srv_resolver.obj
 0003:00047904       $SG16074                   00000001400f0904     pjlib-util-x86_64-x64-vc14-debug-dynamic:srv_resolver.obj
 0003:00047910       $SG16058                   00000001400f0910     pjlib-util-x86_64-x64-vc14-debug-dynamic:srv_resolver.obj
 0003:00047970       $SG16066                   00000001400f0970     pjlib-util-x86_64-x64-vc14-debug-dynamic:srv_resolver.obj
 0003:000479a0       $SG16071                   00000001400f09a0     pjlib-util-x86_64-x64-vc14-debug-dynamic:srv_resolver.obj
 0003:000479b8       $SG16075                   00000001400f09b8     pjlib-util-x86_64-x64-vc14-debug-dynamic:srv_resolver.obj
 0003:000479d8       $SG16077                   00000001400f09d8     pjlib-util-x86_64-x64-vc14-debug-dynamic:srv_resolver.obj
 0003:000479f0       $SG16078                   00000001400f09f0     pjlib-util-x86_64-x64-vc14-debug-dynamic:srv_resolver.obj
 0003:00047b08       $SG16079                   00000001400f0b08     pjlib-util-x86_64-x64-vc14-debug-dynamic:srv_resolver.obj
 0003:00047b38       $SG16082                   00000001400f0b38     pjlib-util-x86_64-x64-vc14-debug-dynamic:srv_resolver.obj
 0003:00047b60       $SG16081                   00000001400f0b60     pjlib-util-x86_64-x64-vc14-debug-dynamic:srv_resolver.obj
 0003:00047c78       $SG16088                   00000001400f0c78     pjlib-util-x86_64-x64-vc14-debug-dynamic:srv_resolver.obj
 0003:00047cb0       $SG16093                   00000001400f0cb0     pjlib-util-x86_64-x64-vc14-debug-dynamic:srv_resolver.obj
 0003:00047fc0       thread_tls_id              00000001400f0fc0     pjlib-x86_64-x64-vc14-debug-dynamic:os_core_win32.obj
 0003:00047fc4       $SG59757                   00000001400f0fc4     pjlib-x86_64-x64-vc14-debug-dynamic:os_core_win32.obj
 0003:00047fd0       $SG59758                   00000001400f0fd0     pjlib-x86_64-x64-vc14-debug-dynamic:os_core_win32.obj
 0003:00047fe0       $SG59762                   00000001400f0fe0     pjlib-x86_64-x64-vc14-debug-dynamic:os_core_win32.obj
 0003:000480dc       $SG59960                   00000001400f10dc     pjlib-x86_64-x64-vc14-debug-dynamic:os_core_win32.obj
 0003:000480e0       $SG59763                   00000001400f10e0     pjlib-x86_64-x64-vc14-debug-dynamic:os_core_win32.obj
 0003:00048104       $SG59976                   00000001400f1104     pjlib-x86_64-x64-vc14-debug-dynamic:os_core_win32.obj
 0003:00048108       $SG59765                   00000001400f1108     pjlib-x86_64-x64-vc14-debug-dynamic:os_core_win32.obj
 0003:00048128       $SG59766                   00000001400f1128     pjlib-x86_64-x64-vc14-debug-dynamic:os_core_win32.obj
 0003:00048138       $SG59788                   00000001400f1138     pjlib-x86_64-x64-vc14-debug-dynamic:os_core_win32.obj
 0003:00048160       $SG59784                   00000001400f1160     pjlib-x86_64-x64-vc14-debug-dynamic:os_core_win32.obj
 0003:0004825c       $SG60007                   00000001400f125c     pjlib-x86_64-x64-vc14-debug-dynamic:os_core_win32.obj
 0003:00048260       $SG59785                   00000001400f1260     pjlib-x86_64-x64-vc14-debug-dynamic:os_core_win32.obj
 0003:00048280       $SG59793                   00000001400f1280     pjlib-x86_64-x64-vc14-debug-dynamic:os_core_win32.obj
 0003:00048300       $SG59815                   00000001400f1300     pjlib-x86_64-x64-vc14-debug-dynamic:os_core_win32.obj
 0003:000483fc       $SG60027                   00000001400f13fc     pjlib-x86_64-x64-vc14-debug-dynamic:os_core_win32.obj
 0003:00048400       $SG59816                   00000001400f1400     pjlib-x86_64-x64-vc14-debug-dynamic:os_core_win32.obj
 0003:00048410       $SG59819                   00000001400f1410     pjlib-x86_64-x64-vc14-debug-dynamic:os_core_win32.obj
 0003:00048510       $SG59820                   00000001400f1510     pjlib-x86_64-x64-vc14-debug-dynamic:os_core_win32.obj
 0003:00048540       $SG59840                   00000001400f1540     pjlib-x86_64-x64-vc14-debug-dynamic:os_core_win32.obj
 0003:00048640       $SG59841                   00000001400f1640     pjlib-x86_64-x64-vc14-debug-dynamic:os_core_win32.obj
 0003:00048650       $SG59863                   00000001400f1650     pjlib-x86_64-x64-vc14-debug-dynamic:os_core_win32.obj
 0003:00048670       $SG59864                   00000001400f1670     pjlib-x86_64-x64-vc14-debug-dynamic:os_core_win32.obj
 0003:00048770       $SG59865                   00000001400f1770     pjlib-x86_64-x64-vc14-debug-dynamic:os_core_win32.obj
 0003:000487b8       $SG59869                   00000001400f17b8     pjlib-x86_64-x64-vc14-debug-dynamic:os_core_win32.obj
 0003:000487c0       $SG59876                   00000001400f17c0     pjlib-x86_64-x64-vc14-debug-dynamic:os_core_win32.obj
 0003:000487c8       $SG59897                   00000001400f17c8     pjlib-x86_64-x64-vc14-debug-dynamic:os_core_win32.obj
 0003:000487f0       $SG59898                   00000001400f17f0     pjlib-x86_64-x64-vc14-debug-dynamic:os_core_win32.obj
 0003:000488f0       $SG59899                   00000001400f18f0     pjlib-x86_64-x64-vc14-debug-dynamic:os_core_win32.obj
 0003:00048940       $SG59903                   00000001400f1940     pjlib-x86_64-x64-vc14-debug-dynamic:os_core_win32.obj
 0003:00048968       $SG59938                   00000001400f1968     pjlib-x86_64-x64-vc14-debug-dynamic:os_core_win32.obj
 0003:000489a0       $SG59934                   00000001400f19a0     pjlib-x86_64-x64-vc14-debug-dynamic:os_core_win32.obj
 0003:00048a20       $SG59937                   00000001400f1a20     pjlib-x86_64-x64-vc14-debug-dynamic:os_core_win32.obj
 0003:00048b1c       $SG59942                   00000001400f1b1c     pjlib-x86_64-x64-vc14-debug-dynamic:os_core_win32.obj
 0003:00048b28       $SG60049                   00000001400f1b28     pjlib-x86_64-x64-vc14-debug-dynamic:os_core_win32.obj
 0003:00048b38       $SG60050                   00000001400f1b38     pjlib-x86_64-x64-vc14-debug-dynamic:os_core_win32.obj
 0003:00048b50       $SG59957                   00000001400f1b50     pjlib-x86_64-x64-vc14-debug-dynamic:os_core_win32.obj
 0003:00048bd0       $SG59959                   00000001400f1bd0     pjlib-x86_64-x64-vc14-debug-dynamic:os_core_win32.obj
 0003:00048cd0       $SG59973                   00000001400f1cd0     pjlib-x86_64-x64-vc14-debug-dynamic:os_core_win32.obj
 0003:00048d50       $SG59975                   00000001400f1d50     pjlib-x86_64-x64-vc14-debug-dynamic:os_core_win32.obj
 0003:00048e50       $SG59986                   00000001400f1e50     pjlib-x86_64-x64-vc14-debug-dynamic:os_core_win32.obj
 0003:00048ee0       $SG59987                   00000001400f1ee0     pjlib-x86_64-x64-vc14-debug-dynamic:os_core_win32.obj
 0003:00048fe0       $SG59988                   00000001400f1fe0     pjlib-x86_64-x64-vc14-debug-dynamic:os_core_win32.obj
 0003:00049110       $SG60004                   00000001400f2110     pjlib-x86_64-x64-vc14-debug-dynamic:os_core_win32.obj
 0003:00049190       $SG60006                   00000001400f2190     pjlib-x86_64-x64-vc14-debug-dynamic:os_core_win32.obj
 0003:00049290       $SG60024                   00000001400f2290     pjlib-x86_64-x64-vc14-debug-dynamic:os_core_win32.obj
 0003:00049310       $SG60026                   00000001400f2310     pjlib-x86_64-x64-vc14-debug-dynamic:os_core_win32.obj
 0003:00049410       $SG60033                   00000001400f2410     pjlib-x86_64-x64-vc14-debug-dynamic:os_core_win32.obj
 0003:00049490       $SG60048                   00000001400f2490     pjlib-x86_64-x64-vc14-debug-dynamic:os_core_win32.obj
 0003:00049590       $SG60051                   00000001400f2590     pjlib-x86_64-x64-vc14-debug-dynamic:os_core_win32.obj
 0003:00049690       $SG60052                   00000001400f2690     pjlib-x86_64-x64-vc14-debug-dynamic:os_core_win32.obj
 0003:00049708       $SG60067                   00000001400f2708     pjlib-x86_64-x64-vc14-debug-dynamic:os_core_win32.obj
 0003:00049718       $SG60089                   00000001400f2718     pjlib-x86_64-x64-vc14-debug-dynamic:os_core_win32.obj
 0003:00049720       $SG60066                   00000001400f2720     pjlib-x86_64-x64-vc14-debug-dynamic:os_core_win32.obj
 0003:00049820       $SG60088                   00000001400f2820     pjlib-x86_64-x64-vc14-debug-dynamic:os_core_win32.obj
 0003:00049920       $SG60100                   00000001400f2920     pjlib-x86_64-x64-vc14-debug-dynamic:os_core_win32.obj
 0003:000499a0       $SG60101                   00000001400f29a0     pjlib-x86_64-x64-vc14-debug-dynamic:os_core_win32.obj
 0003:00049aa0       $SG60102                   00000001400f2aa0     pjlib-x86_64-x64-vc14-debug-dynamic:os_core_win32.obj
 0003:00049ab8       $SG60115                   00000001400f2ab8     pjlib-x86_64-x64-vc14-debug-dynamic:os_core_win32.obj
 0003:00049ad0       $SG60112                   00000001400f2ad0     pjlib-x86_64-x64-vc14-debug-dynamic:os_core_win32.obj
 0003:00049b50       $SG60114                   00000001400f2b50     pjlib-x86_64-x64-vc14-debug-dynamic:os_core_win32.obj
 0003:00049c50       $SG60119                   00000001400f2c50     pjlib-x86_64-x64-vc14-debug-dynamic:os_core_win32.obj
 0003:00049cd0       $SG60128                   00000001400f2cd0     pjlib-x86_64-x64-vc14-debug-dynamic:os_core_win32.obj
 0003:00049dd0       $SG60129                   00000001400f2dd0     pjlib-x86_64-x64-vc14-debug-dynamic:os_core_win32.obj
 0003:00049de8       $SG60144                   00000001400f2de8     pjlib-x86_64-x64-vc14-debug-dynamic:os_core_win32.obj
 0003:00049e00       $SG60134                   00000001400f2e00     pjlib-x86_64-x64-vc14-debug-dynamic:os_core_win32.obj
 0003:00049e80       $SG60143                   00000001400f2e80     pjlib-x86_64-x64-vc14-debug-dynamic:os_core_win32.obj
 0003:00049f80       $SG60156                   00000001400f2f80     pjlib-x86_64-x64-vc14-debug-dynamic:os_core_win32.obj
 0003:0004a080       $SG60157                   00000001400f3080     pjlib-x86_64-x64-vc14-debug-dynamic:os_core_win32.obj
 0003:0004a098       $SG60205                   00000001400f3098     pjlib-x86_64-x64-vc14-debug-dynamic:os_core_win32.obj
 0003:0004a0a0       $SG60177                   00000001400f30a0     pjlib-x86_64-x64-vc14-debug-dynamic:os_core_win32.obj
 0003:0004a1a0       $SG60178                   00000001400f31a0     pjlib-x86_64-x64-vc14-debug-dynamic:os_core_win32.obj
 0003:0004a1d0       $SG60184                   00000001400f31d0     pjlib-x86_64-x64-vc14-debug-dynamic:os_core_win32.obj
 0003:0004a250       $SG60203                   00000001400f3250     pjlib-x86_64-x64-vc14-debug-dynamic:os_core_win32.obj
 0003:0004a2d0       $SG60228                   00000001400f32d0     pjlib-x86_64-x64-vc14-debug-dynamic:os_core_win32.obj
 0003:0004a3d0       $SG60229                   00000001400f33d0     pjlib-x86_64-x64-vc14-debug-dynamic:os_core_win32.obj
 0003:0004a3f4       $SG60480                   00000001400f33f4     pjlib-x86_64-x64-vc14-debug-dynamic:os_core_win32.obj
 0003:0004a400       $SG60261                   00000001400f3400     pjlib-x86_64-x64-vc14-debug-dynamic:os_core_win32.obj
 0003:0004a480       $SG60263                   00000001400f3480     pjlib-x86_64-x64-vc14-debug-dynamic:os_core_win32.obj
 0003:0004a580       $SG60264                   00000001400f3580     pjlib-x86_64-x64-vc14-debug-dynamic:os_core_win32.obj
 0003:0004a590       $SG60283                   00000001400f3590     pjlib-x86_64-x64-vc14-debug-dynamic:os_core_win32.obj
 0003:0004a610       $SG60285                   00000001400f3610     pjlib-x86_64-x64-vc14-debug-dynamic:os_core_win32.obj
 0003:0004a710       $SG60286                   00000001400f3710     pjlib-x86_64-x64-vc14-debug-dynamic:os_core_win32.obj
 0003:0004a720       $SG60287                   00000001400f3720     pjlib-x86_64-x64-vc14-debug-dynamic:os_core_win32.obj
 0003:0004a820       $SG60288                   00000001400f3820     pjlib-x86_64-x64-vc14-debug-dynamic:os_core_win32.obj
 0003:0004a868       $SG60312                   00000001400f3868     pjlib-x86_64-x64-vc14-debug-dynamic:os_core_win32.obj
 0003:0004a874       $SG60611                   00000001400f3874     pjlib-x86_64-x64-vc14-debug-dynamic:os_core_win32.obj
 0003:0004a880       $SG60309                   00000001400f3880     pjlib-x86_64-x64-vc14-debug-dynamic:os_core_win32.obj
 0003:0004a900       $SG60311                   00000001400f3900     pjlib-x86_64-x64-vc14-debug-dynamic:os_core_win32.obj
 0003:0004aa00       $SG60329                   00000001400f3a00     pjlib-x86_64-x64-vc14-debug-dynamic:os_core_win32.obj
 0003:0004aa80       $SG60331                   00000001400f3a80     pjlib-x86_64-x64-vc14-debug-dynamic:os_core_win32.obj
 0003:0004ab80       $SG60332                   00000001400f3b80     pjlib-x86_64-x64-vc14-debug-dynamic:os_core_win32.obj
 0003:0004ab90       $SG60360                   00000001400f3b90     pjlib-x86_64-x64-vc14-debug-dynamic:os_core_win32.obj
 0003:0004ac88       $SG60361                   00000001400f3c88     pjlib-x86_64-x64-vc14-debug-dynamic:os_core_win32.obj
 0003:0004aca8       $SG60419                   00000001400f3ca8     pjlib-x86_64-x64-vc14-debug-dynamic:os_core_win32.obj
 0003:0004ace0       $SG60378                   00000001400f3ce0     pjlib-x86_64-x64-vc14-debug-dynamic:os_core_win32.obj
 0003:0004add8       $SG60379                   00000001400f3dd8     pjlib-x86_64-x64-vc14-debug-dynamic:os_core_win32.obj
 0003:0004ade8       $SG60381                   00000001400f3de8     pjlib-x86_64-x64-vc14-debug-dynamic:os_core_win32.obj
 0003:0004ae08       $SG60435                   00000001400f3e08     pjlib-x86_64-x64-vc14-debug-dynamic:os_core_win32.obj
 0003:0004ae40       $SG60382                   00000001400f3e40     pjlib-x86_64-x64-vc14-debug-dynamic:os_core_win32.obj
 0003:0004af38       $SG60415                   00000001400f3f38     pjlib-x86_64-x64-vc14-debug-dynamic:os_core_win32.obj
 0003:0004af58       $SG60477                   00000001400f3f58     pjlib-x86_64-x64-vc14-debug-dynamic:os_core_win32.obj
 0003:0004af78       $SG60510                   00000001400f3f78     pjlib-x86_64-x64-vc14-debug-dynamic:os_core_win32.obj
 0003:0004af80       $SG60383                   00000001400f3f80     pjlib-x86_64-x64-vc14-debug-dynamic:os_core_win32.obj
 0003:0004afd0       $SG60384                   00000001400f3fd0     pjlib-x86_64-x64-vc14-debug-dynamic:os_core_win32.obj
 0003:0004b0c8       $SG60531                   00000001400f40c8     pjlib-x86_64-x64-vc14-debug-dynamic:os_core_win32.obj
 0003:0004b0d0       $SG60385                   00000001400f40d0     pjlib-x86_64-x64-vc14-debug-dynamic:os_core_win32.obj
 0003:0004b118       $SG60543                   00000001400f4118     pjlib-x86_64-x64-vc14-debug-dynamic:os_core_win32.obj
 0003:0004b120       $SG60396                   00000001400f4120     pjlib-x86_64-x64-vc14-debug-dynamic:os_core_win32.obj
 0003:0004b218       $SG60397                   00000001400f4218     pjlib-x86_64-x64-vc14-debug-dynamic:os_core_win32.obj
 0003:0004b228       $SG60559                   00000001400f4228     pjlib-x86_64-x64-vc14-debug-dynamic:os_core_win32.obj
 0003:0004b230       $SG60412                   00000001400f4230     pjlib-x86_64-x64-vc14-debug-dynamic:os_core_win32.obj
 0003:0004b328       $SG60413                   00000001400f4328     pjlib-x86_64-x64-vc14-debug-dynamic:os_core_win32.obj
 0003:0004b338       $SG60577                   00000001400f4338     pjlib-x86_64-x64-vc14-debug-dynamic:os_core_win32.obj
 0003:0004b340       $SG60416                   00000001400f4340     pjlib-x86_64-x64-vc14-debug-dynamic:os_core_win32.obj
 0003:0004b438       $SG60607                   00000001400f4438     pjlib-x86_64-x64-vc14-debug-dynamic:os_core_win32.obj
 0003:0004b460       $SG60417                   00000001400f4460     pjlib-x86_64-x64-vc14-debug-dynamic:os_core_win32.obj
 0003:0004b4b0       $SG60418                   00000001400f44b0     pjlib-x86_64-x64-vc14-debug-dynamic:os_core_win32.obj
 0003:0004b5b0       $SG60432                   00000001400f45b0     pjlib-x86_64-x64-vc14-debug-dynamic:os_core_win32.obj
 0003:0004b6a8       $SG60433                   00000001400f46a8     pjlib-x86_64-x64-vc14-debug-dynamic:os_core_win32.obj
 0003:0004b6c0       $SG60434                   00000001400f46c0     pjlib-x86_64-x64-vc14-debug-dynamic:os_core_win32.obj
 0003:0004b7c0       $SG60445                   00000001400f47c0     pjlib-x86_64-x64-vc14-debug-dynamic:os_core_win32.obj
 0003:0004b8b8       $SG60446                   00000001400f48b8     pjlib-x86_64-x64-vc14-debug-dynamic:os_core_win32.obj
 0003:0004b8d0       $SG60473                   00000001400f48d0     pjlib-x86_64-x64-vc14-debug-dynamic:os_core_win32.obj
 0003:0004b950       $SG60476                   00000001400f4950     pjlib-x86_64-x64-vc14-debug-dynamic:os_core_win32.obj
 0003:0004ba50       $SG60507                   00000001400f4a50     pjlib-x86_64-x64-vc14-debug-dynamic:os_core_win32.obj
 0003:0004bad0       $SG60509                   00000001400f4ad0     pjlib-x86_64-x64-vc14-debug-dynamic:os_core_win32.obj
 0003:0004bbd0       $SG60528                   00000001400f4bd0     pjlib-x86_64-x64-vc14-debug-dynamic:os_core_win32.obj
 0003:0004bc50       $SG60530                   00000001400f4c50     pjlib-x86_64-x64-vc14-debug-dynamic:os_core_win32.obj
 0003:0004bd50       $SG60540                   00000001400f4d50     pjlib-x86_64-x64-vc14-debug-dynamic:os_core_win32.obj
 0003:0004bdd0       $SG60542                   00000001400f4dd0     pjlib-x86_64-x64-vc14-debug-dynamic:os_core_win32.obj
 0003:0004bed0       $SG60556                   00000001400f4ed0     pjlib-x86_64-x64-vc14-debug-dynamic:os_core_win32.obj
 0003:0004bf50       $SG60558                   00000001400f4f50     pjlib-x86_64-x64-vc14-debug-dynamic:os_core_win32.obj
 0003:0004c050       $SG60574                   00000001400f5050     pjlib-x86_64-x64-vc14-debug-dynamic:os_core_win32.obj
 0003:0004c0d0       $SG60576                   00000001400f50d0     pjlib-x86_64-x64-vc14-debug-dynamic:os_core_win32.obj
 0003:0004c1d0       $SG60603                   00000001400f51d0     pjlib-x86_64-x64-vc14-debug-dynamic:os_core_win32.obj
 0003:0004c250       $SG60606                   00000001400f5250     pjlib-x86_64-x64-vc14-debug-dynamic:os_core_win32.obj
 0003:0004c350       $SG60638                   00000001400f5350     pjlib-x86_64-x64-vc14-debug-dynamic:os_core_win32.obj
 0003:0004c3d0       $SG60640                   00000001400f53d0     pjlib-x86_64-x64-vc14-debug-dynamic:os_core_win32.obj
 0003:0004c4d0       $SG60641                   00000001400f54d0     pjlib-x86_64-x64-vc14-debug-dynamic:os_core_win32.obj
 0003:0004c4e0       $SG60660                   00000001400f54e0     pjlib-x86_64-x64-vc14-debug-dynamic:os_core_win32.obj
 0003:0004c5e0       $SG60661                   00000001400f55e0     pjlib-x86_64-x64-vc14-debug-dynamic:os_core_win32.obj
 0003:0004c5f0       $SG60671                   00000001400f55f0     pjlib-x86_64-x64-vc14-debug-dynamic:os_core_win32.obj
 0003:0004c6f0       $SG60672                   00000001400f56f0     pjlib-x86_64-x64-vc14-debug-dynamic:os_core_win32.obj
 0003:0004c700       $SG60684                   00000001400f5700     pjlib-x86_64-x64-vc14-debug-dynamic:os_core_win32.obj
 0003:0004c780       $SG60686                   00000001400f5780     pjlib-x86_64-x64-vc14-debug-dynamic:os_core_win32.obj
 0003:0004c880       $SG60687                   00000001400f5880     pjlib-x86_64-x64-vc14-debug-dynamic:os_core_win32.obj
 0003:0004c890       $SG60702                   00000001400f5890     pjlib-x86_64-x64-vc14-debug-dynamic:os_core_win32.obj
 0003:0004c910       $SG60704                   00000001400f5910     pjlib-x86_64-x64-vc14-debug-dynamic:os_core_win32.obj
 0003:0004ca10       $SG60705                   00000001400f5a10     pjlib-x86_64-x64-vc14-debug-dynamic:os_core_win32.obj
 0003:0004ca20       $SG60720                   00000001400f5a20     pjlib-x86_64-x64-vc14-debug-dynamic:os_core_win32.obj
 0003:0004caa0       $SG60722                   00000001400f5aa0     pjlib-x86_64-x64-vc14-debug-dynamic:os_core_win32.obj
 0003:0004cba0       $SG60723                   00000001400f5ba0     pjlib-x86_64-x64-vc14-debug-dynamic:os_core_win32.obj
 0003:0004cbb0       $SG60738                   00000001400f5bb0     pjlib-x86_64-x64-vc14-debug-dynamic:os_core_win32.obj
 0003:0004cc30       $SG60740                   00000001400f5c30     pjlib-x86_64-x64-vc14-debug-dynamic:os_core_win32.obj
 0003:0004cd30       $SG60741                   00000001400f5d30     pjlib-x86_64-x64-vc14-debug-dynamic:os_core_win32.obj
 0003:0004cd40       $SG60769                   00000001400f5d40     pjlib-x86_64-x64-vc14-debug-dynamic:os_core_win32.obj
 0003:0004cdc0       $SG60774                   00000001400f5dc0     pjlib-x86_64-x64-vc14-debug-dynamic:os_core_win32.obj
 0003:0004ddf0       $SG13958                   00000001400f6df0     pjlib-x86_64-x64-vc14-debug-dynamic:errno.obj
 0003:0004de10       $SG13959                   00000001400f6e10     pjlib-x86_64-x64-vc14-debug-dynamic:errno.obj
 0003:0004de30       $SG13960                   00000001400f6e30     pjlib-x86_64-x64-vc14-debug-dynamic:errno.obj
 0003:0004de60       $SG13961                   00000001400f6e60     pjlib-x86_64-x64-vc14-debug-dynamic:errno.obj
 0003:0004de88       $SG13962                   00000001400f6e88     pjlib-x86_64-x64-vc14-debug-dynamic:errno.obj
 0003:0004dea8       $SG13963                   00000001400f6ea8     pjlib-x86_64-x64-vc14-debug-dynamic:errno.obj
 0003:0004dec8       $SG13964                   00000001400f6ec8     pjlib-x86_64-x64-vc14-debug-dynamic:errno.obj
 0003:0004dee8       $SG13965                   00000001400f6ee8     pjlib-x86_64-x64-vc14-debug-dynamic:errno.obj
 0003:0004df00       $SG13966                   00000001400f6f00     pjlib-x86_64-x64-vc14-debug-dynamic:errno.obj
 0003:0004df28       $SG13967                   00000001400f6f28     pjlib-x86_64-x64-vc14-debug-dynamic:errno.obj
 0003:0004df60       $SG13968                   00000001400f6f60     pjlib-x86_64-x64-vc14-debug-dynamic:errno.obj
 0003:0004df80       $SG13969                   00000001400f6f80     pjlib-x86_64-x64-vc14-debug-dynamic:errno.obj
 0003:0004dfb0       $SG13970                   00000001400f6fb0     pjlib-x86_64-x64-vc14-debug-dynamic:errno.obj
 0003:0004dfd8       $SG13971                   00000001400f6fd8     pjlib-x86_64-x64-vc14-debug-dynamic:errno.obj
 0003:0004e000       $SG13972                   00000001400f7000     pjlib-x86_64-x64-vc14-debug-dynamic:errno.obj
 0003:0004e028       $SG13973                   00000001400f7028     pjlib-x86_64-x64-vc14-debug-dynamic:errno.obj
 0003:0004e040       $SG13974                   00000001400f7040     pjlib-x86_64-x64-vc14-debug-dynamic:errno.obj
 0003:0004e060       $SG13975                   00000001400f7060     pjlib-x86_64-x64-vc14-debug-dynamic:errno.obj
 0003:0004e098       $SG13976                   00000001400f7098     pjlib-x86_64-x64-vc14-debug-dynamic:errno.obj
 0003:0004e0c0       $SG13977                   00000001400f70c0     pjlib-x86_64-x64-vc14-debug-dynamic:errno.obj
 0003:0004e0d8       $SG13978                   00000001400f70d8     pjlib-x86_64-x64-vc14-debug-dynamic:errno.obj
 0003:0004e100       $SG13979                   00000001400f7100     pjlib-x86_64-x64-vc14-debug-dynamic:errno.obj
 0003:0004e130       $SG13980                   00000001400f7130     pjlib-x86_64-x64-vc14-debug-dynamic:errno.obj
 0003:0004e158       $SG13981                   00000001400f7158     pjlib-x86_64-x64-vc14-debug-dynamic:errno.obj
 0003:0004e180       $SG14001                   00000001400f7180     pjlib-x86_64-x64-vc14-debug-dynamic:errno.obj
 0003:0004e1a0       $SG14033                   00000001400f71a0     pjlib-x86_64-x64-vc14-debug-dynamic:errno.obj
 0003:0004e290       $SG14034                   00000001400f7290     pjlib-x86_64-x64-vc14-debug-dynamic:errno.obj
 0003:0004e2b8       $SG14068                   00000001400f72b8     pjlib-x86_64-x64-vc14-debug-dynamic:errno.obj
 0003:0004e2c0       $SG14036                   00000001400f72c0     pjlib-x86_64-x64-vc14-debug-dynamic:errno.obj
 0003:0004e3b0       $SG14037                   00000001400f73b0     pjlib-x86_64-x64-vc14-debug-dynamic:errno.obj
 0003:0004e430       $SG14039                   00000001400f7430     pjlib-x86_64-x64-vc14-debug-dynamic:errno.obj
 0003:0004e520       $SG14040                   00000001400f7520     pjlib-x86_64-x64-vc14-debug-dynamic:errno.obj
 0003:0004e580       $SG14064                   00000001400f7580     pjlib-x86_64-x64-vc14-debug-dynamic:errno.obj
 0003:0004e670       $SG14065                   00000001400f7670     pjlib-x86_64-x64-vc14-debug-dynamic:errno.obj
 0003:0004e690       $SG14071                   00000001400f7690     pjlib-x86_64-x64-vc14-debug-dynamic:errno.obj
 0003:0004e6a4       $SG14111                   00000001400f76a4     pjlib-x86_64-x64-vc14-debug-dynamic:errno.obj
 0003:0004e6b0       $SG14077                   00000001400f76b0     pjlib-x86_64-x64-vc14-debug-dynamic:errno.obj
 0003:0004e6c4       $SG14112                   00000001400f76c4     pjlib-x86_64-x64-vc14-debug-dynamic:errno.obj
 0003:0004e890       $SG60332                   00000001400f7890     pjlib-x86_64-x64-vc14-debug-dynamic:sock_common.obj
 0003:0004e894       $SG60333                   00000001400f7894     pjlib-x86_64-x64-vc14-debug-dynamic:sock_common.obj
 0003:0004e898       $SG60336                   00000001400f7898     pjlib-x86_64-x64-vc14-debug-dynamic:sock_common.obj
 0003:0004e89c       $SG60978                   00000001400f789c     pjlib-x86_64-x64-vc14-debug-dynamic:sock_common.obj
 0003:0004e8a0       $SG60337                   00000001400f78a0     pjlib-x86_64-x64-vc14-debug-dynamic:sock_common.obj
 0003:0004e8b0       $SG60353                   00000001400f78b0     pjlib-x86_64-x64-vc14-debug-dynamic:sock_common.obj
 0003:0004e930       $SG60355                   00000001400f7930     pjlib-x86_64-x64-vc14-debug-dynamic:sock_common.obj
 0003:0004ea28       $SG60559                   00000001400f7a28     pjlib-x86_64-x64-vc14-debug-dynamic:sock_common.obj
 0003:0004ea40       $SG60356                   00000001400f7a40     pjlib-x86_64-x64-vc14-debug-dynamic:sock_common.obj
 0003:0004ea88       $SG60871                   00000001400f7a88     pjlib-x86_64-x64-vc14-debug-dynamic:sock_common.obj
 0003:0004ea90       $SG60379                   00000001400f7a90     pjlib-x86_64-x64-vc14-debug-dynamic:sock_common.obj
 0003:0004eb88       $SG60380                   00000001400f7b88     pjlib-x86_64-x64-vc14-debug-dynamic:sock_common.obj
 0003:0004eba8       $SG60872                   00000001400f7ba8     pjlib-x86_64-x64-vc14-debug-dynamic:sock_common.obj
 0003:0004ebb0       $SG60399                   00000001400f7bb0     pjlib-x86_64-x64-vc14-debug-dynamic:sock_common.obj
 0003:0004eca8       $SG60400                   00000001400f7ca8     pjlib-x86_64-x64-vc14-debug-dynamic:sock_common.obj
 0003:0004ecb8       $SG60420                   00000001400f7cb8     pjlib-x86_64-x64-vc14-debug-dynamic:sock_common.obj
 0003:0004ecd8       $SG60888                   00000001400f7cd8     pjlib-x86_64-x64-vc14-debug-dynamic:sock_common.obj
 0003:0004ece0       $SG60419                   00000001400f7ce0     pjlib-x86_64-x64-vc14-debug-dynamic:sock_common.obj
 0003:0004edd8       $SG60889                   00000001400f7dd8     pjlib-x86_64-x64-vc14-debug-dynamic:sock_common.obj
 0003:0004ede0       $SG60462                   00000001400f7de0     pjlib-x86_64-x64-vc14-debug-dynamic:sock_common.obj
 0003:0004eed8       $SG60979                   00000001400f7ed8     pjlib-x86_64-x64-vc14-debug-dynamic:sock_common.obj
 0003:0004eee0       $SG60463                   00000001400f7ee0     pjlib-x86_64-x64-vc14-debug-dynamic:sock_common.obj
 0003:0004ef70       $SG60491                   00000001400f7f70     pjlib-x86_64-x64-vc14-debug-dynamic:sock_common.obj
 0003:0004f070       $SG60492                   00000001400f8070     pjlib-x86_64-x64-vc14-debug-dynamic:sock_common.obj
 0003:0004f100       $SG60506                   00000001400f8100     pjlib-x86_64-x64-vc14-debug-dynamic:sock_common.obj
 0003:0004f200       $SG60507                   00000001400f8200     pjlib-x86_64-x64-vc14-debug-dynamic:sock_common.obj
 0003:0004f290       $SG60521                   00000001400f8290     pjlib-x86_64-x64-vc14-debug-dynamic:sock_common.obj
 0003:0004f390       $SG60522                   00000001400f8390     pjlib-x86_64-x64-vc14-debug-dynamic:sock_common.obj
 0003:0004f420       $SG60558                   00000001400f8420     pjlib-x86_64-x64-vc14-debug-dynamic:sock_common.obj
 0003:0004f520       $SG60579                   00000001400f8520     pjlib-x86_64-x64-vc14-debug-dynamic:sock_common.obj
 0003:0004f620       $SG60580                   00000001400f8620     pjlib-x86_64-x64-vc14-debug-dynamic:sock_common.obj
 0003:0004f670       $SG60648                   00000001400f8670     pjlib-x86_64-x64-vc14-debug-dynamic:sock_common.obj
 0003:0004f770       $SG60649                   00000001400f8770     pjlib-x86_64-x64-vc14-debug-dynamic:sock_common.obj
 0003:0004f830       $SG60712                   00000001400f8830     pjlib-x86_64-x64-vc14-debug-dynamic:sock_common.obj
 0003:0004f928       $SG60713                   00000001400f8928     pjlib-x86_64-x64-vc14-debug-dynamic:sock_common.obj
 0003:0004f940       $SG60715                   00000001400f8940     pjlib-x86_64-x64-vc14-debug-dynamic:sock_common.obj
 0003:0004fa40       $SG60716                   00000001400f8a40     pjlib-x86_64-x64-vc14-debug-dynamic:sock_common.obj
 0003:0004fab0       $SG60718                   00000001400f8ab0     pjlib-x86_64-x64-vc14-debug-dynamic:sock_common.obj
 0003:0004fba8       $SG60719                   00000001400f8ba8     pjlib-x86_64-x64-vc14-debug-dynamic:sock_common.obj
 0003:0004fbd0       $SG60821                   00000001400f8bd0     pjlib-x86_64-x64-vc14-debug-dynamic:sock_common.obj
 0003:0004fcd0       $SG60822                   00000001400f8cd0     pjlib-x86_64-x64-vc14-debug-dynamic:sock_common.obj
 0003:0004fd30       $SG60913                   00000001400f8d30     pjlib-x86_64-x64-vc14-debug-dynamic:sock_common.obj
 0003:0004fdb0       $SG60915                   00000001400f8db0     pjlib-x86_64-x64-vc14-debug-dynamic:sock_common.obj
 0003:0004fea8       $SG60916                   00000001400f8ea8     pjlib-x86_64-x64-vc14-debug-dynamic:sock_common.obj
 0003:0004fec0       $SG60945                   00000001400f8ec0     pjlib-x86_64-x64-vc14-debug-dynamic:sock_common.obj
 0003:0004ff40       $SG60948                   00000001400f8f40     pjlib-x86_64-x64-vc14-debug-dynamic:sock_common.obj
 0003:00050040       $SG60949                   00000001400f9040     pjlib-x86_64-x64-vc14-debug-dynamic:sock_common.obj
 0003:00050108       $SG60984                   00000001400f9108     pjlib-x86_64-x64-vc14-debug-dynamic:sock_common.obj
 0003:00050118       $SG60985                   00000001400f9118     pjlib-x86_64-x64-vc14-debug-dynamic:sock_common.obj
 0003:00050610       $SG14684                   00000001400f9610     pjlib-x86_64-x64-vc14-debug-dynamic:pool.obj
 0003:00050690       $SG14685                   00000001400f9690     pjlib-x86_64-x64-vc14-debug-dynamic:pool.obj
 0003:00050780       $SG14686                   00000001400f9780     pjlib-x86_64-x64-vc14-debug-dynamic:pool.obj
 0003:000507c0       $SG14717                   00000001400f97c0     pjlib-x86_64-x64-vc14-debug-dynamic:pool.obj
 0003:00050840       $SG14725                   00000001400f9840     pjlib-x86_64-x64-vc14-debug-dynamic:pool.obj
 0003:00050930       $SG14726                   00000001400f9930     pjlib-x86_64-x64-vc14-debug-dynamic:pool.obj
 0003:00050960       $SG14738                   00000001400f9960     pjlib-x86_64-x64-vc14-debug-dynamic:pool.obj
 0003:000509e0       $SG14778                   00000001400f99e0     pjlib-x86_64-x64-vc14-debug-dynamic:pool.obj
 0003:00050a60       $SG14780                   00000001400f9a60     pjlib-x86_64-x64-vc14-debug-dynamic:pool.obj
 0003:00050b50       $SG14781                   00000001400f9b50     pjlib-x86_64-x64-vc14-debug-dynamic:pool.obj
 0003:00050bc0       $SG14796                   00000001400f9bc0     pjlib-x86_64-x64-vc14-debug-dynamic:pool.obj
 0003:00050d70       pool_sizes                 00000001400f9d70     pjlib-x86_64-x64-vc14-debug-dynamic:pool_caching.obj
 0003:00050df0       $SG14694                   00000001400f9df0     pjlib-x86_64-x64-vc14-debug-dynamic:pool_caching.obj
 0003:00050e70       $SG14696                   00000001400f9e70     pjlib-x86_64-x64-vc14-debug-dynamic:pool_caching.obj
 0003:00050e80       $SG14697                   00000001400f9e80     pjlib-x86_64-x64-vc14-debug-dynamic:pool_caching.obj
 0003:00050e90       $SG14721                   00000001400f9e90     pjlib-x86_64-x64-vc14-debug-dynamic:pool_caching.obj
 0003:00050f10       $SG14723                   00000001400f9f10     pjlib-x86_64-x64-vc14-debug-dynamic:pool_caching.obj
 0003:00050f48       $SG14725                   00000001400f9f48     pjlib-x86_64-x64-vc14-debug-dynamic:pool_caching.obj
 0003:00050f60       $SG14755                   00000001400f9f60     pjlib-x86_64-x64-vc14-debug-dynamic:pool_caching.obj
 0003:00050fe0       $SG14789                   00000001400f9fe0     pjlib-x86_64-x64-vc14-debug-dynamic:pool_caching.obj
 0003:00051060       $SG14790                   00000001400fa060     pjlib-x86_64-x64-vc14-debug-dynamic:pool_caching.obj
 0003:00051160       $SG14791                   00000001400fa160     pjlib-x86_64-x64-vc14-debug-dynamic:pool_caching.obj
 0003:00051180       $SG14797                   00000001400fa180     pjlib-x86_64-x64-vc14-debug-dynamic:pool_caching.obj
 0003:00051280       $SG14798                   00000001400fa280     pjlib-x86_64-x64-vc14-debug-dynamic:pool_caching.obj
 0003:00051290       $SG14831                   00000001400fa290     pjlib-x86_64-x64-vc14-debug-dynamic:pool_caching.obj
 0003:000512a8       $SG14832                   00000001400fa2a8     pjlib-x86_64-x64-vc14-debug-dynamic:pool_caching.obj
 0003:000512b8       $SG14834                   00000001400fa2b8     pjlib-x86_64-x64-vc14-debug-dynamic:pool_caching.obj
 0003:000512e8       $SG14835                   00000001400fa2e8     pjlib-x86_64-x64-vc14-debug-dynamic:pool_caching.obj
 0003:000512f8       $SG14838                   00000001400fa2f8     pjlib-x86_64-x64-vc14-debug-dynamic:pool_caching.obj
 0003:00051318       $SG14839                   00000001400fa318     pjlib-x86_64-x64-vc14-debug-dynamic:pool_caching.obj
 0003:00051328       $SG14841                   00000001400fa328     pjlib-x86_64-x64-vc14-debug-dynamic:pool_caching.obj
 0003:00051348       $SG14842                   00000001400fa348     pjlib-x86_64-x64-vc14-debug-dynamic:pool_caching.obj
 0003:00051358       $SG14845                   00000001400fa358     pjlib-x86_64-x64-vc14-debug-dynamic:pool_caching.obj
 0003:00051380       $SG14846                   00000001400fa380     pjlib-x86_64-x64-vc14-debug-dynamic:pool_caching.obj
 0003:000514d0       $SG14474                   00000001400fa4d0     pjlib-x86_64-x64-vc14-debug-dynamic:string.obj
 0003:000514e8       $SG14475                   00000001400fa4e8     pjlib-x86_64-x64-vc14-debug-dynamic:string.obj
 0003:00051500       $SG15132                   00000001400fa500     pjlib-x86_64-x64-vc14-debug-dynamic:string.obj
 0003:00051600       $SG15133                   00000001400fa600     pjlib-x86_64-x64-vc14-debug-dynamic:string.obj
 0003:00051620       $SG15145                   00000001400fa620     pjlib-x86_64-x64-vc14-debug-dynamic:string.obj
 0003:00051720       $SG15146                   00000001400fa720     pjlib-x86_64-x64-vc14-debug-dynamic:string.obj
 0003:00051730       $SG15407                   00000001400fa730     pjlib-x86_64-x64-vc14-debug-dynamic:string.obj
 0003:000517a8       $SG15408                   00000001400fa7a8     pjlib-x86_64-x64-vc14-debug-dynamic:string.obj
 0003:000517c0       $SG15414                   00000001400fa7c0     pjlib-x86_64-x64-vc14-debug-dynamic:string.obj
 0003:00051840       $SG15428                   00000001400fa840     pjlib-x86_64-x64-vc14-debug-dynamic:string.obj
 0003:000518c0       $SG15448                   00000001400fa8c0     pjlib-x86_64-x64-vc14-debug-dynamic:string.obj
 0003:00051940       $SG15470                   00000001400fa940     pjlib-x86_64-x64-vc14-debug-dynamic:string.obj
 0003:000519b8       $SG15477                   00000001400fa9b8     pjlib-x86_64-x64-vc14-debug-dynamic:string.obj
 0003:000519d0       $SG15478                   00000001400fa9d0     pjlib-x86_64-x64-vc14-debug-dynamic:string.obj
 0003:00051ac0       $SG15479                   00000001400faac0     pjlib-x86_64-x64-vc14-debug-dynamic:string.obj
 0003:00051af0       $SG15504                   00000001400faaf0     pjlib-x86_64-x64-vc14-debug-dynamic:string.obj
 0003:00051b68       $SG15521                   00000001400fab68     pjlib-x86_64-x64-vc14-debug-dynamic:string.obj
 0003:00051b80       $SG15522                   00000001400fab80     pjlib-x86_64-x64-vc14-debug-dynamic:string.obj
 0003:00051c70       $SG15523                   00000001400fac70     pjlib-x86_64-x64-vc14-debug-dynamic:string.obj
 0003:00051ca0       $SG15577                   00000001400faca0     pjlib-x86_64-x64-vc14-debug-dynamic:string.obj
 0003:00051ec0       $SG13893                   00000001400faec0     pjlib-x86_64-x64-vc14-debug-dynamic:array.obj
 0003:00051fb0       $SG13894                   00000001400fafb0     pjlib-x86_64-x64-vc14-debug-dynamic:array.obj
 0003:00052000       $SG14389                   00000001400fb000     pjlib-x86_64-x64-vc14-debug-dynamic:log.obj
 0003:00052008       $SG14390                   00000001400fb008     pjlib-x86_64-x64-vc14-debug-dynamic:log.obj
 0003:00052010       $SG14391                   00000001400fb010     pjlib-x86_64-x64-vc14-debug-dynamic:log.obj
 0003:00052018       $SG14392                   00000001400fb018     pjlib-x86_64-x64-vc14-debug-dynamic:log.obj
 0003:00052020       $SG14393                   00000001400fb020     pjlib-x86_64-x64-vc14-debug-dynamic:log.obj
 0003:00052028       $SG14394                   00000001400fb028     pjlib-x86_64-x64-vc14-debug-dynamic:log.obj
 0003:00052030       $SG14395                   00000001400fb030     pjlib-x86_64-x64-vc14-debug-dynamic:log.obj
 0003:00052038       $SG14397                   00000001400fb038     pjlib-x86_64-x64-vc14-debug-dynamic:log.obj
 0003:0005203c       $SG14398                   00000001400fb03c     pjlib-x86_64-x64-vc14-debug-dynamic:log.obj
 0003:00052040       $SG14399                   00000001400fb040     pjlib-x86_64-x64-vc14-debug-dynamic:log.obj
 0003:00052044       $SG14400                   00000001400fb044     pjlib-x86_64-x64-vc14-debug-dynamic:log.obj
 0003:00052048       $SG14401                   00000001400fb048     pjlib-x86_64-x64-vc14-debug-dynamic:log.obj
 0003:0005204c       $SG14402                   00000001400fb04c     pjlib-x86_64-x64-vc14-debug-dynamic:log.obj
 0003:00052050       $SG14403                   00000001400fb050     pjlib-x86_64-x64-vc14-debug-dynamic:log.obj
 0003:00052054       pj_log_max_level           00000001400fb054     pjlib-x86_64-x64-vc14-debug-dynamic:log.obj
 0003:00052058       thread_suspended_tls_id    00000001400fb058     pjlib-x86_64-x64-vc14-debug-dynamic:log.obj
 0003:0005205c       thread_indent_tls_id       00000001400fb05c     pjlib-x86_64-x64-vc14-debug-dynamic:log.obj
 0003:00052060       log_writer                 00000001400fb060     pjlib-x86_64-x64-vc14-debug-dynamic:log.obj
 0003:00052068       log_decor                  00000001400fb068     pjlib-x86_64-x64-vc14-debug-dynamic:log.obj
 0003:0005206c       PJ_LOG_COLOR_0             00000001400fb06c     pjlib-x86_64-x64-vc14-debug-dynamic:log.obj
 0003:00052070       PJ_LOG_COLOR_1             00000001400fb070     pjlib-x86_64-x64-vc14-debug-dynamic:log.obj
 0003:00052074       PJ_LOG_COLOR_2             00000001400fb074     pjlib-x86_64-x64-vc14-debug-dynamic:log.obj
 0003:00052078       PJ_LOG_COLOR_3             00000001400fb078     pjlib-x86_64-x64-vc14-debug-dynamic:log.obj
 0003:0005207c       PJ_LOG_COLOR_4             00000001400fb07c     pjlib-x86_64-x64-vc14-debug-dynamic:log.obj
 0003:00052080       PJ_LOG_COLOR_5             00000001400fb080     pjlib-x86_64-x64-vc14-debug-dynamic:log.obj
 0003:00052084       PJ_LOG_COLOR_6             00000001400fb084     pjlib-x86_64-x64-vc14-debug-dynamic:log.obj
 0003:00052088       PJ_LOG_COLOR_77            00000001400fb088     pjlib-x86_64-x64-vc14-debug-dynamic:log.obj
 0003:00052090       ?ltexts@?2??pj_log@@9@9    00000001400fb090     pjlib-x86_64-x64-vc14-debug-dynamic:log.obj
 0003:000520c8       ?wdays@?3??pj_log@@9@9     00000001400fb0c8     pjlib-x86_64-x64-vc14-debug-dynamic:log.obj
 0003:00052100       $SG14385                   00000001400fb100     pjlib-x86_64-x64-vc14-debug-dynamic:log.obj
 0003:00052178       $SG14427                   00000001400fb178     pjlib-x86_64-x64-vc14-debug-dynamic:log.obj
 0003:000521f0       $SG60234                   00000001400fb1f0     pjlib-x86_64-x64-vc14-debug-dynamic:sock_bsd.obj
 0003:000522e8       $SG60235                   00000001400fb2e8     pjlib-x86_64-x64-vc14-debug-dynamic:sock_bsd.obj
 0003:00052318       $SG60274                   00000001400fb318     pjlib-x86_64-x64-vc14-debug-dynamic:sock_bsd.obj
 0003:00052348       $SG60283                   00000001400fb348     pjlib-x86_64-x64-vc14-debug-dynamic:sock_bsd.obj
 0003:00052360       $SG60269                   00000001400fb360     pjlib-x86_64-x64-vc14-debug-dynamic:sock_bsd.obj
 0003:00052458       $SG60285                   00000001400fb458     pjlib-x86_64-x64-vc14-debug-dynamic:sock_bsd.obj
 0003:00052480       $SG60270                   00000001400fb480     pjlib-x86_64-x64-vc14-debug-dynamic:sock_bsd.obj
 0003:000524c8       $SG60320                   00000001400fb4c8     pjlib-x86_64-x64-vc14-debug-dynamic:sock_bsd.obj
 0003:000524f0       $SG60273                   00000001400fb4f0     pjlib-x86_64-x64-vc14-debug-dynamic:sock_bsd.obj
 0003:000525e8       $SG60330                   00000001400fb5e8     pjlib-x86_64-x64-vc14-debug-dynamic:sock_bsd.obj
 0003:00052608       $SG60332                   00000001400fb608     pjlib-x86_64-x64-vc14-debug-dynamic:sock_bsd.obj
 0003:00052648       $SG60382                   00000001400fb648     pjlib-x86_64-x64-vc14-debug-dynamic:sock_bsd.obj
 0003:00052670       $SG60284                   00000001400fb670     pjlib-x86_64-x64-vc14-debug-dynamic:sock_bsd.obj
 0003:00052768       $SG60471                   00000001400fb768     pjlib-x86_64-x64-vc14-debug-dynamic:sock_bsd.obj
 0003:00052770       $SG60319                   00000001400fb770     pjlib-x86_64-x64-vc14-debug-dynamic:sock_bsd.obj
 0003:00052868       $SG60498                   00000001400fb868     pjlib-x86_64-x64-vc14-debug-dynamic:sock_bsd.obj
 0003:00052870       $SG60322                   00000001400fb870     pjlib-x86_64-x64-vc14-debug-dynamic:sock_bsd.obj
 0003:00052968       $SG60521                   00000001400fb968     pjlib-x86_64-x64-vc14-debug-dynamic:sock_bsd.obj
 0003:00052980       $SG60323                   00000001400fb980     pjlib-x86_64-x64-vc14-debug-dynamic:sock_bsd.obj
 0003:000529c8       $SG60550                   00000001400fb9c8     pjlib-x86_64-x64-vc14-debug-dynamic:sock_bsd.obj
 0003:000529e0       $SG60331                   00000001400fb9e0     pjlib-x86_64-x64-vc14-debug-dynamic:sock_bsd.obj
 0003:00052ad8       $SG60576                   00000001400fbad8     pjlib-x86_64-x64-vc14-debug-dynamic:sock_bsd.obj
 0003:00052b00       $SG60342                   00000001400fbb00     pjlib-x86_64-x64-vc14-debug-dynamic:sock_bsd.obj
 0003:00052b80       $SG60379                   00000001400fbb80     pjlib-x86_64-x64-vc14-debug-dynamic:sock_bsd.obj
 0003:00052c00       $SG60381                   00000001400fbc00     pjlib-x86_64-x64-vc14-debug-dynamic:sock_bsd.obj
 0003:00052cf8       $SG60620                   00000001400fbcf8     pjlib-x86_64-x64-vc14-debug-dynamic:sock_bsd.obj
 0003:00052d08       $SG60622                   00000001400fbd08     pjlib-x86_64-x64-vc14-debug-dynamic:sock_bsd.obj
 0003:00052d30       $SG60404                   00000001400fbd30     pjlib-x86_64-x64-vc14-debug-dynamic:sock_bsd.obj
 0003:00052db0       $SG60407                   00000001400fbdb0     pjlib-x86_64-x64-vc14-debug-dynamic:sock_bsd.obj
 0003:00052ea8       $SG60623                   00000001400fbea8     pjlib-x86_64-x64-vc14-debug-dynamic:sock_bsd.obj
 0003:00052eb8       $SG60672                   00000001400fbeb8     pjlib-x86_64-x64-vc14-debug-dynamic:sock_bsd.obj
 0003:00052ef0       $SG60408                   00000001400fbef0     pjlib-x86_64-x64-vc14-debug-dynamic:sock_bsd.obj
 0003:00052f50       $SG60420                   00000001400fbf50     pjlib-x86_64-x64-vc14-debug-dynamic:sock_bsd.obj
 0003:00052fd0       $SG60425                   00000001400fbfd0     pjlib-x86_64-x64-vc14-debug-dynamic:sock_bsd.obj
 0003:00053050       $SG60437                   00000001400fc050     pjlib-x86_64-x64-vc14-debug-dynamic:sock_bsd.obj
 0003:000530d0       $SG60449                   00000001400fc0d0     pjlib-x86_64-x64-vc14-debug-dynamic:sock_bsd.obj
 0003:00053150       $SG60468                   00000001400fc150     pjlib-x86_64-x64-vc14-debug-dynamic:sock_bsd.obj
 0003:000531d0       $SG60470                   00000001400fc1d0     pjlib-x86_64-x64-vc14-debug-dynamic:sock_bsd.obj
 0003:000532d0       $SG60495                   00000001400fc2d0     pjlib-x86_64-x64-vc14-debug-dynamic:sock_bsd.obj
 0003:00053350       $SG60497                   00000001400fc350     pjlib-x86_64-x64-vc14-debug-dynamic:sock_bsd.obj
 0003:00053450       $SG60517                   00000001400fc450     pjlib-x86_64-x64-vc14-debug-dynamic:sock_bsd.obj
 0003:000534d0       $SG60520                   00000001400fc4d0     pjlib-x86_64-x64-vc14-debug-dynamic:sock_bsd.obj
 0003:000535d0       $SG60546                   00000001400fc5d0     pjlib-x86_64-x64-vc14-debug-dynamic:sock_bsd.obj
 0003:00053650       $SG60549                   00000001400fc650     pjlib-x86_64-x64-vc14-debug-dynamic:sock_bsd.obj
 0003:00053750       $SG60572                   00000001400fc750     pjlib-x86_64-x64-vc14-debug-dynamic:sock_bsd.obj
 0003:000537d0       $SG60575                   00000001400fc7d0     pjlib-x86_64-x64-vc14-debug-dynamic:sock_bsd.obj
 0003:000538d0       $SG60593                   00000001400fc8d0     pjlib-x86_64-x64-vc14-debug-dynamic:sock_bsd.obj
 0003:00053950       $SG60617                   00000001400fc950     pjlib-x86_64-x64-vc14-debug-dynamic:sock_bsd.obj
 0003:000539d0       $SG60619                   00000001400fc9d0     pjlib-x86_64-x64-vc14-debug-dynamic:sock_bsd.obj
 0003:00053ad0       $SG60632                   00000001400fcad0     pjlib-x86_64-x64-vc14-debug-dynamic:sock_bsd.obj
 0003:00053b50       $SG60640                   00000001400fcb50     pjlib-x86_64-x64-vc14-debug-dynamic:sock_bsd.obj
 0003:00053bd0       $SG60648                   00000001400fcbd0     pjlib-x86_64-x64-vc14-debug-dynamic:sock_bsd.obj
 0003:00053c50       $SG60669                   00000001400fcc50     pjlib-x86_64-x64-vc14-debug-dynamic:sock_bsd.obj
 0003:00053cd0       $SG60671                   00000001400fccd0     pjlib-x86_64-x64-vc14-debug-dynamic:sock_bsd.obj
 0003:00054360       mutex_lock_template        00000001400fd360     pjlib-x86_64-x64-vc14-debug-dynamic:lock.obj
 0003:00054388       null_lock_template         00000001400fd388     pjlib-x86_64-x64-vc14-debug-dynamic:lock.obj
 0003:000543b0       $SG14806                   00000001400fd3b0     pjlib-x86_64-x64-vc14-debug-dynamic:lock.obj
 0003:000544a0       $SG14807                   00000001400fd4a0     pjlib-x86_64-x64-vc14-debug-dynamic:lock.obj
 0003:000544c0       $SG14846                   00000001400fd4c0     pjlib-x86_64-x64-vc14-debug-dynamic:lock.obj
 0003:000545b0       $SG14847                   00000001400fd5b0     pjlib-x86_64-x64-vc14-debug-dynamic:lock.obj
 0003:000545c0       sem_lock_template          00000001400fd5c0     pjlib-x86_64-x64-vc14-debug-dynamic:lock.obj
 0003:000545e8       $SG14894                   00000001400fd5e8     pjlib-x86_64-x64-vc14-debug-dynamic:lock.obj
 0003:00054610       $SG14878                   00000001400fd610     pjlib-x86_64-x64-vc14-debug-dynamic:lock.obj
 0003:00054700       $SG14879                   00000001400fd700     pjlib-x86_64-x64-vc14-debug-dynamic:lock.obj
 0003:00054720       $SG14893                   00000001400fd720     pjlib-x86_64-x64-vc14-debug-dynamic:lock.obj
 0003:00054810       $SG14906                   00000001400fd810     pjlib-x86_64-x64-vc14-debug-dynamic:lock.obj
 0003:00054900       $SG14907                   00000001400fd900     pjlib-x86_64-x64-vc14-debug-dynamic:lock.obj
 0003:00054928       $SG14920                   00000001400fd928     pjlib-x86_64-x64-vc14-debug-dynamic:lock.obj
 0003:00054950       $SG14919                   00000001400fd950     pjlib-x86_64-x64-vc14-debug-dynamic:lock.obj
 0003:00054a40       $SG14932                   00000001400fda40     pjlib-x86_64-x64-vc14-debug-dynamic:lock.obj
 0003:00054b30       $SG14933                   00000001400fdb30     pjlib-x86_64-x64-vc14-debug-dynamic:lock.obj
 0003:00054b58       $SG15088                   00000001400fdb58     pjlib-x86_64-x64-vc14-debug-dynamic:lock.obj
 0003:00054b80       $SG14966                   00000001400fdb80     pjlib-x86_64-x64-vc14-debug-dynamic:lock.obj
 0003:00054c70       $SG14967                   00000001400fdc70     pjlib-x86_64-x64-vc14-debug-dynamic:lock.obj
 0003:00054cb4       $SG15089                   00000001400fdcb4     pjlib-x86_64-x64-vc14-debug-dynamic:lock.obj
 0003:00054cc0       $SG14977                   00000001400fdcc0     pjlib-x86_64-x64-vc14-debug-dynamic:lock.obj
 0003:00054db0       $SG14978                   00000001400fddb0     pjlib-x86_64-x64-vc14-debug-dynamic:lock.obj
 0003:00054df8       $SG15169                   00000001400fddf8     pjlib-x86_64-x64-vc14-debug-dynamic:lock.obj
 0003:00054e08       $SG15219                   00000001400fde08     pjlib-x86_64-x64-vc14-debug-dynamic:lock.obj
 0003:00054e10       $SG14979                   00000001400fde10     pjlib-x86_64-x64-vc14-debug-dynamic:lock.obj
 0003:00054f00       $SG14980                   00000001400fdf00     pjlib-x86_64-x64-vc14-debug-dynamic:lock.obj
 0003:00054f30       $SG14993                   00000001400fdf30     pjlib-x86_64-x64-vc14-debug-dynamic:lock.obj
 0003:00055020       $SG14994                   00000001400fe020     pjlib-x86_64-x64-vc14-debug-dynamic:lock.obj
 0003:00055070       $SG15009                   00000001400fe070     pjlib-x86_64-x64-vc14-debug-dynamic:lock.obj
 0003:00055160       $SG15010                   00000001400fe160     pjlib-x86_64-x64-vc14-debug-dynamic:lock.obj
 0003:000551b0       $SG15087                   00000001400fe1b0     pjlib-x86_64-x64-vc14-debug-dynamic:lock.obj
 0003:000552a0       $SG15168                   00000001400fe2a0     pjlib-x86_64-x64-vc14-debug-dynamic:lock.obj
 0003:00055390       $SG15218                   00000001400fe390     pjlib-x86_64-x64-vc14-debug-dynamic:lock.obj
 0003:000556f0       $SG9824                    00000001400fe6f0     pjlib-x86_64-x64-vc14-debug-dynamic:rand.obj
 0003:00055770       $SG9827                    00000001400fe770     pjlib-x86_64-x64-vc14-debug-dynamic:rand.obj
 0003:00055820       $SG8212                    00000001400fe820     pjlib-x86_64-x64-vc14-debug-dynamic:types.obj
 0003:000558b0       $SG14939                   00000001400fe8b0     pjlib-x86_64-x64-vc14-debug-dynamic:timer.obj
 0003:00055930       $SG14945                   00000001400fe930     pjlib-x86_64-x64-vc14-debug-dynamic:timer.obj
 0003:000559a8       $SG15004                   00000001400fe9a8     pjlib-x86_64-x64-vc14-debug-dynamic:timer.obj
 0003:000559b0       $SG14952                   00000001400fe9b0     pjlib-x86_64-x64-vc14-debug-dynamic:timer.obj
 0003:00055a28       $SG15165                   00000001400fea28     pjlib-x86_64-x64-vc14-debug-dynamic:timer.obj
 0003:00055a40       $SG14965                   00000001400fea40     pjlib-x86_64-x64-vc14-debug-dynamic:timer.obj
 0003:00055ab8       $SG15214                   00000001400feab8     pjlib-x86_64-x64-vc14-debug-dynamic:timer.obj
 0003:00055af0       $SG15003                   00000001400feaf0     pjlib-x86_64-x64-vc14-debug-dynamic:timer.obj
 0003:00055b58       $SG15129                   00000001400feb58     pjlib-x86_64-x64-vc14-debug-dynamic:timer.obj
 0003:00055b78       $SG15218                   00000001400feb78     pjlib-x86_64-x64-vc14-debug-dynamic:timer.obj
 0003:00055b80       $SG15044                   00000001400feb80     pjlib-x86_64-x64-vc14-debug-dynamic:timer.obj
 0003:00055c70       $SG15045                   00000001400fec70     pjlib-x86_64-x64-vc14-debug-dynamic:timer.obj
 0003:00055cb8       $SG15270                   00000001400fecb8     pjlib-x86_64-x64-vc14-debug-dynamic:timer.obj
 0003:00055cd0       $SG15081                   00000001400fecd0     pjlib-x86_64-x64-vc14-debug-dynamic:timer.obj
 0003:00055d48       $SG15315                   00000001400fed48     pjlib-x86_64-x64-vc14-debug-dynamic:timer.obj
 0003:00055d50       $SG15088                   00000001400fed50     pjlib-x86_64-x64-vc14-debug-dynamic:timer.obj
 0003:00055e40       $SG15089                   00000001400fee40     pjlib-x86_64-x64-vc14-debug-dynamic:timer.obj
 0003:00055e94       $SG15342                   00000001400fee94     pjlib-x86_64-x64-vc14-debug-dynamic:timer.obj
 0003:00055ea0       $SG15128                   00000001400feea0     pjlib-x86_64-x64-vc14-debug-dynamic:timer.obj
 0003:00055f90       $SG15164                   00000001400fef90     pjlib-x86_64-x64-vc14-debug-dynamic:timer.obj
 0003:00056080       $SG15210                   00000001400ff080     pjlib-x86_64-x64-vc14-debug-dynamic:timer.obj
 0003:00056170       $SG15211                   00000001400ff170     pjlib-x86_64-x64-vc14-debug-dynamic:timer.obj
 0003:000561a0       $SG15213                   00000001400ff1a0     pjlib-x86_64-x64-vc14-debug-dynamic:timer.obj
 0003:00056290       $SG15217                   00000001400ff290     pjlib-x86_64-x64-vc14-debug-dynamic:timer.obj
 0003:000562c0       $SG15269                   00000001400ff2c0     pjlib-x86_64-x64-vc14-debug-dynamic:timer.obj
 0003:000563b0       $SG15314                   00000001400ff3b0     pjlib-x86_64-x64-vc14-debug-dynamic:timer.obj
 0003:000564a0       $SG15322                   00000001400ff4a0     pjlib-x86_64-x64-vc14-debug-dynamic:timer.obj
 0003:000564f8       $SG15323                   00000001400ff4f8     pjlib-x86_64-x64-vc14-debug-dynamic:timer.obj
 0003:00056500       $SG15341                   00000001400ff500     pjlib-x86_64-x64-vc14-debug-dynamic:timer.obj
 0003:000565f0       $SG15350                   00000001400ff5f0     pjlib-x86_64-x64-vc14-debug-dynamic:timer.obj
 0003:000566e0       $SG15351                   00000001400ff6e0     pjlib-x86_64-x64-vc14-debug-dynamic:timer.obj
 0003:00056708       $SG15390                   00000001400ff708     pjlib-x86_64-x64-vc14-debug-dynamic:timer.obj
 0003:00056720       $SG15391                   00000001400ff720     pjlib-x86_64-x64-vc14-debug-dynamic:timer.obj
 0003:00056728       $SG15393                   00000001400ff728     pjlib-x86_64-x64-vc14-debug-dynamic:timer.obj
 0003:00056748       $SG15394                   00000001400ff748     pjlib-x86_64-x64-vc14-debug-dynamic:timer.obj
 0003:00056750       $SG15397                   00000001400ff750     pjlib-x86_64-x64-vc14-debug-dynamic:timer.obj
 0003:00056760       $SG15398                   00000001400ff760     pjlib-x86_64-x64-vc14-debug-dynamic:timer.obj
 0003:00056768       $SG15400                   00000001400ff768     pjlib-x86_64-x64-vc14-debug-dynamic:timer.obj
 0003:00056788       $SG15401                   00000001400ff788     pjlib-x86_64-x64-vc14-debug-dynamic:timer.obj
 0003:00056790       $SG15403                   00000001400ff790     pjlib-x86_64-x64-vc14-debug-dynamic:timer.obj
 0003:000567b8       $SG15404                   00000001400ff7b8     pjlib-x86_64-x64-vc14-debug-dynamic:timer.obj
 0003:000567c0       $SG15409                   00000001400ff7c0     pjlib-x86_64-x64-vc14-debug-dynamic:timer.obj
 0003:000567d8       $SG15410                   00000001400ff7d8     pjlib-x86_64-x64-vc14-debug-dynamic:timer.obj
 0003:00056af0       $SG61111                   00000001400ffaf0     pjlib-x86_64-x64-vc14-debug-dynamic:ioqueue_select.obj
 0003:00056bf8       $SG61112                   00000001400ffbf8     pjlib-x86_64-x64-vc14-debug-dynamic:ioqueue_select.obj
 0003:00056c18       $SG61137                   00000001400ffc18     pjlib-x86_64-x64-vc14-debug-dynamic:ioqueue_select.obj
 0003:00056c40       $SG61136                   00000001400ffc40     pjlib-x86_64-x64-vc14-debug-dynamic:ioqueue_select.obj
 0003:00056d48       $SG61154                   00000001400ffd48     pjlib-x86_64-x64-vc14-debug-dynamic:ioqueue_select.obj
 0003:00056d70       $SG61153                   00000001400ffd70     pjlib-x86_64-x64-vc14-debug-dynamic:ioqueue_select.obj
 0003:00056e78       $SG61169                   00000001400ffe78     pjlib-x86_64-x64-vc14-debug-dynamic:ioqueue_select.obj
 0003:00056e80       $SG61168                   00000001400ffe80     pjlib-x86_64-x64-vc14-debug-dynamic:ioqueue_select.obj
 0003:00056f88       $SG61231                   00000001400fff88     pjlib-x86_64-x64-vc14-debug-dynamic:ioqueue_select.obj
 0003:00056fa0       $SG61232                   00000001400fffa0     pjlib-x86_64-x64-vc14-debug-dynamic:ioqueue_select.obj
 0003:000570a8       $SG61233                   00000001401000a8     pjlib-x86_64-x64-vc14-debug-dynamic:ioqueue_select.obj
 0003:000570e0       $SG61236                   00000001401000e0     pjlib-x86_64-x64-vc14-debug-dynamic:ioqueue_select.obj
 0003:000571e8       $SG61237                   00000001401001e8     pjlib-x86_64-x64-vc14-debug-dynamic:ioqueue_select.obj
 0003:00057200       $SG61280                   0000000140100200     pjlib-x86_64-x64-vc14-debug-dynamic:ioqueue_select.obj
 0003:00057308       $SG61523                   0000000140100308     pjlib-x86_64-x64-vc14-debug-dynamic:ioqueue_select.obj
 0003:00057340       $SG61281                   0000000140100340     pjlib-x86_64-x64-vc14-debug-dynamic:ioqueue_select.obj
 0003:00057384       $SG61658                   0000000140100384     pjlib-x86_64-x64-vc14-debug-dynamic:ioqueue_select.obj
 0003:00057390       $SG61339                   0000000140100390     pjlib-x86_64-x64-vc14-debug-dynamic:ioqueue_select.obj
 0003:00057498       $SG61634                   0000000140100498     pjlib-x86_64-x64-vc14-debug-dynamic:ioqueue_select.obj
 0003:000574a0       $SG61340                   00000001401004a0     pjlib-x86_64-x64-vc14-debug-dynamic:ioqueue_select.obj
 0003:000574e4       $SG61717                   00000001401004e4     pjlib-x86_64-x64-vc14-debug-dynamic:ioqueue_select.obj
 0003:000574f0       $SG61341                   00000001401004f0     pjlib-x86_64-x64-vc14-debug-dynamic:ioqueue_select.obj
 0003:00057578       $SG61551                   0000000140100578     pjlib-x86_64-x64-vc14-debug-dynamic:ioqueue_select.obj
 0003:000575a8       $SG61637                   00000001401005a8     pjlib-x86_64-x64-vc14-debug-dynamic:ioqueue_select.obj
 0003:000575c0       $SG61344                   00000001401005c0     pjlib-x86_64-x64-vc14-debug-dynamic:ioqueue_select.obj
 0003:000576c8       $SG61721                   00000001401006c8     pjlib-x86_64-x64-vc14-debug-dynamic:ioqueue_select.obj
 0003:000576e8       $SG61722                   00000001401006e8     pjlib-x86_64-x64-vc14-debug-dynamic:ioqueue_select.obj
 0003:000576f0       $SG61345                   00000001401006f0     pjlib-x86_64-x64-vc14-debug-dynamic:ioqueue_select.obj
 0003:00057734       $SG61782                   0000000140100734     pjlib-x86_64-x64-vc14-debug-dynamic:ioqueue_select.obj
 0003:00057740       $SG61386                   0000000140100740     pjlib-x86_64-x64-vc14-debug-dynamic:ioqueue_select.obj
 0003:00057848       $SG61740                   0000000140100848     pjlib-x86_64-x64-vc14-debug-dynamic:ioqueue_select.obj
 0003:00057858       $SG61817                   0000000140100858     pjlib-x86_64-x64-vc14-debug-dynamic:ioqueue_select.obj
 0003:00057880       $SG61387                   0000000140100880     pjlib-x86_64-x64-vc14-debug-dynamic:ioqueue_select.obj
 0003:000578c4       $SG61871                   00000001401008c4     pjlib-x86_64-x64-vc14-debug-dynamic:ioqueue_select.obj
 0003:000578c8       $SG61839                   00000001401008c8     pjlib-x86_64-x64-vc14-debug-dynamic:ioqueue_select.obj
 0003:000578d0       $SG61388                   00000001401008d0     pjlib-x86_64-x64-vc14-debug-dynamic:ioqueue_select.obj
 0003:00057958       $SG61616                   0000000140100958     pjlib-x86_64-x64-vc14-debug-dynamic:ioqueue_select.obj
 0003:00057988       $SG61891                   0000000140100988     pjlib-x86_64-x64-vc14-debug-dynamic:ioqueue_select.obj
 0003:00057990       $SG61391                   0000000140100990     pjlib-x86_64-x64-vc14-debug-dynamic:ioqueue_select.obj
 0003:00057a98       $SG61903                   0000000140100a98     pjlib-x86_64-x64-vc14-debug-dynamic:ioqueue_select.obj
 0003:00057ab8       $SG61973                   0000000140100ab8     pjlib-x86_64-x64-vc14-debug-dynamic:ioqueue_select.obj
 0003:00057ae0       $SG61392                   0000000140100ae0     pjlib-x86_64-x64-vc14-debug-dynamic:ioqueue_select.obj
 0003:00057b30       $SG61427                   0000000140100b30     pjlib-x86_64-x64-vc14-debug-dynamic:ioqueue_select.obj
 0003:00057c40       $SG61428                   0000000140100c40     pjlib-x86_64-x64-vc14-debug-dynamic:ioqueue_select.obj
 0003:00057c80       $SG61429                   0000000140100c80     pjlib-x86_64-x64-vc14-debug-dynamic:ioqueue_select.obj
 0003:00057d10       $SG61481                   0000000140100d10     pjlib-x86_64-x64-vc14-debug-dynamic:ioqueue_select.obj
 0003:00057e20       $SG61482                   0000000140100e20     pjlib-x86_64-x64-vc14-debug-dynamic:ioqueue_select.obj
 0003:00057e60       $SG61483                   0000000140100e60     pjlib-x86_64-x64-vc14-debug-dynamic:ioqueue_select.obj
 0003:00057ef0       $SG61490                   0000000140100ef0     pjlib-x86_64-x64-vc14-debug-dynamic:ioqueue_select.obj
 0003:00058000       $SG61491                   0000000140101000     pjlib-x86_64-x64-vc14-debug-dynamic:ioqueue_select.obj
 0003:00058050       $SG61522                   0000000140101050     pjlib-x86_64-x64-vc14-debug-dynamic:ioqueue_select.obj
 0003:00058160       $SG61526                   0000000140101160     pjlib-x86_64-x64-vc14-debug-dynamic:ioqueue_select.obj
 0003:00058270       $SG61527                   0000000140101270     pjlib-x86_64-x64-vc14-debug-dynamic:ioqueue_select.obj
 0003:000582c0       $SG61550                   00000001401012c0     pjlib-x86_64-x64-vc14-debug-dynamic:ioqueue_select.obj
 0003:000583d0       $SG61615                   00000001401013d0     pjlib-x86_64-x64-vc14-debug-dynamic:ioqueue_select.obj
 0003:000584e0       $SG61633                   00000001401014e0     pjlib-x86_64-x64-vc14-debug-dynamic:ioqueue_select.obj
 0003:000585f0       $SG61636                   00000001401015f0     pjlib-x86_64-x64-vc14-debug-dynamic:ioqueue_select.obj
 0003:00058700       $SG61712                   0000000140101700     pjlib-x86_64-x64-vc14-debug-dynamic:ioqueue_select.obj
 0003:00058800       $SG61713                   0000000140101800     pjlib-x86_64-x64-vc14-debug-dynamic:ioqueue_select.obj
 0003:000588a0       $SG61739                   00000001401018a0     pjlib-x86_64-x64-vc14-debug-dynamic:ioqueue_select.obj
 0003:000589a0       $SG61777                   00000001401019a0     pjlib-x86_64-x64-vc14-debug-dynamic:ioqueue_select.obj
 0003:00058aa0       $SG61778                   0000000140101aa0     pjlib-x86_64-x64-vc14-debug-dynamic:ioqueue_select.obj
 0003:00058b00       $SG61781                   0000000140101b00     pjlib-x86_64-x64-vc14-debug-dynamic:ioqueue_select.obj
 0003:00058b60       $SG61784                   0000000140101b60     pjlib-x86_64-x64-vc14-debug-dynamic:ioqueue_select.obj
 0003:00058c60       $SG61785                   0000000140101c60     pjlib-x86_64-x64-vc14-debug-dynamic:ioqueue_select.obj
 0003:00058cb0       $SG61816                   0000000140101cb0     pjlib-x86_64-x64-vc14-debug-dynamic:ioqueue_select.obj
 0003:00058db0       $SG61838                   0000000140101db0     pjlib-x86_64-x64-vc14-debug-dynamic:ioqueue_select.obj
 0003:00058eb0       $SG61843                   0000000140101eb0     pjlib-x86_64-x64-vc14-debug-dynamic:ioqueue_select.obj
 0003:00058ee0       $SG61844                   0000000140101ee0     pjlib-x86_64-x64-vc14-debug-dynamic:ioqueue_select.obj
 0003:00058fe0       $SG61845                   0000000140101fe0     pjlib-x86_64-x64-vc14-debug-dynamic:ioqueue_select.obj
 0003:00059038       $SG61847                   0000000140102038     pjlib-x86_64-x64-vc14-debug-dynamic:ioqueue_select.obj
 0003:00059068       $SG61848                   0000000140102068     pjlib-x86_64-x64-vc14-debug-dynamic:ioqueue_select.obj
 0003:00059080       $SG61870                   0000000140102080     pjlib-x86_64-x64-vc14-debug-dynamic:ioqueue_select.obj
 0003:00059180       $SG61890                   0000000140102180     pjlib-x86_64-x64-vc14-debug-dynamic:ioqueue_select.obj
 0003:00059280       $SG61902                   0000000140102280     pjlib-x86_64-x64-vc14-debug-dynamic:ioqueue_select.obj
 0003:00059380       $SG61949                   0000000140102380     pjlib-x86_64-x64-vc14-debug-dynamic:ioqueue_select.obj
 0003:00059480       $SG61950                   0000000140102480     pjlib-x86_64-x64-vc14-debug-dynamic:ioqueue_select.obj
 0003:00059490       $SG61971                   0000000140102490     pjlib-x86_64-x64-vc14-debug-dynamic:ioqueue_select.obj
 0003:000594a0       $SG61972                   00000001401024a0     pjlib-x86_64-x64-vc14-debug-dynamic:ioqueue_select.obj
 0003:00059e30       thread_local_id            0000000140102e30     pjlib-x86_64-x64-vc14-debug-dynamic:except.obj
 0003:00059e38       $SG14453                   0000000140102e38     pjlib-x86_64-x64-vc14-debug-dynamic:except.obj
 0003:00059e60       $SG14454                   0000000140102e60     pjlib-x86_64-x64-vc14-debug-dynamic:except.obj
 0003:00059e70       $SG14455                   0000000140102e70     pjlib-x86_64-x64-vc14-debug-dynamic:except.obj
 0003:00059f60       $SG14456                   0000000140102f60     pjlib-x86_64-x64-vc14-debug-dynamic:except.obj
 0003:00059f90       $SG14475                   0000000140102f90     pjlib-x86_64-x64-vc14-debug-dynamic:except.obj
 0003:0005a080       $SG14476                   0000000140103080     pjlib-x86_64-x64-vc14-debug-dynamic:except.obj
 0003:0005a0b0       $SG14505                   00000001401030b0     pjlib-x86_64-x64-vc14-debug-dynamic:except.obj
 0003:0005a1a0       $SG14506                   00000001401031a0     pjlib-x86_64-x64-vc14-debug-dynamic:except.obj
 0003:0005a1c0       $SG14520                   00000001401031c0     pjlib-x86_64-x64-vc14-debug-dynamic:except.obj
 0003:0005a2b0       $SG14521                   00000001401032b0     pjlib-x86_64-x64-vc14-debug-dynamic:except.obj
 0003:0005a2d0       $SG14522                   00000001401032d0     pjlib-x86_64-x64-vc14-debug-dynamic:except.obj
 0003:0005a2e0       $SG14524                   00000001401032e0     pjlib-x86_64-x64-vc14-debug-dynamic:except.obj
 0003:0005a3e0       $SG15162                   00000001401033e0     pjlib-x86_64-x64-vc14-debug-dynamic:hash.obj
 0003:0005a460       $SG15288                   0000000140103460     pjlib-x86_64-x64-vc14-debug-dynamic:hash.obj
 0003:0005a550       $SG15289                   0000000140103550     pjlib-x86_64-x64-vc14-debug-dynamic:hash.obj
 0003:0005a580       $SG15441                   0000000140103580     pjlib-x86_64-x64-vc14-debug-dynamic:hash.obj
 0003:0005a660       $SG58824                   0000000140103660     pjlib-x86_64-x64-vc14-debug-dynamic:os_error_win32.obj
 0003:0005a688       $SG58825                   0000000140103688     pjlib-x86_64-x64-vc14-debug-dynamic:os_error_win32.obj
 0003:0005a6a8       $SG58826                   00000001401036a8     pjlib-x86_64-x64-vc14-debug-dynamic:os_error_win32.obj
 0003:0005a6c8       $SG58827                   00000001401036c8     pjlib-x86_64-x64-vc14-debug-dynamic:os_error_win32.obj
 0003:0005a6e0       $SG58828                   00000001401036e0     pjlib-x86_64-x64-vc14-debug-dynamic:os_error_win32.obj
 0003:0005a700       $SG58829                   0000000140103700     pjlib-x86_64-x64-vc14-debug-dynamic:os_error_win32.obj
 0003:0005a728       $SG58830                   0000000140103728     pjlib-x86_64-x64-vc14-debug-dynamic:os_error_win32.obj
 0003:0005a750       $SG58831                   0000000140103750     pjlib-x86_64-x64-vc14-debug-dynamic:os_error_win32.obj
 0003:0005a780       $SG58832                   0000000140103780     pjlib-x86_64-x64-vc14-debug-dynamic:os_error_win32.obj
 0003:0005a7b0       $SG58833                   00000001401037b0     pjlib-x86_64-x64-vc14-debug-dynamic:os_error_win32.obj
 0003:0005a7e0       $SG58834                   00000001401037e0     pjlib-x86_64-x64-vc14-debug-dynamic:os_error_win32.obj
 0003:0005a810       $SG58835                   0000000140103810     pjlib-x86_64-x64-vc14-debug-dynamic:os_error_win32.obj
 0003:0005a830       $SG58836                   0000000140103830     pjlib-x86_64-x64-vc14-debug-dynamic:os_error_win32.obj
 0003:0005a860       $SG58837                   0000000140103860     pjlib-x86_64-x64-vc14-debug-dynamic:os_error_win32.obj
 0003:0005a888       $SG58838                   0000000140103888     pjlib-x86_64-x64-vc14-debug-dynamic:os_error_win32.obj
 0003:0005a8b8       $SG58839                   00000001401038b8     pjlib-x86_64-x64-vc14-debug-dynamic:os_error_win32.obj
 0003:0005a8e8       $SG58840                   00000001401038e8     pjlib-x86_64-x64-vc14-debug-dynamic:os_error_win32.obj
 0003:0005a920       $SG58841                   0000000140103920     pjlib-x86_64-x64-vc14-debug-dynamic:os_error_win32.obj
 0003:0005a950       $SG58842                   0000000140103950     pjlib-x86_64-x64-vc14-debug-dynamic:os_error_win32.obj
 0003:0005a980       $SG58843                   0000000140103980     pjlib-x86_64-x64-vc14-debug-dynamic:os_error_win32.obj
 0003:0005a9a8       $SG58844                   00000001401039a8     pjlib-x86_64-x64-vc14-debug-dynamic:os_error_win32.obj
 0003:0005a9e0       $SG58845                   00000001401039e0     pjlib-x86_64-x64-vc14-debug-dynamic:os_error_win32.obj
 0003:0005aa00       $SG58846                   0000000140103a00     pjlib-x86_64-x64-vc14-debug-dynamic:os_error_win32.obj
 0003:0005aa28       $SG58847                   0000000140103a28     pjlib-x86_64-x64-vc14-debug-dynamic:os_error_win32.obj
 0003:0005aa50       $SG58848                   0000000140103a50     pjlib-x86_64-x64-vc14-debug-dynamic:os_error_win32.obj
 0003:0005aa88       $SG58849                   0000000140103a88     pjlib-x86_64-x64-vc14-debug-dynamic:os_error_win32.obj
 0003:0005aab8       $SG58850                   0000000140103ab8     pjlib-x86_64-x64-vc14-debug-dynamic:os_error_win32.obj
 0003:0005aae0       $SG58851                   0000000140103ae0     pjlib-x86_64-x64-vc14-debug-dynamic:os_error_win32.obj
 0003:0005ab10       $SG58852                   0000000140103b10     pjlib-x86_64-x64-vc14-debug-dynamic:os_error_win32.obj
 0003:0005ab38       $SG58853                   0000000140103b38     pjlib-x86_64-x64-vc14-debug-dynamic:os_error_win32.obj
 0003:0005ab68       $SG58854                   0000000140103b68     pjlib-x86_64-x64-vc14-debug-dynamic:os_error_win32.obj
 0003:0005aba0       $SG58855                   0000000140103ba0     pjlib-x86_64-x64-vc14-debug-dynamic:os_error_win32.obj
 0003:0005abc8       $SG58856                   0000000140103bc8     pjlib-x86_64-x64-vc14-debug-dynamic:os_error_win32.obj
 0003:0005abf0       $SG58857                   0000000140103bf0     pjlib-x86_64-x64-vc14-debug-dynamic:os_error_win32.obj
 0003:0005ac20       $SG58858                   0000000140103c20     pjlib-x86_64-x64-vc14-debug-dynamic:os_error_win32.obj
 0003:0005ac48       $SG58859                   0000000140103c48     pjlib-x86_64-x64-vc14-debug-dynamic:os_error_win32.obj
 0003:0005ac68       $SG58860                   0000000140103c68     pjlib-x86_64-x64-vc14-debug-dynamic:os_error_win32.obj
 0003:0005ac90       $SG58861                   0000000140103c90     pjlib-x86_64-x64-vc14-debug-dynamic:os_error_win32.obj
 0003:0005acb8       $SG58862                   0000000140103cb8     pjlib-x86_64-x64-vc14-debug-dynamic:os_error_win32.obj
 0003:0005ace0       $SG58863                   0000000140103ce0     pjlib-x86_64-x64-vc14-debug-dynamic:os_error_win32.obj
 0003:0005ad00       $SG58864                   0000000140103d00     pjlib-x86_64-x64-vc14-debug-dynamic:os_error_win32.obj
 0003:0005ad20       $SG58865                   0000000140103d20     pjlib-x86_64-x64-vc14-debug-dynamic:os_error_win32.obj
 0003:0005ad48       $SG58866                   0000000140103d48     pjlib-x86_64-x64-vc14-debug-dynamic:os_error_win32.obj
 0003:0005ad78       $SG58867                   0000000140103d78     pjlib-x86_64-x64-vc14-debug-dynamic:os_error_win32.obj
 0003:0005ada8       $SG58868                   0000000140103da8     pjlib-x86_64-x64-vc14-debug-dynamic:os_error_win32.obj
 0003:0005ade0       $SG58869                   0000000140103de0     pjlib-x86_64-x64-vc14-debug-dynamic:os_error_win32.obj
 0003:0005ae10       $SG58870                   0000000140103e10     pjlib-x86_64-x64-vc14-debug-dynamic:os_error_win32.obj
 0003:0005ae40       $SG58871                   0000000140103e40     pjlib-x86_64-x64-vc14-debug-dynamic:os_error_win32.obj
 0003:0005ae68       $SG58872                   0000000140103e68     pjlib-x86_64-x64-vc14-debug-dynamic:os_error_win32.obj
 0003:0005aea0       $SG58912                   0000000140103ea0     pjlib-x86_64-x64-vc14-debug-dynamic:os_error_win32.obj
 0003:0005afa0       $SG58913                   0000000140103fa0     pjlib-x86_64-x64-vc14-debug-dynamic:os_error_win32.obj
 0003:0005afd0       $SG58914                   0000000140103fd0     pjlib-x86_64-x64-vc14-debug-dynamic:os_error_win32.obj
 0003:0005b0d0       $SG58915                   00000001401040d0     pjlib-x86_64-x64-vc14-debug-dynamic:os_error_win32.obj
 0003:0005b0f0       $SG58923                   00000001401040f0     pjlib-x86_64-x64-vc14-debug-dynamic:os_error_win32.obj
 0003:0005b330       ?hex@?1??hex2digit@@9@9    0000000140104330     pjlib-x86_64-x64-vc14-debug-dynamic:guid_win32.obj
 0003:0005b340       $SG90277                   0000000140104340     pjlib-x86_64-x64-vc14-debug-dynamic:guid_win32.obj
 0003:0005b3e0       $SG14503                   00000001401043e0     pjlib-x86_64-x64-vc14-debug-dynamic:sock_qos_common.obj
 0003:0005b4e0       $SG14504                   00000001401044e0     pjlib-x86_64-x64-vc14-debug-dynamic:sock_qos_common.obj
 0003:0005b530       $SG14535                   0000000140104530     pjlib-x86_64-x64-vc14-debug-dynamic:sock_qos_common.obj
 0003:0005b630       $SG14536                   0000000140104630     pjlib-x86_64-x64-vc14-debug-dynamic:sock_qos_common.obj
 0003:0005b650       $SG14561                   0000000140104650     pjlib-x86_64-x64-vc14-debug-dynamic:sock_qos_common.obj
 0003:0005b664       $SG14563                   0000000140104664     pjlib-x86_64-x64-vc14-debug-dynamic:sock_qos_common.obj
 0003:0005b670       $SG14566                   0000000140104670     pjlib-x86_64-x64-vc14-debug-dynamic:sock_qos_common.obj
 0003:0005b690       $SG14570                   0000000140104690     pjlib-x86_64-x64-vc14-debug-dynamic:sock_qos_common.obj
 0003:0005b750       $SG60621                   0000000140104750     pjlib-x86_64-x64-vc14-debug-dynamic:activesock.obj
 0003:0005b850       $SG60622                   0000000140104850     pjlib-x86_64-x64-vc14-debug-dynamic:activesock.obj
 0003:0005b898       $SG60626                   0000000140104898     pjlib-x86_64-x64-vc14-debug-dynamic:activesock.obj
 0003:0005b8d0       $SG60625                   00000001401048d0     pjlib-x86_64-x64-vc14-debug-dynamic:activesock.obj
 0003:0005b9d0       $SG60628                   00000001401049d0     pjlib-x86_64-x64-vc14-debug-dynamic:activesock.obj
 0003:0005bad0       $SG60629                   0000000140104ad0     pjlib-x86_64-x64-vc14-debug-dynamic:activesock.obj
 0003:0005bb40       $SG60631                   0000000140104b40     pjlib-x86_64-x64-vc14-debug-dynamic:activesock.obj
 0003:0005bc38       $SG60632                   0000000140104c38     pjlib-x86_64-x64-vc14-debug-dynamic:activesock.obj
 0003:0005bc70       $SG60679                   0000000140104c70     pjlib-x86_64-x64-vc14-debug-dynamic:activesock.obj
 0003:0005bd68       $SG60680                   0000000140104d68     pjlib-x86_64-x64-vc14-debug-dynamic:activesock.obj
 0003:0005bd80       $SG60694                   0000000140104d80     pjlib-x86_64-x64-vc14-debug-dynamic:activesock.obj
 0003:0005be78       $SG60695                   0000000140104e78     pjlib-x86_64-x64-vc14-debug-dynamic:activesock.obj
 0003:0005be90       $SG60706                   0000000140104e90     pjlib-x86_64-x64-vc14-debug-dynamic:activesock.obj
 0003:0005bf88       $SG60707                   0000000140104f88     pjlib-x86_64-x64-vc14-debug-dynamic:activesock.obj
 0003:0005bfa0       $SG60731                   0000000140104fa0     pjlib-x86_64-x64-vc14-debug-dynamic:activesock.obj
 0003:0005c098       $SG60732                   0000000140105098     pjlib-x86_64-x64-vc14-debug-dynamic:activesock.obj
 0003:0005c0d0       $SG60780                   00000001401050d0     pjlib-x86_64-x64-vc14-debug-dynamic:activesock.obj
 0003:0005c1c8       $SG60781                   00000001401051c8     pjlib-x86_64-x64-vc14-debug-dynamic:activesock.obj
 0003:0005c200       $SG60783                   0000000140105200     pjlib-x86_64-x64-vc14-debug-dynamic:activesock.obj
 0003:0005c2f8       $SG60784                   00000001401052f8     pjlib-x86_64-x64-vc14-debug-dynamic:activesock.obj
 0003:0005c340       $SG60786                   0000000140105340     pjlib-x86_64-x64-vc14-debug-dynamic:activesock.obj
 0003:0005c438       $SG60787                   0000000140105438     pjlib-x86_64-x64-vc14-debug-dynamic:activesock.obj
 0003:0005c480       $SG60789                   0000000140105480     pjlib-x86_64-x64-vc14-debug-dynamic:activesock.obj
 0003:0005c578       $SG60790                   0000000140105578     pjlib-x86_64-x64-vc14-debug-dynamic:activesock.obj
 0003:0005c5a8       $SG60816                   00000001401055a8     pjlib-x86_64-x64-vc14-debug-dynamic:activesock.obj
 0003:0005c5e0       $SG60815                   00000001401055e0     pjlib-x86_64-x64-vc14-debug-dynamic:activesock.obj
 0003:0005c6e0       $SG60857                   00000001401056e0     pjlib-x86_64-x64-vc14-debug-dynamic:activesock.obj
 0003:0005c7d8       $SG60858                   00000001401057d8     pjlib-x86_64-x64-vc14-debug-dynamic:activesock.obj
 0003:0005c810       $SG60860                   0000000140105810     pjlib-x86_64-x64-vc14-debug-dynamic:activesock.obj
 0003:0005c908       $SG60861                   0000000140105908     pjlib-x86_64-x64-vc14-debug-dynamic:activesock.obj
 0003:0005c950       $SG60863                   0000000140105950     pjlib-x86_64-x64-vc14-debug-dynamic:activesock.obj
 0003:0005ca48       $SG60864                   0000000140105a48     pjlib-x86_64-x64-vc14-debug-dynamic:activesock.obj
 0003:0005ca78       $SG61048                   0000000140105a78     pjlib-x86_64-x64-vc14-debug-dynamic:activesock.obj
 0003:0005ca90       $SG60959                   0000000140105a90     pjlib-x86_64-x64-vc14-debug-dynamic:activesock.obj
 0003:0005cb90       $SG60960                   0000000140105b90     pjlib-x86_64-x64-vc14-debug-dynamic:activesock.obj
 0003:0005cbe0       $SG60989                   0000000140105be0     pjlib-x86_64-x64-vc14-debug-dynamic:activesock.obj
 0003:0005cce0       $SG60990                   0000000140105ce0     pjlib-x86_64-x64-vc14-debug-dynamic:activesock.obj
 0003:0005cd50       $SG61047                   0000000140105d50     pjlib-x86_64-x64-vc14-debug-dynamic:activesock.obj
 0003:0005ce50       $SG61050                   0000000140105e50     pjlib-x86_64-x64-vc14-debug-dynamic:activesock.obj
 0003:0005cf48       $SG61051                   0000000140105f48     pjlib-x86_64-x64-vc14-debug-dynamic:activesock.obj
 0003:0005cf90       $SG61082                   0000000140105f90     pjlib-x86_64-x64-vc14-debug-dynamic:activesock.obj
 0003:0005d4e0       $SG59800                   00000001401064e0     pjlib-x86_64-x64-vc14-debug-dynamic:addr_resolv_sock.obj
 0003:0005d5f0       $SG59801                   00000001401065f0     pjlib-x86_64-x64-vc14-debug-dynamic:addr_resolv_sock.obj
 0003:0005d640       $SG59830                   0000000140106640     pjlib-x86_64-x64-vc14-debug-dynamic:addr_resolv_sock.obj
 0003:0005d748       $SG59831                   0000000140106748     pjlib-x86_64-x64-vc14-debug-dynamic:addr_resolv_sock.obj
 0003:0005d7f0       tls                        00000001401067f0     pjlib-x86_64-x64-vc14-debug-dynamic:pool_buf.obj
 0003:0005d800       $SG8543                    0000000140106800     pjlib-x86_64-x64-vc14-debug-dynamic:pool_buf.obj
 0003:0005d8f8       $SG8544                    00000001401068f8     pjlib-x86_64-x64-vc14-debug-dynamic:pool_buf.obj
 0003:0005d920       $SG8566                    0000000140106920     pjlib-x86_64-x64-vc14-debug-dynamic:pool_buf.obj
 0003:0005da18       $SG8567                    0000000140106a18     pjlib-x86_64-x64-vc14-debug-dynamic:pool_buf.obj
 0003:0005dab0       $SG8120                    0000000140106ab0     pjlib-x86_64-x64-vc14-debug-dynamic:config.obj
 0003:0005dabc       $SG8125                    0000000140106abc     pjlib-x86_64-x64-vc14-debug-dynamic:config.obj
 0003:0005dac8       id                         0000000140106ac8     pjlib-x86_64-x64-vc14-debug-dynamic:config.obj
 0003:0005dad0       $SG8233                    0000000140106ad0     pjlib-x86_64-x64-vc14-debug-dynamic:config.obj
 0003:0005daf0       $SG8235                    0000000140106af0     pjlib-x86_64-x64-vc14-debug-dynamic:config.obj
 0003:0005db08       $SG8237                    0000000140106b08     pjlib-x86_64-x64-vc14-debug-dynamic:config.obj
 0003:0005db28       $SG8239                    0000000140106b28     pjlib-x86_64-x64-vc14-debug-dynamic:config.obj
 0003:0005db30       $SG8240                    0000000140106b30     pjlib-x86_64-x64-vc14-debug-dynamic:config.obj
 0003:0005db50       $SG8242                    0000000140106b50     pjlib-x86_64-x64-vc14-debug-dynamic:config.obj
 0003:0005db70       $SG8244                    0000000140106b70     pjlib-x86_64-x64-vc14-debug-dynamic:config.obj
 0003:0005db78       $SG8245                    0000000140106b78     pjlib-x86_64-x64-vc14-debug-dynamic:config.obj
 0003:0005db98       $SG8247                    0000000140106b98     pjlib-x86_64-x64-vc14-debug-dynamic:config.obj
 0003:0005dba0       $SG8248                    0000000140106ba0     pjlib-x86_64-x64-vc14-debug-dynamic:config.obj
 0003:0005dbd0       $SG8250                    0000000140106bd0     pjlib-x86_64-x64-vc14-debug-dynamic:config.obj
 0003:0005dbe0       $SG8251                    0000000140106be0     pjlib-x86_64-x64-vc14-debug-dynamic:config.obj
 0003:0005dc00       $SG8253                    0000000140106c00     pjlib-x86_64-x64-vc14-debug-dynamic:config.obj
 0003:0005dc20       $SG8255                    0000000140106c20     pjlib-x86_64-x64-vc14-debug-dynamic:config.obj
 0003:0005dc40       $SG8257                    0000000140106c40     pjlib-x86_64-x64-vc14-debug-dynamic:config.obj
 0003:0005dc60       $SG8259                    0000000140106c60     pjlib-x86_64-x64-vc14-debug-dynamic:config.obj
 0003:0005dc80       $SG8261                    0000000140106c80     pjlib-x86_64-x64-vc14-debug-dynamic:config.obj
 0003:0005dca0       $SG8263                    0000000140106ca0     pjlib-x86_64-x64-vc14-debug-dynamic:config.obj
 0003:0005dcc0       $SG8265                    0000000140106cc0     pjlib-x86_64-x64-vc14-debug-dynamic:config.obj
 0003:0005dce0       $SG8267                    0000000140106ce0     pjlib-x86_64-x64-vc14-debug-dynamic:config.obj
 0003:0005dd00       $SG8269                    0000000140106d00     pjlib-x86_64-x64-vc14-debug-dynamic:config.obj
 0003:0005dd20       $SG8271                    0000000140106d20     pjlib-x86_64-x64-vc14-debug-dynamic:config.obj
 0003:0005dd40       $SG8273                    0000000140106d40     pjlib-x86_64-x64-vc14-debug-dynamic:config.obj
 0003:0005dd60       $SG8275                    0000000140106d60     pjlib-x86_64-x64-vc14-debug-dynamic:config.obj
 0003:0005dd80       $SG8277                    0000000140106d80     pjlib-x86_64-x64-vc14-debug-dynamic:config.obj
 0003:0005dda0       $SG8279                    0000000140106da0     pjlib-x86_64-x64-vc14-debug-dynamic:config.obj
 0003:0005ddc0       $SG8281                    0000000140106dc0     pjlib-x86_64-x64-vc14-debug-dynamic:config.obj
 0003:0005dde0       $SG8283                    0000000140106de0     pjlib-x86_64-x64-vc14-debug-dynamic:config.obj
 0003:0005de00       $SG8285                    0000000140106e00     pjlib-x86_64-x64-vc14-debug-dynamic:config.obj
 0003:0005de20       $SG8287                    0000000140106e20     pjlib-x86_64-x64-vc14-debug-dynamic:config.obj
 0003:0005de40       $SG8289                    0000000140106e40     pjlib-x86_64-x64-vc14-debug-dynamic:config.obj
 0003:0005de60       $SG8291                    0000000140106e60     pjlib-x86_64-x64-vc14-debug-dynamic:config.obj
 0003:0005de80       $SG8293                    0000000140106e80     pjlib-x86_64-x64-vc14-debug-dynamic:config.obj
 0003:0005dea0       $SG8295                    0000000140106ea0     pjlib-x86_64-x64-vc14-debug-dynamic:config.obj
 0003:0005dec0       $SG8297                    0000000140106ec0     pjlib-x86_64-x64-vc14-debug-dynamic:config.obj
 0003:0005dee0       $SG8299                    0000000140106ee0     pjlib-x86_64-x64-vc14-debug-dynamic:config.obj
 0003:0005df00       $SG8301                    0000000140106f00     pjlib-x86_64-x64-vc14-debug-dynamic:config.obj
 0003:0005df20       $SG8303                    0000000140106f20     pjlib-x86_64-x64-vc14-debug-dynamic:config.obj
 0003:0005e030       $SG62196                   0000000140107030     pjlib-x86_64-x64-vc14-debug-dynamic:ip_helper_win32.obj
 0003:0005e040       $SG62211                   0000000140107040     pjlib-x86_64-x64-vc14-debug-dynamic:ip_helper_win32.obj
 0003:0005e050       $SG62229                   0000000140107050     pjlib-x86_64-x64-vc14-debug-dynamic:ip_helper_win32.obj
 0003:0005e068       $SG62239                   0000000140107068     pjlib-x86_64-x64-vc14-debug-dynamic:ip_helper_win32.obj
 0003:0005e078       $SG62253                   0000000140107078     pjlib-x86_64-x64-vc14-debug-dynamic:ip_helper_win32.obj
 0003:0005e090       $SG62282                   0000000140107090     pjlib-x86_64-x64-vc14-debug-dynamic:ip_helper_win32.obj
 0003:0005e190       $SG62283                   0000000140107190     pjlib-x86_64-x64-vc14-debug-dynamic:ip_helper_win32.obj
 0003:0005e1b0       $SG62354                   00000001401071b0     pjlib-x86_64-x64-vc14-debug-dynamic:ip_helper_win32.obj
 0003:0005e2b0       $SG62355                   00000001401072b0     pjlib-x86_64-x64-vc14-debug-dynamic:ip_helper_win32.obj
 0003:0005e2d0       $SG62357                   00000001401072d0     pjlib-x86_64-x64-vc14-debug-dynamic:ip_helper_win32.obj
 0003:0005e3d0       $SG62358                   00000001401073d0     pjlib-x86_64-x64-vc14-debug-dynamic:ip_helper_win32.obj
 0003:0005e440       $SG62401                   0000000140107440     pjlib-x86_64-x64-vc14-debug-dynamic:ip_helper_win32.obj
 0003:0005e540       $SG62402                   0000000140107540     pjlib-x86_64-x64-vc14-debug-dynamic:ip_helper_win32.obj
 0003:0005e690       $SG14661                   0000000140107690     pjlib-x86_64-x64-vc14-debug-dynamic:pool_policy_malloc.obj
 0003:0005e720       $SG14675                   0000000140107720     pjlib-x86_64-x64-vc14-debug-dynamic:pool_policy_malloc.obj
 0003:0005e7b0       $SG14685                   00000001401077b0     pjlib-x86_64-x64-vc14-debug-dynamic:pool_policy_malloc.obj
 0003:0005e890       $SG11287                   0000000140107890     pjlib-x86_64-x64-vc14-debug-dynamic:log_writer_stdout.obj
 0003:0005e914       $SG11290                   0000000140107914     pjlib-x86_64-x64-vc14-debug-dynamic:log_writer_stdout.obj
 0003:0005e918       $SG11291                   0000000140107918     pjlib-x86_64-x64-vc14-debug-dynamic:log_writer_stdout.obj
 0003:0005e940       $SG54821                   0000000140107940     pjlib-x86_64-x64-vc14-debug-dynamic:sock_select.obj
 0003:0005e9c0       $SG54851                   00000001401079c0     pjlib-x86_64-x64-vc14-debug-dynamic:sock_select.obj
 0003:0005ea40       $SG54887                   0000000140107a40     pjlib-x86_64-x64-vc14-debug-dynamic:sock_select.obj
 0003:0005eac0       $SG54909                   0000000140107ac0     pjlib-x86_64-x64-vc14-debug-dynamic:sock_select.obj
 0003:0005eb40       $SG54945                   0000000140107b40     pjlib-x86_64-x64-vc14-debug-dynamic:sock_select.obj
 0003:0005ee10       app                        0000000140107e10     sipecho.obj
 0003:0005f200       sip_af                     0000000140108200     sipecho.obj
 0003:0005f204       sip_tcp                    0000000140108204     sipecho.obj
 0003:0005f2d4       is_initialized             00000001401082d4     pjsip-ua-x86_64-x64-vc14-debug-dynamic:sip_timer.obj
 0003:0005f2e0       status_phrase              00000001401082e0     pjsip-core-x86_64-x64-vc14-debug-dynamic:sip_msg.obj
 0003:00061f40       ?is_initialized@?1??pjsip_get_status_text@@9@9 000000014010af40     pjsip-core-x86_64-x64-vc14-debug-dynamic:sip_msg.obj
 0003:00061f44       $SG18157                   000000014010af44     pjsip-core-x86_64-x64-vc14-debug-dynamic:sip_msg.obj
 0003:00061f45       $SG18160                   000000014010af45     pjsip-core-x86_64-x64-vc14-debug-dynamic:sip_msg.obj
 0003:00061f46       $SG18249                   000000014010af46     pjsip-core-x86_64-x64-vc14-debug-dynamic:sip_msg.obj
 0003:00062828       $SG20094                   000000014010b828     pjsip-core-x86_64-x64-vc14-debug-dynamic:sip_transport.obj
 0003:00062829       $SG20096                   000000014010b829     pjsip-core-x86_64-x64-vc14-debug-dynamic:sip_transport.obj
 0003:0006282a       $SG20097                   000000014010b82a     pjsip-core-x86_64-x64-vc14-debug-dynamic:sip_transport.obj
 0003:0006282b       $SG20099                   000000014010b82b     pjsip-core-x86_64-x64-vc14-debug-dynamic:sip_transport.obj
 0003:0006282c       $SG64599                   000000014010b82c     pjsip-core-x86_64-x64-vc14-debug-dynamic:sip_transport_udp.obj
 0003:0006282d       $SG64600                   000000014010b82d     pjsip-core-x86_64-x64-vc14-debug-dynamic:sip_transport_udp.obj
 0003:00062830       handler                    000000014010b830     pjsip-core-x86_64-x64-vc14-debug-dynamic:sip_parser.obj
 0003:00064330       handler_count              000000014010d330     pjsip-core-x86_64-x64-vc14-debug-dynamic:sip_parser.obj
 0003:00064334       parser_is_initialized      000000014010d334     pjsip-core-x86_64-x64-vc14-debug-dynamic:sip_parser.obj
 0003:00064338       uri_handler_count          000000014010d338     pjsip-core-x86_64-x64-vc14-debug-dynamic:sip_parser.obj
 0003:00064340       uri_handler                000000014010d340     pjsip-core-x86_64-x64-vc14-debug-dynamic:sip_parser.obj
 0003:000643a0       cis_buf                    000000014010d3a0     pjsip-core-x86_64-x64-vc14-debug-dynamic:sip_parser.obj
 0003:00064dee       $SG16967                   000000014010ddee     pjsip-core-x86_64-x64-vc14-debug-dynamic:sip_multipart.obj
 0003:00064def       $SG16334                   000000014010ddef     pjsip-core-x86_64-x64-vc14-debug-dynamic:sip_uri.obj
 0003:00064df0       $SG16337                   000000014010ddf0     pjsip-core-x86_64-x64-vc14-debug-dynamic:sip_uri.obj
 0003:00064e00       cis_buf                    000000014010de00     pjsip-core-x86_64-x64-vc14-debug-dynamic:sip_tel_uri.obj
 0003:00065208       pjsip_TEL_NUMBER_SPEC      000000014010e208     pjsip-core-x86_64-x64-vc14-debug-dynamic:sip_tel_uri.obj
 0003:00065218       pjsip_TEL_EXT_VALUE_SPEC   000000014010e218     pjsip-core-x86_64-x64-vc14-debug-dynamic:sip_tel_uri.obj
 0003:00065228       pjsip_TEL_PHONE_CONTEXT_SPEC 000000014010e228     pjsip-core-x86_64-x64-vc14-debug-dynamic:sip_tel_uri.obj
 0003:00065238       pjsip_TEL_URIC_SPEC        000000014010e238     pjsip-core-x86_64-x64-vc14-debug-dynamic:sip_tel_uri.obj
 0003:00065248       pjsip_TEL_VISUAL_SEP_SPEC  000000014010e248     pjsip-core-x86_64-x64-vc14-debug-dynamic:sip_tel_uri.obj
 0003:00065258       pjsip_TEL_PNAME_SPEC       000000014010e258     pjsip-core-x86_64-x64-vc14-debug-dynamic:sip_tel_uri.obj
 0003:00065268       pjsip_TEL_PVALUE_SPEC      000000014010e268     pjsip-core-x86_64-x64-vc14-debug-dynamic:sip_tel_uri.obj
 0003:00065278       pjsip_TEL_PVALUE_SPEC_ESC  000000014010e278     pjsip-core-x86_64-x64-vc14-debug-dynamic:sip_tel_uri.obj
 0003:00065288       pjsip_TEL_PARSING_PVALUE_SPEC 000000014010e288     pjsip-core-x86_64-x64-vc14-debug-dynamic:sip_tel_uri.obj
 0003:00065298       pjsip_TEL_PARSING_PVALUE_SPEC_ESC 000000014010e298     pjsip-core-x86_64-x64-vc14-debug-dynamic:sip_tel_uri.obj
 0003:000653a0       is_initialized             000000014010e3a0     pjmedia-x86_64-x64-vc14-debug-dynamic:sdp.obj
 0003:000653a4       $SG17124                   000000014010e3a4     pjmedia-x86_64-x64-vc14-debug-dynamic:sdp.obj
 0003:000653b0       cis_buf                    000000014010e3b0     pjmedia-x86_64-x64-vc14-debug-dynamic:sdp.obj
 0003:000657b8       cs_digit                   000000014010e7b8     pjmedia-x86_64-x64-vc14-debug-dynamic:sdp.obj
 0003:000657c8       cs_token                   000000014010e7c8     pjmedia-x86_64-x64-vc14-debug-dynamic:sdp.obj
 0003:000658b0       fmt_match_cb_cnt           000000014010e8b0     pjmedia-x86_64-x64-vc14-debug-dynamic:sdp_neg.obj
 0003:000658c0       fmt_match_cb               000000014010e8c0     pjmedia-x86_64-x64-vc14-debug-dynamic:sdp_neg.obj
 0003:000659b8       __getopt_initialized       000000014010e9b8     pjlib-util-x86_64-x64-vc14-debug-dynamic:getopt.obj
 0003:000659bc       ordering                   000000014010e9bc     pjlib-util-x86_64-x64-vc14-debug-dynamic:getopt.obj
 0003:000659c0       nextchar                   000000014010e9c0     pjlib-util-x86_64-x64-vc14-debug-dynamic:getopt.obj
 0003:000659c8       posixly_correct            000000014010e9c8     pjlib-util-x86_64-x64-vc14-debug-dynamic:getopt.obj
 0003:000659d0       first_nonopt               000000014010e9d0     pjlib-util-x86_64-x64-vc14-debug-dynamic:getopt.obj
 0003:000659d4       last_nonopt                000000014010e9d4     pjlib-util-x86_64-x64-vc14-debug-dynamic:getopt.obj
 0003:000659d8       $SG13933                   000000014010e9d8     pjlib-util-x86_64-x64-vc14-debug-dynamic:getopt.obj
 0003:000659e1       $SG62050                   000000014010e9e1     pjlib-util-x86_64-x64-vc14-debug-dynamic:resolver.obj
 0003:000659f0       initialized                000000014010e9f0     pjlib-x86_64-x64-vc14-debug-dynamic:os_core_win32.obj
 0003:000659f4       atexit_count               000000014010e9f4     pjlib-x86_64-x64-vc14-debug-dynamic:os_core_win32.obj
 0003:000659f8       $SG59961                   000000014010e9f8     pjlib-x86_64-x64-vc14-debug-dynamic:os_core_win32.obj
 0003:00065a00       main_thread                000000014010ea00     pjlib-x86_64-x64-vc14-debug-dynamic:os_core_win32.obj
 0003:00065b00       critical_section_mutex     000000014010eb00     pjlib-x86_64-x64-vc14-debug-dynamic:os_core_win32.obj
 0003:00065b60       atexit_func                000000014010eb60     pjlib-x86_64-x64-vc14-debug-dynamic:os_core_win32.obj
 0003:00065ce0       err_msg_hnd_cnt            000000014010ece0     pjlib-x86_64-x64-vc14-debug-dynamic:errno.obj
 0003:00065cf0       err_msg_hnd                000000014010ecf0     pjlib-x86_64-x64-vc14-debug-dynamic:errno.obj
 0003:00065db3       $SG60326                   000000014010edb3     pjlib-x86_64-x64-vc14-debug-dynamic:sock_common.obj
 0003:00065db4       $SG60330                   000000014010edb4     pjlib-x86_64-x64-vc14-debug-dynamic:sock_common.obj
 0003:00065db5       $SG60331                   000000014010edb5     pjlib-x86_64-x64-vc14-debug-dynamic:sock_common.obj
 0003:00065db6       $SG60980                   000000014010edb6     pjlib-x86_64-x64-vc14-debug-dynamic:sock_common.obj
 0003:00065db7       $SG60981                   000000014010edb7     pjlib-x86_64-x64-vc14-debug-dynamic:sock_common.obj
 0003:00065dc0       g_last_thread              000000014010edc0     pjlib-x86_64-x64-vc14-debug-dynamic:log.obj
 0003:00065dd0       ?buf@?1??pj_gethostname@@9@9 000000014010edd0     pjlib-x86_64-x64-vc14-debug-dynamic:sock_bsd.obj
 0003:00065e50       ?hostname@?1??pj_gethostname@@9@9 000000014010ee50     pjlib-x86_64-x64-vc14-debug-dynamic:sock_bsd.obj
 0003:00065e80       base_time                  000000014010ee80     pjlib-x86_64-x64-vc14-debug-dynamic:os_time_win32.obj
 0003:00065e90       exception_id_names         000000014010ee90     pjlib-x86_64-x64-vc14-debug-dynamic:except.obj
 0003:00065f10       ?unknown_name@?1??pj_exception_id_name@@9@9 000000014010ef10     pjlib-x86_64-x64-vc14-debug-dynamic:except.obj
 0003:00065f50       $SG61083                   000000014010ef50     pjlib-x86_64-x64-vc14-debug-dynamic:activesock.obj
 0003:00065f60       stack_based_factory        000000014010ef60     pjlib-x86_64-x64-vc14-debug-dynamic:pool_buf.obj
 0003:00065fa8       is_initialized             000000014010efa8     pjlib-x86_64-x64-vc14-debug-dynamic:pool_buf.obj
 0003:00065fc0       s_hDLL                     000000014010efc0     pjlib-x86_64-x64-vc14-debug-dynamic:ip_helper_win32.obj
 0003:00065fc8       s_pfnGetIpAddrTable        000000014010efc8     pjlib-x86_64-x64-vc14-debug-dynamic:ip_helper_win32.obj
 0003:00065fd0       s_pfnGetAdapterAddresses   000000014010efd0     pjlib-x86_64-x64-vc14-debug-dynamic:ip_helper_win32.obj
 0003:00065fd8       s_pfnGetIpForwardTable     000000014010efd8     pjlib-x86_64-x64-vc14-debug-dynamic:ip_helper_win32.obj
 0003:00065fe0       s_pfnGetIfEntry            000000014010efe0     pjlib-x86_64-x64-vc14-debug-dynamic:ip_helper_win32.obj
 0003:00065ff0       GS_ExceptionRecord         000000014010eff0     MSVCRTD:gs_report.obj
 0003:00066090       GS_ContextRecord           000000014010f090     MSVCRTD:gs_report.obj
 0003:00066688       ?is_initialized_as_dll@@3_NA 000000014010f688     MSVCRTD:utility.obj
 0003:00066689       ?module_local_atexit_table_initialized@@3_NA 000000014010f689     MSVCRTD:utility.obj
 0003:00066690       ?module_local_atexit_table@@3U_onexit_table_t@@A 000000014010f690     MSVCRTD:utility.obj
 0003:000666a8       ?module_local_at_quick_exit_table@@3U_onexit_table_t@@A 000000014010f6a8     MSVCRTD:utility.obj
 0005:00000f08       .idata$6                   0000000140116f08     ole32:ole32.dll
 0005:00000f58       .idata$6                   0000000140116f58     ws2_32:WS2_32.dll
 0005:00001372       .idata$6                   0000000140117372     kernel32:KERNEL32.dll
 0005:00001448       .idata$6                   0000000140117448     vcruntimed:VCRUNTIME140D.dll
 0005:00001766       .idata$6                   0000000140117766     ucrtd:ucrtbased.dll
